ARM GAS  /tmp/ccWkqZxZ.s 			page 1


   1              		.cpu cortex-m4
   2              		.arch armv7e-m
   3              		.fpu fpv4-sp-d16
   4              		.eabi_attribute 27, 1
   5              		.eabi_attribute 28, 1
   6              		.eabi_attribute 20, 1
   7              		.eabi_attribute 21, 1
   8              		.eabi_attribute 23, 3
   9              		.eabi_attribute 24, 1
  10              		.eabi_attribute 25, 1
  11              		.eabi_attribute 26, 1
  12              		.eabi_attribute 30, 1
  13              		.eabi_attribute 34, 1
  14              		.eabi_attribute 18, 4
  15              		.file	"event_groups.c"
  16              		.text
  17              	.Ltext0:
  18              		.cfi_sections	.debug_frame
  19              		.file 1 "Middlewares/Third_Party/FreeRTOS/Source/event_groups.c"
  20              		.section	.text.prvTestWaitCondition,"ax",%progbits
  21              		.align	1
  22              		.syntax unified
  23              		.thumb
  24              		.thumb_func
  26              	prvTestWaitCondition:
  27              	.LVL0:
  28              	.LFB15:
   1:Middlewares/Third_Party/FreeRTOS/Source/event_groups.c **** /*
   2:Middlewares/Third_Party/FreeRTOS/Source/event_groups.c ****  * FreeRTOS Kernel V10.3.1
   3:Middlewares/Third_Party/FreeRTOS/Source/event_groups.c ****  * Copyright (C) 2020 Amazon.com, Inc. or its affiliates.  All Rights Reserved.
   4:Middlewares/Third_Party/FreeRTOS/Source/event_groups.c ****  *
   5:Middlewares/Third_Party/FreeRTOS/Source/event_groups.c ****  * Permission is hereby granted, free of charge, to any person obtaining a copy of
   6:Middlewares/Third_Party/FreeRTOS/Source/event_groups.c ****  * this software and associated documentation files (the "Software"), to deal in
   7:Middlewares/Third_Party/FreeRTOS/Source/event_groups.c ****  * the Software without restriction, including without limitation the rights to
   8:Middlewares/Third_Party/FreeRTOS/Source/event_groups.c ****  * use, copy, modify, merge, publish, distribute, sublicense, and/or sell copies of
   9:Middlewares/Third_Party/FreeRTOS/Source/event_groups.c ****  * the Software, and to permit persons to whom the Software is furnished to do so,
  10:Middlewares/Third_Party/FreeRTOS/Source/event_groups.c ****  * subject to the following conditions:
  11:Middlewares/Third_Party/FreeRTOS/Source/event_groups.c ****  *
  12:Middlewares/Third_Party/FreeRTOS/Source/event_groups.c ****  * The above copyright notice and this permission notice shall be included in all
  13:Middlewares/Third_Party/FreeRTOS/Source/event_groups.c ****  * copies or substantial portions of the Software.
  14:Middlewares/Third_Party/FreeRTOS/Source/event_groups.c ****  *
  15:Middlewares/Third_Party/FreeRTOS/Source/event_groups.c ****  * THE SOFTWARE IS PROVIDED "AS IS", WITHOUT WARRANTY OF ANY KIND, EXPRESS OR
  16:Middlewares/Third_Party/FreeRTOS/Source/event_groups.c ****  * IMPLIED, INCLUDING BUT NOT LIMITED TO THE WARRANTIES OF MERCHANTABILITY, FITNESS
  17:Middlewares/Third_Party/FreeRTOS/Source/event_groups.c ****  * FOR A PARTICULAR PURPOSE AND NONINFRINGEMENT. IN NO EVENT SHALL THE AUTHORS OR
  18:Middlewares/Third_Party/FreeRTOS/Source/event_groups.c ****  * COPYRIGHT HOLDERS BE LIABLE FOR ANY CLAIM, DAMAGES OR OTHER LIABILITY, WHETHER
  19:Middlewares/Third_Party/FreeRTOS/Source/event_groups.c ****  * IN AN ACTION OF CONTRACT, TORT OR OTHERWISE, ARISING FROM, OUT OF OR IN
  20:Middlewares/Third_Party/FreeRTOS/Source/event_groups.c ****  * CONNECTION WITH THE SOFTWARE OR THE USE OR OTHER DEALINGS IN THE SOFTWARE.
  21:Middlewares/Third_Party/FreeRTOS/Source/event_groups.c ****  *
  22:Middlewares/Third_Party/FreeRTOS/Source/event_groups.c ****  * http://www.FreeRTOS.org
  23:Middlewares/Third_Party/FreeRTOS/Source/event_groups.c ****  * http://aws.amazon.com/freertos
  24:Middlewares/Third_Party/FreeRTOS/Source/event_groups.c ****  *
  25:Middlewares/Third_Party/FreeRTOS/Source/event_groups.c ****  * 1 tab == 4 spaces!
  26:Middlewares/Third_Party/FreeRTOS/Source/event_groups.c ****  */
  27:Middlewares/Third_Party/FreeRTOS/Source/event_groups.c **** 
  28:Middlewares/Third_Party/FreeRTOS/Source/event_groups.c **** /* Standard includes. */
  29:Middlewares/Third_Party/FreeRTOS/Source/event_groups.c **** #include <stdlib.h>
  30:Middlewares/Third_Party/FreeRTOS/Source/event_groups.c **** 
ARM GAS  /tmp/ccWkqZxZ.s 			page 2


  31:Middlewares/Third_Party/FreeRTOS/Source/event_groups.c **** /* Defining MPU_WRAPPERS_INCLUDED_FROM_API_FILE prevents task.h from redefining
  32:Middlewares/Third_Party/FreeRTOS/Source/event_groups.c **** all the API functions to use the MPU wrappers.  That should only be done when
  33:Middlewares/Third_Party/FreeRTOS/Source/event_groups.c **** task.h is included from an application file. */
  34:Middlewares/Third_Party/FreeRTOS/Source/event_groups.c **** #define MPU_WRAPPERS_INCLUDED_FROM_API_FILE
  35:Middlewares/Third_Party/FreeRTOS/Source/event_groups.c **** 
  36:Middlewares/Third_Party/FreeRTOS/Source/event_groups.c **** /* FreeRTOS includes. */
  37:Middlewares/Third_Party/FreeRTOS/Source/event_groups.c **** #include "FreeRTOS.h"
  38:Middlewares/Third_Party/FreeRTOS/Source/event_groups.c **** #include "task.h"
  39:Middlewares/Third_Party/FreeRTOS/Source/event_groups.c **** #include "timers.h"
  40:Middlewares/Third_Party/FreeRTOS/Source/event_groups.c **** #include "event_groups.h"
  41:Middlewares/Third_Party/FreeRTOS/Source/event_groups.c **** 
  42:Middlewares/Third_Party/FreeRTOS/Source/event_groups.c **** /* Lint e961, e750 and e9021 are suppressed as a MISRA exception justified
  43:Middlewares/Third_Party/FreeRTOS/Source/event_groups.c **** because the MPU ports require MPU_WRAPPERS_INCLUDED_FROM_API_FILE to be defined
  44:Middlewares/Third_Party/FreeRTOS/Source/event_groups.c **** for the header files above, but not in this file, in order to generate the
  45:Middlewares/Third_Party/FreeRTOS/Source/event_groups.c **** correct privileged Vs unprivileged linkage and placement. */
  46:Middlewares/Third_Party/FreeRTOS/Source/event_groups.c **** #undef MPU_WRAPPERS_INCLUDED_FROM_API_FILE /*lint !e961 !e750 !e9021 See comment above. */
  47:Middlewares/Third_Party/FreeRTOS/Source/event_groups.c **** 
  48:Middlewares/Third_Party/FreeRTOS/Source/event_groups.c **** /* The following bit fields convey control information in a task's event list
  49:Middlewares/Third_Party/FreeRTOS/Source/event_groups.c **** item value.  It is important they don't clash with the
  50:Middlewares/Third_Party/FreeRTOS/Source/event_groups.c **** taskEVENT_LIST_ITEM_VALUE_IN_USE definition. */
  51:Middlewares/Third_Party/FreeRTOS/Source/event_groups.c **** #if configUSE_16_BIT_TICKS == 1
  52:Middlewares/Third_Party/FreeRTOS/Source/event_groups.c **** 	#define eventCLEAR_EVENTS_ON_EXIT_BIT	0x0100U
  53:Middlewares/Third_Party/FreeRTOS/Source/event_groups.c **** 	#define eventUNBLOCKED_DUE_TO_BIT_SET	0x0200U
  54:Middlewares/Third_Party/FreeRTOS/Source/event_groups.c **** 	#define eventWAIT_FOR_ALL_BITS			0x0400U
  55:Middlewares/Third_Party/FreeRTOS/Source/event_groups.c **** 	#define eventEVENT_BITS_CONTROL_BYTES	0xff00U
  56:Middlewares/Third_Party/FreeRTOS/Source/event_groups.c **** #else
  57:Middlewares/Third_Party/FreeRTOS/Source/event_groups.c **** 	#define eventCLEAR_EVENTS_ON_EXIT_BIT	0x01000000UL
  58:Middlewares/Third_Party/FreeRTOS/Source/event_groups.c **** 	#define eventUNBLOCKED_DUE_TO_BIT_SET	0x02000000UL
  59:Middlewares/Third_Party/FreeRTOS/Source/event_groups.c **** 	#define eventWAIT_FOR_ALL_BITS			0x04000000UL
  60:Middlewares/Third_Party/FreeRTOS/Source/event_groups.c **** 	#define eventEVENT_BITS_CONTROL_BYTES	0xff000000UL
  61:Middlewares/Third_Party/FreeRTOS/Source/event_groups.c **** #endif
  62:Middlewares/Third_Party/FreeRTOS/Source/event_groups.c **** 
  63:Middlewares/Third_Party/FreeRTOS/Source/event_groups.c **** typedef struct EventGroupDef_t
  64:Middlewares/Third_Party/FreeRTOS/Source/event_groups.c **** {
  65:Middlewares/Third_Party/FreeRTOS/Source/event_groups.c **** 	EventBits_t uxEventBits;
  66:Middlewares/Third_Party/FreeRTOS/Source/event_groups.c **** 	List_t xTasksWaitingForBits;		/*< List of tasks waiting for a bit to be set. */
  67:Middlewares/Third_Party/FreeRTOS/Source/event_groups.c **** 
  68:Middlewares/Third_Party/FreeRTOS/Source/event_groups.c **** 	#if( configUSE_TRACE_FACILITY == 1 )
  69:Middlewares/Third_Party/FreeRTOS/Source/event_groups.c **** 		UBaseType_t uxEventGroupNumber;
  70:Middlewares/Third_Party/FreeRTOS/Source/event_groups.c **** 	#endif
  71:Middlewares/Third_Party/FreeRTOS/Source/event_groups.c **** 
  72:Middlewares/Third_Party/FreeRTOS/Source/event_groups.c **** 	#if( ( configSUPPORT_STATIC_ALLOCATION == 1 ) && ( configSUPPORT_DYNAMIC_ALLOCATION == 1 ) )
  73:Middlewares/Third_Party/FreeRTOS/Source/event_groups.c **** 		uint8_t ucStaticallyAllocated; /*< Set to pdTRUE if the event group is statically allocated to en
  74:Middlewares/Third_Party/FreeRTOS/Source/event_groups.c **** 	#endif
  75:Middlewares/Third_Party/FreeRTOS/Source/event_groups.c **** } EventGroup_t;
  76:Middlewares/Third_Party/FreeRTOS/Source/event_groups.c **** 
  77:Middlewares/Third_Party/FreeRTOS/Source/event_groups.c **** /*-----------------------------------------------------------*/
  78:Middlewares/Third_Party/FreeRTOS/Source/event_groups.c **** 
  79:Middlewares/Third_Party/FreeRTOS/Source/event_groups.c **** /*
  80:Middlewares/Third_Party/FreeRTOS/Source/event_groups.c ****  * Test the bits set in uxCurrentEventBits to see if the wait condition is met.
  81:Middlewares/Third_Party/FreeRTOS/Source/event_groups.c ****  * The wait condition is defined by xWaitForAllBits.  If xWaitForAllBits is
  82:Middlewares/Third_Party/FreeRTOS/Source/event_groups.c ****  * pdTRUE then the wait condition is met if all the bits set in uxBitsToWaitFor
  83:Middlewares/Third_Party/FreeRTOS/Source/event_groups.c ****  * are also set in uxCurrentEventBits.  If xWaitForAllBits is pdFALSE then the
  84:Middlewares/Third_Party/FreeRTOS/Source/event_groups.c ****  * wait condition is met if any of the bits set in uxBitsToWait for are also set
  85:Middlewares/Third_Party/FreeRTOS/Source/event_groups.c ****  * in uxCurrentEventBits.
  86:Middlewares/Third_Party/FreeRTOS/Source/event_groups.c ****  */
  87:Middlewares/Third_Party/FreeRTOS/Source/event_groups.c **** static BaseType_t prvTestWaitCondition( const EventBits_t uxCurrentEventBits, const EventBits_t uxB
ARM GAS  /tmp/ccWkqZxZ.s 			page 3


  88:Middlewares/Third_Party/FreeRTOS/Source/event_groups.c **** 
  89:Middlewares/Third_Party/FreeRTOS/Source/event_groups.c **** /*-----------------------------------------------------------*/
  90:Middlewares/Third_Party/FreeRTOS/Source/event_groups.c **** 
  91:Middlewares/Third_Party/FreeRTOS/Source/event_groups.c **** #if( configSUPPORT_STATIC_ALLOCATION == 1 )
  92:Middlewares/Third_Party/FreeRTOS/Source/event_groups.c **** 
  93:Middlewares/Third_Party/FreeRTOS/Source/event_groups.c **** 	EventGroupHandle_t xEventGroupCreateStatic( StaticEventGroup_t *pxEventGroupBuffer )
  94:Middlewares/Third_Party/FreeRTOS/Source/event_groups.c **** 	{
  95:Middlewares/Third_Party/FreeRTOS/Source/event_groups.c **** 	EventGroup_t *pxEventBits;
  96:Middlewares/Third_Party/FreeRTOS/Source/event_groups.c **** 
  97:Middlewares/Third_Party/FreeRTOS/Source/event_groups.c **** 		/* A StaticEventGroup_t object must be provided. */
  98:Middlewares/Third_Party/FreeRTOS/Source/event_groups.c **** 		configASSERT( pxEventGroupBuffer );
  99:Middlewares/Third_Party/FreeRTOS/Source/event_groups.c **** 
 100:Middlewares/Third_Party/FreeRTOS/Source/event_groups.c **** 		#if( configASSERT_DEFINED == 1 )
 101:Middlewares/Third_Party/FreeRTOS/Source/event_groups.c **** 		{
 102:Middlewares/Third_Party/FreeRTOS/Source/event_groups.c **** 			/* Sanity check that the size of the structure used to declare a
 103:Middlewares/Third_Party/FreeRTOS/Source/event_groups.c **** 			variable of type StaticEventGroup_t equals the size of the real
 104:Middlewares/Third_Party/FreeRTOS/Source/event_groups.c **** 			event group structure. */
 105:Middlewares/Third_Party/FreeRTOS/Source/event_groups.c **** 			volatile size_t xSize = sizeof( StaticEventGroup_t );
 106:Middlewares/Third_Party/FreeRTOS/Source/event_groups.c **** 			configASSERT( xSize == sizeof( EventGroup_t ) );
 107:Middlewares/Third_Party/FreeRTOS/Source/event_groups.c **** 		} /*lint !e529 xSize is referenced if configASSERT() is defined. */
 108:Middlewares/Third_Party/FreeRTOS/Source/event_groups.c **** 		#endif /* configASSERT_DEFINED */
 109:Middlewares/Third_Party/FreeRTOS/Source/event_groups.c **** 
 110:Middlewares/Third_Party/FreeRTOS/Source/event_groups.c **** 		/* The user has provided a statically allocated event group - use it. */
 111:Middlewares/Third_Party/FreeRTOS/Source/event_groups.c **** 		pxEventBits = ( EventGroup_t * ) pxEventGroupBuffer; /*lint !e740 !e9087 EventGroup_t and StaticE
 112:Middlewares/Third_Party/FreeRTOS/Source/event_groups.c **** 
 113:Middlewares/Third_Party/FreeRTOS/Source/event_groups.c **** 		if( pxEventBits != NULL )
 114:Middlewares/Third_Party/FreeRTOS/Source/event_groups.c **** 		{
 115:Middlewares/Third_Party/FreeRTOS/Source/event_groups.c **** 			pxEventBits->uxEventBits = 0;
 116:Middlewares/Third_Party/FreeRTOS/Source/event_groups.c **** 			vListInitialise( &( pxEventBits->xTasksWaitingForBits ) );
 117:Middlewares/Third_Party/FreeRTOS/Source/event_groups.c **** 
 118:Middlewares/Third_Party/FreeRTOS/Source/event_groups.c **** 			#if( configSUPPORT_DYNAMIC_ALLOCATION == 1 )
 119:Middlewares/Third_Party/FreeRTOS/Source/event_groups.c **** 			{
 120:Middlewares/Third_Party/FreeRTOS/Source/event_groups.c **** 				/* Both static and dynamic allocation can be used, so note that
 121:Middlewares/Third_Party/FreeRTOS/Source/event_groups.c **** 				this event group was created statically in case the event group
 122:Middlewares/Third_Party/FreeRTOS/Source/event_groups.c **** 				is later deleted. */
 123:Middlewares/Third_Party/FreeRTOS/Source/event_groups.c **** 				pxEventBits->ucStaticallyAllocated = pdTRUE;
 124:Middlewares/Third_Party/FreeRTOS/Source/event_groups.c **** 			}
 125:Middlewares/Third_Party/FreeRTOS/Source/event_groups.c **** 			#endif /* configSUPPORT_DYNAMIC_ALLOCATION */
 126:Middlewares/Third_Party/FreeRTOS/Source/event_groups.c **** 
 127:Middlewares/Third_Party/FreeRTOS/Source/event_groups.c **** 			traceEVENT_GROUP_CREATE( pxEventBits );
 128:Middlewares/Third_Party/FreeRTOS/Source/event_groups.c **** 		}
 129:Middlewares/Third_Party/FreeRTOS/Source/event_groups.c **** 		else
 130:Middlewares/Third_Party/FreeRTOS/Source/event_groups.c **** 		{
 131:Middlewares/Third_Party/FreeRTOS/Source/event_groups.c **** 			/* xEventGroupCreateStatic should only ever be called with
 132:Middlewares/Third_Party/FreeRTOS/Source/event_groups.c **** 			pxEventGroupBuffer pointing to a pre-allocated (compile time
 133:Middlewares/Third_Party/FreeRTOS/Source/event_groups.c **** 			allocated) StaticEventGroup_t variable. */
 134:Middlewares/Third_Party/FreeRTOS/Source/event_groups.c **** 			traceEVENT_GROUP_CREATE_FAILED();
 135:Middlewares/Third_Party/FreeRTOS/Source/event_groups.c **** 		}
 136:Middlewares/Third_Party/FreeRTOS/Source/event_groups.c **** 
 137:Middlewares/Third_Party/FreeRTOS/Source/event_groups.c **** 		return pxEventBits;
 138:Middlewares/Third_Party/FreeRTOS/Source/event_groups.c **** 	}
 139:Middlewares/Third_Party/FreeRTOS/Source/event_groups.c **** 
 140:Middlewares/Third_Party/FreeRTOS/Source/event_groups.c **** #endif /* configSUPPORT_STATIC_ALLOCATION */
 141:Middlewares/Third_Party/FreeRTOS/Source/event_groups.c **** /*-----------------------------------------------------------*/
 142:Middlewares/Third_Party/FreeRTOS/Source/event_groups.c **** 
 143:Middlewares/Third_Party/FreeRTOS/Source/event_groups.c **** #if( configSUPPORT_DYNAMIC_ALLOCATION == 1 )
 144:Middlewares/Third_Party/FreeRTOS/Source/event_groups.c **** 
ARM GAS  /tmp/ccWkqZxZ.s 			page 4


 145:Middlewares/Third_Party/FreeRTOS/Source/event_groups.c **** 	EventGroupHandle_t xEventGroupCreate( void )
 146:Middlewares/Third_Party/FreeRTOS/Source/event_groups.c **** 	{
 147:Middlewares/Third_Party/FreeRTOS/Source/event_groups.c **** 	EventGroup_t *pxEventBits;
 148:Middlewares/Third_Party/FreeRTOS/Source/event_groups.c **** 
 149:Middlewares/Third_Party/FreeRTOS/Source/event_groups.c **** 		/* Allocate the event group.  Justification for MISRA deviation as
 150:Middlewares/Third_Party/FreeRTOS/Source/event_groups.c **** 		follows:  pvPortMalloc() always ensures returned memory blocks are
 151:Middlewares/Third_Party/FreeRTOS/Source/event_groups.c **** 		aligned per the requirements of the MCU stack.  In this case
 152:Middlewares/Third_Party/FreeRTOS/Source/event_groups.c **** 		pvPortMalloc() must return a pointer that is guaranteed to meet the
 153:Middlewares/Third_Party/FreeRTOS/Source/event_groups.c **** 		alignment requirements of the EventGroup_t structure - which (if you
 154:Middlewares/Third_Party/FreeRTOS/Source/event_groups.c **** 		follow it through) is the alignment requirements of the TickType_t type
 155:Middlewares/Third_Party/FreeRTOS/Source/event_groups.c **** 		(EventBits_t being of TickType_t itself).  Therefore, whenever the
 156:Middlewares/Third_Party/FreeRTOS/Source/event_groups.c **** 		stack alignment requirements are greater than or equal to the
 157:Middlewares/Third_Party/FreeRTOS/Source/event_groups.c **** 		TickType_t alignment requirements the cast is safe.  In other cases,
 158:Middlewares/Third_Party/FreeRTOS/Source/event_groups.c **** 		where the natural word size of the architecture is less than
 159:Middlewares/Third_Party/FreeRTOS/Source/event_groups.c **** 		sizeof( TickType_t ), the TickType_t variables will be accessed in two
 160:Middlewares/Third_Party/FreeRTOS/Source/event_groups.c **** 		or more reads operations, and the alignment requirements is only that
 161:Middlewares/Third_Party/FreeRTOS/Source/event_groups.c **** 		of each individual read. */
 162:Middlewares/Third_Party/FreeRTOS/Source/event_groups.c **** 		pxEventBits = ( EventGroup_t * ) pvPortMalloc( sizeof( EventGroup_t ) ); /*lint !e9087 !e9079 see
 163:Middlewares/Third_Party/FreeRTOS/Source/event_groups.c **** 
 164:Middlewares/Third_Party/FreeRTOS/Source/event_groups.c **** 		if( pxEventBits != NULL )
 165:Middlewares/Third_Party/FreeRTOS/Source/event_groups.c **** 		{
 166:Middlewares/Third_Party/FreeRTOS/Source/event_groups.c **** 			pxEventBits->uxEventBits = 0;
 167:Middlewares/Third_Party/FreeRTOS/Source/event_groups.c **** 			vListInitialise( &( pxEventBits->xTasksWaitingForBits ) );
 168:Middlewares/Third_Party/FreeRTOS/Source/event_groups.c **** 
 169:Middlewares/Third_Party/FreeRTOS/Source/event_groups.c **** 			#if( configSUPPORT_STATIC_ALLOCATION == 1 )
 170:Middlewares/Third_Party/FreeRTOS/Source/event_groups.c **** 			{
 171:Middlewares/Third_Party/FreeRTOS/Source/event_groups.c **** 				/* Both static and dynamic allocation can be used, so note this
 172:Middlewares/Third_Party/FreeRTOS/Source/event_groups.c **** 				event group was allocated statically in case the event group is
 173:Middlewares/Third_Party/FreeRTOS/Source/event_groups.c **** 				later deleted. */
 174:Middlewares/Third_Party/FreeRTOS/Source/event_groups.c **** 				pxEventBits->ucStaticallyAllocated = pdFALSE;
 175:Middlewares/Third_Party/FreeRTOS/Source/event_groups.c **** 			}
 176:Middlewares/Third_Party/FreeRTOS/Source/event_groups.c **** 			#endif /* configSUPPORT_STATIC_ALLOCATION */
 177:Middlewares/Third_Party/FreeRTOS/Source/event_groups.c **** 
 178:Middlewares/Third_Party/FreeRTOS/Source/event_groups.c **** 			traceEVENT_GROUP_CREATE( pxEventBits );
 179:Middlewares/Third_Party/FreeRTOS/Source/event_groups.c **** 		}
 180:Middlewares/Third_Party/FreeRTOS/Source/event_groups.c **** 		else
 181:Middlewares/Third_Party/FreeRTOS/Source/event_groups.c **** 		{
 182:Middlewares/Third_Party/FreeRTOS/Source/event_groups.c **** 			traceEVENT_GROUP_CREATE_FAILED(); /*lint !e9063 Else branch only exists to allow tracing and doe
 183:Middlewares/Third_Party/FreeRTOS/Source/event_groups.c **** 		}
 184:Middlewares/Third_Party/FreeRTOS/Source/event_groups.c **** 
 185:Middlewares/Third_Party/FreeRTOS/Source/event_groups.c **** 		return pxEventBits;
 186:Middlewares/Third_Party/FreeRTOS/Source/event_groups.c **** 	}
 187:Middlewares/Third_Party/FreeRTOS/Source/event_groups.c **** 
 188:Middlewares/Third_Party/FreeRTOS/Source/event_groups.c **** #endif /* configSUPPORT_DYNAMIC_ALLOCATION */
 189:Middlewares/Third_Party/FreeRTOS/Source/event_groups.c **** /*-----------------------------------------------------------*/
 190:Middlewares/Third_Party/FreeRTOS/Source/event_groups.c **** 
 191:Middlewares/Third_Party/FreeRTOS/Source/event_groups.c **** EventBits_t xEventGroupSync( EventGroupHandle_t xEventGroup, const EventBits_t uxBitsToSet, const E
 192:Middlewares/Third_Party/FreeRTOS/Source/event_groups.c **** {
 193:Middlewares/Third_Party/FreeRTOS/Source/event_groups.c **** EventBits_t uxOriginalBitValue, uxReturn;
 194:Middlewares/Third_Party/FreeRTOS/Source/event_groups.c **** EventGroup_t *pxEventBits = xEventGroup;
 195:Middlewares/Third_Party/FreeRTOS/Source/event_groups.c **** BaseType_t xAlreadyYielded;
 196:Middlewares/Third_Party/FreeRTOS/Source/event_groups.c **** BaseType_t xTimeoutOccurred = pdFALSE;
 197:Middlewares/Third_Party/FreeRTOS/Source/event_groups.c **** 
 198:Middlewares/Third_Party/FreeRTOS/Source/event_groups.c **** 	configASSERT( ( uxBitsToWaitFor & eventEVENT_BITS_CONTROL_BYTES ) == 0 );
 199:Middlewares/Third_Party/FreeRTOS/Source/event_groups.c **** 	configASSERT( uxBitsToWaitFor != 0 );
 200:Middlewares/Third_Party/FreeRTOS/Source/event_groups.c **** 	#if ( ( INCLUDE_xTaskGetSchedulerState == 1 ) || ( configUSE_TIMERS == 1 ) )
 201:Middlewares/Third_Party/FreeRTOS/Source/event_groups.c **** 	{
ARM GAS  /tmp/ccWkqZxZ.s 			page 5


 202:Middlewares/Third_Party/FreeRTOS/Source/event_groups.c **** 		configASSERT( !( ( xTaskGetSchedulerState() == taskSCHEDULER_SUSPENDED ) && ( xTicksToWait != 0 )
 203:Middlewares/Third_Party/FreeRTOS/Source/event_groups.c **** 	}
 204:Middlewares/Third_Party/FreeRTOS/Source/event_groups.c **** 	#endif
 205:Middlewares/Third_Party/FreeRTOS/Source/event_groups.c **** 
 206:Middlewares/Third_Party/FreeRTOS/Source/event_groups.c **** 	vTaskSuspendAll();
 207:Middlewares/Third_Party/FreeRTOS/Source/event_groups.c **** 	{
 208:Middlewares/Third_Party/FreeRTOS/Source/event_groups.c **** 		uxOriginalBitValue = pxEventBits->uxEventBits;
 209:Middlewares/Third_Party/FreeRTOS/Source/event_groups.c **** 
 210:Middlewares/Third_Party/FreeRTOS/Source/event_groups.c **** 		( void ) xEventGroupSetBits( xEventGroup, uxBitsToSet );
 211:Middlewares/Third_Party/FreeRTOS/Source/event_groups.c **** 
 212:Middlewares/Third_Party/FreeRTOS/Source/event_groups.c **** 		if( ( ( uxOriginalBitValue | uxBitsToSet ) & uxBitsToWaitFor ) == uxBitsToWaitFor )
 213:Middlewares/Third_Party/FreeRTOS/Source/event_groups.c **** 		{
 214:Middlewares/Third_Party/FreeRTOS/Source/event_groups.c **** 			/* All the rendezvous bits are now set - no need to block. */
 215:Middlewares/Third_Party/FreeRTOS/Source/event_groups.c **** 			uxReturn = ( uxOriginalBitValue | uxBitsToSet );
 216:Middlewares/Third_Party/FreeRTOS/Source/event_groups.c **** 
 217:Middlewares/Third_Party/FreeRTOS/Source/event_groups.c **** 			/* Rendezvous always clear the bits.  They will have been cleared
 218:Middlewares/Third_Party/FreeRTOS/Source/event_groups.c **** 			already unless this is the only task in the rendezvous. */
 219:Middlewares/Third_Party/FreeRTOS/Source/event_groups.c **** 			pxEventBits->uxEventBits &= ~uxBitsToWaitFor;
 220:Middlewares/Third_Party/FreeRTOS/Source/event_groups.c **** 
 221:Middlewares/Third_Party/FreeRTOS/Source/event_groups.c **** 			xTicksToWait = 0;
 222:Middlewares/Third_Party/FreeRTOS/Source/event_groups.c **** 		}
 223:Middlewares/Third_Party/FreeRTOS/Source/event_groups.c **** 		else
 224:Middlewares/Third_Party/FreeRTOS/Source/event_groups.c **** 		{
 225:Middlewares/Third_Party/FreeRTOS/Source/event_groups.c **** 			if( xTicksToWait != ( TickType_t ) 0 )
 226:Middlewares/Third_Party/FreeRTOS/Source/event_groups.c **** 			{
 227:Middlewares/Third_Party/FreeRTOS/Source/event_groups.c **** 				traceEVENT_GROUP_SYNC_BLOCK( xEventGroup, uxBitsToSet, uxBitsToWaitFor );
 228:Middlewares/Third_Party/FreeRTOS/Source/event_groups.c **** 
 229:Middlewares/Third_Party/FreeRTOS/Source/event_groups.c **** 				/* Store the bits that the calling task is waiting for in the
 230:Middlewares/Third_Party/FreeRTOS/Source/event_groups.c **** 				task's event list item so the kernel knows when a match is
 231:Middlewares/Third_Party/FreeRTOS/Source/event_groups.c **** 				found.  Then enter the blocked state. */
 232:Middlewares/Third_Party/FreeRTOS/Source/event_groups.c **** 				vTaskPlaceOnUnorderedEventList( &( pxEventBits->xTasksWaitingForBits ), ( uxBitsToWaitFor | eve
 233:Middlewares/Third_Party/FreeRTOS/Source/event_groups.c **** 
 234:Middlewares/Third_Party/FreeRTOS/Source/event_groups.c **** 				/* This assignment is obsolete as uxReturn will get set after
 235:Middlewares/Third_Party/FreeRTOS/Source/event_groups.c **** 				the task unblocks, but some compilers mistakenly generate a
 236:Middlewares/Third_Party/FreeRTOS/Source/event_groups.c **** 				warning about uxReturn being returned without being set if the
 237:Middlewares/Third_Party/FreeRTOS/Source/event_groups.c **** 				assignment is omitted. */
 238:Middlewares/Third_Party/FreeRTOS/Source/event_groups.c **** 				uxReturn = 0;
 239:Middlewares/Third_Party/FreeRTOS/Source/event_groups.c **** 			}
 240:Middlewares/Third_Party/FreeRTOS/Source/event_groups.c **** 			else
 241:Middlewares/Third_Party/FreeRTOS/Source/event_groups.c **** 			{
 242:Middlewares/Third_Party/FreeRTOS/Source/event_groups.c **** 				/* The rendezvous bits were not set, but no block time was
 243:Middlewares/Third_Party/FreeRTOS/Source/event_groups.c **** 				specified - just return the current event bit value. */
 244:Middlewares/Third_Party/FreeRTOS/Source/event_groups.c **** 				uxReturn = pxEventBits->uxEventBits;
 245:Middlewares/Third_Party/FreeRTOS/Source/event_groups.c **** 				xTimeoutOccurred = pdTRUE;
 246:Middlewares/Third_Party/FreeRTOS/Source/event_groups.c **** 			}
 247:Middlewares/Third_Party/FreeRTOS/Source/event_groups.c **** 		}
 248:Middlewares/Third_Party/FreeRTOS/Source/event_groups.c **** 	}
 249:Middlewares/Third_Party/FreeRTOS/Source/event_groups.c **** 	xAlreadyYielded = xTaskResumeAll();
 250:Middlewares/Third_Party/FreeRTOS/Source/event_groups.c **** 
 251:Middlewares/Third_Party/FreeRTOS/Source/event_groups.c **** 	if( xTicksToWait != ( TickType_t ) 0 )
 252:Middlewares/Third_Party/FreeRTOS/Source/event_groups.c **** 	{
 253:Middlewares/Third_Party/FreeRTOS/Source/event_groups.c **** 		if( xAlreadyYielded == pdFALSE )
 254:Middlewares/Third_Party/FreeRTOS/Source/event_groups.c **** 		{
 255:Middlewares/Third_Party/FreeRTOS/Source/event_groups.c **** 			portYIELD_WITHIN_API();
 256:Middlewares/Third_Party/FreeRTOS/Source/event_groups.c **** 		}
 257:Middlewares/Third_Party/FreeRTOS/Source/event_groups.c **** 		else
 258:Middlewares/Third_Party/FreeRTOS/Source/event_groups.c **** 		{
ARM GAS  /tmp/ccWkqZxZ.s 			page 6


 259:Middlewares/Third_Party/FreeRTOS/Source/event_groups.c **** 			mtCOVERAGE_TEST_MARKER();
 260:Middlewares/Third_Party/FreeRTOS/Source/event_groups.c **** 		}
 261:Middlewares/Third_Party/FreeRTOS/Source/event_groups.c **** 
 262:Middlewares/Third_Party/FreeRTOS/Source/event_groups.c **** 		/* The task blocked to wait for its required bits to be set - at this
 263:Middlewares/Third_Party/FreeRTOS/Source/event_groups.c **** 		point either the required bits were set or the block time expired.  If
 264:Middlewares/Third_Party/FreeRTOS/Source/event_groups.c **** 		the required bits were set they will have been stored in the task's
 265:Middlewares/Third_Party/FreeRTOS/Source/event_groups.c **** 		event list item, and they should now be retrieved then cleared. */
 266:Middlewares/Third_Party/FreeRTOS/Source/event_groups.c **** 		uxReturn = uxTaskResetEventItemValue();
 267:Middlewares/Third_Party/FreeRTOS/Source/event_groups.c **** 
 268:Middlewares/Third_Party/FreeRTOS/Source/event_groups.c **** 		if( ( uxReturn & eventUNBLOCKED_DUE_TO_BIT_SET ) == ( EventBits_t ) 0 )
 269:Middlewares/Third_Party/FreeRTOS/Source/event_groups.c **** 		{
 270:Middlewares/Third_Party/FreeRTOS/Source/event_groups.c **** 			/* The task timed out, just return the current event bit value. */
 271:Middlewares/Third_Party/FreeRTOS/Source/event_groups.c **** 			taskENTER_CRITICAL();
 272:Middlewares/Third_Party/FreeRTOS/Source/event_groups.c **** 			{
 273:Middlewares/Third_Party/FreeRTOS/Source/event_groups.c **** 				uxReturn = pxEventBits->uxEventBits;
 274:Middlewares/Third_Party/FreeRTOS/Source/event_groups.c **** 
 275:Middlewares/Third_Party/FreeRTOS/Source/event_groups.c **** 				/* Although the task got here because it timed out before the
 276:Middlewares/Third_Party/FreeRTOS/Source/event_groups.c **** 				bits it was waiting for were set, it is possible that since it
 277:Middlewares/Third_Party/FreeRTOS/Source/event_groups.c **** 				unblocked another task has set the bits.  If this is the case
 278:Middlewares/Third_Party/FreeRTOS/Source/event_groups.c **** 				then it needs to clear the bits before exiting. */
 279:Middlewares/Third_Party/FreeRTOS/Source/event_groups.c **** 				if( ( uxReturn & uxBitsToWaitFor ) == uxBitsToWaitFor )
 280:Middlewares/Third_Party/FreeRTOS/Source/event_groups.c **** 				{
 281:Middlewares/Third_Party/FreeRTOS/Source/event_groups.c **** 					pxEventBits->uxEventBits &= ~uxBitsToWaitFor;
 282:Middlewares/Third_Party/FreeRTOS/Source/event_groups.c **** 				}
 283:Middlewares/Third_Party/FreeRTOS/Source/event_groups.c **** 				else
 284:Middlewares/Third_Party/FreeRTOS/Source/event_groups.c **** 				{
 285:Middlewares/Third_Party/FreeRTOS/Source/event_groups.c **** 					mtCOVERAGE_TEST_MARKER();
 286:Middlewares/Third_Party/FreeRTOS/Source/event_groups.c **** 				}
 287:Middlewares/Third_Party/FreeRTOS/Source/event_groups.c **** 			}
 288:Middlewares/Third_Party/FreeRTOS/Source/event_groups.c **** 			taskEXIT_CRITICAL();
 289:Middlewares/Third_Party/FreeRTOS/Source/event_groups.c **** 
 290:Middlewares/Third_Party/FreeRTOS/Source/event_groups.c **** 			xTimeoutOccurred = pdTRUE;
 291:Middlewares/Third_Party/FreeRTOS/Source/event_groups.c **** 		}
 292:Middlewares/Third_Party/FreeRTOS/Source/event_groups.c **** 		else
 293:Middlewares/Third_Party/FreeRTOS/Source/event_groups.c **** 		{
 294:Middlewares/Third_Party/FreeRTOS/Source/event_groups.c **** 			/* The task unblocked because the bits were set. */
 295:Middlewares/Third_Party/FreeRTOS/Source/event_groups.c **** 		}
 296:Middlewares/Third_Party/FreeRTOS/Source/event_groups.c **** 
 297:Middlewares/Third_Party/FreeRTOS/Source/event_groups.c **** 		/* Control bits might be set as the task had blocked should not be
 298:Middlewares/Third_Party/FreeRTOS/Source/event_groups.c **** 		returned. */
 299:Middlewares/Third_Party/FreeRTOS/Source/event_groups.c **** 		uxReturn &= ~eventEVENT_BITS_CONTROL_BYTES;
 300:Middlewares/Third_Party/FreeRTOS/Source/event_groups.c **** 	}
 301:Middlewares/Third_Party/FreeRTOS/Source/event_groups.c **** 
 302:Middlewares/Third_Party/FreeRTOS/Source/event_groups.c **** 	traceEVENT_GROUP_SYNC_END( xEventGroup, uxBitsToSet, uxBitsToWaitFor, xTimeoutOccurred );
 303:Middlewares/Third_Party/FreeRTOS/Source/event_groups.c **** 
 304:Middlewares/Third_Party/FreeRTOS/Source/event_groups.c **** 	/* Prevent compiler warnings when trace macros are not used. */
 305:Middlewares/Third_Party/FreeRTOS/Source/event_groups.c **** 	( void ) xTimeoutOccurred;
 306:Middlewares/Third_Party/FreeRTOS/Source/event_groups.c **** 
 307:Middlewares/Third_Party/FreeRTOS/Source/event_groups.c **** 	return uxReturn;
 308:Middlewares/Third_Party/FreeRTOS/Source/event_groups.c **** }
 309:Middlewares/Third_Party/FreeRTOS/Source/event_groups.c **** /*-----------------------------------------------------------*/
 310:Middlewares/Third_Party/FreeRTOS/Source/event_groups.c **** 
 311:Middlewares/Third_Party/FreeRTOS/Source/event_groups.c **** EventBits_t xEventGroupWaitBits( EventGroupHandle_t xEventGroup, const EventBits_t uxBitsToWaitFor,
 312:Middlewares/Third_Party/FreeRTOS/Source/event_groups.c **** {
 313:Middlewares/Third_Party/FreeRTOS/Source/event_groups.c **** EventGroup_t *pxEventBits = xEventGroup;
 314:Middlewares/Third_Party/FreeRTOS/Source/event_groups.c **** EventBits_t uxReturn, uxControlBits = 0;
 315:Middlewares/Third_Party/FreeRTOS/Source/event_groups.c **** BaseType_t xWaitConditionMet, xAlreadyYielded;
ARM GAS  /tmp/ccWkqZxZ.s 			page 7


 316:Middlewares/Third_Party/FreeRTOS/Source/event_groups.c **** BaseType_t xTimeoutOccurred = pdFALSE;
 317:Middlewares/Third_Party/FreeRTOS/Source/event_groups.c **** 
 318:Middlewares/Third_Party/FreeRTOS/Source/event_groups.c **** 	/* Check the user is not attempting to wait on the bits used by the kernel
 319:Middlewares/Third_Party/FreeRTOS/Source/event_groups.c **** 	itself, and that at least one bit is being requested. */
 320:Middlewares/Third_Party/FreeRTOS/Source/event_groups.c **** 	configASSERT( xEventGroup );
 321:Middlewares/Third_Party/FreeRTOS/Source/event_groups.c **** 	configASSERT( ( uxBitsToWaitFor & eventEVENT_BITS_CONTROL_BYTES ) == 0 );
 322:Middlewares/Third_Party/FreeRTOS/Source/event_groups.c **** 	configASSERT( uxBitsToWaitFor != 0 );
 323:Middlewares/Third_Party/FreeRTOS/Source/event_groups.c **** 	#if ( ( INCLUDE_xTaskGetSchedulerState == 1 ) || ( configUSE_TIMERS == 1 ) )
 324:Middlewares/Third_Party/FreeRTOS/Source/event_groups.c **** 	{
 325:Middlewares/Third_Party/FreeRTOS/Source/event_groups.c **** 		configASSERT( !( ( xTaskGetSchedulerState() == taskSCHEDULER_SUSPENDED ) && ( xTicksToWait != 0 )
 326:Middlewares/Third_Party/FreeRTOS/Source/event_groups.c **** 	}
 327:Middlewares/Third_Party/FreeRTOS/Source/event_groups.c **** 	#endif
 328:Middlewares/Third_Party/FreeRTOS/Source/event_groups.c **** 
 329:Middlewares/Third_Party/FreeRTOS/Source/event_groups.c **** 	vTaskSuspendAll();
 330:Middlewares/Third_Party/FreeRTOS/Source/event_groups.c **** 	{
 331:Middlewares/Third_Party/FreeRTOS/Source/event_groups.c **** 		const EventBits_t uxCurrentEventBits = pxEventBits->uxEventBits;
 332:Middlewares/Third_Party/FreeRTOS/Source/event_groups.c **** 
 333:Middlewares/Third_Party/FreeRTOS/Source/event_groups.c **** 		/* Check to see if the wait condition is already met or not. */
 334:Middlewares/Third_Party/FreeRTOS/Source/event_groups.c **** 		xWaitConditionMet = prvTestWaitCondition( uxCurrentEventBits, uxBitsToWaitFor, xWaitForAllBits );
 335:Middlewares/Third_Party/FreeRTOS/Source/event_groups.c **** 
 336:Middlewares/Third_Party/FreeRTOS/Source/event_groups.c **** 		if( xWaitConditionMet != pdFALSE )
 337:Middlewares/Third_Party/FreeRTOS/Source/event_groups.c **** 		{
 338:Middlewares/Third_Party/FreeRTOS/Source/event_groups.c **** 			/* The wait condition has already been met so there is no need to
 339:Middlewares/Third_Party/FreeRTOS/Source/event_groups.c **** 			block. */
 340:Middlewares/Third_Party/FreeRTOS/Source/event_groups.c **** 			uxReturn = uxCurrentEventBits;
 341:Middlewares/Third_Party/FreeRTOS/Source/event_groups.c **** 			xTicksToWait = ( TickType_t ) 0;
 342:Middlewares/Third_Party/FreeRTOS/Source/event_groups.c **** 
 343:Middlewares/Third_Party/FreeRTOS/Source/event_groups.c **** 			/* Clear the wait bits if requested to do so. */
 344:Middlewares/Third_Party/FreeRTOS/Source/event_groups.c **** 			if( xClearOnExit != pdFALSE )
 345:Middlewares/Third_Party/FreeRTOS/Source/event_groups.c **** 			{
 346:Middlewares/Third_Party/FreeRTOS/Source/event_groups.c **** 				pxEventBits->uxEventBits &= ~uxBitsToWaitFor;
 347:Middlewares/Third_Party/FreeRTOS/Source/event_groups.c **** 			}
 348:Middlewares/Third_Party/FreeRTOS/Source/event_groups.c **** 			else
 349:Middlewares/Third_Party/FreeRTOS/Source/event_groups.c **** 			{
 350:Middlewares/Third_Party/FreeRTOS/Source/event_groups.c **** 				mtCOVERAGE_TEST_MARKER();
 351:Middlewares/Third_Party/FreeRTOS/Source/event_groups.c **** 			}
 352:Middlewares/Third_Party/FreeRTOS/Source/event_groups.c **** 		}
 353:Middlewares/Third_Party/FreeRTOS/Source/event_groups.c **** 		else if( xTicksToWait == ( TickType_t ) 0 )
 354:Middlewares/Third_Party/FreeRTOS/Source/event_groups.c **** 		{
 355:Middlewares/Third_Party/FreeRTOS/Source/event_groups.c **** 			/* The wait condition has not been met, but no block time was
 356:Middlewares/Third_Party/FreeRTOS/Source/event_groups.c **** 			specified, so just return the current value. */
 357:Middlewares/Third_Party/FreeRTOS/Source/event_groups.c **** 			uxReturn = uxCurrentEventBits;
 358:Middlewares/Third_Party/FreeRTOS/Source/event_groups.c **** 			xTimeoutOccurred = pdTRUE;
 359:Middlewares/Third_Party/FreeRTOS/Source/event_groups.c **** 		}
 360:Middlewares/Third_Party/FreeRTOS/Source/event_groups.c **** 		else
 361:Middlewares/Third_Party/FreeRTOS/Source/event_groups.c **** 		{
 362:Middlewares/Third_Party/FreeRTOS/Source/event_groups.c **** 			/* The task is going to block to wait for its required bits to be
 363:Middlewares/Third_Party/FreeRTOS/Source/event_groups.c **** 			set.  uxControlBits are used to remember the specified behaviour of
 364:Middlewares/Third_Party/FreeRTOS/Source/event_groups.c **** 			this call to xEventGroupWaitBits() - for use when the event bits
 365:Middlewares/Third_Party/FreeRTOS/Source/event_groups.c **** 			unblock the task. */
 366:Middlewares/Third_Party/FreeRTOS/Source/event_groups.c **** 			if( xClearOnExit != pdFALSE )
 367:Middlewares/Third_Party/FreeRTOS/Source/event_groups.c **** 			{
 368:Middlewares/Third_Party/FreeRTOS/Source/event_groups.c **** 				uxControlBits |= eventCLEAR_EVENTS_ON_EXIT_BIT;
 369:Middlewares/Third_Party/FreeRTOS/Source/event_groups.c **** 			}
 370:Middlewares/Third_Party/FreeRTOS/Source/event_groups.c **** 			else
 371:Middlewares/Third_Party/FreeRTOS/Source/event_groups.c **** 			{
 372:Middlewares/Third_Party/FreeRTOS/Source/event_groups.c **** 				mtCOVERAGE_TEST_MARKER();
ARM GAS  /tmp/ccWkqZxZ.s 			page 8


 373:Middlewares/Third_Party/FreeRTOS/Source/event_groups.c **** 			}
 374:Middlewares/Third_Party/FreeRTOS/Source/event_groups.c **** 
 375:Middlewares/Third_Party/FreeRTOS/Source/event_groups.c **** 			if( xWaitForAllBits != pdFALSE )
 376:Middlewares/Third_Party/FreeRTOS/Source/event_groups.c **** 			{
 377:Middlewares/Third_Party/FreeRTOS/Source/event_groups.c **** 				uxControlBits |= eventWAIT_FOR_ALL_BITS;
 378:Middlewares/Third_Party/FreeRTOS/Source/event_groups.c **** 			}
 379:Middlewares/Third_Party/FreeRTOS/Source/event_groups.c **** 			else
 380:Middlewares/Third_Party/FreeRTOS/Source/event_groups.c **** 			{
 381:Middlewares/Third_Party/FreeRTOS/Source/event_groups.c **** 				mtCOVERAGE_TEST_MARKER();
 382:Middlewares/Third_Party/FreeRTOS/Source/event_groups.c **** 			}
 383:Middlewares/Third_Party/FreeRTOS/Source/event_groups.c **** 
 384:Middlewares/Third_Party/FreeRTOS/Source/event_groups.c **** 			/* Store the bits that the calling task is waiting for in the
 385:Middlewares/Third_Party/FreeRTOS/Source/event_groups.c **** 			task's event list item so the kernel knows when a match is
 386:Middlewares/Third_Party/FreeRTOS/Source/event_groups.c **** 			found.  Then enter the blocked state. */
 387:Middlewares/Third_Party/FreeRTOS/Source/event_groups.c **** 			vTaskPlaceOnUnorderedEventList( &( pxEventBits->xTasksWaitingForBits ), ( uxBitsToWaitFor | uxCo
 388:Middlewares/Third_Party/FreeRTOS/Source/event_groups.c **** 
 389:Middlewares/Third_Party/FreeRTOS/Source/event_groups.c **** 			/* This is obsolete as it will get set after the task unblocks, but
 390:Middlewares/Third_Party/FreeRTOS/Source/event_groups.c **** 			some compilers mistakenly generate a warning about the variable
 391:Middlewares/Third_Party/FreeRTOS/Source/event_groups.c **** 			being returned without being set if it is not done. */
 392:Middlewares/Third_Party/FreeRTOS/Source/event_groups.c **** 			uxReturn = 0;
 393:Middlewares/Third_Party/FreeRTOS/Source/event_groups.c **** 
 394:Middlewares/Third_Party/FreeRTOS/Source/event_groups.c **** 			traceEVENT_GROUP_WAIT_BITS_BLOCK( xEventGroup, uxBitsToWaitFor );
 395:Middlewares/Third_Party/FreeRTOS/Source/event_groups.c **** 		}
 396:Middlewares/Third_Party/FreeRTOS/Source/event_groups.c **** 	}
 397:Middlewares/Third_Party/FreeRTOS/Source/event_groups.c **** 	xAlreadyYielded = xTaskResumeAll();
 398:Middlewares/Third_Party/FreeRTOS/Source/event_groups.c **** 
 399:Middlewares/Third_Party/FreeRTOS/Source/event_groups.c **** 	if( xTicksToWait != ( TickType_t ) 0 )
 400:Middlewares/Third_Party/FreeRTOS/Source/event_groups.c **** 	{
 401:Middlewares/Third_Party/FreeRTOS/Source/event_groups.c **** 		if( xAlreadyYielded == pdFALSE )
 402:Middlewares/Third_Party/FreeRTOS/Source/event_groups.c **** 		{
 403:Middlewares/Third_Party/FreeRTOS/Source/event_groups.c **** 			portYIELD_WITHIN_API();
 404:Middlewares/Third_Party/FreeRTOS/Source/event_groups.c **** 		}
 405:Middlewares/Third_Party/FreeRTOS/Source/event_groups.c **** 		else
 406:Middlewares/Third_Party/FreeRTOS/Source/event_groups.c **** 		{
 407:Middlewares/Third_Party/FreeRTOS/Source/event_groups.c **** 			mtCOVERAGE_TEST_MARKER();
 408:Middlewares/Third_Party/FreeRTOS/Source/event_groups.c **** 		}
 409:Middlewares/Third_Party/FreeRTOS/Source/event_groups.c **** 
 410:Middlewares/Third_Party/FreeRTOS/Source/event_groups.c **** 		/* The task blocked to wait for its required bits to be set - at this
 411:Middlewares/Third_Party/FreeRTOS/Source/event_groups.c **** 		point either the required bits were set or the block time expired.  If
 412:Middlewares/Third_Party/FreeRTOS/Source/event_groups.c **** 		the required bits were set they will have been stored in the task's
 413:Middlewares/Third_Party/FreeRTOS/Source/event_groups.c **** 		event list item, and they should now be retrieved then cleared. */
 414:Middlewares/Third_Party/FreeRTOS/Source/event_groups.c **** 		uxReturn = uxTaskResetEventItemValue();
 415:Middlewares/Third_Party/FreeRTOS/Source/event_groups.c **** 
 416:Middlewares/Third_Party/FreeRTOS/Source/event_groups.c **** 		if( ( uxReturn & eventUNBLOCKED_DUE_TO_BIT_SET ) == ( EventBits_t ) 0 )
 417:Middlewares/Third_Party/FreeRTOS/Source/event_groups.c **** 		{
 418:Middlewares/Third_Party/FreeRTOS/Source/event_groups.c **** 			taskENTER_CRITICAL();
 419:Middlewares/Third_Party/FreeRTOS/Source/event_groups.c **** 			{
 420:Middlewares/Third_Party/FreeRTOS/Source/event_groups.c **** 				/* The task timed out, just return the current event bit value. */
 421:Middlewares/Third_Party/FreeRTOS/Source/event_groups.c **** 				uxReturn = pxEventBits->uxEventBits;
 422:Middlewares/Third_Party/FreeRTOS/Source/event_groups.c **** 
 423:Middlewares/Third_Party/FreeRTOS/Source/event_groups.c **** 				/* It is possible that the event bits were updated between this
 424:Middlewares/Third_Party/FreeRTOS/Source/event_groups.c **** 				task leaving the Blocked state and running again. */
 425:Middlewares/Third_Party/FreeRTOS/Source/event_groups.c **** 				if( prvTestWaitCondition( uxReturn, uxBitsToWaitFor, xWaitForAllBits ) != pdFALSE )
 426:Middlewares/Third_Party/FreeRTOS/Source/event_groups.c **** 				{
 427:Middlewares/Third_Party/FreeRTOS/Source/event_groups.c **** 					if( xClearOnExit != pdFALSE )
 428:Middlewares/Third_Party/FreeRTOS/Source/event_groups.c **** 					{
 429:Middlewares/Third_Party/FreeRTOS/Source/event_groups.c **** 						pxEventBits->uxEventBits &= ~uxBitsToWaitFor;
ARM GAS  /tmp/ccWkqZxZ.s 			page 9


 430:Middlewares/Third_Party/FreeRTOS/Source/event_groups.c **** 					}
 431:Middlewares/Third_Party/FreeRTOS/Source/event_groups.c **** 					else
 432:Middlewares/Third_Party/FreeRTOS/Source/event_groups.c **** 					{
 433:Middlewares/Third_Party/FreeRTOS/Source/event_groups.c **** 						mtCOVERAGE_TEST_MARKER();
 434:Middlewares/Third_Party/FreeRTOS/Source/event_groups.c **** 					}
 435:Middlewares/Third_Party/FreeRTOS/Source/event_groups.c **** 				}
 436:Middlewares/Third_Party/FreeRTOS/Source/event_groups.c **** 				else
 437:Middlewares/Third_Party/FreeRTOS/Source/event_groups.c **** 				{
 438:Middlewares/Third_Party/FreeRTOS/Source/event_groups.c **** 					mtCOVERAGE_TEST_MARKER();
 439:Middlewares/Third_Party/FreeRTOS/Source/event_groups.c **** 				}
 440:Middlewares/Third_Party/FreeRTOS/Source/event_groups.c **** 				xTimeoutOccurred = pdTRUE;
 441:Middlewares/Third_Party/FreeRTOS/Source/event_groups.c **** 			}
 442:Middlewares/Third_Party/FreeRTOS/Source/event_groups.c **** 			taskEXIT_CRITICAL();
 443:Middlewares/Third_Party/FreeRTOS/Source/event_groups.c **** 		}
 444:Middlewares/Third_Party/FreeRTOS/Source/event_groups.c **** 		else
 445:Middlewares/Third_Party/FreeRTOS/Source/event_groups.c **** 		{
 446:Middlewares/Third_Party/FreeRTOS/Source/event_groups.c **** 			/* The task unblocked because the bits were set. */
 447:Middlewares/Third_Party/FreeRTOS/Source/event_groups.c **** 		}
 448:Middlewares/Third_Party/FreeRTOS/Source/event_groups.c **** 
 449:Middlewares/Third_Party/FreeRTOS/Source/event_groups.c **** 		/* The task blocked so control bits may have been set. */
 450:Middlewares/Third_Party/FreeRTOS/Source/event_groups.c **** 		uxReturn &= ~eventEVENT_BITS_CONTROL_BYTES;
 451:Middlewares/Third_Party/FreeRTOS/Source/event_groups.c **** 	}
 452:Middlewares/Third_Party/FreeRTOS/Source/event_groups.c **** 	traceEVENT_GROUP_WAIT_BITS_END( xEventGroup, uxBitsToWaitFor, xTimeoutOccurred );
 453:Middlewares/Third_Party/FreeRTOS/Source/event_groups.c **** 
 454:Middlewares/Third_Party/FreeRTOS/Source/event_groups.c **** 	/* Prevent compiler warnings when trace macros are not used. */
 455:Middlewares/Third_Party/FreeRTOS/Source/event_groups.c **** 	( void ) xTimeoutOccurred;
 456:Middlewares/Third_Party/FreeRTOS/Source/event_groups.c **** 
 457:Middlewares/Third_Party/FreeRTOS/Source/event_groups.c **** 	return uxReturn;
 458:Middlewares/Third_Party/FreeRTOS/Source/event_groups.c **** }
 459:Middlewares/Third_Party/FreeRTOS/Source/event_groups.c **** /*-----------------------------------------------------------*/
 460:Middlewares/Third_Party/FreeRTOS/Source/event_groups.c **** 
 461:Middlewares/Third_Party/FreeRTOS/Source/event_groups.c **** EventBits_t xEventGroupClearBits( EventGroupHandle_t xEventGroup, const EventBits_t uxBitsToClear )
 462:Middlewares/Third_Party/FreeRTOS/Source/event_groups.c **** {
 463:Middlewares/Third_Party/FreeRTOS/Source/event_groups.c **** EventGroup_t *pxEventBits = xEventGroup;
 464:Middlewares/Third_Party/FreeRTOS/Source/event_groups.c **** EventBits_t uxReturn;
 465:Middlewares/Third_Party/FreeRTOS/Source/event_groups.c **** 
 466:Middlewares/Third_Party/FreeRTOS/Source/event_groups.c **** 	/* Check the user is not attempting to clear the bits used by the kernel
 467:Middlewares/Third_Party/FreeRTOS/Source/event_groups.c **** 	itself. */
 468:Middlewares/Third_Party/FreeRTOS/Source/event_groups.c **** 	configASSERT( xEventGroup );
 469:Middlewares/Third_Party/FreeRTOS/Source/event_groups.c **** 	configASSERT( ( uxBitsToClear & eventEVENT_BITS_CONTROL_BYTES ) == 0 );
 470:Middlewares/Third_Party/FreeRTOS/Source/event_groups.c **** 
 471:Middlewares/Third_Party/FreeRTOS/Source/event_groups.c **** 	taskENTER_CRITICAL();
 472:Middlewares/Third_Party/FreeRTOS/Source/event_groups.c **** 	{
 473:Middlewares/Third_Party/FreeRTOS/Source/event_groups.c **** 		traceEVENT_GROUP_CLEAR_BITS( xEventGroup, uxBitsToClear );
 474:Middlewares/Third_Party/FreeRTOS/Source/event_groups.c **** 
 475:Middlewares/Third_Party/FreeRTOS/Source/event_groups.c **** 		/* The value returned is the event group value prior to the bits being
 476:Middlewares/Third_Party/FreeRTOS/Source/event_groups.c **** 		cleared. */
 477:Middlewares/Third_Party/FreeRTOS/Source/event_groups.c **** 		uxReturn = pxEventBits->uxEventBits;
 478:Middlewares/Third_Party/FreeRTOS/Source/event_groups.c **** 
 479:Middlewares/Third_Party/FreeRTOS/Source/event_groups.c **** 		/* Clear the bits. */
 480:Middlewares/Third_Party/FreeRTOS/Source/event_groups.c **** 		pxEventBits->uxEventBits &= ~uxBitsToClear;
 481:Middlewares/Third_Party/FreeRTOS/Source/event_groups.c **** 	}
 482:Middlewares/Third_Party/FreeRTOS/Source/event_groups.c **** 	taskEXIT_CRITICAL();
 483:Middlewares/Third_Party/FreeRTOS/Source/event_groups.c **** 
 484:Middlewares/Third_Party/FreeRTOS/Source/event_groups.c **** 	return uxReturn;
 485:Middlewares/Third_Party/FreeRTOS/Source/event_groups.c **** }
 486:Middlewares/Third_Party/FreeRTOS/Source/event_groups.c **** /*-----------------------------------------------------------*/
ARM GAS  /tmp/ccWkqZxZ.s 			page 10


 487:Middlewares/Third_Party/FreeRTOS/Source/event_groups.c **** 
 488:Middlewares/Third_Party/FreeRTOS/Source/event_groups.c **** #if ( ( configUSE_TRACE_FACILITY == 1 ) && ( INCLUDE_xTimerPendFunctionCall == 1 ) && ( configUSE_T
 489:Middlewares/Third_Party/FreeRTOS/Source/event_groups.c **** 
 490:Middlewares/Third_Party/FreeRTOS/Source/event_groups.c **** 	BaseType_t xEventGroupClearBitsFromISR( EventGroupHandle_t xEventGroup, const EventBits_t uxBitsTo
 491:Middlewares/Third_Party/FreeRTOS/Source/event_groups.c **** 	{
 492:Middlewares/Third_Party/FreeRTOS/Source/event_groups.c **** 		BaseType_t xReturn;
 493:Middlewares/Third_Party/FreeRTOS/Source/event_groups.c **** 
 494:Middlewares/Third_Party/FreeRTOS/Source/event_groups.c **** 		traceEVENT_GROUP_CLEAR_BITS_FROM_ISR( xEventGroup, uxBitsToClear );
 495:Middlewares/Third_Party/FreeRTOS/Source/event_groups.c **** 		xReturn = xTimerPendFunctionCallFromISR( vEventGroupClearBitsCallback, ( void * ) xEventGroup, ( 
 496:Middlewares/Third_Party/FreeRTOS/Source/event_groups.c **** 
 497:Middlewares/Third_Party/FreeRTOS/Source/event_groups.c **** 		return xReturn;
 498:Middlewares/Third_Party/FreeRTOS/Source/event_groups.c **** 	}
 499:Middlewares/Third_Party/FreeRTOS/Source/event_groups.c **** 
 500:Middlewares/Third_Party/FreeRTOS/Source/event_groups.c **** #endif
 501:Middlewares/Third_Party/FreeRTOS/Source/event_groups.c **** /*-----------------------------------------------------------*/
 502:Middlewares/Third_Party/FreeRTOS/Source/event_groups.c **** 
 503:Middlewares/Third_Party/FreeRTOS/Source/event_groups.c **** EventBits_t xEventGroupGetBitsFromISR( EventGroupHandle_t xEventGroup )
 504:Middlewares/Third_Party/FreeRTOS/Source/event_groups.c **** {
 505:Middlewares/Third_Party/FreeRTOS/Source/event_groups.c **** UBaseType_t uxSavedInterruptStatus;
 506:Middlewares/Third_Party/FreeRTOS/Source/event_groups.c **** EventGroup_t const * const pxEventBits = xEventGroup;
 507:Middlewares/Third_Party/FreeRTOS/Source/event_groups.c **** EventBits_t uxReturn;
 508:Middlewares/Third_Party/FreeRTOS/Source/event_groups.c **** 
 509:Middlewares/Third_Party/FreeRTOS/Source/event_groups.c **** 	uxSavedInterruptStatus = portSET_INTERRUPT_MASK_FROM_ISR();
 510:Middlewares/Third_Party/FreeRTOS/Source/event_groups.c **** 	{
 511:Middlewares/Third_Party/FreeRTOS/Source/event_groups.c **** 		uxReturn = pxEventBits->uxEventBits;
 512:Middlewares/Third_Party/FreeRTOS/Source/event_groups.c **** 	}
 513:Middlewares/Third_Party/FreeRTOS/Source/event_groups.c **** 	portCLEAR_INTERRUPT_MASK_FROM_ISR( uxSavedInterruptStatus );
 514:Middlewares/Third_Party/FreeRTOS/Source/event_groups.c **** 
 515:Middlewares/Third_Party/FreeRTOS/Source/event_groups.c **** 	return uxReturn;
 516:Middlewares/Third_Party/FreeRTOS/Source/event_groups.c **** } /*lint !e818 EventGroupHandle_t is a typedef used in other functions to so can't be pointer to co
 517:Middlewares/Third_Party/FreeRTOS/Source/event_groups.c **** /*-----------------------------------------------------------*/
 518:Middlewares/Third_Party/FreeRTOS/Source/event_groups.c **** 
 519:Middlewares/Third_Party/FreeRTOS/Source/event_groups.c **** EventBits_t xEventGroupSetBits( EventGroupHandle_t xEventGroup, const EventBits_t uxBitsToSet )
 520:Middlewares/Third_Party/FreeRTOS/Source/event_groups.c **** {
 521:Middlewares/Third_Party/FreeRTOS/Source/event_groups.c **** ListItem_t *pxListItem, *pxNext;
 522:Middlewares/Third_Party/FreeRTOS/Source/event_groups.c **** ListItem_t const *pxListEnd;
 523:Middlewares/Third_Party/FreeRTOS/Source/event_groups.c **** List_t const * pxList;
 524:Middlewares/Third_Party/FreeRTOS/Source/event_groups.c **** EventBits_t uxBitsToClear = 0, uxBitsWaitedFor, uxControlBits;
 525:Middlewares/Third_Party/FreeRTOS/Source/event_groups.c **** EventGroup_t *pxEventBits = xEventGroup;
 526:Middlewares/Third_Party/FreeRTOS/Source/event_groups.c **** BaseType_t xMatchFound = pdFALSE;
 527:Middlewares/Third_Party/FreeRTOS/Source/event_groups.c **** 
 528:Middlewares/Third_Party/FreeRTOS/Source/event_groups.c **** 	/* Check the user is not attempting to set the bits used by the kernel
 529:Middlewares/Third_Party/FreeRTOS/Source/event_groups.c **** 	itself. */
 530:Middlewares/Third_Party/FreeRTOS/Source/event_groups.c **** 	configASSERT( xEventGroup );
 531:Middlewares/Third_Party/FreeRTOS/Source/event_groups.c **** 	configASSERT( ( uxBitsToSet & eventEVENT_BITS_CONTROL_BYTES ) == 0 );
 532:Middlewares/Third_Party/FreeRTOS/Source/event_groups.c **** 
 533:Middlewares/Third_Party/FreeRTOS/Source/event_groups.c **** 	pxList = &( pxEventBits->xTasksWaitingForBits );
 534:Middlewares/Third_Party/FreeRTOS/Source/event_groups.c **** 	pxListEnd = listGET_END_MARKER( pxList ); /*lint !e826 !e740 !e9087 The mini list structure is use
 535:Middlewares/Third_Party/FreeRTOS/Source/event_groups.c **** 	vTaskSuspendAll();
 536:Middlewares/Third_Party/FreeRTOS/Source/event_groups.c **** 	{
 537:Middlewares/Third_Party/FreeRTOS/Source/event_groups.c **** 		traceEVENT_GROUP_SET_BITS( xEventGroup, uxBitsToSet );
 538:Middlewares/Third_Party/FreeRTOS/Source/event_groups.c **** 
 539:Middlewares/Third_Party/FreeRTOS/Source/event_groups.c **** 		pxListItem = listGET_HEAD_ENTRY( pxList );
 540:Middlewares/Third_Party/FreeRTOS/Source/event_groups.c **** 
 541:Middlewares/Third_Party/FreeRTOS/Source/event_groups.c **** 		/* Set the bits. */
 542:Middlewares/Third_Party/FreeRTOS/Source/event_groups.c **** 		pxEventBits->uxEventBits |= uxBitsToSet;
 543:Middlewares/Third_Party/FreeRTOS/Source/event_groups.c **** 
ARM GAS  /tmp/ccWkqZxZ.s 			page 11


 544:Middlewares/Third_Party/FreeRTOS/Source/event_groups.c **** 		/* See if the new bit value should unblock any tasks. */
 545:Middlewares/Third_Party/FreeRTOS/Source/event_groups.c **** 		while( pxListItem != pxListEnd )
 546:Middlewares/Third_Party/FreeRTOS/Source/event_groups.c **** 		{
 547:Middlewares/Third_Party/FreeRTOS/Source/event_groups.c **** 			pxNext = listGET_NEXT( pxListItem );
 548:Middlewares/Third_Party/FreeRTOS/Source/event_groups.c **** 			uxBitsWaitedFor = listGET_LIST_ITEM_VALUE( pxListItem );
 549:Middlewares/Third_Party/FreeRTOS/Source/event_groups.c **** 			xMatchFound = pdFALSE;
 550:Middlewares/Third_Party/FreeRTOS/Source/event_groups.c **** 
 551:Middlewares/Third_Party/FreeRTOS/Source/event_groups.c **** 			/* Split the bits waited for from the control bits. */
 552:Middlewares/Third_Party/FreeRTOS/Source/event_groups.c **** 			uxControlBits = uxBitsWaitedFor & eventEVENT_BITS_CONTROL_BYTES;
 553:Middlewares/Third_Party/FreeRTOS/Source/event_groups.c **** 			uxBitsWaitedFor &= ~eventEVENT_BITS_CONTROL_BYTES;
 554:Middlewares/Third_Party/FreeRTOS/Source/event_groups.c **** 
 555:Middlewares/Third_Party/FreeRTOS/Source/event_groups.c **** 			if( ( uxControlBits & eventWAIT_FOR_ALL_BITS ) == ( EventBits_t ) 0 )
 556:Middlewares/Third_Party/FreeRTOS/Source/event_groups.c **** 			{
 557:Middlewares/Third_Party/FreeRTOS/Source/event_groups.c **** 				/* Just looking for single bit being set. */
 558:Middlewares/Third_Party/FreeRTOS/Source/event_groups.c **** 				if( ( uxBitsWaitedFor & pxEventBits->uxEventBits ) != ( EventBits_t ) 0 )
 559:Middlewares/Third_Party/FreeRTOS/Source/event_groups.c **** 				{
 560:Middlewares/Third_Party/FreeRTOS/Source/event_groups.c **** 					xMatchFound = pdTRUE;
 561:Middlewares/Third_Party/FreeRTOS/Source/event_groups.c **** 				}
 562:Middlewares/Third_Party/FreeRTOS/Source/event_groups.c **** 				else
 563:Middlewares/Third_Party/FreeRTOS/Source/event_groups.c **** 				{
 564:Middlewares/Third_Party/FreeRTOS/Source/event_groups.c **** 					mtCOVERAGE_TEST_MARKER();
 565:Middlewares/Third_Party/FreeRTOS/Source/event_groups.c **** 				}
 566:Middlewares/Third_Party/FreeRTOS/Source/event_groups.c **** 			}
 567:Middlewares/Third_Party/FreeRTOS/Source/event_groups.c **** 			else if( ( uxBitsWaitedFor & pxEventBits->uxEventBits ) == uxBitsWaitedFor )
 568:Middlewares/Third_Party/FreeRTOS/Source/event_groups.c **** 			{
 569:Middlewares/Third_Party/FreeRTOS/Source/event_groups.c **** 				/* All bits are set. */
 570:Middlewares/Third_Party/FreeRTOS/Source/event_groups.c **** 				xMatchFound = pdTRUE;
 571:Middlewares/Third_Party/FreeRTOS/Source/event_groups.c **** 			}
 572:Middlewares/Third_Party/FreeRTOS/Source/event_groups.c **** 			else
 573:Middlewares/Third_Party/FreeRTOS/Source/event_groups.c **** 			{
 574:Middlewares/Third_Party/FreeRTOS/Source/event_groups.c **** 				/* Need all bits to be set, but not all the bits were set. */
 575:Middlewares/Third_Party/FreeRTOS/Source/event_groups.c **** 			}
 576:Middlewares/Third_Party/FreeRTOS/Source/event_groups.c **** 
 577:Middlewares/Third_Party/FreeRTOS/Source/event_groups.c **** 			if( xMatchFound != pdFALSE )
 578:Middlewares/Third_Party/FreeRTOS/Source/event_groups.c **** 			{
 579:Middlewares/Third_Party/FreeRTOS/Source/event_groups.c **** 				/* The bits match.  Should the bits be cleared on exit? */
 580:Middlewares/Third_Party/FreeRTOS/Source/event_groups.c **** 				if( ( uxControlBits & eventCLEAR_EVENTS_ON_EXIT_BIT ) != ( EventBits_t ) 0 )
 581:Middlewares/Third_Party/FreeRTOS/Source/event_groups.c **** 				{
 582:Middlewares/Third_Party/FreeRTOS/Source/event_groups.c **** 					uxBitsToClear |= uxBitsWaitedFor;
 583:Middlewares/Third_Party/FreeRTOS/Source/event_groups.c **** 				}
 584:Middlewares/Third_Party/FreeRTOS/Source/event_groups.c **** 				else
 585:Middlewares/Third_Party/FreeRTOS/Source/event_groups.c **** 				{
 586:Middlewares/Third_Party/FreeRTOS/Source/event_groups.c **** 					mtCOVERAGE_TEST_MARKER();
 587:Middlewares/Third_Party/FreeRTOS/Source/event_groups.c **** 				}
 588:Middlewares/Third_Party/FreeRTOS/Source/event_groups.c **** 
 589:Middlewares/Third_Party/FreeRTOS/Source/event_groups.c **** 				/* Store the actual event flag value in the task's event list
 590:Middlewares/Third_Party/FreeRTOS/Source/event_groups.c **** 				item before removing the task from the event list.  The
 591:Middlewares/Third_Party/FreeRTOS/Source/event_groups.c **** 				eventUNBLOCKED_DUE_TO_BIT_SET bit is set so the task knows
 592:Middlewares/Third_Party/FreeRTOS/Source/event_groups.c **** 				that is was unblocked due to its required bits matching, rather
 593:Middlewares/Third_Party/FreeRTOS/Source/event_groups.c **** 				than because it timed out. */
 594:Middlewares/Third_Party/FreeRTOS/Source/event_groups.c **** 				vTaskRemoveFromUnorderedEventList( pxListItem, pxEventBits->uxEventBits | eventUNBLOCKED_DUE_TO
 595:Middlewares/Third_Party/FreeRTOS/Source/event_groups.c **** 			}
 596:Middlewares/Third_Party/FreeRTOS/Source/event_groups.c **** 
 597:Middlewares/Third_Party/FreeRTOS/Source/event_groups.c **** 			/* Move onto the next list item.  Note pxListItem->pxNext is not
 598:Middlewares/Third_Party/FreeRTOS/Source/event_groups.c **** 			used here as the list item may have been removed from the event list
 599:Middlewares/Third_Party/FreeRTOS/Source/event_groups.c **** 			and inserted into the ready/pending reading list. */
 600:Middlewares/Third_Party/FreeRTOS/Source/event_groups.c **** 			pxListItem = pxNext;
ARM GAS  /tmp/ccWkqZxZ.s 			page 12


 601:Middlewares/Third_Party/FreeRTOS/Source/event_groups.c **** 		}
 602:Middlewares/Third_Party/FreeRTOS/Source/event_groups.c **** 
 603:Middlewares/Third_Party/FreeRTOS/Source/event_groups.c **** 		/* Clear any bits that matched when the eventCLEAR_EVENTS_ON_EXIT_BIT
 604:Middlewares/Third_Party/FreeRTOS/Source/event_groups.c **** 		bit was set in the control word. */
 605:Middlewares/Third_Party/FreeRTOS/Source/event_groups.c **** 		pxEventBits->uxEventBits &= ~uxBitsToClear;
 606:Middlewares/Third_Party/FreeRTOS/Source/event_groups.c **** 	}
 607:Middlewares/Third_Party/FreeRTOS/Source/event_groups.c **** 	( void ) xTaskResumeAll();
 608:Middlewares/Third_Party/FreeRTOS/Source/event_groups.c **** 
 609:Middlewares/Third_Party/FreeRTOS/Source/event_groups.c **** 	return pxEventBits->uxEventBits;
 610:Middlewares/Third_Party/FreeRTOS/Source/event_groups.c **** }
 611:Middlewares/Third_Party/FreeRTOS/Source/event_groups.c **** /*-----------------------------------------------------------*/
 612:Middlewares/Third_Party/FreeRTOS/Source/event_groups.c **** 
 613:Middlewares/Third_Party/FreeRTOS/Source/event_groups.c **** void vEventGroupDelete( EventGroupHandle_t xEventGroup )
 614:Middlewares/Third_Party/FreeRTOS/Source/event_groups.c **** {
 615:Middlewares/Third_Party/FreeRTOS/Source/event_groups.c **** EventGroup_t *pxEventBits = xEventGroup;
 616:Middlewares/Third_Party/FreeRTOS/Source/event_groups.c **** const List_t *pxTasksWaitingForBits = &( pxEventBits->xTasksWaitingForBits );
 617:Middlewares/Third_Party/FreeRTOS/Source/event_groups.c **** 
 618:Middlewares/Third_Party/FreeRTOS/Source/event_groups.c **** 	vTaskSuspendAll();
 619:Middlewares/Third_Party/FreeRTOS/Source/event_groups.c **** 	{
 620:Middlewares/Third_Party/FreeRTOS/Source/event_groups.c **** 		traceEVENT_GROUP_DELETE( xEventGroup );
 621:Middlewares/Third_Party/FreeRTOS/Source/event_groups.c **** 
 622:Middlewares/Third_Party/FreeRTOS/Source/event_groups.c **** 		while( listCURRENT_LIST_LENGTH( pxTasksWaitingForBits ) > ( UBaseType_t ) 0 )
 623:Middlewares/Third_Party/FreeRTOS/Source/event_groups.c **** 		{
 624:Middlewares/Third_Party/FreeRTOS/Source/event_groups.c **** 			/* Unblock the task, returning 0 as the event list is being deleted
 625:Middlewares/Third_Party/FreeRTOS/Source/event_groups.c **** 			and cannot therefore have any bits set. */
 626:Middlewares/Third_Party/FreeRTOS/Source/event_groups.c **** 			configASSERT( pxTasksWaitingForBits->xListEnd.pxNext != ( const ListItem_t * ) &( pxTasksWaiting
 627:Middlewares/Third_Party/FreeRTOS/Source/event_groups.c **** 			vTaskRemoveFromUnorderedEventList( pxTasksWaitingForBits->xListEnd.pxNext, eventUNBLOCKED_DUE_TO
 628:Middlewares/Third_Party/FreeRTOS/Source/event_groups.c **** 		}
 629:Middlewares/Third_Party/FreeRTOS/Source/event_groups.c **** 
 630:Middlewares/Third_Party/FreeRTOS/Source/event_groups.c **** 		#if( ( configSUPPORT_DYNAMIC_ALLOCATION == 1 ) && ( configSUPPORT_STATIC_ALLOCATION == 0 ) )
 631:Middlewares/Third_Party/FreeRTOS/Source/event_groups.c **** 		{
 632:Middlewares/Third_Party/FreeRTOS/Source/event_groups.c **** 			/* The event group can only have been allocated dynamically - free
 633:Middlewares/Third_Party/FreeRTOS/Source/event_groups.c **** 			it again. */
 634:Middlewares/Third_Party/FreeRTOS/Source/event_groups.c **** 			vPortFree( pxEventBits );
 635:Middlewares/Third_Party/FreeRTOS/Source/event_groups.c **** 		}
 636:Middlewares/Third_Party/FreeRTOS/Source/event_groups.c **** 		#elif( ( configSUPPORT_DYNAMIC_ALLOCATION == 1 ) && ( configSUPPORT_STATIC_ALLOCATION == 1 ) )
 637:Middlewares/Third_Party/FreeRTOS/Source/event_groups.c **** 		{
 638:Middlewares/Third_Party/FreeRTOS/Source/event_groups.c **** 			/* The event group could have been allocated statically or
 639:Middlewares/Third_Party/FreeRTOS/Source/event_groups.c **** 			dynamically, so check before attempting to free the memory. */
 640:Middlewares/Third_Party/FreeRTOS/Source/event_groups.c **** 			if( pxEventBits->ucStaticallyAllocated == ( uint8_t ) pdFALSE )
 641:Middlewares/Third_Party/FreeRTOS/Source/event_groups.c **** 			{
 642:Middlewares/Third_Party/FreeRTOS/Source/event_groups.c **** 				vPortFree( pxEventBits );
 643:Middlewares/Third_Party/FreeRTOS/Source/event_groups.c **** 			}
 644:Middlewares/Third_Party/FreeRTOS/Source/event_groups.c **** 			else
 645:Middlewares/Third_Party/FreeRTOS/Source/event_groups.c **** 			{
 646:Middlewares/Third_Party/FreeRTOS/Source/event_groups.c **** 				mtCOVERAGE_TEST_MARKER();
 647:Middlewares/Third_Party/FreeRTOS/Source/event_groups.c **** 			}
 648:Middlewares/Third_Party/FreeRTOS/Source/event_groups.c **** 		}
 649:Middlewares/Third_Party/FreeRTOS/Source/event_groups.c **** 		#endif /* configSUPPORT_DYNAMIC_ALLOCATION */
 650:Middlewares/Third_Party/FreeRTOS/Source/event_groups.c **** 	}
 651:Middlewares/Third_Party/FreeRTOS/Source/event_groups.c **** 	( void ) xTaskResumeAll();
 652:Middlewares/Third_Party/FreeRTOS/Source/event_groups.c **** }
 653:Middlewares/Third_Party/FreeRTOS/Source/event_groups.c **** /*-----------------------------------------------------------*/
 654:Middlewares/Third_Party/FreeRTOS/Source/event_groups.c **** 
 655:Middlewares/Third_Party/FreeRTOS/Source/event_groups.c **** /* For internal use only - execute a 'set bits' command that was pended from
 656:Middlewares/Third_Party/FreeRTOS/Source/event_groups.c **** an interrupt. */
 657:Middlewares/Third_Party/FreeRTOS/Source/event_groups.c **** void vEventGroupSetBitsCallback( void *pvEventGroup, const uint32_t ulBitsToSet )
ARM GAS  /tmp/ccWkqZxZ.s 			page 13


 658:Middlewares/Third_Party/FreeRTOS/Source/event_groups.c **** {
 659:Middlewares/Third_Party/FreeRTOS/Source/event_groups.c **** 	( void ) xEventGroupSetBits( pvEventGroup, ( EventBits_t ) ulBitsToSet ); /*lint !e9079 Can't avoi
 660:Middlewares/Third_Party/FreeRTOS/Source/event_groups.c **** }
 661:Middlewares/Third_Party/FreeRTOS/Source/event_groups.c **** /*-----------------------------------------------------------*/
 662:Middlewares/Third_Party/FreeRTOS/Source/event_groups.c **** 
 663:Middlewares/Third_Party/FreeRTOS/Source/event_groups.c **** /* For internal use only - execute a 'clear bits' command that was pended from
 664:Middlewares/Third_Party/FreeRTOS/Source/event_groups.c **** an interrupt. */
 665:Middlewares/Third_Party/FreeRTOS/Source/event_groups.c **** void vEventGroupClearBitsCallback( void *pvEventGroup, const uint32_t ulBitsToClear )
 666:Middlewares/Third_Party/FreeRTOS/Source/event_groups.c **** {
 667:Middlewares/Third_Party/FreeRTOS/Source/event_groups.c **** 	( void ) xEventGroupClearBits( pvEventGroup, ( EventBits_t ) ulBitsToClear ); /*lint !e9079 Can't 
 668:Middlewares/Third_Party/FreeRTOS/Source/event_groups.c **** }
 669:Middlewares/Third_Party/FreeRTOS/Source/event_groups.c **** /*-----------------------------------------------------------*/
 670:Middlewares/Third_Party/FreeRTOS/Source/event_groups.c **** 
 671:Middlewares/Third_Party/FreeRTOS/Source/event_groups.c **** static BaseType_t prvTestWaitCondition( const EventBits_t uxCurrentEventBits, const EventBits_t uxB
 672:Middlewares/Third_Party/FreeRTOS/Source/event_groups.c **** {
  29              		.loc 1 672 1 view -0
  30              		.cfi_startproc
  31              		@ args = 0, pretend = 0, frame = 0
  32              		@ frame_needed = 0, uses_anonymous_args = 0
  33              		@ link register save eliminated.
 673:Middlewares/Third_Party/FreeRTOS/Source/event_groups.c **** BaseType_t xWaitConditionMet = pdFALSE;
  34              		.loc 1 673 1 view .LVU1
 674:Middlewares/Third_Party/FreeRTOS/Source/event_groups.c **** 
 675:Middlewares/Third_Party/FreeRTOS/Source/event_groups.c **** 	if( xWaitForAllBits == pdFALSE )
  35              		.loc 1 675 2 view .LVU2
  36              		.loc 1 675 4 is_stmt 0 view .LVU3
  37 0000 1AB9     		cbnz	r2, .L2
 676:Middlewares/Third_Party/FreeRTOS/Source/event_groups.c **** 	{
 677:Middlewares/Third_Party/FreeRTOS/Source/event_groups.c **** 		/* Task only has to wait for one bit within uxBitsToWaitFor to be
 678:Middlewares/Third_Party/FreeRTOS/Source/event_groups.c **** 		set.  Is one already set? */
 679:Middlewares/Third_Party/FreeRTOS/Source/event_groups.c **** 		if( ( uxCurrentEventBits & uxBitsToWaitFor ) != ( EventBits_t ) 0 )
  38              		.loc 1 679 3 is_stmt 1 view .LVU4
  39              		.loc 1 679 5 is_stmt 0 view .LVU5
  40 0002 0842     		tst	r0, r1
  41 0004 05D1     		bne	.L4
 673:Middlewares/Third_Party/FreeRTOS/Source/event_groups.c **** 
  42              		.loc 1 673 12 view .LVU6
  43 0006 1046     		mov	r0, r2
  44              	.LVL1:
 673:Middlewares/Third_Party/FreeRTOS/Source/event_groups.c **** 
  45              		.loc 1 673 12 view .LVU7
  46 0008 7047     		bx	lr
  47              	.LVL2:
  48              	.L2:
 680:Middlewares/Third_Party/FreeRTOS/Source/event_groups.c **** 		{
 681:Middlewares/Third_Party/FreeRTOS/Source/event_groups.c **** 			xWaitConditionMet = pdTRUE;
 682:Middlewares/Third_Party/FreeRTOS/Source/event_groups.c **** 		}
 683:Middlewares/Third_Party/FreeRTOS/Source/event_groups.c **** 		else
 684:Middlewares/Third_Party/FreeRTOS/Source/event_groups.c **** 		{
 685:Middlewares/Third_Party/FreeRTOS/Source/event_groups.c **** 			mtCOVERAGE_TEST_MARKER();
 686:Middlewares/Third_Party/FreeRTOS/Source/event_groups.c **** 		}
 687:Middlewares/Third_Party/FreeRTOS/Source/event_groups.c **** 	}
 688:Middlewares/Third_Party/FreeRTOS/Source/event_groups.c **** 	else
 689:Middlewares/Third_Party/FreeRTOS/Source/event_groups.c **** 	{
 690:Middlewares/Third_Party/FreeRTOS/Source/event_groups.c **** 		/* Task has to wait for all the bits in uxBitsToWaitFor to be set.
 691:Middlewares/Third_Party/FreeRTOS/Source/event_groups.c **** 		Are they set already? */
 692:Middlewares/Third_Party/FreeRTOS/Source/event_groups.c **** 		if( ( uxCurrentEventBits & uxBitsToWaitFor ) == uxBitsToWaitFor )
ARM GAS  /tmp/ccWkqZxZ.s 			page 14


  49              		.loc 1 692 3 is_stmt 1 view .LVU8
  50              		.loc 1 692 5 is_stmt 0 view .LVU9
  51 000a 8143     		bics	r1, r1, r0
  52              	.LVL3:
  53              		.loc 1 692 5 view .LVU10
  54 000c 03D0     		beq	.L5
 673:Middlewares/Third_Party/FreeRTOS/Source/event_groups.c **** 
  55              		.loc 1 673 12 view .LVU11
  56 000e 0020     		movs	r0, #0
  57              	.LVL4:
 673:Middlewares/Third_Party/FreeRTOS/Source/event_groups.c **** 
  58              		.loc 1 673 12 view .LVU12
  59 0010 7047     		bx	lr
  60              	.LVL5:
  61              	.L4:
 681:Middlewares/Third_Party/FreeRTOS/Source/event_groups.c **** 		}
  62              		.loc 1 681 22 view .LVU13
  63 0012 0120     		movs	r0, #1
  64              	.LVL6:
 681:Middlewares/Third_Party/FreeRTOS/Source/event_groups.c **** 		}
  65              		.loc 1 681 22 view .LVU14
  66 0014 7047     		bx	lr
  67              	.LVL7:
  68              	.L5:
 693:Middlewares/Third_Party/FreeRTOS/Source/event_groups.c **** 		{
 694:Middlewares/Third_Party/FreeRTOS/Source/event_groups.c **** 			xWaitConditionMet = pdTRUE;
  69              		.loc 1 694 22 view .LVU15
  70 0016 0120     		movs	r0, #1
  71              	.LVL8:
 695:Middlewares/Third_Party/FreeRTOS/Source/event_groups.c **** 		}
 696:Middlewares/Third_Party/FreeRTOS/Source/event_groups.c **** 		else
 697:Middlewares/Third_Party/FreeRTOS/Source/event_groups.c **** 		{
 698:Middlewares/Third_Party/FreeRTOS/Source/event_groups.c **** 			mtCOVERAGE_TEST_MARKER();
  72              		.loc 1 698 28 is_stmt 1 view .LVU16
 699:Middlewares/Third_Party/FreeRTOS/Source/event_groups.c **** 		}
 700:Middlewares/Third_Party/FreeRTOS/Source/event_groups.c **** 	}
 701:Middlewares/Third_Party/FreeRTOS/Source/event_groups.c **** 
 702:Middlewares/Third_Party/FreeRTOS/Source/event_groups.c **** 	return xWaitConditionMet;
  73              		.loc 1 702 2 view .LVU17
 703:Middlewares/Third_Party/FreeRTOS/Source/event_groups.c **** }
  74              		.loc 1 703 1 is_stmt 0 view .LVU18
  75 0018 7047     		bx	lr
  76              		.cfi_endproc
  77              	.LFE15:
  79              		.section	.text.xEventGroupCreateStatic,"ax",%progbits
  80              		.align	1
  81              		.global	xEventGroupCreateStatic
  82              		.syntax unified
  83              		.thumb
  84              		.thumb_func
  86              	xEventGroupCreateStatic:
  87              	.LVL9:
  88              	.LFB4:
  94:Middlewares/Third_Party/FreeRTOS/Source/event_groups.c **** 	EventGroup_t *pxEventBits;
  89              		.loc 1 94 2 is_stmt 1 view -0
  90              		.cfi_startproc
  91              		@ args = 0, pretend = 0, frame = 8
ARM GAS  /tmp/ccWkqZxZ.s 			page 15


  92              		@ frame_needed = 0, uses_anonymous_args = 0
  95:Middlewares/Third_Party/FreeRTOS/Source/event_groups.c **** 
  93              		.loc 1 95 2 view .LVU20
  98:Middlewares/Third_Party/FreeRTOS/Source/event_groups.c **** 
  94              		.loc 1 98 3 view .LVU21
  95 0000 80B1     		cbz	r0, .L13
  94:Middlewares/Third_Party/FreeRTOS/Source/event_groups.c **** 	EventGroup_t *pxEventBits;
  96              		.loc 1 94 2 is_stmt 0 discriminator 2 view .LVU22
  97 0002 10B5     		push	{r4, lr}
  98              		.cfi_def_cfa_offset 8
  99              		.cfi_offset 4, -8
 100              		.cfi_offset 14, -4
 101 0004 82B0     		sub	sp, sp, #8
 102              		.cfi_def_cfa_offset 16
 103 0006 0446     		mov	r4, r0
  98:Middlewares/Third_Party/FreeRTOS/Source/event_groups.c **** 
 104              		.loc 1 98 37 is_stmt 1 discriminator 2 view .LVU23
 105              	.LBB36:
 105:Middlewares/Third_Party/FreeRTOS/Source/event_groups.c **** 			configASSERT( xSize == sizeof( EventGroup_t ) );
 106              		.loc 1 105 4 discriminator 2 view .LVU24
 105:Middlewares/Third_Party/FreeRTOS/Source/event_groups.c **** 			configASSERT( xSize == sizeof( EventGroup_t ) );
 107              		.loc 1 105 20 is_stmt 0 discriminator 2 view .LVU25
 108 0008 2023     		movs	r3, #32
 109 000a 0193     		str	r3, [sp, #4]
 106:Middlewares/Third_Party/FreeRTOS/Source/event_groups.c **** 		} /*lint !e529 xSize is referenced if configASSERT() is defined. */
 110              		.loc 1 106 4 is_stmt 1 discriminator 2 view .LVU26
 111 000c 019B     		ldr	r3, [sp, #4]
 112 000e 202B     		cmp	r3, #32
 113 0010 11D0     		beq	.L9
 106:Middlewares/Third_Party/FreeRTOS/Source/event_groups.c **** 		} /*lint !e529 xSize is referenced if configASSERT() is defined. */
 114              		.loc 1 106 4 view .LVU27
 115              	.LBB37:
 116              	.LBI37:
 117              		.file 2 "Middlewares/Third_Party/FreeRTOS/Source/portable/GCC/ARM_CM4F/portmacro.h"
   1:Middlewares/Third_Party/FreeRTOS/Source/portable/GCC/ARM_CM4F/portmacro.h **** /*
   2:Middlewares/Third_Party/FreeRTOS/Source/portable/GCC/ARM_CM4F/portmacro.h ****  * FreeRTOS Kernel V10.3.1
   3:Middlewares/Third_Party/FreeRTOS/Source/portable/GCC/ARM_CM4F/portmacro.h ****  * Copyright (C) 2020 Amazon.com, Inc. or its affiliates.  All Rights Reserved.
   4:Middlewares/Third_Party/FreeRTOS/Source/portable/GCC/ARM_CM4F/portmacro.h ****  *
   5:Middlewares/Third_Party/FreeRTOS/Source/portable/GCC/ARM_CM4F/portmacro.h ****  * Permission is hereby granted, free of charge, to any person obtaining a copy of
   6:Middlewares/Third_Party/FreeRTOS/Source/portable/GCC/ARM_CM4F/portmacro.h ****  * this software and associated documentation files (the "Software"), to deal in
   7:Middlewares/Third_Party/FreeRTOS/Source/portable/GCC/ARM_CM4F/portmacro.h ****  * the Software without restriction, including without limitation the rights to
   8:Middlewares/Third_Party/FreeRTOS/Source/portable/GCC/ARM_CM4F/portmacro.h ****  * use, copy, modify, merge, publish, distribute, sublicense, and/or sell copies of
   9:Middlewares/Third_Party/FreeRTOS/Source/portable/GCC/ARM_CM4F/portmacro.h ****  * the Software, and to permit persons to whom the Software is furnished to do so,
  10:Middlewares/Third_Party/FreeRTOS/Source/portable/GCC/ARM_CM4F/portmacro.h ****  * subject to the following conditions:
  11:Middlewares/Third_Party/FreeRTOS/Source/portable/GCC/ARM_CM4F/portmacro.h ****  *
  12:Middlewares/Third_Party/FreeRTOS/Source/portable/GCC/ARM_CM4F/portmacro.h ****  * The above copyright notice and this permission notice shall be included in all
  13:Middlewares/Third_Party/FreeRTOS/Source/portable/GCC/ARM_CM4F/portmacro.h ****  * copies or substantial portions of the Software.
  14:Middlewares/Third_Party/FreeRTOS/Source/portable/GCC/ARM_CM4F/portmacro.h ****  *
  15:Middlewares/Third_Party/FreeRTOS/Source/portable/GCC/ARM_CM4F/portmacro.h ****  * THE SOFTWARE IS PROVIDED "AS IS", WITHOUT WARRANTY OF ANY KIND, EXPRESS OR
  16:Middlewares/Third_Party/FreeRTOS/Source/portable/GCC/ARM_CM4F/portmacro.h ****  * IMPLIED, INCLUDING BUT NOT LIMITED TO THE WARRANTIES OF MERCHANTABILITY, FITNESS
  17:Middlewares/Third_Party/FreeRTOS/Source/portable/GCC/ARM_CM4F/portmacro.h ****  * FOR A PARTICULAR PURPOSE AND NONINFRINGEMENT. IN NO EVENT SHALL THE AUTHORS OR
  18:Middlewares/Third_Party/FreeRTOS/Source/portable/GCC/ARM_CM4F/portmacro.h ****  * COPYRIGHT HOLDERS BE LIABLE FOR ANY CLAIM, DAMAGES OR OTHER LIABILITY, WHETHER
  19:Middlewares/Third_Party/FreeRTOS/Source/portable/GCC/ARM_CM4F/portmacro.h ****  * IN AN ACTION OF CONTRACT, TORT OR OTHERWISE, ARISING FROM, OUT OF OR IN
  20:Middlewares/Third_Party/FreeRTOS/Source/portable/GCC/ARM_CM4F/portmacro.h ****  * CONNECTION WITH THE SOFTWARE OR THE USE OR OTHER DEALINGS IN THE SOFTWARE.
  21:Middlewares/Third_Party/FreeRTOS/Source/portable/GCC/ARM_CM4F/portmacro.h ****  *
  22:Middlewares/Third_Party/FreeRTOS/Source/portable/GCC/ARM_CM4F/portmacro.h ****  * http://www.FreeRTOS.org
  23:Middlewares/Third_Party/FreeRTOS/Source/portable/GCC/ARM_CM4F/portmacro.h ****  * http://aws.amazon.com/freertos
ARM GAS  /tmp/ccWkqZxZ.s 			page 16


  24:Middlewares/Third_Party/FreeRTOS/Source/portable/GCC/ARM_CM4F/portmacro.h ****  *
  25:Middlewares/Third_Party/FreeRTOS/Source/portable/GCC/ARM_CM4F/portmacro.h ****  * 1 tab == 4 spaces!
  26:Middlewares/Third_Party/FreeRTOS/Source/portable/GCC/ARM_CM4F/portmacro.h ****  */
  27:Middlewares/Third_Party/FreeRTOS/Source/portable/GCC/ARM_CM4F/portmacro.h **** 
  28:Middlewares/Third_Party/FreeRTOS/Source/portable/GCC/ARM_CM4F/portmacro.h **** 
  29:Middlewares/Third_Party/FreeRTOS/Source/portable/GCC/ARM_CM4F/portmacro.h **** #ifndef PORTMACRO_H
  30:Middlewares/Third_Party/FreeRTOS/Source/portable/GCC/ARM_CM4F/portmacro.h **** #define PORTMACRO_H
  31:Middlewares/Third_Party/FreeRTOS/Source/portable/GCC/ARM_CM4F/portmacro.h **** 
  32:Middlewares/Third_Party/FreeRTOS/Source/portable/GCC/ARM_CM4F/portmacro.h **** #ifdef __cplusplus
  33:Middlewares/Third_Party/FreeRTOS/Source/portable/GCC/ARM_CM4F/portmacro.h **** extern "C" {
  34:Middlewares/Third_Party/FreeRTOS/Source/portable/GCC/ARM_CM4F/portmacro.h **** #endif
  35:Middlewares/Third_Party/FreeRTOS/Source/portable/GCC/ARM_CM4F/portmacro.h **** 
  36:Middlewares/Third_Party/FreeRTOS/Source/portable/GCC/ARM_CM4F/portmacro.h **** /*-----------------------------------------------------------
  37:Middlewares/Third_Party/FreeRTOS/Source/portable/GCC/ARM_CM4F/portmacro.h ****  * Port specific definitions.
  38:Middlewares/Third_Party/FreeRTOS/Source/portable/GCC/ARM_CM4F/portmacro.h ****  *
  39:Middlewares/Third_Party/FreeRTOS/Source/portable/GCC/ARM_CM4F/portmacro.h ****  * The settings in this file configure FreeRTOS correctly for the
  40:Middlewares/Third_Party/FreeRTOS/Source/portable/GCC/ARM_CM4F/portmacro.h ****  * given hardware and compiler.
  41:Middlewares/Third_Party/FreeRTOS/Source/portable/GCC/ARM_CM4F/portmacro.h ****  *
  42:Middlewares/Third_Party/FreeRTOS/Source/portable/GCC/ARM_CM4F/portmacro.h ****  * These settings should not be altered.
  43:Middlewares/Third_Party/FreeRTOS/Source/portable/GCC/ARM_CM4F/portmacro.h ****  *-----------------------------------------------------------
  44:Middlewares/Third_Party/FreeRTOS/Source/portable/GCC/ARM_CM4F/portmacro.h ****  */
  45:Middlewares/Third_Party/FreeRTOS/Source/portable/GCC/ARM_CM4F/portmacro.h **** 
  46:Middlewares/Third_Party/FreeRTOS/Source/portable/GCC/ARM_CM4F/portmacro.h **** /* Type definitions. */
  47:Middlewares/Third_Party/FreeRTOS/Source/portable/GCC/ARM_CM4F/portmacro.h **** #define portCHAR		char
  48:Middlewares/Third_Party/FreeRTOS/Source/portable/GCC/ARM_CM4F/portmacro.h **** #define portFLOAT		float
  49:Middlewares/Third_Party/FreeRTOS/Source/portable/GCC/ARM_CM4F/portmacro.h **** #define portDOUBLE		double
  50:Middlewares/Third_Party/FreeRTOS/Source/portable/GCC/ARM_CM4F/portmacro.h **** #define portLONG		long
  51:Middlewares/Third_Party/FreeRTOS/Source/portable/GCC/ARM_CM4F/portmacro.h **** #define portSHORT		short
  52:Middlewares/Third_Party/FreeRTOS/Source/portable/GCC/ARM_CM4F/portmacro.h **** #define portSTACK_TYPE	uint32_t
  53:Middlewares/Third_Party/FreeRTOS/Source/portable/GCC/ARM_CM4F/portmacro.h **** #define portBASE_TYPE	long
  54:Middlewares/Third_Party/FreeRTOS/Source/portable/GCC/ARM_CM4F/portmacro.h **** 
  55:Middlewares/Third_Party/FreeRTOS/Source/portable/GCC/ARM_CM4F/portmacro.h **** typedef portSTACK_TYPE StackType_t;
  56:Middlewares/Third_Party/FreeRTOS/Source/portable/GCC/ARM_CM4F/portmacro.h **** typedef long BaseType_t;
  57:Middlewares/Third_Party/FreeRTOS/Source/portable/GCC/ARM_CM4F/portmacro.h **** typedef unsigned long UBaseType_t;
  58:Middlewares/Third_Party/FreeRTOS/Source/portable/GCC/ARM_CM4F/portmacro.h **** 
  59:Middlewares/Third_Party/FreeRTOS/Source/portable/GCC/ARM_CM4F/portmacro.h **** #if( configUSE_16_BIT_TICKS == 1 )
  60:Middlewares/Third_Party/FreeRTOS/Source/portable/GCC/ARM_CM4F/portmacro.h **** 	typedef uint16_t TickType_t;
  61:Middlewares/Third_Party/FreeRTOS/Source/portable/GCC/ARM_CM4F/portmacro.h **** 	#define portMAX_DELAY ( TickType_t ) 0xffff
  62:Middlewares/Third_Party/FreeRTOS/Source/portable/GCC/ARM_CM4F/portmacro.h **** #else
  63:Middlewares/Third_Party/FreeRTOS/Source/portable/GCC/ARM_CM4F/portmacro.h **** 	typedef uint32_t TickType_t;
  64:Middlewares/Third_Party/FreeRTOS/Source/portable/GCC/ARM_CM4F/portmacro.h **** 	#define portMAX_DELAY ( TickType_t ) 0xffffffffUL
  65:Middlewares/Third_Party/FreeRTOS/Source/portable/GCC/ARM_CM4F/portmacro.h **** 
  66:Middlewares/Third_Party/FreeRTOS/Source/portable/GCC/ARM_CM4F/portmacro.h **** 	/* 32-bit tick type on a 32-bit architecture, so reads of the tick count do
  67:Middlewares/Third_Party/FreeRTOS/Source/portable/GCC/ARM_CM4F/portmacro.h **** 	not need to be guarded with a critical section. */
  68:Middlewares/Third_Party/FreeRTOS/Source/portable/GCC/ARM_CM4F/portmacro.h **** 	#define portTICK_TYPE_IS_ATOMIC 1
  69:Middlewares/Third_Party/FreeRTOS/Source/portable/GCC/ARM_CM4F/portmacro.h **** #endif
  70:Middlewares/Third_Party/FreeRTOS/Source/portable/GCC/ARM_CM4F/portmacro.h **** /*-----------------------------------------------------------*/
  71:Middlewares/Third_Party/FreeRTOS/Source/portable/GCC/ARM_CM4F/portmacro.h **** 
  72:Middlewares/Third_Party/FreeRTOS/Source/portable/GCC/ARM_CM4F/portmacro.h **** /* Architecture specifics. */
  73:Middlewares/Third_Party/FreeRTOS/Source/portable/GCC/ARM_CM4F/portmacro.h **** #define portSTACK_GROWTH			( -1 )
  74:Middlewares/Third_Party/FreeRTOS/Source/portable/GCC/ARM_CM4F/portmacro.h **** #define portTICK_PERIOD_MS			( ( TickType_t ) 1000 / configTICK_RATE_HZ )
  75:Middlewares/Third_Party/FreeRTOS/Source/portable/GCC/ARM_CM4F/portmacro.h **** #define portBYTE_ALIGNMENT			8
  76:Middlewares/Third_Party/FreeRTOS/Source/portable/GCC/ARM_CM4F/portmacro.h **** /*-----------------------------------------------------------*/
  77:Middlewares/Third_Party/FreeRTOS/Source/portable/GCC/ARM_CM4F/portmacro.h **** 
  78:Middlewares/Third_Party/FreeRTOS/Source/portable/GCC/ARM_CM4F/portmacro.h **** /* Scheduler utilities. */
  79:Middlewares/Third_Party/FreeRTOS/Source/portable/GCC/ARM_CM4F/portmacro.h **** #define portYIELD() 															\
  80:Middlewares/Third_Party/FreeRTOS/Source/portable/GCC/ARM_CM4F/portmacro.h **** {																				\
ARM GAS  /tmp/ccWkqZxZ.s 			page 17


  81:Middlewares/Third_Party/FreeRTOS/Source/portable/GCC/ARM_CM4F/portmacro.h **** 	/* Set a PendSV to request a context switch. */								\
  82:Middlewares/Third_Party/FreeRTOS/Source/portable/GCC/ARM_CM4F/portmacro.h **** 	portNVIC_INT_CTRL_REG = portNVIC_PENDSVSET_BIT;								\
  83:Middlewares/Third_Party/FreeRTOS/Source/portable/GCC/ARM_CM4F/portmacro.h **** 																				\
  84:Middlewares/Third_Party/FreeRTOS/Source/portable/GCC/ARM_CM4F/portmacro.h **** 	/* Barriers are normally not required but do ensure the code is completely	\
  85:Middlewares/Third_Party/FreeRTOS/Source/portable/GCC/ARM_CM4F/portmacro.h **** 	within the specified behaviour for the architecture. */						\
  86:Middlewares/Third_Party/FreeRTOS/Source/portable/GCC/ARM_CM4F/portmacro.h **** 	__asm volatile( "dsb" ::: "memory" );										\
  87:Middlewares/Third_Party/FreeRTOS/Source/portable/GCC/ARM_CM4F/portmacro.h **** 	__asm volatile( "isb" );													\
  88:Middlewares/Third_Party/FreeRTOS/Source/portable/GCC/ARM_CM4F/portmacro.h **** }
  89:Middlewares/Third_Party/FreeRTOS/Source/portable/GCC/ARM_CM4F/portmacro.h **** 
  90:Middlewares/Third_Party/FreeRTOS/Source/portable/GCC/ARM_CM4F/portmacro.h **** #define portNVIC_INT_CTRL_REG		( * ( ( volatile uint32_t * ) 0xe000ed04 ) )
  91:Middlewares/Third_Party/FreeRTOS/Source/portable/GCC/ARM_CM4F/portmacro.h **** #define portNVIC_PENDSVSET_BIT		( 1UL << 28UL )
  92:Middlewares/Third_Party/FreeRTOS/Source/portable/GCC/ARM_CM4F/portmacro.h **** #define portEND_SWITCHING_ISR( xSwitchRequired ) if( xSwitchRequired != pdFALSE ) portYIELD()
  93:Middlewares/Third_Party/FreeRTOS/Source/portable/GCC/ARM_CM4F/portmacro.h **** #define portYIELD_FROM_ISR( x ) portEND_SWITCHING_ISR( x )
  94:Middlewares/Third_Party/FreeRTOS/Source/portable/GCC/ARM_CM4F/portmacro.h **** /*-----------------------------------------------------------*/
  95:Middlewares/Third_Party/FreeRTOS/Source/portable/GCC/ARM_CM4F/portmacro.h **** 
  96:Middlewares/Third_Party/FreeRTOS/Source/portable/GCC/ARM_CM4F/portmacro.h **** /* Critical section management. */
  97:Middlewares/Third_Party/FreeRTOS/Source/portable/GCC/ARM_CM4F/portmacro.h **** extern void vPortEnterCritical( void );
  98:Middlewares/Third_Party/FreeRTOS/Source/portable/GCC/ARM_CM4F/portmacro.h **** extern void vPortExitCritical( void );
  99:Middlewares/Third_Party/FreeRTOS/Source/portable/GCC/ARM_CM4F/portmacro.h **** #define portSET_INTERRUPT_MASK_FROM_ISR()		ulPortRaiseBASEPRI()
 100:Middlewares/Third_Party/FreeRTOS/Source/portable/GCC/ARM_CM4F/portmacro.h **** #define portCLEAR_INTERRUPT_MASK_FROM_ISR(x)	vPortSetBASEPRI(x)
 101:Middlewares/Third_Party/FreeRTOS/Source/portable/GCC/ARM_CM4F/portmacro.h **** #define portDISABLE_INTERRUPTS()				vPortRaiseBASEPRI()
 102:Middlewares/Third_Party/FreeRTOS/Source/portable/GCC/ARM_CM4F/portmacro.h **** #define portENABLE_INTERRUPTS()					vPortSetBASEPRI(0)
 103:Middlewares/Third_Party/FreeRTOS/Source/portable/GCC/ARM_CM4F/portmacro.h **** #define portENTER_CRITICAL()					vPortEnterCritical()
 104:Middlewares/Third_Party/FreeRTOS/Source/portable/GCC/ARM_CM4F/portmacro.h **** #define portEXIT_CRITICAL()						vPortExitCritical()
 105:Middlewares/Third_Party/FreeRTOS/Source/portable/GCC/ARM_CM4F/portmacro.h **** 
 106:Middlewares/Third_Party/FreeRTOS/Source/portable/GCC/ARM_CM4F/portmacro.h **** /*-----------------------------------------------------------*/
 107:Middlewares/Third_Party/FreeRTOS/Source/portable/GCC/ARM_CM4F/portmacro.h **** 
 108:Middlewares/Third_Party/FreeRTOS/Source/portable/GCC/ARM_CM4F/portmacro.h **** /* Task function macros as described on the FreeRTOS.org WEB site.  These are
 109:Middlewares/Third_Party/FreeRTOS/Source/portable/GCC/ARM_CM4F/portmacro.h **** not necessary for to use this port.  They are defined so the common demo files
 110:Middlewares/Third_Party/FreeRTOS/Source/portable/GCC/ARM_CM4F/portmacro.h **** (which build with all the ports) will build. */
 111:Middlewares/Third_Party/FreeRTOS/Source/portable/GCC/ARM_CM4F/portmacro.h **** #define portTASK_FUNCTION_PROTO( vFunction, pvParameters ) void vFunction( void *pvParameters )
 112:Middlewares/Third_Party/FreeRTOS/Source/portable/GCC/ARM_CM4F/portmacro.h **** #define portTASK_FUNCTION( vFunction, pvParameters ) void vFunction( void *pvParameters )
 113:Middlewares/Third_Party/FreeRTOS/Source/portable/GCC/ARM_CM4F/portmacro.h **** /*-----------------------------------------------------------*/
 114:Middlewares/Third_Party/FreeRTOS/Source/portable/GCC/ARM_CM4F/portmacro.h **** 
 115:Middlewares/Third_Party/FreeRTOS/Source/portable/GCC/ARM_CM4F/portmacro.h **** /* Tickless idle/low power functionality. */
 116:Middlewares/Third_Party/FreeRTOS/Source/portable/GCC/ARM_CM4F/portmacro.h **** #ifndef portSUPPRESS_TICKS_AND_SLEEP
 117:Middlewares/Third_Party/FreeRTOS/Source/portable/GCC/ARM_CM4F/portmacro.h **** 	extern void vPortSuppressTicksAndSleep( TickType_t xExpectedIdleTime );
 118:Middlewares/Third_Party/FreeRTOS/Source/portable/GCC/ARM_CM4F/portmacro.h **** 	#define portSUPPRESS_TICKS_AND_SLEEP( xExpectedIdleTime ) vPortSuppressTicksAndSleep( xExpectedIdl
 119:Middlewares/Third_Party/FreeRTOS/Source/portable/GCC/ARM_CM4F/portmacro.h **** #endif
 120:Middlewares/Third_Party/FreeRTOS/Source/portable/GCC/ARM_CM4F/portmacro.h **** /*-----------------------------------------------------------*/
 121:Middlewares/Third_Party/FreeRTOS/Source/portable/GCC/ARM_CM4F/portmacro.h **** 
 122:Middlewares/Third_Party/FreeRTOS/Source/portable/GCC/ARM_CM4F/portmacro.h **** /* Architecture specific optimisations. */
 123:Middlewares/Third_Party/FreeRTOS/Source/portable/GCC/ARM_CM4F/portmacro.h **** #ifndef configUSE_PORT_OPTIMISED_TASK_SELECTION
 124:Middlewares/Third_Party/FreeRTOS/Source/portable/GCC/ARM_CM4F/portmacro.h **** 	#define configUSE_PORT_OPTIMISED_TASK_SELECTION 1
 125:Middlewares/Third_Party/FreeRTOS/Source/portable/GCC/ARM_CM4F/portmacro.h **** #endif
 126:Middlewares/Third_Party/FreeRTOS/Source/portable/GCC/ARM_CM4F/portmacro.h **** 
 127:Middlewares/Third_Party/FreeRTOS/Source/portable/GCC/ARM_CM4F/portmacro.h **** #if configUSE_PORT_OPTIMISED_TASK_SELECTION == 1
 128:Middlewares/Third_Party/FreeRTOS/Source/portable/GCC/ARM_CM4F/portmacro.h **** 
 129:Middlewares/Third_Party/FreeRTOS/Source/portable/GCC/ARM_CM4F/portmacro.h **** 	/* Generic helper function. */
 130:Middlewares/Third_Party/FreeRTOS/Source/portable/GCC/ARM_CM4F/portmacro.h **** 	__attribute__( ( always_inline ) ) static inline uint8_t ucPortCountLeadingZeros( uint32_t ulBitma
 131:Middlewares/Third_Party/FreeRTOS/Source/portable/GCC/ARM_CM4F/portmacro.h **** 	{
 132:Middlewares/Third_Party/FreeRTOS/Source/portable/GCC/ARM_CM4F/portmacro.h **** 	uint8_t ucReturn;
 133:Middlewares/Third_Party/FreeRTOS/Source/portable/GCC/ARM_CM4F/portmacro.h **** 
 134:Middlewares/Third_Party/FreeRTOS/Source/portable/GCC/ARM_CM4F/portmacro.h **** 		__asm volatile ( "clz %0, %1" : "=r" ( ucReturn ) : "r" ( ulBitmap ) : "memory" );
 135:Middlewares/Third_Party/FreeRTOS/Source/portable/GCC/ARM_CM4F/portmacro.h **** 		return ucReturn;
 136:Middlewares/Third_Party/FreeRTOS/Source/portable/GCC/ARM_CM4F/portmacro.h **** 	}
 137:Middlewares/Third_Party/FreeRTOS/Source/portable/GCC/ARM_CM4F/portmacro.h **** 
ARM GAS  /tmp/ccWkqZxZ.s 			page 18


 138:Middlewares/Third_Party/FreeRTOS/Source/portable/GCC/ARM_CM4F/portmacro.h **** 	/* Check the configuration. */
 139:Middlewares/Third_Party/FreeRTOS/Source/portable/GCC/ARM_CM4F/portmacro.h **** 	#if( configMAX_PRIORITIES > 32 )
 140:Middlewares/Third_Party/FreeRTOS/Source/portable/GCC/ARM_CM4F/portmacro.h **** 		#error configUSE_PORT_OPTIMISED_TASK_SELECTION can only be set to 1 when configMAX_PRIORITIES is 
 141:Middlewares/Third_Party/FreeRTOS/Source/portable/GCC/ARM_CM4F/portmacro.h **** 	#endif
 142:Middlewares/Third_Party/FreeRTOS/Source/portable/GCC/ARM_CM4F/portmacro.h **** 
 143:Middlewares/Third_Party/FreeRTOS/Source/portable/GCC/ARM_CM4F/portmacro.h **** 	/* Store/clear the ready priorities in a bit map. */
 144:Middlewares/Third_Party/FreeRTOS/Source/portable/GCC/ARM_CM4F/portmacro.h **** 	#define portRECORD_READY_PRIORITY( uxPriority, uxReadyPriorities ) ( uxReadyPriorities ) |= ( 1UL 
 145:Middlewares/Third_Party/FreeRTOS/Source/portable/GCC/ARM_CM4F/portmacro.h **** 	#define portRESET_READY_PRIORITY( uxPriority, uxReadyPriorities ) ( uxReadyPriorities ) &= ~( 1UL 
 146:Middlewares/Third_Party/FreeRTOS/Source/portable/GCC/ARM_CM4F/portmacro.h **** 
 147:Middlewares/Third_Party/FreeRTOS/Source/portable/GCC/ARM_CM4F/portmacro.h **** 	/*-----------------------------------------------------------*/
 148:Middlewares/Third_Party/FreeRTOS/Source/portable/GCC/ARM_CM4F/portmacro.h **** 
 149:Middlewares/Third_Party/FreeRTOS/Source/portable/GCC/ARM_CM4F/portmacro.h **** 	#define portGET_HIGHEST_PRIORITY( uxTopPriority, uxReadyPriorities ) uxTopPriority = ( 31UL - ( ui
 150:Middlewares/Third_Party/FreeRTOS/Source/portable/GCC/ARM_CM4F/portmacro.h **** 
 151:Middlewares/Third_Party/FreeRTOS/Source/portable/GCC/ARM_CM4F/portmacro.h **** #endif /* configUSE_PORT_OPTIMISED_TASK_SELECTION */
 152:Middlewares/Third_Party/FreeRTOS/Source/portable/GCC/ARM_CM4F/portmacro.h **** 
 153:Middlewares/Third_Party/FreeRTOS/Source/portable/GCC/ARM_CM4F/portmacro.h **** /*-----------------------------------------------------------*/
 154:Middlewares/Third_Party/FreeRTOS/Source/portable/GCC/ARM_CM4F/portmacro.h **** 
 155:Middlewares/Third_Party/FreeRTOS/Source/portable/GCC/ARM_CM4F/portmacro.h **** #ifdef configASSERT
 156:Middlewares/Third_Party/FreeRTOS/Source/portable/GCC/ARM_CM4F/portmacro.h **** 	void vPortValidateInterruptPriority( void );
 157:Middlewares/Third_Party/FreeRTOS/Source/portable/GCC/ARM_CM4F/portmacro.h **** 	#define portASSERT_IF_INTERRUPT_PRIORITY_INVALID() 	vPortValidateInterruptPriority()
 158:Middlewares/Third_Party/FreeRTOS/Source/portable/GCC/ARM_CM4F/portmacro.h **** #endif
 159:Middlewares/Third_Party/FreeRTOS/Source/portable/GCC/ARM_CM4F/portmacro.h **** 
 160:Middlewares/Third_Party/FreeRTOS/Source/portable/GCC/ARM_CM4F/portmacro.h **** /* portNOP() is not required by this port. */
 161:Middlewares/Third_Party/FreeRTOS/Source/portable/GCC/ARM_CM4F/portmacro.h **** #define portNOP()
 162:Middlewares/Third_Party/FreeRTOS/Source/portable/GCC/ARM_CM4F/portmacro.h **** 
 163:Middlewares/Third_Party/FreeRTOS/Source/portable/GCC/ARM_CM4F/portmacro.h **** #define portINLINE	__inline
 164:Middlewares/Third_Party/FreeRTOS/Source/portable/GCC/ARM_CM4F/portmacro.h **** 
 165:Middlewares/Third_Party/FreeRTOS/Source/portable/GCC/ARM_CM4F/portmacro.h **** #ifndef portFORCE_INLINE
 166:Middlewares/Third_Party/FreeRTOS/Source/portable/GCC/ARM_CM4F/portmacro.h **** 	#define portFORCE_INLINE inline __attribute__(( always_inline))
 167:Middlewares/Third_Party/FreeRTOS/Source/portable/GCC/ARM_CM4F/portmacro.h **** #endif
 168:Middlewares/Third_Party/FreeRTOS/Source/portable/GCC/ARM_CM4F/portmacro.h **** 
 169:Middlewares/Third_Party/FreeRTOS/Source/portable/GCC/ARM_CM4F/portmacro.h **** portFORCE_INLINE static BaseType_t xPortIsInsideInterrupt( void )
 170:Middlewares/Third_Party/FreeRTOS/Source/portable/GCC/ARM_CM4F/portmacro.h **** {
 171:Middlewares/Third_Party/FreeRTOS/Source/portable/GCC/ARM_CM4F/portmacro.h **** uint32_t ulCurrentInterrupt;
 172:Middlewares/Third_Party/FreeRTOS/Source/portable/GCC/ARM_CM4F/portmacro.h **** BaseType_t xReturn;
 173:Middlewares/Third_Party/FreeRTOS/Source/portable/GCC/ARM_CM4F/portmacro.h **** 
 174:Middlewares/Third_Party/FreeRTOS/Source/portable/GCC/ARM_CM4F/portmacro.h **** 	/* Obtain the number of the currently executing interrupt. */
 175:Middlewares/Third_Party/FreeRTOS/Source/portable/GCC/ARM_CM4F/portmacro.h **** 	__asm volatile( "mrs %0, ipsr" : "=r"( ulCurrentInterrupt ) :: "memory" );
 176:Middlewares/Third_Party/FreeRTOS/Source/portable/GCC/ARM_CM4F/portmacro.h **** 
 177:Middlewares/Third_Party/FreeRTOS/Source/portable/GCC/ARM_CM4F/portmacro.h **** 	if( ulCurrentInterrupt == 0 )
 178:Middlewares/Third_Party/FreeRTOS/Source/portable/GCC/ARM_CM4F/portmacro.h **** 	{
 179:Middlewares/Third_Party/FreeRTOS/Source/portable/GCC/ARM_CM4F/portmacro.h **** 		xReturn = pdFALSE;
 180:Middlewares/Third_Party/FreeRTOS/Source/portable/GCC/ARM_CM4F/portmacro.h **** 	}
 181:Middlewares/Third_Party/FreeRTOS/Source/portable/GCC/ARM_CM4F/portmacro.h **** 	else
 182:Middlewares/Third_Party/FreeRTOS/Source/portable/GCC/ARM_CM4F/portmacro.h **** 	{
 183:Middlewares/Third_Party/FreeRTOS/Source/portable/GCC/ARM_CM4F/portmacro.h **** 		xReturn = pdTRUE;
 184:Middlewares/Third_Party/FreeRTOS/Source/portable/GCC/ARM_CM4F/portmacro.h **** 	}
 185:Middlewares/Third_Party/FreeRTOS/Source/portable/GCC/ARM_CM4F/portmacro.h **** 
 186:Middlewares/Third_Party/FreeRTOS/Source/portable/GCC/ARM_CM4F/portmacro.h **** 	return xReturn;
 187:Middlewares/Third_Party/FreeRTOS/Source/portable/GCC/ARM_CM4F/portmacro.h **** }
 188:Middlewares/Third_Party/FreeRTOS/Source/portable/GCC/ARM_CM4F/portmacro.h **** 
 189:Middlewares/Third_Party/FreeRTOS/Source/portable/GCC/ARM_CM4F/portmacro.h **** /*-----------------------------------------------------------*/
 190:Middlewares/Third_Party/FreeRTOS/Source/portable/GCC/ARM_CM4F/portmacro.h **** 
 191:Middlewares/Third_Party/FreeRTOS/Source/portable/GCC/ARM_CM4F/portmacro.h **** portFORCE_INLINE static void vPortRaiseBASEPRI( void )
 118              		.loc 2 191 30 view .LVU28
 119              	.LBB38:
 192:Middlewares/Third_Party/FreeRTOS/Source/portable/GCC/ARM_CM4F/portmacro.h **** {
ARM GAS  /tmp/ccWkqZxZ.s 			page 19


 193:Middlewares/Third_Party/FreeRTOS/Source/portable/GCC/ARM_CM4F/portmacro.h **** uint32_t ulNewBASEPRI;
 120              		.loc 2 193 1 view .LVU29
 194:Middlewares/Third_Party/FreeRTOS/Source/portable/GCC/ARM_CM4F/portmacro.h **** 
 195:Middlewares/Third_Party/FreeRTOS/Source/portable/GCC/ARM_CM4F/portmacro.h **** 	__asm volatile
 121              		.loc 2 195 2 view .LVU30
 122              		.syntax unified
 123              	@ 195 "Middlewares/Third_Party/FreeRTOS/Source/portable/GCC/ARM_CM4F/portmacro.h" 1
 124 0012 4FF05003 			mov r3, #80												
 125 0016 83F31188 		msr basepri, r3											
 126 001a BFF36F8F 		isb														
 127 001e BFF34F8F 		dsb														
 128              	
 129              	@ 0 "" 2
 130              	.LVL10:
 131              		.thumb
 132              		.syntax unified
 133              	.L10:
 134              		.loc 2 195 2 is_stmt 0 view .LVU31
 135              	.LBE38:
 136              	.LBE37:
 106:Middlewares/Third_Party/FreeRTOS/Source/event_groups.c **** 		} /*lint !e529 xSize is referenced if configASSERT() is defined. */
 137              		.loc 1 106 4 is_stmt 1 discriminator 2 view .LVU32
 106:Middlewares/Third_Party/FreeRTOS/Source/event_groups.c **** 		} /*lint !e529 xSize is referenced if configASSERT() is defined. */
 138              		.loc 1 106 4 discriminator 2 view .LVU33
 139 0022 FEE7     		b	.L10
 140              	.L13:
 141              		.cfi_def_cfa_offset 0
 142              		.cfi_restore 4
 143              		.cfi_restore 14
 106:Middlewares/Third_Party/FreeRTOS/Source/event_groups.c **** 		} /*lint !e529 xSize is referenced if configASSERT() is defined. */
 144              		.loc 1 106 4 is_stmt 0 discriminator 2 view .LVU34
 145              	.LBE36:
  98:Middlewares/Third_Party/FreeRTOS/Source/event_groups.c **** 
 146              		.loc 1 98 3 is_stmt 1 view .LVU35
 147              	.LBB39:
 148              	.LBI39:
 191:Middlewares/Third_Party/FreeRTOS/Source/portable/GCC/ARM_CM4F/portmacro.h **** {
 149              		.loc 2 191 30 view .LVU36
 150              	.LBB40:
 193:Middlewares/Third_Party/FreeRTOS/Source/portable/GCC/ARM_CM4F/portmacro.h **** 
 151              		.loc 2 193 1 view .LVU37
 152              		.loc 2 195 2 view .LVU38
 153              		.syntax unified
 154              	@ 195 "Middlewares/Third_Party/FreeRTOS/Source/portable/GCC/ARM_CM4F/portmacro.h" 1
 155 0024 4FF05003 			mov r3, #80												
 156 0028 83F31188 		msr basepri, r3											
 157 002c BFF36F8F 		isb														
 158 0030 BFF34F8F 		dsb														
 159              	
 160              	@ 0 "" 2
 161              	.LVL11:
 162              		.thumb
 163              		.syntax unified
 164              	.L8:
 165              		.loc 2 195 2 is_stmt 0 view .LVU39
 166              	.LBE40:
 167              	.LBE39:
ARM GAS  /tmp/ccWkqZxZ.s 			page 20


  98:Middlewares/Third_Party/FreeRTOS/Source/event_groups.c **** 
 168              		.loc 1 98 3 is_stmt 1 discriminator 1 view .LVU40
  98:Middlewares/Third_Party/FreeRTOS/Source/event_groups.c **** 
 169              		.loc 1 98 3 discriminator 1 view .LVU41
 170 0034 FEE7     		b	.L8
 171              	.L9:
 172              		.cfi_def_cfa_offset 16
 173              		.cfi_offset 4, -8
 174              		.cfi_offset 14, -4
 175              	.LBB41:
 106:Middlewares/Third_Party/FreeRTOS/Source/event_groups.c **** 		} /*lint !e529 xSize is referenced if configASSERT() is defined. */
 176              		.loc 1 106 51 view .LVU42
 177              	.LBE41:
 111:Middlewares/Third_Party/FreeRTOS/Source/event_groups.c **** 
 178              		.loc 1 111 3 view .LVU43
 179              	.LVL12:
 113:Middlewares/Third_Party/FreeRTOS/Source/event_groups.c **** 		{
 180              		.loc 1 113 3 view .LVU44
 115:Middlewares/Third_Party/FreeRTOS/Source/event_groups.c **** 			vListInitialise( &( pxEventBits->xTasksWaitingForBits ) );
 181              		.loc 1 115 4 view .LVU45
 115:Middlewares/Third_Party/FreeRTOS/Source/event_groups.c **** 			vListInitialise( &( pxEventBits->xTasksWaitingForBits ) );
 182              		.loc 1 115 29 is_stmt 0 view .LVU46
 183 0036 0023     		movs	r3, #0
 184 0038 40F8043B 		str	r3, [r0], #4
 185              	.LVL13:
 116:Middlewares/Third_Party/FreeRTOS/Source/event_groups.c **** 
 186              		.loc 1 116 4 is_stmt 1 view .LVU47
 187 003c FFF7FEFF 		bl	vListInitialise
 188              	.LVL14:
 123:Middlewares/Third_Party/FreeRTOS/Source/event_groups.c **** 			}
 189              		.loc 1 123 5 view .LVU48
 123:Middlewares/Third_Party/FreeRTOS/Source/event_groups.c **** 			}
 190              		.loc 1 123 40 is_stmt 0 view .LVU49
 191 0040 0123     		movs	r3, #1
 192 0042 2377     		strb	r3, [r4, #28]
 127:Middlewares/Third_Party/FreeRTOS/Source/event_groups.c **** 		}
 193              		.loc 1 127 42 is_stmt 1 view .LVU50
 134:Middlewares/Third_Party/FreeRTOS/Source/event_groups.c **** 		}
 194              		.loc 1 134 36 view .LVU51
 137:Middlewares/Third_Party/FreeRTOS/Source/event_groups.c **** 	}
 195              		.loc 1 137 3 view .LVU52
 138:Middlewares/Third_Party/FreeRTOS/Source/event_groups.c **** 
 196              		.loc 1 138 2 is_stmt 0 view .LVU53
 197 0044 2046     		mov	r0, r4
 198 0046 02B0     		add	sp, sp, #8
 199              		.cfi_def_cfa_offset 8
 200              		@ sp needed
 201 0048 10BD     		pop	{r4, pc}
 138:Middlewares/Third_Party/FreeRTOS/Source/event_groups.c **** 
 202              		.loc 1 138 2 view .LVU54
 203              		.cfi_endproc
 204              	.LFE4:
 206              		.section	.text.xEventGroupCreate,"ax",%progbits
 207              		.align	1
 208              		.global	xEventGroupCreate
 209              		.syntax unified
 210              		.thumb
ARM GAS  /tmp/ccWkqZxZ.s 			page 21


 211              		.thumb_func
 213              	xEventGroupCreate:
 214              	.LFB5:
 146:Middlewares/Third_Party/FreeRTOS/Source/event_groups.c **** 	EventGroup_t *pxEventBits;
 215              		.loc 1 146 2 is_stmt 1 view -0
 216              		.cfi_startproc
 217              		@ args = 0, pretend = 0, frame = 0
 218              		@ frame_needed = 0, uses_anonymous_args = 0
 219 0000 38B5     		push	{r3, r4, r5, lr}
 220              		.cfi_def_cfa_offset 16
 221              		.cfi_offset 3, -16
 222              		.cfi_offset 4, -12
 223              		.cfi_offset 5, -8
 224              		.cfi_offset 14, -4
 147:Middlewares/Third_Party/FreeRTOS/Source/event_groups.c **** 
 225              		.loc 1 147 2 view .LVU56
 162:Middlewares/Third_Party/FreeRTOS/Source/event_groups.c **** 
 226              		.loc 1 162 3 view .LVU57
 162:Middlewares/Third_Party/FreeRTOS/Source/event_groups.c **** 
 227              		.loc 1 162 36 is_stmt 0 view .LVU58
 228 0002 2020     		movs	r0, #32
 229 0004 FFF7FEFF 		bl	pvPortMalloc
 230              	.LVL15:
 164:Middlewares/Third_Party/FreeRTOS/Source/event_groups.c **** 		{
 231              		.loc 1 164 3 is_stmt 1 view .LVU59
 164:Middlewares/Third_Party/FreeRTOS/Source/event_groups.c **** 		{
 232              		.loc 1 164 5 is_stmt 0 view .LVU60
 233 0008 0446     		mov	r4, r0
 234 000a 28B1     		cbz	r0, .L14
 166:Middlewares/Third_Party/FreeRTOS/Source/event_groups.c **** 			vListInitialise( &( pxEventBits->xTasksWaitingForBits ) );
 235              		.loc 1 166 4 is_stmt 1 view .LVU61
 166:Middlewares/Third_Party/FreeRTOS/Source/event_groups.c **** 			vListInitialise( &( pxEventBits->xTasksWaitingForBits ) );
 236              		.loc 1 166 29 is_stmt 0 view .LVU62
 237 000c 0025     		movs	r5, #0
 238 000e 40F8045B 		str	r5, [r0], #4
 239              	.LVL16:
 167:Middlewares/Third_Party/FreeRTOS/Source/event_groups.c **** 
 240              		.loc 1 167 4 is_stmt 1 view .LVU63
 241 0012 FFF7FEFF 		bl	vListInitialise
 242              	.LVL17:
 174:Middlewares/Third_Party/FreeRTOS/Source/event_groups.c **** 			}
 243              		.loc 1 174 5 view .LVU64
 174:Middlewares/Third_Party/FreeRTOS/Source/event_groups.c **** 			}
 244              		.loc 1 174 40 is_stmt 0 view .LVU65
 245 0016 2577     		strb	r5, [r4, #28]
 178:Middlewares/Third_Party/FreeRTOS/Source/event_groups.c **** 		}
 246              		.loc 1 178 42 is_stmt 1 view .LVU66
 182:Middlewares/Third_Party/FreeRTOS/Source/event_groups.c **** 		}
 247              		.loc 1 182 36 view .LVU67
 185:Middlewares/Third_Party/FreeRTOS/Source/event_groups.c **** 	}
 248              		.loc 1 185 3 view .LVU68
 249              	.L14:
 186:Middlewares/Third_Party/FreeRTOS/Source/event_groups.c **** 
 250              		.loc 1 186 2 is_stmt 0 view .LVU69
 251 0018 2046     		mov	r0, r4
 252 001a 38BD     		pop	{r3, r4, r5, pc}
 186:Middlewares/Third_Party/FreeRTOS/Source/event_groups.c **** 
ARM GAS  /tmp/ccWkqZxZ.s 			page 22


 253              		.loc 1 186 2 view .LVU70
 254              		.cfi_endproc
 255              	.LFE5:
 257              		.section	.text.xEventGroupWaitBits,"ax",%progbits
 258              		.align	1
 259              		.global	xEventGroupWaitBits
 260              		.syntax unified
 261              		.thumb
 262              		.thumb_func
 264              	xEventGroupWaitBits:
 265              	.LVL18:
 266              	.LFB7:
 312:Middlewares/Third_Party/FreeRTOS/Source/event_groups.c **** EventGroup_t *pxEventBits = xEventGroup;
 267              		.loc 1 312 1 is_stmt 1 view -0
 268              		.cfi_startproc
 269              		@ args = 4, pretend = 0, frame = 0
 270              		@ frame_needed = 0, uses_anonymous_args = 0
 313:Middlewares/Third_Party/FreeRTOS/Source/event_groups.c **** EventBits_t uxReturn, uxControlBits = 0;
 271              		.loc 1 313 1 view .LVU72
 314:Middlewares/Third_Party/FreeRTOS/Source/event_groups.c **** BaseType_t xWaitConditionMet, xAlreadyYielded;
 272              		.loc 1 314 1 view .LVU73
 315:Middlewares/Third_Party/FreeRTOS/Source/event_groups.c **** BaseType_t xTimeoutOccurred = pdFALSE;
 273              		.loc 1 315 1 view .LVU74
 316:Middlewares/Third_Party/FreeRTOS/Source/event_groups.c **** 
 274              		.loc 1 316 1 view .LVU75
 320:Middlewares/Third_Party/FreeRTOS/Source/event_groups.c **** 	configASSERT( ( uxBitsToWaitFor & eventEVENT_BITS_CONTROL_BYTES ) == 0 );
 275              		.loc 1 320 2 view .LVU76
 276 0000 88B1     		cbz	r0, .L38
 312:Middlewares/Third_Party/FreeRTOS/Source/event_groups.c **** EventGroup_t *pxEventBits = xEventGroup;
 277              		.loc 1 312 1 is_stmt 0 discriminator 2 view .LVU77
 278 0002 2DE9F041 		push	{r4, r5, r6, r7, r8, lr}
 279              		.cfi_def_cfa_offset 24
 280              		.cfi_offset 4, -24
 281              		.cfi_offset 5, -20
 282              		.cfi_offset 6, -16
 283              		.cfi_offset 7, -12
 284              		.cfi_offset 8, -8
 285              		.cfi_offset 14, -4
 286 0006 0C46     		mov	r4, r1
 287 0008 1646     		mov	r6, r2
 288 000a 1D46     		mov	r5, r3
 289 000c 0746     		mov	r7, r0
 320:Middlewares/Third_Party/FreeRTOS/Source/event_groups.c **** 	configASSERT( ( uxBitsToWaitFor & eventEVENT_BITS_CONTROL_BYTES ) == 0 );
 290              		.loc 1 320 29 is_stmt 1 discriminator 2 view .LVU78
 321:Middlewares/Third_Party/FreeRTOS/Source/event_groups.c **** 	configASSERT( uxBitsToWaitFor != 0 );
 291              		.loc 1 321 2 discriminator 2 view .LVU79
 292 000e B1F1807F 		cmp	r1, #16777216
 293 0012 11D3     		bcc	.L20
 321:Middlewares/Third_Party/FreeRTOS/Source/event_groups.c **** 	configASSERT( uxBitsToWaitFor != 0 );
 294              		.loc 1 321 2 view .LVU80
 295              	.LBB42:
 296              	.LBI42:
 191:Middlewares/Third_Party/FreeRTOS/Source/portable/GCC/ARM_CM4F/portmacro.h **** {
 297              		.loc 2 191 30 view .LVU81
 298              	.LBB43:
 193:Middlewares/Third_Party/FreeRTOS/Source/portable/GCC/ARM_CM4F/portmacro.h **** 
 299              		.loc 2 193 1 view .LVU82
ARM GAS  /tmp/ccWkqZxZ.s 			page 23


 300              		.loc 2 195 2 view .LVU83
 301              		.syntax unified
 302              	@ 195 "Middlewares/Third_Party/FreeRTOS/Source/portable/GCC/ARM_CM4F/portmacro.h" 1
 303 0014 4FF05003 			mov r3, #80												
 304 0018 83F31188 		msr basepri, r3											
 305 001c BFF36F8F 		isb														
 306 0020 BFF34F8F 		dsb														
 307              	
 308              	@ 0 "" 2
 309              	.LVL19:
 310              		.thumb
 311              		.syntax unified
 312              	.L21:
 313              		.loc 2 195 2 is_stmt 0 view .LVU84
 314              	.LBE43:
 315              	.LBE42:
 321:Middlewares/Third_Party/FreeRTOS/Source/event_groups.c **** 	configASSERT( uxBitsToWaitFor != 0 );
 316              		.loc 1 321 2 is_stmt 1 discriminator 2 view .LVU85
 321:Middlewares/Third_Party/FreeRTOS/Source/event_groups.c **** 	configASSERT( uxBitsToWaitFor != 0 );
 317              		.loc 1 321 2 discriminator 2 view .LVU86
 318 0024 FEE7     		b	.L21
 319              	.LVL20:
 320              	.L38:
 321              		.cfi_def_cfa_offset 0
 322              		.cfi_restore 4
 323              		.cfi_restore 5
 324              		.cfi_restore 6
 325              		.cfi_restore 7
 326              		.cfi_restore 8
 327              		.cfi_restore 14
 320:Middlewares/Third_Party/FreeRTOS/Source/event_groups.c **** 	configASSERT( ( uxBitsToWaitFor & eventEVENT_BITS_CONTROL_BYTES ) == 0 );
 328              		.loc 1 320 2 view .LVU87
 329              	.LBB44:
 330              	.LBI44:
 191:Middlewares/Third_Party/FreeRTOS/Source/portable/GCC/ARM_CM4F/portmacro.h **** {
 331              		.loc 2 191 30 view .LVU88
 332              	.LBB45:
 193:Middlewares/Third_Party/FreeRTOS/Source/portable/GCC/ARM_CM4F/portmacro.h **** 
 333              		.loc 2 193 1 view .LVU89
 334              		.loc 2 195 2 view .LVU90
 335              		.syntax unified
 336              	@ 195 "Middlewares/Third_Party/FreeRTOS/Source/portable/GCC/ARM_CM4F/portmacro.h" 1
 337 0026 4FF05003 			mov r3, #80												
 338 002a 83F31188 		msr basepri, r3											
 339 002e BFF36F8F 		isb														
 340 0032 BFF34F8F 		dsb														
 341              	
 342              	@ 0 "" 2
 343              	.LVL21:
 344              		.thumb
 345              		.syntax unified
 346              	.L19:
 347              		.loc 2 195 2 is_stmt 0 view .LVU91
 348              	.LBE45:
 349              	.LBE44:
 320:Middlewares/Third_Party/FreeRTOS/Source/event_groups.c **** 	configASSERT( ( uxBitsToWaitFor & eventEVENT_BITS_CONTROL_BYTES ) == 0 );
 350              		.loc 1 320 2 is_stmt 1 discriminator 1 view .LVU92
ARM GAS  /tmp/ccWkqZxZ.s 			page 24


 320:Middlewares/Third_Party/FreeRTOS/Source/event_groups.c **** 	configASSERT( ( uxBitsToWaitFor & eventEVENT_BITS_CONTROL_BYTES ) == 0 );
 351              		.loc 1 320 2 discriminator 1 view .LVU93
 352 0036 FEE7     		b	.L19
 353              	.LVL22:
 354              	.L20:
 355              		.cfi_def_cfa_offset 24
 356              		.cfi_offset 4, -24
 357              		.cfi_offset 5, -20
 358              		.cfi_offset 6, -16
 359              		.cfi_offset 7, -12
 360              		.cfi_offset 8, -8
 361              		.cfi_offset 14, -4
 321:Middlewares/Third_Party/FreeRTOS/Source/event_groups.c **** 	configASSERT( uxBitsToWaitFor != 0 );
 362              		.loc 1 321 74 discriminator 2 view .LVU94
 322:Middlewares/Third_Party/FreeRTOS/Source/event_groups.c **** 	#if ( ( INCLUDE_xTaskGetSchedulerState == 1 ) || ( configUSE_TIMERS == 1 ) )
 363              		.loc 1 322 2 discriminator 2 view .LVU95
 364 0038 41B9     		cbnz	r1, .L22
 322:Middlewares/Third_Party/FreeRTOS/Source/event_groups.c **** 	#if ( ( INCLUDE_xTaskGetSchedulerState == 1 ) || ( configUSE_TIMERS == 1 ) )
 365              		.loc 1 322 2 view .LVU96
 366              	.LBB46:
 367              	.LBI46:
 191:Middlewares/Third_Party/FreeRTOS/Source/portable/GCC/ARM_CM4F/portmacro.h **** {
 368              		.loc 2 191 30 view .LVU97
 369              	.LBB47:
 193:Middlewares/Third_Party/FreeRTOS/Source/portable/GCC/ARM_CM4F/portmacro.h **** 
 370              		.loc 2 193 1 view .LVU98
 371              		.loc 2 195 2 view .LVU99
 372              		.syntax unified
 373              	@ 195 "Middlewares/Third_Party/FreeRTOS/Source/portable/GCC/ARM_CM4F/portmacro.h" 1
 374 003a 4FF05003 			mov r3, #80												
 375 003e 83F31188 		msr basepri, r3											
 376 0042 BFF36F8F 		isb														
 377 0046 BFF34F8F 		dsb														
 378              	
 379              	@ 0 "" 2
 380              	.LVL23:
 381              		.thumb
 382              		.syntax unified
 383              	.L23:
 384              		.loc 2 195 2 is_stmt 0 view .LVU100
 385              	.LBE47:
 386              	.LBE46:
 322:Middlewares/Third_Party/FreeRTOS/Source/event_groups.c **** 	#if ( ( INCLUDE_xTaskGetSchedulerState == 1 ) || ( configUSE_TIMERS == 1 ) )
 387              		.loc 1 322 2 is_stmt 1 discriminator 3 view .LVU101
 322:Middlewares/Third_Party/FreeRTOS/Source/event_groups.c **** 	#if ( ( INCLUDE_xTaskGetSchedulerState == 1 ) || ( configUSE_TIMERS == 1 ) )
 388              		.loc 1 322 2 discriminator 3 view .LVU102
 389 004a FEE7     		b	.L23
 390              	.LVL24:
 391              	.L22:
 322:Middlewares/Third_Party/FreeRTOS/Source/event_groups.c **** 	#if ( ( INCLUDE_xTaskGetSchedulerState == 1 ) || ( configUSE_TIMERS == 1 ) )
 392              		.loc 1 322 38 discriminator 2 view .LVU103
 325:Middlewares/Third_Party/FreeRTOS/Source/event_groups.c **** 	}
 393              		.loc 1 325 3 discriminator 2 view .LVU104
 394 004c FFF7FEFF 		bl	xTaskGetSchedulerState
 395              	.LVL25:
 325:Middlewares/Third_Party/FreeRTOS/Source/event_groups.c **** 	}
 396              		.loc 1 325 3 is_stmt 0 discriminator 2 view .LVU105
ARM GAS  /tmp/ccWkqZxZ.s 			page 25


 397 0050 50B9     		cbnz	r0, .L24
 398 0052 069B     		ldr	r3, [sp, #24]
 399 0054 43B1     		cbz	r3, .L24
 325:Middlewares/Third_Party/FreeRTOS/Source/event_groups.c **** 	}
 400              		.loc 1 325 3 is_stmt 1 view .LVU106
 401              	.LBB48:
 402              	.LBI48:
 191:Middlewares/Third_Party/FreeRTOS/Source/portable/GCC/ARM_CM4F/portmacro.h **** {
 403              		.loc 2 191 30 view .LVU107
 404              	.LBB49:
 193:Middlewares/Third_Party/FreeRTOS/Source/portable/GCC/ARM_CM4F/portmacro.h **** 
 405              		.loc 2 193 1 view .LVU108
 406              		.loc 2 195 2 view .LVU109
 407              		.syntax unified
 408              	@ 195 "Middlewares/Third_Party/FreeRTOS/Source/portable/GCC/ARM_CM4F/portmacro.h" 1
 409 0056 4FF05003 			mov r3, #80												
 410 005a 83F31188 		msr basepri, r3											
 411 005e BFF36F8F 		isb														
 412 0062 BFF34F8F 		dsb														
 413              	
 414              	@ 0 "" 2
 415              	.LVL26:
 416              		.thumb
 417              		.syntax unified
 418              	.L25:
 419              		.loc 2 195 2 is_stmt 0 view .LVU110
 420              	.LBE49:
 421              	.LBE48:
 325:Middlewares/Third_Party/FreeRTOS/Source/event_groups.c **** 	}
 422              		.loc 1 325 3 is_stmt 1 discriminator 4 view .LVU111
 325:Middlewares/Third_Party/FreeRTOS/Source/event_groups.c **** 	}
 423              		.loc 1 325 3 discriminator 4 view .LVU112
 424 0066 FEE7     		b	.L25
 425              	.L24:
 325:Middlewares/Third_Party/FreeRTOS/Source/event_groups.c **** 	}
 426              		.loc 1 325 104 discriminator 8 view .LVU113
 329:Middlewares/Third_Party/FreeRTOS/Source/event_groups.c **** 	{
 427              		.loc 1 329 2 discriminator 8 view .LVU114
 428 0068 FFF7FEFF 		bl	vTaskSuspendAll
 429              	.LVL27:
 430              	.LBB50:
 331:Middlewares/Third_Party/FreeRTOS/Source/event_groups.c **** 
 431              		.loc 1 331 3 discriminator 8 view .LVU115
 331:Middlewares/Third_Party/FreeRTOS/Source/event_groups.c **** 
 432              		.loc 1 331 21 is_stmt 0 discriminator 8 view .LVU116
 433 006c D7F80080 		ldr	r8, [r7]
 434              	.LVL28:
 334:Middlewares/Third_Party/FreeRTOS/Source/event_groups.c **** 
 435              		.loc 1 334 3 is_stmt 1 discriminator 8 view .LVU117
 334:Middlewares/Third_Party/FreeRTOS/Source/event_groups.c **** 
 436              		.loc 1 334 23 is_stmt 0 discriminator 8 view .LVU118
 437 0070 2A46     		mov	r2, r5
 438 0072 2146     		mov	r1, r4
 439 0074 4046     		mov	r0, r8
 440 0076 FFF7FEFF 		bl	prvTestWaitCondition
 441              	.LVL29:
 336:Middlewares/Third_Party/FreeRTOS/Source/event_groups.c **** 		{
ARM GAS  /tmp/ccWkqZxZ.s 			page 26


 442              		.loc 1 336 3 is_stmt 1 discriminator 8 view .LVU119
 336:Middlewares/Third_Party/FreeRTOS/Source/event_groups.c **** 		{
 443              		.loc 1 336 5 is_stmt 0 discriminator 8 view .LVU120
 444 007a F8B1     		cbz	r0, .L26
 340:Middlewares/Third_Party/FreeRTOS/Source/event_groups.c **** 			xTicksToWait = ( TickType_t ) 0;
 445              		.loc 1 340 4 is_stmt 1 view .LVU121
 446              	.LVL30:
 341:Middlewares/Third_Party/FreeRTOS/Source/event_groups.c **** 
 447              		.loc 1 341 4 view .LVU122
 344:Middlewares/Third_Party/FreeRTOS/Source/event_groups.c **** 			{
 448              		.loc 1 344 4 view .LVU123
 344:Middlewares/Third_Party/FreeRTOS/Source/event_groups.c **** 			{
 449              		.loc 1 344 6 is_stmt 0 view .LVU124
 450 007c 8EB3     		cbz	r6, .L34
 346:Middlewares/Third_Party/FreeRTOS/Source/event_groups.c **** 			}
 451              		.loc 1 346 5 is_stmt 1 view .LVU125
 346:Middlewares/Third_Party/FreeRTOS/Source/event_groups.c **** 			}
 452              		.loc 1 346 30 is_stmt 0 view .LVU126
 453 007e 28EA0403 		bic	r3, r8, r4
 454 0082 3B60     		str	r3, [r7]
 341:Middlewares/Third_Party/FreeRTOS/Source/event_groups.c **** 
 455              		.loc 1 341 17 view .LVU127
 456 0084 0023     		movs	r3, #0
 457 0086 0693     		str	r3, [sp, #24]
 458              	.LVL31:
 459              	.L27:
 394:Middlewares/Third_Party/FreeRTOS/Source/event_groups.c **** 		}
 460              		.loc 1 394 68 is_stmt 1 view .LVU128
 461              	.LBE50:
 397:Middlewares/Third_Party/FreeRTOS/Source/event_groups.c **** 
 462              		.loc 1 397 2 view .LVU129
 397:Middlewares/Third_Party/FreeRTOS/Source/event_groups.c **** 
 463              		.loc 1 397 20 is_stmt 0 view .LVU130
 464 0088 FFF7FEFF 		bl	xTaskResumeAll
 465              	.LVL32:
 399:Middlewares/Third_Party/FreeRTOS/Source/event_groups.c **** 	{
 466              		.loc 1 399 2 is_stmt 1 view .LVU131
 399:Middlewares/Third_Party/FreeRTOS/Source/event_groups.c **** 	{
 467              		.loc 1 399 4 is_stmt 0 view .LVU132
 468 008c 069B     		ldr	r3, [sp, #24]
 469 008e 93B1     		cbz	r3, .L17
 401:Middlewares/Third_Party/FreeRTOS/Source/event_groups.c **** 		{
 470              		.loc 1 401 3 is_stmt 1 view .LVU133
 401:Middlewares/Third_Party/FreeRTOS/Source/event_groups.c **** 		{
 471              		.loc 1 401 5 is_stmt 0 view .LVU134
 472 0090 48B9     		cbnz	r0, .L31
 403:Middlewares/Third_Party/FreeRTOS/Source/event_groups.c **** 		}
 473              		.loc 1 403 4 is_stmt 1 view .LVU135
 474 0092 4FF0E023 		mov	r3, #-536813568
 475 0096 4FF08052 		mov	r2, #268435456
 476 009a C3F8042D 		str	r2, [r3, #3332]
 477              	.LVL33:
 403:Middlewares/Third_Party/FreeRTOS/Source/event_groups.c **** 		}
 478              		.loc 1 403 4 view .LVU136
 479              		.syntax unified
 480              	@ 403 "Middlewares/Third_Party/FreeRTOS/Source/event_groups.c" 1
 481 009e BFF34F8F 		dsb
ARM GAS  /tmp/ccWkqZxZ.s 			page 27


 482              	@ 0 "" 2
 403:Middlewares/Third_Party/FreeRTOS/Source/event_groups.c **** 		}
 483              		.loc 1 403 4 view .LVU137
 484              	@ 403 "Middlewares/Third_Party/FreeRTOS/Source/event_groups.c" 1
 485 00a2 BFF36F8F 		isb
 486              	@ 0 "" 2
 403:Middlewares/Third_Party/FreeRTOS/Source/event_groups.c **** 		}
 487              		.loc 1 403 26 view .LVU138
 488              		.thumb
 489              		.syntax unified
 490              	.L31:
 407:Middlewares/Third_Party/FreeRTOS/Source/event_groups.c **** 		}
 491              		.loc 1 407 28 view .LVU139
 414:Middlewares/Third_Party/FreeRTOS/Source/event_groups.c **** 
 492              		.loc 1 414 3 view .LVU140
 414:Middlewares/Third_Party/FreeRTOS/Source/event_groups.c **** 
 493              		.loc 1 414 14 is_stmt 0 view .LVU141
 494 00a6 FFF7FEFF 		bl	uxTaskResetEventItemValue
 495              	.LVL34:
 414:Middlewares/Third_Party/FreeRTOS/Source/event_groups.c **** 
 496              		.loc 1 414 14 view .LVU142
 497 00aa 8046     		mov	r8, r0
 498              	.LVL35:
 416:Middlewares/Third_Party/FreeRTOS/Source/event_groups.c **** 		{
 499              		.loc 1 416 3 is_stmt 1 view .LVU143
 416:Middlewares/Third_Party/FreeRTOS/Source/event_groups.c **** 		{
 500              		.loc 1 416 5 is_stmt 0 view .LVU144
 501 00ac 10F0007F 		tst	r0, #33554432
 502 00b0 1AD0     		beq	.L39
 503              	.LVL36:
 504              	.L32:
 447:Middlewares/Third_Party/FreeRTOS/Source/event_groups.c **** 
 505              		.loc 1 447 3 is_stmt 1 view .LVU145
 450:Middlewares/Third_Party/FreeRTOS/Source/event_groups.c **** 	}
 506              		.loc 1 450 3 view .LVU146
 450:Middlewares/Third_Party/FreeRTOS/Source/event_groups.c **** 	}
 507              		.loc 1 450 12 is_stmt 0 view .LVU147
 508 00b2 28F07F48 		bic	r8, r8, #-16777216
 509              	.LVL37:
 452:Middlewares/Third_Party/FreeRTOS/Source/event_groups.c **** 
 510              		.loc 1 452 2 is_stmt 1 view .LVU148
 455:Middlewares/Third_Party/FreeRTOS/Source/event_groups.c **** 
 511              		.loc 1 455 2 view .LVU149
 457:Middlewares/Third_Party/FreeRTOS/Source/event_groups.c **** }
 512              		.loc 1 457 2 view .LVU150
 513              	.L17:
 458:Middlewares/Third_Party/FreeRTOS/Source/event_groups.c **** /*-----------------------------------------------------------*/
 514              		.loc 1 458 1 is_stmt 0 view .LVU151
 515 00b6 4046     		mov	r0, r8
 516 00b8 BDE8F081 		pop	{r4, r5, r6, r7, r8, pc}
 517              	.LVL38:
 518              	.L26:
 519              	.LBB51:
 353:Middlewares/Third_Party/FreeRTOS/Source/event_groups.c **** 		{
 520              		.loc 1 353 8 is_stmt 1 view .LVU152
 353:Middlewares/Third_Party/FreeRTOS/Source/event_groups.c **** 		{
 521              		.loc 1 353 10 is_stmt 0 view .LVU153
ARM GAS  /tmp/ccWkqZxZ.s 			page 28


 522 00bc 069B     		ldr	r3, [sp, #24]
 523 00be 002B     		cmp	r3, #0
 524 00c0 E2D0     		beq	.L27
 366:Middlewares/Third_Party/FreeRTOS/Source/event_groups.c **** 			{
 525              		.loc 1 366 4 is_stmt 1 view .LVU154
 366:Middlewares/Third_Party/FreeRTOS/Source/event_groups.c **** 			{
 526              		.loc 1 366 6 is_stmt 0 view .LVU155
 527 00c2 5EB9     		cbnz	r6, .L35
 528              	.LBE51:
 314:Middlewares/Third_Party/FreeRTOS/Source/event_groups.c **** BaseType_t xWaitConditionMet, xAlreadyYielded;
 529              		.loc 1 314 23 view .LVU156
 530 00c4 0021     		movs	r1, #0
 531              	.L28:
 532              	.LVL39:
 533              	.LBB52:
 372:Middlewares/Third_Party/FreeRTOS/Source/event_groups.c **** 			}
 534              		.loc 1 372 29 is_stmt 1 view .LVU157
 375:Middlewares/Third_Party/FreeRTOS/Source/event_groups.c **** 			{
 535              		.loc 1 375 4 view .LVU158
 375:Middlewares/Third_Party/FreeRTOS/Source/event_groups.c **** 			{
 536              		.loc 1 375 6 is_stmt 0 view .LVU159
 537 00c6 0DB1     		cbz	r5, .L29
 377:Middlewares/Third_Party/FreeRTOS/Source/event_groups.c **** 			}
 538              		.loc 1 377 5 is_stmt 1 view .LVU160
 377:Middlewares/Third_Party/FreeRTOS/Source/event_groups.c **** 			}
 539              		.loc 1 377 19 is_stmt 0 view .LVU161
 540 00c8 41F08061 		orr	r1, r1, #67108864
 541              	.LVL40:
 542              	.L29:
 381:Middlewares/Third_Party/FreeRTOS/Source/event_groups.c **** 			}
 543              		.loc 1 381 29 is_stmt 1 view .LVU162
 387:Middlewares/Third_Party/FreeRTOS/Source/event_groups.c **** 
 544              		.loc 1 387 4 view .LVU163
 545 00cc 069A     		ldr	r2, [sp, #24]
 546 00ce 2143     		orrs	r1, r1, r4
 547              	.LVL41:
 387:Middlewares/Third_Party/FreeRTOS/Source/event_groups.c **** 
 548              		.loc 1 387 4 is_stmt 0 view .LVU164
 549 00d0 381D     		adds	r0, r7, #4
 550              	.LVL42:
 387:Middlewares/Third_Party/FreeRTOS/Source/event_groups.c **** 
 551              		.loc 1 387 4 view .LVU165
 552 00d2 FFF7FEFF 		bl	vTaskPlaceOnUnorderedEventList
 553              	.LVL43:
 392:Middlewares/Third_Party/FreeRTOS/Source/event_groups.c **** 
 554              		.loc 1 392 4 is_stmt 1 view .LVU166
 392:Middlewares/Third_Party/FreeRTOS/Source/event_groups.c **** 
 555              		.loc 1 392 13 is_stmt 0 view .LVU167
 556 00d6 4FF00008 		mov	r8, #0
 557              	.LVL44:
 392:Middlewares/Third_Party/FreeRTOS/Source/event_groups.c **** 
 558              		.loc 1 392 13 view .LVU168
 559 00da D5E7     		b	.L27
 560              	.LVL45:
 561              	.L35:
 368:Middlewares/Third_Party/FreeRTOS/Source/event_groups.c **** 			}
 562              		.loc 1 368 19 view .LVU169
ARM GAS  /tmp/ccWkqZxZ.s 			page 29


 563 00dc 4FF08071 		mov	r1, #16777216
 564 00e0 F1E7     		b	.L28
 565              	.LVL46:
 566              	.L34:
 341:Middlewares/Third_Party/FreeRTOS/Source/event_groups.c **** 
 567              		.loc 1 341 17 view .LVU170
 568 00e2 0023     		movs	r3, #0
 569 00e4 0693     		str	r3, [sp, #24]
 570 00e6 CFE7     		b	.L27
 571              	.LVL47:
 572              	.L39:
 341:Middlewares/Third_Party/FreeRTOS/Source/event_groups.c **** 
 573              		.loc 1 341 17 view .LVU171
 574              	.LBE52:
 418:Middlewares/Third_Party/FreeRTOS/Source/event_groups.c **** 			{
 575              		.loc 1 418 4 is_stmt 1 view .LVU172
 576 00e8 FFF7FEFF 		bl	vPortEnterCritical
 577              	.LVL48:
 421:Middlewares/Third_Party/FreeRTOS/Source/event_groups.c **** 
 578              		.loc 1 421 5 view .LVU173
 421:Middlewares/Third_Party/FreeRTOS/Source/event_groups.c **** 
 579              		.loc 1 421 14 is_stmt 0 view .LVU174
 580 00ec D7F80080 		ldr	r8, [r7]
 581              	.LVL49:
 425:Middlewares/Third_Party/FreeRTOS/Source/event_groups.c **** 				{
 582              		.loc 1 425 5 is_stmt 1 view .LVU175
 425:Middlewares/Third_Party/FreeRTOS/Source/event_groups.c **** 				{
 583              		.loc 1 425 9 is_stmt 0 view .LVU176
 584 00f0 2A46     		mov	r2, r5
 585 00f2 2146     		mov	r1, r4
 586 00f4 4046     		mov	r0, r8
 587 00f6 FFF7FEFF 		bl	prvTestWaitCondition
 588              	.LVL50:
 425:Middlewares/Third_Party/FreeRTOS/Source/event_groups.c **** 				{
 589              		.loc 1 425 7 view .LVU177
 590 00fa 18B1     		cbz	r0, .L33
 427:Middlewares/Third_Party/FreeRTOS/Source/event_groups.c **** 					{
 591              		.loc 1 427 6 is_stmt 1 view .LVU178
 427:Middlewares/Third_Party/FreeRTOS/Source/event_groups.c **** 					{
 592              		.loc 1 427 8 is_stmt 0 view .LVU179
 593 00fc 16B1     		cbz	r6, .L33
 429:Middlewares/Third_Party/FreeRTOS/Source/event_groups.c **** 					}
 594              		.loc 1 429 7 is_stmt 1 view .LVU180
 429:Middlewares/Third_Party/FreeRTOS/Source/event_groups.c **** 					}
 595              		.loc 1 429 32 is_stmt 0 view .LVU181
 596 00fe 28EA0404 		bic	r4, r8, r4
 597              	.LVL51:
 429:Middlewares/Third_Party/FreeRTOS/Source/event_groups.c **** 					}
 598              		.loc 1 429 32 view .LVU182
 599 0102 3C60     		str	r4, [r7]
 600              	.L33:
 438:Middlewares/Third_Party/FreeRTOS/Source/event_groups.c **** 				}
 601              		.loc 1 438 30 is_stmt 1 view .LVU183
 440:Middlewares/Third_Party/FreeRTOS/Source/event_groups.c **** 			}
 602              		.loc 1 440 5 view .LVU184
 603              	.LVL52:
 442:Middlewares/Third_Party/FreeRTOS/Source/event_groups.c **** 		}
ARM GAS  /tmp/ccWkqZxZ.s 			page 30


 604              		.loc 1 442 4 view .LVU185
 605 0104 FFF7FEFF 		bl	vPortExitCritical
 606              	.LVL53:
 607 0108 D3E7     		b	.L32
 608              		.cfi_endproc
 609              	.LFE7:
 611              		.section	.text.xEventGroupClearBits,"ax",%progbits
 612              		.align	1
 613              		.global	xEventGroupClearBits
 614              		.syntax unified
 615              		.thumb
 616              		.thumb_func
 618              	xEventGroupClearBits:
 619              	.LVL54:
 620              	.LFB8:
 462:Middlewares/Third_Party/FreeRTOS/Source/event_groups.c **** EventGroup_t *pxEventBits = xEventGroup;
 621              		.loc 1 462 1 view -0
 622              		.cfi_startproc
 623              		@ args = 0, pretend = 0, frame = 0
 624              		@ frame_needed = 0, uses_anonymous_args = 0
 463:Middlewares/Third_Party/FreeRTOS/Source/event_groups.c **** EventBits_t uxReturn;
 625              		.loc 1 463 1 view .LVU187
 464:Middlewares/Third_Party/FreeRTOS/Source/event_groups.c **** 
 626              		.loc 1 464 1 view .LVU188
 468:Middlewares/Third_Party/FreeRTOS/Source/event_groups.c **** 	configASSERT( ( uxBitsToClear & eventEVENT_BITS_CONTROL_BYTES ) == 0 );
 627              		.loc 1 468 2 view .LVU189
 628 0000 70B1     		cbz	r0, .L47
 462:Middlewares/Third_Party/FreeRTOS/Source/event_groups.c **** EventGroup_t *pxEventBits = xEventGroup;
 629              		.loc 1 462 1 is_stmt 0 discriminator 2 view .LVU190
 630 0002 70B5     		push	{r4, r5, r6, lr}
 631              		.cfi_def_cfa_offset 16
 632              		.cfi_offset 4, -16
 633              		.cfi_offset 5, -12
 634              		.cfi_offset 6, -8
 635              		.cfi_offset 14, -4
 636 0004 0C46     		mov	r4, r1
 637 0006 0546     		mov	r5, r0
 468:Middlewares/Third_Party/FreeRTOS/Source/event_groups.c **** 	configASSERT( ( uxBitsToClear & eventEVENT_BITS_CONTROL_BYTES ) == 0 );
 638              		.loc 1 468 29 is_stmt 1 discriminator 2 view .LVU191
 469:Middlewares/Third_Party/FreeRTOS/Source/event_groups.c **** 
 639              		.loc 1 469 2 discriminator 2 view .LVU192
 640 0008 B1F1807F 		cmp	r1, #16777216
 641 000c 11D3     		bcc	.L43
 469:Middlewares/Third_Party/FreeRTOS/Source/event_groups.c **** 
 642              		.loc 1 469 2 view .LVU193
 643              	.LBB53:
 644              	.LBI53:
 191:Middlewares/Third_Party/FreeRTOS/Source/portable/GCC/ARM_CM4F/portmacro.h **** {
 645              		.loc 2 191 30 view .LVU194
 646              	.LBB54:
 193:Middlewares/Third_Party/FreeRTOS/Source/portable/GCC/ARM_CM4F/portmacro.h **** 
 647              		.loc 2 193 1 view .LVU195
 648              		.loc 2 195 2 view .LVU196
 649              		.syntax unified
 650              	@ 195 "Middlewares/Third_Party/FreeRTOS/Source/portable/GCC/ARM_CM4F/portmacro.h" 1
 651 000e 4FF05003 			mov r3, #80												
 652 0012 83F31188 		msr basepri, r3											
ARM GAS  /tmp/ccWkqZxZ.s 			page 31


 653 0016 BFF36F8F 		isb														
 654 001a BFF34F8F 		dsb														
 655              	
 656              	@ 0 "" 2
 657              	.LVL55:
 658              		.thumb
 659              		.syntax unified
 660              	.L44:
 661              		.loc 2 195 2 is_stmt 0 view .LVU197
 662              	.LBE54:
 663              	.LBE53:
 469:Middlewares/Third_Party/FreeRTOS/Source/event_groups.c **** 
 664              		.loc 1 469 2 is_stmt 1 discriminator 2 view .LVU198
 469:Middlewares/Third_Party/FreeRTOS/Source/event_groups.c **** 
 665              		.loc 1 469 2 discriminator 2 view .LVU199
 666 001e FEE7     		b	.L44
 667              	.L47:
 668              		.cfi_def_cfa_offset 0
 669              		.cfi_restore 4
 670              		.cfi_restore 5
 671              		.cfi_restore 6
 672              		.cfi_restore 14
 468:Middlewares/Third_Party/FreeRTOS/Source/event_groups.c **** 	configASSERT( ( uxBitsToClear & eventEVENT_BITS_CONTROL_BYTES ) == 0 );
 673              		.loc 1 468 2 view .LVU200
 674              	.LBB55:
 675              	.LBI55:
 191:Middlewares/Third_Party/FreeRTOS/Source/portable/GCC/ARM_CM4F/portmacro.h **** {
 676              		.loc 2 191 30 view .LVU201
 677              	.LBB56:
 193:Middlewares/Third_Party/FreeRTOS/Source/portable/GCC/ARM_CM4F/portmacro.h **** 
 678              		.loc 2 193 1 view .LVU202
 679              		.loc 2 195 2 view .LVU203
 680              		.syntax unified
 681              	@ 195 "Middlewares/Third_Party/FreeRTOS/Source/portable/GCC/ARM_CM4F/portmacro.h" 1
 682 0020 4FF05003 			mov r3, #80												
 683 0024 83F31188 		msr basepri, r3											
 684 0028 BFF36F8F 		isb														
 685 002c BFF34F8F 		dsb														
 686              	
 687              	@ 0 "" 2
 688              	.LVL56:
 689              		.thumb
 690              		.syntax unified
 691              	.L42:
 692              		.loc 2 195 2 is_stmt 0 view .LVU204
 693              	.LBE56:
 694              	.LBE55:
 468:Middlewares/Third_Party/FreeRTOS/Source/event_groups.c **** 	configASSERT( ( uxBitsToClear & eventEVENT_BITS_CONTROL_BYTES ) == 0 );
 695              		.loc 1 468 2 is_stmt 1 discriminator 1 view .LVU205
 468:Middlewares/Third_Party/FreeRTOS/Source/event_groups.c **** 	configASSERT( ( uxBitsToClear & eventEVENT_BITS_CONTROL_BYTES ) == 0 );
 696              		.loc 1 468 2 discriminator 1 view .LVU206
 697 0030 FEE7     		b	.L42
 698              	.L43:
 699              		.cfi_def_cfa_offset 16
 700              		.cfi_offset 4, -16
 701              		.cfi_offset 5, -12
 702              		.cfi_offset 6, -8
ARM GAS  /tmp/ccWkqZxZ.s 			page 32


 703              		.cfi_offset 14, -4
 469:Middlewares/Third_Party/FreeRTOS/Source/event_groups.c **** 
 704              		.loc 1 469 72 discriminator 2 view .LVU207
 471:Middlewares/Third_Party/FreeRTOS/Source/event_groups.c **** 	{
 705              		.loc 1 471 2 discriminator 2 view .LVU208
 706 0032 FFF7FEFF 		bl	vPortEnterCritical
 707              	.LVL57:
 473:Middlewares/Third_Party/FreeRTOS/Source/event_groups.c **** 
 708              		.loc 1 473 60 discriminator 2 view .LVU209
 477:Middlewares/Third_Party/FreeRTOS/Source/event_groups.c **** 
 709              		.loc 1 477 3 discriminator 2 view .LVU210
 477:Middlewares/Third_Party/FreeRTOS/Source/event_groups.c **** 
 710              		.loc 1 477 12 is_stmt 0 discriminator 2 view .LVU211
 711 0036 2E68     		ldr	r6, [r5]
 712              	.LVL58:
 480:Middlewares/Third_Party/FreeRTOS/Source/event_groups.c **** 	}
 713              		.loc 1 480 3 is_stmt 1 discriminator 2 view .LVU212
 480:Middlewares/Third_Party/FreeRTOS/Source/event_groups.c **** 	}
 714              		.loc 1 480 28 is_stmt 0 discriminator 2 view .LVU213
 715 0038 26EA0404 		bic	r4, r6, r4
 716              	.LVL59:
 480:Middlewares/Third_Party/FreeRTOS/Source/event_groups.c **** 	}
 717              		.loc 1 480 28 discriminator 2 view .LVU214
 718 003c 2C60     		str	r4, [r5]
 482:Middlewares/Third_Party/FreeRTOS/Source/event_groups.c **** 
 719              		.loc 1 482 2 is_stmt 1 discriminator 2 view .LVU215
 720 003e FFF7FEFF 		bl	vPortExitCritical
 721              	.LVL60:
 484:Middlewares/Third_Party/FreeRTOS/Source/event_groups.c **** }
 722              		.loc 1 484 2 discriminator 2 view .LVU216
 485:Middlewares/Third_Party/FreeRTOS/Source/event_groups.c **** /*-----------------------------------------------------------*/
 723              		.loc 1 485 1 is_stmt 0 discriminator 2 view .LVU217
 724 0042 3046     		mov	r0, r6
 725 0044 70BD     		pop	{r4, r5, r6, pc}
 485:Middlewares/Third_Party/FreeRTOS/Source/event_groups.c **** /*-----------------------------------------------------------*/
 726              		.loc 1 485 1 discriminator 2 view .LVU218
 727              		.cfi_endproc
 728              	.LFE8:
 730              		.section	.text.vEventGroupClearBitsCallback,"ax",%progbits
 731              		.align	1
 732              		.global	vEventGroupClearBitsCallback
 733              		.syntax unified
 734              		.thumb
 735              		.thumb_func
 737              	vEventGroupClearBitsCallback:
 738              	.LVL61:
 739              	.LFB14:
 666:Middlewares/Third_Party/FreeRTOS/Source/event_groups.c **** 	( void ) xEventGroupClearBits( pvEventGroup, ( EventBits_t ) ulBitsToClear ); /*lint !e9079 Can't 
 740              		.loc 1 666 1 is_stmt 1 view -0
 741              		.cfi_startproc
 742              		@ args = 0, pretend = 0, frame = 0
 743              		@ frame_needed = 0, uses_anonymous_args = 0
 666:Middlewares/Third_Party/FreeRTOS/Source/event_groups.c **** 	( void ) xEventGroupClearBits( pvEventGroup, ( EventBits_t ) ulBitsToClear ); /*lint !e9079 Can't 
 744              		.loc 1 666 1 is_stmt 0 view .LVU220
 745 0000 08B5     		push	{r3, lr}
 746              		.cfi_def_cfa_offset 8
 747              		.cfi_offset 3, -8
ARM GAS  /tmp/ccWkqZxZ.s 			page 33


 748              		.cfi_offset 14, -4
 667:Middlewares/Third_Party/FreeRTOS/Source/event_groups.c **** }
 749              		.loc 1 667 2 is_stmt 1 view .LVU221
 667:Middlewares/Third_Party/FreeRTOS/Source/event_groups.c **** }
 750              		.loc 1 667 11 is_stmt 0 view .LVU222
 751 0002 FFF7FEFF 		bl	xEventGroupClearBits
 752              	.LVL62:
 668:Middlewares/Third_Party/FreeRTOS/Source/event_groups.c **** /*-----------------------------------------------------------*/
 753              		.loc 1 668 1 view .LVU223
 754 0006 08BD     		pop	{r3, pc}
 755              		.cfi_endproc
 756              	.LFE14:
 758              		.section	.text.xEventGroupClearBitsFromISR,"ax",%progbits
 759              		.align	1
 760              		.global	xEventGroupClearBitsFromISR
 761              		.syntax unified
 762              		.thumb
 763              		.thumb_func
 765              	xEventGroupClearBitsFromISR:
 766              	.LVL63:
 767              	.LFB9:
 491:Middlewares/Third_Party/FreeRTOS/Source/event_groups.c **** 		BaseType_t xReturn;
 768              		.loc 1 491 2 is_stmt 1 view -0
 769              		.cfi_startproc
 770              		@ args = 0, pretend = 0, frame = 0
 771              		@ frame_needed = 0, uses_anonymous_args = 0
 491:Middlewares/Third_Party/FreeRTOS/Source/event_groups.c **** 		BaseType_t xReturn;
 772              		.loc 1 491 2 is_stmt 0 view .LVU225
 773 0000 08B5     		push	{r3, lr}
 774              		.cfi_def_cfa_offset 8
 775              		.cfi_offset 3, -8
 776              		.cfi_offset 14, -4
 777 0002 0A46     		mov	r2, r1
 492:Middlewares/Third_Party/FreeRTOS/Source/event_groups.c **** 
 778              		.loc 1 492 3 is_stmt 1 view .LVU226
 494:Middlewares/Third_Party/FreeRTOS/Source/event_groups.c **** 		xReturn = xTimerPendFunctionCallFromISR( vEventGroupClearBitsCallback, ( void * ) xEventGroup, ( 
 779              		.loc 1 494 69 view .LVU227
 495:Middlewares/Third_Party/FreeRTOS/Source/event_groups.c **** 
 780              		.loc 1 495 3 view .LVU228
 495:Middlewares/Third_Party/FreeRTOS/Source/event_groups.c **** 
 781              		.loc 1 495 13 is_stmt 0 view .LVU229
 782 0004 0023     		movs	r3, #0
 783 0006 0146     		mov	r1, r0
 784              	.LVL64:
 495:Middlewares/Third_Party/FreeRTOS/Source/event_groups.c **** 
 785              		.loc 1 495 13 view .LVU230
 786 0008 0148     		ldr	r0, .L52
 787              	.LVL65:
 495:Middlewares/Third_Party/FreeRTOS/Source/event_groups.c **** 
 788              		.loc 1 495 13 view .LVU231
 789 000a FFF7FEFF 		bl	xTimerPendFunctionCallFromISR
 790              	.LVL66:
 497:Middlewares/Third_Party/FreeRTOS/Source/event_groups.c **** 	}
 791              		.loc 1 497 3 is_stmt 1 view .LVU232
 498:Middlewares/Third_Party/FreeRTOS/Source/event_groups.c **** 
 792              		.loc 1 498 2 is_stmt 0 view .LVU233
 793 000e 08BD     		pop	{r3, pc}
ARM GAS  /tmp/ccWkqZxZ.s 			page 34


 794              	.L53:
 795              		.align	2
 796              	.L52:
 797 0010 00000000 		.word	vEventGroupClearBitsCallback
 798              		.cfi_endproc
 799              	.LFE9:
 801              		.section	.text.xEventGroupGetBitsFromISR,"ax",%progbits
 802              		.align	1
 803              		.global	xEventGroupGetBitsFromISR
 804              		.syntax unified
 805              		.thumb
 806              		.thumb_func
 808              	xEventGroupGetBitsFromISR:
 809              	.LVL67:
 810              	.LFB10:
 504:Middlewares/Third_Party/FreeRTOS/Source/event_groups.c **** UBaseType_t uxSavedInterruptStatus;
 811              		.loc 1 504 1 is_stmt 1 view -0
 812              		.cfi_startproc
 813              		@ args = 0, pretend = 0, frame = 0
 814              		@ frame_needed = 0, uses_anonymous_args = 0
 815              		@ link register save eliminated.
 505:Middlewares/Third_Party/FreeRTOS/Source/event_groups.c **** EventGroup_t const * const pxEventBits = xEventGroup;
 816              		.loc 1 505 1 view .LVU235
 506:Middlewares/Third_Party/FreeRTOS/Source/event_groups.c **** EventBits_t uxReturn;
 817              		.loc 1 506 1 view .LVU236
 507:Middlewares/Third_Party/FreeRTOS/Source/event_groups.c **** 
 818              		.loc 1 507 1 view .LVU237
 509:Middlewares/Third_Party/FreeRTOS/Source/event_groups.c **** 	{
 819              		.loc 1 509 2 view .LVU238
 820              	.LBB57:
 821              	.LBI57:
 196:Middlewares/Third_Party/FreeRTOS/Source/portable/GCC/ARM_CM4F/portmacro.h **** 	(
 197:Middlewares/Third_Party/FreeRTOS/Source/portable/GCC/ARM_CM4F/portmacro.h **** 		"	mov %0, %1												\n"	\
 198:Middlewares/Third_Party/FreeRTOS/Source/portable/GCC/ARM_CM4F/portmacro.h **** 		"	msr basepri, %0											\n" \
 199:Middlewares/Third_Party/FreeRTOS/Source/portable/GCC/ARM_CM4F/portmacro.h **** 		"	isb														\n" \
 200:Middlewares/Third_Party/FreeRTOS/Source/portable/GCC/ARM_CM4F/portmacro.h **** 		"	dsb														\n" \
 201:Middlewares/Third_Party/FreeRTOS/Source/portable/GCC/ARM_CM4F/portmacro.h **** 		:"=r" (ulNewBASEPRI) : "i" ( configMAX_SYSCALL_INTERRUPT_PRIORITY ) : "memory"
 202:Middlewares/Third_Party/FreeRTOS/Source/portable/GCC/ARM_CM4F/portmacro.h **** 	);
 203:Middlewares/Third_Party/FreeRTOS/Source/portable/GCC/ARM_CM4F/portmacro.h **** }
 204:Middlewares/Third_Party/FreeRTOS/Source/portable/GCC/ARM_CM4F/portmacro.h **** 
 205:Middlewares/Third_Party/FreeRTOS/Source/portable/GCC/ARM_CM4F/portmacro.h **** /*-----------------------------------------------------------*/
 206:Middlewares/Third_Party/FreeRTOS/Source/portable/GCC/ARM_CM4F/portmacro.h **** 
 207:Middlewares/Third_Party/FreeRTOS/Source/portable/GCC/ARM_CM4F/portmacro.h **** portFORCE_INLINE static uint32_t ulPortRaiseBASEPRI( void )
 822              		.loc 2 207 34 view .LVU239
 823              	.LBB58:
 208:Middlewares/Third_Party/FreeRTOS/Source/portable/GCC/ARM_CM4F/portmacro.h **** {
 209:Middlewares/Third_Party/FreeRTOS/Source/portable/GCC/ARM_CM4F/portmacro.h **** uint32_t ulOriginalBASEPRI, ulNewBASEPRI;
 824              		.loc 2 209 1 view .LVU240
 210:Middlewares/Third_Party/FreeRTOS/Source/portable/GCC/ARM_CM4F/portmacro.h **** 
 211:Middlewares/Third_Party/FreeRTOS/Source/portable/GCC/ARM_CM4F/portmacro.h **** 	__asm volatile
 825              		.loc 2 211 2 view .LVU241
 826              		.syntax unified
 827              	@ 211 "Middlewares/Third_Party/FreeRTOS/Source/portable/GCC/ARM_CM4F/portmacro.h" 1
 828 0000 EFF31183 			mrs r3, basepri											
 829 0004 4FF05002 		mov r2, #80												
 830 0008 82F31188 		msr basepri, r2											
 831 000c BFF36F8F 		isb														
ARM GAS  /tmp/ccWkqZxZ.s 			page 35


 832 0010 BFF34F8F 		dsb														
 833              	
 834              	@ 0 "" 2
 835              	.LVL68:
 212:Middlewares/Third_Party/FreeRTOS/Source/portable/GCC/ARM_CM4F/portmacro.h **** 	(
 213:Middlewares/Third_Party/FreeRTOS/Source/portable/GCC/ARM_CM4F/portmacro.h **** 		"	mrs %0, basepri											\n" \
 214:Middlewares/Third_Party/FreeRTOS/Source/portable/GCC/ARM_CM4F/portmacro.h **** 		"	mov %1, %2												\n"	\
 215:Middlewares/Third_Party/FreeRTOS/Source/portable/GCC/ARM_CM4F/portmacro.h **** 		"	msr basepri, %1											\n" \
 216:Middlewares/Third_Party/FreeRTOS/Source/portable/GCC/ARM_CM4F/portmacro.h **** 		"	isb														\n" \
 217:Middlewares/Third_Party/FreeRTOS/Source/portable/GCC/ARM_CM4F/portmacro.h **** 		"	dsb														\n" \
 218:Middlewares/Third_Party/FreeRTOS/Source/portable/GCC/ARM_CM4F/portmacro.h **** 		:"=r" (ulOriginalBASEPRI), "=r" (ulNewBASEPRI) : "i" ( configMAX_SYSCALL_INTERRUPT_PRIORITY ) : "
 219:Middlewares/Third_Party/FreeRTOS/Source/portable/GCC/ARM_CM4F/portmacro.h **** 	);
 220:Middlewares/Third_Party/FreeRTOS/Source/portable/GCC/ARM_CM4F/portmacro.h **** 
 221:Middlewares/Third_Party/FreeRTOS/Source/portable/GCC/ARM_CM4F/portmacro.h **** 	/* This return will not be reached but is necessary to prevent compiler
 222:Middlewares/Third_Party/FreeRTOS/Source/portable/GCC/ARM_CM4F/portmacro.h **** 	warnings. */
 223:Middlewares/Third_Party/FreeRTOS/Source/portable/GCC/ARM_CM4F/portmacro.h **** 	return ulOriginalBASEPRI;
 836              		.loc 2 223 2 view .LVU242
 837              		.loc 2 223 2 is_stmt 0 view .LVU243
 838              		.thumb
 839              		.syntax unified
 840              	.LBE58:
 841              	.LBE57:
 511:Middlewares/Third_Party/FreeRTOS/Source/event_groups.c **** 	}
 842              		.loc 1 511 3 is_stmt 1 view .LVU244
 511:Middlewares/Third_Party/FreeRTOS/Source/event_groups.c **** 	}
 843              		.loc 1 511 12 is_stmt 0 view .LVU245
 844 0014 0068     		ldr	r0, [r0]
 845              	.LVL69:
 513:Middlewares/Third_Party/FreeRTOS/Source/event_groups.c **** 
 846              		.loc 1 513 2 is_stmt 1 view .LVU246
 847              	.LBB59:
 848              	.LBI59:
 224:Middlewares/Third_Party/FreeRTOS/Source/portable/GCC/ARM_CM4F/portmacro.h **** }
 225:Middlewares/Third_Party/FreeRTOS/Source/portable/GCC/ARM_CM4F/portmacro.h **** /*-----------------------------------------------------------*/
 226:Middlewares/Third_Party/FreeRTOS/Source/portable/GCC/ARM_CM4F/portmacro.h **** 
 227:Middlewares/Third_Party/FreeRTOS/Source/portable/GCC/ARM_CM4F/portmacro.h **** portFORCE_INLINE static void vPortSetBASEPRI( uint32_t ulNewMaskValue )
 849              		.loc 2 227 30 view .LVU247
 850              	.LBB60:
 228:Middlewares/Third_Party/FreeRTOS/Source/portable/GCC/ARM_CM4F/portmacro.h **** {
 229:Middlewares/Third_Party/FreeRTOS/Source/portable/GCC/ARM_CM4F/portmacro.h **** 	__asm volatile
 851              		.loc 2 229 2 view .LVU248
 852              		.syntax unified
 853              	@ 229 "Middlewares/Third_Party/FreeRTOS/Source/portable/GCC/ARM_CM4F/portmacro.h" 1
 854 0016 83F31188 			msr basepri, r3	
 855              	@ 0 "" 2
 856              	.LVL70:
 857              		.loc 2 229 2 is_stmt 0 view .LVU249
 858              		.thumb
 859              		.syntax unified
 860              	.LBE60:
 861              	.LBE59:
 515:Middlewares/Third_Party/FreeRTOS/Source/event_groups.c **** } /*lint !e818 EventGroupHandle_t is a typedef used in other functions to so can't be pointer to co
 862              		.loc 1 515 2 is_stmt 1 view .LVU250
 516:Middlewares/Third_Party/FreeRTOS/Source/event_groups.c **** /*-----------------------------------------------------------*/
 863              		.loc 1 516 1 is_stmt 0 view .LVU251
 864 001a 7047     		bx	lr
 865              		.cfi_endproc
ARM GAS  /tmp/ccWkqZxZ.s 			page 36


 866              	.LFE10:
 868              		.section	.text.xEventGroupSetBits,"ax",%progbits
 869              		.align	1
 870              		.global	xEventGroupSetBits
 871              		.syntax unified
 872              		.thumb
 873              		.thumb_func
 875              	xEventGroupSetBits:
 876              	.LVL71:
 877              	.LFB11:
 520:Middlewares/Third_Party/FreeRTOS/Source/event_groups.c **** ListItem_t *pxListItem, *pxNext;
 878              		.loc 1 520 1 is_stmt 1 view -0
 879              		.cfi_startproc
 880              		@ args = 0, pretend = 0, frame = 0
 881              		@ frame_needed = 0, uses_anonymous_args = 0
 520:Middlewares/Third_Party/FreeRTOS/Source/event_groups.c **** ListItem_t *pxListItem, *pxNext;
 882              		.loc 1 520 1 is_stmt 0 view .LVU253
 883 0000 F8B5     		push	{r3, r4, r5, r6, r7, lr}
 884              		.cfi_def_cfa_offset 24
 885              		.cfi_offset 3, -24
 886              		.cfi_offset 4, -20
 887              		.cfi_offset 5, -16
 888              		.cfi_offset 6, -12
 889              		.cfi_offset 7, -8
 890              		.cfi_offset 14, -4
 521:Middlewares/Third_Party/FreeRTOS/Source/event_groups.c **** ListItem_t const *pxListEnd;
 891              		.loc 1 521 1 is_stmt 1 view .LVU254
 522:Middlewares/Third_Party/FreeRTOS/Source/event_groups.c **** List_t const * pxList;
 892              		.loc 1 522 1 view .LVU255
 523:Middlewares/Third_Party/FreeRTOS/Source/event_groups.c **** EventBits_t uxBitsToClear = 0, uxBitsWaitedFor, uxControlBits;
 893              		.loc 1 523 1 view .LVU256
 524:Middlewares/Third_Party/FreeRTOS/Source/event_groups.c **** EventGroup_t *pxEventBits = xEventGroup;
 894              		.loc 1 524 1 view .LVU257
 895              	.LVL72:
 525:Middlewares/Third_Party/FreeRTOS/Source/event_groups.c **** BaseType_t xMatchFound = pdFALSE;
 896              		.loc 1 525 1 view .LVU258
 526:Middlewares/Third_Party/FreeRTOS/Source/event_groups.c **** 
 897              		.loc 1 526 1 view .LVU259
 530:Middlewares/Third_Party/FreeRTOS/Source/event_groups.c **** 	configASSERT( ( uxBitsToSet & eventEVENT_BITS_CONTROL_BYTES ) == 0 );
 898              		.loc 1 530 2 view .LVU260
 899 0002 68B1     		cbz	r0, .L67
 900 0004 0D46     		mov	r5, r1
 901 0006 0446     		mov	r4, r0
 530:Middlewares/Third_Party/FreeRTOS/Source/event_groups.c **** 	configASSERT( ( uxBitsToSet & eventEVENT_BITS_CONTROL_BYTES ) == 0 );
 902              		.loc 1 530 29 discriminator 2 view .LVU261
 531:Middlewares/Third_Party/FreeRTOS/Source/event_groups.c **** 
 903              		.loc 1 531 2 discriminator 2 view .LVU262
 904 0008 B1F1807F 		cmp	r1, #16777216
 905 000c 11D3     		bcc	.L58
 531:Middlewares/Third_Party/FreeRTOS/Source/event_groups.c **** 
 906              		.loc 1 531 2 view .LVU263
 907              	.LBB61:
 908              	.LBI61:
 191:Middlewares/Third_Party/FreeRTOS/Source/portable/GCC/ARM_CM4F/portmacro.h **** {
 909              		.loc 2 191 30 view .LVU264
 910              	.LBB62:
 193:Middlewares/Third_Party/FreeRTOS/Source/portable/GCC/ARM_CM4F/portmacro.h **** 
ARM GAS  /tmp/ccWkqZxZ.s 			page 37


 911              		.loc 2 193 1 view .LVU265
 195:Middlewares/Third_Party/FreeRTOS/Source/portable/GCC/ARM_CM4F/portmacro.h **** 	(
 912              		.loc 2 195 2 view .LVU266
 913              		.syntax unified
 914              	@ 195 "Middlewares/Third_Party/FreeRTOS/Source/portable/GCC/ARM_CM4F/portmacro.h" 1
 915 000e 4FF05003 			mov r3, #80												
 916 0012 83F31188 		msr basepri, r3											
 917 0016 BFF36F8F 		isb														
 918 001a BFF34F8F 		dsb														
 919              	
 920              	@ 0 "" 2
 921              	.LVL73:
 922              		.thumb
 923              		.syntax unified
 924              	.L59:
 195:Middlewares/Third_Party/FreeRTOS/Source/portable/GCC/ARM_CM4F/portmacro.h **** 	(
 925              		.loc 2 195 2 is_stmt 0 view .LVU267
 926              	.LBE62:
 927              	.LBE61:
 531:Middlewares/Third_Party/FreeRTOS/Source/event_groups.c **** 
 928              		.loc 1 531 2 is_stmt 1 discriminator 2 view .LVU268
 531:Middlewares/Third_Party/FreeRTOS/Source/event_groups.c **** 
 929              		.loc 1 531 2 discriminator 2 view .LVU269
 930 001e FEE7     		b	.L59
 931              	.L67:
 530:Middlewares/Third_Party/FreeRTOS/Source/event_groups.c **** 	configASSERT( ( uxBitsToSet & eventEVENT_BITS_CONTROL_BYTES ) == 0 );
 932              		.loc 1 530 2 view .LVU270
 933              	.LBB63:
 934              	.LBI63:
 191:Middlewares/Third_Party/FreeRTOS/Source/portable/GCC/ARM_CM4F/portmacro.h **** {
 935              		.loc 2 191 30 view .LVU271
 936              	.LBB64:
 193:Middlewares/Third_Party/FreeRTOS/Source/portable/GCC/ARM_CM4F/portmacro.h **** 
 937              		.loc 2 193 1 view .LVU272
 195:Middlewares/Third_Party/FreeRTOS/Source/portable/GCC/ARM_CM4F/portmacro.h **** 	(
 938              		.loc 2 195 2 view .LVU273
 939              		.syntax unified
 940              	@ 195 "Middlewares/Third_Party/FreeRTOS/Source/portable/GCC/ARM_CM4F/portmacro.h" 1
 941 0020 4FF05003 			mov r3, #80												
 942 0024 83F31188 		msr basepri, r3											
 943 0028 BFF36F8F 		isb														
 944 002c BFF34F8F 		dsb														
 945              	
 946              	@ 0 "" 2
 947              	.LVL74:
 948              		.thumb
 949              		.syntax unified
 950              	.L57:
 195:Middlewares/Third_Party/FreeRTOS/Source/portable/GCC/ARM_CM4F/portmacro.h **** 	(
 951              		.loc 2 195 2 is_stmt 0 view .LVU274
 952              	.LBE64:
 953              	.LBE63:
 530:Middlewares/Third_Party/FreeRTOS/Source/event_groups.c **** 	configASSERT( ( uxBitsToSet & eventEVENT_BITS_CONTROL_BYTES ) == 0 );
 954              		.loc 1 530 2 is_stmt 1 discriminator 1 view .LVU275
 530:Middlewares/Third_Party/FreeRTOS/Source/event_groups.c **** 	configASSERT( ( uxBitsToSet & eventEVENT_BITS_CONTROL_BYTES ) == 0 );
 955              		.loc 1 530 2 discriminator 1 view .LVU276
 956 0030 FEE7     		b	.L57
ARM GAS  /tmp/ccWkqZxZ.s 			page 38


 957              	.L58:
 531:Middlewares/Third_Party/FreeRTOS/Source/event_groups.c **** 
 958              		.loc 1 531 70 discriminator 2 view .LVU277
 533:Middlewares/Third_Party/FreeRTOS/Source/event_groups.c **** 	pxListEnd = listGET_END_MARKER( pxList ); /*lint !e826 !e740 !e9087 The mini list structure is use
 959              		.loc 1 533 2 discriminator 2 view .LVU278
 960              	.LVL75:
 534:Middlewares/Third_Party/FreeRTOS/Source/event_groups.c **** 	vTaskSuspendAll();
 961              		.loc 1 534 2 discriminator 2 view .LVU279
 534:Middlewares/Third_Party/FreeRTOS/Source/event_groups.c **** 	vTaskSuspendAll();
 962              		.loc 1 534 12 is_stmt 0 discriminator 2 view .LVU280
 963 0032 00F10C06 		add	r6, r0, #12
 964              	.LVL76:
 535:Middlewares/Third_Party/FreeRTOS/Source/event_groups.c **** 	{
 965              		.loc 1 535 2 is_stmt 1 discriminator 2 view .LVU281
 966 0036 FFF7FEFF 		bl	vTaskSuspendAll
 967              	.LVL77:
 537:Middlewares/Third_Party/FreeRTOS/Source/event_groups.c **** 
 968              		.loc 1 537 56 discriminator 2 view .LVU282
 539:Middlewares/Third_Party/FreeRTOS/Source/event_groups.c **** 
 969              		.loc 1 539 3 discriminator 2 view .LVU283
 539:Middlewares/Third_Party/FreeRTOS/Source/event_groups.c **** 
 970              		.loc 1 539 14 is_stmt 0 discriminator 2 view .LVU284
 971 003a 2069     		ldr	r0, [r4, #16]
 972              	.LVL78:
 542:Middlewares/Third_Party/FreeRTOS/Source/event_groups.c **** 
 973              		.loc 1 542 3 is_stmt 1 discriminator 2 view .LVU285
 542:Middlewares/Third_Party/FreeRTOS/Source/event_groups.c **** 
 974              		.loc 1 542 14 is_stmt 0 discriminator 2 view .LVU286
 975 003c 2368     		ldr	r3, [r4]
 542:Middlewares/Third_Party/FreeRTOS/Source/event_groups.c **** 
 976              		.loc 1 542 28 discriminator 2 view .LVU287
 977 003e 2B43     		orrs	r3, r3, r5
 978 0040 2360     		str	r3, [r4]
 545:Middlewares/Third_Party/FreeRTOS/Source/event_groups.c **** 		{
 979              		.loc 1 545 3 is_stmt 1 discriminator 2 view .LVU288
 524:Middlewares/Third_Party/FreeRTOS/Source/event_groups.c **** EventGroup_t *pxEventBits = xEventGroup;
 980              		.loc 1 524 13 is_stmt 0 discriminator 2 view .LVU289
 981 0042 0027     		movs	r7, #0
 545:Middlewares/Third_Party/FreeRTOS/Source/event_groups.c **** 		{
 982              		.loc 1 545 8 discriminator 2 view .LVU290
 983 0044 0AE0     		b	.L60
 984              	.LVL79:
 985              	.L61:
 567:Middlewares/Third_Party/FreeRTOS/Source/event_groups.c **** 			{
 986              		.loc 1 567 9 is_stmt 1 view .LVU291
 567:Middlewares/Third_Party/FreeRTOS/Source/event_groups.c **** 			{
 987              		.loc 1 567 44 is_stmt 0 view .LVU292
 988 0046 2168     		ldr	r1, [r4]
 567:Middlewares/Third_Party/FreeRTOS/Source/event_groups.c **** 			{
 989              		.loc 1 567 11 view .LVU293
 990 0048 32EA0101 		bics	r1, r2, r1
 991 004c 05D1     		bne	.L63
 567:Middlewares/Third_Party/FreeRTOS/Source/event_groups.c **** 			{
 992              		.loc 1 567 11 view .LVU294
 993 004e 11E0     		b	.L62
 994              	.LVL80:
 995              	.L64:
ARM GAS  /tmp/ccWkqZxZ.s 			page 39


 586:Middlewares/Third_Party/FreeRTOS/Source/event_groups.c **** 				}
 996              		.loc 1 586 30 is_stmt 1 view .LVU295
 594:Middlewares/Third_Party/FreeRTOS/Source/event_groups.c **** 			}
 997              		.loc 1 594 5 view .LVU296
 594:Middlewares/Third_Party/FreeRTOS/Source/event_groups.c **** 			}
 998              		.loc 1 594 63 is_stmt 0 view .LVU297
 999 0050 2168     		ldr	r1, [r4]
 594:Middlewares/Third_Party/FreeRTOS/Source/event_groups.c **** 			}
 1000              		.loc 1 594 5 view .LVU298
 1001 0052 41F00071 		orr	r1, r1, #33554432
 1002 0056 FFF7FEFF 		bl	vTaskRemoveFromUnorderedEventList
 1003              	.LVL81:
 1004              	.L63:
 520:Middlewares/Third_Party/FreeRTOS/Source/event_groups.c **** ListItem_t *pxListItem, *pxNext;
 1005              		.loc 1 520 1 view .LVU299
 1006 005a 2846     		mov	r0, r5
 1007              	.LVL82:
 1008              	.L60:
 545:Middlewares/Third_Party/FreeRTOS/Source/event_groups.c **** 		{
 1009              		.loc 1 545 21 is_stmt 1 view .LVU300
 1010 005c B042     		cmp	r0, r6
 1011 005e 0ED0     		beq	.L68
 547:Middlewares/Third_Party/FreeRTOS/Source/event_groups.c **** 			uxBitsWaitedFor = listGET_LIST_ITEM_VALUE( pxListItem );
 1012              		.loc 1 547 4 view .LVU301
 547:Middlewares/Third_Party/FreeRTOS/Source/event_groups.c **** 			uxBitsWaitedFor = listGET_LIST_ITEM_VALUE( pxListItem );
 1013              		.loc 1 547 11 is_stmt 0 view .LVU302
 1014 0060 4568     		ldr	r5, [r0, #4]
 1015              	.LVL83:
 548:Middlewares/Third_Party/FreeRTOS/Source/event_groups.c **** 			xMatchFound = pdFALSE;
 1016              		.loc 1 548 4 is_stmt 1 view .LVU303
 548:Middlewares/Third_Party/FreeRTOS/Source/event_groups.c **** 			xMatchFound = pdFALSE;
 1017              		.loc 1 548 20 is_stmt 0 view .LVU304
 1018 0062 0368     		ldr	r3, [r0]
 1019              	.LVL84:
 549:Middlewares/Third_Party/FreeRTOS/Source/event_groups.c **** 
 1020              		.loc 1 549 4 is_stmt 1 view .LVU305
 552:Middlewares/Third_Party/FreeRTOS/Source/event_groups.c **** 			uxBitsWaitedFor &= ~eventEVENT_BITS_CONTROL_BYTES;
 1021              		.loc 1 552 4 view .LVU306
 553:Middlewares/Third_Party/FreeRTOS/Source/event_groups.c **** 
 1022              		.loc 1 553 4 view .LVU307
 553:Middlewares/Third_Party/FreeRTOS/Source/event_groups.c **** 
 1023              		.loc 1 553 20 is_stmt 0 view .LVU308
 1024 0064 23F07F42 		bic	r2, r3, #-16777216
 1025              	.LVL85:
 555:Middlewares/Third_Party/FreeRTOS/Source/event_groups.c **** 			{
 1026              		.loc 1 555 4 is_stmt 1 view .LVU309
 555:Middlewares/Third_Party/FreeRTOS/Source/event_groups.c **** 			{
 1027              		.loc 1 555 6 is_stmt 0 view .LVU310
 1028 0068 13F0806F 		tst	r3, #67108864
 1029 006c EBD1     		bne	.L61
 558:Middlewares/Third_Party/FreeRTOS/Source/event_groups.c **** 				{
 1030              		.loc 1 558 5 is_stmt 1 view .LVU311
 558:Middlewares/Third_Party/FreeRTOS/Source/event_groups.c **** 				{
 1031              		.loc 1 558 40 is_stmt 0 view .LVU312
 1032 006e 2168     		ldr	r1, [r4]
 558:Middlewares/Third_Party/FreeRTOS/Source/event_groups.c **** 				{
 1033              		.loc 1 558 7 view .LVU313
ARM GAS  /tmp/ccWkqZxZ.s 			page 40


 1034 0070 1142     		tst	r1, r2
 1035 0072 F2D0     		beq	.L63
 1036              	.L62:
 1037              	.LVL86:
 580:Middlewares/Third_Party/FreeRTOS/Source/event_groups.c **** 				{
 1038              		.loc 1 580 5 is_stmt 1 view .LVU314
 580:Middlewares/Third_Party/FreeRTOS/Source/event_groups.c **** 				{
 1039              		.loc 1 580 7 is_stmt 0 view .LVU315
 1040 0074 13F0807F 		tst	r3, #16777216
 1041 0078 EAD0     		beq	.L64
 582:Middlewares/Third_Party/FreeRTOS/Source/event_groups.c **** 				}
 1042              		.loc 1 582 6 is_stmt 1 view .LVU316
 582:Middlewares/Third_Party/FreeRTOS/Source/event_groups.c **** 				}
 1043              		.loc 1 582 20 is_stmt 0 view .LVU317
 1044 007a 1743     		orrs	r7, r7, r2
 1045              	.LVL87:
 582:Middlewares/Third_Party/FreeRTOS/Source/event_groups.c **** 				}
 1046              		.loc 1 582 20 view .LVU318
 1047 007c E8E7     		b	.L64
 1048              	.LVL88:
 1049              	.L68:
 605:Middlewares/Third_Party/FreeRTOS/Source/event_groups.c **** 	}
 1050              		.loc 1 605 3 is_stmt 1 view .LVU319
 605:Middlewares/Third_Party/FreeRTOS/Source/event_groups.c **** 	}
 1051              		.loc 1 605 14 is_stmt 0 view .LVU320
 1052 007e 2368     		ldr	r3, [r4]
 605:Middlewares/Third_Party/FreeRTOS/Source/event_groups.c **** 	}
 1053              		.loc 1 605 28 view .LVU321
 1054 0080 23EA0703 		bic	r3, r3, r7
 1055 0084 2360     		str	r3, [r4]
 607:Middlewares/Third_Party/FreeRTOS/Source/event_groups.c **** 
 1056              		.loc 1 607 2 is_stmt 1 view .LVU322
 607:Middlewares/Third_Party/FreeRTOS/Source/event_groups.c **** 
 1057              		.loc 1 607 11 is_stmt 0 view .LVU323
 1058 0086 FFF7FEFF 		bl	xTaskResumeAll
 1059              	.LVL89:
 609:Middlewares/Third_Party/FreeRTOS/Source/event_groups.c **** }
 1060              		.loc 1 609 2 is_stmt 1 view .LVU324
 610:Middlewares/Third_Party/FreeRTOS/Source/event_groups.c **** /*-----------------------------------------------------------*/
 1061              		.loc 1 610 1 is_stmt 0 view .LVU325
 1062 008a 2068     		ldr	r0, [r4]
 1063 008c F8BD     		pop	{r3, r4, r5, r6, r7, pc}
 610:Middlewares/Third_Party/FreeRTOS/Source/event_groups.c **** /*-----------------------------------------------------------*/
 1064              		.loc 1 610 1 view .LVU326
 1065              		.cfi_endproc
 1066              	.LFE11:
 1068              		.section	.text.xEventGroupSync,"ax",%progbits
 1069              		.align	1
 1070              		.global	xEventGroupSync
 1071              		.syntax unified
 1072              		.thumb
 1073              		.thumb_func
 1075              	xEventGroupSync:
 1076              	.LVL90:
 1077              	.LFB6:
 192:Middlewares/Third_Party/FreeRTOS/Source/event_groups.c **** EventBits_t uxOriginalBitValue, uxReturn;
 1078              		.loc 1 192 1 is_stmt 1 view -0
ARM GAS  /tmp/ccWkqZxZ.s 			page 41


 1079              		.cfi_startproc
 1080              		@ args = 0, pretend = 0, frame = 0
 1081              		@ frame_needed = 0, uses_anonymous_args = 0
 193:Middlewares/Third_Party/FreeRTOS/Source/event_groups.c **** EventGroup_t *pxEventBits = xEventGroup;
 1082              		.loc 1 193 1 view .LVU328
 194:Middlewares/Third_Party/FreeRTOS/Source/event_groups.c **** BaseType_t xAlreadyYielded;
 1083              		.loc 1 194 1 view .LVU329
 195:Middlewares/Third_Party/FreeRTOS/Source/event_groups.c **** BaseType_t xTimeoutOccurred = pdFALSE;
 1084              		.loc 1 195 1 view .LVU330
 196:Middlewares/Third_Party/FreeRTOS/Source/event_groups.c **** 
 1085              		.loc 1 196 1 view .LVU331
 198:Middlewares/Third_Party/FreeRTOS/Source/event_groups.c **** 	configASSERT( uxBitsToWaitFor != 0 );
 1086              		.loc 1 198 2 view .LVU332
 1087 0000 B2F1807F 		cmp	r2, #16777216
 1088 0004 08D3     		bcc	.L70
 198:Middlewares/Third_Party/FreeRTOS/Source/event_groups.c **** 	configASSERT( uxBitsToWaitFor != 0 );
 1089              		.loc 1 198 2 view .LVU333
 1090              	.LBB65:
 1091              	.LBI65:
 191:Middlewares/Third_Party/FreeRTOS/Source/portable/GCC/ARM_CM4F/portmacro.h **** {
 1092              		.loc 2 191 30 view .LVU334
 1093              	.LBB66:
 193:Middlewares/Third_Party/FreeRTOS/Source/portable/GCC/ARM_CM4F/portmacro.h **** 
 1094              		.loc 2 193 1 view .LVU335
 195:Middlewares/Third_Party/FreeRTOS/Source/portable/GCC/ARM_CM4F/portmacro.h **** 	(
 1095              		.loc 2 195 2 view .LVU336
 1096              		.syntax unified
 1097              	@ 195 "Middlewares/Third_Party/FreeRTOS/Source/portable/GCC/ARM_CM4F/portmacro.h" 1
 1098 0006 4FF05003 			mov r3, #80												
 1099 000a 83F31188 		msr basepri, r3											
 1100 000e BFF36F8F 		isb														
 1101 0012 BFF34F8F 		dsb														
 1102              	
 1103              	@ 0 "" 2
 1104              	.LVL91:
 1105              		.thumb
 1106              		.syntax unified
 1107              	.L71:
 195:Middlewares/Third_Party/FreeRTOS/Source/portable/GCC/ARM_CM4F/portmacro.h **** 	(
 1108              		.loc 2 195 2 is_stmt 0 view .LVU337
 1109              	.LBE66:
 1110              	.LBE65:
 198:Middlewares/Third_Party/FreeRTOS/Source/event_groups.c **** 	configASSERT( uxBitsToWaitFor != 0 );
 1111              		.loc 1 198 2 is_stmt 1 discriminator 1 view .LVU338
 198:Middlewares/Third_Party/FreeRTOS/Source/event_groups.c **** 	configASSERT( uxBitsToWaitFor != 0 );
 1112              		.loc 1 198 2 discriminator 1 view .LVU339
 1113 0016 FEE7     		b	.L71
 1114              	.LVL92:
 1115              	.L70:
 192:Middlewares/Third_Party/FreeRTOS/Source/event_groups.c **** EventBits_t uxOriginalBitValue, uxReturn;
 1116              		.loc 1 192 1 is_stmt 0 discriminator 2 view .LVU340
 1117 0018 2DE9F041 		push	{r4, r5, r6, r7, r8, lr}
 1118              		.cfi_def_cfa_offset 24
 1119              		.cfi_offset 4, -24
 1120              		.cfi_offset 5, -20
 1121              		.cfi_offset 6, -16
 1122              		.cfi_offset 7, -12
ARM GAS  /tmp/ccWkqZxZ.s 			page 42


 1123              		.cfi_offset 8, -8
 1124              		.cfi_offset 14, -4
 1125 001c 0746     		mov	r7, r0
 1126 001e 0D46     		mov	r5, r1
 1127 0020 1446     		mov	r4, r2
 1128 0022 1E46     		mov	r6, r3
 198:Middlewares/Third_Party/FreeRTOS/Source/event_groups.c **** 	configASSERT( uxBitsToWaitFor != 0 );
 1129              		.loc 1 198 74 is_stmt 1 discriminator 2 view .LVU341
 199:Middlewares/Third_Party/FreeRTOS/Source/event_groups.c **** 	#if ( ( INCLUDE_xTaskGetSchedulerState == 1 ) || ( configUSE_TIMERS == 1 ) )
 1130              		.loc 1 199 2 discriminator 2 view .LVU342
 1131 0024 42B9     		cbnz	r2, .L72
 199:Middlewares/Third_Party/FreeRTOS/Source/event_groups.c **** 	#if ( ( INCLUDE_xTaskGetSchedulerState == 1 ) || ( configUSE_TIMERS == 1 ) )
 1132              		.loc 1 199 2 view .LVU343
 1133              	.LBB67:
 1134              	.LBI67:
 191:Middlewares/Third_Party/FreeRTOS/Source/portable/GCC/ARM_CM4F/portmacro.h **** {
 1135              		.loc 2 191 30 view .LVU344
 1136              	.LBB68:
 193:Middlewares/Third_Party/FreeRTOS/Source/portable/GCC/ARM_CM4F/portmacro.h **** 
 1137              		.loc 2 193 1 view .LVU345
 195:Middlewares/Third_Party/FreeRTOS/Source/portable/GCC/ARM_CM4F/portmacro.h **** 	(
 1138              		.loc 2 195 2 view .LVU346
 1139              		.syntax unified
 1140              	@ 195 "Middlewares/Third_Party/FreeRTOS/Source/portable/GCC/ARM_CM4F/portmacro.h" 1
 1141 0026 4FF05003 			mov r3, #80												
 1142 002a 83F31188 		msr basepri, r3											
 1143 002e BFF36F8F 		isb														
 1144 0032 BFF34F8F 		dsb														
 1145              	
 1146              	@ 0 "" 2
 1147              	.LVL93:
 1148              		.thumb
 1149              		.syntax unified
 1150              	.L73:
 195:Middlewares/Third_Party/FreeRTOS/Source/portable/GCC/ARM_CM4F/portmacro.h **** 	(
 1151              		.loc 2 195 2 is_stmt 0 view .LVU347
 1152              	.LBE68:
 1153              	.LBE67:
 199:Middlewares/Third_Party/FreeRTOS/Source/event_groups.c **** 	#if ( ( INCLUDE_xTaskGetSchedulerState == 1 ) || ( configUSE_TIMERS == 1 ) )
 1154              		.loc 1 199 2 is_stmt 1 discriminator 2 view .LVU348
 199:Middlewares/Third_Party/FreeRTOS/Source/event_groups.c **** 	#if ( ( INCLUDE_xTaskGetSchedulerState == 1 ) || ( configUSE_TIMERS == 1 ) )
 1155              		.loc 1 199 2 discriminator 2 view .LVU349
 1156 0036 FEE7     		b	.L73
 1157              	.LVL94:
 1158              	.L72:
 199:Middlewares/Third_Party/FreeRTOS/Source/event_groups.c **** 	#if ( ( INCLUDE_xTaskGetSchedulerState == 1 ) || ( configUSE_TIMERS == 1 ) )
 1159              		.loc 1 199 38 discriminator 2 view .LVU350
 202:Middlewares/Third_Party/FreeRTOS/Source/event_groups.c **** 	}
 1160              		.loc 1 202 3 discriminator 2 view .LVU351
 1161 0038 FFF7FEFF 		bl	xTaskGetSchedulerState
 1162              	.LVL95:
 202:Middlewares/Third_Party/FreeRTOS/Source/event_groups.c **** 	}
 1163              		.loc 1 202 3 is_stmt 0 discriminator 2 view .LVU352
 1164 003c 48B9     		cbnz	r0, .L74
 1165 003e 46B1     		cbz	r6, .L74
 202:Middlewares/Third_Party/FreeRTOS/Source/event_groups.c **** 	}
 1166              		.loc 1 202 3 is_stmt 1 view .LVU353
ARM GAS  /tmp/ccWkqZxZ.s 			page 43


 1167              	.LBB69:
 1168              	.LBI69:
 191:Middlewares/Third_Party/FreeRTOS/Source/portable/GCC/ARM_CM4F/portmacro.h **** {
 1169              		.loc 2 191 30 view .LVU354
 1170              	.LBB70:
 193:Middlewares/Third_Party/FreeRTOS/Source/portable/GCC/ARM_CM4F/portmacro.h **** 
 1171              		.loc 2 193 1 view .LVU355
 195:Middlewares/Third_Party/FreeRTOS/Source/portable/GCC/ARM_CM4F/portmacro.h **** 	(
 1172              		.loc 2 195 2 view .LVU356
 1173              		.syntax unified
 1174              	@ 195 "Middlewares/Third_Party/FreeRTOS/Source/portable/GCC/ARM_CM4F/portmacro.h" 1
 1175 0040 4FF05003 			mov r3, #80												
 1176 0044 83F31188 		msr basepri, r3											
 1177 0048 BFF36F8F 		isb														
 1178 004c BFF34F8F 		dsb														
 1179              	
 1180              	@ 0 "" 2
 1181              	.LVL96:
 1182              		.thumb
 1183              		.syntax unified
 1184              	.L75:
 195:Middlewares/Third_Party/FreeRTOS/Source/portable/GCC/ARM_CM4F/portmacro.h **** 	(
 1185              		.loc 2 195 2 is_stmt 0 view .LVU357
 1186              	.LBE70:
 1187              	.LBE69:
 202:Middlewares/Third_Party/FreeRTOS/Source/event_groups.c **** 	}
 1188              		.loc 1 202 3 is_stmt 1 discriminator 3 view .LVU358
 202:Middlewares/Third_Party/FreeRTOS/Source/event_groups.c **** 	}
 1189              		.loc 1 202 3 discriminator 3 view .LVU359
 1190 0050 FEE7     		b	.L75
 1191              	.L74:
 202:Middlewares/Third_Party/FreeRTOS/Source/event_groups.c **** 	}
 1192              		.loc 1 202 104 discriminator 8 view .LVU360
 206:Middlewares/Third_Party/FreeRTOS/Source/event_groups.c **** 	{
 1193              		.loc 1 206 2 discriminator 8 view .LVU361
 1194 0052 FFF7FEFF 		bl	vTaskSuspendAll
 1195              	.LVL97:
 208:Middlewares/Third_Party/FreeRTOS/Source/event_groups.c **** 
 1196              		.loc 1 208 3 discriminator 8 view .LVU362
 208:Middlewares/Third_Party/FreeRTOS/Source/event_groups.c **** 
 1197              		.loc 1 208 22 is_stmt 0 discriminator 8 view .LVU363
 1198 0056 D7F80080 		ldr	r8, [r7]
 1199              	.LVL98:
 210:Middlewares/Third_Party/FreeRTOS/Source/event_groups.c **** 
 1200              		.loc 1 210 3 is_stmt 1 discriminator 8 view .LVU364
 210:Middlewares/Third_Party/FreeRTOS/Source/event_groups.c **** 
 1201              		.loc 1 210 12 is_stmt 0 discriminator 8 view .LVU365
 1202 005a 2946     		mov	r1, r5
 1203 005c 3846     		mov	r0, r7
 1204 005e FFF7FEFF 		bl	xEventGroupSetBits
 1205              	.LVL99:
 212:Middlewares/Third_Party/FreeRTOS/Source/event_groups.c **** 		{
 1206              		.loc 1 212 3 is_stmt 1 discriminator 8 view .LVU366
 212:Middlewares/Third_Party/FreeRTOS/Source/event_groups.c **** 		{
 1207              		.loc 1 212 30 is_stmt 0 discriminator 8 view .LVU367
 1208 0062 48EA0505 		orr	r5, r8, r5
 1209              	.LVL100:
ARM GAS  /tmp/ccWkqZxZ.s 			page 44


 212:Middlewares/Third_Party/FreeRTOS/Source/event_groups.c **** 		{
 1210              		.loc 1 212 5 discriminator 8 view .LVU368
 1211 0066 34EA0503 		bics	r3, r4, r5
 1212 006a 1AD0     		beq	.L85
 225:Middlewares/Third_Party/FreeRTOS/Source/event_groups.c **** 			{
 1213              		.loc 1 225 4 is_stmt 1 view .LVU369
 225:Middlewares/Third_Party/FreeRTOS/Source/event_groups.c **** 			{
 1214              		.loc 1 225 6 is_stmt 0 view .LVU370
 1215 006c FEB9     		cbnz	r6, .L86
 244:Middlewares/Third_Party/FreeRTOS/Source/event_groups.c **** 				xTimeoutOccurred = pdTRUE;
 1216              		.loc 1 244 5 is_stmt 1 view .LVU371
 244:Middlewares/Third_Party/FreeRTOS/Source/event_groups.c **** 				xTimeoutOccurred = pdTRUE;
 1217              		.loc 1 244 14 is_stmt 0 view .LVU372
 1218 006e 3D68     		ldr	r5, [r7]
 1219              	.LVL101:
 245:Middlewares/Third_Party/FreeRTOS/Source/event_groups.c **** 			}
 1220              		.loc 1 245 5 is_stmt 1 view .LVU373
 1221              	.L77:
 249:Middlewares/Third_Party/FreeRTOS/Source/event_groups.c **** 
 1222              		.loc 1 249 2 view .LVU374
 249:Middlewares/Third_Party/FreeRTOS/Source/event_groups.c **** 
 1223              		.loc 1 249 20 is_stmt 0 view .LVU375
 1224 0070 FFF7FEFF 		bl	xTaskResumeAll
 1225              	.LVL102:
 251:Middlewares/Third_Party/FreeRTOS/Source/event_groups.c **** 	{
 1226              		.loc 1 251 2 is_stmt 1 view .LVU376
 251:Middlewares/Third_Party/FreeRTOS/Source/event_groups.c **** 	{
 1227              		.loc 1 251 4 is_stmt 0 view .LVU377
 1228 0074 96B1     		cbz	r6, .L69
 253:Middlewares/Third_Party/FreeRTOS/Source/event_groups.c **** 		{
 1229              		.loc 1 253 3 is_stmt 1 view .LVU378
 253:Middlewares/Third_Party/FreeRTOS/Source/event_groups.c **** 		{
 1230              		.loc 1 253 5 is_stmt 0 view .LVU379
 1231 0076 48B9     		cbnz	r0, .L80
 255:Middlewares/Third_Party/FreeRTOS/Source/event_groups.c **** 		}
 1232              		.loc 1 255 4 is_stmt 1 view .LVU380
 1233 0078 4FF0E023 		mov	r3, #-536813568
 1234 007c 4FF08052 		mov	r2, #268435456
 1235 0080 C3F8042D 		str	r2, [r3, #3332]
 255:Middlewares/Third_Party/FreeRTOS/Source/event_groups.c **** 		}
 1236              		.loc 1 255 4 view .LVU381
 1237              		.syntax unified
 1238              	@ 255 "Middlewares/Third_Party/FreeRTOS/Source/event_groups.c" 1
 1239 0084 BFF34F8F 		dsb
 1240              	@ 0 "" 2
 255:Middlewares/Third_Party/FreeRTOS/Source/event_groups.c **** 		}
 1241              		.loc 1 255 4 view .LVU382
 1242              	@ 255 "Middlewares/Third_Party/FreeRTOS/Source/event_groups.c" 1
 1243 0088 BFF36F8F 		isb
 1244              	@ 0 "" 2
 255:Middlewares/Third_Party/FreeRTOS/Source/event_groups.c **** 		}
 1245              		.loc 1 255 26 view .LVU383
 1246              		.thumb
 1247              		.syntax unified
 1248              	.L80:
 259:Middlewares/Third_Party/FreeRTOS/Source/event_groups.c **** 		}
 1249              		.loc 1 259 28 view .LVU384
ARM GAS  /tmp/ccWkqZxZ.s 			page 45


 266:Middlewares/Third_Party/FreeRTOS/Source/event_groups.c **** 
 1250              		.loc 1 266 3 view .LVU385
 266:Middlewares/Third_Party/FreeRTOS/Source/event_groups.c **** 
 1251              		.loc 1 266 14 is_stmt 0 view .LVU386
 1252 008c FFF7FEFF 		bl	uxTaskResetEventItemValue
 1253              	.LVL103:
 266:Middlewares/Third_Party/FreeRTOS/Source/event_groups.c **** 
 1254              		.loc 1 266 14 view .LVU387
 1255 0090 0546     		mov	r5, r0
 1256              	.LVL104:
 268:Middlewares/Third_Party/FreeRTOS/Source/event_groups.c **** 		{
 1257              		.loc 1 268 3 is_stmt 1 view .LVU388
 268:Middlewares/Third_Party/FreeRTOS/Source/event_groups.c **** 		{
 1258              		.loc 1 268 5 is_stmt 0 view .LVU389
 1259 0092 10F0007F 		tst	r0, #33554432
 1260 0096 12D0     		beq	.L87
 1261              	.LVL105:
 1262              	.L81:
 295:Middlewares/Third_Party/FreeRTOS/Source/event_groups.c **** 
 1263              		.loc 1 295 3 is_stmt 1 view .LVU390
 299:Middlewares/Third_Party/FreeRTOS/Source/event_groups.c **** 	}
 1264              		.loc 1 299 3 view .LVU391
 299:Middlewares/Third_Party/FreeRTOS/Source/event_groups.c **** 	}
 1265              		.loc 1 299 12 is_stmt 0 view .LVU392
 1266 0098 25F07F45 		bic	r5, r5, #-16777216
 1267              	.LVL106:
 302:Middlewares/Third_Party/FreeRTOS/Source/event_groups.c **** 
 1268              		.loc 1 302 2 is_stmt 1 view .LVU393
 305:Middlewares/Third_Party/FreeRTOS/Source/event_groups.c **** 
 1269              		.loc 1 305 2 view .LVU394
 307:Middlewares/Third_Party/FreeRTOS/Source/event_groups.c **** }
 1270              		.loc 1 307 2 view .LVU395
 1271              	.L69:
 308:Middlewares/Third_Party/FreeRTOS/Source/event_groups.c **** /*-----------------------------------------------------------*/
 1272              		.loc 1 308 1 is_stmt 0 view .LVU396
 1273 009c 2846     		mov	r0, r5
 1274 009e BDE8F081 		pop	{r4, r5, r6, r7, r8, pc}
 1275              	.LVL107:
 1276              	.L85:
 215:Middlewares/Third_Party/FreeRTOS/Source/event_groups.c **** 
 1277              		.loc 1 215 4 is_stmt 1 view .LVU397
 219:Middlewares/Third_Party/FreeRTOS/Source/event_groups.c **** 
 1278              		.loc 1 219 4 view .LVU398
 219:Middlewares/Third_Party/FreeRTOS/Source/event_groups.c **** 
 1279              		.loc 1 219 15 is_stmt 0 view .LVU399
 1280 00a2 3B68     		ldr	r3, [r7]
 219:Middlewares/Third_Party/FreeRTOS/Source/event_groups.c **** 
 1281              		.loc 1 219 29 view .LVU400
 1282 00a4 23EA0403 		bic	r3, r3, r4
 1283 00a8 3B60     		str	r3, [r7]
 221:Middlewares/Third_Party/FreeRTOS/Source/event_groups.c **** 		}
 1284              		.loc 1 221 4 is_stmt 1 view .LVU401
 1285              	.LVL108:
 221:Middlewares/Third_Party/FreeRTOS/Source/event_groups.c **** 		}
 1286              		.loc 1 221 17 is_stmt 0 view .LVU402
 1287 00aa 0026     		movs	r6, #0
 1288 00ac E0E7     		b	.L77
ARM GAS  /tmp/ccWkqZxZ.s 			page 46


 1289              	.LVL109:
 1290              	.L86:
 227:Middlewares/Third_Party/FreeRTOS/Source/event_groups.c **** 
 1291              		.loc 1 227 77 is_stmt 1 view .LVU403
 232:Middlewares/Third_Party/FreeRTOS/Source/event_groups.c **** 
 1292              		.loc 1 232 5 view .LVU404
 1293 00ae 3246     		mov	r2, r6
 1294 00b0 44F0A061 		orr	r1, r4, #83886080
 1295 00b4 381D     		adds	r0, r7, #4
 1296 00b6 FFF7FEFF 		bl	vTaskPlaceOnUnorderedEventList
 1297              	.LVL110:
 238:Middlewares/Third_Party/FreeRTOS/Source/event_groups.c **** 			}
 1298              		.loc 1 238 5 view .LVU405
 238:Middlewares/Third_Party/FreeRTOS/Source/event_groups.c **** 			}
 1299              		.loc 1 238 14 is_stmt 0 view .LVU406
 1300 00ba 0025     		movs	r5, #0
 1301 00bc D8E7     		b	.L77
 1302              	.LVL111:
 1303              	.L87:
 271:Middlewares/Third_Party/FreeRTOS/Source/event_groups.c **** 			{
 1304              		.loc 1 271 4 is_stmt 1 view .LVU407
 1305 00be FFF7FEFF 		bl	vPortEnterCritical
 1306              	.LVL112:
 273:Middlewares/Third_Party/FreeRTOS/Source/event_groups.c **** 
 1307              		.loc 1 273 5 view .LVU408
 273:Middlewares/Third_Party/FreeRTOS/Source/event_groups.c **** 
 1308              		.loc 1 273 14 is_stmt 0 view .LVU409
 1309 00c2 3D68     		ldr	r5, [r7]
 1310              	.LVL113:
 279:Middlewares/Third_Party/FreeRTOS/Source/event_groups.c **** 				{
 1311              		.loc 1 279 5 is_stmt 1 view .LVU410
 279:Middlewares/Third_Party/FreeRTOS/Source/event_groups.c **** 				{
 1312              		.loc 1 279 7 is_stmt 0 view .LVU411
 1313 00c4 34EA0503 		bics	r3, r4, r5
 1314 00c8 02D0     		beq	.L88
 1315              	.LVL114:
 1316              	.L82:
 285:Middlewares/Third_Party/FreeRTOS/Source/event_groups.c **** 				}
 1317              		.loc 1 285 30 is_stmt 1 view .LVU412
 288:Middlewares/Third_Party/FreeRTOS/Source/event_groups.c **** 
 1318              		.loc 1 288 4 view .LVU413
 1319 00ca FFF7FEFF 		bl	vPortExitCritical
 1320              	.LVL115:
 290:Middlewares/Third_Party/FreeRTOS/Source/event_groups.c **** 		}
 1321              		.loc 1 290 4 view .LVU414
 290:Middlewares/Third_Party/FreeRTOS/Source/event_groups.c **** 		}
 1322              		.loc 1 290 4 is_stmt 0 view .LVU415
 1323 00ce E3E7     		b	.L81
 1324              	.LVL116:
 1325              	.L88:
 281:Middlewares/Third_Party/FreeRTOS/Source/event_groups.c **** 				}
 1326              		.loc 1 281 6 is_stmt 1 view .LVU416
 281:Middlewares/Third_Party/FreeRTOS/Source/event_groups.c **** 				}
 1327              		.loc 1 281 31 is_stmt 0 view .LVU417
 1328 00d0 25EA0404 		bic	r4, r5, r4
 1329              	.LVL117:
 281:Middlewares/Third_Party/FreeRTOS/Source/event_groups.c **** 				}
ARM GAS  /tmp/ccWkqZxZ.s 			page 47


 1330              		.loc 1 281 31 view .LVU418
 1331 00d4 3C60     		str	r4, [r7]
 1332 00d6 F8E7     		b	.L82
 1333              		.cfi_endproc
 1334              	.LFE6:
 1336              		.section	.text.vEventGroupSetBitsCallback,"ax",%progbits
 1337              		.align	1
 1338              		.global	vEventGroupSetBitsCallback
 1339              		.syntax unified
 1340              		.thumb
 1341              		.thumb_func
 1343              	vEventGroupSetBitsCallback:
 1344              	.LVL118:
 1345              	.LFB13:
 658:Middlewares/Third_Party/FreeRTOS/Source/event_groups.c **** 	( void ) xEventGroupSetBits( pvEventGroup, ( EventBits_t ) ulBitsToSet ); /*lint !e9079 Can't avoi
 1346              		.loc 1 658 1 is_stmt 1 view -0
 1347              		.cfi_startproc
 1348              		@ args = 0, pretend = 0, frame = 0
 1349              		@ frame_needed = 0, uses_anonymous_args = 0
 658:Middlewares/Third_Party/FreeRTOS/Source/event_groups.c **** 	( void ) xEventGroupSetBits( pvEventGroup, ( EventBits_t ) ulBitsToSet ); /*lint !e9079 Can't avoi
 1350              		.loc 1 658 1 is_stmt 0 view .LVU420
 1351 0000 08B5     		push	{r3, lr}
 1352              		.cfi_def_cfa_offset 8
 1353              		.cfi_offset 3, -8
 1354              		.cfi_offset 14, -4
 659:Middlewares/Third_Party/FreeRTOS/Source/event_groups.c **** }
 1355              		.loc 1 659 2 is_stmt 1 view .LVU421
 659:Middlewares/Third_Party/FreeRTOS/Source/event_groups.c **** }
 1356              		.loc 1 659 11 is_stmt 0 view .LVU422
 1357 0002 FFF7FEFF 		bl	xEventGroupSetBits
 1358              	.LVL119:
 660:Middlewares/Third_Party/FreeRTOS/Source/event_groups.c **** /*-----------------------------------------------------------*/
 1359              		.loc 1 660 1 view .LVU423
 1360 0006 08BD     		pop	{r3, pc}
 1361              		.cfi_endproc
 1362              	.LFE13:
 1364              		.section	.text.vEventGroupDelete,"ax",%progbits
 1365              		.align	1
 1366              		.global	vEventGroupDelete
 1367              		.syntax unified
 1368              		.thumb
 1369              		.thumb_func
 1371              	vEventGroupDelete:
 1372              	.LVL120:
 1373              	.LFB12:
 614:Middlewares/Third_Party/FreeRTOS/Source/event_groups.c **** EventGroup_t *pxEventBits = xEventGroup;
 1374              		.loc 1 614 1 is_stmt 1 view -0
 1375              		.cfi_startproc
 1376              		@ args = 0, pretend = 0, frame = 0
 1377              		@ frame_needed = 0, uses_anonymous_args = 0
 614:Middlewares/Third_Party/FreeRTOS/Source/event_groups.c **** EventGroup_t *pxEventBits = xEventGroup;
 1378              		.loc 1 614 1 is_stmt 0 view .LVU425
 1379 0000 10B5     		push	{r4, lr}
 1380              		.cfi_def_cfa_offset 8
 1381              		.cfi_offset 4, -8
 1382              		.cfi_offset 14, -4
 1383 0002 0446     		mov	r4, r0
ARM GAS  /tmp/ccWkqZxZ.s 			page 48


 615:Middlewares/Third_Party/FreeRTOS/Source/event_groups.c **** const List_t *pxTasksWaitingForBits = &( pxEventBits->xTasksWaitingForBits );
 1384              		.loc 1 615 1 is_stmt 1 view .LVU426
 1385              	.LVL121:
 616:Middlewares/Third_Party/FreeRTOS/Source/event_groups.c **** 
 1386              		.loc 1 616 1 view .LVU427
 618:Middlewares/Third_Party/FreeRTOS/Source/event_groups.c **** 	{
 1387              		.loc 1 618 2 view .LVU428
 1388 0004 FFF7FEFF 		bl	vTaskSuspendAll
 1389              	.LVL122:
 620:Middlewares/Third_Party/FreeRTOS/Source/event_groups.c **** 
 1390              		.loc 1 620 41 view .LVU429
 622:Middlewares/Third_Party/FreeRTOS/Source/event_groups.c **** 		{
 1391              		.loc 1 622 3 view .LVU430
 1392              	.L92:
 622:Middlewares/Third_Party/FreeRTOS/Source/event_groups.c **** 		{
 1393              		.loc 1 622 59 view .LVU431
 622:Middlewares/Third_Party/FreeRTOS/Source/event_groups.c **** 		{
 1394              		.loc 1 622 10 is_stmt 0 view .LVU432
 1395 0008 6368     		ldr	r3, [r4, #4]
 622:Middlewares/Third_Party/FreeRTOS/Source/event_groups.c **** 		{
 1396              		.loc 1 622 59 view .LVU433
 1397 000a 93B1     		cbz	r3, .L98
 626:Middlewares/Third_Party/FreeRTOS/Source/event_groups.c **** 			vTaskRemoveFromUnorderedEventList( pxTasksWaitingForBits->xListEnd.pxNext, eventUNBLOCKED_DUE_TO
 1398              		.loc 1 626 4 is_stmt 1 view .LVU434
 1399 000c 2069     		ldr	r0, [r4, #16]
 1400 000e 04F10C03 		add	r3, r4, #12
 1401 0012 9842     		cmp	r0, r3
 1402 0014 04D0     		beq	.L99
 626:Middlewares/Third_Party/FreeRTOS/Source/event_groups.c **** 			vTaskRemoveFromUnorderedEventList( pxTasksWaitingForBits->xListEnd.pxNext, eventUNBLOCKED_DUE_TO
 1403              		.loc 1 626 121 discriminator 2 view .LVU435
 627:Middlewares/Third_Party/FreeRTOS/Source/event_groups.c **** 		}
 1404              		.loc 1 627 4 discriminator 2 view .LVU436
 1405 0016 4FF00071 		mov	r1, #33554432
 1406 001a FFF7FEFF 		bl	vTaskRemoveFromUnorderedEventList
 1407              	.LVL123:
 1408 001e F3E7     		b	.L92
 1409              	.L99:
 626:Middlewares/Third_Party/FreeRTOS/Source/event_groups.c **** 			vTaskRemoveFromUnorderedEventList( pxTasksWaitingForBits->xListEnd.pxNext, eventUNBLOCKED_DUE_TO
 1410              		.loc 1 626 4 view .LVU437
 1411              	.LBB71:
 1412              	.LBI71:
 191:Middlewares/Third_Party/FreeRTOS/Source/portable/GCC/ARM_CM4F/portmacro.h **** {
 1413              		.loc 2 191 30 view .LVU438
 1414              	.LBB72:
 193:Middlewares/Third_Party/FreeRTOS/Source/portable/GCC/ARM_CM4F/portmacro.h **** 
 1415              		.loc 2 193 1 view .LVU439
 195:Middlewares/Third_Party/FreeRTOS/Source/portable/GCC/ARM_CM4F/portmacro.h **** 	(
 1416              		.loc 2 195 2 view .LVU440
 1417              		.syntax unified
 1418              	@ 195 "Middlewares/Third_Party/FreeRTOS/Source/portable/GCC/ARM_CM4F/portmacro.h" 1
 1419 0020 4FF05003 			mov r3, #80												
 1420 0024 83F31188 		msr basepri, r3											
 1421 0028 BFF36F8F 		isb														
 1422 002c BFF34F8F 		dsb														
 1423              	
 1424              	@ 0 "" 2
 1425              	.LVL124:
ARM GAS  /tmp/ccWkqZxZ.s 			page 49


 1426              		.thumb
 1427              		.syntax unified
 1428              	.L94:
 195:Middlewares/Third_Party/FreeRTOS/Source/portable/GCC/ARM_CM4F/portmacro.h **** 	(
 1429              		.loc 2 195 2 is_stmt 0 view .LVU441
 1430              	.LBE72:
 1431              	.LBE71:
 626:Middlewares/Third_Party/FreeRTOS/Source/event_groups.c **** 			vTaskRemoveFromUnorderedEventList( pxTasksWaitingForBits->xListEnd.pxNext, eventUNBLOCKED_DUE_TO
 1432              		.loc 1 626 4 is_stmt 1 discriminator 1 view .LVU442
 626:Middlewares/Third_Party/FreeRTOS/Source/event_groups.c **** 			vTaskRemoveFromUnorderedEventList( pxTasksWaitingForBits->xListEnd.pxNext, eventUNBLOCKED_DUE_TO
 1433              		.loc 1 626 4 discriminator 1 view .LVU443
 1434 0030 FEE7     		b	.L94
 1435              	.L98:
 640:Middlewares/Third_Party/FreeRTOS/Source/event_groups.c **** 			{
 1436              		.loc 1 640 4 view .LVU444
 640:Middlewares/Third_Party/FreeRTOS/Source/event_groups.c **** 			{
 1437              		.loc 1 640 19 is_stmt 0 view .LVU445
 1438 0032 237F     		ldrb	r3, [r4, #28]	@ zero_extendqisi2
 640:Middlewares/Third_Party/FreeRTOS/Source/event_groups.c **** 			{
 1439              		.loc 1 640 6 view .LVU446
 1440 0034 13B1     		cbz	r3, .L100
 1441              	.L96:
 646:Middlewares/Third_Party/FreeRTOS/Source/event_groups.c **** 			}
 1442              		.loc 1 646 29 is_stmt 1 view .LVU447
 651:Middlewares/Third_Party/FreeRTOS/Source/event_groups.c **** }
 1443              		.loc 1 651 2 view .LVU448
 651:Middlewares/Third_Party/FreeRTOS/Source/event_groups.c **** }
 1444              		.loc 1 651 11 is_stmt 0 view .LVU449
 1445 0036 FFF7FEFF 		bl	xTaskResumeAll
 1446              	.LVL125:
 652:Middlewares/Third_Party/FreeRTOS/Source/event_groups.c **** /*-----------------------------------------------------------*/
 1447              		.loc 1 652 1 view .LVU450
 1448 003a 10BD     		pop	{r4, pc}
 1449              	.LVL126:
 1450              	.L100:
 642:Middlewares/Third_Party/FreeRTOS/Source/event_groups.c **** 			}
 1451              		.loc 1 642 5 is_stmt 1 view .LVU451
 1452 003c 2046     		mov	r0, r4
 1453 003e FFF7FEFF 		bl	vPortFree
 1454              	.LVL127:
 1455 0042 F8E7     		b	.L96
 1456              		.cfi_endproc
 1457              	.LFE12:
 1459              		.section	.text.xEventGroupSetBitsFromISR,"ax",%progbits
 1460              		.align	1
 1461              		.global	xEventGroupSetBitsFromISR
 1462              		.syntax unified
 1463              		.thumb
 1464              		.thumb_func
 1466              	xEventGroupSetBitsFromISR:
 1467              	.LVL128:
 1468              	.LFB16:
 704:Middlewares/Third_Party/FreeRTOS/Source/event_groups.c **** /*-----------------------------------------------------------*/
 705:Middlewares/Third_Party/FreeRTOS/Source/event_groups.c **** 
 706:Middlewares/Third_Party/FreeRTOS/Source/event_groups.c **** #if ( ( configUSE_TRACE_FACILITY == 1 ) && ( INCLUDE_xTimerPendFunctionCall == 1 ) && ( configUSE_T
 707:Middlewares/Third_Party/FreeRTOS/Source/event_groups.c **** 
 708:Middlewares/Third_Party/FreeRTOS/Source/event_groups.c **** 	BaseType_t xEventGroupSetBitsFromISR( EventGroupHandle_t xEventGroup, const EventBits_t uxBitsToSe
ARM GAS  /tmp/ccWkqZxZ.s 			page 50


 709:Middlewares/Third_Party/FreeRTOS/Source/event_groups.c **** 	{
 1469              		.loc 1 709 2 view -0
 1470              		.cfi_startproc
 1471              		@ args = 0, pretend = 0, frame = 0
 1472              		@ frame_needed = 0, uses_anonymous_args = 0
 1473              		.loc 1 709 2 is_stmt 0 view .LVU453
 1474 0000 08B5     		push	{r3, lr}
 1475              		.cfi_def_cfa_offset 8
 1476              		.cfi_offset 3, -8
 1477              		.cfi_offset 14, -4
 1478 0002 1346     		mov	r3, r2
 710:Middlewares/Third_Party/FreeRTOS/Source/event_groups.c **** 	BaseType_t xReturn;
 1479              		.loc 1 710 2 is_stmt 1 view .LVU454
 711:Middlewares/Third_Party/FreeRTOS/Source/event_groups.c **** 
 712:Middlewares/Third_Party/FreeRTOS/Source/event_groups.c **** 		traceEVENT_GROUP_SET_BITS_FROM_ISR( xEventGroup, uxBitsToSet );
 1480              		.loc 1 712 65 view .LVU455
 713:Middlewares/Third_Party/FreeRTOS/Source/event_groups.c **** 		xReturn = xTimerPendFunctionCallFromISR( vEventGroupSetBitsCallback, ( void * ) xEventGroup, ( ui
 1481              		.loc 1 713 3 view .LVU456
 1482              		.loc 1 713 13 is_stmt 0 view .LVU457
 1483 0004 0A46     		mov	r2, r1
 1484              	.LVL129:
 1485              		.loc 1 713 13 view .LVU458
 1486 0006 0146     		mov	r1, r0
 1487              	.LVL130:
 1488              		.loc 1 713 13 view .LVU459
 1489 0008 0148     		ldr	r0, .L103
 1490              	.LVL131:
 1491              		.loc 1 713 13 view .LVU460
 1492 000a FFF7FEFF 		bl	xTimerPendFunctionCallFromISR
 1493              	.LVL132:
 714:Middlewares/Third_Party/FreeRTOS/Source/event_groups.c **** 
 715:Middlewares/Third_Party/FreeRTOS/Source/event_groups.c **** 		return xReturn;
 1494              		.loc 1 715 3 is_stmt 1 view .LVU461
 716:Middlewares/Third_Party/FreeRTOS/Source/event_groups.c **** 	}
 1495              		.loc 1 716 2 is_stmt 0 view .LVU462
 1496 000e 08BD     		pop	{r3, pc}
 1497              	.L104:
 1498              		.align	2
 1499              	.L103:
 1500 0010 00000000 		.word	vEventGroupSetBitsCallback
 1501              		.cfi_endproc
 1502              	.LFE16:
 1504              		.section	.text.uxEventGroupGetNumber,"ax",%progbits
 1505              		.align	1
 1506              		.global	uxEventGroupGetNumber
 1507              		.syntax unified
 1508              		.thumb
 1509              		.thumb_func
 1511              	uxEventGroupGetNumber:
 1512              	.LVL133:
 1513              	.LFB17:
 717:Middlewares/Third_Party/FreeRTOS/Source/event_groups.c **** 
 718:Middlewares/Third_Party/FreeRTOS/Source/event_groups.c **** #endif
 719:Middlewares/Third_Party/FreeRTOS/Source/event_groups.c **** /*-----------------------------------------------------------*/
 720:Middlewares/Third_Party/FreeRTOS/Source/event_groups.c **** 
 721:Middlewares/Third_Party/FreeRTOS/Source/event_groups.c **** #if (configUSE_TRACE_FACILITY == 1)
 722:Middlewares/Third_Party/FreeRTOS/Source/event_groups.c **** 
ARM GAS  /tmp/ccWkqZxZ.s 			page 51


 723:Middlewares/Third_Party/FreeRTOS/Source/event_groups.c **** 	UBaseType_t uxEventGroupGetNumber( void* xEventGroup )
 724:Middlewares/Third_Party/FreeRTOS/Source/event_groups.c **** 	{
 1514              		.loc 1 724 2 is_stmt 1 view -0
 1515              		.cfi_startproc
 1516              		@ args = 0, pretend = 0, frame = 0
 1517              		@ frame_needed = 0, uses_anonymous_args = 0
 1518              		@ link register save eliminated.
 725:Middlewares/Third_Party/FreeRTOS/Source/event_groups.c **** 	UBaseType_t xReturn;
 1519              		.loc 1 725 2 view .LVU464
 726:Middlewares/Third_Party/FreeRTOS/Source/event_groups.c **** 	EventGroup_t const *pxEventBits = ( EventGroup_t * ) xEventGroup; /*lint !e9087 !e9079 EventGroupH
 1520              		.loc 1 726 2 view .LVU465
 727:Middlewares/Third_Party/FreeRTOS/Source/event_groups.c **** 
 728:Middlewares/Third_Party/FreeRTOS/Source/event_groups.c **** 		if( xEventGroup == NULL )
 1521              		.loc 1 728 3 view .LVU466
 1522              		.loc 1 728 5 is_stmt 0 view .LVU467
 1523 0000 08B1     		cbz	r0, .L107
 729:Middlewares/Third_Party/FreeRTOS/Source/event_groups.c **** 		{
 730:Middlewares/Third_Party/FreeRTOS/Source/event_groups.c **** 			xReturn = 0;
 731:Middlewares/Third_Party/FreeRTOS/Source/event_groups.c **** 		}
 732:Middlewares/Third_Party/FreeRTOS/Source/event_groups.c **** 		else
 733:Middlewares/Third_Party/FreeRTOS/Source/event_groups.c **** 		{
 734:Middlewares/Third_Party/FreeRTOS/Source/event_groups.c **** 			xReturn = pxEventBits->uxEventGroupNumber;
 1524              		.loc 1 734 4 is_stmt 1 view .LVU468
 1525              		.loc 1 734 12 is_stmt 0 view .LVU469
 1526 0002 8069     		ldr	r0, [r0, #24]
 1527              	.LVL134:
 1528              		.loc 1 734 12 view .LVU470
 1529 0004 7047     		bx	lr
 1530              	.LVL135:
 1531              	.L107:
 730:Middlewares/Third_Party/FreeRTOS/Source/event_groups.c **** 		}
 1532              		.loc 1 730 12 view .LVU471
 1533 0006 0020     		movs	r0, #0
 1534              	.LVL136:
 735:Middlewares/Third_Party/FreeRTOS/Source/event_groups.c **** 		}
 736:Middlewares/Third_Party/FreeRTOS/Source/event_groups.c **** 
 737:Middlewares/Third_Party/FreeRTOS/Source/event_groups.c **** 		return xReturn;
 1535              		.loc 1 737 3 is_stmt 1 view .LVU472
 738:Middlewares/Third_Party/FreeRTOS/Source/event_groups.c **** 	}
 1536              		.loc 1 738 2 is_stmt 0 view .LVU473
 1537 0008 7047     		bx	lr
 1538              		.cfi_endproc
 1539              	.LFE17:
 1541              		.section	.text.vEventGroupSetNumber,"ax",%progbits
 1542              		.align	1
 1543              		.global	vEventGroupSetNumber
 1544              		.syntax unified
 1545              		.thumb
 1546              		.thumb_func
 1548              	vEventGroupSetNumber:
 1549              	.LVL137:
 1550              	.LFB18:
 739:Middlewares/Third_Party/FreeRTOS/Source/event_groups.c **** 
 740:Middlewares/Third_Party/FreeRTOS/Source/event_groups.c **** #endif /* configUSE_TRACE_FACILITY */
 741:Middlewares/Third_Party/FreeRTOS/Source/event_groups.c **** /*-----------------------------------------------------------*/
 742:Middlewares/Third_Party/FreeRTOS/Source/event_groups.c **** 
 743:Middlewares/Third_Party/FreeRTOS/Source/event_groups.c **** #if ( configUSE_TRACE_FACILITY == 1 )
ARM GAS  /tmp/ccWkqZxZ.s 			page 52


 744:Middlewares/Third_Party/FreeRTOS/Source/event_groups.c **** 
 745:Middlewares/Third_Party/FreeRTOS/Source/event_groups.c **** 	void vEventGroupSetNumber( void * xEventGroup, UBaseType_t uxEventGroupNumber )
 746:Middlewares/Third_Party/FreeRTOS/Source/event_groups.c **** 	{
 1551              		.loc 1 746 2 is_stmt 1 view -0
 1552              		.cfi_startproc
 1553              		@ args = 0, pretend = 0, frame = 0
 1554              		@ frame_needed = 0, uses_anonymous_args = 0
 1555              		@ link register save eliminated.
 747:Middlewares/Third_Party/FreeRTOS/Source/event_groups.c **** 		( ( EventGroup_t * ) xEventGroup )->uxEventGroupNumber = uxEventGroupNumber; /*lint !e9087 !e9079
 1556              		.loc 1 747 3 view .LVU475
 1557              		.loc 1 747 58 is_stmt 0 view .LVU476
 1558 0000 8161     		str	r1, [r0, #24]
 748:Middlewares/Third_Party/FreeRTOS/Source/event_groups.c **** 	}
 1559              		.loc 1 748 2 view .LVU477
 1560 0002 7047     		bx	lr
 1561              		.cfi_endproc
 1562              	.LFE18:
 1564              		.text
 1565              	.Letext0:
 1566              		.file 3 "/home/evence/.config/Code/User/globalStorage/bmd.stm32-for-vscode/@xpack-dev-tools/arm-no
 1567              		.file 4 "/home/evence/.config/Code/User/globalStorage/bmd.stm32-for-vscode/@xpack-dev-tools/arm-no
 1568              		.file 5 "/home/evence/.config/Code/User/globalStorage/bmd.stm32-for-vscode/@xpack-dev-tools/arm-no
 1569              		.file 6 "Middlewares/Third_Party/FreeRTOS/Source/include/FreeRTOS.h"
 1570              		.file 7 "Middlewares/Third_Party/FreeRTOS/Source/include/list.h"
 1571              		.file 8 "Middlewares/Third_Party/FreeRTOS/Source/include/timers.h"
 1572              		.file 9 "Middlewares/Third_Party/FreeRTOS/Source/include/event_groups.h"
 1573              		.file 10 "Middlewares/Third_Party/FreeRTOS/Source/include/portable.h"
 1574              		.file 11 "Middlewares/Third_Party/FreeRTOS/Source/include/task.h"
ARM GAS  /tmp/ccWkqZxZ.s 			page 53

