ARM GAS  /tmp/ccG38jLQ.s 			page 1


   1              		.cpu cortex-m4
   2              		.arch armv7e-m
   3              		.fpu fpv4-sp-d16
   4              		.eabi_attribute 27, 1
   5              		.eabi_attribute 28, 1
   6              		.eabi_attribute 20, 1
   7              		.eabi_attribute 21, 1
   8              		.eabi_attribute 23, 3
   9              		.eabi_attribute 24, 1
  10              		.eabi_attribute 25, 1
  11              		.eabi_attribute 26, 1
  12              		.eabi_attribute 30, 1
  13              		.eabi_attribute 34, 1
  14              		.eabi_attribute 18, 4
  15              		.file	"timers.c"
  16              		.text
  17              	.Ltext0:
  18              		.cfi_sections	.debug_frame
  19              		.file 1 "Middlewares/Third_Party/FreeRTOS/Source/timers.c"
  20              		.section	.text.prvGetNextExpireTime,"ax",%progbits
  21              		.align	1
  22              		.syntax unified
  23              		.thumb
  24              		.thumb_func
  26              	prvGetNextExpireTime:
  27              	.LVL0:
  28              	.LFB18:
   1:Middlewares/Third_Party/FreeRTOS/Source/timers.c **** /*
   2:Middlewares/Third_Party/FreeRTOS/Source/timers.c ****  * FreeRTOS Kernel V10.3.1
   3:Middlewares/Third_Party/FreeRTOS/Source/timers.c ****  * Copyright (C) 2020 Amazon.com, Inc. or its affiliates.  All Rights Reserved.
   4:Middlewares/Third_Party/FreeRTOS/Source/timers.c ****  *
   5:Middlewares/Third_Party/FreeRTOS/Source/timers.c ****  * Permission is hereby granted, free of charge, to any person obtaining a copy of
   6:Middlewares/Third_Party/FreeRTOS/Source/timers.c ****  * this software and associated documentation files (the "Software"), to deal in
   7:Middlewares/Third_Party/FreeRTOS/Source/timers.c ****  * the Software without restriction, including without limitation the rights to
   8:Middlewares/Third_Party/FreeRTOS/Source/timers.c ****  * use, copy, modify, merge, publish, distribute, sublicense, and/or sell copies of
   9:Middlewares/Third_Party/FreeRTOS/Source/timers.c ****  * the Software, and to permit persons to whom the Software is furnished to do so,
  10:Middlewares/Third_Party/FreeRTOS/Source/timers.c ****  * subject to the following conditions:
  11:Middlewares/Third_Party/FreeRTOS/Source/timers.c ****  *
  12:Middlewares/Third_Party/FreeRTOS/Source/timers.c ****  * The above copyright notice and this permission notice shall be included in all
  13:Middlewares/Third_Party/FreeRTOS/Source/timers.c ****  * copies or substantial portions of the Software.
  14:Middlewares/Third_Party/FreeRTOS/Source/timers.c ****  *
  15:Middlewares/Third_Party/FreeRTOS/Source/timers.c ****  * THE SOFTWARE IS PROVIDED "AS IS", WITHOUT WARRANTY OF ANY KIND, EXPRESS OR
  16:Middlewares/Third_Party/FreeRTOS/Source/timers.c ****  * IMPLIED, INCLUDING BUT NOT LIMITED TO THE WARRANTIES OF MERCHANTABILITY, FITNESS
  17:Middlewares/Third_Party/FreeRTOS/Source/timers.c ****  * FOR A PARTICULAR PURPOSE AND NONINFRINGEMENT. IN NO EVENT SHALL THE AUTHORS OR
  18:Middlewares/Third_Party/FreeRTOS/Source/timers.c ****  * COPYRIGHT HOLDERS BE LIABLE FOR ANY CLAIM, DAMAGES OR OTHER LIABILITY, WHETHER
  19:Middlewares/Third_Party/FreeRTOS/Source/timers.c ****  * IN AN ACTION OF CONTRACT, TORT OR OTHERWISE, ARISING FROM, OUT OF OR IN
  20:Middlewares/Third_Party/FreeRTOS/Source/timers.c ****  * CONNECTION WITH THE SOFTWARE OR THE USE OR OTHER DEALINGS IN THE SOFTWARE.
  21:Middlewares/Third_Party/FreeRTOS/Source/timers.c ****  *
  22:Middlewares/Third_Party/FreeRTOS/Source/timers.c ****  * http://www.FreeRTOS.org
  23:Middlewares/Third_Party/FreeRTOS/Source/timers.c ****  * http://aws.amazon.com/freertos
  24:Middlewares/Third_Party/FreeRTOS/Source/timers.c ****  *
  25:Middlewares/Third_Party/FreeRTOS/Source/timers.c ****  * 1 tab == 4 spaces!
  26:Middlewares/Third_Party/FreeRTOS/Source/timers.c ****  */
  27:Middlewares/Third_Party/FreeRTOS/Source/timers.c **** 
  28:Middlewares/Third_Party/FreeRTOS/Source/timers.c **** /* Standard includes. */
  29:Middlewares/Third_Party/FreeRTOS/Source/timers.c **** #include <stdlib.h>
  30:Middlewares/Third_Party/FreeRTOS/Source/timers.c **** 
ARM GAS  /tmp/ccG38jLQ.s 			page 2


  31:Middlewares/Third_Party/FreeRTOS/Source/timers.c **** /* Defining MPU_WRAPPERS_INCLUDED_FROM_API_FILE prevents task.h from redefining
  32:Middlewares/Third_Party/FreeRTOS/Source/timers.c **** all the API functions to use the MPU wrappers.  That should only be done when
  33:Middlewares/Third_Party/FreeRTOS/Source/timers.c **** task.h is included from an application file. */
  34:Middlewares/Third_Party/FreeRTOS/Source/timers.c **** #define MPU_WRAPPERS_INCLUDED_FROM_API_FILE
  35:Middlewares/Third_Party/FreeRTOS/Source/timers.c **** 
  36:Middlewares/Third_Party/FreeRTOS/Source/timers.c **** #include "FreeRTOS.h"
  37:Middlewares/Third_Party/FreeRTOS/Source/timers.c **** #include "task.h"
  38:Middlewares/Third_Party/FreeRTOS/Source/timers.c **** #include "queue.h"
  39:Middlewares/Third_Party/FreeRTOS/Source/timers.c **** #include "timers.h"
  40:Middlewares/Third_Party/FreeRTOS/Source/timers.c **** 
  41:Middlewares/Third_Party/FreeRTOS/Source/timers.c **** #if ( INCLUDE_xTimerPendFunctionCall == 1 ) && ( configUSE_TIMERS == 0 )
  42:Middlewares/Third_Party/FreeRTOS/Source/timers.c **** 	#error configUSE_TIMERS must be set to 1 to make the xTimerPendFunctionCall() function available.
  43:Middlewares/Third_Party/FreeRTOS/Source/timers.c **** #endif
  44:Middlewares/Third_Party/FreeRTOS/Source/timers.c **** 
  45:Middlewares/Third_Party/FreeRTOS/Source/timers.c **** /* Lint e9021, e961 and e750 are suppressed as a MISRA exception justified
  46:Middlewares/Third_Party/FreeRTOS/Source/timers.c **** because the MPU ports require MPU_WRAPPERS_INCLUDED_FROM_API_FILE to be defined
  47:Middlewares/Third_Party/FreeRTOS/Source/timers.c **** for the header files above, but not in this file, in order to generate the
  48:Middlewares/Third_Party/FreeRTOS/Source/timers.c **** correct privileged Vs unprivileged linkage and placement. */
  49:Middlewares/Third_Party/FreeRTOS/Source/timers.c **** #undef MPU_WRAPPERS_INCLUDED_FROM_API_FILE /*lint !e9021 !e961 !e750. */
  50:Middlewares/Third_Party/FreeRTOS/Source/timers.c **** 
  51:Middlewares/Third_Party/FreeRTOS/Source/timers.c **** 
  52:Middlewares/Third_Party/FreeRTOS/Source/timers.c **** /* This entire source file will be skipped if the application is not configured
  53:Middlewares/Third_Party/FreeRTOS/Source/timers.c **** to include software timer functionality.  This #if is closed at the very bottom
  54:Middlewares/Third_Party/FreeRTOS/Source/timers.c **** of this file.  If you want to include software timer functionality then ensure
  55:Middlewares/Third_Party/FreeRTOS/Source/timers.c **** configUSE_TIMERS is set to 1 in FreeRTOSConfig.h. */
  56:Middlewares/Third_Party/FreeRTOS/Source/timers.c **** #if ( configUSE_TIMERS == 1 )
  57:Middlewares/Third_Party/FreeRTOS/Source/timers.c **** 
  58:Middlewares/Third_Party/FreeRTOS/Source/timers.c **** /* Misc definitions. */
  59:Middlewares/Third_Party/FreeRTOS/Source/timers.c **** #define tmrNO_DELAY		( TickType_t ) 0U
  60:Middlewares/Third_Party/FreeRTOS/Source/timers.c **** 
  61:Middlewares/Third_Party/FreeRTOS/Source/timers.c **** /* The name assigned to the timer service task.  This can be overridden by
  62:Middlewares/Third_Party/FreeRTOS/Source/timers.c **** defining trmTIMER_SERVICE_TASK_NAME in FreeRTOSConfig.h. */
  63:Middlewares/Third_Party/FreeRTOS/Source/timers.c **** #ifndef configTIMER_SERVICE_TASK_NAME
  64:Middlewares/Third_Party/FreeRTOS/Source/timers.c **** 	#define configTIMER_SERVICE_TASK_NAME "Tmr Svc"
  65:Middlewares/Third_Party/FreeRTOS/Source/timers.c **** #endif
  66:Middlewares/Third_Party/FreeRTOS/Source/timers.c **** 
  67:Middlewares/Third_Party/FreeRTOS/Source/timers.c **** /* Bit definitions used in the ucStatus member of a timer structure. */
  68:Middlewares/Third_Party/FreeRTOS/Source/timers.c **** #define tmrSTATUS_IS_ACTIVE					( ( uint8_t ) 0x01 )
  69:Middlewares/Third_Party/FreeRTOS/Source/timers.c **** #define tmrSTATUS_IS_STATICALLY_ALLOCATED	( ( uint8_t ) 0x02 )
  70:Middlewares/Third_Party/FreeRTOS/Source/timers.c **** #define tmrSTATUS_IS_AUTORELOAD				( ( uint8_t ) 0x04 )
  71:Middlewares/Third_Party/FreeRTOS/Source/timers.c **** 
  72:Middlewares/Third_Party/FreeRTOS/Source/timers.c **** /* The definition of the timers themselves. */
  73:Middlewares/Third_Party/FreeRTOS/Source/timers.c **** typedef struct tmrTimerControl /* The old naming convention is used to prevent breaking kernel awar
  74:Middlewares/Third_Party/FreeRTOS/Source/timers.c **** {
  75:Middlewares/Third_Party/FreeRTOS/Source/timers.c **** 	const char				*pcTimerName;		/*<< Text name.  This is not used by the kernel, it is included simpl
  76:Middlewares/Third_Party/FreeRTOS/Source/timers.c **** 	ListItem_t				xTimerListItem;		/*<< Standard linked list item as used by all kernel features for e
  77:Middlewares/Third_Party/FreeRTOS/Source/timers.c **** 	TickType_t				xTimerPeriodInTicks;/*<< How quickly and often the timer expires. */
  78:Middlewares/Third_Party/FreeRTOS/Source/timers.c **** 	void 					*pvTimerID;			/*<< An ID to identify the timer.  This allows the timer to be identified 
  79:Middlewares/Third_Party/FreeRTOS/Source/timers.c **** 	TimerCallbackFunction_t	pxCallbackFunction;	/*<< The function that will be called when the timer e
  80:Middlewares/Third_Party/FreeRTOS/Source/timers.c **** 	#if( configUSE_TRACE_FACILITY == 1 )
  81:Middlewares/Third_Party/FreeRTOS/Source/timers.c **** 		UBaseType_t			uxTimerNumber;		/*<< An ID assigned by trace tools such as FreeRTOS+Trace */
  82:Middlewares/Third_Party/FreeRTOS/Source/timers.c **** 	#endif
  83:Middlewares/Third_Party/FreeRTOS/Source/timers.c **** 	uint8_t 				ucStatus;			/*<< Holds bits to say if the timer was statically allocated or not, and i
  84:Middlewares/Third_Party/FreeRTOS/Source/timers.c **** } xTIMER;
  85:Middlewares/Third_Party/FreeRTOS/Source/timers.c **** 
  86:Middlewares/Third_Party/FreeRTOS/Source/timers.c **** /* The old xTIMER name is maintained above then typedefed to the new Timer_t
  87:Middlewares/Third_Party/FreeRTOS/Source/timers.c **** name below to enable the use of older kernel aware debuggers. */
ARM GAS  /tmp/ccG38jLQ.s 			page 3


  88:Middlewares/Third_Party/FreeRTOS/Source/timers.c **** typedef xTIMER Timer_t;
  89:Middlewares/Third_Party/FreeRTOS/Source/timers.c **** 
  90:Middlewares/Third_Party/FreeRTOS/Source/timers.c **** /* The definition of messages that can be sent and received on the timer queue.
  91:Middlewares/Third_Party/FreeRTOS/Source/timers.c **** Two types of message can be queued - messages that manipulate a software timer,
  92:Middlewares/Third_Party/FreeRTOS/Source/timers.c **** and messages that request the execution of a non-timer related callback.  The
  93:Middlewares/Third_Party/FreeRTOS/Source/timers.c **** two message types are defined in two separate structures, xTimerParametersType
  94:Middlewares/Third_Party/FreeRTOS/Source/timers.c **** and xCallbackParametersType respectively. */
  95:Middlewares/Third_Party/FreeRTOS/Source/timers.c **** typedef struct tmrTimerParameters
  96:Middlewares/Third_Party/FreeRTOS/Source/timers.c **** {
  97:Middlewares/Third_Party/FreeRTOS/Source/timers.c **** 	TickType_t			xMessageValue;		/*<< An optional value used by a subset of commands, for example, whe
  98:Middlewares/Third_Party/FreeRTOS/Source/timers.c **** 	Timer_t *			pxTimer;			/*<< The timer to which the command will be applied. */
  99:Middlewares/Third_Party/FreeRTOS/Source/timers.c **** } TimerParameter_t;
 100:Middlewares/Third_Party/FreeRTOS/Source/timers.c **** 
 101:Middlewares/Third_Party/FreeRTOS/Source/timers.c **** 
 102:Middlewares/Third_Party/FreeRTOS/Source/timers.c **** typedef struct tmrCallbackParameters
 103:Middlewares/Third_Party/FreeRTOS/Source/timers.c **** {
 104:Middlewares/Third_Party/FreeRTOS/Source/timers.c **** 	PendedFunction_t	pxCallbackFunction;	/* << The callback function to execute. */
 105:Middlewares/Third_Party/FreeRTOS/Source/timers.c **** 	void *pvParameter1;						/* << The value that will be used as the callback functions first paramet
 106:Middlewares/Third_Party/FreeRTOS/Source/timers.c **** 	uint32_t ulParameter2;					/* << The value that will be used as the callback functions second para
 107:Middlewares/Third_Party/FreeRTOS/Source/timers.c **** } CallbackParameters_t;
 108:Middlewares/Third_Party/FreeRTOS/Source/timers.c **** 
 109:Middlewares/Third_Party/FreeRTOS/Source/timers.c **** /* The structure that contains the two message types, along with an identifier
 110:Middlewares/Third_Party/FreeRTOS/Source/timers.c **** that is used to determine which message type is valid. */
 111:Middlewares/Third_Party/FreeRTOS/Source/timers.c **** typedef struct tmrTimerQueueMessage
 112:Middlewares/Third_Party/FreeRTOS/Source/timers.c **** {
 113:Middlewares/Third_Party/FreeRTOS/Source/timers.c **** 	BaseType_t			xMessageID;			/*<< The command being sent to the timer service task. */
 114:Middlewares/Third_Party/FreeRTOS/Source/timers.c **** 	union
 115:Middlewares/Third_Party/FreeRTOS/Source/timers.c **** 	{
 116:Middlewares/Third_Party/FreeRTOS/Source/timers.c **** 		TimerParameter_t xTimerParameters;
 117:Middlewares/Third_Party/FreeRTOS/Source/timers.c **** 
 118:Middlewares/Third_Party/FreeRTOS/Source/timers.c **** 		/* Don't include xCallbackParameters if it is not going to be used as
 119:Middlewares/Third_Party/FreeRTOS/Source/timers.c **** 		it makes the structure (and therefore the timer queue) larger. */
 120:Middlewares/Third_Party/FreeRTOS/Source/timers.c **** 		#if ( INCLUDE_xTimerPendFunctionCall == 1 )
 121:Middlewares/Third_Party/FreeRTOS/Source/timers.c **** 			CallbackParameters_t xCallbackParameters;
 122:Middlewares/Third_Party/FreeRTOS/Source/timers.c **** 		#endif /* INCLUDE_xTimerPendFunctionCall */
 123:Middlewares/Third_Party/FreeRTOS/Source/timers.c **** 	} u;
 124:Middlewares/Third_Party/FreeRTOS/Source/timers.c **** } DaemonTaskMessage_t;
 125:Middlewares/Third_Party/FreeRTOS/Source/timers.c **** 
 126:Middlewares/Third_Party/FreeRTOS/Source/timers.c **** /*lint -save -e956 A manual analysis and inspection has been used to determine
 127:Middlewares/Third_Party/FreeRTOS/Source/timers.c **** which static variables must be declared volatile. */
 128:Middlewares/Third_Party/FreeRTOS/Source/timers.c **** 
 129:Middlewares/Third_Party/FreeRTOS/Source/timers.c **** /* The list in which active timers are stored.  Timers are referenced in expire
 130:Middlewares/Third_Party/FreeRTOS/Source/timers.c **** time order, with the nearest expiry time at the front of the list.  Only the
 131:Middlewares/Third_Party/FreeRTOS/Source/timers.c **** timer service task is allowed to access these lists.
 132:Middlewares/Third_Party/FreeRTOS/Source/timers.c **** xActiveTimerList1 and xActiveTimerList2 could be at function scope but that
 133:Middlewares/Third_Party/FreeRTOS/Source/timers.c **** breaks some kernel aware debuggers, and debuggers that reply on removing the
 134:Middlewares/Third_Party/FreeRTOS/Source/timers.c **** static qualifier. */
 135:Middlewares/Third_Party/FreeRTOS/Source/timers.c **** PRIVILEGED_DATA static List_t xActiveTimerList1;
 136:Middlewares/Third_Party/FreeRTOS/Source/timers.c **** PRIVILEGED_DATA static List_t xActiveTimerList2;
 137:Middlewares/Third_Party/FreeRTOS/Source/timers.c **** PRIVILEGED_DATA static List_t *pxCurrentTimerList;
 138:Middlewares/Third_Party/FreeRTOS/Source/timers.c **** PRIVILEGED_DATA static List_t *pxOverflowTimerList;
 139:Middlewares/Third_Party/FreeRTOS/Source/timers.c **** 
 140:Middlewares/Third_Party/FreeRTOS/Source/timers.c **** /* A queue that is used to send commands to the timer service task. */
 141:Middlewares/Third_Party/FreeRTOS/Source/timers.c **** PRIVILEGED_DATA static QueueHandle_t xTimerQueue = NULL;
 142:Middlewares/Third_Party/FreeRTOS/Source/timers.c **** PRIVILEGED_DATA static TaskHandle_t xTimerTaskHandle = NULL;
 143:Middlewares/Third_Party/FreeRTOS/Source/timers.c **** 
 144:Middlewares/Third_Party/FreeRTOS/Source/timers.c **** /*lint -restore */
ARM GAS  /tmp/ccG38jLQ.s 			page 4


 145:Middlewares/Third_Party/FreeRTOS/Source/timers.c **** 
 146:Middlewares/Third_Party/FreeRTOS/Source/timers.c **** /*-----------------------------------------------------------*/
 147:Middlewares/Third_Party/FreeRTOS/Source/timers.c **** 
 148:Middlewares/Third_Party/FreeRTOS/Source/timers.c **** #if( configSUPPORT_STATIC_ALLOCATION == 1 )
 149:Middlewares/Third_Party/FreeRTOS/Source/timers.c **** 
 150:Middlewares/Third_Party/FreeRTOS/Source/timers.c **** 	/* If static allocation is supported then the application must provide the
 151:Middlewares/Third_Party/FreeRTOS/Source/timers.c **** 	following callback function - which enables the application to optionally
 152:Middlewares/Third_Party/FreeRTOS/Source/timers.c **** 	provide the memory that will be used by the timer task as the task's stack
 153:Middlewares/Third_Party/FreeRTOS/Source/timers.c **** 	and TCB. */
 154:Middlewares/Third_Party/FreeRTOS/Source/timers.c **** 	extern void vApplicationGetTimerTaskMemory( StaticTask_t **ppxTimerTaskTCBBuffer, StackType_t **pp
 155:Middlewares/Third_Party/FreeRTOS/Source/timers.c **** 
 156:Middlewares/Third_Party/FreeRTOS/Source/timers.c **** #endif
 157:Middlewares/Third_Party/FreeRTOS/Source/timers.c **** 
 158:Middlewares/Third_Party/FreeRTOS/Source/timers.c **** /*
 159:Middlewares/Third_Party/FreeRTOS/Source/timers.c ****  * Initialise the infrastructure used by the timer service task if it has not
 160:Middlewares/Third_Party/FreeRTOS/Source/timers.c ****  * been initialised already.
 161:Middlewares/Third_Party/FreeRTOS/Source/timers.c ****  */
 162:Middlewares/Third_Party/FreeRTOS/Source/timers.c **** static void prvCheckForValidListAndQueue( void ) PRIVILEGED_FUNCTION;
 163:Middlewares/Third_Party/FreeRTOS/Source/timers.c **** 
 164:Middlewares/Third_Party/FreeRTOS/Source/timers.c **** /*
 165:Middlewares/Third_Party/FreeRTOS/Source/timers.c ****  * The timer service task (daemon).  Timer functionality is controlled by this
 166:Middlewares/Third_Party/FreeRTOS/Source/timers.c ****  * task.  Other tasks communicate with the timer service task using the
 167:Middlewares/Third_Party/FreeRTOS/Source/timers.c ****  * xTimerQueue queue.
 168:Middlewares/Third_Party/FreeRTOS/Source/timers.c ****  */
 169:Middlewares/Third_Party/FreeRTOS/Source/timers.c **** static portTASK_FUNCTION_PROTO( prvTimerTask, pvParameters ) PRIVILEGED_FUNCTION;
 170:Middlewares/Third_Party/FreeRTOS/Source/timers.c **** 
 171:Middlewares/Third_Party/FreeRTOS/Source/timers.c **** /*
 172:Middlewares/Third_Party/FreeRTOS/Source/timers.c ****  * Called by the timer service task to interpret and process a command it
 173:Middlewares/Third_Party/FreeRTOS/Source/timers.c ****  * received on the timer queue.
 174:Middlewares/Third_Party/FreeRTOS/Source/timers.c ****  */
 175:Middlewares/Third_Party/FreeRTOS/Source/timers.c **** static void prvProcessReceivedCommands( void ) PRIVILEGED_FUNCTION;
 176:Middlewares/Third_Party/FreeRTOS/Source/timers.c **** 
 177:Middlewares/Third_Party/FreeRTOS/Source/timers.c **** /*
 178:Middlewares/Third_Party/FreeRTOS/Source/timers.c ****  * Insert the timer into either xActiveTimerList1, or xActiveTimerList2,
 179:Middlewares/Third_Party/FreeRTOS/Source/timers.c ****  * depending on if the expire time causes a timer counter overflow.
 180:Middlewares/Third_Party/FreeRTOS/Source/timers.c ****  */
 181:Middlewares/Third_Party/FreeRTOS/Source/timers.c **** static BaseType_t prvInsertTimerInActiveList( Timer_t * const pxTimer, const TickType_t xNextExpiry
 182:Middlewares/Third_Party/FreeRTOS/Source/timers.c **** 
 183:Middlewares/Third_Party/FreeRTOS/Source/timers.c **** /*
 184:Middlewares/Third_Party/FreeRTOS/Source/timers.c ****  * An active timer has reached its expire time.  Reload the timer if it is an
 185:Middlewares/Third_Party/FreeRTOS/Source/timers.c ****  * auto-reload timer, then call its callback.
 186:Middlewares/Third_Party/FreeRTOS/Source/timers.c ****  */
 187:Middlewares/Third_Party/FreeRTOS/Source/timers.c **** static void prvProcessExpiredTimer( const TickType_t xNextExpireTime, const TickType_t xTimeNow ) P
 188:Middlewares/Third_Party/FreeRTOS/Source/timers.c **** 
 189:Middlewares/Third_Party/FreeRTOS/Source/timers.c **** /*
 190:Middlewares/Third_Party/FreeRTOS/Source/timers.c ****  * The tick count has overflowed.  Switch the timer lists after ensuring the
 191:Middlewares/Third_Party/FreeRTOS/Source/timers.c ****  * current timer list does not still reference some timers.
 192:Middlewares/Third_Party/FreeRTOS/Source/timers.c ****  */
 193:Middlewares/Third_Party/FreeRTOS/Source/timers.c **** static void prvSwitchTimerLists( void ) PRIVILEGED_FUNCTION;
 194:Middlewares/Third_Party/FreeRTOS/Source/timers.c **** 
 195:Middlewares/Third_Party/FreeRTOS/Source/timers.c **** /*
 196:Middlewares/Third_Party/FreeRTOS/Source/timers.c ****  * Obtain the current tick count, setting *pxTimerListsWereSwitched to pdTRUE
 197:Middlewares/Third_Party/FreeRTOS/Source/timers.c ****  * if a tick count overflow occurred since prvSampleTimeNow() was last called.
 198:Middlewares/Third_Party/FreeRTOS/Source/timers.c ****  */
 199:Middlewares/Third_Party/FreeRTOS/Source/timers.c **** static TickType_t prvSampleTimeNow( BaseType_t * const pxTimerListsWereSwitched ) PRIVILEGED_FUNCTI
 200:Middlewares/Third_Party/FreeRTOS/Source/timers.c **** 
 201:Middlewares/Third_Party/FreeRTOS/Source/timers.c **** /*
ARM GAS  /tmp/ccG38jLQ.s 			page 5


 202:Middlewares/Third_Party/FreeRTOS/Source/timers.c ****  * If the timer list contains any active timers then return the expire time of
 203:Middlewares/Third_Party/FreeRTOS/Source/timers.c ****  * the timer that will expire first and set *pxListWasEmpty to false.  If the
 204:Middlewares/Third_Party/FreeRTOS/Source/timers.c ****  * timer list does not contain any timers then return 0 and set *pxListWasEmpty
 205:Middlewares/Third_Party/FreeRTOS/Source/timers.c ****  * to pdTRUE.
 206:Middlewares/Third_Party/FreeRTOS/Source/timers.c ****  */
 207:Middlewares/Third_Party/FreeRTOS/Source/timers.c **** static TickType_t prvGetNextExpireTime( BaseType_t * const pxListWasEmpty ) PRIVILEGED_FUNCTION;
 208:Middlewares/Third_Party/FreeRTOS/Source/timers.c **** 
 209:Middlewares/Third_Party/FreeRTOS/Source/timers.c **** /*
 210:Middlewares/Third_Party/FreeRTOS/Source/timers.c ****  * If a timer has expired, process it.  Otherwise, block the timer service task
 211:Middlewares/Third_Party/FreeRTOS/Source/timers.c ****  * until either a timer does expire or a command is received.
 212:Middlewares/Third_Party/FreeRTOS/Source/timers.c ****  */
 213:Middlewares/Third_Party/FreeRTOS/Source/timers.c **** static void prvProcessTimerOrBlockTask( const TickType_t xNextExpireTime, BaseType_t xListWasEmpty 
 214:Middlewares/Third_Party/FreeRTOS/Source/timers.c **** 
 215:Middlewares/Third_Party/FreeRTOS/Source/timers.c **** /*
 216:Middlewares/Third_Party/FreeRTOS/Source/timers.c ****  * Called after a Timer_t structure has been allocated either statically or
 217:Middlewares/Third_Party/FreeRTOS/Source/timers.c ****  * dynamically to fill in the structure's members.
 218:Middlewares/Third_Party/FreeRTOS/Source/timers.c ****  */
 219:Middlewares/Third_Party/FreeRTOS/Source/timers.c **** static void prvInitialiseNewTimer(	const char * const pcTimerName,			/*lint !e971 Unqualified char 
 220:Middlewares/Third_Party/FreeRTOS/Source/timers.c **** 									const TickType_t xTimerPeriodInTicks,
 221:Middlewares/Third_Party/FreeRTOS/Source/timers.c **** 									const UBaseType_t uxAutoReload,
 222:Middlewares/Third_Party/FreeRTOS/Source/timers.c **** 									void * const pvTimerID,
 223:Middlewares/Third_Party/FreeRTOS/Source/timers.c **** 									TimerCallbackFunction_t pxCallbackFunction,
 224:Middlewares/Third_Party/FreeRTOS/Source/timers.c **** 									Timer_t *pxNewTimer ) PRIVILEGED_FUNCTION;
 225:Middlewares/Third_Party/FreeRTOS/Source/timers.c **** /*-----------------------------------------------------------*/
 226:Middlewares/Third_Party/FreeRTOS/Source/timers.c **** 
 227:Middlewares/Third_Party/FreeRTOS/Source/timers.c **** BaseType_t xTimerCreateTimerTask( void )
 228:Middlewares/Third_Party/FreeRTOS/Source/timers.c **** {
 229:Middlewares/Third_Party/FreeRTOS/Source/timers.c **** BaseType_t xReturn = pdFAIL;
 230:Middlewares/Third_Party/FreeRTOS/Source/timers.c **** 
 231:Middlewares/Third_Party/FreeRTOS/Source/timers.c **** 	/* This function is called when the scheduler is started if
 232:Middlewares/Third_Party/FreeRTOS/Source/timers.c **** 	configUSE_TIMERS is set to 1.  Check that the infrastructure used by the
 233:Middlewares/Third_Party/FreeRTOS/Source/timers.c **** 	timer service task has been created/initialised.  If timers have already
 234:Middlewares/Third_Party/FreeRTOS/Source/timers.c **** 	been created then the initialisation will already have been performed. */
 235:Middlewares/Third_Party/FreeRTOS/Source/timers.c **** 	prvCheckForValidListAndQueue();
 236:Middlewares/Third_Party/FreeRTOS/Source/timers.c **** 
 237:Middlewares/Third_Party/FreeRTOS/Source/timers.c **** 	if( xTimerQueue != NULL )
 238:Middlewares/Third_Party/FreeRTOS/Source/timers.c **** 	{
 239:Middlewares/Third_Party/FreeRTOS/Source/timers.c **** 		#if( configSUPPORT_STATIC_ALLOCATION == 1 )
 240:Middlewares/Third_Party/FreeRTOS/Source/timers.c **** 		{
 241:Middlewares/Third_Party/FreeRTOS/Source/timers.c **** 			StaticTask_t *pxTimerTaskTCBBuffer = NULL;
 242:Middlewares/Third_Party/FreeRTOS/Source/timers.c **** 			StackType_t *pxTimerTaskStackBuffer = NULL;
 243:Middlewares/Third_Party/FreeRTOS/Source/timers.c **** 			uint32_t ulTimerTaskStackSize;
 244:Middlewares/Third_Party/FreeRTOS/Source/timers.c **** 
 245:Middlewares/Third_Party/FreeRTOS/Source/timers.c **** 			vApplicationGetTimerTaskMemory( &pxTimerTaskTCBBuffer, &pxTimerTaskStackBuffer, &ulTimerTaskStac
 246:Middlewares/Third_Party/FreeRTOS/Source/timers.c **** 			xTimerTaskHandle = xTaskCreateStatic(	prvTimerTask,
 247:Middlewares/Third_Party/FreeRTOS/Source/timers.c **** 													configTIMER_SERVICE_TASK_NAME,
 248:Middlewares/Third_Party/FreeRTOS/Source/timers.c **** 													ulTimerTaskStackSize,
 249:Middlewares/Third_Party/FreeRTOS/Source/timers.c **** 													NULL,
 250:Middlewares/Third_Party/FreeRTOS/Source/timers.c **** 													( ( UBaseType_t ) configTIMER_TASK_PRIORITY ) | portPRIVILEGE_BIT,
 251:Middlewares/Third_Party/FreeRTOS/Source/timers.c **** 													pxTimerTaskStackBuffer,
 252:Middlewares/Third_Party/FreeRTOS/Source/timers.c **** 													pxTimerTaskTCBBuffer );
 253:Middlewares/Third_Party/FreeRTOS/Source/timers.c **** 
 254:Middlewares/Third_Party/FreeRTOS/Source/timers.c **** 			if( xTimerTaskHandle != NULL )
 255:Middlewares/Third_Party/FreeRTOS/Source/timers.c **** 			{
 256:Middlewares/Third_Party/FreeRTOS/Source/timers.c **** 				xReturn = pdPASS;
 257:Middlewares/Third_Party/FreeRTOS/Source/timers.c **** 			}
 258:Middlewares/Third_Party/FreeRTOS/Source/timers.c **** 		}
ARM GAS  /tmp/ccG38jLQ.s 			page 6


 259:Middlewares/Third_Party/FreeRTOS/Source/timers.c **** 		#else
 260:Middlewares/Third_Party/FreeRTOS/Source/timers.c **** 		{
 261:Middlewares/Third_Party/FreeRTOS/Source/timers.c **** 			xReturn = xTaskCreate(	prvTimerTask,
 262:Middlewares/Third_Party/FreeRTOS/Source/timers.c **** 									configTIMER_SERVICE_TASK_NAME,
 263:Middlewares/Third_Party/FreeRTOS/Source/timers.c **** 									configTIMER_TASK_STACK_DEPTH,
 264:Middlewares/Third_Party/FreeRTOS/Source/timers.c **** 									NULL,
 265:Middlewares/Third_Party/FreeRTOS/Source/timers.c **** 									( ( UBaseType_t ) configTIMER_TASK_PRIORITY ) | portPRIVILEGE_BIT,
 266:Middlewares/Third_Party/FreeRTOS/Source/timers.c **** 									&xTimerTaskHandle );
 267:Middlewares/Third_Party/FreeRTOS/Source/timers.c **** 		}
 268:Middlewares/Third_Party/FreeRTOS/Source/timers.c **** 		#endif /* configSUPPORT_STATIC_ALLOCATION */
 269:Middlewares/Third_Party/FreeRTOS/Source/timers.c **** 	}
 270:Middlewares/Third_Party/FreeRTOS/Source/timers.c **** 	else
 271:Middlewares/Third_Party/FreeRTOS/Source/timers.c **** 	{
 272:Middlewares/Third_Party/FreeRTOS/Source/timers.c **** 		mtCOVERAGE_TEST_MARKER();
 273:Middlewares/Third_Party/FreeRTOS/Source/timers.c **** 	}
 274:Middlewares/Third_Party/FreeRTOS/Source/timers.c **** 
 275:Middlewares/Third_Party/FreeRTOS/Source/timers.c **** 	configASSERT( xReturn );
 276:Middlewares/Third_Party/FreeRTOS/Source/timers.c **** 	return xReturn;
 277:Middlewares/Third_Party/FreeRTOS/Source/timers.c **** }
 278:Middlewares/Third_Party/FreeRTOS/Source/timers.c **** /*-----------------------------------------------------------*/
 279:Middlewares/Third_Party/FreeRTOS/Source/timers.c **** 
 280:Middlewares/Third_Party/FreeRTOS/Source/timers.c **** #if( configSUPPORT_DYNAMIC_ALLOCATION == 1 )
 281:Middlewares/Third_Party/FreeRTOS/Source/timers.c **** 
 282:Middlewares/Third_Party/FreeRTOS/Source/timers.c **** 	TimerHandle_t xTimerCreate(	const char * const pcTimerName,			/*lint !e971 Unqualified char types 
 283:Middlewares/Third_Party/FreeRTOS/Source/timers.c **** 								const TickType_t xTimerPeriodInTicks,
 284:Middlewares/Third_Party/FreeRTOS/Source/timers.c **** 								const UBaseType_t uxAutoReload,
 285:Middlewares/Third_Party/FreeRTOS/Source/timers.c **** 								void * const pvTimerID,
 286:Middlewares/Third_Party/FreeRTOS/Source/timers.c **** 								TimerCallbackFunction_t pxCallbackFunction )
 287:Middlewares/Third_Party/FreeRTOS/Source/timers.c **** 	{
 288:Middlewares/Third_Party/FreeRTOS/Source/timers.c **** 	Timer_t *pxNewTimer;
 289:Middlewares/Third_Party/FreeRTOS/Source/timers.c **** 
 290:Middlewares/Third_Party/FreeRTOS/Source/timers.c **** 		pxNewTimer = ( Timer_t * ) pvPortMalloc( sizeof( Timer_t ) ); /*lint !e9087 !e9079 All values ret
 291:Middlewares/Third_Party/FreeRTOS/Source/timers.c **** 
 292:Middlewares/Third_Party/FreeRTOS/Source/timers.c **** 		if( pxNewTimer != NULL )
 293:Middlewares/Third_Party/FreeRTOS/Source/timers.c **** 		{
 294:Middlewares/Third_Party/FreeRTOS/Source/timers.c **** 			/* Status is thus far zero as the timer is not created statically
 295:Middlewares/Third_Party/FreeRTOS/Source/timers.c **** 			and has not been started.  The auto-reload bit may get set in
 296:Middlewares/Third_Party/FreeRTOS/Source/timers.c **** 			prvInitialiseNewTimer. */
 297:Middlewares/Third_Party/FreeRTOS/Source/timers.c **** 			pxNewTimer->ucStatus = 0x00;
 298:Middlewares/Third_Party/FreeRTOS/Source/timers.c **** 			prvInitialiseNewTimer( pcTimerName, xTimerPeriodInTicks, uxAutoReload, pvTimerID, pxCallbackFunc
 299:Middlewares/Third_Party/FreeRTOS/Source/timers.c **** 		}
 300:Middlewares/Third_Party/FreeRTOS/Source/timers.c **** 
 301:Middlewares/Third_Party/FreeRTOS/Source/timers.c **** 		return pxNewTimer;
 302:Middlewares/Third_Party/FreeRTOS/Source/timers.c **** 	}
 303:Middlewares/Third_Party/FreeRTOS/Source/timers.c **** 
 304:Middlewares/Third_Party/FreeRTOS/Source/timers.c **** #endif /* configSUPPORT_DYNAMIC_ALLOCATION */
 305:Middlewares/Third_Party/FreeRTOS/Source/timers.c **** /*-----------------------------------------------------------*/
 306:Middlewares/Third_Party/FreeRTOS/Source/timers.c **** 
 307:Middlewares/Third_Party/FreeRTOS/Source/timers.c **** #if( configSUPPORT_STATIC_ALLOCATION == 1 )
 308:Middlewares/Third_Party/FreeRTOS/Source/timers.c **** 
 309:Middlewares/Third_Party/FreeRTOS/Source/timers.c **** 	TimerHandle_t xTimerCreateStatic(	const char * const pcTimerName,		/*lint !e971 Unqualified char t
 310:Middlewares/Third_Party/FreeRTOS/Source/timers.c **** 										const TickType_t xTimerPeriodInTicks,
 311:Middlewares/Third_Party/FreeRTOS/Source/timers.c **** 										const UBaseType_t uxAutoReload,
 312:Middlewares/Third_Party/FreeRTOS/Source/timers.c **** 										void * const pvTimerID,
 313:Middlewares/Third_Party/FreeRTOS/Source/timers.c **** 										TimerCallbackFunction_t pxCallbackFunction,
 314:Middlewares/Third_Party/FreeRTOS/Source/timers.c **** 										StaticTimer_t *pxTimerBuffer )
 315:Middlewares/Third_Party/FreeRTOS/Source/timers.c **** 	{
ARM GAS  /tmp/ccG38jLQ.s 			page 7


 316:Middlewares/Third_Party/FreeRTOS/Source/timers.c **** 	Timer_t *pxNewTimer;
 317:Middlewares/Third_Party/FreeRTOS/Source/timers.c **** 
 318:Middlewares/Third_Party/FreeRTOS/Source/timers.c **** 		#if( configASSERT_DEFINED == 1 )
 319:Middlewares/Third_Party/FreeRTOS/Source/timers.c **** 		{
 320:Middlewares/Third_Party/FreeRTOS/Source/timers.c **** 			/* Sanity check that the size of the structure used to declare a
 321:Middlewares/Third_Party/FreeRTOS/Source/timers.c **** 			variable of type StaticTimer_t equals the size of the real timer
 322:Middlewares/Third_Party/FreeRTOS/Source/timers.c **** 			structure. */
 323:Middlewares/Third_Party/FreeRTOS/Source/timers.c **** 			volatile size_t xSize = sizeof( StaticTimer_t );
 324:Middlewares/Third_Party/FreeRTOS/Source/timers.c **** 			configASSERT( xSize == sizeof( Timer_t ) );
 325:Middlewares/Third_Party/FreeRTOS/Source/timers.c **** 			( void ) xSize; /* Keeps lint quiet when configASSERT() is not defined. */
 326:Middlewares/Third_Party/FreeRTOS/Source/timers.c **** 		}
 327:Middlewares/Third_Party/FreeRTOS/Source/timers.c **** 		#endif /* configASSERT_DEFINED */
 328:Middlewares/Third_Party/FreeRTOS/Source/timers.c **** 
 329:Middlewares/Third_Party/FreeRTOS/Source/timers.c **** 		/* A pointer to a StaticTimer_t structure MUST be provided, use it. */
 330:Middlewares/Third_Party/FreeRTOS/Source/timers.c **** 		configASSERT( pxTimerBuffer );
 331:Middlewares/Third_Party/FreeRTOS/Source/timers.c **** 		pxNewTimer = ( Timer_t * ) pxTimerBuffer; /*lint !e740 !e9087 StaticTimer_t is a pointer to a Tim
 332:Middlewares/Third_Party/FreeRTOS/Source/timers.c **** 
 333:Middlewares/Third_Party/FreeRTOS/Source/timers.c **** 		if( pxNewTimer != NULL )
 334:Middlewares/Third_Party/FreeRTOS/Source/timers.c **** 		{
 335:Middlewares/Third_Party/FreeRTOS/Source/timers.c **** 			/* Timers can be created statically or dynamically so note this
 336:Middlewares/Third_Party/FreeRTOS/Source/timers.c **** 			timer was created statically in case it is later deleted.  The
 337:Middlewares/Third_Party/FreeRTOS/Source/timers.c **** 			auto-reload bit may get set in prvInitialiseNewTimer(). */
 338:Middlewares/Third_Party/FreeRTOS/Source/timers.c **** 			pxNewTimer->ucStatus = tmrSTATUS_IS_STATICALLY_ALLOCATED;
 339:Middlewares/Third_Party/FreeRTOS/Source/timers.c **** 
 340:Middlewares/Third_Party/FreeRTOS/Source/timers.c **** 			prvInitialiseNewTimer( pcTimerName, xTimerPeriodInTicks, uxAutoReload, pvTimerID, pxCallbackFunc
 341:Middlewares/Third_Party/FreeRTOS/Source/timers.c **** 		}
 342:Middlewares/Third_Party/FreeRTOS/Source/timers.c **** 
 343:Middlewares/Third_Party/FreeRTOS/Source/timers.c **** 		return pxNewTimer;
 344:Middlewares/Third_Party/FreeRTOS/Source/timers.c **** 	}
 345:Middlewares/Third_Party/FreeRTOS/Source/timers.c **** 
 346:Middlewares/Third_Party/FreeRTOS/Source/timers.c **** #endif /* configSUPPORT_STATIC_ALLOCATION */
 347:Middlewares/Third_Party/FreeRTOS/Source/timers.c **** /*-----------------------------------------------------------*/
 348:Middlewares/Third_Party/FreeRTOS/Source/timers.c **** 
 349:Middlewares/Third_Party/FreeRTOS/Source/timers.c **** static void prvInitialiseNewTimer(	const char * const pcTimerName,			/*lint !e971 Unqualified char 
 350:Middlewares/Third_Party/FreeRTOS/Source/timers.c **** 									const TickType_t xTimerPeriodInTicks,
 351:Middlewares/Third_Party/FreeRTOS/Source/timers.c **** 									const UBaseType_t uxAutoReload,
 352:Middlewares/Third_Party/FreeRTOS/Source/timers.c **** 									void * const pvTimerID,
 353:Middlewares/Third_Party/FreeRTOS/Source/timers.c **** 									TimerCallbackFunction_t pxCallbackFunction,
 354:Middlewares/Third_Party/FreeRTOS/Source/timers.c **** 									Timer_t *pxNewTimer )
 355:Middlewares/Third_Party/FreeRTOS/Source/timers.c **** {
 356:Middlewares/Third_Party/FreeRTOS/Source/timers.c **** 	/* 0 is not a valid value for xTimerPeriodInTicks. */
 357:Middlewares/Third_Party/FreeRTOS/Source/timers.c **** 	configASSERT( ( xTimerPeriodInTicks > 0 ) );
 358:Middlewares/Third_Party/FreeRTOS/Source/timers.c **** 
 359:Middlewares/Third_Party/FreeRTOS/Source/timers.c **** 	if( pxNewTimer != NULL )
 360:Middlewares/Third_Party/FreeRTOS/Source/timers.c **** 	{
 361:Middlewares/Third_Party/FreeRTOS/Source/timers.c **** 		/* Ensure the infrastructure used by the timer service task has been
 362:Middlewares/Third_Party/FreeRTOS/Source/timers.c **** 		created/initialised. */
 363:Middlewares/Third_Party/FreeRTOS/Source/timers.c **** 		prvCheckForValidListAndQueue();
 364:Middlewares/Third_Party/FreeRTOS/Source/timers.c **** 
 365:Middlewares/Third_Party/FreeRTOS/Source/timers.c **** 		/* Initialise the timer structure members using the function
 366:Middlewares/Third_Party/FreeRTOS/Source/timers.c **** 		parameters. */
 367:Middlewares/Third_Party/FreeRTOS/Source/timers.c **** 		pxNewTimer->pcTimerName = pcTimerName;
 368:Middlewares/Third_Party/FreeRTOS/Source/timers.c **** 		pxNewTimer->xTimerPeriodInTicks = xTimerPeriodInTicks;
 369:Middlewares/Third_Party/FreeRTOS/Source/timers.c **** 		pxNewTimer->pvTimerID = pvTimerID;
 370:Middlewares/Third_Party/FreeRTOS/Source/timers.c **** 		pxNewTimer->pxCallbackFunction = pxCallbackFunction;
 371:Middlewares/Third_Party/FreeRTOS/Source/timers.c **** 		vListInitialiseItem( &( pxNewTimer->xTimerListItem ) );
 372:Middlewares/Third_Party/FreeRTOS/Source/timers.c **** 		if( uxAutoReload != pdFALSE )
ARM GAS  /tmp/ccG38jLQ.s 			page 8


 373:Middlewares/Third_Party/FreeRTOS/Source/timers.c **** 		{
 374:Middlewares/Third_Party/FreeRTOS/Source/timers.c **** 			pxNewTimer->ucStatus |= tmrSTATUS_IS_AUTORELOAD;
 375:Middlewares/Third_Party/FreeRTOS/Source/timers.c **** 		}
 376:Middlewares/Third_Party/FreeRTOS/Source/timers.c **** 		traceTIMER_CREATE( pxNewTimer );
 377:Middlewares/Third_Party/FreeRTOS/Source/timers.c **** 	}
 378:Middlewares/Third_Party/FreeRTOS/Source/timers.c **** }
 379:Middlewares/Third_Party/FreeRTOS/Source/timers.c **** /*-----------------------------------------------------------*/
 380:Middlewares/Third_Party/FreeRTOS/Source/timers.c **** 
 381:Middlewares/Third_Party/FreeRTOS/Source/timers.c **** BaseType_t xTimerGenericCommand( TimerHandle_t xTimer, const BaseType_t xCommandID, const TickType_
 382:Middlewares/Third_Party/FreeRTOS/Source/timers.c **** {
 383:Middlewares/Third_Party/FreeRTOS/Source/timers.c **** BaseType_t xReturn = pdFAIL;
 384:Middlewares/Third_Party/FreeRTOS/Source/timers.c **** DaemonTaskMessage_t xMessage;
 385:Middlewares/Third_Party/FreeRTOS/Source/timers.c **** 
 386:Middlewares/Third_Party/FreeRTOS/Source/timers.c **** 	configASSERT( xTimer );
 387:Middlewares/Third_Party/FreeRTOS/Source/timers.c **** 
 388:Middlewares/Third_Party/FreeRTOS/Source/timers.c **** 	/* Send a message to the timer service task to perform a particular action
 389:Middlewares/Third_Party/FreeRTOS/Source/timers.c **** 	on a particular timer definition. */
 390:Middlewares/Third_Party/FreeRTOS/Source/timers.c **** 	if( xTimerQueue != NULL )
 391:Middlewares/Third_Party/FreeRTOS/Source/timers.c **** 	{
 392:Middlewares/Third_Party/FreeRTOS/Source/timers.c **** 		/* Send a command to the timer service task to start the xTimer timer. */
 393:Middlewares/Third_Party/FreeRTOS/Source/timers.c **** 		xMessage.xMessageID = xCommandID;
 394:Middlewares/Third_Party/FreeRTOS/Source/timers.c **** 		xMessage.u.xTimerParameters.xMessageValue = xOptionalValue;
 395:Middlewares/Third_Party/FreeRTOS/Source/timers.c **** 		xMessage.u.xTimerParameters.pxTimer = xTimer;
 396:Middlewares/Third_Party/FreeRTOS/Source/timers.c **** 
 397:Middlewares/Third_Party/FreeRTOS/Source/timers.c **** 		if( xCommandID < tmrFIRST_FROM_ISR_COMMAND )
 398:Middlewares/Third_Party/FreeRTOS/Source/timers.c **** 		{
 399:Middlewares/Third_Party/FreeRTOS/Source/timers.c **** 			if( xTaskGetSchedulerState() == taskSCHEDULER_RUNNING )
 400:Middlewares/Third_Party/FreeRTOS/Source/timers.c **** 			{
 401:Middlewares/Third_Party/FreeRTOS/Source/timers.c **** 				xReturn = xQueueSendToBack( xTimerQueue, &xMessage, xTicksToWait );
 402:Middlewares/Third_Party/FreeRTOS/Source/timers.c **** 			}
 403:Middlewares/Third_Party/FreeRTOS/Source/timers.c **** 			else
 404:Middlewares/Third_Party/FreeRTOS/Source/timers.c **** 			{
 405:Middlewares/Third_Party/FreeRTOS/Source/timers.c **** 				xReturn = xQueueSendToBack( xTimerQueue, &xMessage, tmrNO_DELAY );
 406:Middlewares/Third_Party/FreeRTOS/Source/timers.c **** 			}
 407:Middlewares/Third_Party/FreeRTOS/Source/timers.c **** 		}
 408:Middlewares/Third_Party/FreeRTOS/Source/timers.c **** 		else
 409:Middlewares/Third_Party/FreeRTOS/Source/timers.c **** 		{
 410:Middlewares/Third_Party/FreeRTOS/Source/timers.c **** 			xReturn = xQueueSendToBackFromISR( xTimerQueue, &xMessage, pxHigherPriorityTaskWoken );
 411:Middlewares/Third_Party/FreeRTOS/Source/timers.c **** 		}
 412:Middlewares/Third_Party/FreeRTOS/Source/timers.c **** 
 413:Middlewares/Third_Party/FreeRTOS/Source/timers.c **** 		traceTIMER_COMMAND_SEND( xTimer, xCommandID, xOptionalValue, xReturn );
 414:Middlewares/Third_Party/FreeRTOS/Source/timers.c **** 	}
 415:Middlewares/Third_Party/FreeRTOS/Source/timers.c **** 	else
 416:Middlewares/Third_Party/FreeRTOS/Source/timers.c **** 	{
 417:Middlewares/Third_Party/FreeRTOS/Source/timers.c **** 		mtCOVERAGE_TEST_MARKER();
 418:Middlewares/Third_Party/FreeRTOS/Source/timers.c **** 	}
 419:Middlewares/Third_Party/FreeRTOS/Source/timers.c **** 
 420:Middlewares/Third_Party/FreeRTOS/Source/timers.c **** 	return xReturn;
 421:Middlewares/Third_Party/FreeRTOS/Source/timers.c **** }
 422:Middlewares/Third_Party/FreeRTOS/Source/timers.c **** /*-----------------------------------------------------------*/
 423:Middlewares/Third_Party/FreeRTOS/Source/timers.c **** 
 424:Middlewares/Third_Party/FreeRTOS/Source/timers.c **** TaskHandle_t xTimerGetTimerDaemonTaskHandle( void )
 425:Middlewares/Third_Party/FreeRTOS/Source/timers.c **** {
 426:Middlewares/Third_Party/FreeRTOS/Source/timers.c **** 	/* If xTimerGetTimerDaemonTaskHandle() is called before the scheduler has been
 427:Middlewares/Third_Party/FreeRTOS/Source/timers.c **** 	started, then xTimerTaskHandle will be NULL. */
 428:Middlewares/Third_Party/FreeRTOS/Source/timers.c **** 	configASSERT( ( xTimerTaskHandle != NULL ) );
 429:Middlewares/Third_Party/FreeRTOS/Source/timers.c **** 	return xTimerTaskHandle;
ARM GAS  /tmp/ccG38jLQ.s 			page 9


 430:Middlewares/Third_Party/FreeRTOS/Source/timers.c **** }
 431:Middlewares/Third_Party/FreeRTOS/Source/timers.c **** /*-----------------------------------------------------------*/
 432:Middlewares/Third_Party/FreeRTOS/Source/timers.c **** 
 433:Middlewares/Third_Party/FreeRTOS/Source/timers.c **** TickType_t xTimerGetPeriod( TimerHandle_t xTimer )
 434:Middlewares/Third_Party/FreeRTOS/Source/timers.c **** {
 435:Middlewares/Third_Party/FreeRTOS/Source/timers.c **** Timer_t *pxTimer = xTimer;
 436:Middlewares/Third_Party/FreeRTOS/Source/timers.c **** 
 437:Middlewares/Third_Party/FreeRTOS/Source/timers.c **** 	configASSERT( xTimer );
 438:Middlewares/Third_Party/FreeRTOS/Source/timers.c **** 	return pxTimer->xTimerPeriodInTicks;
 439:Middlewares/Third_Party/FreeRTOS/Source/timers.c **** }
 440:Middlewares/Third_Party/FreeRTOS/Source/timers.c **** /*-----------------------------------------------------------*/
 441:Middlewares/Third_Party/FreeRTOS/Source/timers.c **** 
 442:Middlewares/Third_Party/FreeRTOS/Source/timers.c **** void vTimerSetReloadMode( TimerHandle_t xTimer, const UBaseType_t uxAutoReload )
 443:Middlewares/Third_Party/FreeRTOS/Source/timers.c **** {
 444:Middlewares/Third_Party/FreeRTOS/Source/timers.c **** Timer_t * pxTimer =  xTimer;
 445:Middlewares/Third_Party/FreeRTOS/Source/timers.c **** 
 446:Middlewares/Third_Party/FreeRTOS/Source/timers.c **** 	configASSERT( xTimer );
 447:Middlewares/Third_Party/FreeRTOS/Source/timers.c **** 	taskENTER_CRITICAL();
 448:Middlewares/Third_Party/FreeRTOS/Source/timers.c **** 	{
 449:Middlewares/Third_Party/FreeRTOS/Source/timers.c **** 		if( uxAutoReload != pdFALSE )
 450:Middlewares/Third_Party/FreeRTOS/Source/timers.c **** 		{
 451:Middlewares/Third_Party/FreeRTOS/Source/timers.c **** 			pxTimer->ucStatus |= tmrSTATUS_IS_AUTORELOAD;
 452:Middlewares/Third_Party/FreeRTOS/Source/timers.c **** 		}
 453:Middlewares/Third_Party/FreeRTOS/Source/timers.c **** 		else
 454:Middlewares/Third_Party/FreeRTOS/Source/timers.c **** 		{
 455:Middlewares/Third_Party/FreeRTOS/Source/timers.c **** 			pxTimer->ucStatus &= ~tmrSTATUS_IS_AUTORELOAD;
 456:Middlewares/Third_Party/FreeRTOS/Source/timers.c **** 		}
 457:Middlewares/Third_Party/FreeRTOS/Source/timers.c **** 	}
 458:Middlewares/Third_Party/FreeRTOS/Source/timers.c **** 	taskEXIT_CRITICAL();
 459:Middlewares/Third_Party/FreeRTOS/Source/timers.c **** }
 460:Middlewares/Third_Party/FreeRTOS/Source/timers.c **** /*-----------------------------------------------------------*/
 461:Middlewares/Third_Party/FreeRTOS/Source/timers.c **** 
 462:Middlewares/Third_Party/FreeRTOS/Source/timers.c **** UBaseType_t uxTimerGetReloadMode( TimerHandle_t xTimer )
 463:Middlewares/Third_Party/FreeRTOS/Source/timers.c **** {
 464:Middlewares/Third_Party/FreeRTOS/Source/timers.c **** Timer_t * pxTimer =  xTimer;
 465:Middlewares/Third_Party/FreeRTOS/Source/timers.c **** UBaseType_t uxReturn;
 466:Middlewares/Third_Party/FreeRTOS/Source/timers.c **** 
 467:Middlewares/Third_Party/FreeRTOS/Source/timers.c **** 	configASSERT( xTimer );
 468:Middlewares/Third_Party/FreeRTOS/Source/timers.c **** 	taskENTER_CRITICAL();
 469:Middlewares/Third_Party/FreeRTOS/Source/timers.c **** 	{
 470:Middlewares/Third_Party/FreeRTOS/Source/timers.c **** 		if( ( pxTimer->ucStatus & tmrSTATUS_IS_AUTORELOAD ) == 0 )
 471:Middlewares/Third_Party/FreeRTOS/Source/timers.c **** 		{
 472:Middlewares/Third_Party/FreeRTOS/Source/timers.c **** 			/* Not an auto-reload timer. */
 473:Middlewares/Third_Party/FreeRTOS/Source/timers.c **** 			uxReturn = ( UBaseType_t ) pdFALSE;
 474:Middlewares/Third_Party/FreeRTOS/Source/timers.c **** 		}
 475:Middlewares/Third_Party/FreeRTOS/Source/timers.c **** 		else
 476:Middlewares/Third_Party/FreeRTOS/Source/timers.c **** 		{
 477:Middlewares/Third_Party/FreeRTOS/Source/timers.c **** 			/* Is an auto-reload timer. */
 478:Middlewares/Third_Party/FreeRTOS/Source/timers.c **** 			uxReturn = ( UBaseType_t ) pdTRUE;
 479:Middlewares/Third_Party/FreeRTOS/Source/timers.c **** 		}
 480:Middlewares/Third_Party/FreeRTOS/Source/timers.c **** 	}
 481:Middlewares/Third_Party/FreeRTOS/Source/timers.c **** 	taskEXIT_CRITICAL();
 482:Middlewares/Third_Party/FreeRTOS/Source/timers.c **** 
 483:Middlewares/Third_Party/FreeRTOS/Source/timers.c **** 	return uxReturn;
 484:Middlewares/Third_Party/FreeRTOS/Source/timers.c **** }
 485:Middlewares/Third_Party/FreeRTOS/Source/timers.c **** /*-----------------------------------------------------------*/
 486:Middlewares/Third_Party/FreeRTOS/Source/timers.c **** 
ARM GAS  /tmp/ccG38jLQ.s 			page 10


 487:Middlewares/Third_Party/FreeRTOS/Source/timers.c **** TickType_t xTimerGetExpiryTime( TimerHandle_t xTimer )
 488:Middlewares/Third_Party/FreeRTOS/Source/timers.c **** {
 489:Middlewares/Third_Party/FreeRTOS/Source/timers.c **** Timer_t * pxTimer =  xTimer;
 490:Middlewares/Third_Party/FreeRTOS/Source/timers.c **** TickType_t xReturn;
 491:Middlewares/Third_Party/FreeRTOS/Source/timers.c **** 
 492:Middlewares/Third_Party/FreeRTOS/Source/timers.c **** 	configASSERT( xTimer );
 493:Middlewares/Third_Party/FreeRTOS/Source/timers.c **** 	xReturn = listGET_LIST_ITEM_VALUE( &( pxTimer->xTimerListItem ) );
 494:Middlewares/Third_Party/FreeRTOS/Source/timers.c **** 	return xReturn;
 495:Middlewares/Third_Party/FreeRTOS/Source/timers.c **** }
 496:Middlewares/Third_Party/FreeRTOS/Source/timers.c **** /*-----------------------------------------------------------*/
 497:Middlewares/Third_Party/FreeRTOS/Source/timers.c **** 
 498:Middlewares/Third_Party/FreeRTOS/Source/timers.c **** const char * pcTimerGetName( TimerHandle_t xTimer ) /*lint !e971 Unqualified char types are allowed
 499:Middlewares/Third_Party/FreeRTOS/Source/timers.c **** {
 500:Middlewares/Third_Party/FreeRTOS/Source/timers.c **** Timer_t *pxTimer = xTimer;
 501:Middlewares/Third_Party/FreeRTOS/Source/timers.c **** 
 502:Middlewares/Third_Party/FreeRTOS/Source/timers.c **** 	configASSERT( xTimer );
 503:Middlewares/Third_Party/FreeRTOS/Source/timers.c **** 	return pxTimer->pcTimerName;
 504:Middlewares/Third_Party/FreeRTOS/Source/timers.c **** }
 505:Middlewares/Third_Party/FreeRTOS/Source/timers.c **** /*-----------------------------------------------------------*/
 506:Middlewares/Third_Party/FreeRTOS/Source/timers.c **** 
 507:Middlewares/Third_Party/FreeRTOS/Source/timers.c **** static void prvProcessExpiredTimer( const TickType_t xNextExpireTime, const TickType_t xTimeNow )
 508:Middlewares/Third_Party/FreeRTOS/Source/timers.c **** {
 509:Middlewares/Third_Party/FreeRTOS/Source/timers.c **** BaseType_t xResult;
 510:Middlewares/Third_Party/FreeRTOS/Source/timers.c **** Timer_t * const pxTimer = ( Timer_t * ) listGET_OWNER_OF_HEAD_ENTRY( pxCurrentTimerList ); /*lint !
 511:Middlewares/Third_Party/FreeRTOS/Source/timers.c **** 
 512:Middlewares/Third_Party/FreeRTOS/Source/timers.c **** 	/* Remove the timer from the list of active timers.  A check has already
 513:Middlewares/Third_Party/FreeRTOS/Source/timers.c **** 	been performed to ensure the list is not empty. */
 514:Middlewares/Third_Party/FreeRTOS/Source/timers.c **** 	( void ) uxListRemove( &( pxTimer->xTimerListItem ) );
 515:Middlewares/Third_Party/FreeRTOS/Source/timers.c **** 	traceTIMER_EXPIRED( pxTimer );
 516:Middlewares/Third_Party/FreeRTOS/Source/timers.c **** 
 517:Middlewares/Third_Party/FreeRTOS/Source/timers.c **** 	/* If the timer is an auto-reload timer then calculate the next
 518:Middlewares/Third_Party/FreeRTOS/Source/timers.c **** 	expiry time and re-insert the timer in the list of active timers. */
 519:Middlewares/Third_Party/FreeRTOS/Source/timers.c **** 	if( ( pxTimer->ucStatus & tmrSTATUS_IS_AUTORELOAD ) != 0 )
 520:Middlewares/Third_Party/FreeRTOS/Source/timers.c **** 	{
 521:Middlewares/Third_Party/FreeRTOS/Source/timers.c **** 		/* The timer is inserted into a list using a time relative to anything
 522:Middlewares/Third_Party/FreeRTOS/Source/timers.c **** 		other than the current time.  It will therefore be inserted into the
 523:Middlewares/Third_Party/FreeRTOS/Source/timers.c **** 		correct list relative to the time this task thinks it is now. */
 524:Middlewares/Third_Party/FreeRTOS/Source/timers.c **** 		if( prvInsertTimerInActiveList( pxTimer, ( xNextExpireTime + pxTimer->xTimerPeriodInTicks ), xTim
 525:Middlewares/Third_Party/FreeRTOS/Source/timers.c **** 		{
 526:Middlewares/Third_Party/FreeRTOS/Source/timers.c **** 			/* The timer expired before it was added to the active timer
 527:Middlewares/Third_Party/FreeRTOS/Source/timers.c **** 			list.  Reload it now.  */
 528:Middlewares/Third_Party/FreeRTOS/Source/timers.c **** 			xResult = xTimerGenericCommand( pxTimer, tmrCOMMAND_START_DONT_TRACE, xNextExpireTime, NULL, tmr
 529:Middlewares/Third_Party/FreeRTOS/Source/timers.c **** 			configASSERT( xResult );
 530:Middlewares/Third_Party/FreeRTOS/Source/timers.c **** 			( void ) xResult;
 531:Middlewares/Third_Party/FreeRTOS/Source/timers.c **** 		}
 532:Middlewares/Third_Party/FreeRTOS/Source/timers.c **** 		else
 533:Middlewares/Third_Party/FreeRTOS/Source/timers.c **** 		{
 534:Middlewares/Third_Party/FreeRTOS/Source/timers.c **** 			mtCOVERAGE_TEST_MARKER();
 535:Middlewares/Third_Party/FreeRTOS/Source/timers.c **** 		}
 536:Middlewares/Third_Party/FreeRTOS/Source/timers.c **** 	}
 537:Middlewares/Third_Party/FreeRTOS/Source/timers.c **** 	else
 538:Middlewares/Third_Party/FreeRTOS/Source/timers.c **** 	{
 539:Middlewares/Third_Party/FreeRTOS/Source/timers.c **** 		pxTimer->ucStatus &= ~tmrSTATUS_IS_ACTIVE;
 540:Middlewares/Third_Party/FreeRTOS/Source/timers.c **** 		mtCOVERAGE_TEST_MARKER();
 541:Middlewares/Third_Party/FreeRTOS/Source/timers.c **** 	}
 542:Middlewares/Third_Party/FreeRTOS/Source/timers.c **** 
 543:Middlewares/Third_Party/FreeRTOS/Source/timers.c **** 	/* Call the timer callback. */
ARM GAS  /tmp/ccG38jLQ.s 			page 11


 544:Middlewares/Third_Party/FreeRTOS/Source/timers.c **** 	pxTimer->pxCallbackFunction( ( TimerHandle_t ) pxTimer );
 545:Middlewares/Third_Party/FreeRTOS/Source/timers.c **** }
 546:Middlewares/Third_Party/FreeRTOS/Source/timers.c **** /*-----------------------------------------------------------*/
 547:Middlewares/Third_Party/FreeRTOS/Source/timers.c **** 
 548:Middlewares/Third_Party/FreeRTOS/Source/timers.c **** static portTASK_FUNCTION( prvTimerTask, pvParameters )
 549:Middlewares/Third_Party/FreeRTOS/Source/timers.c **** {
 550:Middlewares/Third_Party/FreeRTOS/Source/timers.c **** TickType_t xNextExpireTime;
 551:Middlewares/Third_Party/FreeRTOS/Source/timers.c **** BaseType_t xListWasEmpty;
 552:Middlewares/Third_Party/FreeRTOS/Source/timers.c **** 
 553:Middlewares/Third_Party/FreeRTOS/Source/timers.c **** 	/* Just to avoid compiler warnings. */
 554:Middlewares/Third_Party/FreeRTOS/Source/timers.c **** 	( void ) pvParameters;
 555:Middlewares/Third_Party/FreeRTOS/Source/timers.c **** 
 556:Middlewares/Third_Party/FreeRTOS/Source/timers.c **** 	#if( configUSE_DAEMON_TASK_STARTUP_HOOK == 1 )
 557:Middlewares/Third_Party/FreeRTOS/Source/timers.c **** 	{
 558:Middlewares/Third_Party/FreeRTOS/Source/timers.c **** 		extern void vApplicationDaemonTaskStartupHook( void );
 559:Middlewares/Third_Party/FreeRTOS/Source/timers.c **** 
 560:Middlewares/Third_Party/FreeRTOS/Source/timers.c **** 		/* Allow the application writer to execute some code in the context of
 561:Middlewares/Third_Party/FreeRTOS/Source/timers.c **** 		this task at the point the task starts executing.  This is useful if the
 562:Middlewares/Third_Party/FreeRTOS/Source/timers.c **** 		application includes initialisation code that would benefit from
 563:Middlewares/Third_Party/FreeRTOS/Source/timers.c **** 		executing after the scheduler has been started. */
 564:Middlewares/Third_Party/FreeRTOS/Source/timers.c **** 		vApplicationDaemonTaskStartupHook();
 565:Middlewares/Third_Party/FreeRTOS/Source/timers.c **** 	}
 566:Middlewares/Third_Party/FreeRTOS/Source/timers.c **** 	#endif /* configUSE_DAEMON_TASK_STARTUP_HOOK */
 567:Middlewares/Third_Party/FreeRTOS/Source/timers.c **** 
 568:Middlewares/Third_Party/FreeRTOS/Source/timers.c **** 	for( ;; )
 569:Middlewares/Third_Party/FreeRTOS/Source/timers.c **** 	{
 570:Middlewares/Third_Party/FreeRTOS/Source/timers.c **** 		/* Query the timers list to see if it contains any timers, and if so,
 571:Middlewares/Third_Party/FreeRTOS/Source/timers.c **** 		obtain the time at which the next timer will expire. */
 572:Middlewares/Third_Party/FreeRTOS/Source/timers.c **** 		xNextExpireTime = prvGetNextExpireTime( &xListWasEmpty );
 573:Middlewares/Third_Party/FreeRTOS/Source/timers.c **** 
 574:Middlewares/Third_Party/FreeRTOS/Source/timers.c **** 		/* If a timer has expired, process it.  Otherwise, block this task
 575:Middlewares/Third_Party/FreeRTOS/Source/timers.c **** 		until either a timer does expire, or a command is received. */
 576:Middlewares/Third_Party/FreeRTOS/Source/timers.c **** 		prvProcessTimerOrBlockTask( xNextExpireTime, xListWasEmpty );
 577:Middlewares/Third_Party/FreeRTOS/Source/timers.c **** 
 578:Middlewares/Third_Party/FreeRTOS/Source/timers.c **** 		/* Empty the command queue. */
 579:Middlewares/Third_Party/FreeRTOS/Source/timers.c **** 		prvProcessReceivedCommands();
 580:Middlewares/Third_Party/FreeRTOS/Source/timers.c **** 	}
 581:Middlewares/Third_Party/FreeRTOS/Source/timers.c **** }
 582:Middlewares/Third_Party/FreeRTOS/Source/timers.c **** /*-----------------------------------------------------------*/
 583:Middlewares/Third_Party/FreeRTOS/Source/timers.c **** 
 584:Middlewares/Third_Party/FreeRTOS/Source/timers.c **** static void prvProcessTimerOrBlockTask( const TickType_t xNextExpireTime, BaseType_t xListWasEmpty 
 585:Middlewares/Third_Party/FreeRTOS/Source/timers.c **** {
 586:Middlewares/Third_Party/FreeRTOS/Source/timers.c **** TickType_t xTimeNow;
 587:Middlewares/Third_Party/FreeRTOS/Source/timers.c **** BaseType_t xTimerListsWereSwitched;
 588:Middlewares/Third_Party/FreeRTOS/Source/timers.c **** 
 589:Middlewares/Third_Party/FreeRTOS/Source/timers.c **** 	vTaskSuspendAll();
 590:Middlewares/Third_Party/FreeRTOS/Source/timers.c **** 	{
 591:Middlewares/Third_Party/FreeRTOS/Source/timers.c **** 		/* Obtain the time now to make an assessment as to whether the timer
 592:Middlewares/Third_Party/FreeRTOS/Source/timers.c **** 		has expired or not.  If obtaining the time causes the lists to switch
 593:Middlewares/Third_Party/FreeRTOS/Source/timers.c **** 		then don't process this timer as any timers that remained in the list
 594:Middlewares/Third_Party/FreeRTOS/Source/timers.c **** 		when the lists were switched will have been processed within the
 595:Middlewares/Third_Party/FreeRTOS/Source/timers.c **** 		prvSampleTimeNow() function. */
 596:Middlewares/Third_Party/FreeRTOS/Source/timers.c **** 		xTimeNow = prvSampleTimeNow( &xTimerListsWereSwitched );
 597:Middlewares/Third_Party/FreeRTOS/Source/timers.c **** 		if( xTimerListsWereSwitched == pdFALSE )
 598:Middlewares/Third_Party/FreeRTOS/Source/timers.c **** 		{
 599:Middlewares/Third_Party/FreeRTOS/Source/timers.c **** 			/* The tick count has not overflowed, has the timer expired? */
 600:Middlewares/Third_Party/FreeRTOS/Source/timers.c **** 			if( ( xListWasEmpty == pdFALSE ) && ( xNextExpireTime <= xTimeNow ) )
ARM GAS  /tmp/ccG38jLQ.s 			page 12


 601:Middlewares/Third_Party/FreeRTOS/Source/timers.c **** 			{
 602:Middlewares/Third_Party/FreeRTOS/Source/timers.c **** 				( void ) xTaskResumeAll();
 603:Middlewares/Third_Party/FreeRTOS/Source/timers.c **** 				prvProcessExpiredTimer( xNextExpireTime, xTimeNow );
 604:Middlewares/Third_Party/FreeRTOS/Source/timers.c **** 			}
 605:Middlewares/Third_Party/FreeRTOS/Source/timers.c **** 			else
 606:Middlewares/Third_Party/FreeRTOS/Source/timers.c **** 			{
 607:Middlewares/Third_Party/FreeRTOS/Source/timers.c **** 				/* The tick count has not overflowed, and the next expire
 608:Middlewares/Third_Party/FreeRTOS/Source/timers.c **** 				time has not been reached yet.  This task should therefore
 609:Middlewares/Third_Party/FreeRTOS/Source/timers.c **** 				block to wait for the next expire time or a command to be
 610:Middlewares/Third_Party/FreeRTOS/Source/timers.c **** 				received - whichever comes first.  The following line cannot
 611:Middlewares/Third_Party/FreeRTOS/Source/timers.c **** 				be reached unless xNextExpireTime > xTimeNow, except in the
 612:Middlewares/Third_Party/FreeRTOS/Source/timers.c **** 				case when the current timer list is empty. */
 613:Middlewares/Third_Party/FreeRTOS/Source/timers.c **** 				if( xListWasEmpty != pdFALSE )
 614:Middlewares/Third_Party/FreeRTOS/Source/timers.c **** 				{
 615:Middlewares/Third_Party/FreeRTOS/Source/timers.c **** 					/* The current timer list is empty - is the overflow list
 616:Middlewares/Third_Party/FreeRTOS/Source/timers.c **** 					also empty? */
 617:Middlewares/Third_Party/FreeRTOS/Source/timers.c **** 					xListWasEmpty = listLIST_IS_EMPTY( pxOverflowTimerList );
 618:Middlewares/Third_Party/FreeRTOS/Source/timers.c **** 				}
 619:Middlewares/Third_Party/FreeRTOS/Source/timers.c **** 
 620:Middlewares/Third_Party/FreeRTOS/Source/timers.c **** 				vQueueWaitForMessageRestricted( xTimerQueue, ( xNextExpireTime - xTimeNow ), xListWasEmpty );
 621:Middlewares/Third_Party/FreeRTOS/Source/timers.c **** 
 622:Middlewares/Third_Party/FreeRTOS/Source/timers.c **** 				if( xTaskResumeAll() == pdFALSE )
 623:Middlewares/Third_Party/FreeRTOS/Source/timers.c **** 				{
 624:Middlewares/Third_Party/FreeRTOS/Source/timers.c **** 					/* Yield to wait for either a command to arrive, or the
 625:Middlewares/Third_Party/FreeRTOS/Source/timers.c **** 					block time to expire.  If a command arrived between the
 626:Middlewares/Third_Party/FreeRTOS/Source/timers.c **** 					critical section being exited and this yield then the yield
 627:Middlewares/Third_Party/FreeRTOS/Source/timers.c **** 					will not cause the task to block. */
 628:Middlewares/Third_Party/FreeRTOS/Source/timers.c **** 					portYIELD_WITHIN_API();
 629:Middlewares/Third_Party/FreeRTOS/Source/timers.c **** 				}
 630:Middlewares/Third_Party/FreeRTOS/Source/timers.c **** 				else
 631:Middlewares/Third_Party/FreeRTOS/Source/timers.c **** 				{
 632:Middlewares/Third_Party/FreeRTOS/Source/timers.c **** 					mtCOVERAGE_TEST_MARKER();
 633:Middlewares/Third_Party/FreeRTOS/Source/timers.c **** 				}
 634:Middlewares/Third_Party/FreeRTOS/Source/timers.c **** 			}
 635:Middlewares/Third_Party/FreeRTOS/Source/timers.c **** 		}
 636:Middlewares/Third_Party/FreeRTOS/Source/timers.c **** 		else
 637:Middlewares/Third_Party/FreeRTOS/Source/timers.c **** 		{
 638:Middlewares/Third_Party/FreeRTOS/Source/timers.c **** 			( void ) xTaskResumeAll();
 639:Middlewares/Third_Party/FreeRTOS/Source/timers.c **** 		}
 640:Middlewares/Third_Party/FreeRTOS/Source/timers.c **** 	}
 641:Middlewares/Third_Party/FreeRTOS/Source/timers.c **** }
 642:Middlewares/Third_Party/FreeRTOS/Source/timers.c **** /*-----------------------------------------------------------*/
 643:Middlewares/Third_Party/FreeRTOS/Source/timers.c **** 
 644:Middlewares/Third_Party/FreeRTOS/Source/timers.c **** static TickType_t prvGetNextExpireTime( BaseType_t * const pxListWasEmpty )
 645:Middlewares/Third_Party/FreeRTOS/Source/timers.c **** {
  29              		.loc 1 645 1 view -0
  30              		.cfi_startproc
  31              		@ args = 0, pretend = 0, frame = 0
  32              		@ frame_needed = 0, uses_anonymous_args = 0
  33              		@ link register save eliminated.
 646:Middlewares/Third_Party/FreeRTOS/Source/timers.c **** TickType_t xNextExpireTime;
  34              		.loc 1 646 1 view .LVU1
 647:Middlewares/Third_Party/FreeRTOS/Source/timers.c **** 
 648:Middlewares/Third_Party/FreeRTOS/Source/timers.c **** 	/* Timers are listed in expiry time order, with the head of the list
 649:Middlewares/Third_Party/FreeRTOS/Source/timers.c **** 	referencing the task that will expire first.  Obtain the time at which
 650:Middlewares/Third_Party/FreeRTOS/Source/timers.c **** 	the timer with the nearest expiry time will expire.  If there are no
 651:Middlewares/Third_Party/FreeRTOS/Source/timers.c **** 	active timers then just set the next expire time to 0.  That will cause
ARM GAS  /tmp/ccG38jLQ.s 			page 13


 652:Middlewares/Third_Party/FreeRTOS/Source/timers.c **** 	this task to unblock when the tick count overflows, at which point the
 653:Middlewares/Third_Party/FreeRTOS/Source/timers.c **** 	timer lists will be switched and the next expiry time can be
 654:Middlewares/Third_Party/FreeRTOS/Source/timers.c **** 	re-assessed.  */
 655:Middlewares/Third_Party/FreeRTOS/Source/timers.c **** 	*pxListWasEmpty = listLIST_IS_EMPTY( pxCurrentTimerList );
  35              		.loc 1 655 2 view .LVU2
  36              		.loc 1 655 20 is_stmt 0 view .LVU3
  37 0000 064B     		ldr	r3, .L6
  38 0002 1A68     		ldr	r2, [r3]
  39 0004 1368     		ldr	r3, [r2]
  40 0006 2BB9     		cbnz	r3, .L4
  41 0008 0123     		movs	r3, #1
  42              	.L2:
  43              		.loc 1 655 18 discriminator 4 view .LVU4
  44 000a 0360     		str	r3, [r0]
 656:Middlewares/Third_Party/FreeRTOS/Source/timers.c **** 	if( *pxListWasEmpty == pdFALSE )
  45              		.loc 1 656 2 is_stmt 1 discriminator 4 view .LVU5
  46              		.loc 1 656 4 is_stmt 0 discriminator 4 view .LVU6
  47 000c 23B9     		cbnz	r3, .L5
 657:Middlewares/Third_Party/FreeRTOS/Source/timers.c **** 	{
 658:Middlewares/Third_Party/FreeRTOS/Source/timers.c **** 		xNextExpireTime = listGET_ITEM_VALUE_OF_HEAD_ENTRY( pxCurrentTimerList );
  48              		.loc 1 658 3 is_stmt 1 view .LVU7
  49              		.loc 1 658 21 is_stmt 0 view .LVU8
  50 000e D368     		ldr	r3, [r2, #12]
  51              		.loc 1 658 19 view .LVU9
  52 0010 1868     		ldr	r0, [r3]
  53              	.LVL1:
  54              		.loc 1 658 19 view .LVU10
  55 0012 7047     		bx	lr
  56              	.LVL2:
  57              	.L4:
 655:Middlewares/Third_Party/FreeRTOS/Source/timers.c **** 	if( *pxListWasEmpty == pdFALSE )
  58              		.loc 1 655 20 view .LVU11
  59 0014 0023     		movs	r3, #0
  60 0016 F8E7     		b	.L2
  61              	.L5:
 659:Middlewares/Third_Party/FreeRTOS/Source/timers.c **** 	}
 660:Middlewares/Third_Party/FreeRTOS/Source/timers.c **** 	else
 661:Middlewares/Third_Party/FreeRTOS/Source/timers.c **** 	{
 662:Middlewares/Third_Party/FreeRTOS/Source/timers.c **** 		/* Ensure the task unblocks when the tick count rolls over. */
 663:Middlewares/Third_Party/FreeRTOS/Source/timers.c **** 		xNextExpireTime = ( TickType_t ) 0U;
  62              		.loc 1 663 19 view .LVU12
  63 0018 0020     		movs	r0, #0
  64              	.LVL3:
 664:Middlewares/Third_Party/FreeRTOS/Source/timers.c **** 	}
 665:Middlewares/Third_Party/FreeRTOS/Source/timers.c **** 
 666:Middlewares/Third_Party/FreeRTOS/Source/timers.c **** 	return xNextExpireTime;
  65              		.loc 1 666 2 is_stmt 1 view .LVU13
 667:Middlewares/Third_Party/FreeRTOS/Source/timers.c **** }
  66              		.loc 1 667 1 is_stmt 0 view .LVU14
  67 001a 7047     		bx	lr
  68              	.L7:
  69              		.align	2
  70              	.L6:
  71 001c 00000000 		.word	pxCurrentTimerList
  72              		.cfi_endproc
  73              	.LFE18:
  75              		.section	.text.prvInsertTimerInActiveList,"ax",%progbits
ARM GAS  /tmp/ccG38jLQ.s 			page 14


  76              		.align	1
  77              		.syntax unified
  78              		.thumb
  79              		.thumb_func
  81              	prvInsertTimerInActiveList:
  82              	.LVL4:
  83              	.LFB20:
 668:Middlewares/Third_Party/FreeRTOS/Source/timers.c **** /*-----------------------------------------------------------*/
 669:Middlewares/Third_Party/FreeRTOS/Source/timers.c **** 
 670:Middlewares/Third_Party/FreeRTOS/Source/timers.c **** static TickType_t prvSampleTimeNow( BaseType_t * const pxTimerListsWereSwitched )
 671:Middlewares/Third_Party/FreeRTOS/Source/timers.c **** {
 672:Middlewares/Third_Party/FreeRTOS/Source/timers.c **** TickType_t xTimeNow;
 673:Middlewares/Third_Party/FreeRTOS/Source/timers.c **** PRIVILEGED_DATA static TickType_t xLastTime = ( TickType_t ) 0U; /*lint !e956 Variable is only acce
 674:Middlewares/Third_Party/FreeRTOS/Source/timers.c **** 
 675:Middlewares/Third_Party/FreeRTOS/Source/timers.c **** 	xTimeNow = xTaskGetTickCount();
 676:Middlewares/Third_Party/FreeRTOS/Source/timers.c **** 
 677:Middlewares/Third_Party/FreeRTOS/Source/timers.c **** 	if( xTimeNow < xLastTime )
 678:Middlewares/Third_Party/FreeRTOS/Source/timers.c **** 	{
 679:Middlewares/Third_Party/FreeRTOS/Source/timers.c **** 		prvSwitchTimerLists();
 680:Middlewares/Third_Party/FreeRTOS/Source/timers.c **** 		*pxTimerListsWereSwitched = pdTRUE;
 681:Middlewares/Third_Party/FreeRTOS/Source/timers.c **** 	}
 682:Middlewares/Third_Party/FreeRTOS/Source/timers.c **** 	else
 683:Middlewares/Third_Party/FreeRTOS/Source/timers.c **** 	{
 684:Middlewares/Third_Party/FreeRTOS/Source/timers.c **** 		*pxTimerListsWereSwitched = pdFALSE;
 685:Middlewares/Third_Party/FreeRTOS/Source/timers.c **** 	}
 686:Middlewares/Third_Party/FreeRTOS/Source/timers.c **** 
 687:Middlewares/Third_Party/FreeRTOS/Source/timers.c **** 	xLastTime = xTimeNow;
 688:Middlewares/Third_Party/FreeRTOS/Source/timers.c **** 
 689:Middlewares/Third_Party/FreeRTOS/Source/timers.c **** 	return xTimeNow;
 690:Middlewares/Third_Party/FreeRTOS/Source/timers.c **** }
 691:Middlewares/Third_Party/FreeRTOS/Source/timers.c **** /*-----------------------------------------------------------*/
 692:Middlewares/Third_Party/FreeRTOS/Source/timers.c **** 
 693:Middlewares/Third_Party/FreeRTOS/Source/timers.c **** static BaseType_t prvInsertTimerInActiveList( Timer_t * const pxTimer, const TickType_t xNextExpiry
 694:Middlewares/Third_Party/FreeRTOS/Source/timers.c **** {
  84              		.loc 1 694 1 is_stmt 1 view -0
  85              		.cfi_startproc
  86              		@ args = 0, pretend = 0, frame = 0
  87              		@ frame_needed = 0, uses_anonymous_args = 0
  88              		.loc 1 694 1 is_stmt 0 view .LVU16
  89 0000 08B5     		push	{r3, lr}
  90              		.cfi_def_cfa_offset 8
  91              		.cfi_offset 3, -8
  92              		.cfi_offset 14, -4
 695:Middlewares/Third_Party/FreeRTOS/Source/timers.c **** BaseType_t xProcessTimerNow = pdFALSE;
  93              		.loc 1 695 1 is_stmt 1 view .LVU17
  94              	.LVL5:
 696:Middlewares/Third_Party/FreeRTOS/Source/timers.c **** 
 697:Middlewares/Third_Party/FreeRTOS/Source/timers.c **** 	listSET_LIST_ITEM_VALUE( &( pxTimer->xTimerListItem ), xNextExpiryTime );
  95              		.loc 1 697 2 view .LVU18
  96 0002 4160     		str	r1, [r0, #4]
 698:Middlewares/Third_Party/FreeRTOS/Source/timers.c **** 	listSET_LIST_ITEM_OWNER( &( pxTimer->xTimerListItem ), pxTimer );
  97              		.loc 1 698 2 view .LVU19
  98 0004 0061     		str	r0, [r0, #16]
 699:Middlewares/Third_Party/FreeRTOS/Source/timers.c **** 
 700:Middlewares/Third_Party/FreeRTOS/Source/timers.c **** 	if( xNextExpiryTime <= xTimeNow )
  99              		.loc 1 700 2 view .LVU20
 100              		.loc 1 700 4 is_stmt 0 view .LVU21
ARM GAS  /tmp/ccG38jLQ.s 			page 15


 101 0006 9142     		cmp	r1, r2
 102 0008 0CD8     		bhi	.L9
 701:Middlewares/Third_Party/FreeRTOS/Source/timers.c **** 	{
 702:Middlewares/Third_Party/FreeRTOS/Source/timers.c **** 		/* Has the expiry time elapsed between the command to start/reset a
 703:Middlewares/Third_Party/FreeRTOS/Source/timers.c **** 		timer was issued, and the time the command was processed? */
 704:Middlewares/Third_Party/FreeRTOS/Source/timers.c **** 		if( ( ( TickType_t ) ( xTimeNow - xCommandTime ) ) >= pxTimer->xTimerPeriodInTicks ) /*lint !e961
 103              		.loc 1 704 3 is_stmt 1 view .LVU22
 104              		.loc 1 704 35 is_stmt 0 view .LVU23
 105 000a D21A     		subs	r2, r2, r3
 106              	.LVL6:
 107              		.loc 1 704 64 view .LVU24
 108 000c 8369     		ldr	r3, [r0, #24]
 109              	.LVL7:
 110              		.loc 1 704 5 view .LVU25
 111 000e 9A42     		cmp	r2, r3
 112 0010 01D3     		bcc	.L15
 705:Middlewares/Third_Party/FreeRTOS/Source/timers.c **** 		{
 706:Middlewares/Third_Party/FreeRTOS/Source/timers.c **** 			/* The time between a command being issued and the command being
 707:Middlewares/Third_Party/FreeRTOS/Source/timers.c **** 			processed actually exceeds the timers period.  */
 708:Middlewares/Third_Party/FreeRTOS/Source/timers.c **** 			xProcessTimerNow = pdTRUE;
 113              		.loc 1 708 21 view .LVU26
 114 0012 0120     		movs	r0, #1
 115              	.LVL8:
 116              	.L8:
 709:Middlewares/Third_Party/FreeRTOS/Source/timers.c **** 		}
 710:Middlewares/Third_Party/FreeRTOS/Source/timers.c **** 		else
 711:Middlewares/Third_Party/FreeRTOS/Source/timers.c **** 		{
 712:Middlewares/Third_Party/FreeRTOS/Source/timers.c **** 			vListInsert( pxOverflowTimerList, &( pxTimer->xTimerListItem ) );
 713:Middlewares/Third_Party/FreeRTOS/Source/timers.c **** 		}
 714:Middlewares/Third_Party/FreeRTOS/Source/timers.c **** 	}
 715:Middlewares/Third_Party/FreeRTOS/Source/timers.c **** 	else
 716:Middlewares/Third_Party/FreeRTOS/Source/timers.c **** 	{
 717:Middlewares/Third_Party/FreeRTOS/Source/timers.c **** 		if( ( xTimeNow < xCommandTime ) && ( xNextExpiryTime >= xCommandTime ) )
 718:Middlewares/Third_Party/FreeRTOS/Source/timers.c **** 		{
 719:Middlewares/Third_Party/FreeRTOS/Source/timers.c **** 			/* If, since the command was issued, the tick count has overflowed
 720:Middlewares/Third_Party/FreeRTOS/Source/timers.c **** 			but the expiry time has not, then the timer must have already passed
 721:Middlewares/Third_Party/FreeRTOS/Source/timers.c **** 			its expiry time and should be processed immediately. */
 722:Middlewares/Third_Party/FreeRTOS/Source/timers.c **** 			xProcessTimerNow = pdTRUE;
 723:Middlewares/Third_Party/FreeRTOS/Source/timers.c **** 		}
 724:Middlewares/Third_Party/FreeRTOS/Source/timers.c **** 		else
 725:Middlewares/Third_Party/FreeRTOS/Source/timers.c **** 		{
 726:Middlewares/Third_Party/FreeRTOS/Source/timers.c **** 			vListInsert( pxCurrentTimerList, &( pxTimer->xTimerListItem ) );
 727:Middlewares/Third_Party/FreeRTOS/Source/timers.c **** 		}
 728:Middlewares/Third_Party/FreeRTOS/Source/timers.c **** 	}
 729:Middlewares/Third_Party/FreeRTOS/Source/timers.c **** 
 730:Middlewares/Third_Party/FreeRTOS/Source/timers.c **** 	return xProcessTimerNow;
 731:Middlewares/Third_Party/FreeRTOS/Source/timers.c **** }
 117              		.loc 1 731 1 view .LVU27
 118 0014 08BD     		pop	{r3, pc}
 119              	.LVL9:
 120              	.L15:
 712:Middlewares/Third_Party/FreeRTOS/Source/timers.c **** 		}
 121              		.loc 1 712 4 is_stmt 1 view .LVU28
 122 0016 011D     		adds	r1, r0, #4
 123              	.LVL10:
 712:Middlewares/Third_Party/FreeRTOS/Source/timers.c **** 		}
 124              		.loc 1 712 4 is_stmt 0 view .LVU29
ARM GAS  /tmp/ccG38jLQ.s 			page 16


 125 0018 094B     		ldr	r3, .L16
 126 001a 1868     		ldr	r0, [r3]
 127              	.LVL11:
 712:Middlewares/Third_Party/FreeRTOS/Source/timers.c **** 		}
 128              		.loc 1 712 4 view .LVU30
 129 001c FFF7FEFF 		bl	vListInsert
 130              	.LVL12:
 695:Middlewares/Third_Party/FreeRTOS/Source/timers.c **** 
 131              		.loc 1 695 12 view .LVU31
 132 0020 0020     		movs	r0, #0
 133 0022 F7E7     		b	.L8
 134              	.LVL13:
 135              	.L9:
 717:Middlewares/Third_Party/FreeRTOS/Source/timers.c **** 		{
 136              		.loc 1 717 3 is_stmt 1 view .LVU32
 717:Middlewares/Third_Party/FreeRTOS/Source/timers.c **** 		{
 137              		.loc 1 717 5 is_stmt 0 view .LVU33
 138 0024 9A42     		cmp	r2, r3
 139 0026 01D2     		bcs	.L11
 717:Middlewares/Third_Party/FreeRTOS/Source/timers.c **** 		{
 140              		.loc 1 717 35 discriminator 1 view .LVU34
 141 0028 9942     		cmp	r1, r3
 142 002a 06D2     		bcs	.L13
 143              	.L11:
 726:Middlewares/Third_Party/FreeRTOS/Source/timers.c **** 		}
 144              		.loc 1 726 4 is_stmt 1 view .LVU35
 145 002c 011D     		adds	r1, r0, #4
 146              	.LVL14:
 726:Middlewares/Third_Party/FreeRTOS/Source/timers.c **** 		}
 147              		.loc 1 726 4 is_stmt 0 view .LVU36
 148 002e 054B     		ldr	r3, .L16+4
 149              	.LVL15:
 726:Middlewares/Third_Party/FreeRTOS/Source/timers.c **** 		}
 150              		.loc 1 726 4 view .LVU37
 151 0030 1868     		ldr	r0, [r3]
 152              	.LVL16:
 726:Middlewares/Third_Party/FreeRTOS/Source/timers.c **** 		}
 153              		.loc 1 726 4 view .LVU38
 154 0032 FFF7FEFF 		bl	vListInsert
 155              	.LVL17:
 695:Middlewares/Third_Party/FreeRTOS/Source/timers.c **** 
 156              		.loc 1 695 12 view .LVU39
 157 0036 0020     		movs	r0, #0
 158 0038 ECE7     		b	.L8
 159              	.LVL18:
 160              	.L13:
 722:Middlewares/Third_Party/FreeRTOS/Source/timers.c **** 		}
 161              		.loc 1 722 21 view .LVU40
 162 003a 0120     		movs	r0, #1
 163              	.LVL19:
 730:Middlewares/Third_Party/FreeRTOS/Source/timers.c **** }
 164              		.loc 1 730 2 is_stmt 1 view .LVU41
 730:Middlewares/Third_Party/FreeRTOS/Source/timers.c **** }
 165              		.loc 1 730 9 is_stmt 0 view .LVU42
 166 003c EAE7     		b	.L8
 167              	.L17:
 168 003e 00BF     		.align	2
ARM GAS  /tmp/ccG38jLQ.s 			page 17


 169              	.L16:
 170 0040 00000000 		.word	pxOverflowTimerList
 171 0044 00000000 		.word	pxCurrentTimerList
 172              		.cfi_endproc
 173              	.LFE20:
 175              		.section	.rodata.prvCheckForValidListAndQueue.str1.4,"aMS",%progbits,1
 176              		.align	2
 177              	.LC0:
 178 0000 546D7251 		.ascii	"TmrQ\000"
 178      00
 179              		.section	.text.prvCheckForValidListAndQueue,"ax",%progbits
 180              		.align	1
 181              		.syntax unified
 182              		.thumb
 183              		.thumb_func
 185              	prvCheckForValidListAndQueue:
 186              	.LFB23:
 732:Middlewares/Third_Party/FreeRTOS/Source/timers.c **** /*-----------------------------------------------------------*/
 733:Middlewares/Third_Party/FreeRTOS/Source/timers.c **** 
 734:Middlewares/Third_Party/FreeRTOS/Source/timers.c **** static void	prvProcessReceivedCommands( void )
 735:Middlewares/Third_Party/FreeRTOS/Source/timers.c **** {
 736:Middlewares/Third_Party/FreeRTOS/Source/timers.c **** DaemonTaskMessage_t xMessage;
 737:Middlewares/Third_Party/FreeRTOS/Source/timers.c **** Timer_t *pxTimer;
 738:Middlewares/Third_Party/FreeRTOS/Source/timers.c **** BaseType_t xTimerListsWereSwitched, xResult;
 739:Middlewares/Third_Party/FreeRTOS/Source/timers.c **** TickType_t xTimeNow;
 740:Middlewares/Third_Party/FreeRTOS/Source/timers.c **** 
 741:Middlewares/Third_Party/FreeRTOS/Source/timers.c **** 	while( xQueueReceive( xTimerQueue, &xMessage, tmrNO_DELAY ) != pdFAIL ) /*lint !e603 xMessage does
 742:Middlewares/Third_Party/FreeRTOS/Source/timers.c **** 	{
 743:Middlewares/Third_Party/FreeRTOS/Source/timers.c **** 		#if ( INCLUDE_xTimerPendFunctionCall == 1 )
 744:Middlewares/Third_Party/FreeRTOS/Source/timers.c **** 		{
 745:Middlewares/Third_Party/FreeRTOS/Source/timers.c **** 			/* Negative commands are pended function calls rather than timer
 746:Middlewares/Third_Party/FreeRTOS/Source/timers.c **** 			commands. */
 747:Middlewares/Third_Party/FreeRTOS/Source/timers.c **** 			if( xMessage.xMessageID < ( BaseType_t ) 0 )
 748:Middlewares/Third_Party/FreeRTOS/Source/timers.c **** 			{
 749:Middlewares/Third_Party/FreeRTOS/Source/timers.c **** 				const CallbackParameters_t * const pxCallback = &( xMessage.u.xCallbackParameters );
 750:Middlewares/Third_Party/FreeRTOS/Source/timers.c **** 
 751:Middlewares/Third_Party/FreeRTOS/Source/timers.c **** 				/* The timer uses the xCallbackParameters member to request a
 752:Middlewares/Third_Party/FreeRTOS/Source/timers.c **** 				callback be executed.  Check the callback is not NULL. */
 753:Middlewares/Third_Party/FreeRTOS/Source/timers.c **** 				configASSERT( pxCallback );
 754:Middlewares/Third_Party/FreeRTOS/Source/timers.c **** 
 755:Middlewares/Third_Party/FreeRTOS/Source/timers.c **** 				/* Call the function. */
 756:Middlewares/Third_Party/FreeRTOS/Source/timers.c **** 				pxCallback->pxCallbackFunction( pxCallback->pvParameter1, pxCallback->ulParameter2 );
 757:Middlewares/Third_Party/FreeRTOS/Source/timers.c **** 			}
 758:Middlewares/Third_Party/FreeRTOS/Source/timers.c **** 			else
 759:Middlewares/Third_Party/FreeRTOS/Source/timers.c **** 			{
 760:Middlewares/Third_Party/FreeRTOS/Source/timers.c **** 				mtCOVERAGE_TEST_MARKER();
 761:Middlewares/Third_Party/FreeRTOS/Source/timers.c **** 			}
 762:Middlewares/Third_Party/FreeRTOS/Source/timers.c **** 		}
 763:Middlewares/Third_Party/FreeRTOS/Source/timers.c **** 		#endif /* INCLUDE_xTimerPendFunctionCall */
 764:Middlewares/Third_Party/FreeRTOS/Source/timers.c **** 
 765:Middlewares/Third_Party/FreeRTOS/Source/timers.c **** 		/* Commands that are positive are timer commands rather than pended
 766:Middlewares/Third_Party/FreeRTOS/Source/timers.c **** 		function calls. */
 767:Middlewares/Third_Party/FreeRTOS/Source/timers.c **** 		if( xMessage.xMessageID >= ( BaseType_t ) 0 )
 768:Middlewares/Third_Party/FreeRTOS/Source/timers.c **** 		{
 769:Middlewares/Third_Party/FreeRTOS/Source/timers.c **** 			/* The messages uses the xTimerParameters member to work on a
 770:Middlewares/Third_Party/FreeRTOS/Source/timers.c **** 			software timer. */
 771:Middlewares/Third_Party/FreeRTOS/Source/timers.c **** 			pxTimer = xMessage.u.xTimerParameters.pxTimer;
ARM GAS  /tmp/ccG38jLQ.s 			page 18


 772:Middlewares/Third_Party/FreeRTOS/Source/timers.c **** 
 773:Middlewares/Third_Party/FreeRTOS/Source/timers.c **** 			if( listIS_CONTAINED_WITHIN( NULL, &( pxTimer->xTimerListItem ) ) == pdFALSE ) /*lint !e961. The
 774:Middlewares/Third_Party/FreeRTOS/Source/timers.c **** 			{
 775:Middlewares/Third_Party/FreeRTOS/Source/timers.c **** 				/* The timer is in a list, remove it. */
 776:Middlewares/Third_Party/FreeRTOS/Source/timers.c **** 				( void ) uxListRemove( &( pxTimer->xTimerListItem ) );
 777:Middlewares/Third_Party/FreeRTOS/Source/timers.c **** 			}
 778:Middlewares/Third_Party/FreeRTOS/Source/timers.c **** 			else
 779:Middlewares/Third_Party/FreeRTOS/Source/timers.c **** 			{
 780:Middlewares/Third_Party/FreeRTOS/Source/timers.c **** 				mtCOVERAGE_TEST_MARKER();
 781:Middlewares/Third_Party/FreeRTOS/Source/timers.c **** 			}
 782:Middlewares/Third_Party/FreeRTOS/Source/timers.c **** 
 783:Middlewares/Third_Party/FreeRTOS/Source/timers.c **** 			traceTIMER_COMMAND_RECEIVED( pxTimer, xMessage.xMessageID, xMessage.u.xTimerParameters.xMessageV
 784:Middlewares/Third_Party/FreeRTOS/Source/timers.c **** 
 785:Middlewares/Third_Party/FreeRTOS/Source/timers.c **** 			/* In this case the xTimerListsWereSwitched parameter is not used, but
 786:Middlewares/Third_Party/FreeRTOS/Source/timers.c **** 			it must be present in the function call.  prvSampleTimeNow() must be
 787:Middlewares/Third_Party/FreeRTOS/Source/timers.c **** 			called after the message is received from xTimerQueue so there is no
 788:Middlewares/Third_Party/FreeRTOS/Source/timers.c **** 			possibility of a higher priority task adding a message to the message
 789:Middlewares/Third_Party/FreeRTOS/Source/timers.c **** 			queue with a time that is ahead of the timer daemon task (because it
 790:Middlewares/Third_Party/FreeRTOS/Source/timers.c **** 			pre-empted the timer daemon task after the xTimeNow value was set). */
 791:Middlewares/Third_Party/FreeRTOS/Source/timers.c **** 			xTimeNow = prvSampleTimeNow( &xTimerListsWereSwitched );
 792:Middlewares/Third_Party/FreeRTOS/Source/timers.c **** 
 793:Middlewares/Third_Party/FreeRTOS/Source/timers.c **** 			switch( xMessage.xMessageID )
 794:Middlewares/Third_Party/FreeRTOS/Source/timers.c **** 			{
 795:Middlewares/Third_Party/FreeRTOS/Source/timers.c **** 				case tmrCOMMAND_START :
 796:Middlewares/Third_Party/FreeRTOS/Source/timers.c **** 				case tmrCOMMAND_START_FROM_ISR :
 797:Middlewares/Third_Party/FreeRTOS/Source/timers.c **** 				case tmrCOMMAND_RESET :
 798:Middlewares/Third_Party/FreeRTOS/Source/timers.c **** 				case tmrCOMMAND_RESET_FROM_ISR :
 799:Middlewares/Third_Party/FreeRTOS/Source/timers.c **** 				case tmrCOMMAND_START_DONT_TRACE :
 800:Middlewares/Third_Party/FreeRTOS/Source/timers.c **** 					/* Start or restart a timer. */
 801:Middlewares/Third_Party/FreeRTOS/Source/timers.c **** 					pxTimer->ucStatus |= tmrSTATUS_IS_ACTIVE;
 802:Middlewares/Third_Party/FreeRTOS/Source/timers.c **** 					if( prvInsertTimerInActiveList( pxTimer,  xMessage.u.xTimerParameters.xMessageValue + pxTimer-
 803:Middlewares/Third_Party/FreeRTOS/Source/timers.c **** 					{
 804:Middlewares/Third_Party/FreeRTOS/Source/timers.c **** 						/* The timer expired before it was added to the active
 805:Middlewares/Third_Party/FreeRTOS/Source/timers.c **** 						timer list.  Process it now. */
 806:Middlewares/Third_Party/FreeRTOS/Source/timers.c **** 						pxTimer->pxCallbackFunction( ( TimerHandle_t ) pxTimer );
 807:Middlewares/Third_Party/FreeRTOS/Source/timers.c **** 						traceTIMER_EXPIRED( pxTimer );
 808:Middlewares/Third_Party/FreeRTOS/Source/timers.c **** 
 809:Middlewares/Third_Party/FreeRTOS/Source/timers.c **** 						if( ( pxTimer->ucStatus & tmrSTATUS_IS_AUTORELOAD ) != 0 )
 810:Middlewares/Third_Party/FreeRTOS/Source/timers.c **** 						{
 811:Middlewares/Third_Party/FreeRTOS/Source/timers.c **** 							xResult = xTimerGenericCommand( pxTimer, tmrCOMMAND_START_DONT_TRACE, xMessage.u.xTimerParam
 812:Middlewares/Third_Party/FreeRTOS/Source/timers.c **** 							configASSERT( xResult );
 813:Middlewares/Third_Party/FreeRTOS/Source/timers.c **** 							( void ) xResult;
 814:Middlewares/Third_Party/FreeRTOS/Source/timers.c **** 						}
 815:Middlewares/Third_Party/FreeRTOS/Source/timers.c **** 						else
 816:Middlewares/Third_Party/FreeRTOS/Source/timers.c **** 						{
 817:Middlewares/Third_Party/FreeRTOS/Source/timers.c **** 							mtCOVERAGE_TEST_MARKER();
 818:Middlewares/Third_Party/FreeRTOS/Source/timers.c **** 						}
 819:Middlewares/Third_Party/FreeRTOS/Source/timers.c **** 					}
 820:Middlewares/Third_Party/FreeRTOS/Source/timers.c **** 					else
 821:Middlewares/Third_Party/FreeRTOS/Source/timers.c **** 					{
 822:Middlewares/Third_Party/FreeRTOS/Source/timers.c **** 						mtCOVERAGE_TEST_MARKER();
 823:Middlewares/Third_Party/FreeRTOS/Source/timers.c **** 					}
 824:Middlewares/Third_Party/FreeRTOS/Source/timers.c **** 					break;
 825:Middlewares/Third_Party/FreeRTOS/Source/timers.c **** 
 826:Middlewares/Third_Party/FreeRTOS/Source/timers.c **** 				case tmrCOMMAND_STOP :
 827:Middlewares/Third_Party/FreeRTOS/Source/timers.c **** 				case tmrCOMMAND_STOP_FROM_ISR :
 828:Middlewares/Third_Party/FreeRTOS/Source/timers.c **** 					/* The timer has already been removed from the active list. */
ARM GAS  /tmp/ccG38jLQ.s 			page 19


 829:Middlewares/Third_Party/FreeRTOS/Source/timers.c **** 					pxTimer->ucStatus &= ~tmrSTATUS_IS_ACTIVE;
 830:Middlewares/Third_Party/FreeRTOS/Source/timers.c **** 					break;
 831:Middlewares/Third_Party/FreeRTOS/Source/timers.c **** 
 832:Middlewares/Third_Party/FreeRTOS/Source/timers.c **** 				case tmrCOMMAND_CHANGE_PERIOD :
 833:Middlewares/Third_Party/FreeRTOS/Source/timers.c **** 				case tmrCOMMAND_CHANGE_PERIOD_FROM_ISR :
 834:Middlewares/Third_Party/FreeRTOS/Source/timers.c **** 					pxTimer->ucStatus |= tmrSTATUS_IS_ACTIVE;
 835:Middlewares/Third_Party/FreeRTOS/Source/timers.c **** 					pxTimer->xTimerPeriodInTicks = xMessage.u.xTimerParameters.xMessageValue;
 836:Middlewares/Third_Party/FreeRTOS/Source/timers.c **** 					configASSERT( ( pxTimer->xTimerPeriodInTicks > 0 ) );
 837:Middlewares/Third_Party/FreeRTOS/Source/timers.c **** 
 838:Middlewares/Third_Party/FreeRTOS/Source/timers.c **** 					/* The new period does not really have a reference, and can
 839:Middlewares/Third_Party/FreeRTOS/Source/timers.c **** 					be longer or shorter than the old one.  The command time is
 840:Middlewares/Third_Party/FreeRTOS/Source/timers.c **** 					therefore set to the current time, and as the period cannot
 841:Middlewares/Third_Party/FreeRTOS/Source/timers.c **** 					be zero the next expiry time can only be in the future,
 842:Middlewares/Third_Party/FreeRTOS/Source/timers.c **** 					meaning (unlike for the xTimerStart() case above) there is
 843:Middlewares/Third_Party/FreeRTOS/Source/timers.c **** 					no fail case that needs to be handled here. */
 844:Middlewares/Third_Party/FreeRTOS/Source/timers.c **** 					( void ) prvInsertTimerInActiveList( pxTimer, ( xTimeNow + pxTimer->xTimerPeriodInTicks ), xTi
 845:Middlewares/Third_Party/FreeRTOS/Source/timers.c **** 					break;
 846:Middlewares/Third_Party/FreeRTOS/Source/timers.c **** 
 847:Middlewares/Third_Party/FreeRTOS/Source/timers.c **** 				case tmrCOMMAND_DELETE :
 848:Middlewares/Third_Party/FreeRTOS/Source/timers.c **** 					#if ( configSUPPORT_DYNAMIC_ALLOCATION == 1 )
 849:Middlewares/Third_Party/FreeRTOS/Source/timers.c **** 					{
 850:Middlewares/Third_Party/FreeRTOS/Source/timers.c **** 						/* The timer has already been removed from the active list,
 851:Middlewares/Third_Party/FreeRTOS/Source/timers.c **** 						just free up the memory if the memory was dynamically
 852:Middlewares/Third_Party/FreeRTOS/Source/timers.c **** 						allocated. */
 853:Middlewares/Third_Party/FreeRTOS/Source/timers.c **** 						if( ( pxTimer->ucStatus & tmrSTATUS_IS_STATICALLY_ALLOCATED ) == ( uint8_t ) 0 )
 854:Middlewares/Third_Party/FreeRTOS/Source/timers.c **** 						{
 855:Middlewares/Third_Party/FreeRTOS/Source/timers.c **** 							vPortFree( pxTimer );
 856:Middlewares/Third_Party/FreeRTOS/Source/timers.c **** 						}
 857:Middlewares/Third_Party/FreeRTOS/Source/timers.c **** 						else
 858:Middlewares/Third_Party/FreeRTOS/Source/timers.c **** 						{
 859:Middlewares/Third_Party/FreeRTOS/Source/timers.c **** 							pxTimer->ucStatus &= ~tmrSTATUS_IS_ACTIVE;
 860:Middlewares/Third_Party/FreeRTOS/Source/timers.c **** 						}
 861:Middlewares/Third_Party/FreeRTOS/Source/timers.c **** 					}
 862:Middlewares/Third_Party/FreeRTOS/Source/timers.c **** 					#else
 863:Middlewares/Third_Party/FreeRTOS/Source/timers.c **** 					{
 864:Middlewares/Third_Party/FreeRTOS/Source/timers.c **** 						/* If dynamic allocation is not enabled, the memory
 865:Middlewares/Third_Party/FreeRTOS/Source/timers.c **** 						could not have been dynamically allocated. So there is
 866:Middlewares/Third_Party/FreeRTOS/Source/timers.c **** 						no need to free the memory - just mark the timer as
 867:Middlewares/Third_Party/FreeRTOS/Source/timers.c **** 						"not active". */
 868:Middlewares/Third_Party/FreeRTOS/Source/timers.c **** 						pxTimer->ucStatus &= ~tmrSTATUS_IS_ACTIVE;
 869:Middlewares/Third_Party/FreeRTOS/Source/timers.c **** 					}
 870:Middlewares/Third_Party/FreeRTOS/Source/timers.c **** 					#endif /* configSUPPORT_DYNAMIC_ALLOCATION */
 871:Middlewares/Third_Party/FreeRTOS/Source/timers.c **** 					break;
 872:Middlewares/Third_Party/FreeRTOS/Source/timers.c **** 
 873:Middlewares/Third_Party/FreeRTOS/Source/timers.c **** 				default	:
 874:Middlewares/Third_Party/FreeRTOS/Source/timers.c **** 					/* Don't expect to get here. */
 875:Middlewares/Third_Party/FreeRTOS/Source/timers.c **** 					break;
 876:Middlewares/Third_Party/FreeRTOS/Source/timers.c **** 			}
 877:Middlewares/Third_Party/FreeRTOS/Source/timers.c **** 		}
 878:Middlewares/Third_Party/FreeRTOS/Source/timers.c **** 	}
 879:Middlewares/Third_Party/FreeRTOS/Source/timers.c **** }
 880:Middlewares/Third_Party/FreeRTOS/Source/timers.c **** /*-----------------------------------------------------------*/
 881:Middlewares/Third_Party/FreeRTOS/Source/timers.c **** 
 882:Middlewares/Third_Party/FreeRTOS/Source/timers.c **** static void prvSwitchTimerLists( void )
 883:Middlewares/Third_Party/FreeRTOS/Source/timers.c **** {
 884:Middlewares/Third_Party/FreeRTOS/Source/timers.c **** TickType_t xNextExpireTime, xReloadTime;
 885:Middlewares/Third_Party/FreeRTOS/Source/timers.c **** List_t *pxTemp;
ARM GAS  /tmp/ccG38jLQ.s 			page 20


 886:Middlewares/Third_Party/FreeRTOS/Source/timers.c **** Timer_t *pxTimer;
 887:Middlewares/Third_Party/FreeRTOS/Source/timers.c **** BaseType_t xResult;
 888:Middlewares/Third_Party/FreeRTOS/Source/timers.c **** 
 889:Middlewares/Third_Party/FreeRTOS/Source/timers.c **** 	/* The tick count has overflowed.  The timer lists must be switched.
 890:Middlewares/Third_Party/FreeRTOS/Source/timers.c **** 	If there are any timers still referenced from the current timer list
 891:Middlewares/Third_Party/FreeRTOS/Source/timers.c **** 	then they must have expired and should be processed before the lists
 892:Middlewares/Third_Party/FreeRTOS/Source/timers.c **** 	are switched. */
 893:Middlewares/Third_Party/FreeRTOS/Source/timers.c **** 	while( listLIST_IS_EMPTY( pxCurrentTimerList ) == pdFALSE )
 894:Middlewares/Third_Party/FreeRTOS/Source/timers.c **** 	{
 895:Middlewares/Third_Party/FreeRTOS/Source/timers.c **** 		xNextExpireTime = listGET_ITEM_VALUE_OF_HEAD_ENTRY( pxCurrentTimerList );
 896:Middlewares/Third_Party/FreeRTOS/Source/timers.c **** 
 897:Middlewares/Third_Party/FreeRTOS/Source/timers.c **** 		/* Remove the timer from the list. */
 898:Middlewares/Third_Party/FreeRTOS/Source/timers.c **** 		pxTimer = ( Timer_t * ) listGET_OWNER_OF_HEAD_ENTRY( pxCurrentTimerList ); /*lint !e9087 !e9079 v
 899:Middlewares/Third_Party/FreeRTOS/Source/timers.c **** 		( void ) uxListRemove( &( pxTimer->xTimerListItem ) );
 900:Middlewares/Third_Party/FreeRTOS/Source/timers.c **** 		traceTIMER_EXPIRED( pxTimer );
 901:Middlewares/Third_Party/FreeRTOS/Source/timers.c **** 
 902:Middlewares/Third_Party/FreeRTOS/Source/timers.c **** 		/* Execute its callback, then send a command to restart the timer if
 903:Middlewares/Third_Party/FreeRTOS/Source/timers.c **** 		it is an auto-reload timer.  It cannot be restarted here as the lists
 904:Middlewares/Third_Party/FreeRTOS/Source/timers.c **** 		have not yet been switched. */
 905:Middlewares/Third_Party/FreeRTOS/Source/timers.c **** 		pxTimer->pxCallbackFunction( ( TimerHandle_t ) pxTimer );
 906:Middlewares/Third_Party/FreeRTOS/Source/timers.c **** 
 907:Middlewares/Third_Party/FreeRTOS/Source/timers.c **** 		if( ( pxTimer->ucStatus & tmrSTATUS_IS_AUTORELOAD ) != 0 )
 908:Middlewares/Third_Party/FreeRTOS/Source/timers.c **** 		{
 909:Middlewares/Third_Party/FreeRTOS/Source/timers.c **** 			/* Calculate the reload value, and if the reload value results in
 910:Middlewares/Third_Party/FreeRTOS/Source/timers.c **** 			the timer going into the same timer list then it has already expired
 911:Middlewares/Third_Party/FreeRTOS/Source/timers.c **** 			and the timer should be re-inserted into the current list so it is
 912:Middlewares/Third_Party/FreeRTOS/Source/timers.c **** 			processed again within this loop.  Otherwise a command should be sent
 913:Middlewares/Third_Party/FreeRTOS/Source/timers.c **** 			to restart the timer to ensure it is only inserted into a list after
 914:Middlewares/Third_Party/FreeRTOS/Source/timers.c **** 			the lists have been swapped. */
 915:Middlewares/Third_Party/FreeRTOS/Source/timers.c **** 			xReloadTime = ( xNextExpireTime + pxTimer->xTimerPeriodInTicks );
 916:Middlewares/Third_Party/FreeRTOS/Source/timers.c **** 			if( xReloadTime > xNextExpireTime )
 917:Middlewares/Third_Party/FreeRTOS/Source/timers.c **** 			{
 918:Middlewares/Third_Party/FreeRTOS/Source/timers.c **** 				listSET_LIST_ITEM_VALUE( &( pxTimer->xTimerListItem ), xReloadTime );
 919:Middlewares/Third_Party/FreeRTOS/Source/timers.c **** 				listSET_LIST_ITEM_OWNER( &( pxTimer->xTimerListItem ), pxTimer );
 920:Middlewares/Third_Party/FreeRTOS/Source/timers.c **** 				vListInsert( pxCurrentTimerList, &( pxTimer->xTimerListItem ) );
 921:Middlewares/Third_Party/FreeRTOS/Source/timers.c **** 			}
 922:Middlewares/Third_Party/FreeRTOS/Source/timers.c **** 			else
 923:Middlewares/Third_Party/FreeRTOS/Source/timers.c **** 			{
 924:Middlewares/Third_Party/FreeRTOS/Source/timers.c **** 				xResult = xTimerGenericCommand( pxTimer, tmrCOMMAND_START_DONT_TRACE, xNextExpireTime, NULL, tm
 925:Middlewares/Third_Party/FreeRTOS/Source/timers.c **** 				configASSERT( xResult );
 926:Middlewares/Third_Party/FreeRTOS/Source/timers.c **** 				( void ) xResult;
 927:Middlewares/Third_Party/FreeRTOS/Source/timers.c **** 			}
 928:Middlewares/Third_Party/FreeRTOS/Source/timers.c **** 		}
 929:Middlewares/Third_Party/FreeRTOS/Source/timers.c **** 		else
 930:Middlewares/Third_Party/FreeRTOS/Source/timers.c **** 		{
 931:Middlewares/Third_Party/FreeRTOS/Source/timers.c **** 			mtCOVERAGE_TEST_MARKER();
 932:Middlewares/Third_Party/FreeRTOS/Source/timers.c **** 		}
 933:Middlewares/Third_Party/FreeRTOS/Source/timers.c **** 	}
 934:Middlewares/Third_Party/FreeRTOS/Source/timers.c **** 
 935:Middlewares/Third_Party/FreeRTOS/Source/timers.c **** 	pxTemp = pxCurrentTimerList;
 936:Middlewares/Third_Party/FreeRTOS/Source/timers.c **** 	pxCurrentTimerList = pxOverflowTimerList;
 937:Middlewares/Third_Party/FreeRTOS/Source/timers.c **** 	pxOverflowTimerList = pxTemp;
 938:Middlewares/Third_Party/FreeRTOS/Source/timers.c **** }
 939:Middlewares/Third_Party/FreeRTOS/Source/timers.c **** /*-----------------------------------------------------------*/
 940:Middlewares/Third_Party/FreeRTOS/Source/timers.c **** 
 941:Middlewares/Third_Party/FreeRTOS/Source/timers.c **** static void prvCheckForValidListAndQueue( void )
 942:Middlewares/Third_Party/FreeRTOS/Source/timers.c **** {
ARM GAS  /tmp/ccG38jLQ.s 			page 21


 187              		.loc 1 942 1 is_stmt 1 view -0
 188              		.cfi_startproc
 189              		@ args = 0, pretend = 0, frame = 0
 190              		@ frame_needed = 0, uses_anonymous_args = 0
 191 0000 30B5     		push	{r4, r5, lr}
 192              		.cfi_def_cfa_offset 12
 193              		.cfi_offset 4, -12
 194              		.cfi_offset 5, -8
 195              		.cfi_offset 14, -4
 196 0002 83B0     		sub	sp, sp, #12
 197              		.cfi_def_cfa_offset 24
 943:Middlewares/Third_Party/FreeRTOS/Source/timers.c **** 	/* Check that the list from which active timers are referenced, and the
 944:Middlewares/Third_Party/FreeRTOS/Source/timers.c **** 	queue used to communicate with the timer service, have been
 945:Middlewares/Third_Party/FreeRTOS/Source/timers.c **** 	initialised. */
 946:Middlewares/Third_Party/FreeRTOS/Source/timers.c **** 	taskENTER_CRITICAL();
 198              		.loc 1 946 2 view .LVU44
 199 0004 FFF7FEFF 		bl	vPortEnterCritical
 200              	.LVL20:
 947:Middlewares/Third_Party/FreeRTOS/Source/timers.c **** 	{
 948:Middlewares/Third_Party/FreeRTOS/Source/timers.c **** 		if( xTimerQueue == NULL )
 201              		.loc 1 948 3 view .LVU45
 202              		.loc 1 948 19 is_stmt 0 view .LVU46
 203 0008 114B     		ldr	r3, .L22
 204 000a 1B68     		ldr	r3, [r3]
 205              		.loc 1 948 5 view .LVU47
 206 000c 1BB1     		cbz	r3, .L21
 207              	.L19:
 949:Middlewares/Third_Party/FreeRTOS/Source/timers.c **** 		{
 950:Middlewares/Third_Party/FreeRTOS/Source/timers.c **** 			vListInitialise( &xActiveTimerList1 );
 951:Middlewares/Third_Party/FreeRTOS/Source/timers.c **** 			vListInitialise( &xActiveTimerList2 );
 952:Middlewares/Third_Party/FreeRTOS/Source/timers.c **** 			pxCurrentTimerList = &xActiveTimerList1;
 953:Middlewares/Third_Party/FreeRTOS/Source/timers.c **** 			pxOverflowTimerList = &xActiveTimerList2;
 954:Middlewares/Third_Party/FreeRTOS/Source/timers.c **** 
 955:Middlewares/Third_Party/FreeRTOS/Source/timers.c **** 			#if( configSUPPORT_STATIC_ALLOCATION == 1 )
 956:Middlewares/Third_Party/FreeRTOS/Source/timers.c **** 			{
 957:Middlewares/Third_Party/FreeRTOS/Source/timers.c **** 				/* The timer queue is allocated statically in case
 958:Middlewares/Third_Party/FreeRTOS/Source/timers.c **** 				configSUPPORT_DYNAMIC_ALLOCATION is 0. */
 959:Middlewares/Third_Party/FreeRTOS/Source/timers.c **** 				static StaticQueue_t xStaticTimerQueue; /*lint !e956 Ok to declare in this manner to prevent ad
 960:Middlewares/Third_Party/FreeRTOS/Source/timers.c **** 				static uint8_t ucStaticTimerQueueStorage[ ( size_t ) configTIMER_QUEUE_LENGTH * sizeof( DaemonT
 961:Middlewares/Third_Party/FreeRTOS/Source/timers.c **** 
 962:Middlewares/Third_Party/FreeRTOS/Source/timers.c **** 				xTimerQueue = xQueueCreateStatic( ( UBaseType_t ) configTIMER_QUEUE_LENGTH, ( UBaseType_t ) siz
 963:Middlewares/Third_Party/FreeRTOS/Source/timers.c **** 			}
 964:Middlewares/Third_Party/FreeRTOS/Source/timers.c **** 			#else
 965:Middlewares/Third_Party/FreeRTOS/Source/timers.c **** 			{
 966:Middlewares/Third_Party/FreeRTOS/Source/timers.c **** 				xTimerQueue = xQueueCreate( ( UBaseType_t ) configTIMER_QUEUE_LENGTH, sizeof( DaemonTaskMessage
 967:Middlewares/Third_Party/FreeRTOS/Source/timers.c **** 			}
 968:Middlewares/Third_Party/FreeRTOS/Source/timers.c **** 			#endif
 969:Middlewares/Third_Party/FreeRTOS/Source/timers.c **** 
 970:Middlewares/Third_Party/FreeRTOS/Source/timers.c **** 			#if ( configQUEUE_REGISTRY_SIZE > 0 )
 971:Middlewares/Third_Party/FreeRTOS/Source/timers.c **** 			{
 972:Middlewares/Third_Party/FreeRTOS/Source/timers.c **** 				if( xTimerQueue != NULL )
 973:Middlewares/Third_Party/FreeRTOS/Source/timers.c **** 				{
 974:Middlewares/Third_Party/FreeRTOS/Source/timers.c **** 					vQueueAddToRegistry( xTimerQueue, "TmrQ" );
 975:Middlewares/Third_Party/FreeRTOS/Source/timers.c **** 				}
 976:Middlewares/Third_Party/FreeRTOS/Source/timers.c **** 				else
 977:Middlewares/Third_Party/FreeRTOS/Source/timers.c **** 				{
 978:Middlewares/Third_Party/FreeRTOS/Source/timers.c **** 					mtCOVERAGE_TEST_MARKER();
ARM GAS  /tmp/ccG38jLQ.s 			page 22


 979:Middlewares/Third_Party/FreeRTOS/Source/timers.c **** 				}
 980:Middlewares/Third_Party/FreeRTOS/Source/timers.c **** 			}
 981:Middlewares/Third_Party/FreeRTOS/Source/timers.c **** 			#endif /* configQUEUE_REGISTRY_SIZE */
 982:Middlewares/Third_Party/FreeRTOS/Source/timers.c **** 		}
 983:Middlewares/Third_Party/FreeRTOS/Source/timers.c **** 		else
 984:Middlewares/Third_Party/FreeRTOS/Source/timers.c **** 		{
 985:Middlewares/Third_Party/FreeRTOS/Source/timers.c **** 			mtCOVERAGE_TEST_MARKER();
 208              		.loc 1 985 28 is_stmt 1 view .LVU48
 986:Middlewares/Third_Party/FreeRTOS/Source/timers.c **** 		}
 987:Middlewares/Third_Party/FreeRTOS/Source/timers.c **** 	}
 988:Middlewares/Third_Party/FreeRTOS/Source/timers.c **** 	taskEXIT_CRITICAL();
 209              		.loc 1 988 2 view .LVU49
 210 000e FFF7FEFF 		bl	vPortExitCritical
 211              	.LVL21:
 989:Middlewares/Third_Party/FreeRTOS/Source/timers.c **** }
 212              		.loc 1 989 1 is_stmt 0 view .LVU50
 213 0012 03B0     		add	sp, sp, #12
 214              		.cfi_remember_state
 215              		.cfi_def_cfa_offset 12
 216              		@ sp needed
 217 0014 30BD     		pop	{r4, r5, pc}
 218              	.L21:
 219              		.cfi_restore_state
 950:Middlewares/Third_Party/FreeRTOS/Source/timers.c **** 			vListInitialise( &xActiveTimerList2 );
 220              		.loc 1 950 4 is_stmt 1 view .LVU51
 221 0016 0F4D     		ldr	r5, .L22+4
 222 0018 2846     		mov	r0, r5
 223 001a FFF7FEFF 		bl	vListInitialise
 224              	.LVL22:
 951:Middlewares/Third_Party/FreeRTOS/Source/timers.c **** 			pxCurrentTimerList = &xActiveTimerList1;
 225              		.loc 1 951 4 view .LVU52
 226 001e 0E4C     		ldr	r4, .L22+8
 227 0020 2046     		mov	r0, r4
 228 0022 FFF7FEFF 		bl	vListInitialise
 229              	.LVL23:
 952:Middlewares/Third_Party/FreeRTOS/Source/timers.c **** 			pxOverflowTimerList = &xActiveTimerList2;
 230              		.loc 1 952 4 view .LVU53
 952:Middlewares/Third_Party/FreeRTOS/Source/timers.c **** 			pxOverflowTimerList = &xActiveTimerList2;
 231              		.loc 1 952 23 is_stmt 0 view .LVU54
 232 0026 0D4B     		ldr	r3, .L22+12
 233 0028 1D60     		str	r5, [r3]
 953:Middlewares/Third_Party/FreeRTOS/Source/timers.c **** 
 234              		.loc 1 953 4 is_stmt 1 view .LVU55
 953:Middlewares/Third_Party/FreeRTOS/Source/timers.c **** 
 235              		.loc 1 953 24 is_stmt 0 view .LVU56
 236 002a 0D4B     		ldr	r3, .L22+16
 237 002c 1C60     		str	r4, [r3]
 238              	.LBB45:
 959:Middlewares/Third_Party/FreeRTOS/Source/timers.c **** 				static uint8_t ucStaticTimerQueueStorage[ ( size_t ) configTIMER_QUEUE_LENGTH * sizeof( DaemonT
 239              		.loc 1 959 5 is_stmt 1 view .LVU57
 960:Middlewares/Third_Party/FreeRTOS/Source/timers.c **** 
 240              		.loc 1 960 5 view .LVU58
 962:Middlewares/Third_Party/FreeRTOS/Source/timers.c **** 			}
 241              		.loc 1 962 5 view .LVU59
 962:Middlewares/Third_Party/FreeRTOS/Source/timers.c **** 			}
 242              		.loc 1 962 19 is_stmt 0 view .LVU60
 243 002e 0023     		movs	r3, #0
ARM GAS  /tmp/ccG38jLQ.s 			page 23


 244 0030 0093     		str	r3, [sp]
 245 0032 0C4B     		ldr	r3, .L22+20
 246 0034 0C4A     		ldr	r2, .L22+24
 247 0036 1021     		movs	r1, #16
 248 0038 0A20     		movs	r0, #10
 249 003a FFF7FEFF 		bl	xQueueGenericCreateStatic
 250              	.LVL24:
 962:Middlewares/Third_Party/FreeRTOS/Source/timers.c **** 			}
 251              		.loc 1 962 17 view .LVU61
 252 003e 044B     		ldr	r3, .L22
 253 0040 1860     		str	r0, [r3]
 254              	.LBE45:
 972:Middlewares/Third_Party/FreeRTOS/Source/timers.c **** 				{
 255              		.loc 1 972 5 is_stmt 1 view .LVU62
 972:Middlewares/Third_Party/FreeRTOS/Source/timers.c **** 				{
 256              		.loc 1 972 7 is_stmt 0 view .LVU63
 257 0042 0028     		cmp	r0, #0
 258 0044 E3D0     		beq	.L19
 974:Middlewares/Third_Party/FreeRTOS/Source/timers.c **** 				}
 259              		.loc 1 974 6 is_stmt 1 view .LVU64
 260 0046 0949     		ldr	r1, .L22+28
 261 0048 FFF7FEFF 		bl	vQueueAddToRegistry
 262              	.LVL25:
 263 004c DFE7     		b	.L19
 264              	.L23:
 265 004e 00BF     		.align	2
 266              	.L22:
 267 0050 00000000 		.word	xTimerQueue
 268 0054 00000000 		.word	xActiveTimerList1
 269 0058 00000000 		.word	xActiveTimerList2
 270 005c 00000000 		.word	pxCurrentTimerList
 271 0060 00000000 		.word	pxOverflowTimerList
 272 0064 00000000 		.word	xStaticTimerQueue.0
 273 0068 00000000 		.word	ucStaticTimerQueueStorage.1
 274 006c 00000000 		.word	.LC0
 275              		.cfi_endproc
 276              	.LFE23:
 278              		.section	.text.prvInitialiseNewTimer,"ax",%progbits
 279              		.align	1
 280              		.syntax unified
 281              		.thumb
 282              		.thumb_func
 284              	prvInitialiseNewTimer:
 285              	.LVL26:
 286              	.LFB7:
 355:Middlewares/Third_Party/FreeRTOS/Source/timers.c **** 	/* 0 is not a valid value for xTimerPeriodInTicks. */
 287              		.loc 1 355 1 view -0
 288              		.cfi_startproc
 289              		@ args = 8, pretend = 0, frame = 0
 290              		@ frame_needed = 0, uses_anonymous_args = 0
 355:Middlewares/Third_Party/FreeRTOS/Source/timers.c **** 	/* 0 is not a valid value for xTimerPeriodInTicks. */
 291              		.loc 1 355 1 is_stmt 0 view .LVU66
 292 0000 2DE9F041 		push	{r4, r5, r6, r7, r8, lr}
 293              		.cfi_def_cfa_offset 24
 294              		.cfi_offset 4, -24
 295              		.cfi_offset 5, -20
 296              		.cfi_offset 6, -16
ARM GAS  /tmp/ccG38jLQ.s 			page 24


 297              		.cfi_offset 7, -12
 298              		.cfi_offset 8, -8
 299              		.cfi_offset 14, -4
 300 0004 079F     		ldr	r7, [sp, #28]
 357:Middlewares/Third_Party/FreeRTOS/Source/timers.c **** 
 301              		.loc 1 357 2 is_stmt 1 view .LVU67
 302 0006 41B9     		cbnz	r1, .L25
 357:Middlewares/Third_Party/FreeRTOS/Source/timers.c **** 
 303              		.loc 1 357 2 view .LVU68
 304              	.LBB46:
 305              	.LBI46:
 306              		.file 2 "Middlewares/Third_Party/FreeRTOS/Source/portable/GCC/ARM_CM4F/portmacro.h"
   1:Middlewares/Third_Party/FreeRTOS/Source/portable/GCC/ARM_CM4F/portmacro.h **** /*
   2:Middlewares/Third_Party/FreeRTOS/Source/portable/GCC/ARM_CM4F/portmacro.h ****  * FreeRTOS Kernel V10.3.1
   3:Middlewares/Third_Party/FreeRTOS/Source/portable/GCC/ARM_CM4F/portmacro.h ****  * Copyright (C) 2020 Amazon.com, Inc. or its affiliates.  All Rights Reserved.
   4:Middlewares/Third_Party/FreeRTOS/Source/portable/GCC/ARM_CM4F/portmacro.h ****  *
   5:Middlewares/Third_Party/FreeRTOS/Source/portable/GCC/ARM_CM4F/portmacro.h ****  * Permission is hereby granted, free of charge, to any person obtaining a copy of
   6:Middlewares/Third_Party/FreeRTOS/Source/portable/GCC/ARM_CM4F/portmacro.h ****  * this software and associated documentation files (the "Software"), to deal in
   7:Middlewares/Third_Party/FreeRTOS/Source/portable/GCC/ARM_CM4F/portmacro.h ****  * the Software without restriction, including without limitation the rights to
   8:Middlewares/Third_Party/FreeRTOS/Source/portable/GCC/ARM_CM4F/portmacro.h ****  * use, copy, modify, merge, publish, distribute, sublicense, and/or sell copies of
   9:Middlewares/Third_Party/FreeRTOS/Source/portable/GCC/ARM_CM4F/portmacro.h ****  * the Software, and to permit persons to whom the Software is furnished to do so,
  10:Middlewares/Third_Party/FreeRTOS/Source/portable/GCC/ARM_CM4F/portmacro.h ****  * subject to the following conditions:
  11:Middlewares/Third_Party/FreeRTOS/Source/portable/GCC/ARM_CM4F/portmacro.h ****  *
  12:Middlewares/Third_Party/FreeRTOS/Source/portable/GCC/ARM_CM4F/portmacro.h ****  * The above copyright notice and this permission notice shall be included in all
  13:Middlewares/Third_Party/FreeRTOS/Source/portable/GCC/ARM_CM4F/portmacro.h ****  * copies or substantial portions of the Software.
  14:Middlewares/Third_Party/FreeRTOS/Source/portable/GCC/ARM_CM4F/portmacro.h ****  *
  15:Middlewares/Third_Party/FreeRTOS/Source/portable/GCC/ARM_CM4F/portmacro.h ****  * THE SOFTWARE IS PROVIDED "AS IS", WITHOUT WARRANTY OF ANY KIND, EXPRESS OR
  16:Middlewares/Third_Party/FreeRTOS/Source/portable/GCC/ARM_CM4F/portmacro.h ****  * IMPLIED, INCLUDING BUT NOT LIMITED TO THE WARRANTIES OF MERCHANTABILITY, FITNESS
  17:Middlewares/Third_Party/FreeRTOS/Source/portable/GCC/ARM_CM4F/portmacro.h ****  * FOR A PARTICULAR PURPOSE AND NONINFRINGEMENT. IN NO EVENT SHALL THE AUTHORS OR
  18:Middlewares/Third_Party/FreeRTOS/Source/portable/GCC/ARM_CM4F/portmacro.h ****  * COPYRIGHT HOLDERS BE LIABLE FOR ANY CLAIM, DAMAGES OR OTHER LIABILITY, WHETHER
  19:Middlewares/Third_Party/FreeRTOS/Source/portable/GCC/ARM_CM4F/portmacro.h ****  * IN AN ACTION OF CONTRACT, TORT OR OTHERWISE, ARISING FROM, OUT OF OR IN
  20:Middlewares/Third_Party/FreeRTOS/Source/portable/GCC/ARM_CM4F/portmacro.h ****  * CONNECTION WITH THE SOFTWARE OR THE USE OR OTHER DEALINGS IN THE SOFTWARE.
  21:Middlewares/Third_Party/FreeRTOS/Source/portable/GCC/ARM_CM4F/portmacro.h ****  *
  22:Middlewares/Third_Party/FreeRTOS/Source/portable/GCC/ARM_CM4F/portmacro.h ****  * http://www.FreeRTOS.org
  23:Middlewares/Third_Party/FreeRTOS/Source/portable/GCC/ARM_CM4F/portmacro.h ****  * http://aws.amazon.com/freertos
  24:Middlewares/Third_Party/FreeRTOS/Source/portable/GCC/ARM_CM4F/portmacro.h ****  *
  25:Middlewares/Third_Party/FreeRTOS/Source/portable/GCC/ARM_CM4F/portmacro.h ****  * 1 tab == 4 spaces!
  26:Middlewares/Third_Party/FreeRTOS/Source/portable/GCC/ARM_CM4F/portmacro.h ****  */
  27:Middlewares/Third_Party/FreeRTOS/Source/portable/GCC/ARM_CM4F/portmacro.h **** 
  28:Middlewares/Third_Party/FreeRTOS/Source/portable/GCC/ARM_CM4F/portmacro.h **** 
  29:Middlewares/Third_Party/FreeRTOS/Source/portable/GCC/ARM_CM4F/portmacro.h **** #ifndef PORTMACRO_H
  30:Middlewares/Third_Party/FreeRTOS/Source/portable/GCC/ARM_CM4F/portmacro.h **** #define PORTMACRO_H
  31:Middlewares/Third_Party/FreeRTOS/Source/portable/GCC/ARM_CM4F/portmacro.h **** 
  32:Middlewares/Third_Party/FreeRTOS/Source/portable/GCC/ARM_CM4F/portmacro.h **** #ifdef __cplusplus
  33:Middlewares/Third_Party/FreeRTOS/Source/portable/GCC/ARM_CM4F/portmacro.h **** extern "C" {
  34:Middlewares/Third_Party/FreeRTOS/Source/portable/GCC/ARM_CM4F/portmacro.h **** #endif
  35:Middlewares/Third_Party/FreeRTOS/Source/portable/GCC/ARM_CM4F/portmacro.h **** 
  36:Middlewares/Third_Party/FreeRTOS/Source/portable/GCC/ARM_CM4F/portmacro.h **** /*-----------------------------------------------------------
  37:Middlewares/Third_Party/FreeRTOS/Source/portable/GCC/ARM_CM4F/portmacro.h ****  * Port specific definitions.
  38:Middlewares/Third_Party/FreeRTOS/Source/portable/GCC/ARM_CM4F/portmacro.h ****  *
  39:Middlewares/Third_Party/FreeRTOS/Source/portable/GCC/ARM_CM4F/portmacro.h ****  * The settings in this file configure FreeRTOS correctly for the
  40:Middlewares/Third_Party/FreeRTOS/Source/portable/GCC/ARM_CM4F/portmacro.h ****  * given hardware and compiler.
  41:Middlewares/Third_Party/FreeRTOS/Source/portable/GCC/ARM_CM4F/portmacro.h ****  *
  42:Middlewares/Third_Party/FreeRTOS/Source/portable/GCC/ARM_CM4F/portmacro.h ****  * These settings should not be altered.
  43:Middlewares/Third_Party/FreeRTOS/Source/portable/GCC/ARM_CM4F/portmacro.h ****  *-----------------------------------------------------------
  44:Middlewares/Third_Party/FreeRTOS/Source/portable/GCC/ARM_CM4F/portmacro.h ****  */
  45:Middlewares/Third_Party/FreeRTOS/Source/portable/GCC/ARM_CM4F/portmacro.h **** 
ARM GAS  /tmp/ccG38jLQ.s 			page 25


  46:Middlewares/Third_Party/FreeRTOS/Source/portable/GCC/ARM_CM4F/portmacro.h **** /* Type definitions. */
  47:Middlewares/Third_Party/FreeRTOS/Source/portable/GCC/ARM_CM4F/portmacro.h **** #define portCHAR		char
  48:Middlewares/Third_Party/FreeRTOS/Source/portable/GCC/ARM_CM4F/portmacro.h **** #define portFLOAT		float
  49:Middlewares/Third_Party/FreeRTOS/Source/portable/GCC/ARM_CM4F/portmacro.h **** #define portDOUBLE		double
  50:Middlewares/Third_Party/FreeRTOS/Source/portable/GCC/ARM_CM4F/portmacro.h **** #define portLONG		long
  51:Middlewares/Third_Party/FreeRTOS/Source/portable/GCC/ARM_CM4F/portmacro.h **** #define portSHORT		short
  52:Middlewares/Third_Party/FreeRTOS/Source/portable/GCC/ARM_CM4F/portmacro.h **** #define portSTACK_TYPE	uint32_t
  53:Middlewares/Third_Party/FreeRTOS/Source/portable/GCC/ARM_CM4F/portmacro.h **** #define portBASE_TYPE	long
  54:Middlewares/Third_Party/FreeRTOS/Source/portable/GCC/ARM_CM4F/portmacro.h **** 
  55:Middlewares/Third_Party/FreeRTOS/Source/portable/GCC/ARM_CM4F/portmacro.h **** typedef portSTACK_TYPE StackType_t;
  56:Middlewares/Third_Party/FreeRTOS/Source/portable/GCC/ARM_CM4F/portmacro.h **** typedef long BaseType_t;
  57:Middlewares/Third_Party/FreeRTOS/Source/portable/GCC/ARM_CM4F/portmacro.h **** typedef unsigned long UBaseType_t;
  58:Middlewares/Third_Party/FreeRTOS/Source/portable/GCC/ARM_CM4F/portmacro.h **** 
  59:Middlewares/Third_Party/FreeRTOS/Source/portable/GCC/ARM_CM4F/portmacro.h **** #if( configUSE_16_BIT_TICKS == 1 )
  60:Middlewares/Third_Party/FreeRTOS/Source/portable/GCC/ARM_CM4F/portmacro.h **** 	typedef uint16_t TickType_t;
  61:Middlewares/Third_Party/FreeRTOS/Source/portable/GCC/ARM_CM4F/portmacro.h **** 	#define portMAX_DELAY ( TickType_t ) 0xffff
  62:Middlewares/Third_Party/FreeRTOS/Source/portable/GCC/ARM_CM4F/portmacro.h **** #else
  63:Middlewares/Third_Party/FreeRTOS/Source/portable/GCC/ARM_CM4F/portmacro.h **** 	typedef uint32_t TickType_t;
  64:Middlewares/Third_Party/FreeRTOS/Source/portable/GCC/ARM_CM4F/portmacro.h **** 	#define portMAX_DELAY ( TickType_t ) 0xffffffffUL
  65:Middlewares/Third_Party/FreeRTOS/Source/portable/GCC/ARM_CM4F/portmacro.h **** 
  66:Middlewares/Third_Party/FreeRTOS/Source/portable/GCC/ARM_CM4F/portmacro.h **** 	/* 32-bit tick type on a 32-bit architecture, so reads of the tick count do
  67:Middlewares/Third_Party/FreeRTOS/Source/portable/GCC/ARM_CM4F/portmacro.h **** 	not need to be guarded with a critical section. */
  68:Middlewares/Third_Party/FreeRTOS/Source/portable/GCC/ARM_CM4F/portmacro.h **** 	#define portTICK_TYPE_IS_ATOMIC 1
  69:Middlewares/Third_Party/FreeRTOS/Source/portable/GCC/ARM_CM4F/portmacro.h **** #endif
  70:Middlewares/Third_Party/FreeRTOS/Source/portable/GCC/ARM_CM4F/portmacro.h **** /*-----------------------------------------------------------*/
  71:Middlewares/Third_Party/FreeRTOS/Source/portable/GCC/ARM_CM4F/portmacro.h **** 
  72:Middlewares/Third_Party/FreeRTOS/Source/portable/GCC/ARM_CM4F/portmacro.h **** /* Architecture specifics. */
  73:Middlewares/Third_Party/FreeRTOS/Source/portable/GCC/ARM_CM4F/portmacro.h **** #define portSTACK_GROWTH			( -1 )
  74:Middlewares/Third_Party/FreeRTOS/Source/portable/GCC/ARM_CM4F/portmacro.h **** #define portTICK_PERIOD_MS			( ( TickType_t ) 1000 / configTICK_RATE_HZ )
  75:Middlewares/Third_Party/FreeRTOS/Source/portable/GCC/ARM_CM4F/portmacro.h **** #define portBYTE_ALIGNMENT			8
  76:Middlewares/Third_Party/FreeRTOS/Source/portable/GCC/ARM_CM4F/portmacro.h **** /*-----------------------------------------------------------*/
  77:Middlewares/Third_Party/FreeRTOS/Source/portable/GCC/ARM_CM4F/portmacro.h **** 
  78:Middlewares/Third_Party/FreeRTOS/Source/portable/GCC/ARM_CM4F/portmacro.h **** /* Scheduler utilities. */
  79:Middlewares/Third_Party/FreeRTOS/Source/portable/GCC/ARM_CM4F/portmacro.h **** #define portYIELD() 															\
  80:Middlewares/Third_Party/FreeRTOS/Source/portable/GCC/ARM_CM4F/portmacro.h **** {																				\
  81:Middlewares/Third_Party/FreeRTOS/Source/portable/GCC/ARM_CM4F/portmacro.h **** 	/* Set a PendSV to request a context switch. */								\
  82:Middlewares/Third_Party/FreeRTOS/Source/portable/GCC/ARM_CM4F/portmacro.h **** 	portNVIC_INT_CTRL_REG = portNVIC_PENDSVSET_BIT;								\
  83:Middlewares/Third_Party/FreeRTOS/Source/portable/GCC/ARM_CM4F/portmacro.h **** 																				\
  84:Middlewares/Third_Party/FreeRTOS/Source/portable/GCC/ARM_CM4F/portmacro.h **** 	/* Barriers are normally not required but do ensure the code is completely	\
  85:Middlewares/Third_Party/FreeRTOS/Source/portable/GCC/ARM_CM4F/portmacro.h **** 	within the specified behaviour for the architecture. */						\
  86:Middlewares/Third_Party/FreeRTOS/Source/portable/GCC/ARM_CM4F/portmacro.h **** 	__asm volatile( "dsb" ::: "memory" );										\
  87:Middlewares/Third_Party/FreeRTOS/Source/portable/GCC/ARM_CM4F/portmacro.h **** 	__asm volatile( "isb" );													\
  88:Middlewares/Third_Party/FreeRTOS/Source/portable/GCC/ARM_CM4F/portmacro.h **** }
  89:Middlewares/Third_Party/FreeRTOS/Source/portable/GCC/ARM_CM4F/portmacro.h **** 
  90:Middlewares/Third_Party/FreeRTOS/Source/portable/GCC/ARM_CM4F/portmacro.h **** #define portNVIC_INT_CTRL_REG		( * ( ( volatile uint32_t * ) 0xe000ed04 ) )
  91:Middlewares/Third_Party/FreeRTOS/Source/portable/GCC/ARM_CM4F/portmacro.h **** #define portNVIC_PENDSVSET_BIT		( 1UL << 28UL )
  92:Middlewares/Third_Party/FreeRTOS/Source/portable/GCC/ARM_CM4F/portmacro.h **** #define portEND_SWITCHING_ISR( xSwitchRequired ) if( xSwitchRequired != pdFALSE ) portYIELD()
  93:Middlewares/Third_Party/FreeRTOS/Source/portable/GCC/ARM_CM4F/portmacro.h **** #define portYIELD_FROM_ISR( x ) portEND_SWITCHING_ISR( x )
  94:Middlewares/Third_Party/FreeRTOS/Source/portable/GCC/ARM_CM4F/portmacro.h **** /*-----------------------------------------------------------*/
  95:Middlewares/Third_Party/FreeRTOS/Source/portable/GCC/ARM_CM4F/portmacro.h **** 
  96:Middlewares/Third_Party/FreeRTOS/Source/portable/GCC/ARM_CM4F/portmacro.h **** /* Critical section management. */
  97:Middlewares/Third_Party/FreeRTOS/Source/portable/GCC/ARM_CM4F/portmacro.h **** extern void vPortEnterCritical( void );
  98:Middlewares/Third_Party/FreeRTOS/Source/portable/GCC/ARM_CM4F/portmacro.h **** extern void vPortExitCritical( void );
  99:Middlewares/Third_Party/FreeRTOS/Source/portable/GCC/ARM_CM4F/portmacro.h **** #define portSET_INTERRUPT_MASK_FROM_ISR()		ulPortRaiseBASEPRI()
 100:Middlewares/Third_Party/FreeRTOS/Source/portable/GCC/ARM_CM4F/portmacro.h **** #define portCLEAR_INTERRUPT_MASK_FROM_ISR(x)	vPortSetBASEPRI(x)
 101:Middlewares/Third_Party/FreeRTOS/Source/portable/GCC/ARM_CM4F/portmacro.h **** #define portDISABLE_INTERRUPTS()				vPortRaiseBASEPRI()
 102:Middlewares/Third_Party/FreeRTOS/Source/portable/GCC/ARM_CM4F/portmacro.h **** #define portENABLE_INTERRUPTS()					vPortSetBASEPRI(0)
ARM GAS  /tmp/ccG38jLQ.s 			page 26


 103:Middlewares/Third_Party/FreeRTOS/Source/portable/GCC/ARM_CM4F/portmacro.h **** #define portENTER_CRITICAL()					vPortEnterCritical()
 104:Middlewares/Third_Party/FreeRTOS/Source/portable/GCC/ARM_CM4F/portmacro.h **** #define portEXIT_CRITICAL()						vPortExitCritical()
 105:Middlewares/Third_Party/FreeRTOS/Source/portable/GCC/ARM_CM4F/portmacro.h **** 
 106:Middlewares/Third_Party/FreeRTOS/Source/portable/GCC/ARM_CM4F/portmacro.h **** /*-----------------------------------------------------------*/
 107:Middlewares/Third_Party/FreeRTOS/Source/portable/GCC/ARM_CM4F/portmacro.h **** 
 108:Middlewares/Third_Party/FreeRTOS/Source/portable/GCC/ARM_CM4F/portmacro.h **** /* Task function macros as described on the FreeRTOS.org WEB site.  These are
 109:Middlewares/Third_Party/FreeRTOS/Source/portable/GCC/ARM_CM4F/portmacro.h **** not necessary for to use this port.  They are defined so the common demo files
 110:Middlewares/Third_Party/FreeRTOS/Source/portable/GCC/ARM_CM4F/portmacro.h **** (which build with all the ports) will build. */
 111:Middlewares/Third_Party/FreeRTOS/Source/portable/GCC/ARM_CM4F/portmacro.h **** #define portTASK_FUNCTION_PROTO( vFunction, pvParameters ) void vFunction( void *pvParameters )
 112:Middlewares/Third_Party/FreeRTOS/Source/portable/GCC/ARM_CM4F/portmacro.h **** #define portTASK_FUNCTION( vFunction, pvParameters ) void vFunction( void *pvParameters )
 113:Middlewares/Third_Party/FreeRTOS/Source/portable/GCC/ARM_CM4F/portmacro.h **** /*-----------------------------------------------------------*/
 114:Middlewares/Third_Party/FreeRTOS/Source/portable/GCC/ARM_CM4F/portmacro.h **** 
 115:Middlewares/Third_Party/FreeRTOS/Source/portable/GCC/ARM_CM4F/portmacro.h **** /* Tickless idle/low power functionality. */
 116:Middlewares/Third_Party/FreeRTOS/Source/portable/GCC/ARM_CM4F/portmacro.h **** #ifndef portSUPPRESS_TICKS_AND_SLEEP
 117:Middlewares/Third_Party/FreeRTOS/Source/portable/GCC/ARM_CM4F/portmacro.h **** 	extern void vPortSuppressTicksAndSleep( TickType_t xExpectedIdleTime );
 118:Middlewares/Third_Party/FreeRTOS/Source/portable/GCC/ARM_CM4F/portmacro.h **** 	#define portSUPPRESS_TICKS_AND_SLEEP( xExpectedIdleTime ) vPortSuppressTicksAndSleep( xExpectedIdl
 119:Middlewares/Third_Party/FreeRTOS/Source/portable/GCC/ARM_CM4F/portmacro.h **** #endif
 120:Middlewares/Third_Party/FreeRTOS/Source/portable/GCC/ARM_CM4F/portmacro.h **** /*-----------------------------------------------------------*/
 121:Middlewares/Third_Party/FreeRTOS/Source/portable/GCC/ARM_CM4F/portmacro.h **** 
 122:Middlewares/Third_Party/FreeRTOS/Source/portable/GCC/ARM_CM4F/portmacro.h **** /* Architecture specific optimisations. */
 123:Middlewares/Third_Party/FreeRTOS/Source/portable/GCC/ARM_CM4F/portmacro.h **** #ifndef configUSE_PORT_OPTIMISED_TASK_SELECTION
 124:Middlewares/Third_Party/FreeRTOS/Source/portable/GCC/ARM_CM4F/portmacro.h **** 	#define configUSE_PORT_OPTIMISED_TASK_SELECTION 1
 125:Middlewares/Third_Party/FreeRTOS/Source/portable/GCC/ARM_CM4F/portmacro.h **** #endif
 126:Middlewares/Third_Party/FreeRTOS/Source/portable/GCC/ARM_CM4F/portmacro.h **** 
 127:Middlewares/Third_Party/FreeRTOS/Source/portable/GCC/ARM_CM4F/portmacro.h **** #if configUSE_PORT_OPTIMISED_TASK_SELECTION == 1
 128:Middlewares/Third_Party/FreeRTOS/Source/portable/GCC/ARM_CM4F/portmacro.h **** 
 129:Middlewares/Third_Party/FreeRTOS/Source/portable/GCC/ARM_CM4F/portmacro.h **** 	/* Generic helper function. */
 130:Middlewares/Third_Party/FreeRTOS/Source/portable/GCC/ARM_CM4F/portmacro.h **** 	__attribute__( ( always_inline ) ) static inline uint8_t ucPortCountLeadingZeros( uint32_t ulBitma
 131:Middlewares/Third_Party/FreeRTOS/Source/portable/GCC/ARM_CM4F/portmacro.h **** 	{
 132:Middlewares/Third_Party/FreeRTOS/Source/portable/GCC/ARM_CM4F/portmacro.h **** 	uint8_t ucReturn;
 133:Middlewares/Third_Party/FreeRTOS/Source/portable/GCC/ARM_CM4F/portmacro.h **** 
 134:Middlewares/Third_Party/FreeRTOS/Source/portable/GCC/ARM_CM4F/portmacro.h **** 		__asm volatile ( "clz %0, %1" : "=r" ( ucReturn ) : "r" ( ulBitmap ) : "memory" );
 135:Middlewares/Third_Party/FreeRTOS/Source/portable/GCC/ARM_CM4F/portmacro.h **** 		return ucReturn;
 136:Middlewares/Third_Party/FreeRTOS/Source/portable/GCC/ARM_CM4F/portmacro.h **** 	}
 137:Middlewares/Third_Party/FreeRTOS/Source/portable/GCC/ARM_CM4F/portmacro.h **** 
 138:Middlewares/Third_Party/FreeRTOS/Source/portable/GCC/ARM_CM4F/portmacro.h **** 	/* Check the configuration. */
 139:Middlewares/Third_Party/FreeRTOS/Source/portable/GCC/ARM_CM4F/portmacro.h **** 	#if( configMAX_PRIORITIES > 32 )
 140:Middlewares/Third_Party/FreeRTOS/Source/portable/GCC/ARM_CM4F/portmacro.h **** 		#error configUSE_PORT_OPTIMISED_TASK_SELECTION can only be set to 1 when configMAX_PRIORITIES is 
 141:Middlewares/Third_Party/FreeRTOS/Source/portable/GCC/ARM_CM4F/portmacro.h **** 	#endif
 142:Middlewares/Third_Party/FreeRTOS/Source/portable/GCC/ARM_CM4F/portmacro.h **** 
 143:Middlewares/Third_Party/FreeRTOS/Source/portable/GCC/ARM_CM4F/portmacro.h **** 	/* Store/clear the ready priorities in a bit map. */
 144:Middlewares/Third_Party/FreeRTOS/Source/portable/GCC/ARM_CM4F/portmacro.h **** 	#define portRECORD_READY_PRIORITY( uxPriority, uxReadyPriorities ) ( uxReadyPriorities ) |= ( 1UL 
 145:Middlewares/Third_Party/FreeRTOS/Source/portable/GCC/ARM_CM4F/portmacro.h **** 	#define portRESET_READY_PRIORITY( uxPriority, uxReadyPriorities ) ( uxReadyPriorities ) &= ~( 1UL 
 146:Middlewares/Third_Party/FreeRTOS/Source/portable/GCC/ARM_CM4F/portmacro.h **** 
 147:Middlewares/Third_Party/FreeRTOS/Source/portable/GCC/ARM_CM4F/portmacro.h **** 	/*-----------------------------------------------------------*/
 148:Middlewares/Third_Party/FreeRTOS/Source/portable/GCC/ARM_CM4F/portmacro.h **** 
 149:Middlewares/Third_Party/FreeRTOS/Source/portable/GCC/ARM_CM4F/portmacro.h **** 	#define portGET_HIGHEST_PRIORITY( uxTopPriority, uxReadyPriorities ) uxTopPriority = ( 31UL - ( ui
 150:Middlewares/Third_Party/FreeRTOS/Source/portable/GCC/ARM_CM4F/portmacro.h **** 
 151:Middlewares/Third_Party/FreeRTOS/Source/portable/GCC/ARM_CM4F/portmacro.h **** #endif /* configUSE_PORT_OPTIMISED_TASK_SELECTION */
 152:Middlewares/Third_Party/FreeRTOS/Source/portable/GCC/ARM_CM4F/portmacro.h **** 
 153:Middlewares/Third_Party/FreeRTOS/Source/portable/GCC/ARM_CM4F/portmacro.h **** /*-----------------------------------------------------------*/
 154:Middlewares/Third_Party/FreeRTOS/Source/portable/GCC/ARM_CM4F/portmacro.h **** 
 155:Middlewares/Third_Party/FreeRTOS/Source/portable/GCC/ARM_CM4F/portmacro.h **** #ifdef configASSERT
 156:Middlewares/Third_Party/FreeRTOS/Source/portable/GCC/ARM_CM4F/portmacro.h **** 	void vPortValidateInterruptPriority( void );
 157:Middlewares/Third_Party/FreeRTOS/Source/portable/GCC/ARM_CM4F/portmacro.h **** 	#define portASSERT_IF_INTERRUPT_PRIORITY_INVALID() 	vPortValidateInterruptPriority()
 158:Middlewares/Third_Party/FreeRTOS/Source/portable/GCC/ARM_CM4F/portmacro.h **** #endif
 159:Middlewares/Third_Party/FreeRTOS/Source/portable/GCC/ARM_CM4F/portmacro.h **** 
ARM GAS  /tmp/ccG38jLQ.s 			page 27


 160:Middlewares/Third_Party/FreeRTOS/Source/portable/GCC/ARM_CM4F/portmacro.h **** /* portNOP() is not required by this port. */
 161:Middlewares/Third_Party/FreeRTOS/Source/portable/GCC/ARM_CM4F/portmacro.h **** #define portNOP()
 162:Middlewares/Third_Party/FreeRTOS/Source/portable/GCC/ARM_CM4F/portmacro.h **** 
 163:Middlewares/Third_Party/FreeRTOS/Source/portable/GCC/ARM_CM4F/portmacro.h **** #define portINLINE	__inline
 164:Middlewares/Third_Party/FreeRTOS/Source/portable/GCC/ARM_CM4F/portmacro.h **** 
 165:Middlewares/Third_Party/FreeRTOS/Source/portable/GCC/ARM_CM4F/portmacro.h **** #ifndef portFORCE_INLINE
 166:Middlewares/Third_Party/FreeRTOS/Source/portable/GCC/ARM_CM4F/portmacro.h **** 	#define portFORCE_INLINE inline __attribute__(( always_inline))
 167:Middlewares/Third_Party/FreeRTOS/Source/portable/GCC/ARM_CM4F/portmacro.h **** #endif
 168:Middlewares/Third_Party/FreeRTOS/Source/portable/GCC/ARM_CM4F/portmacro.h **** 
 169:Middlewares/Third_Party/FreeRTOS/Source/portable/GCC/ARM_CM4F/portmacro.h **** portFORCE_INLINE static BaseType_t xPortIsInsideInterrupt( void )
 170:Middlewares/Third_Party/FreeRTOS/Source/portable/GCC/ARM_CM4F/portmacro.h **** {
 171:Middlewares/Third_Party/FreeRTOS/Source/portable/GCC/ARM_CM4F/portmacro.h **** uint32_t ulCurrentInterrupt;
 172:Middlewares/Third_Party/FreeRTOS/Source/portable/GCC/ARM_CM4F/portmacro.h **** BaseType_t xReturn;
 173:Middlewares/Third_Party/FreeRTOS/Source/portable/GCC/ARM_CM4F/portmacro.h **** 
 174:Middlewares/Third_Party/FreeRTOS/Source/portable/GCC/ARM_CM4F/portmacro.h **** 	/* Obtain the number of the currently executing interrupt. */
 175:Middlewares/Third_Party/FreeRTOS/Source/portable/GCC/ARM_CM4F/portmacro.h **** 	__asm volatile( "mrs %0, ipsr" : "=r"( ulCurrentInterrupt ) :: "memory" );
 176:Middlewares/Third_Party/FreeRTOS/Source/portable/GCC/ARM_CM4F/portmacro.h **** 
 177:Middlewares/Third_Party/FreeRTOS/Source/portable/GCC/ARM_CM4F/portmacro.h **** 	if( ulCurrentInterrupt == 0 )
 178:Middlewares/Third_Party/FreeRTOS/Source/portable/GCC/ARM_CM4F/portmacro.h **** 	{
 179:Middlewares/Third_Party/FreeRTOS/Source/portable/GCC/ARM_CM4F/portmacro.h **** 		xReturn = pdFALSE;
 180:Middlewares/Third_Party/FreeRTOS/Source/portable/GCC/ARM_CM4F/portmacro.h **** 	}
 181:Middlewares/Third_Party/FreeRTOS/Source/portable/GCC/ARM_CM4F/portmacro.h **** 	else
 182:Middlewares/Third_Party/FreeRTOS/Source/portable/GCC/ARM_CM4F/portmacro.h **** 	{
 183:Middlewares/Third_Party/FreeRTOS/Source/portable/GCC/ARM_CM4F/portmacro.h **** 		xReturn = pdTRUE;
 184:Middlewares/Third_Party/FreeRTOS/Source/portable/GCC/ARM_CM4F/portmacro.h **** 	}
 185:Middlewares/Third_Party/FreeRTOS/Source/portable/GCC/ARM_CM4F/portmacro.h **** 
 186:Middlewares/Third_Party/FreeRTOS/Source/portable/GCC/ARM_CM4F/portmacro.h **** 	return xReturn;
 187:Middlewares/Third_Party/FreeRTOS/Source/portable/GCC/ARM_CM4F/portmacro.h **** }
 188:Middlewares/Third_Party/FreeRTOS/Source/portable/GCC/ARM_CM4F/portmacro.h **** 
 189:Middlewares/Third_Party/FreeRTOS/Source/portable/GCC/ARM_CM4F/portmacro.h **** /*-----------------------------------------------------------*/
 190:Middlewares/Third_Party/FreeRTOS/Source/portable/GCC/ARM_CM4F/portmacro.h **** 
 191:Middlewares/Third_Party/FreeRTOS/Source/portable/GCC/ARM_CM4F/portmacro.h **** portFORCE_INLINE static void vPortRaiseBASEPRI( void )
 307              		.loc 2 191 30 view .LVU69
 308              	.LBB47:
 192:Middlewares/Third_Party/FreeRTOS/Source/portable/GCC/ARM_CM4F/portmacro.h **** {
 193:Middlewares/Third_Party/FreeRTOS/Source/portable/GCC/ARM_CM4F/portmacro.h **** uint32_t ulNewBASEPRI;
 309              		.loc 2 193 1 view .LVU70
 194:Middlewares/Third_Party/FreeRTOS/Source/portable/GCC/ARM_CM4F/portmacro.h **** 
 195:Middlewares/Third_Party/FreeRTOS/Source/portable/GCC/ARM_CM4F/portmacro.h **** 	__asm volatile
 310              		.loc 2 195 2 view .LVU71
 311              		.syntax unified
 312              	@ 195 "Middlewares/Third_Party/FreeRTOS/Source/portable/GCC/ARM_CM4F/portmacro.h" 1
 313 0008 4FF05003 			mov r3, #80												
 314 000c 83F31188 		msr basepri, r3											
 315 0010 BFF36F8F 		isb														
 316 0014 BFF34F8F 		dsb														
 317              	
 318              	@ 0 "" 2
 319              	.LVL27:
 320              		.thumb
 321              		.syntax unified
 322              	.L26:
 323              		.loc 2 195 2 is_stmt 0 view .LVU72
 324              	.LBE47:
 325              	.LBE46:
 357:Middlewares/Third_Party/FreeRTOS/Source/timers.c **** 
 326              		.loc 1 357 2 is_stmt 1 discriminator 1 view .LVU73
ARM GAS  /tmp/ccG38jLQ.s 			page 28


 357:Middlewares/Third_Party/FreeRTOS/Source/timers.c **** 
 327              		.loc 1 357 2 discriminator 1 view .LVU74
 328 0018 FEE7     		b	.L26
 329              	.LVL28:
 330              	.L25:
 357:Middlewares/Third_Party/FreeRTOS/Source/timers.c **** 
 331              		.loc 1 357 2 is_stmt 0 discriminator 1 view .LVU75
 332 001a 0646     		mov	r6, r0
 333 001c 1446     		mov	r4, r2
 334 001e 1D46     		mov	r5, r3
 335 0020 8846     		mov	r8, r1
 357:Middlewares/Third_Party/FreeRTOS/Source/timers.c **** 
 336              		.loc 1 357 45 is_stmt 1 discriminator 2 view .LVU76
 359:Middlewares/Third_Party/FreeRTOS/Source/timers.c **** 	{
 337              		.loc 1 359 2 discriminator 2 view .LVU77
 359:Middlewares/Third_Party/FreeRTOS/Source/timers.c **** 	{
 338              		.loc 1 359 4 is_stmt 0 discriminator 2 view .LVU78
 339 0022 8FB1     		cbz	r7, .L24
 363:Middlewares/Third_Party/FreeRTOS/Source/timers.c **** 
 340              		.loc 1 363 3 is_stmt 1 view .LVU79
 341 0024 FFF7FEFF 		bl	prvCheckForValidListAndQueue
 342              	.LVL29:
 367:Middlewares/Third_Party/FreeRTOS/Source/timers.c **** 		pxNewTimer->xTimerPeriodInTicks = xTimerPeriodInTicks;
 343              		.loc 1 367 3 view .LVU80
 367:Middlewares/Third_Party/FreeRTOS/Source/timers.c **** 		pxNewTimer->xTimerPeriodInTicks = xTimerPeriodInTicks;
 344              		.loc 1 367 27 is_stmt 0 view .LVU81
 345 0028 3E60     		str	r6, [r7]
 368:Middlewares/Third_Party/FreeRTOS/Source/timers.c **** 		pxNewTimer->pvTimerID = pvTimerID;
 346              		.loc 1 368 3 is_stmt 1 view .LVU82
 368:Middlewares/Third_Party/FreeRTOS/Source/timers.c **** 		pxNewTimer->pvTimerID = pvTimerID;
 347              		.loc 1 368 35 is_stmt 0 view .LVU83
 348 002a C7F81880 		str	r8, [r7, #24]
 369:Middlewares/Third_Party/FreeRTOS/Source/timers.c **** 		pxNewTimer->pxCallbackFunction = pxCallbackFunction;
 349              		.loc 1 369 3 is_stmt 1 view .LVU84
 369:Middlewares/Third_Party/FreeRTOS/Source/timers.c **** 		pxNewTimer->pxCallbackFunction = pxCallbackFunction;
 350              		.loc 1 369 25 is_stmt 0 view .LVU85
 351 002e FD61     		str	r5, [r7, #28]
 370:Middlewares/Third_Party/FreeRTOS/Source/timers.c **** 		vListInitialiseItem( &( pxNewTimer->xTimerListItem ) );
 352              		.loc 1 370 3 is_stmt 1 view .LVU86
 370:Middlewares/Third_Party/FreeRTOS/Source/timers.c **** 		vListInitialiseItem( &( pxNewTimer->xTimerListItem ) );
 353              		.loc 1 370 34 is_stmt 0 view .LVU87
 354 0030 069B     		ldr	r3, [sp, #24]
 355 0032 3B62     		str	r3, [r7, #32]
 371:Middlewares/Third_Party/FreeRTOS/Source/timers.c **** 		if( uxAutoReload != pdFALSE )
 356              		.loc 1 371 3 is_stmt 1 view .LVU88
 357 0034 381D     		adds	r0, r7, #4
 358 0036 FFF7FEFF 		bl	vListInitialiseItem
 359              	.LVL30:
 372:Middlewares/Third_Party/FreeRTOS/Source/timers.c **** 		{
 360              		.loc 1 372 3 view .LVU89
 372:Middlewares/Third_Party/FreeRTOS/Source/timers.c **** 		{
 361              		.loc 1 372 5 is_stmt 0 view .LVU90
 362 003a 2CB1     		cbz	r4, .L24
 374:Middlewares/Third_Party/FreeRTOS/Source/timers.c **** 		}
 363              		.loc 1 374 4 is_stmt 1 view .LVU91
 374:Middlewares/Third_Party/FreeRTOS/Source/timers.c **** 		}
 364              		.loc 1 374 14 is_stmt 0 view .LVU92
ARM GAS  /tmp/ccG38jLQ.s 			page 29


 365 003c 97F82830 		ldrb	r3, [r7, #40]	@ zero_extendqisi2
 374:Middlewares/Third_Party/FreeRTOS/Source/timers.c **** 		}
 366              		.loc 1 374 25 view .LVU93
 367 0040 43F00403 		orr	r3, r3, #4
 368 0044 87F82830 		strb	r3, [r7, #40]
 376:Middlewares/Third_Party/FreeRTOS/Source/timers.c **** 	}
 369              		.loc 1 376 34 is_stmt 1 view .LVU94
 370              	.L24:
 378:Middlewares/Third_Party/FreeRTOS/Source/timers.c **** /*-----------------------------------------------------------*/
 371              		.loc 1 378 1 is_stmt 0 view .LVU95
 372 0048 BDE8F081 		pop	{r4, r5, r6, r7, r8, pc}
 378:Middlewares/Third_Party/FreeRTOS/Source/timers.c **** /*-----------------------------------------------------------*/
 373              		.loc 1 378 1 view .LVU96
 374              		.cfi_endproc
 375              	.LFE7:
 377              		.section	.rodata.xTimerCreateTimerTask.str1.4,"aMS",%progbits,1
 378              		.align	2
 379              	.LC1:
 380 0000 546D7220 		.ascii	"Tmr Svc\000"
 380      53766300 
 381              		.section	.text.xTimerCreateTimerTask,"ax",%progbits
 382              		.align	1
 383              		.global	xTimerCreateTimerTask
 384              		.syntax unified
 385              		.thumb
 386              		.thumb_func
 388              	xTimerCreateTimerTask:
 389              	.LFB4:
 228:Middlewares/Third_Party/FreeRTOS/Source/timers.c **** BaseType_t xReturn = pdFAIL;
 390              		.loc 1 228 1 is_stmt 1 view -0
 391              		.cfi_startproc
 392              		@ args = 0, pretend = 0, frame = 16
 393              		@ frame_needed = 0, uses_anonymous_args = 0
 394 0000 10B5     		push	{r4, lr}
 395              		.cfi_def_cfa_offset 8
 396              		.cfi_offset 4, -8
 397              		.cfi_offset 14, -4
 398 0002 88B0     		sub	sp, sp, #32
 399              		.cfi_def_cfa_offset 40
 229:Middlewares/Third_Party/FreeRTOS/Source/timers.c **** 
 400              		.loc 1 229 1 view .LVU98
 401              	.LVL31:
 235:Middlewares/Third_Party/FreeRTOS/Source/timers.c **** 
 402              		.loc 1 235 2 view .LVU99
 403 0004 FFF7FEFF 		bl	prvCheckForValidListAndQueue
 404              	.LVL32:
 237:Middlewares/Third_Party/FreeRTOS/Source/timers.c **** 	{
 405              		.loc 1 237 2 view .LVU100
 237:Middlewares/Third_Party/FreeRTOS/Source/timers.c **** 	{
 406              		.loc 1 237 18 is_stmt 0 view .LVU101
 407 0008 124B     		ldr	r3, .L35
 408 000a 1B68     		ldr	r3, [r3]
 237:Middlewares/Third_Party/FreeRTOS/Source/timers.c **** 	{
 409              		.loc 1 237 4 view .LVU102
 410 000c CBB1     		cbz	r3, .L30
 411              	.LBB48:
 241:Middlewares/Third_Party/FreeRTOS/Source/timers.c **** 			StackType_t *pxTimerTaskStackBuffer = NULL;
ARM GAS  /tmp/ccG38jLQ.s 			page 30


 412              		.loc 1 241 4 is_stmt 1 view .LVU103
 241:Middlewares/Third_Party/FreeRTOS/Source/timers.c **** 			StackType_t *pxTimerTaskStackBuffer = NULL;
 413              		.loc 1 241 18 is_stmt 0 view .LVU104
 414 000e 0024     		movs	r4, #0
 415 0010 0594     		str	r4, [sp, #20]
 242:Middlewares/Third_Party/FreeRTOS/Source/timers.c **** 			uint32_t ulTimerTaskStackSize;
 416              		.loc 1 242 4 is_stmt 1 view .LVU105
 242:Middlewares/Third_Party/FreeRTOS/Source/timers.c **** 			uint32_t ulTimerTaskStackSize;
 417              		.loc 1 242 17 is_stmt 0 view .LVU106
 418 0012 0694     		str	r4, [sp, #24]
 243:Middlewares/Third_Party/FreeRTOS/Source/timers.c **** 
 419              		.loc 1 243 4 is_stmt 1 view .LVU107
 245:Middlewares/Third_Party/FreeRTOS/Source/timers.c **** 			xTimerTaskHandle = xTaskCreateStatic(	prvTimerTask,
 420              		.loc 1 245 4 view .LVU108
 421 0014 07AA     		add	r2, sp, #28
 422 0016 06A9     		add	r1, sp, #24
 423 0018 05A8     		add	r0, sp, #20
 424 001a FFF7FEFF 		bl	vApplicationGetTimerTaskMemory
 425              	.LVL33:
 246:Middlewares/Third_Party/FreeRTOS/Source/timers.c **** 													configTIMER_SERVICE_TASK_NAME,
 426              		.loc 1 246 4 view .LVU109
 246:Middlewares/Third_Party/FreeRTOS/Source/timers.c **** 													configTIMER_SERVICE_TASK_NAME,
 427              		.loc 1 246 23 is_stmt 0 view .LVU110
 428 001e 059B     		ldr	r3, [sp, #20]
 429 0020 0293     		str	r3, [sp, #8]
 430 0022 069B     		ldr	r3, [sp, #24]
 431 0024 0193     		str	r3, [sp, #4]
 432 0026 0223     		movs	r3, #2
 433 0028 0093     		str	r3, [sp]
 434 002a 2346     		mov	r3, r4
 435 002c 079A     		ldr	r2, [sp, #28]
 436 002e 0A49     		ldr	r1, .L35+4
 437 0030 0A48     		ldr	r0, .L35+8
 438 0032 FFF7FEFF 		bl	xTaskCreateStatic
 439              	.LVL34:
 246:Middlewares/Third_Party/FreeRTOS/Source/timers.c **** 													configTIMER_SERVICE_TASK_NAME,
 440              		.loc 1 246 21 view .LVU111
 441 0036 0A4B     		ldr	r3, .L35+12
 442 0038 1860     		str	r0, [r3]
 254:Middlewares/Third_Party/FreeRTOS/Source/timers.c **** 			{
 443              		.loc 1 254 4 is_stmt 1 view .LVU112
 254:Middlewares/Third_Party/FreeRTOS/Source/timers.c **** 			{
 444              		.loc 1 254 6 is_stmt 0 view .LVU113
 445 003a 10B1     		cbz	r0, .L30
 446              	.LBE48:
 277:Middlewares/Third_Party/FreeRTOS/Source/timers.c **** /*-----------------------------------------------------------*/
 447              		.loc 1 277 1 view .LVU114
 448 003c 0120     		movs	r0, #1
 449 003e 08B0     		add	sp, sp, #32
 450              		.cfi_remember_state
 451              		.cfi_def_cfa_offset 8
 452              		@ sp needed
 453 0040 10BD     		pop	{r4, pc}
 454              	.L30:
 455              		.cfi_restore_state
 456              	.LVL35:
 275:Middlewares/Third_Party/FreeRTOS/Source/timers.c **** 	return xReturn;
ARM GAS  /tmp/ccG38jLQ.s 			page 31


 457              		.loc 1 275 2 is_stmt 1 view .LVU115
 458              	.LBB49:
 459              	.LBI49:
 191:Middlewares/Third_Party/FreeRTOS/Source/portable/GCC/ARM_CM4F/portmacro.h **** {
 460              		.loc 2 191 30 view .LVU116
 461              	.LBB50:
 193:Middlewares/Third_Party/FreeRTOS/Source/portable/GCC/ARM_CM4F/portmacro.h **** 
 462              		.loc 2 193 1 view .LVU117
 463              		.loc 2 195 2 view .LVU118
 464              		.syntax unified
 465              	@ 195 "Middlewares/Third_Party/FreeRTOS/Source/portable/GCC/ARM_CM4F/portmacro.h" 1
 466 0042 4FF05003 			mov r3, #80												
 467 0046 83F31188 		msr basepri, r3											
 468 004a BFF36F8F 		isb														
 469 004e BFF34F8F 		dsb														
 470              	
 471              	@ 0 "" 2
 472              	.LVL36:
 473              		.thumb
 474              		.syntax unified
 475              	.L32:
 476              		.loc 2 195 2 is_stmt 0 view .LVU119
 477              	.LBE50:
 478              	.LBE49:
 275:Middlewares/Third_Party/FreeRTOS/Source/timers.c **** 	return xReturn;
 479              		.loc 1 275 2 is_stmt 1 discriminator 1 view .LVU120
 275:Middlewares/Third_Party/FreeRTOS/Source/timers.c **** 	return xReturn;
 480              		.loc 1 275 2 discriminator 1 view .LVU121
 481 0052 FEE7     		b	.L32
 482              	.L36:
 483              		.align	2
 484              	.L35:
 485 0054 00000000 		.word	xTimerQueue
 486 0058 00000000 		.word	.LC1
 487 005c 00000000 		.word	prvTimerTask
 488 0060 00000000 		.word	xTimerTaskHandle
 489              		.cfi_endproc
 490              	.LFE4:
 492              		.section	.text.xTimerCreate,"ax",%progbits
 493              		.align	1
 494              		.global	xTimerCreate
 495              		.syntax unified
 496              		.thumb
 497              		.thumb_func
 499              	xTimerCreate:
 500              	.LVL37:
 501              	.LFB5:
 287:Middlewares/Third_Party/FreeRTOS/Source/timers.c **** 	Timer_t *pxNewTimer;
 502              		.loc 1 287 2 view -0
 503              		.cfi_startproc
 504              		@ args = 4, pretend = 0, frame = 0
 505              		@ frame_needed = 0, uses_anonymous_args = 0
 287:Middlewares/Third_Party/FreeRTOS/Source/timers.c **** 	Timer_t *pxNewTimer;
 506              		.loc 1 287 2 is_stmt 0 view .LVU123
 507 0000 2DE9F041 		push	{r4, r5, r6, r7, r8, lr}
 508              		.cfi_def_cfa_offset 24
 509              		.cfi_offset 4, -24
ARM GAS  /tmp/ccG38jLQ.s 			page 32


 510              		.cfi_offset 5, -20
 511              		.cfi_offset 6, -16
 512              		.cfi_offset 7, -12
 513              		.cfi_offset 8, -8
 514              		.cfi_offset 14, -4
 515 0004 82B0     		sub	sp, sp, #8
 516              		.cfi_def_cfa_offset 32
 517 0006 0446     		mov	r4, r0
 518 0008 8846     		mov	r8, r1
 519 000a 1746     		mov	r7, r2
 520 000c 1D46     		mov	r5, r3
 288:Middlewares/Third_Party/FreeRTOS/Source/timers.c **** 
 521              		.loc 1 288 2 is_stmt 1 view .LVU124
 290:Middlewares/Third_Party/FreeRTOS/Source/timers.c **** 
 522              		.loc 1 290 3 view .LVU125
 290:Middlewares/Third_Party/FreeRTOS/Source/timers.c **** 
 523              		.loc 1 290 30 is_stmt 0 view .LVU126
 524 000e 2C20     		movs	r0, #44
 525              	.LVL38:
 290:Middlewares/Third_Party/FreeRTOS/Source/timers.c **** 
 526              		.loc 1 290 30 view .LVU127
 527 0010 FFF7FEFF 		bl	pvPortMalloc
 528              	.LVL39:
 292:Middlewares/Third_Party/FreeRTOS/Source/timers.c **** 		{
 529              		.loc 1 292 3 is_stmt 1 view .LVU128
 292:Middlewares/Third_Party/FreeRTOS/Source/timers.c **** 		{
 530              		.loc 1 292 5 is_stmt 0 view .LVU129
 531 0014 0646     		mov	r6, r0
 532 0016 58B1     		cbz	r0, .L37
 297:Middlewares/Third_Party/FreeRTOS/Source/timers.c **** 			prvInitialiseNewTimer( pcTimerName, xTimerPeriodInTicks, uxAutoReload, pvTimerID, pxCallbackFunc
 533              		.loc 1 297 4 is_stmt 1 view .LVU130
 297:Middlewares/Third_Party/FreeRTOS/Source/timers.c **** 			prvInitialiseNewTimer( pcTimerName, xTimerPeriodInTicks, uxAutoReload, pvTimerID, pxCallbackFunc
 534              		.loc 1 297 25 is_stmt 0 view .LVU131
 535 0018 0023     		movs	r3, #0
 536 001a 80F82830 		strb	r3, [r0, #40]
 298:Middlewares/Third_Party/FreeRTOS/Source/timers.c **** 		}
 537              		.loc 1 298 4 is_stmt 1 view .LVU132
 538 001e 0190     		str	r0, [sp, #4]
 539 0020 089B     		ldr	r3, [sp, #32]
 540 0022 0093     		str	r3, [sp]
 541 0024 2B46     		mov	r3, r5
 542 0026 3A46     		mov	r2, r7
 543 0028 4146     		mov	r1, r8
 544 002a 2046     		mov	r0, r4
 545              	.LVL40:
 298:Middlewares/Third_Party/FreeRTOS/Source/timers.c **** 		}
 546              		.loc 1 298 4 is_stmt 0 view .LVU133
 547 002c FFF7FEFF 		bl	prvInitialiseNewTimer
 548              	.LVL41:
 301:Middlewares/Third_Party/FreeRTOS/Source/timers.c **** 	}
 549              		.loc 1 301 3 is_stmt 1 view .LVU134
 550              	.L37:
 302:Middlewares/Third_Party/FreeRTOS/Source/timers.c **** 
 551              		.loc 1 302 2 is_stmt 0 view .LVU135
 552 0030 3046     		mov	r0, r6
 553 0032 02B0     		add	sp, sp, #8
 554              		.cfi_def_cfa_offset 24
ARM GAS  /tmp/ccG38jLQ.s 			page 33


 555              		@ sp needed
 556 0034 BDE8F081 		pop	{r4, r5, r6, r7, r8, pc}
 302:Middlewares/Third_Party/FreeRTOS/Source/timers.c **** 
 557              		.loc 1 302 2 view .LVU136
 558              		.cfi_endproc
 559              	.LFE5:
 561              		.section	.text.xTimerCreateStatic,"ax",%progbits
 562              		.align	1
 563              		.global	xTimerCreateStatic
 564              		.syntax unified
 565              		.thumb
 566              		.thumb_func
 568              	xTimerCreateStatic:
 569              	.LVL42:
 570              	.LFB6:
 315:Middlewares/Third_Party/FreeRTOS/Source/timers.c **** 	Timer_t *pxNewTimer;
 571              		.loc 1 315 2 is_stmt 1 view -0
 572              		.cfi_startproc
 573              		@ args = 8, pretend = 0, frame = 8
 574              		@ frame_needed = 0, uses_anonymous_args = 0
 315:Middlewares/Third_Party/FreeRTOS/Source/timers.c **** 	Timer_t *pxNewTimer;
 575              		.loc 1 315 2 is_stmt 0 view .LVU138
 576 0000 10B5     		push	{r4, lr}
 577              		.cfi_def_cfa_offset 8
 578              		.cfi_offset 4, -8
 579              		.cfi_offset 14, -4
 580 0002 84B0     		sub	sp, sp, #16
 581              		.cfi_def_cfa_offset 24
 582 0004 8446     		mov	ip, r0
 316:Middlewares/Third_Party/FreeRTOS/Source/timers.c **** 
 583              		.loc 1 316 2 is_stmt 1 view .LVU139
 584              	.LBB51:
 323:Middlewares/Third_Party/FreeRTOS/Source/timers.c **** 			configASSERT( xSize == sizeof( Timer_t ) );
 585              		.loc 1 323 4 view .LVU140
 323:Middlewares/Third_Party/FreeRTOS/Source/timers.c **** 			configASSERT( xSize == sizeof( Timer_t ) );
 586              		.loc 1 323 20 is_stmt 0 view .LVU141
 587 0006 2C20     		movs	r0, #44
 588              	.LVL43:
 323:Middlewares/Third_Party/FreeRTOS/Source/timers.c **** 			configASSERT( xSize == sizeof( Timer_t ) );
 589              		.loc 1 323 20 view .LVU142
 590 0008 0390     		str	r0, [sp, #12]
 324:Middlewares/Third_Party/FreeRTOS/Source/timers.c **** 			( void ) xSize; /* Keeps lint quiet when configASSERT() is not defined. */
 591              		.loc 1 324 4 is_stmt 1 view .LVU143
 592 000a 0398     		ldr	r0, [sp, #12]
 593 000c 2C28     		cmp	r0, #44
 594 000e 08D0     		beq	.L41
 324:Middlewares/Third_Party/FreeRTOS/Source/timers.c **** 			( void ) xSize; /* Keeps lint quiet when configASSERT() is not defined. */
 595              		.loc 1 324 4 view .LVU144
 596              	.LBB52:
 597              	.LBI52:
 191:Middlewares/Third_Party/FreeRTOS/Source/portable/GCC/ARM_CM4F/portmacro.h **** {
 598              		.loc 2 191 30 view .LVU145
 599              	.LBB53:
 193:Middlewares/Third_Party/FreeRTOS/Source/portable/GCC/ARM_CM4F/portmacro.h **** 
 600              		.loc 2 193 1 view .LVU146
 601              		.loc 2 195 2 view .LVU147
 602              		.syntax unified
ARM GAS  /tmp/ccG38jLQ.s 			page 34


 603              	@ 195 "Middlewares/Third_Party/FreeRTOS/Source/portable/GCC/ARM_CM4F/portmacro.h" 1
 604 0010 4FF05003 			mov r3, #80												
 605 0014 83F31188 		msr basepri, r3											
 606 0018 BFF36F8F 		isb														
 607 001c BFF34F8F 		dsb														
 608              	
 609              	@ 0 "" 2
 610              	.LVL44:
 611              		.thumb
 612              		.syntax unified
 613              	.L42:
 614              		.loc 2 195 2 is_stmt 0 view .LVU148
 615              	.LBE53:
 616              	.LBE52:
 324:Middlewares/Third_Party/FreeRTOS/Source/timers.c **** 			( void ) xSize; /* Keeps lint quiet when configASSERT() is not defined. */
 617              		.loc 1 324 4 is_stmt 1 discriminator 1 view .LVU149
 324:Middlewares/Third_Party/FreeRTOS/Source/timers.c **** 			( void ) xSize; /* Keeps lint quiet when configASSERT() is not defined. */
 618              		.loc 1 324 4 discriminator 1 view .LVU150
 619 0020 FEE7     		b	.L42
 620              	.LVL45:
 621              	.L41:
 324:Middlewares/Third_Party/FreeRTOS/Source/timers.c **** 			( void ) xSize; /* Keeps lint quiet when configASSERT() is not defined. */
 622              		.loc 1 324 46 discriminator 2 view .LVU151
 325:Middlewares/Third_Party/FreeRTOS/Source/timers.c **** 		}
 623              		.loc 1 325 4 discriminator 2 view .LVU152
 624 0022 0398     		ldr	r0, [sp, #12]
 625              	.LBE51:
 330:Middlewares/Third_Party/FreeRTOS/Source/timers.c **** 		pxNewTimer = ( Timer_t * ) pxTimerBuffer; /*lint !e740 !e9087 StaticTimer_t is a pointer to a Tim
 626              		.loc 1 330 3 discriminator 2 view .LVU153
 627 0024 0798     		ldr	r0, [sp, #28]
 628 0026 60B1     		cbz	r0, .L46
 330:Middlewares/Third_Party/FreeRTOS/Source/timers.c **** 		pxNewTimer = ( Timer_t * ) pxTimerBuffer; /*lint !e740 !e9087 StaticTimer_t is a pointer to a Tim
 629              		.loc 1 330 32 view .LVU154
 331:Middlewares/Third_Party/FreeRTOS/Source/timers.c **** 
 630              		.loc 1 331 3 view .LVU155
 631              	.LVL46:
 333:Middlewares/Third_Party/FreeRTOS/Source/timers.c **** 		{
 632              		.loc 1 333 3 view .LVU156
 338:Middlewares/Third_Party/FreeRTOS/Source/timers.c **** 
 633              		.loc 1 338 4 view .LVU157
 338:Middlewares/Third_Party/FreeRTOS/Source/timers.c **** 
 634              		.loc 1 338 25 is_stmt 0 view .LVU158
 635 0028 0220     		movs	r0, #2
 636              	.LVL47:
 338:Middlewares/Third_Party/FreeRTOS/Source/timers.c **** 
 637              		.loc 1 338 25 view .LVU159
 638 002a 079C     		ldr	r4, [sp, #28]
 639 002c 84F82800 		strb	r0, [r4, #40]
 340:Middlewares/Third_Party/FreeRTOS/Source/timers.c **** 		}
 640              		.loc 1 340 4 is_stmt 1 view .LVU160
 641 0030 0194     		str	r4, [sp, #4]
 642 0032 0698     		ldr	r0, [sp, #24]
 643 0034 0090     		str	r0, [sp]
 644 0036 6046     		mov	r0, ip
 645 0038 FFF7FEFF 		bl	prvInitialiseNewTimer
 646              	.LVL48:
 343:Middlewares/Third_Party/FreeRTOS/Source/timers.c **** 	}
ARM GAS  /tmp/ccG38jLQ.s 			page 35


 647              		.loc 1 343 3 view .LVU161
 344:Middlewares/Third_Party/FreeRTOS/Source/timers.c **** 
 648              		.loc 1 344 2 is_stmt 0 view .LVU162
 649 003c 0798     		ldr	r0, [sp, #28]
 650 003e 04B0     		add	sp, sp, #16
 651              		.cfi_remember_state
 652              		.cfi_def_cfa_offset 8
 653              		@ sp needed
 654 0040 10BD     		pop	{r4, pc}
 655              	.LVL49:
 656              	.L46:
 657              		.cfi_restore_state
 330:Middlewares/Third_Party/FreeRTOS/Source/timers.c **** 		pxNewTimer = ( Timer_t * ) pxTimerBuffer; /*lint !e740 !e9087 StaticTimer_t is a pointer to a Tim
 658              		.loc 1 330 3 is_stmt 1 view .LVU163
 659              	.LBB54:
 660              	.LBI54:
 191:Middlewares/Third_Party/FreeRTOS/Source/portable/GCC/ARM_CM4F/portmacro.h **** {
 661              		.loc 2 191 30 view .LVU164
 662              	.LBB55:
 193:Middlewares/Third_Party/FreeRTOS/Source/portable/GCC/ARM_CM4F/portmacro.h **** 
 663              		.loc 2 193 1 view .LVU165
 664              		.loc 2 195 2 view .LVU166
 665              		.syntax unified
 666              	@ 195 "Middlewares/Third_Party/FreeRTOS/Source/portable/GCC/ARM_CM4F/portmacro.h" 1
 667 0042 4FF05003 			mov r3, #80												
 668 0046 83F31188 		msr basepri, r3											
 669 004a BFF36F8F 		isb														
 670 004e BFF34F8F 		dsb														
 671              	
 672              	@ 0 "" 2
 673              	.LVL50:
 674              		.thumb
 675              		.syntax unified
 676              	.L44:
 677              		.loc 2 195 2 is_stmt 0 view .LVU167
 678              	.LBE55:
 679              	.LBE54:
 330:Middlewares/Third_Party/FreeRTOS/Source/timers.c **** 		pxNewTimer = ( Timer_t * ) pxTimerBuffer; /*lint !e740 !e9087 StaticTimer_t is a pointer to a Tim
 680              		.loc 1 330 3 is_stmt 1 discriminator 2 view .LVU168
 330:Middlewares/Third_Party/FreeRTOS/Source/timers.c **** 		pxNewTimer = ( Timer_t * ) pxTimerBuffer; /*lint !e740 !e9087 StaticTimer_t is a pointer to a Tim
 681              		.loc 1 330 3 discriminator 2 view .LVU169
 682 0052 FEE7     		b	.L44
 683              		.cfi_endproc
 684              	.LFE6:
 686              		.section	.text.xTimerGenericCommand,"ax",%progbits
 687              		.align	1
 688              		.global	xTimerGenericCommand
 689              		.syntax unified
 690              		.thumb
 691              		.thumb_func
 693              	xTimerGenericCommand:
 694              	.LVL51:
 695              	.LFB8:
 382:Middlewares/Third_Party/FreeRTOS/Source/timers.c **** BaseType_t xReturn = pdFAIL;
 696              		.loc 1 382 1 view -0
 697              		.cfi_startproc
 698              		@ args = 4, pretend = 0, frame = 16
ARM GAS  /tmp/ccG38jLQ.s 			page 36


 699              		@ frame_needed = 0, uses_anonymous_args = 0
 383:Middlewares/Third_Party/FreeRTOS/Source/timers.c **** DaemonTaskMessage_t xMessage;
 700              		.loc 1 383 1 view .LVU171
 384:Middlewares/Third_Party/FreeRTOS/Source/timers.c **** 
 701              		.loc 1 384 1 view .LVU172
 386:Middlewares/Third_Party/FreeRTOS/Source/timers.c **** 
 702              		.loc 1 386 2 view .LVU173
 703 0000 B8B1     		cbz	r0, .L58
 704 0002 9C46     		mov	ip, r3
 705 0004 0346     		mov	r3, r0
 706              	.LVL52:
 386:Middlewares/Third_Party/FreeRTOS/Source/timers.c **** 
 707              		.loc 1 386 24 discriminator 2 view .LVU174
 390:Middlewares/Third_Party/FreeRTOS/Source/timers.c **** 	{
 708              		.loc 1 390 2 discriminator 2 view .LVU175
 390:Middlewares/Third_Party/FreeRTOS/Source/timers.c **** 	{
 709              		.loc 1 390 18 is_stmt 0 discriminator 2 view .LVU176
 710 0006 1848     		ldr	r0, .L60
 711              	.LVL53:
 390:Middlewares/Third_Party/FreeRTOS/Source/timers.c **** 	{
 712              		.loc 1 390 18 discriminator 2 view .LVU177
 713 0008 0068     		ldr	r0, [r0]
 390:Middlewares/Third_Party/FreeRTOS/Source/timers.c **** 	{
 714              		.loc 1 390 4 discriminator 2 view .LVU178
 715 000a 58B3     		cbz	r0, .L53
 382:Middlewares/Third_Party/FreeRTOS/Source/timers.c **** BaseType_t xReturn = pdFAIL;
 716              		.loc 1 382 1 view .LVU179
 717 000c 00B5     		push	{lr}
 718              		.cfi_def_cfa_offset 4
 719              		.cfi_offset 14, -4
 720 000e 85B0     		sub	sp, sp, #20
 721              		.cfi_def_cfa_offset 24
 393:Middlewares/Third_Party/FreeRTOS/Source/timers.c **** 		xMessage.u.xTimerParameters.xMessageValue = xOptionalValue;
 722              		.loc 1 393 3 is_stmt 1 view .LVU180
 393:Middlewares/Third_Party/FreeRTOS/Source/timers.c **** 		xMessage.u.xTimerParameters.xMessageValue = xOptionalValue;
 723              		.loc 1 393 23 is_stmt 0 view .LVU181
 724 0010 0091     		str	r1, [sp]
 394:Middlewares/Third_Party/FreeRTOS/Source/timers.c **** 		xMessage.u.xTimerParameters.pxTimer = xTimer;
 725              		.loc 1 394 3 is_stmt 1 view .LVU182
 394:Middlewares/Third_Party/FreeRTOS/Source/timers.c **** 		xMessage.u.xTimerParameters.pxTimer = xTimer;
 726              		.loc 1 394 45 is_stmt 0 view .LVU183
 727 0012 0192     		str	r2, [sp, #4]
 395:Middlewares/Third_Party/FreeRTOS/Source/timers.c **** 
 728              		.loc 1 395 3 is_stmt 1 view .LVU184
 395:Middlewares/Third_Party/FreeRTOS/Source/timers.c **** 
 729              		.loc 1 395 39 is_stmt 0 view .LVU185
 730 0014 0293     		str	r3, [sp, #8]
 397:Middlewares/Third_Party/FreeRTOS/Source/timers.c **** 		{
 731              		.loc 1 397 3 is_stmt 1 view .LVU186
 397:Middlewares/Third_Party/FreeRTOS/Source/timers.c **** 		{
 732              		.loc 1 397 5 is_stmt 0 view .LVU187
 733 0016 0529     		cmp	r1, #5
 734 0018 1CDC     		bgt	.L51
 399:Middlewares/Third_Party/FreeRTOS/Source/timers.c **** 			{
 735              		.loc 1 399 4 is_stmt 1 view .LVU188
 399:Middlewares/Third_Party/FreeRTOS/Source/timers.c **** 			{
 736              		.loc 1 399 8 is_stmt 0 view .LVU189
ARM GAS  /tmp/ccG38jLQ.s 			page 37


 737 001a FFF7FEFF 		bl	xTaskGetSchedulerState
 738              	.LVL54:
 399:Middlewares/Third_Party/FreeRTOS/Source/timers.c **** 			{
 739              		.loc 1 399 6 view .LVU190
 740 001e 0228     		cmp	r0, #2
 741 0020 10D0     		beq	.L59
 405:Middlewares/Third_Party/FreeRTOS/Source/timers.c **** 			}
 742              		.loc 1 405 5 is_stmt 1 view .LVU191
 405:Middlewares/Third_Party/FreeRTOS/Source/timers.c **** 			}
 743              		.loc 1 405 15 is_stmt 0 view .LVU192
 744 0022 0023     		movs	r3, #0
 745 0024 1A46     		mov	r2, r3
 746 0026 6946     		mov	r1, sp
 747 0028 0F48     		ldr	r0, .L60
 748 002a 0068     		ldr	r0, [r0]
 749 002c FFF7FEFF 		bl	xQueueGenericSend
 750              	.LVL55:
 405:Middlewares/Third_Party/FreeRTOS/Source/timers.c **** 			}
 751              		.loc 1 405 15 view .LVU193
 752 0030 15E0     		b	.L47
 753              	.LVL56:
 754              	.L58:
 755              		.cfi_def_cfa_offset 0
 756              		.cfi_restore 14
 386:Middlewares/Third_Party/FreeRTOS/Source/timers.c **** 
 757              		.loc 1 386 2 is_stmt 1 view .LVU194
 758              	.LBB56:
 759              	.LBI56:
 191:Middlewares/Third_Party/FreeRTOS/Source/portable/GCC/ARM_CM4F/portmacro.h **** {
 760              		.loc 2 191 30 view .LVU195
 761              	.LBB57:
 193:Middlewares/Third_Party/FreeRTOS/Source/portable/GCC/ARM_CM4F/portmacro.h **** 
 762              		.loc 2 193 1 view .LVU196
 763              		.loc 2 195 2 view .LVU197
 764              		.syntax unified
 765              	@ 195 "Middlewares/Third_Party/FreeRTOS/Source/portable/GCC/ARM_CM4F/portmacro.h" 1
 766 0032 4FF05003 			mov r3, #80												
 767 0036 83F31188 		msr basepri, r3											
 768 003a BFF36F8F 		isb														
 769 003e BFF34F8F 		dsb														
 770              	
 771              	@ 0 "" 2
 772              	.LVL57:
 773              		.thumb
 774              		.syntax unified
 775              	.L49:
 776              		.loc 2 195 2 is_stmt 0 view .LVU198
 777              	.LBE57:
 778              	.LBE56:
 386:Middlewares/Third_Party/FreeRTOS/Source/timers.c **** 
 779              		.loc 1 386 2 is_stmt 1 discriminator 1 view .LVU199
 386:Middlewares/Third_Party/FreeRTOS/Source/timers.c **** 
 780              		.loc 1 386 2 discriminator 1 view .LVU200
 781 0042 FEE7     		b	.L49
 782              	.LVL58:
 783              	.L59:
 784              		.cfi_def_cfa_offset 24
ARM GAS  /tmp/ccG38jLQ.s 			page 38


 785              		.cfi_offset 14, -4
 401:Middlewares/Third_Party/FreeRTOS/Source/timers.c **** 			}
 786              		.loc 1 401 5 view .LVU201
 401:Middlewares/Third_Party/FreeRTOS/Source/timers.c **** 			}
 787              		.loc 1 401 15 is_stmt 0 view .LVU202
 788 0044 0023     		movs	r3, #0
 789 0046 069A     		ldr	r2, [sp, #24]
 790 0048 6946     		mov	r1, sp
 791 004a 0748     		ldr	r0, .L60
 792 004c 0068     		ldr	r0, [r0]
 793 004e FFF7FEFF 		bl	xQueueGenericSend
 794              	.LVL59:
 401:Middlewares/Third_Party/FreeRTOS/Source/timers.c **** 			}
 795              		.loc 1 401 15 view .LVU203
 796 0052 04E0     		b	.L47
 797              	.LVL60:
 798              	.L51:
 410:Middlewares/Third_Party/FreeRTOS/Source/timers.c **** 		}
 799              		.loc 1 410 4 is_stmt 1 view .LVU204
 410:Middlewares/Third_Party/FreeRTOS/Source/timers.c **** 		}
 800              		.loc 1 410 14 is_stmt 0 view .LVU205
 801 0054 0023     		movs	r3, #0
 802              	.LVL61:
 410:Middlewares/Third_Party/FreeRTOS/Source/timers.c **** 		}
 803              		.loc 1 410 14 view .LVU206
 804 0056 6246     		mov	r2, ip
 805              	.LVL62:
 410:Middlewares/Third_Party/FreeRTOS/Source/timers.c **** 		}
 806              		.loc 1 410 14 view .LVU207
 807 0058 6946     		mov	r1, sp
 808              	.LVL63:
 410:Middlewares/Third_Party/FreeRTOS/Source/timers.c **** 		}
 809              		.loc 1 410 14 view .LVU208
 810 005a FFF7FEFF 		bl	xQueueGenericSendFromISR
 811              	.LVL64:
 812              	.L47:
 421:Middlewares/Third_Party/FreeRTOS/Source/timers.c **** /*-----------------------------------------------------------*/
 813              		.loc 1 421 1 view .LVU209
 814 005e 05B0     		add	sp, sp, #20
 815              		.cfi_def_cfa_offset 4
 816              		@ sp needed
 817 0060 5DF804FB 		ldr	pc, [sp], #4
 818              	.LVL65:
 819              	.L53:
 820              		.cfi_def_cfa_offset 0
 821              		.cfi_restore 14
 383:Middlewares/Third_Party/FreeRTOS/Source/timers.c **** DaemonTaskMessage_t xMessage;
 822              		.loc 1 383 12 view .LVU210
 823 0064 0020     		movs	r0, #0
 417:Middlewares/Third_Party/FreeRTOS/Source/timers.c **** 	}
 824              		.loc 1 417 27 is_stmt 1 view .LVU211
 420:Middlewares/Third_Party/FreeRTOS/Source/timers.c **** }
 825              		.loc 1 420 2 view .LVU212
 421:Middlewares/Third_Party/FreeRTOS/Source/timers.c **** /*-----------------------------------------------------------*/
 826              		.loc 1 421 1 is_stmt 0 view .LVU213
 827 0066 7047     		bx	lr
 828              	.L61:
ARM GAS  /tmp/ccG38jLQ.s 			page 39


 829              		.align	2
 830              	.L60:
 831 0068 00000000 		.word	xTimerQueue
 832              		.cfi_endproc
 833              	.LFE8:
 835              		.section	.text.prvSwitchTimerLists,"ax",%progbits
 836              		.align	1
 837              		.syntax unified
 838              		.thumb
 839              		.thumb_func
 841              	prvSwitchTimerLists:
 842              	.LFB22:
 883:Middlewares/Third_Party/FreeRTOS/Source/timers.c **** TickType_t xNextExpireTime, xReloadTime;
 843              		.loc 1 883 1 is_stmt 1 view -0
 844              		.cfi_startproc
 845              		@ args = 0, pretend = 0, frame = 0
 846              		@ frame_needed = 0, uses_anonymous_args = 0
 847 0000 70B5     		push	{r4, r5, r6, lr}
 848              		.cfi_def_cfa_offset 16
 849              		.cfi_offset 4, -16
 850              		.cfi_offset 5, -12
 851              		.cfi_offset 6, -8
 852              		.cfi_offset 14, -4
 853 0002 82B0     		sub	sp, sp, #8
 854              		.cfi_def_cfa_offset 24
 884:Middlewares/Third_Party/FreeRTOS/Source/timers.c **** List_t *pxTemp;
 855              		.loc 1 884 1 view .LVU215
 885:Middlewares/Third_Party/FreeRTOS/Source/timers.c **** Timer_t *pxTimer;
 856              		.loc 1 885 1 view .LVU216
 886:Middlewares/Third_Party/FreeRTOS/Source/timers.c **** BaseType_t xResult;
 857              		.loc 1 886 1 view .LVU217
 887:Middlewares/Third_Party/FreeRTOS/Source/timers.c **** 
 858              		.loc 1 887 1 view .LVU218
 893:Middlewares/Third_Party/FreeRTOS/Source/timers.c **** 	{
 859              		.loc 1 893 2 view .LVU219
 860              	.L64:
 931:Middlewares/Third_Party/FreeRTOS/Source/timers.c **** 		}
 861              		.loc 1 931 28 view .LVU220
 893:Middlewares/Third_Party/FreeRTOS/Source/timers.c **** 	{
 862              		.loc 1 893 49 view .LVU221
 893:Middlewares/Third_Party/FreeRTOS/Source/timers.c **** 	{
 863              		.loc 1 893 9 is_stmt 0 view .LVU222
 864 0004 1B4B     		ldr	r3, .L71
 865 0006 1B68     		ldr	r3, [r3]
 866 0008 1A68     		ldr	r2, [r3]
 893:Middlewares/Third_Party/FreeRTOS/Source/timers.c **** 	{
 867              		.loc 1 893 49 view .LVU223
 868 000a 62B3     		cbz	r2, .L70
 895:Middlewares/Third_Party/FreeRTOS/Source/timers.c **** 
 869              		.loc 1 895 3 is_stmt 1 view .LVU224
 895:Middlewares/Third_Party/FreeRTOS/Source/timers.c **** 
 870              		.loc 1 895 21 is_stmt 0 view .LVU225
 871 000c DB68     		ldr	r3, [r3, #12]
 895:Middlewares/Third_Party/FreeRTOS/Source/timers.c **** 
 872              		.loc 1 895 19 view .LVU226
 873 000e 1E68     		ldr	r6, [r3]
 874              	.LVL66:
ARM GAS  /tmp/ccG38jLQ.s 			page 40


 898:Middlewares/Third_Party/FreeRTOS/Source/timers.c **** 		( void ) uxListRemove( &( pxTimer->xTimerListItem ) );
 875              		.loc 1 898 3 is_stmt 1 view .LVU227
 898:Middlewares/Third_Party/FreeRTOS/Source/timers.c **** 		( void ) uxListRemove( &( pxTimer->xTimerListItem ) );
 876              		.loc 1 898 11 is_stmt 0 view .LVU228
 877 0010 DC68     		ldr	r4, [r3, #12]
 878              	.LVL67:
 899:Middlewares/Third_Party/FreeRTOS/Source/timers.c **** 		traceTIMER_EXPIRED( pxTimer );
 879              		.loc 1 899 3 is_stmt 1 view .LVU229
 899:Middlewares/Third_Party/FreeRTOS/Source/timers.c **** 		traceTIMER_EXPIRED( pxTimer );
 880              		.loc 1 899 12 is_stmt 0 view .LVU230
 881 0012 251D     		adds	r5, r4, #4
 882 0014 2846     		mov	r0, r5
 883 0016 FFF7FEFF 		bl	uxListRemove
 884              	.LVL68:
 900:Middlewares/Third_Party/FreeRTOS/Source/timers.c **** 
 885              		.loc 1 900 32 is_stmt 1 view .LVU231
 905:Middlewares/Third_Party/FreeRTOS/Source/timers.c **** 
 886              		.loc 1 905 3 view .LVU232
 905:Middlewares/Third_Party/FreeRTOS/Source/timers.c **** 
 887              		.loc 1 905 10 is_stmt 0 view .LVU233
 888 001a 236A     		ldr	r3, [r4, #32]
 905:Middlewares/Third_Party/FreeRTOS/Source/timers.c **** 
 889              		.loc 1 905 3 view .LVU234
 890 001c 2046     		mov	r0, r4
 891 001e 9847     		blx	r3
 892              	.LVL69:
 907:Middlewares/Third_Party/FreeRTOS/Source/timers.c **** 		{
 893              		.loc 1 907 3 is_stmt 1 view .LVU235
 907:Middlewares/Third_Party/FreeRTOS/Source/timers.c **** 		{
 894              		.loc 1 907 16 is_stmt 0 view .LVU236
 895 0020 94F82830 		ldrb	r3, [r4, #40]	@ zero_extendqisi2
 907:Middlewares/Third_Party/FreeRTOS/Source/timers.c **** 		{
 896              		.loc 1 907 5 view .LVU237
 897 0024 13F0040F 		tst	r3, #4
 898 0028 ECD0     		beq	.L64
 915:Middlewares/Third_Party/FreeRTOS/Source/timers.c **** 			if( xReloadTime > xNextExpireTime )
 899              		.loc 1 915 4 is_stmt 1 view .LVU238
 915:Middlewares/Third_Party/FreeRTOS/Source/timers.c **** 			if( xReloadTime > xNextExpireTime )
 900              		.loc 1 915 45 is_stmt 0 view .LVU239
 901 002a A369     		ldr	r3, [r4, #24]
 915:Middlewares/Third_Party/FreeRTOS/Source/timers.c **** 			if( xReloadTime > xNextExpireTime )
 902              		.loc 1 915 16 view .LVU240
 903 002c 3344     		add	r3, r3, r6
 904              	.LVL70:
 916:Middlewares/Third_Party/FreeRTOS/Source/timers.c **** 			{
 905              		.loc 1 916 4 is_stmt 1 view .LVU241
 916:Middlewares/Third_Party/FreeRTOS/Source/timers.c **** 			{
 906              		.loc 1 916 6 is_stmt 0 view .LVU242
 907 002e 9E42     		cmp	r6, r3
 908 0030 07D2     		bcs	.L65
 918:Middlewares/Third_Party/FreeRTOS/Source/timers.c **** 				listSET_LIST_ITEM_OWNER( &( pxTimer->xTimerListItem ), pxTimer );
 909              		.loc 1 918 5 is_stmt 1 view .LVU243
 910 0032 6360     		str	r3, [r4, #4]
 919:Middlewares/Third_Party/FreeRTOS/Source/timers.c **** 				vListInsert( pxCurrentTimerList, &( pxTimer->xTimerListItem ) );
 911              		.loc 1 919 5 view .LVU244
 912 0034 2461     		str	r4, [r4, #16]
 920:Middlewares/Third_Party/FreeRTOS/Source/timers.c **** 			}
ARM GAS  /tmp/ccG38jLQ.s 			page 41


 913              		.loc 1 920 5 view .LVU245
 914 0036 2946     		mov	r1, r5
 915 0038 0E4B     		ldr	r3, .L71
 916              	.LVL71:
 920:Middlewares/Third_Party/FreeRTOS/Source/timers.c **** 			}
 917              		.loc 1 920 5 is_stmt 0 view .LVU246
 918 003a 1868     		ldr	r0, [r3]
 919 003c FFF7FEFF 		bl	vListInsert
 920              	.LVL72:
 920:Middlewares/Third_Party/FreeRTOS/Source/timers.c **** 			}
 921              		.loc 1 920 5 view .LVU247
 922 0040 E0E7     		b	.L64
 923              	.LVL73:
 924              	.L65:
 924:Middlewares/Third_Party/FreeRTOS/Source/timers.c **** 				configASSERT( xResult );
 925              		.loc 1 924 5 is_stmt 1 view .LVU248
 924:Middlewares/Third_Party/FreeRTOS/Source/timers.c **** 				configASSERT( xResult );
 926              		.loc 1 924 15 is_stmt 0 view .LVU249
 927 0042 0021     		movs	r1, #0
 928 0044 0091     		str	r1, [sp]
 929 0046 0B46     		mov	r3, r1
 930              	.LVL74:
 924:Middlewares/Third_Party/FreeRTOS/Source/timers.c **** 				configASSERT( xResult );
 931              		.loc 1 924 15 view .LVU250
 932 0048 3246     		mov	r2, r6
 933 004a 2046     		mov	r0, r4
 934 004c FFF7FEFF 		bl	xTimerGenericCommand
 935              	.LVL75:
 925:Middlewares/Third_Party/FreeRTOS/Source/timers.c **** 				( void ) xResult;
 936              		.loc 1 925 5 is_stmt 1 view .LVU251
 937 0050 0028     		cmp	r0, #0
 938 0052 D7D1     		bne	.L64
 925:Middlewares/Third_Party/FreeRTOS/Source/timers.c **** 				( void ) xResult;
 939              		.loc 1 925 5 view .LVU252
 940              	.LBB58:
 941              	.LBI58:
 191:Middlewares/Third_Party/FreeRTOS/Source/portable/GCC/ARM_CM4F/portmacro.h **** {
 942              		.loc 2 191 30 view .LVU253
 943              	.LBB59:
 193:Middlewares/Third_Party/FreeRTOS/Source/portable/GCC/ARM_CM4F/portmacro.h **** 
 944              		.loc 2 193 1 view .LVU254
 945              		.loc 2 195 2 view .LVU255
 946              		.syntax unified
 947              	@ 195 "Middlewares/Third_Party/FreeRTOS/Source/portable/GCC/ARM_CM4F/portmacro.h" 1
 948 0054 4FF05003 			mov r3, #80												
 949 0058 83F31188 		msr basepri, r3											
 950 005c BFF36F8F 		isb														
 951 0060 BFF34F8F 		dsb														
 952              	
 953              	@ 0 "" 2
 954              	.LVL76:
 955              		.thumb
 956              		.syntax unified
 957              	.L67:
 958              		.loc 2 195 2 is_stmt 0 view .LVU256
 959              	.LBE59:
 960              	.LBE58:
ARM GAS  /tmp/ccG38jLQ.s 			page 42


 925:Middlewares/Third_Party/FreeRTOS/Source/timers.c **** 				( void ) xResult;
 961              		.loc 1 925 5 is_stmt 1 discriminator 1 view .LVU257
 925:Middlewares/Third_Party/FreeRTOS/Source/timers.c **** 				( void ) xResult;
 962              		.loc 1 925 5 discriminator 1 view .LVU258
 963 0064 FEE7     		b	.L67
 964              	.LVL77:
 965              	.L70:
 935:Middlewares/Third_Party/FreeRTOS/Source/timers.c **** 	pxCurrentTimerList = pxOverflowTimerList;
 966              		.loc 1 935 2 view .LVU259
 936:Middlewares/Third_Party/FreeRTOS/Source/timers.c **** 	pxOverflowTimerList = pxTemp;
 967              		.loc 1 936 2 view .LVU260
 936:Middlewares/Third_Party/FreeRTOS/Source/timers.c **** 	pxOverflowTimerList = pxTemp;
 968              		.loc 1 936 21 is_stmt 0 view .LVU261
 969 0066 044A     		ldr	r2, .L71+4
 970 0068 1068     		ldr	r0, [r2]
 971 006a 0249     		ldr	r1, .L71
 972 006c 0860     		str	r0, [r1]
 937:Middlewares/Third_Party/FreeRTOS/Source/timers.c **** }
 973              		.loc 1 937 2 is_stmt 1 view .LVU262
 937:Middlewares/Third_Party/FreeRTOS/Source/timers.c **** }
 974              		.loc 1 937 22 is_stmt 0 view .LVU263
 975 006e 1360     		str	r3, [r2]
 938:Middlewares/Third_Party/FreeRTOS/Source/timers.c **** /*-----------------------------------------------------------*/
 976              		.loc 1 938 1 view .LVU264
 977 0070 02B0     		add	sp, sp, #8
 978              		.cfi_def_cfa_offset 16
 979              		@ sp needed
 980 0072 70BD     		pop	{r4, r5, r6, pc}
 981              	.L72:
 982              		.align	2
 983              	.L71:
 984 0074 00000000 		.word	pxCurrentTimerList
 985 0078 00000000 		.word	pxOverflowTimerList
 986              		.cfi_endproc
 987              	.LFE22:
 989              		.section	.text.prvSampleTimeNow,"ax",%progbits
 990              		.align	1
 991              		.syntax unified
 992              		.thumb
 993              		.thumb_func
 995              	prvSampleTimeNow:
 996              	.LVL78:
 997              	.LFB19:
 671:Middlewares/Third_Party/FreeRTOS/Source/timers.c **** TickType_t xTimeNow;
 998              		.loc 1 671 1 is_stmt 1 view -0
 999              		.cfi_startproc
 1000              		@ args = 0, pretend = 0, frame = 0
 1001              		@ frame_needed = 0, uses_anonymous_args = 0
 671:Middlewares/Third_Party/FreeRTOS/Source/timers.c **** TickType_t xTimeNow;
 1002              		.loc 1 671 1 is_stmt 0 view .LVU266
 1003 0000 38B5     		push	{r3, r4, r5, lr}
 1004              		.cfi_def_cfa_offset 16
 1005              		.cfi_offset 3, -16
 1006              		.cfi_offset 4, -12
 1007              		.cfi_offset 5, -8
 1008              		.cfi_offset 14, -4
 1009 0002 0546     		mov	r5, r0
ARM GAS  /tmp/ccG38jLQ.s 			page 43


 672:Middlewares/Third_Party/FreeRTOS/Source/timers.c **** PRIVILEGED_DATA static TickType_t xLastTime = ( TickType_t ) 0U; /*lint !e956 Variable is only acce
 1010              		.loc 1 672 1 is_stmt 1 view .LVU267
 673:Middlewares/Third_Party/FreeRTOS/Source/timers.c **** 
 1011              		.loc 1 673 17 view .LVU268
 675:Middlewares/Third_Party/FreeRTOS/Source/timers.c **** 
 1012              		.loc 1 675 2 view .LVU269
 675:Middlewares/Third_Party/FreeRTOS/Source/timers.c **** 
 1013              		.loc 1 675 13 is_stmt 0 view .LVU270
 1014 0004 FFF7FEFF 		bl	xTaskGetTickCount
 1015              	.LVL79:
 675:Middlewares/Third_Party/FreeRTOS/Source/timers.c **** 
 1016              		.loc 1 675 13 view .LVU271
 1017 0008 0446     		mov	r4, r0
 1018              	.LVL80:
 677:Middlewares/Third_Party/FreeRTOS/Source/timers.c **** 	{
 1019              		.loc 1 677 2 is_stmt 1 view .LVU272
 677:Middlewares/Third_Party/FreeRTOS/Source/timers.c **** 	{
 1020              		.loc 1 677 15 is_stmt 0 view .LVU273
 1021 000a 074B     		ldr	r3, .L78
 1022 000c 1B68     		ldr	r3, [r3]
 677:Middlewares/Third_Party/FreeRTOS/Source/timers.c **** 	{
 1023              		.loc 1 677 4 view .LVU274
 1024 000e 8342     		cmp	r3, r0
 1025 0010 05D8     		bhi	.L77
 684:Middlewares/Third_Party/FreeRTOS/Source/timers.c **** 	}
 1026              		.loc 1 684 3 is_stmt 1 view .LVU275
 684:Middlewares/Third_Party/FreeRTOS/Source/timers.c **** 	}
 1027              		.loc 1 684 29 is_stmt 0 view .LVU276
 1028 0012 0023     		movs	r3, #0
 1029 0014 2B60     		str	r3, [r5]
 1030              	.LVL81:
 1031              	.L75:
 687:Middlewares/Third_Party/FreeRTOS/Source/timers.c **** 
 1032              		.loc 1 687 2 is_stmt 1 view .LVU277
 687:Middlewares/Third_Party/FreeRTOS/Source/timers.c **** 
 1033              		.loc 1 687 12 is_stmt 0 view .LVU278
 1034 0016 044B     		ldr	r3, .L78
 1035 0018 1C60     		str	r4, [r3]
 689:Middlewares/Third_Party/FreeRTOS/Source/timers.c **** }
 1036              		.loc 1 689 2 is_stmt 1 view .LVU279
 690:Middlewares/Third_Party/FreeRTOS/Source/timers.c **** /*-----------------------------------------------------------*/
 1037              		.loc 1 690 1 is_stmt 0 view .LVU280
 1038 001a 2046     		mov	r0, r4
 1039 001c 38BD     		pop	{r3, r4, r5, pc}
 1040              	.LVL82:
 1041              	.L77:
 679:Middlewares/Third_Party/FreeRTOS/Source/timers.c **** 		*pxTimerListsWereSwitched = pdTRUE;
 1042              		.loc 1 679 3 is_stmt 1 view .LVU281
 1043 001e FFF7FEFF 		bl	prvSwitchTimerLists
 1044              	.LVL83:
 680:Middlewares/Third_Party/FreeRTOS/Source/timers.c **** 	}
 1045              		.loc 1 680 3 view .LVU282
 680:Middlewares/Third_Party/FreeRTOS/Source/timers.c **** 	}
 1046              		.loc 1 680 29 is_stmt 0 view .LVU283
 1047 0022 0123     		movs	r3, #1
 1048 0024 2B60     		str	r3, [r5]
 1049 0026 F6E7     		b	.L75
ARM GAS  /tmp/ccG38jLQ.s 			page 44


 1050              	.L79:
 1051              		.align	2
 1052              	.L78:
 1053 0028 00000000 		.word	xLastTime.2
 1054              		.cfi_endproc
 1055              	.LFE19:
 1057              		.section	.text.prvProcessExpiredTimer,"ax",%progbits
 1058              		.align	1
 1059              		.syntax unified
 1060              		.thumb
 1061              		.thumb_func
 1063              	prvProcessExpiredTimer:
 1064              	.LVL84:
 1065              	.LFB15:
 508:Middlewares/Third_Party/FreeRTOS/Source/timers.c **** BaseType_t xResult;
 1066              		.loc 1 508 1 is_stmt 1 view -0
 1067              		.cfi_startproc
 1068              		@ args = 0, pretend = 0, frame = 0
 1069              		@ frame_needed = 0, uses_anonymous_args = 0
 508:Middlewares/Third_Party/FreeRTOS/Source/timers.c **** BaseType_t xResult;
 1070              		.loc 1 508 1 is_stmt 0 view .LVU285
 1071 0000 70B5     		push	{r4, r5, r6, lr}
 1072              		.cfi_def_cfa_offset 16
 1073              		.cfi_offset 4, -16
 1074              		.cfi_offset 5, -12
 1075              		.cfi_offset 6, -8
 1076              		.cfi_offset 14, -4
 1077 0002 82B0     		sub	sp, sp, #8
 1078              		.cfi_def_cfa_offset 24
 1079 0004 0646     		mov	r6, r0
 1080 0006 0D46     		mov	r5, r1
 509:Middlewares/Third_Party/FreeRTOS/Source/timers.c **** Timer_t * const pxTimer = ( Timer_t * ) listGET_OWNER_OF_HEAD_ENTRY( pxCurrentTimerList ); /*lint !
 1081              		.loc 1 509 1 is_stmt 1 view .LVU286
 510:Middlewares/Third_Party/FreeRTOS/Source/timers.c **** 
 1082              		.loc 1 510 1 view .LVU287
 510:Middlewares/Third_Party/FreeRTOS/Source/timers.c **** 
 1083              		.loc 1 510 41 is_stmt 0 view .LVU288
 1084 0008 1749     		ldr	r1, .L86
 1085              	.LVL85:
 510:Middlewares/Third_Party/FreeRTOS/Source/timers.c **** 
 1086              		.loc 1 510 41 view .LVU289
 1087 000a 0968     		ldr	r1, [r1]
 1088 000c C968     		ldr	r1, [r1, #12]
 510:Middlewares/Third_Party/FreeRTOS/Source/timers.c **** 
 1089              		.loc 1 510 17 view .LVU290
 1090 000e CC68     		ldr	r4, [r1, #12]
 1091              	.LVL86:
 514:Middlewares/Third_Party/FreeRTOS/Source/timers.c **** 	traceTIMER_EXPIRED( pxTimer );
 1092              		.loc 1 514 2 is_stmt 1 view .LVU291
 514:Middlewares/Third_Party/FreeRTOS/Source/timers.c **** 	traceTIMER_EXPIRED( pxTimer );
 1093              		.loc 1 514 11 is_stmt 0 view .LVU292
 1094 0010 201D     		adds	r0, r4, #4
 1095              	.LVL87:
 514:Middlewares/Third_Party/FreeRTOS/Source/timers.c **** 	traceTIMER_EXPIRED( pxTimer );
 1096              		.loc 1 514 11 view .LVU293
 1097 0012 FFF7FEFF 		bl	uxListRemove
 1098              	.LVL88:
ARM GAS  /tmp/ccG38jLQ.s 			page 45


 515:Middlewares/Third_Party/FreeRTOS/Source/timers.c **** 
 1099              		.loc 1 515 31 is_stmt 1 view .LVU294
 519:Middlewares/Third_Party/FreeRTOS/Source/timers.c **** 	{
 1100              		.loc 1 519 2 view .LVU295
 519:Middlewares/Third_Party/FreeRTOS/Source/timers.c **** 	{
 1101              		.loc 1 519 15 is_stmt 0 view .LVU296
 1102 0016 94F828C0 		ldrb	ip, [r4, #40]	@ zero_extendqisi2
 519:Middlewares/Third_Party/FreeRTOS/Source/timers.c **** 	{
 1103              		.loc 1 519 4 view .LVU297
 1104 001a 1CF0040F 		tst	ip, #4
 1105 001e 08D1     		bne	.L85
 539:Middlewares/Third_Party/FreeRTOS/Source/timers.c **** 		mtCOVERAGE_TEST_MARKER();
 1106              		.loc 1 539 3 is_stmt 1 view .LVU298
 539:Middlewares/Third_Party/FreeRTOS/Source/timers.c **** 		mtCOVERAGE_TEST_MARKER();
 1107              		.loc 1 539 21 is_stmt 0 view .LVU299
 1108 0020 2CF0010C 		bic	ip, ip, #1
 1109 0024 84F828C0 		strb	ip, [r4, #40]
 1110              	.L82:
 540:Middlewares/Third_Party/FreeRTOS/Source/timers.c **** 	}
 1111              		.loc 1 540 27 is_stmt 1 view .LVU300
 544:Middlewares/Third_Party/FreeRTOS/Source/timers.c **** }
 1112              		.loc 1 544 2 view .LVU301
 544:Middlewares/Third_Party/FreeRTOS/Source/timers.c **** }
 1113              		.loc 1 544 9 is_stmt 0 view .LVU302
 1114 0028 236A     		ldr	r3, [r4, #32]
 544:Middlewares/Third_Party/FreeRTOS/Source/timers.c **** }
 1115              		.loc 1 544 2 view .LVU303
 1116 002a 2046     		mov	r0, r4
 1117 002c 9847     		blx	r3
 1118              	.LVL89:
 545:Middlewares/Third_Party/FreeRTOS/Source/timers.c **** /*-----------------------------------------------------------*/
 1119              		.loc 1 545 1 view .LVU304
 1120 002e 02B0     		add	sp, sp, #8
 1121              		.cfi_remember_state
 1122              		.cfi_def_cfa_offset 16
 1123              		@ sp needed
 1124 0030 70BD     		pop	{r4, r5, r6, pc}
 1125              	.LVL90:
 1126              	.L85:
 1127              		.cfi_restore_state
 524:Middlewares/Third_Party/FreeRTOS/Source/timers.c **** 		{
 1128              		.loc 1 524 3 is_stmt 1 view .LVU305
 524:Middlewares/Third_Party/FreeRTOS/Source/timers.c **** 		{
 1129              		.loc 1 524 71 is_stmt 0 view .LVU306
 1130 0032 A169     		ldr	r1, [r4, #24]
 524:Middlewares/Third_Party/FreeRTOS/Source/timers.c **** 		{
 1131              		.loc 1 524 7 view .LVU307
 1132 0034 3346     		mov	r3, r6
 1133 0036 2A46     		mov	r2, r5
 1134 0038 3144     		add	r1, r1, r6
 1135 003a 2046     		mov	r0, r4
 1136 003c FFF7FEFF 		bl	prvInsertTimerInActiveList
 1137              	.LVL91:
 524:Middlewares/Third_Party/FreeRTOS/Source/timers.c **** 		{
 1138              		.loc 1 524 5 view .LVU308
 1139 0040 0028     		cmp	r0, #0
 1140 0042 F1D0     		beq	.L82
ARM GAS  /tmp/ccG38jLQ.s 			page 46


 528:Middlewares/Third_Party/FreeRTOS/Source/timers.c **** 			configASSERT( xResult );
 1141              		.loc 1 528 4 is_stmt 1 view .LVU309
 528:Middlewares/Third_Party/FreeRTOS/Source/timers.c **** 			configASSERT( xResult );
 1142              		.loc 1 528 14 is_stmt 0 view .LVU310
 1143 0044 0021     		movs	r1, #0
 1144 0046 0091     		str	r1, [sp]
 1145 0048 0B46     		mov	r3, r1
 1146 004a 3246     		mov	r2, r6
 1147 004c 2046     		mov	r0, r4
 1148 004e FFF7FEFF 		bl	xTimerGenericCommand
 1149              	.LVL92:
 529:Middlewares/Third_Party/FreeRTOS/Source/timers.c **** 			( void ) xResult;
 1150              		.loc 1 529 4 is_stmt 1 view .LVU311
 1151 0052 0028     		cmp	r0, #0
 1152 0054 E8D1     		bne	.L82
 529:Middlewares/Third_Party/FreeRTOS/Source/timers.c **** 			( void ) xResult;
 1153              		.loc 1 529 4 view .LVU312
 1154              	.LBB60:
 1155              	.LBI60:
 191:Middlewares/Third_Party/FreeRTOS/Source/portable/GCC/ARM_CM4F/portmacro.h **** {
 1156              		.loc 2 191 30 view .LVU313
 1157              	.LBB61:
 193:Middlewares/Third_Party/FreeRTOS/Source/portable/GCC/ARM_CM4F/portmacro.h **** 
 1158              		.loc 2 193 1 view .LVU314
 1159              		.loc 2 195 2 view .LVU315
 1160              		.syntax unified
 1161              	@ 195 "Middlewares/Third_Party/FreeRTOS/Source/portable/GCC/ARM_CM4F/portmacro.h" 1
 1162 0056 4FF05003 			mov r3, #80												
 1163 005a 83F31188 		msr basepri, r3											
 1164 005e BFF36F8F 		isb														
 1165 0062 BFF34F8F 		dsb														
 1166              	
 1167              	@ 0 "" 2
 1168              	.LVL93:
 1169              		.thumb
 1170              		.syntax unified
 1171              	.L83:
 1172              		.loc 2 195 2 is_stmt 0 view .LVU316
 1173              	.LBE61:
 1174              	.LBE60:
 529:Middlewares/Third_Party/FreeRTOS/Source/timers.c **** 			( void ) xResult;
 1175              		.loc 1 529 4 is_stmt 1 discriminator 1 view .LVU317
 529:Middlewares/Third_Party/FreeRTOS/Source/timers.c **** 			( void ) xResult;
 1176              		.loc 1 529 4 discriminator 1 view .LVU318
 1177 0066 FEE7     		b	.L83
 1178              	.L87:
 1179              		.align	2
 1180              	.L86:
 1181 0068 00000000 		.word	pxCurrentTimerList
 1182              		.cfi_endproc
 1183              	.LFE15:
 1185              		.section	.text.prvProcessTimerOrBlockTask,"ax",%progbits
 1186              		.align	1
 1187              		.syntax unified
 1188              		.thumb
 1189              		.thumb_func
 1191              	prvProcessTimerOrBlockTask:
ARM GAS  /tmp/ccG38jLQ.s 			page 47


 1192              	.LVL94:
 1193              	.LFB17:
 585:Middlewares/Third_Party/FreeRTOS/Source/timers.c **** TickType_t xTimeNow;
 1194              		.loc 1 585 1 view -0
 1195              		.cfi_startproc
 1196              		@ args = 0, pretend = 0, frame = 8
 1197              		@ frame_needed = 0, uses_anonymous_args = 0
 585:Middlewares/Third_Party/FreeRTOS/Source/timers.c **** TickType_t xTimeNow;
 1198              		.loc 1 585 1 is_stmt 0 view .LVU320
 1199 0000 70B5     		push	{r4, r5, r6, lr}
 1200              		.cfi_def_cfa_offset 16
 1201              		.cfi_offset 4, -16
 1202              		.cfi_offset 5, -12
 1203              		.cfi_offset 6, -8
 1204              		.cfi_offset 14, -4
 1205 0002 82B0     		sub	sp, sp, #8
 1206              		.cfi_def_cfa_offset 24
 1207 0004 0646     		mov	r6, r0
 1208 0006 0C46     		mov	r4, r1
 586:Middlewares/Third_Party/FreeRTOS/Source/timers.c **** BaseType_t xTimerListsWereSwitched;
 1209              		.loc 1 586 1 is_stmt 1 view .LVU321
 587:Middlewares/Third_Party/FreeRTOS/Source/timers.c **** 
 1210              		.loc 1 587 1 view .LVU322
 589:Middlewares/Third_Party/FreeRTOS/Source/timers.c **** 	{
 1211              		.loc 1 589 2 view .LVU323
 1212 0008 FFF7FEFF 		bl	vTaskSuspendAll
 1213              	.LVL95:
 596:Middlewares/Third_Party/FreeRTOS/Source/timers.c **** 		if( xTimerListsWereSwitched == pdFALSE )
 1214              		.loc 1 596 3 view .LVU324
 596:Middlewares/Third_Party/FreeRTOS/Source/timers.c **** 		if( xTimerListsWereSwitched == pdFALSE )
 1215              		.loc 1 596 14 is_stmt 0 view .LVU325
 1216 000c 01A8     		add	r0, sp, #4
 1217 000e FFF7FEFF 		bl	prvSampleTimeNow
 1218              	.LVL96:
 597:Middlewares/Third_Party/FreeRTOS/Source/timers.c **** 		{
 1219              		.loc 1 597 3 is_stmt 1 view .LVU326
 597:Middlewares/Third_Party/FreeRTOS/Source/timers.c **** 		{
 1220              		.loc 1 597 31 is_stmt 0 view .LVU327
 1221 0012 019B     		ldr	r3, [sp, #4]
 597:Middlewares/Third_Party/FreeRTOS/Source/timers.c **** 		{
 1222              		.loc 1 597 5 view .LVU328
 1223 0014 33BB     		cbnz	r3, .L89
 1224 0016 0546     		mov	r5, r0
 600:Middlewares/Third_Party/FreeRTOS/Source/timers.c **** 			{
 1225              		.loc 1 600 4 is_stmt 1 view .LVU329
 600:Middlewares/Third_Party/FreeRTOS/Source/timers.c **** 			{
 1226              		.loc 1 600 6 is_stmt 0 view .LVU330
 1227 0018 E4B9     		cbnz	r4, .L90
 600:Middlewares/Third_Party/FreeRTOS/Source/timers.c **** 			{
 1228              		.loc 1 600 37 discriminator 1 view .LVU331
 1229 001a B042     		cmp	r0, r6
 1230 001c 13D2     		bcs	.L95
 1231              	.LVL97:
 1232              	.L91:
 620:Middlewares/Third_Party/FreeRTOS/Source/timers.c **** 
 1233              		.loc 1 620 5 is_stmt 1 view .LVU332
 1234 001e 2246     		mov	r2, r4
ARM GAS  /tmp/ccG38jLQ.s 			page 48


 1235 0020 711B     		subs	r1, r6, r5
 1236 0022 124B     		ldr	r3, .L96
 1237 0024 1868     		ldr	r0, [r3]
 1238              	.LVL98:
 620:Middlewares/Third_Party/FreeRTOS/Source/timers.c **** 
 1239              		.loc 1 620 5 is_stmt 0 view .LVU333
 1240 0026 FFF7FEFF 		bl	vQueueWaitForMessageRestricted
 1241              	.LVL99:
 622:Middlewares/Third_Party/FreeRTOS/Source/timers.c **** 				{
 1242              		.loc 1 622 5 is_stmt 1 view .LVU334
 622:Middlewares/Third_Party/FreeRTOS/Source/timers.c **** 				{
 1243              		.loc 1 622 9 is_stmt 0 view .LVU335
 1244 002a FFF7FEFF 		bl	xTaskResumeAll
 1245              	.LVL100:
 622:Middlewares/Third_Party/FreeRTOS/Source/timers.c **** 				{
 1246              		.loc 1 622 7 view .LVU336
 1247 002e D8B9     		cbnz	r0, .L88
 628:Middlewares/Third_Party/FreeRTOS/Source/timers.c **** 				}
 1248              		.loc 1 628 6 is_stmt 1 view .LVU337
 1249 0030 4FF0E023 		mov	r3, #-536813568
 1250 0034 4FF08052 		mov	r2, #268435456
 1251 0038 C3F8042D 		str	r2, [r3, #3332]
 628:Middlewares/Third_Party/FreeRTOS/Source/timers.c **** 				}
 1252              		.loc 1 628 6 view .LVU338
 1253              		.syntax unified
 1254              	@ 628 "Middlewares/Third_Party/FreeRTOS/Source/timers.c" 1
 1255 003c BFF34F8F 		dsb
 1256              	@ 0 "" 2
 628:Middlewares/Third_Party/FreeRTOS/Source/timers.c **** 				}
 1257              		.loc 1 628 6 view .LVU339
 1258              	@ 628 "Middlewares/Third_Party/FreeRTOS/Source/timers.c" 1
 1259 0040 BFF36F8F 		isb
 1260              	@ 0 "" 2
 628:Middlewares/Third_Party/FreeRTOS/Source/timers.c **** 				}
 1261              		.loc 1 628 28 view .LVU340
 1262              		.thumb
 1263              		.syntax unified
 1264 0044 10E0     		b	.L88
 1265              	.LVL101:
 1266              	.L95:
 602:Middlewares/Third_Party/FreeRTOS/Source/timers.c **** 				prvProcessExpiredTimer( xNextExpireTime, xTimeNow );
 1267              		.loc 1 602 5 view .LVU341
 602:Middlewares/Third_Party/FreeRTOS/Source/timers.c **** 				prvProcessExpiredTimer( xNextExpireTime, xTimeNow );
 1268              		.loc 1 602 14 is_stmt 0 view .LVU342
 1269 0046 FFF7FEFF 		bl	xTaskResumeAll
 1270              	.LVL102:
 603:Middlewares/Third_Party/FreeRTOS/Source/timers.c **** 			}
 1271              		.loc 1 603 5 is_stmt 1 view .LVU343
 1272 004a 2946     		mov	r1, r5
 1273 004c 3046     		mov	r0, r6
 1274 004e FFF7FEFF 		bl	prvProcessExpiredTimer
 1275              	.LVL103:
 1276 0052 09E0     		b	.L88
 1277              	.LVL104:
 1278              	.L90:
 617:Middlewares/Third_Party/FreeRTOS/Source/timers.c **** 				}
 1279              		.loc 1 617 6 view .LVU344
ARM GAS  /tmp/ccG38jLQ.s 			page 49


 617:Middlewares/Third_Party/FreeRTOS/Source/timers.c **** 				}
 1280              		.loc 1 617 22 is_stmt 0 view .LVU345
 1281 0054 064A     		ldr	r2, .L96+4
 1282 0056 1268     		ldr	r2, [r2]
 1283 0058 1268     		ldr	r2, [r2]
 1284 005a 0AB9     		cbnz	r2, .L93
 1285 005c 0124     		movs	r4, #1
 1286              	.LVL105:
 617:Middlewares/Third_Party/FreeRTOS/Source/timers.c **** 				}
 1287              		.loc 1 617 22 view .LVU346
 1288 005e DEE7     		b	.L91
 1289              	.LVL106:
 1290              	.L93:
 617:Middlewares/Third_Party/FreeRTOS/Source/timers.c **** 				}
 1291              		.loc 1 617 22 view .LVU347
 1292 0060 1C46     		mov	r4, r3
 1293              	.LVL107:
 617:Middlewares/Third_Party/FreeRTOS/Source/timers.c **** 				}
 1294              		.loc 1 617 22 view .LVU348
 1295 0062 DCE7     		b	.L91
 1296              	.LVL108:
 1297              	.L89:
 638:Middlewares/Third_Party/FreeRTOS/Source/timers.c **** 		}
 1298              		.loc 1 638 4 is_stmt 1 view .LVU349
 638:Middlewares/Third_Party/FreeRTOS/Source/timers.c **** 		}
 1299              		.loc 1 638 13 is_stmt 0 view .LVU350
 1300 0064 FFF7FEFF 		bl	xTaskResumeAll
 1301              	.LVL109:
 1302              	.L88:
 641:Middlewares/Third_Party/FreeRTOS/Source/timers.c **** /*-----------------------------------------------------------*/
 1303              		.loc 1 641 1 view .LVU351
 1304 0068 02B0     		add	sp, sp, #8
 1305              		.cfi_def_cfa_offset 16
 1306              		@ sp needed
 1307 006a 70BD     		pop	{r4, r5, r6, pc}
 1308              	.LVL110:
 1309              	.L97:
 641:Middlewares/Third_Party/FreeRTOS/Source/timers.c **** /*-----------------------------------------------------------*/
 1310              		.loc 1 641 1 view .LVU352
 1311              		.align	2
 1312              	.L96:
 1313 006c 00000000 		.word	xTimerQueue
 1314 0070 00000000 		.word	pxOverflowTimerList
 1315              		.cfi_endproc
 1316              	.LFE17:
 1318              		.section	.text.prvProcessReceivedCommands,"ax",%progbits
 1319              		.align	1
 1320              		.syntax unified
 1321              		.thumb
 1322              		.thumb_func
 1324              	prvProcessReceivedCommands:
 1325              	.LFB21:
 735:Middlewares/Third_Party/FreeRTOS/Source/timers.c **** DaemonTaskMessage_t xMessage;
 1326              		.loc 1 735 1 is_stmt 1 view -0
 1327              		.cfi_startproc
 1328              		@ args = 0, pretend = 0, frame = 24
 1329              		@ frame_needed = 0, uses_anonymous_args = 0
ARM GAS  /tmp/ccG38jLQ.s 			page 50


 1330 0000 10B5     		push	{r4, lr}
 1331              		.cfi_def_cfa_offset 8
 1332              		.cfi_offset 4, -8
 1333              		.cfi_offset 14, -4
 1334 0002 88B0     		sub	sp, sp, #32
 1335              		.cfi_def_cfa_offset 40
 736:Middlewares/Third_Party/FreeRTOS/Source/timers.c **** Timer_t *pxTimer;
 1336              		.loc 1 736 1 view .LVU354
 737:Middlewares/Third_Party/FreeRTOS/Source/timers.c **** BaseType_t xTimerListsWereSwitched, xResult;
 1337              		.loc 1 737 1 view .LVU355
 738:Middlewares/Third_Party/FreeRTOS/Source/timers.c **** TickType_t xTimeNow;
 1338              		.loc 1 738 1 view .LVU356
 739:Middlewares/Third_Party/FreeRTOS/Source/timers.c **** 
 1339              		.loc 1 739 1 view .LVU357
 741:Middlewares/Third_Party/FreeRTOS/Source/timers.c **** 	{
 1340              		.loc 1 741 2 view .LVU358
 741:Middlewares/Third_Party/FreeRTOS/Source/timers.c **** 	{
 1341              		.loc 1 741 7 is_stmt 0 view .LVU359
 1342 0004 02E0     		b	.L101
 1343              	.L100:
 760:Middlewares/Third_Party/FreeRTOS/Source/timers.c **** 			}
 1344              		.loc 1 760 29 is_stmt 1 view .LVU360
 767:Middlewares/Third_Party/FreeRTOS/Source/timers.c **** 		{
 1345              		.loc 1 767 3 view .LVU361
 767:Middlewares/Third_Party/FreeRTOS/Source/timers.c **** 		{
 1346              		.loc 1 767 15 is_stmt 0 view .LVU362
 1347 0006 049B     		ldr	r3, [sp, #16]
 767:Middlewares/Third_Party/FreeRTOS/Source/timers.c **** 		{
 1348              		.loc 1 767 5 view .LVU363
 1349 0008 002B     		cmp	r3, #0
 1350 000a 0FDA     		bge	.L117
 1351              	.L101:
 741:Middlewares/Third_Party/FreeRTOS/Source/timers.c **** 	{
 1352              		.loc 1 741 62 is_stmt 1 view .LVU364
 741:Middlewares/Third_Party/FreeRTOS/Source/timers.c **** 	{
 1353              		.loc 1 741 9 is_stmt 0 view .LVU365
 1354 000c 0022     		movs	r2, #0
 1355 000e 04A9     		add	r1, sp, #16
 1356 0010 3D4B     		ldr	r3, .L121
 1357 0012 1868     		ldr	r0, [r3]
 1358 0014 FFF7FEFF 		bl	xQueueReceive
 1359              	.LVL111:
 741:Middlewares/Third_Party/FreeRTOS/Source/timers.c **** 	{
 1360              		.loc 1 741 62 view .LVU366
 1361 0018 0028     		cmp	r0, #0
 1362 001a 73D0     		beq	.L118
 747:Middlewares/Third_Party/FreeRTOS/Source/timers.c **** 			{
 1363              		.loc 1 747 4 is_stmt 1 view .LVU367
 747:Middlewares/Third_Party/FreeRTOS/Source/timers.c **** 			{
 1364              		.loc 1 747 16 is_stmt 0 view .LVU368
 1365 001c 049B     		ldr	r3, [sp, #16]
 747:Middlewares/Third_Party/FreeRTOS/Source/timers.c **** 			{
 1366              		.loc 1 747 6 view .LVU369
 1367 001e 002B     		cmp	r3, #0
 1368 0020 F1DA     		bge	.L100
 1369              	.LBB62:
 749:Middlewares/Third_Party/FreeRTOS/Source/timers.c **** 
ARM GAS  /tmp/ccG38jLQ.s 			page 51


 1370              		.loc 1 749 5 is_stmt 1 discriminator 2 view .LVU370
 1371              	.LVL112:
 753:Middlewares/Third_Party/FreeRTOS/Source/timers.c **** 
 1372              		.loc 1 753 5 discriminator 2 view .LVU371
 753:Middlewares/Third_Party/FreeRTOS/Source/timers.c **** 
 1373              		.loc 1 753 31 discriminator 2 view .LVU372
 756:Middlewares/Third_Party/FreeRTOS/Source/timers.c **** 			}
 1374              		.loc 1 756 5 discriminator 2 view .LVU373
 1375 0022 0799     		ldr	r1, [sp, #28]
 1376 0024 0698     		ldr	r0, [sp, #24]
 1377 0026 059B     		ldr	r3, [sp, #20]
 1378 0028 9847     		blx	r3
 1379              	.LVL113:
 1380              	.LBE62:
 1381 002a ECE7     		b	.L100
 1382              	.LVL114:
 1383              	.L117:
 771:Middlewares/Third_Party/FreeRTOS/Source/timers.c **** 
 1384              		.loc 1 771 4 view .LVU374
 771:Middlewares/Third_Party/FreeRTOS/Source/timers.c **** 
 1385              		.loc 1 771 12 is_stmt 0 view .LVU375
 1386 002c 069C     		ldr	r4, [sp, #24]
 1387              	.LVL115:
 773:Middlewares/Third_Party/FreeRTOS/Source/timers.c **** 			{
 1388              		.loc 1 773 4 is_stmt 1 view .LVU376
 773:Middlewares/Third_Party/FreeRTOS/Source/timers.c **** 			{
 1389              		.loc 1 773 8 is_stmt 0 view .LVU377
 1390 002e 6369     		ldr	r3, [r4, #20]
 773:Middlewares/Third_Party/FreeRTOS/Source/timers.c **** 			{
 1391              		.loc 1 773 6 view .LVU378
 1392 0030 13B1     		cbz	r3, .L102
 776:Middlewares/Third_Party/FreeRTOS/Source/timers.c **** 			}
 1393              		.loc 1 776 5 is_stmt 1 view .LVU379
 776:Middlewares/Third_Party/FreeRTOS/Source/timers.c **** 			}
 1394              		.loc 1 776 14 is_stmt 0 view .LVU380
 1395 0032 201D     		adds	r0, r4, #4
 1396 0034 FFF7FEFF 		bl	uxListRemove
 1397              	.LVL116:
 1398              	.L102:
 780:Middlewares/Third_Party/FreeRTOS/Source/timers.c **** 			}
 1399              		.loc 1 780 29 is_stmt 1 view .LVU381
 783:Middlewares/Third_Party/FreeRTOS/Source/timers.c **** 
 1400              		.loc 1 783 106 view .LVU382
 791:Middlewares/Third_Party/FreeRTOS/Source/timers.c **** 
 1401              		.loc 1 791 4 view .LVU383
 791:Middlewares/Third_Party/FreeRTOS/Source/timers.c **** 
 1402              		.loc 1 791 15 is_stmt 0 view .LVU384
 1403 0038 03A8     		add	r0, sp, #12
 1404 003a FFF7FEFF 		bl	prvSampleTimeNow
 1405              	.LVL117:
 793:Middlewares/Third_Party/FreeRTOS/Source/timers.c **** 			{
 1406              		.loc 1 793 4 is_stmt 1 view .LVU385
 793:Middlewares/Third_Party/FreeRTOS/Source/timers.c **** 			{
 1407              		.loc 1 793 20 is_stmt 0 view .LVU386
 1408 003e 049B     		ldr	r3, [sp, #16]
 793:Middlewares/Third_Party/FreeRTOS/Source/timers.c **** 			{
 1409              		.loc 1 793 4 view .LVU387
ARM GAS  /tmp/ccG38jLQ.s 			page 52


 1410 0040 092B     		cmp	r3, #9
 1411 0042 E3D8     		bhi	.L101
 1412 0044 DFE803F0 		tbb	[pc, r3]
 1413              	.L105:
 1414 0048 05       		.byte	(.L107-.L105)/2
 1415 0049 05       		.byte	(.L107-.L105)/2
 1416 004a 05       		.byte	(.L107-.L105)/2
 1417 004b 30       		.byte	(.L106-.L105)/2
 1418 004c 37       		.byte	(.L104-.L105)/2
 1419 004d 50       		.byte	(.L108-.L105)/2
 1420 004e 05       		.byte	(.L107-.L105)/2
 1421 004f 05       		.byte	(.L107-.L105)/2
 1422 0050 30       		.byte	(.L106-.L105)/2
 1423 0051 37       		.byte	(.L104-.L105)/2
 1424              		.p2align 1
 1425              	.L107:
 801:Middlewares/Third_Party/FreeRTOS/Source/timers.c **** 					if( prvInsertTimerInActiveList( pxTimer,  xMessage.u.xTimerParameters.xMessageValue + pxTimer-
 1426              		.loc 1 801 6 is_stmt 1 view .LVU388
 801:Middlewares/Third_Party/FreeRTOS/Source/timers.c **** 					if( prvInsertTimerInActiveList( pxTimer,  xMessage.u.xTimerParameters.xMessageValue + pxTimer-
 1427              		.loc 1 801 13 is_stmt 0 view .LVU389
 1428 0052 94F82830 		ldrb	r3, [r4, #40]	@ zero_extendqisi2
 801:Middlewares/Third_Party/FreeRTOS/Source/timers.c **** 					if( prvInsertTimerInActiveList( pxTimer,  xMessage.u.xTimerParameters.xMessageValue + pxTimer-
 1429              		.loc 1 801 24 view .LVU390
 1430 0056 43F00103 		orr	r3, r3, #1
 1431 005a 84F82830 		strb	r3, [r4, #40]
 802:Middlewares/Third_Party/FreeRTOS/Source/timers.c **** 					{
 1432              		.loc 1 802 6 is_stmt 1 view .LVU391
 802:Middlewares/Third_Party/FreeRTOS/Source/timers.c **** 					{
 1433              		.loc 1 802 75 is_stmt 0 view .LVU392
 1434 005e 059B     		ldr	r3, [sp, #20]
 802:Middlewares/Third_Party/FreeRTOS/Source/timers.c **** 					{
 1435              		.loc 1 802 99 view .LVU393
 1436 0060 A169     		ldr	r1, [r4, #24]
 802:Middlewares/Third_Party/FreeRTOS/Source/timers.c **** 					{
 1437              		.loc 1 802 10 view .LVU394
 1438 0062 0246     		mov	r2, r0
 1439 0064 1944     		add	r1, r1, r3
 1440 0066 2046     		mov	r0, r4
 1441              	.LVL118:
 802:Middlewares/Third_Party/FreeRTOS/Source/timers.c **** 					{
 1442              		.loc 1 802 10 view .LVU395
 1443 0068 FFF7FEFF 		bl	prvInsertTimerInActiveList
 1444              	.LVL119:
 802:Middlewares/Third_Party/FreeRTOS/Source/timers.c **** 					{
 1445              		.loc 1 802 8 view .LVU396
 1446 006c 0028     		cmp	r0, #0
 1447 006e CDD0     		beq	.L101
 806:Middlewares/Third_Party/FreeRTOS/Source/timers.c **** 						traceTIMER_EXPIRED( pxTimer );
 1448              		.loc 1 806 7 is_stmt 1 view .LVU397
 806:Middlewares/Third_Party/FreeRTOS/Source/timers.c **** 						traceTIMER_EXPIRED( pxTimer );
 1449              		.loc 1 806 14 is_stmt 0 view .LVU398
 1450 0070 236A     		ldr	r3, [r4, #32]
 806:Middlewares/Third_Party/FreeRTOS/Source/timers.c **** 						traceTIMER_EXPIRED( pxTimer );
 1451              		.loc 1 806 7 view .LVU399
 1452 0072 2046     		mov	r0, r4
 1453 0074 9847     		blx	r3
 1454              	.LVL120:
ARM GAS  /tmp/ccG38jLQ.s 			page 53


 807:Middlewares/Third_Party/FreeRTOS/Source/timers.c **** 
 1455              		.loc 1 807 36 is_stmt 1 view .LVU400
 809:Middlewares/Third_Party/FreeRTOS/Source/timers.c **** 						{
 1456              		.loc 1 809 7 view .LVU401
 809:Middlewares/Third_Party/FreeRTOS/Source/timers.c **** 						{
 1457              		.loc 1 809 20 is_stmt 0 view .LVU402
 1458 0076 94F82830 		ldrb	r3, [r4, #40]	@ zero_extendqisi2
 809:Middlewares/Third_Party/FreeRTOS/Source/timers.c **** 						{
 1459              		.loc 1 809 9 view .LVU403
 1460 007a 13F0040F 		tst	r3, #4
 1461 007e C5D0     		beq	.L101
 811:Middlewares/Third_Party/FreeRTOS/Source/timers.c **** 							configASSERT( xResult );
 1462              		.loc 1 811 8 is_stmt 1 view .LVU404
 811:Middlewares/Third_Party/FreeRTOS/Source/timers.c **** 							configASSERT( xResult );
 1463              		.loc 1 811 129 is_stmt 0 view .LVU405
 1464 0080 A269     		ldr	r2, [r4, #24]
 811:Middlewares/Third_Party/FreeRTOS/Source/timers.c **** 							configASSERT( xResult );
 1465              		.loc 1 811 18 view .LVU406
 1466 0082 0021     		movs	r1, #0
 1467 0084 0091     		str	r1, [sp]
 1468 0086 0B46     		mov	r3, r1
 1469 0088 0598     		ldr	r0, [sp, #20]
 1470 008a 0244     		add	r2, r2, r0
 1471 008c 2046     		mov	r0, r4
 1472 008e FFF7FEFF 		bl	xTimerGenericCommand
 1473              	.LVL121:
 812:Middlewares/Third_Party/FreeRTOS/Source/timers.c **** 							( void ) xResult;
 1474              		.loc 1 812 8 is_stmt 1 view .LVU407
 1475 0092 0028     		cmp	r0, #0
 1476 0094 BAD1     		bne	.L101
 812:Middlewares/Third_Party/FreeRTOS/Source/timers.c **** 							( void ) xResult;
 1477              		.loc 1 812 8 view .LVU408
 1478              	.LBB63:
 1479              	.LBI63:
 191:Middlewares/Third_Party/FreeRTOS/Source/portable/GCC/ARM_CM4F/portmacro.h **** {
 1480              		.loc 2 191 30 view .LVU409
 1481              	.LBB64:
 193:Middlewares/Third_Party/FreeRTOS/Source/portable/GCC/ARM_CM4F/portmacro.h **** 
 1482              		.loc 2 193 1 view .LVU410
 1483              		.loc 2 195 2 view .LVU411
 1484              		.syntax unified
 1485              	@ 195 "Middlewares/Third_Party/FreeRTOS/Source/portable/GCC/ARM_CM4F/portmacro.h" 1
 1486 0096 4FF05003 			mov r3, #80												
 1487 009a 83F31188 		msr basepri, r3											
 1488 009e BFF36F8F 		isb														
 1489 00a2 BFF34F8F 		dsb														
 1490              	
 1491              	@ 0 "" 2
 1492              	.LVL122:
 1493              		.thumb
 1494              		.syntax unified
 1495              	.L110:
 1496              		.loc 2 195 2 is_stmt 0 view .LVU412
 1497              	.LBE64:
 1498              	.LBE63:
 812:Middlewares/Third_Party/FreeRTOS/Source/timers.c **** 							( void ) xResult;
 1499              		.loc 1 812 8 is_stmt 1 discriminator 2 view .LVU413
ARM GAS  /tmp/ccG38jLQ.s 			page 54


 812:Middlewares/Third_Party/FreeRTOS/Source/timers.c **** 							( void ) xResult;
 1500              		.loc 1 812 8 discriminator 2 view .LVU414
 1501 00a6 FEE7     		b	.L110
 1502              	.LVL123:
 1503              	.L106:
 829:Middlewares/Third_Party/FreeRTOS/Source/timers.c **** 					break;
 1504              		.loc 1 829 6 view .LVU415
 829:Middlewares/Third_Party/FreeRTOS/Source/timers.c **** 					break;
 1505              		.loc 1 829 13 is_stmt 0 view .LVU416
 1506 00a8 94F82830 		ldrb	r3, [r4, #40]	@ zero_extendqisi2
 829:Middlewares/Third_Party/FreeRTOS/Source/timers.c **** 					break;
 1507              		.loc 1 829 24 view .LVU417
 1508 00ac 23F00103 		bic	r3, r3, #1
 1509 00b0 84F82830 		strb	r3, [r4, #40]
 830:Middlewares/Third_Party/FreeRTOS/Source/timers.c **** 
 1510              		.loc 1 830 6 is_stmt 1 view .LVU418
 1511 00b4 AAE7     		b	.L101
 1512              	.L104:
 834:Middlewares/Third_Party/FreeRTOS/Source/timers.c **** 					pxTimer->xTimerPeriodInTicks = xMessage.u.xTimerParameters.xMessageValue;
 1513              		.loc 1 834 6 view .LVU419
 834:Middlewares/Third_Party/FreeRTOS/Source/timers.c **** 					pxTimer->xTimerPeriodInTicks = xMessage.u.xTimerParameters.xMessageValue;
 1514              		.loc 1 834 13 is_stmt 0 view .LVU420
 1515 00b6 94F82830 		ldrb	r3, [r4, #40]	@ zero_extendqisi2
 834:Middlewares/Third_Party/FreeRTOS/Source/timers.c **** 					pxTimer->xTimerPeriodInTicks = xMessage.u.xTimerParameters.xMessageValue;
 1516              		.loc 1 834 24 view .LVU421
 1517 00ba 43F00103 		orr	r3, r3, #1
 1518 00be 84F82830 		strb	r3, [r4, #40]
 835:Middlewares/Third_Party/FreeRTOS/Source/timers.c **** 					configASSERT( ( pxTimer->xTimerPeriodInTicks > 0 ) );
 1519              		.loc 1 835 6 is_stmt 1 view .LVU422
 835:Middlewares/Third_Party/FreeRTOS/Source/timers.c **** 					configASSERT( ( pxTimer->xTimerPeriodInTicks > 0 ) );
 1520              		.loc 1 835 64 is_stmt 0 view .LVU423
 1521 00c2 0599     		ldr	r1, [sp, #20]
 835:Middlewares/Third_Party/FreeRTOS/Source/timers.c **** 					configASSERT( ( pxTimer->xTimerPeriodInTicks > 0 ) );
 1522              		.loc 1 835 35 view .LVU424
 1523 00c4 A161     		str	r1, [r4, #24]
 836:Middlewares/Third_Party/FreeRTOS/Source/timers.c **** 
 1524              		.loc 1 836 6 is_stmt 1 view .LVU425
 1525 00c6 31B1     		cbz	r1, .L119
 836:Middlewares/Third_Party/FreeRTOS/Source/timers.c **** 
 1526              		.loc 1 836 58 discriminator 2 view .LVU426
 844:Middlewares/Third_Party/FreeRTOS/Source/timers.c **** 					break;
 1527              		.loc 1 844 6 discriminator 2 view .LVU427
 844:Middlewares/Third_Party/FreeRTOS/Source/timers.c **** 					break;
 1528              		.loc 1 844 15 is_stmt 0 discriminator 2 view .LVU428
 1529 00c8 0346     		mov	r3, r0
 1530 00ca 0246     		mov	r2, r0
 1531 00cc 0144     		add	r1, r1, r0
 1532 00ce 2046     		mov	r0, r4
 1533              	.LVL124:
 844:Middlewares/Third_Party/FreeRTOS/Source/timers.c **** 					break;
 1534              		.loc 1 844 15 discriminator 2 view .LVU429
 1535 00d0 FFF7FEFF 		bl	prvInsertTimerInActiveList
 1536              	.LVL125:
 845:Middlewares/Third_Party/FreeRTOS/Source/timers.c **** 
 1537              		.loc 1 845 6 is_stmt 1 discriminator 2 view .LVU430
 1538 00d4 9AE7     		b	.L101
 1539              	.LVL126:
ARM GAS  /tmp/ccG38jLQ.s 			page 55


 1540              	.L119:
 836:Middlewares/Third_Party/FreeRTOS/Source/timers.c **** 
 1541              		.loc 1 836 6 view .LVU431
 1542              	.LBB65:
 1543              	.LBI65:
 191:Middlewares/Third_Party/FreeRTOS/Source/portable/GCC/ARM_CM4F/portmacro.h **** {
 1544              		.loc 2 191 30 view .LVU432
 1545              	.LBB66:
 193:Middlewares/Third_Party/FreeRTOS/Source/portable/GCC/ARM_CM4F/portmacro.h **** 
 1546              		.loc 2 193 1 view .LVU433
 1547              		.loc 2 195 2 view .LVU434
 1548              		.syntax unified
 1549              	@ 195 "Middlewares/Third_Party/FreeRTOS/Source/portable/GCC/ARM_CM4F/portmacro.h" 1
 1550 00d6 4FF05003 			mov r3, #80												
 1551 00da 83F31188 		msr basepri, r3											
 1552 00de BFF36F8F 		isb														
 1553 00e2 BFF34F8F 		dsb														
 1554              	
 1555              	@ 0 "" 2
 1556              	.LVL127:
 1557              		.thumb
 1558              		.syntax unified
 1559              	.L112:
 1560              		.loc 2 195 2 is_stmt 0 view .LVU435
 1561              	.LBE66:
 1562              	.LBE65:
 836:Middlewares/Third_Party/FreeRTOS/Source/timers.c **** 
 1563              		.loc 1 836 6 is_stmt 1 discriminator 5 view .LVU436
 836:Middlewares/Third_Party/FreeRTOS/Source/timers.c **** 
 1564              		.loc 1 836 6 discriminator 5 view .LVU437
 1565 00e6 FEE7     		b	.L112
 1566              	.L108:
 853:Middlewares/Third_Party/FreeRTOS/Source/timers.c **** 						{
 1567              		.loc 1 853 7 view .LVU438
 853:Middlewares/Third_Party/FreeRTOS/Source/timers.c **** 						{
 1568              		.loc 1 853 20 is_stmt 0 view .LVU439
 1569 00e8 94F82830 		ldrb	r3, [r4, #40]	@ zero_extendqisi2
 853:Middlewares/Third_Party/FreeRTOS/Source/timers.c **** 						{
 1570              		.loc 1 853 9 view .LVU440
 1571 00ec 13F0020F 		tst	r3, #2
 1572 00f0 04D0     		beq	.L120
 859:Middlewares/Third_Party/FreeRTOS/Source/timers.c **** 						}
 1573              		.loc 1 859 8 is_stmt 1 view .LVU441
 859:Middlewares/Third_Party/FreeRTOS/Source/timers.c **** 						}
 1574              		.loc 1 859 26 is_stmt 0 view .LVU442
 1575 00f2 23F00103 		bic	r3, r3, #1
 1576 00f6 84F82830 		strb	r3, [r4, #40]
 1577 00fa 87E7     		b	.L101
 1578              	.L120:
 855:Middlewares/Third_Party/FreeRTOS/Source/timers.c **** 						}
 1579              		.loc 1 855 8 is_stmt 1 view .LVU443
 1580 00fc 2046     		mov	r0, r4
 1581              	.LVL128:
 855:Middlewares/Third_Party/FreeRTOS/Source/timers.c **** 						}
 1582              		.loc 1 855 8 is_stmt 0 view .LVU444
 1583 00fe FFF7FEFF 		bl	vPortFree
 1584              	.LVL129:
ARM GAS  /tmp/ccG38jLQ.s 			page 56


 1585 0102 83E7     		b	.L101
 1586              	.LVL130:
 1587              	.L118:
 879:Middlewares/Third_Party/FreeRTOS/Source/timers.c **** /*-----------------------------------------------------------*/
 1588              		.loc 1 879 1 view .LVU445
 1589 0104 08B0     		add	sp, sp, #32
 1590              		.cfi_def_cfa_offset 8
 1591              		@ sp needed
 1592 0106 10BD     		pop	{r4, pc}
 1593              	.L122:
 1594              		.align	2
 1595              	.L121:
 1596 0108 00000000 		.word	xTimerQueue
 1597              		.cfi_endproc
 1598              	.LFE21:
 1600              		.section	.text.prvTimerTask,"ax",%progbits
 1601              		.align	1
 1602              		.syntax unified
 1603              		.thumb
 1604              		.thumb_func
 1606              	prvTimerTask:
 1607              	.LFB16:
 549:Middlewares/Third_Party/FreeRTOS/Source/timers.c **** TickType_t xNextExpireTime;
 1608              		.loc 1 549 1 is_stmt 1 view -0
 1609              		.cfi_startproc
 1610              		@ args = 0, pretend = 0, frame = 8
 1611              		@ frame_needed = 0, uses_anonymous_args = 0
 1612              	.LVL131:
 549:Middlewares/Third_Party/FreeRTOS/Source/timers.c **** TickType_t xNextExpireTime;
 1613              		.loc 1 549 1 is_stmt 0 view .LVU447
 1614 0000 00B5     		push	{lr}
 1615              		.cfi_def_cfa_offset 4
 1616              		.cfi_offset 14, -4
 1617 0002 83B0     		sub	sp, sp, #12
 1618              		.cfi_def_cfa_offset 16
 1619              	.LVL132:
 1620              	.L124:
 550:Middlewares/Third_Party/FreeRTOS/Source/timers.c **** BaseType_t xListWasEmpty;
 1621              		.loc 1 550 1 is_stmt 1 discriminator 1 view .LVU448
 551:Middlewares/Third_Party/FreeRTOS/Source/timers.c **** 
 1622              		.loc 1 551 1 discriminator 1 view .LVU449
 554:Middlewares/Third_Party/FreeRTOS/Source/timers.c **** 
 1623              		.loc 1 554 2 discriminator 1 view .LVU450
 568:Middlewares/Third_Party/FreeRTOS/Source/timers.c **** 	{
 1624              		.loc 1 568 2 discriminator 1 view .LVU451
 572:Middlewares/Third_Party/FreeRTOS/Source/timers.c **** 
 1625              		.loc 1 572 3 discriminator 1 view .LVU452
 572:Middlewares/Third_Party/FreeRTOS/Source/timers.c **** 
 1626              		.loc 1 572 21 is_stmt 0 discriminator 1 view .LVU453
 1627 0004 01A8     		add	r0, sp, #4
 1628 0006 FFF7FEFF 		bl	prvGetNextExpireTime
 1629              	.LVL133:
 576:Middlewares/Third_Party/FreeRTOS/Source/timers.c **** 
 1630              		.loc 1 576 3 is_stmt 1 discriminator 1 view .LVU454
 1631 000a 0199     		ldr	r1, [sp, #4]
 1632 000c FFF7FEFF 		bl	prvProcessTimerOrBlockTask
 1633              	.LVL134:
ARM GAS  /tmp/ccG38jLQ.s 			page 57


 579:Middlewares/Third_Party/FreeRTOS/Source/timers.c **** 	}
 1634              		.loc 1 579 3 discriminator 1 view .LVU455
 1635 0010 FFF7FEFF 		bl	prvProcessReceivedCommands
 1636              	.LVL135:
 568:Middlewares/Third_Party/FreeRTOS/Source/timers.c **** 	{
 1637              		.loc 1 568 2 discriminator 1 view .LVU456
 1638 0014 F6E7     		b	.L124
 1639              		.cfi_endproc
 1640              	.LFE16:
 1642              		.section	.text.xTimerGetTimerDaemonTaskHandle,"ax",%progbits
 1643              		.align	1
 1644              		.global	xTimerGetTimerDaemonTaskHandle
 1645              		.syntax unified
 1646              		.thumb
 1647              		.thumb_func
 1649              	xTimerGetTimerDaemonTaskHandle:
 1650              	.LFB9:
 425:Middlewares/Third_Party/FreeRTOS/Source/timers.c **** 	/* If xTimerGetTimerDaemonTaskHandle() is called before the scheduler has been
 1651              		.loc 1 425 1 view -0
 1652              		.cfi_startproc
 1653              		@ args = 0, pretend = 0, frame = 0
 1654              		@ frame_needed = 0, uses_anonymous_args = 0
 1655              		@ link register save eliminated.
 428:Middlewares/Third_Party/FreeRTOS/Source/timers.c **** 	return xTimerTaskHandle;
 1656              		.loc 1 428 2 view .LVU458
 1657 0000 064B     		ldr	r3, .L130
 1658 0002 1868     		ldr	r0, [r3]
 1659 0004 00B1     		cbz	r0, .L129
 430:Middlewares/Third_Party/FreeRTOS/Source/timers.c **** /*-----------------------------------------------------------*/
 1660              		.loc 1 430 1 is_stmt 0 view .LVU459
 1661 0006 7047     		bx	lr
 1662              	.L129:
 428:Middlewares/Third_Party/FreeRTOS/Source/timers.c **** 	return xTimerTaskHandle;
 1663              		.loc 1 428 2 is_stmt 1 view .LVU460
 1664              	.LBB67:
 1665              	.LBI67:
 191:Middlewares/Third_Party/FreeRTOS/Source/portable/GCC/ARM_CM4F/portmacro.h **** {
 1666              		.loc 2 191 30 view .LVU461
 1667              	.LBB68:
 193:Middlewares/Third_Party/FreeRTOS/Source/portable/GCC/ARM_CM4F/portmacro.h **** 
 1668              		.loc 2 193 1 view .LVU462
 1669              		.loc 2 195 2 view .LVU463
 1670              		.syntax unified
 1671              	@ 195 "Middlewares/Third_Party/FreeRTOS/Source/portable/GCC/ARM_CM4F/portmacro.h" 1
 1672 0008 4FF05003 			mov r3, #80												
 1673 000c 83F31188 		msr basepri, r3											
 1674 0010 BFF36F8F 		isb														
 1675 0014 BFF34F8F 		dsb														
 1676              	
 1677              	@ 0 "" 2
 1678              	.LVL136:
 1679              		.thumb
 1680              		.syntax unified
 1681              	.L128:
 1682              		.loc 2 195 2 is_stmt 0 view .LVU464
 1683              	.LBE68:
 1684              	.LBE67:
ARM GAS  /tmp/ccG38jLQ.s 			page 58


 428:Middlewares/Third_Party/FreeRTOS/Source/timers.c **** 	return xTimerTaskHandle;
 1685              		.loc 1 428 2 is_stmt 1 discriminator 1 view .LVU465
 428:Middlewares/Third_Party/FreeRTOS/Source/timers.c **** 	return xTimerTaskHandle;
 1686              		.loc 1 428 2 discriminator 1 view .LVU466
 1687 0018 FEE7     		b	.L128
 1688              	.L131:
 1689 001a 00BF     		.align	2
 1690              	.L130:
 1691 001c 00000000 		.word	xTimerTaskHandle
 1692              		.cfi_endproc
 1693              	.LFE9:
 1695              		.section	.text.xTimerGetPeriod,"ax",%progbits
 1696              		.align	1
 1697              		.global	xTimerGetPeriod
 1698              		.syntax unified
 1699              		.thumb
 1700              		.thumb_func
 1702              	xTimerGetPeriod:
 1703              	.LVL137:
 1704              	.LFB10:
 434:Middlewares/Third_Party/FreeRTOS/Source/timers.c **** Timer_t *pxTimer = xTimer;
 1705              		.loc 1 434 1 view -0
 1706              		.cfi_startproc
 1707              		@ args = 0, pretend = 0, frame = 0
 1708              		@ frame_needed = 0, uses_anonymous_args = 0
 1709              		@ link register save eliminated.
 435:Middlewares/Third_Party/FreeRTOS/Source/timers.c **** 
 1710              		.loc 1 435 1 view .LVU468
 437:Middlewares/Third_Party/FreeRTOS/Source/timers.c **** 	return pxTimer->xTimerPeriodInTicks;
 1711              		.loc 1 437 2 view .LVU469
 1712 0000 08B1     		cbz	r0, .L135
 437:Middlewares/Third_Party/FreeRTOS/Source/timers.c **** 	return pxTimer->xTimerPeriodInTicks;
 1713              		.loc 1 437 24 discriminator 2 view .LVU470
 438:Middlewares/Third_Party/FreeRTOS/Source/timers.c **** }
 1714              		.loc 1 438 2 discriminator 2 view .LVU471
 439:Middlewares/Third_Party/FreeRTOS/Source/timers.c **** /*-----------------------------------------------------------*/
 1715              		.loc 1 439 1 is_stmt 0 discriminator 2 view .LVU472
 1716 0002 8069     		ldr	r0, [r0, #24]
 1717              	.LVL138:
 439:Middlewares/Third_Party/FreeRTOS/Source/timers.c **** /*-----------------------------------------------------------*/
 1718              		.loc 1 439 1 discriminator 2 view .LVU473
 1719 0004 7047     		bx	lr
 1720              	.LVL139:
 1721              	.L135:
 437:Middlewares/Third_Party/FreeRTOS/Source/timers.c **** 	return pxTimer->xTimerPeriodInTicks;
 1722              		.loc 1 437 2 is_stmt 1 view .LVU474
 1723              	.LBB69:
 1724              	.LBI69:
 191:Middlewares/Third_Party/FreeRTOS/Source/portable/GCC/ARM_CM4F/portmacro.h **** {
 1725              		.loc 2 191 30 view .LVU475
 1726              	.LBB70:
 193:Middlewares/Third_Party/FreeRTOS/Source/portable/GCC/ARM_CM4F/portmacro.h **** 
 1727              		.loc 2 193 1 view .LVU476
 1728              		.loc 2 195 2 view .LVU477
 1729              		.syntax unified
 1730              	@ 195 "Middlewares/Third_Party/FreeRTOS/Source/portable/GCC/ARM_CM4F/portmacro.h" 1
 1731 0006 4FF05003 			mov r3, #80												
ARM GAS  /tmp/ccG38jLQ.s 			page 59


 1732 000a 83F31188 		msr basepri, r3											
 1733 000e BFF36F8F 		isb														
 1734 0012 BFF34F8F 		dsb														
 1735              	
 1736              	@ 0 "" 2
 1737              	.LVL140:
 1738              		.thumb
 1739              		.syntax unified
 1740              	.L134:
 1741              		.loc 2 195 2 is_stmt 0 view .LVU478
 1742              	.LBE70:
 1743              	.LBE69:
 437:Middlewares/Third_Party/FreeRTOS/Source/timers.c **** 	return pxTimer->xTimerPeriodInTicks;
 1744              		.loc 1 437 2 is_stmt 1 discriminator 1 view .LVU479
 437:Middlewares/Third_Party/FreeRTOS/Source/timers.c **** 	return pxTimer->xTimerPeriodInTicks;
 1745              		.loc 1 437 2 discriminator 1 view .LVU480
 1746 0016 FEE7     		b	.L134
 1747              		.cfi_endproc
 1748              	.LFE10:
 1750              		.section	.text.vTimerSetReloadMode,"ax",%progbits
 1751              		.align	1
 1752              		.global	vTimerSetReloadMode
 1753              		.syntax unified
 1754              		.thumb
 1755              		.thumb_func
 1757              	vTimerSetReloadMode:
 1758              	.LVL141:
 1759              	.LFB11:
 443:Middlewares/Third_Party/FreeRTOS/Source/timers.c **** Timer_t * pxTimer =  xTimer;
 1760              		.loc 1 443 1 view -0
 1761              		.cfi_startproc
 1762              		@ args = 0, pretend = 0, frame = 0
 1763              		@ frame_needed = 0, uses_anonymous_args = 0
 443:Middlewares/Third_Party/FreeRTOS/Source/timers.c **** Timer_t * pxTimer =  xTimer;
 1764              		.loc 1 443 1 is_stmt 0 view .LVU482
 1765 0000 38B5     		push	{r3, r4, r5, lr}
 1766              		.cfi_def_cfa_offset 16
 1767              		.cfi_offset 3, -16
 1768              		.cfi_offset 4, -12
 1769              		.cfi_offset 5, -8
 1770              		.cfi_offset 14, -4
 444:Middlewares/Third_Party/FreeRTOS/Source/timers.c **** 
 1771              		.loc 1 444 1 is_stmt 1 view .LVU483
 1772              	.LVL142:
 446:Middlewares/Third_Party/FreeRTOS/Source/timers.c **** 	taskENTER_CRITICAL();
 1773              		.loc 1 446 2 view .LVU484
 1774 0002 68B1     		cbz	r0, .L142
 1775 0004 0C46     		mov	r4, r1
 1776 0006 0546     		mov	r5, r0
 446:Middlewares/Third_Party/FreeRTOS/Source/timers.c **** 	taskENTER_CRITICAL();
 1777              		.loc 1 446 24 discriminator 2 view .LVU485
 447:Middlewares/Third_Party/FreeRTOS/Source/timers.c **** 	{
 1778              		.loc 1 447 2 discriminator 2 view .LVU486
 1779 0008 FFF7FEFF 		bl	vPortEnterCritical
 1780              	.LVL143:
 449:Middlewares/Third_Party/FreeRTOS/Source/timers.c **** 		{
 1781              		.loc 1 449 3 discriminator 2 view .LVU487
ARM GAS  /tmp/ccG38jLQ.s 			page 60


 449:Middlewares/Third_Party/FreeRTOS/Source/timers.c **** 		{
 1782              		.loc 1 449 5 is_stmt 0 discriminator 2 view .LVU488
 1783 000c 8CB1     		cbz	r4, .L139
 451:Middlewares/Third_Party/FreeRTOS/Source/timers.c **** 		}
 1784              		.loc 1 451 4 is_stmt 1 view .LVU489
 451:Middlewares/Third_Party/FreeRTOS/Source/timers.c **** 		}
 1785              		.loc 1 451 11 is_stmt 0 view .LVU490
 1786 000e 95F82830 		ldrb	r3, [r5, #40]	@ zero_extendqisi2
 451:Middlewares/Third_Party/FreeRTOS/Source/timers.c **** 		}
 1787              		.loc 1 451 22 view .LVU491
 1788 0012 43F00403 		orr	r3, r3, #4
 1789 0016 85F82830 		strb	r3, [r5, #40]
 1790              	.L140:
 458:Middlewares/Third_Party/FreeRTOS/Source/timers.c **** }
 1791              		.loc 1 458 2 is_stmt 1 view .LVU492
 1792 001a FFF7FEFF 		bl	vPortExitCritical
 1793              	.LVL144:
 459:Middlewares/Third_Party/FreeRTOS/Source/timers.c **** /*-----------------------------------------------------------*/
 1794              		.loc 1 459 1 is_stmt 0 view .LVU493
 1795 001e 38BD     		pop	{r3, r4, r5, pc}
 1796              	.LVL145:
 1797              	.L142:
 446:Middlewares/Third_Party/FreeRTOS/Source/timers.c **** 	taskENTER_CRITICAL();
 1798              		.loc 1 446 2 is_stmt 1 view .LVU494
 1799              	.LBB71:
 1800              	.LBI71:
 191:Middlewares/Third_Party/FreeRTOS/Source/portable/GCC/ARM_CM4F/portmacro.h **** {
 1801              		.loc 2 191 30 view .LVU495
 1802              	.LBB72:
 193:Middlewares/Third_Party/FreeRTOS/Source/portable/GCC/ARM_CM4F/portmacro.h **** 
 1803              		.loc 2 193 1 view .LVU496
 1804              		.loc 2 195 2 view .LVU497
 1805              		.syntax unified
 1806              	@ 195 "Middlewares/Third_Party/FreeRTOS/Source/portable/GCC/ARM_CM4F/portmacro.h" 1
 1807 0020 4FF05003 			mov r3, #80												
 1808 0024 83F31188 		msr basepri, r3											
 1809 0028 BFF36F8F 		isb														
 1810 002c BFF34F8F 		dsb														
 1811              	
 1812              	@ 0 "" 2
 1813              	.LVL146:
 1814              		.thumb
 1815              		.syntax unified
 1816              	.L138:
 1817              		.loc 2 195 2 is_stmt 0 view .LVU498
 1818              	.LBE72:
 1819              	.LBE71:
 446:Middlewares/Third_Party/FreeRTOS/Source/timers.c **** 	taskENTER_CRITICAL();
 1820              		.loc 1 446 2 is_stmt 1 discriminator 1 view .LVU499
 446:Middlewares/Third_Party/FreeRTOS/Source/timers.c **** 	taskENTER_CRITICAL();
 1821              		.loc 1 446 2 discriminator 1 view .LVU500
 1822 0030 FEE7     		b	.L138
 1823              	.LVL147:
 1824              	.L139:
 455:Middlewares/Third_Party/FreeRTOS/Source/timers.c **** 		}
 1825              		.loc 1 455 4 view .LVU501
 455:Middlewares/Third_Party/FreeRTOS/Source/timers.c **** 		}
ARM GAS  /tmp/ccG38jLQ.s 			page 61


 1826              		.loc 1 455 11 is_stmt 0 view .LVU502
 1827 0032 95F82830 		ldrb	r3, [r5, #40]	@ zero_extendqisi2
 455:Middlewares/Third_Party/FreeRTOS/Source/timers.c **** 		}
 1828              		.loc 1 455 22 view .LVU503
 1829 0036 23F00403 		bic	r3, r3, #4
 1830 003a 85F82830 		strb	r3, [r5, #40]
 1831 003e ECE7     		b	.L140
 1832              		.cfi_endproc
 1833              	.LFE11:
 1835              		.section	.text.uxTimerGetReloadMode,"ax",%progbits
 1836              		.align	1
 1837              		.global	uxTimerGetReloadMode
 1838              		.syntax unified
 1839              		.thumb
 1840              		.thumb_func
 1842              	uxTimerGetReloadMode:
 1843              	.LVL148:
 1844              	.LFB12:
 463:Middlewares/Third_Party/FreeRTOS/Source/timers.c **** Timer_t * pxTimer =  xTimer;
 1845              		.loc 1 463 1 is_stmt 1 view -0
 1846              		.cfi_startproc
 1847              		@ args = 0, pretend = 0, frame = 0
 1848              		@ frame_needed = 0, uses_anonymous_args = 0
 464:Middlewares/Third_Party/FreeRTOS/Source/timers.c **** UBaseType_t uxReturn;
 1849              		.loc 1 464 1 view .LVU505
 465:Middlewares/Third_Party/FreeRTOS/Source/timers.c **** 
 1850              		.loc 1 465 1 view .LVU506
 467:Middlewares/Third_Party/FreeRTOS/Source/timers.c **** 	taskENTER_CRITICAL();
 1851              		.loc 1 467 2 view .LVU507
 1852 0000 68B1     		cbz	r0, .L150
 463:Middlewares/Third_Party/FreeRTOS/Source/timers.c **** Timer_t * pxTimer =  xTimer;
 1853              		.loc 1 463 1 is_stmt 0 discriminator 2 view .LVU508
 1854 0002 10B5     		push	{r4, lr}
 1855              		.cfi_def_cfa_offset 8
 1856              		.cfi_offset 4, -8
 1857              		.cfi_offset 14, -4
 1858 0004 0446     		mov	r4, r0
 467:Middlewares/Third_Party/FreeRTOS/Source/timers.c **** 	taskENTER_CRITICAL();
 1859              		.loc 1 467 24 is_stmt 1 discriminator 2 view .LVU509
 468:Middlewares/Third_Party/FreeRTOS/Source/timers.c **** 	{
 1860              		.loc 1 468 2 discriminator 2 view .LVU510
 1861 0006 FFF7FEFF 		bl	vPortEnterCritical
 1862              	.LVL149:
 470:Middlewares/Third_Party/FreeRTOS/Source/timers.c **** 		{
 1863              		.loc 1 470 3 discriminator 2 view .LVU511
 470:Middlewares/Third_Party/FreeRTOS/Source/timers.c **** 		{
 1864              		.loc 1 470 16 is_stmt 0 discriminator 2 view .LVU512
 1865 000a 94F82830 		ldrb	r3, [r4, #40]	@ zero_extendqisi2
 470:Middlewares/Third_Party/FreeRTOS/Source/timers.c **** 		{
 1866              		.loc 1 470 5 discriminator 2 view .LVU513
 1867 000e 13F0040F 		tst	r3, #4
 1868 0012 0DD1     		bne	.L147
 473:Middlewares/Third_Party/FreeRTOS/Source/timers.c **** 		}
 1869              		.loc 1 473 13 view .LVU514
 1870 0014 0024     		movs	r4, #0
 1871              	.LVL150:
 1872              	.L146:
ARM GAS  /tmp/ccG38jLQ.s 			page 62


 481:Middlewares/Third_Party/FreeRTOS/Source/timers.c **** 
 1873              		.loc 1 481 2 is_stmt 1 view .LVU515
 1874 0016 FFF7FEFF 		bl	vPortExitCritical
 1875              	.LVL151:
 483:Middlewares/Third_Party/FreeRTOS/Source/timers.c **** }
 1876              		.loc 1 483 2 view .LVU516
 484:Middlewares/Third_Party/FreeRTOS/Source/timers.c **** /*-----------------------------------------------------------*/
 1877              		.loc 1 484 1 is_stmt 0 view .LVU517
 1878 001a 2046     		mov	r0, r4
 1879 001c 10BD     		pop	{r4, pc}
 1880              	.LVL152:
 1881              	.L150:
 1882              		.cfi_def_cfa_offset 0
 1883              		.cfi_restore 4
 1884              		.cfi_restore 14
 467:Middlewares/Third_Party/FreeRTOS/Source/timers.c **** 	taskENTER_CRITICAL();
 1885              		.loc 1 467 2 is_stmt 1 view .LVU518
 1886              	.LBB73:
 1887              	.LBI73:
 191:Middlewares/Third_Party/FreeRTOS/Source/portable/GCC/ARM_CM4F/portmacro.h **** {
 1888              		.loc 2 191 30 view .LVU519
 1889              	.LBB74:
 193:Middlewares/Third_Party/FreeRTOS/Source/portable/GCC/ARM_CM4F/portmacro.h **** 
 1890              		.loc 2 193 1 view .LVU520
 1891              		.loc 2 195 2 view .LVU521
 1892              		.syntax unified
 1893              	@ 195 "Middlewares/Third_Party/FreeRTOS/Source/portable/GCC/ARM_CM4F/portmacro.h" 1
 1894 001e 4FF05003 			mov r3, #80												
 1895 0022 83F31188 		msr basepri, r3											
 1896 0026 BFF36F8F 		isb														
 1897 002a BFF34F8F 		dsb														
 1898              	
 1899              	@ 0 "" 2
 1900              	.LVL153:
 1901              		.thumb
 1902              		.syntax unified
 1903              	.L145:
 1904              		.loc 2 195 2 is_stmt 0 view .LVU522
 1905              	.LBE74:
 1906              	.LBE73:
 467:Middlewares/Third_Party/FreeRTOS/Source/timers.c **** 	taskENTER_CRITICAL();
 1907              		.loc 1 467 2 is_stmt 1 discriminator 1 view .LVU523
 467:Middlewares/Third_Party/FreeRTOS/Source/timers.c **** 	taskENTER_CRITICAL();
 1908              		.loc 1 467 2 discriminator 1 view .LVU524
 1909 002e FEE7     		b	.L145
 1910              	.LVL154:
 1911              	.L147:
 1912              		.cfi_def_cfa_offset 8
 1913              		.cfi_offset 4, -8
 1914              		.cfi_offset 14, -4
 478:Middlewares/Third_Party/FreeRTOS/Source/timers.c **** 		}
 1915              		.loc 1 478 13 is_stmt 0 view .LVU525
 1916 0030 0124     		movs	r4, #1
 1917              	.LVL155:
 478:Middlewares/Third_Party/FreeRTOS/Source/timers.c **** 		}
 1918              		.loc 1 478 13 view .LVU526
 1919 0032 F0E7     		b	.L146
ARM GAS  /tmp/ccG38jLQ.s 			page 63


 1920              		.cfi_endproc
 1921              	.LFE12:
 1923              		.section	.text.xTimerGetExpiryTime,"ax",%progbits
 1924              		.align	1
 1925              		.global	xTimerGetExpiryTime
 1926              		.syntax unified
 1927              		.thumb
 1928              		.thumb_func
 1930              	xTimerGetExpiryTime:
 1931              	.LVL156:
 1932              	.LFB13:
 488:Middlewares/Third_Party/FreeRTOS/Source/timers.c **** Timer_t * pxTimer =  xTimer;
 1933              		.loc 1 488 1 is_stmt 1 view -0
 1934              		.cfi_startproc
 1935              		@ args = 0, pretend = 0, frame = 0
 1936              		@ frame_needed = 0, uses_anonymous_args = 0
 1937              		@ link register save eliminated.
 489:Middlewares/Third_Party/FreeRTOS/Source/timers.c **** TickType_t xReturn;
 1938              		.loc 1 489 1 view .LVU528
 490:Middlewares/Third_Party/FreeRTOS/Source/timers.c **** 
 1939              		.loc 1 490 1 view .LVU529
 492:Middlewares/Third_Party/FreeRTOS/Source/timers.c **** 	xReturn = listGET_LIST_ITEM_VALUE( &( pxTimer->xTimerListItem ) );
 1940              		.loc 1 492 2 view .LVU530
 1941 0000 08B1     		cbz	r0, .L154
 492:Middlewares/Third_Party/FreeRTOS/Source/timers.c **** 	xReturn = listGET_LIST_ITEM_VALUE( &( pxTimer->xTimerListItem ) );
 1942              		.loc 1 492 24 discriminator 2 view .LVU531
 493:Middlewares/Third_Party/FreeRTOS/Source/timers.c **** 	return xReturn;
 1943              		.loc 1 493 2 discriminator 2 view .LVU532
 1944              	.LVL157:
 494:Middlewares/Third_Party/FreeRTOS/Source/timers.c **** }
 1945              		.loc 1 494 2 discriminator 2 view .LVU533
 495:Middlewares/Third_Party/FreeRTOS/Source/timers.c **** /*-----------------------------------------------------------*/
 1946              		.loc 1 495 1 is_stmt 0 discriminator 2 view .LVU534
 1947 0002 4068     		ldr	r0, [r0, #4]
 1948              	.LVL158:
 495:Middlewares/Third_Party/FreeRTOS/Source/timers.c **** /*-----------------------------------------------------------*/
 1949              		.loc 1 495 1 discriminator 2 view .LVU535
 1950 0004 7047     		bx	lr
 1951              	.LVL159:
 1952              	.L154:
 492:Middlewares/Third_Party/FreeRTOS/Source/timers.c **** 	xReturn = listGET_LIST_ITEM_VALUE( &( pxTimer->xTimerListItem ) );
 1953              		.loc 1 492 2 is_stmt 1 view .LVU536
 1954              	.LBB75:
 1955              	.LBI75:
 191:Middlewares/Third_Party/FreeRTOS/Source/portable/GCC/ARM_CM4F/portmacro.h **** {
 1956              		.loc 2 191 30 view .LVU537
 1957              	.LBB76:
 193:Middlewares/Third_Party/FreeRTOS/Source/portable/GCC/ARM_CM4F/portmacro.h **** 
 1958              		.loc 2 193 1 view .LVU538
 1959              		.loc 2 195 2 view .LVU539
 1960              		.syntax unified
 1961              	@ 195 "Middlewares/Third_Party/FreeRTOS/Source/portable/GCC/ARM_CM4F/portmacro.h" 1
 1962 0006 4FF05003 			mov r3, #80												
 1963 000a 83F31188 		msr basepri, r3											
 1964 000e BFF36F8F 		isb														
 1965 0012 BFF34F8F 		dsb														
 1966              	
ARM GAS  /tmp/ccG38jLQ.s 			page 64


 1967              	@ 0 "" 2
 1968              	.LVL160:
 1969              		.thumb
 1970              		.syntax unified
 1971              	.L153:
 1972              		.loc 2 195 2 is_stmt 0 view .LVU540
 1973              	.LBE76:
 1974              	.LBE75:
 492:Middlewares/Third_Party/FreeRTOS/Source/timers.c **** 	xReturn = listGET_LIST_ITEM_VALUE( &( pxTimer->xTimerListItem ) );
 1975              		.loc 1 492 2 is_stmt 1 discriminator 1 view .LVU541
 492:Middlewares/Third_Party/FreeRTOS/Source/timers.c **** 	xReturn = listGET_LIST_ITEM_VALUE( &( pxTimer->xTimerListItem ) );
 1976              		.loc 1 492 2 discriminator 1 view .LVU542
 1977 0016 FEE7     		b	.L153
 1978              		.cfi_endproc
 1979              	.LFE13:
 1981              		.section	.text.pcTimerGetName,"ax",%progbits
 1982              		.align	1
 1983              		.global	pcTimerGetName
 1984              		.syntax unified
 1985              		.thumb
 1986              		.thumb_func
 1988              	pcTimerGetName:
 1989              	.LVL161:
 1990              	.LFB14:
 499:Middlewares/Third_Party/FreeRTOS/Source/timers.c **** Timer_t *pxTimer = xTimer;
 1991              		.loc 1 499 1 view -0
 1992              		.cfi_startproc
 1993              		@ args = 0, pretend = 0, frame = 0
 1994              		@ frame_needed = 0, uses_anonymous_args = 0
 1995              		@ link register save eliminated.
 500:Middlewares/Third_Party/FreeRTOS/Source/timers.c **** 
 1996              		.loc 1 500 1 view .LVU544
 502:Middlewares/Third_Party/FreeRTOS/Source/timers.c **** 	return pxTimer->pcTimerName;
 1997              		.loc 1 502 2 view .LVU545
 1998 0000 08B1     		cbz	r0, .L158
 502:Middlewares/Third_Party/FreeRTOS/Source/timers.c **** 	return pxTimer->pcTimerName;
 1999              		.loc 1 502 24 discriminator 2 view .LVU546
 503:Middlewares/Third_Party/FreeRTOS/Source/timers.c **** }
 2000              		.loc 1 503 2 discriminator 2 view .LVU547
 504:Middlewares/Third_Party/FreeRTOS/Source/timers.c **** /*-----------------------------------------------------------*/
 2001              		.loc 1 504 1 is_stmt 0 discriminator 2 view .LVU548
 2002 0002 0068     		ldr	r0, [r0]
 2003              	.LVL162:
 504:Middlewares/Third_Party/FreeRTOS/Source/timers.c **** /*-----------------------------------------------------------*/
 2004              		.loc 1 504 1 discriminator 2 view .LVU549
 2005 0004 7047     		bx	lr
 2006              	.LVL163:
 2007              	.L158:
 502:Middlewares/Third_Party/FreeRTOS/Source/timers.c **** 	return pxTimer->pcTimerName;
 2008              		.loc 1 502 2 is_stmt 1 view .LVU550
 2009              	.LBB77:
 2010              	.LBI77:
 191:Middlewares/Third_Party/FreeRTOS/Source/portable/GCC/ARM_CM4F/portmacro.h **** {
 2011              		.loc 2 191 30 view .LVU551
 2012              	.LBB78:
 193:Middlewares/Third_Party/FreeRTOS/Source/portable/GCC/ARM_CM4F/portmacro.h **** 
 2013              		.loc 2 193 1 view .LVU552
ARM GAS  /tmp/ccG38jLQ.s 			page 65


 2014              		.loc 2 195 2 view .LVU553
 2015              		.syntax unified
 2016              	@ 195 "Middlewares/Third_Party/FreeRTOS/Source/portable/GCC/ARM_CM4F/portmacro.h" 1
 2017 0006 4FF05003 			mov r3, #80												
 2018 000a 83F31188 		msr basepri, r3											
 2019 000e BFF36F8F 		isb														
 2020 0012 BFF34F8F 		dsb														
 2021              	
 2022              	@ 0 "" 2
 2023              	.LVL164:
 2024              		.thumb
 2025              		.syntax unified
 2026              	.L157:
 2027              		.loc 2 195 2 is_stmt 0 view .LVU554
 2028              	.LBE78:
 2029              	.LBE77:
 502:Middlewares/Third_Party/FreeRTOS/Source/timers.c **** 	return pxTimer->pcTimerName;
 2030              		.loc 1 502 2 is_stmt 1 discriminator 1 view .LVU555
 502:Middlewares/Third_Party/FreeRTOS/Source/timers.c **** 	return pxTimer->pcTimerName;
 2031              		.loc 1 502 2 discriminator 1 view .LVU556
 2032 0016 FEE7     		b	.L157
 2033              		.cfi_endproc
 2034              	.LFE14:
 2036              		.section	.text.xTimerIsTimerActive,"ax",%progbits
 2037              		.align	1
 2038              		.global	xTimerIsTimerActive
 2039              		.syntax unified
 2040              		.thumb
 2041              		.thumb_func
 2043              	xTimerIsTimerActive:
 2044              	.LVL165:
 2045              	.LFB24:
 990:Middlewares/Third_Party/FreeRTOS/Source/timers.c **** /*-----------------------------------------------------------*/
 991:Middlewares/Third_Party/FreeRTOS/Source/timers.c **** 
 992:Middlewares/Third_Party/FreeRTOS/Source/timers.c **** BaseType_t xTimerIsTimerActive( TimerHandle_t xTimer )
 993:Middlewares/Third_Party/FreeRTOS/Source/timers.c **** {
 2046              		.loc 1 993 1 view -0
 2047              		.cfi_startproc
 2048              		@ args = 0, pretend = 0, frame = 0
 2049              		@ frame_needed = 0, uses_anonymous_args = 0
 994:Middlewares/Third_Party/FreeRTOS/Source/timers.c **** BaseType_t xReturn;
 2050              		.loc 1 994 1 view .LVU558
 995:Middlewares/Third_Party/FreeRTOS/Source/timers.c **** Timer_t *pxTimer = xTimer;
 2051              		.loc 1 995 1 view .LVU559
 996:Middlewares/Third_Party/FreeRTOS/Source/timers.c **** 
 997:Middlewares/Third_Party/FreeRTOS/Source/timers.c **** 	configASSERT( xTimer );
 2052              		.loc 1 997 2 view .LVU560
 2053 0000 68B1     		cbz	r0, .L166
 993:Middlewares/Third_Party/FreeRTOS/Source/timers.c **** BaseType_t xReturn;
 2054              		.loc 1 993 1 is_stmt 0 discriminator 2 view .LVU561
 2055 0002 10B5     		push	{r4, lr}
 2056              		.cfi_def_cfa_offset 8
 2057              		.cfi_offset 4, -8
 2058              		.cfi_offset 14, -4
 2059 0004 0446     		mov	r4, r0
 2060              		.loc 1 997 24 is_stmt 1 discriminator 2 view .LVU562
 998:Middlewares/Third_Party/FreeRTOS/Source/timers.c **** 
ARM GAS  /tmp/ccG38jLQ.s 			page 66


 999:Middlewares/Third_Party/FreeRTOS/Source/timers.c **** 	/* Is the timer in the list of active timers? */
1000:Middlewares/Third_Party/FreeRTOS/Source/timers.c **** 	taskENTER_CRITICAL();
 2061              		.loc 1 1000 2 discriminator 2 view .LVU563
 2062 0006 FFF7FEFF 		bl	vPortEnterCritical
 2063              	.LVL166:
1001:Middlewares/Third_Party/FreeRTOS/Source/timers.c **** 	{
1002:Middlewares/Third_Party/FreeRTOS/Source/timers.c **** 		if( ( pxTimer->ucStatus & tmrSTATUS_IS_ACTIVE ) == 0 )
 2064              		.loc 1 1002 3 discriminator 2 view .LVU564
 2065              		.loc 1 1002 16 is_stmt 0 discriminator 2 view .LVU565
 2066 000a 94F82830 		ldrb	r3, [r4, #40]	@ zero_extendqisi2
 2067              		.loc 1 1002 5 discriminator 2 view .LVU566
 2068 000e 13F0010F 		tst	r3, #1
 2069 0012 0DD1     		bne	.L163
1003:Middlewares/Third_Party/FreeRTOS/Source/timers.c **** 		{
1004:Middlewares/Third_Party/FreeRTOS/Source/timers.c **** 			xReturn = pdFALSE;
 2070              		.loc 1 1004 12 view .LVU567
 2071 0014 0024     		movs	r4, #0
 2072              	.LVL167:
 2073              	.L162:
1005:Middlewares/Third_Party/FreeRTOS/Source/timers.c **** 		}
1006:Middlewares/Third_Party/FreeRTOS/Source/timers.c **** 		else
1007:Middlewares/Third_Party/FreeRTOS/Source/timers.c **** 		{
1008:Middlewares/Third_Party/FreeRTOS/Source/timers.c **** 			xReturn = pdTRUE;
1009:Middlewares/Third_Party/FreeRTOS/Source/timers.c **** 		}
1010:Middlewares/Third_Party/FreeRTOS/Source/timers.c **** 	}
1011:Middlewares/Third_Party/FreeRTOS/Source/timers.c **** 	taskEXIT_CRITICAL();
 2074              		.loc 1 1011 2 is_stmt 1 view .LVU568
 2075 0016 FFF7FEFF 		bl	vPortExitCritical
 2076              	.LVL168:
1012:Middlewares/Third_Party/FreeRTOS/Source/timers.c **** 
1013:Middlewares/Third_Party/FreeRTOS/Source/timers.c **** 	return xReturn;
 2077              		.loc 1 1013 2 view .LVU569
1014:Middlewares/Third_Party/FreeRTOS/Source/timers.c **** } /*lint !e818 Can't be pointer to const due to the typedef. */
 2078              		.loc 1 1014 1 is_stmt 0 view .LVU570
 2079 001a 2046     		mov	r0, r4
 2080 001c 10BD     		pop	{r4, pc}
 2081              	.LVL169:
 2082              	.L166:
 2083              		.cfi_def_cfa_offset 0
 2084              		.cfi_restore 4
 2085              		.cfi_restore 14
 997:Middlewares/Third_Party/FreeRTOS/Source/timers.c **** 
 2086              		.loc 1 997 2 is_stmt 1 view .LVU571
 2087              	.LBB79:
 2088              	.LBI79:
 191:Middlewares/Third_Party/FreeRTOS/Source/portable/GCC/ARM_CM4F/portmacro.h **** {
 2089              		.loc 2 191 30 view .LVU572
 2090              	.LBB80:
 193:Middlewares/Third_Party/FreeRTOS/Source/portable/GCC/ARM_CM4F/portmacro.h **** 
 2091              		.loc 2 193 1 view .LVU573
 2092              		.loc 2 195 2 view .LVU574
 2093              		.syntax unified
 2094              	@ 195 "Middlewares/Third_Party/FreeRTOS/Source/portable/GCC/ARM_CM4F/portmacro.h" 1
 2095 001e 4FF05003 			mov r3, #80												
 2096 0022 83F31188 		msr basepri, r3											
 2097 0026 BFF36F8F 		isb														
 2098 002a BFF34F8F 		dsb														
ARM GAS  /tmp/ccG38jLQ.s 			page 67


 2099              	
 2100              	@ 0 "" 2
 2101              	.LVL170:
 2102              		.thumb
 2103              		.syntax unified
 2104              	.L161:
 2105              		.loc 2 195 2 is_stmt 0 view .LVU575
 2106              	.LBE80:
 2107              	.LBE79:
 997:Middlewares/Third_Party/FreeRTOS/Source/timers.c **** 
 2108              		.loc 1 997 2 is_stmt 1 discriminator 1 view .LVU576
 997:Middlewares/Third_Party/FreeRTOS/Source/timers.c **** 
 2109              		.loc 1 997 2 discriminator 1 view .LVU577
 2110 002e FEE7     		b	.L161
 2111              	.LVL171:
 2112              	.L163:
 2113              		.cfi_def_cfa_offset 8
 2114              		.cfi_offset 4, -8
 2115              		.cfi_offset 14, -4
1008:Middlewares/Third_Party/FreeRTOS/Source/timers.c **** 		}
 2116              		.loc 1 1008 12 is_stmt 0 view .LVU578
 2117 0030 0124     		movs	r4, #1
 2118              	.LVL172:
1008:Middlewares/Third_Party/FreeRTOS/Source/timers.c **** 		}
 2119              		.loc 1 1008 12 view .LVU579
 2120 0032 F0E7     		b	.L162
 2121              		.cfi_endproc
 2122              	.LFE24:
 2124              		.section	.text.pvTimerGetTimerID,"ax",%progbits
 2125              		.align	1
 2126              		.global	pvTimerGetTimerID
 2127              		.syntax unified
 2128              		.thumb
 2129              		.thumb_func
 2131              	pvTimerGetTimerID:
 2132              	.LVL173:
 2133              	.LFB25:
1015:Middlewares/Third_Party/FreeRTOS/Source/timers.c **** /*-----------------------------------------------------------*/
1016:Middlewares/Third_Party/FreeRTOS/Source/timers.c **** 
1017:Middlewares/Third_Party/FreeRTOS/Source/timers.c **** void *pvTimerGetTimerID( const TimerHandle_t xTimer )
1018:Middlewares/Third_Party/FreeRTOS/Source/timers.c **** {
 2134              		.loc 1 1018 1 is_stmt 1 view -0
 2135              		.cfi_startproc
 2136              		@ args = 0, pretend = 0, frame = 0
 2137              		@ frame_needed = 0, uses_anonymous_args = 0
1019:Middlewares/Third_Party/FreeRTOS/Source/timers.c **** Timer_t * const pxTimer = xTimer;
 2138              		.loc 1 1019 1 view .LVU581
1020:Middlewares/Third_Party/FreeRTOS/Source/timers.c **** void *pvReturn;
 2139              		.loc 1 1020 1 view .LVU582
1021:Middlewares/Third_Party/FreeRTOS/Source/timers.c **** 
1022:Middlewares/Third_Party/FreeRTOS/Source/timers.c **** 	configASSERT( xTimer );
 2140              		.loc 1 1022 2 view .LVU583
 2141 0000 40B1     		cbz	r0, .L172
1018:Middlewares/Third_Party/FreeRTOS/Source/timers.c **** Timer_t * const pxTimer = xTimer;
 2142              		.loc 1 1018 1 is_stmt 0 discriminator 2 view .LVU584
 2143 0002 10B5     		push	{r4, lr}
 2144              		.cfi_def_cfa_offset 8
ARM GAS  /tmp/ccG38jLQ.s 			page 68


 2145              		.cfi_offset 4, -8
 2146              		.cfi_offset 14, -4
 2147 0004 0446     		mov	r4, r0
 2148              		.loc 1 1022 24 is_stmt 1 discriminator 2 view .LVU585
1023:Middlewares/Third_Party/FreeRTOS/Source/timers.c **** 
1024:Middlewares/Third_Party/FreeRTOS/Source/timers.c **** 	taskENTER_CRITICAL();
 2149              		.loc 1 1024 2 discriminator 2 view .LVU586
 2150 0006 FFF7FEFF 		bl	vPortEnterCritical
 2151              	.LVL174:
1025:Middlewares/Third_Party/FreeRTOS/Source/timers.c **** 	{
1026:Middlewares/Third_Party/FreeRTOS/Source/timers.c **** 		pvReturn = pxTimer->pvTimerID;
 2152              		.loc 1 1026 3 discriminator 2 view .LVU587
 2153              		.loc 1 1026 12 is_stmt 0 discriminator 2 view .LVU588
 2154 000a E469     		ldr	r4, [r4, #28]
 2155              	.LVL175:
1027:Middlewares/Third_Party/FreeRTOS/Source/timers.c **** 	}
1028:Middlewares/Third_Party/FreeRTOS/Source/timers.c **** 	taskEXIT_CRITICAL();
 2156              		.loc 1 1028 2 is_stmt 1 discriminator 2 view .LVU589
 2157 000c FFF7FEFF 		bl	vPortExitCritical
 2158              	.LVL176:
1029:Middlewares/Third_Party/FreeRTOS/Source/timers.c **** 
1030:Middlewares/Third_Party/FreeRTOS/Source/timers.c **** 	return pvReturn;
 2159              		.loc 1 1030 2 discriminator 2 view .LVU590
1031:Middlewares/Third_Party/FreeRTOS/Source/timers.c **** }
 2160              		.loc 1 1031 1 is_stmt 0 discriminator 2 view .LVU591
 2161 0010 2046     		mov	r0, r4
 2162 0012 10BD     		pop	{r4, pc}
 2163              	.LVL177:
 2164              	.L172:
 2165              		.cfi_def_cfa_offset 0
 2166              		.cfi_restore 4
 2167              		.cfi_restore 14
1022:Middlewares/Third_Party/FreeRTOS/Source/timers.c **** 
 2168              		.loc 1 1022 2 is_stmt 1 view .LVU592
 2169              	.LBB81:
 2170              	.LBI81:
 191:Middlewares/Third_Party/FreeRTOS/Source/portable/GCC/ARM_CM4F/portmacro.h **** {
 2171              		.loc 2 191 30 view .LVU593
 2172              	.LBB82:
 193:Middlewares/Third_Party/FreeRTOS/Source/portable/GCC/ARM_CM4F/portmacro.h **** 
 2173              		.loc 2 193 1 view .LVU594
 2174              		.loc 2 195 2 view .LVU595
 2175              		.syntax unified
 2176              	@ 195 "Middlewares/Third_Party/FreeRTOS/Source/portable/GCC/ARM_CM4F/portmacro.h" 1
 2177 0014 4FF05003 			mov r3, #80												
 2178 0018 83F31188 		msr basepri, r3											
 2179 001c BFF36F8F 		isb														
 2180 0020 BFF34F8F 		dsb														
 2181              	
 2182              	@ 0 "" 2
 2183              	.LVL178:
 2184              		.thumb
 2185              		.syntax unified
 2186              	.L169:
 2187              		.loc 2 195 2 is_stmt 0 view .LVU596
 2188              	.LBE82:
 2189              	.LBE81:
ARM GAS  /tmp/ccG38jLQ.s 			page 69


1022:Middlewares/Third_Party/FreeRTOS/Source/timers.c **** 
 2190              		.loc 1 1022 2 is_stmt 1 discriminator 1 view .LVU597
