ARM GAS  /tmp/cctcjG2K.s 			page 1


   1              		.cpu cortex-m4
   2              		.arch armv7e-m
   3              		.fpu fpv4-sp-d16
   4              		.eabi_attribute 27, 1
   5              		.eabi_attribute 28, 1
   6              		.eabi_attribute 20, 1
   7              		.eabi_attribute 21, 1
   8              		.eabi_attribute 23, 3
   9              		.eabi_attribute 24, 1
  10              		.eabi_attribute 25, 1
  11              		.eabi_attribute 26, 1
  12              		.eabi_attribute 30, 1
  13              		.eabi_attribute 34, 1
  14              		.eabi_attribute 18, 4
  15              		.file	"esc.c"
  16              		.text
  17              	.Ltext0:
  18              		.cfi_sections	.debug_frame
  19              		.section	.text.ESC_ALerror,"ax",%progbits
  20              		.align	1
  21              		.global	ESC_ALerror
  22              		.syntax unified
  23              		.thumb
  24              		.thumb_func
  26              	ESC_ALerror:
  27              	.LVL0:
  28              	.LFB0:
  29              		.file 1 "Drivers/SOES/Src/esc.c"
   1:Drivers/SOES/Src/esc.c **** /*
   2:Drivers/SOES/Src/esc.c ****  * Licensed under the GNU General Public License version 2 with exceptions. See
   3:Drivers/SOES/Src/esc.c ****  * LICENSE file in the project root for full license information
   4:Drivers/SOES/Src/esc.c ****  */
   5:Drivers/SOES/Src/esc.c **** #include <string.h>
   6:Drivers/SOES/Src/esc.c **** #include <cc.h>
   7:Drivers/SOES/Src/esc.c **** #include "esc.h"
   8:Drivers/SOES/Src/esc.c **** #include "esc_coe.h"
   9:Drivers/SOES/Src/esc.c **** #include "esc_foe.h"
  10:Drivers/SOES/Src/esc.c **** 
  11:Drivers/SOES/Src/esc.c **** /** \file
  12:Drivers/SOES/Src/esc.c ****  * \brief
  13:Drivers/SOES/Src/esc.c ****  * Base EtherCAT functions for handling the Data Link Layer and Malilboxes
  14:Drivers/SOES/Src/esc.c ****  *
  15:Drivers/SOES/Src/esc.c ****  *
  16:Drivers/SOES/Src/esc.c ****  * State machine and mailbox support.
  17:Drivers/SOES/Src/esc.c ****  */
  18:Drivers/SOES/Src/esc.c **** 
  19:Drivers/SOES/Src/esc.c **** /** Write AL Status Code to the ESC.
  20:Drivers/SOES/Src/esc.c ****  *
  21:Drivers/SOES/Src/esc.c ****  * @param[in] errornumber   = Write an by EtherCAT specified Error number register 0x134 AL Status 
  22:Drivers/SOES/Src/esc.c ****  */
  23:Drivers/SOES/Src/esc.c **** void ESC_ALerror (uint16_t errornumber)
  24:Drivers/SOES/Src/esc.c **** {
  30              		.loc 1 24 1 view -0
  31              		.cfi_startproc
  32              		@ args = 0, pretend = 0, frame = 8
  33              		@ frame_needed = 0, uses_anonymous_args = 0
  34              		.loc 1 24 1 is_stmt 0 view .LVU1
ARM GAS  /tmp/cctcjG2K.s 			page 2


  35 0000 00B5     		push	{lr}
  36              		.cfi_def_cfa_offset 4
  37              		.cfi_offset 14, -4
  38 0002 83B0     		sub	sp, sp, #12
  39              		.cfi_def_cfa_offset 16
  25:Drivers/SOES/Src/esc.c ****    uint16_t dummy;
  40              		.loc 1 25 4 is_stmt 1 view .LVU2
  26:Drivers/SOES/Src/esc.c ****    ESCvar.ALerror = errornumber;
  41              		.loc 1 26 4 view .LVU3
  42              		.loc 1 26 19 is_stmt 0 view .LVU4
  43 0004 074B     		ldr	r3, .L3
  44 0006 A3F88000 		strh	r0, [r3, #128]	@ movhi
  27:Drivers/SOES/Src/esc.c ****    dummy = htoes (errornumber);
  45              		.loc 1 27 4 is_stmt 1 view .LVU5
  46              		.loc 1 27 10 is_stmt 0 view .LVU6
  47 000a ADF80600 		strh	r0, [sp, #6]	@ movhi
  28:Drivers/SOES/Src/esc.c ****    ESC_write (ESCREG_ALERROR, &dummy, sizeof (dummy));
  48              		.loc 1 28 4 is_stmt 1 view .LVU7
  49 000e 0222     		movs	r2, #2
  50 0010 0DF10601 		add	r1, sp, #6
  51 0014 4FF49A70 		mov	r0, #308
  52              	.LVL1:
  53              		.loc 1 28 4 is_stmt 0 view .LVU8
  54 0018 FFF7FEFF 		bl	ESC_write
  55              	.LVL2:
  29:Drivers/SOES/Src/esc.c **** }
  56              		.loc 1 29 1 view .LVU9
  57 001c 03B0     		add	sp, sp, #12
  58              		.cfi_def_cfa_offset 4
  59              		@ sp needed
  60 001e 5DF804FB 		ldr	pc, [sp], #4
  61              	.L4:
  62 0022 00BF     		.align	2
  63              	.L3:
  64 0024 00000000 		.word	ESCvar
  65              		.cfi_endproc
  66              	.LFE0:
  68              		.section	.text.ESC_ALstatus,"ax",%progbits
  69              		.align	1
  70              		.global	ESC_ALstatus
  71              		.syntax unified
  72              		.thumb
  73              		.thumb_func
  75              	ESC_ALstatus:
  76              	.LVL3:
  77              	.LFB1:
  30:Drivers/SOES/Src/esc.c **** 
  31:Drivers/SOES/Src/esc.c **** /** Write AL Status to the ESC.
  32:Drivers/SOES/Src/esc.c ****  *
  33:Drivers/SOES/Src/esc.c ****  * @param[in] status   = Write current slave status to register 0x130 AL Status
  34:Drivers/SOES/Src/esc.c ****  * reflecting actual state and error indication if present
  35:Drivers/SOES/Src/esc.c ****  */
  36:Drivers/SOES/Src/esc.c **** void ESC_ALstatus (uint8_t status)
  37:Drivers/SOES/Src/esc.c **** {
  78              		.loc 1 37 1 is_stmt 1 view -0
  79              		.cfi_startproc
  80              		@ args = 0, pretend = 0, frame = 8
ARM GAS  /tmp/cctcjG2K.s 			page 3


  81              		@ frame_needed = 0, uses_anonymous_args = 0
  82              		.loc 1 37 1 is_stmt 0 view .LVU11
  83 0000 00B5     		push	{lr}
  84              		.cfi_def_cfa_offset 4
  85              		.cfi_offset 14, -4
  86 0002 83B0     		sub	sp, sp, #12
  87              		.cfi_def_cfa_offset 16
  38:Drivers/SOES/Src/esc.c ****    uint16_t dummy;
  88              		.loc 1 38 4 is_stmt 1 view .LVU12
  39:Drivers/SOES/Src/esc.c ****    ESCvar.ALstatus = status;
  89              		.loc 1 39 4 view .LVU13
  90              		.loc 1 39 20 is_stmt 0 view .LVU14
  91 0004 074B     		ldr	r3, .L7
  92 0006 A3F87C00 		strh	r0, [r3, #124]	@ movhi
  40:Drivers/SOES/Src/esc.c ****    dummy = htoes ((uint16_t) status);
  93              		.loc 1 40 4 is_stmt 1 view .LVU15
  94              		.loc 1 40 10 is_stmt 0 view .LVU16
  95 000a ADF80600 		strh	r0, [sp, #6]	@ movhi
  41:Drivers/SOES/Src/esc.c ****    ESC_write (ESCREG_ALSTATUS, &dummy, sizeof (dummy));
  96              		.loc 1 41 4 is_stmt 1 view .LVU17
  97 000e 0222     		movs	r2, #2
  98 0010 0DF10601 		add	r1, sp, #6
  99 0014 4FF49870 		mov	r0, #304
 100              	.LVL4:
 101              		.loc 1 41 4 is_stmt 0 view .LVU18
 102 0018 FFF7FEFF 		bl	ESC_write
 103              	.LVL5:
  42:Drivers/SOES/Src/esc.c **** }
 104              		.loc 1 42 1 view .LVU19
 105 001c 03B0     		add	sp, sp, #12
 106              		.cfi_def_cfa_offset 4
 107              		@ sp needed
 108 001e 5DF804FB 		ldr	pc, [sp], #4
 109              	.L8:
 110 0022 00BF     		.align	2
 111              	.L7:
 112 0024 00000000 		.word	ESCvar
 113              		.cfi_endproc
 114              	.LFE1:
 116              		.section	.text.ESC_ALeventmaskwrite,"ax",%progbits
 117              		.align	1
 118              		.global	ESC_ALeventmaskwrite
 119              		.syntax unified
 120              		.thumb
 121              		.thumb_func
 123              	ESC_ALeventmaskwrite:
 124              	.LVL6:
 125              	.LFB3:
  43:Drivers/SOES/Src/esc.c **** 
  44:Drivers/SOES/Src/esc.c **** /** Write AL Status and AL Status code to the ESC.
  45:Drivers/SOES/Src/esc.c ****  *  Call pre- and poststate change hook
  46:Drivers/SOES/Src/esc.c ****  *
  47:Drivers/SOES/Src/esc.c ****  * @param[in] status   = Write current slave status to register 0x130 AL Status
  48:Drivers/SOES/Src/esc.c ****  * reflecting actual state and error indication if present
  49:Drivers/SOES/Src/esc.c ****  * @param[in] errornumber   = Write an by EtherCAT specified Error number
  50:Drivers/SOES/Src/esc.c ****  * register 0x134 AL Status Code
  51:Drivers/SOES/Src/esc.c ****  */
ARM GAS  /tmp/cctcjG2K.s 			page 4


  52:Drivers/SOES/Src/esc.c **** void ESC_ALstatusgotoerror (uint8_t status, uint16_t errornumber)
  53:Drivers/SOES/Src/esc.c **** {
  54:Drivers/SOES/Src/esc.c ****    uint8_t an, as;
  55:Drivers/SOES/Src/esc.c **** 
  56:Drivers/SOES/Src/esc.c ****    if(status & ESCop)
  57:Drivers/SOES/Src/esc.c ****    {
  58:Drivers/SOES/Src/esc.c ****       /* Erroneous input, ignore */
  59:Drivers/SOES/Src/esc.c ****       return;
  60:Drivers/SOES/Src/esc.c ****    }
  61:Drivers/SOES/Src/esc.c ****    /* Mask error ack of current state */
  62:Drivers/SOES/Src/esc.c ****    as = ESCvar.ALstatus & ESCREG_AL_ERRACKMASK;
  63:Drivers/SOES/Src/esc.c ****    an = as;
  64:Drivers/SOES/Src/esc.c ****    /* Set the state transition, new state in high bits and old in bits  */
  65:Drivers/SOES/Src/esc.c ****    as = ((status & ESCREG_AL_ERRACKMASK) << 4) | (as & 0x0f);
  66:Drivers/SOES/Src/esc.c ****    /* Call post state change hook case it have been configured  */
  67:Drivers/SOES/Src/esc.c ****    if (ESCvar.pre_state_change_hook != NULL)
  68:Drivers/SOES/Src/esc.c ****    {
  69:Drivers/SOES/Src/esc.c ****       ESCvar.pre_state_change_hook (&as, &an);
  70:Drivers/SOES/Src/esc.c ****    }
  71:Drivers/SOES/Src/esc.c ****    /* Stop outputs if active */
  72:Drivers/SOES/Src/esc.c ****    if ((CC_ATOMIC_GET(ESCvar.App.state) & APPSTATE_OUTPUT) > 0)
  73:Drivers/SOES/Src/esc.c ****    {
  74:Drivers/SOES/Src/esc.c ****       ESC_stopoutput();
  75:Drivers/SOES/Src/esc.c ****    }
  76:Drivers/SOES/Src/esc.c ****    ESC_ALerror(errornumber);
  77:Drivers/SOES/Src/esc.c ****    ESC_ALstatus(status);
  78:Drivers/SOES/Src/esc.c ****    an = status;
  79:Drivers/SOES/Src/esc.c ****    /* Call post state change hook case it have been configured  */
  80:Drivers/SOES/Src/esc.c ****    if (ESCvar.post_state_change_hook != NULL)
  81:Drivers/SOES/Src/esc.c ****    {
  82:Drivers/SOES/Src/esc.c ****       ESCvar.post_state_change_hook (&as, &an);
  83:Drivers/SOES/Src/esc.c ****    }
  84:Drivers/SOES/Src/esc.c **** }
  85:Drivers/SOES/Src/esc.c **** 
  86:Drivers/SOES/Src/esc.c **** /** Write ALeventMask register 0x204.
  87:Drivers/SOES/Src/esc.c ****  *
  88:Drivers/SOES/Src/esc.c ****  * @param[in] n   = AL Event Mask
  89:Drivers/SOES/Src/esc.c ****  */
  90:Drivers/SOES/Src/esc.c **** void ESC_ALeventmaskwrite (uint32_t mask)
  91:Drivers/SOES/Src/esc.c **** {
 126              		.loc 1 91 1 is_stmt 1 view -0
 127              		.cfi_startproc
 128              		@ args = 0, pretend = 0, frame = 8
 129              		@ frame_needed = 0, uses_anonymous_args = 0
 130              		.loc 1 91 1 is_stmt 0 view .LVU21
 131 0000 00B5     		push	{lr}
 132              		.cfi_def_cfa_offset 4
 133              		.cfi_offset 14, -4
 134 0002 83B0     		sub	sp, sp, #12
 135              		.cfi_def_cfa_offset 16
  92:Drivers/SOES/Src/esc.c ****    uint32_t aleventmask;
 136              		.loc 1 92 4 is_stmt 1 view .LVU22
  93:Drivers/SOES/Src/esc.c ****    aleventmask = htoel(mask);
 137              		.loc 1 93 4 view .LVU23
 138              		.loc 1 93 16 is_stmt 0 view .LVU24
 139 0004 0190     		str	r0, [sp, #4]
  94:Drivers/SOES/Src/esc.c ****    ESC_write (ESCREG_ALEVENTMASK, &aleventmask, sizeof(aleventmask));
ARM GAS  /tmp/cctcjG2K.s 			page 5


 140              		.loc 1 94 4 is_stmt 1 view .LVU25
 141 0006 0422     		movs	r2, #4
 142 0008 0DEB0201 		add	r1, sp, r2
 143 000c 4FF40170 		mov	r0, #516
 144              	.LVL7:
 145              		.loc 1 94 4 is_stmt 0 view .LVU26
 146 0010 FFF7FEFF 		bl	ESC_write
 147              	.LVL8:
  95:Drivers/SOES/Src/esc.c **** }
 148              		.loc 1 95 1 view .LVU27
 149 0014 03B0     		add	sp, sp, #12
 150              		.cfi_def_cfa_offset 4
 151              		@ sp needed
 152 0016 5DF804FB 		ldr	pc, [sp], #4
 153              		.cfi_endproc
 154              	.LFE3:
 156              		.section	.text.ESC_ALeventmaskread,"ax",%progbits
 157              		.align	1
 158              		.global	ESC_ALeventmaskread
 159              		.syntax unified
 160              		.thumb
 161              		.thumb_func
 163              	ESC_ALeventmaskread:
 164              	.LFB4:
  96:Drivers/SOES/Src/esc.c **** 
  97:Drivers/SOES/Src/esc.c **** /** Read AleventMask register 0x204.
  98:Drivers/SOES/Src/esc.c ****  *
  99:Drivers/SOES/Src/esc.c ****  * @return value of register AL Event Mask
 100:Drivers/SOES/Src/esc.c ****  */
 101:Drivers/SOES/Src/esc.c **** uint32_t ESC_ALeventmaskread (void)
 102:Drivers/SOES/Src/esc.c **** {
 165              		.loc 1 102 1 is_stmt 1 view -0
 166              		.cfi_startproc
 167              		@ args = 0, pretend = 0, frame = 8
 168              		@ frame_needed = 0, uses_anonymous_args = 0
 169 0000 00B5     		push	{lr}
 170              		.cfi_def_cfa_offset 4
 171              		.cfi_offset 14, -4
 172 0002 83B0     		sub	sp, sp, #12
 173              		.cfi_def_cfa_offset 16
 103:Drivers/SOES/Src/esc.c ****    uint32_t aleventmask;
 174              		.loc 1 103 4 view .LVU29
 104:Drivers/SOES/Src/esc.c **** 
 105:Drivers/SOES/Src/esc.c ****    ESC_read (ESCREG_ALEVENTMASK, &aleventmask, sizeof(aleventmask));
 175              		.loc 1 105 4 view .LVU30
 176 0004 0422     		movs	r2, #4
 177 0006 0DEB0201 		add	r1, sp, r2
 178 000a 4FF40170 		mov	r0, #516
 179 000e FFF7FEFF 		bl	ESC_read
 180              	.LVL9:
 106:Drivers/SOES/Src/esc.c ****    return htoel(aleventmask);
 181              		.loc 1 106 4 view .LVU31
 107:Drivers/SOES/Src/esc.c **** }
 182              		.loc 1 107 1 is_stmt 0 view .LVU32
 183 0012 0198     		ldr	r0, [sp, #4]
 184 0014 03B0     		add	sp, sp, #12
 185              		.cfi_def_cfa_offset 4
ARM GAS  /tmp/cctcjG2K.s 			page 6


 186              		@ sp needed
 187 0016 5DF804FB 		ldr	pc, [sp], #4
 188              		.cfi_endproc
 189              	.LFE4:
 191              		.section	.text.ESC_ALeventwrite,"ax",%progbits
 192              		.align	1
 193              		.global	ESC_ALeventwrite
 194              		.syntax unified
 195              		.thumb
 196              		.thumb_func
 198              	ESC_ALeventwrite:
 199              	.LVL10:
 200              	.LFB5:
 108:Drivers/SOES/Src/esc.c **** 
 109:Drivers/SOES/Src/esc.c **** /** Write ALevent register 0x220.
 110:Drivers/SOES/Src/esc.c ****  *
 111:Drivers/SOES/Src/esc.c ****  * @param[in] n   = AL Event Mask
 112:Drivers/SOES/Src/esc.c ****  */
 113:Drivers/SOES/Src/esc.c **** void ESC_ALeventwrite (uint32_t event)
 114:Drivers/SOES/Src/esc.c **** {
 201              		.loc 1 114 1 is_stmt 1 view -0
 202              		.cfi_startproc
 203              		@ args = 0, pretend = 0, frame = 8
 204              		@ frame_needed = 0, uses_anonymous_args = 0
 205              		.loc 1 114 1 is_stmt 0 view .LVU34
 206 0000 00B5     		push	{lr}
 207              		.cfi_def_cfa_offset 4
 208              		.cfi_offset 14, -4
 209 0002 83B0     		sub	sp, sp, #12
 210              		.cfi_def_cfa_offset 16
 115:Drivers/SOES/Src/esc.c ****    uint32_t alevent;
 211              		.loc 1 115 4 is_stmt 1 view .LVU35
 116:Drivers/SOES/Src/esc.c ****    alevent = htoel(event);
 212              		.loc 1 116 4 view .LVU36
 213              		.loc 1 116 12 is_stmt 0 view .LVU37
 214 0004 0190     		str	r0, [sp, #4]
 117:Drivers/SOES/Src/esc.c ****    ESC_write (ESCREG_ALEVENT, &alevent, sizeof(alevent));
 215              		.loc 1 117 4 is_stmt 1 view .LVU38
 216 0006 0422     		movs	r2, #4
 217 0008 0DEB0201 		add	r1, sp, r2
 218 000c 4FF40870 		mov	r0, #544
 219              	.LVL11:
 220              		.loc 1 117 4 is_stmt 0 view .LVU39
 221 0010 FFF7FEFF 		bl	ESC_write
 222              	.LVL12:
 118:Drivers/SOES/Src/esc.c **** }
 223              		.loc 1 118 1 view .LVU40
 224 0014 03B0     		add	sp, sp, #12
 225              		.cfi_def_cfa_offset 4
 226              		@ sp needed
 227 0016 5DF804FB 		ldr	pc, [sp], #4
 228              		.cfi_endproc
 229              	.LFE5:
 231              		.section	.text.ESC_ALeventread,"ax",%progbits
 232              		.align	1
 233              		.global	ESC_ALeventread
 234              		.syntax unified
ARM GAS  /tmp/cctcjG2K.s 			page 7


 235              		.thumb
 236              		.thumb_func
 238              	ESC_ALeventread:
 239              	.LFB6:
 119:Drivers/SOES/Src/esc.c **** 
 120:Drivers/SOES/Src/esc.c **** /** Read Alevent register 0x220.
 121:Drivers/SOES/Src/esc.c ****  *
 122:Drivers/SOES/Src/esc.c ****  * @return value of register AL Event Mask
 123:Drivers/SOES/Src/esc.c ****  */
 124:Drivers/SOES/Src/esc.c **** uint32_t ESC_ALeventread (void)
 125:Drivers/SOES/Src/esc.c **** {
 240              		.loc 1 125 1 is_stmt 1 view -0
 241              		.cfi_startproc
 242              		@ args = 0, pretend = 0, frame = 8
 243              		@ frame_needed = 0, uses_anonymous_args = 0
 244 0000 00B5     		push	{lr}
 245              		.cfi_def_cfa_offset 4
 246              		.cfi_offset 14, -4
 247 0002 83B0     		sub	sp, sp, #12
 248              		.cfi_def_cfa_offset 16
 126:Drivers/SOES/Src/esc.c ****    uint32_t alevent;
 249              		.loc 1 126 4 view .LVU42
 127:Drivers/SOES/Src/esc.c ****    ESC_read (ESCREG_ALEVENT, &alevent, sizeof(alevent));
 250              		.loc 1 127 4 view .LVU43
 251 0004 0422     		movs	r2, #4
 252 0006 0DEB0201 		add	r1, sp, r2
 253 000a 4FF40870 		mov	r0, #544
 254 000e FFF7FEFF 		bl	ESC_read
 255              	.LVL13:
 128:Drivers/SOES/Src/esc.c ****    return htoel(alevent);
 256              		.loc 1 128 4 view .LVU44
 129:Drivers/SOES/Src/esc.c **** }
 257              		.loc 1 129 1 is_stmt 0 view .LVU45
 258 0012 0198     		ldr	r0, [sp, #4]
 259 0014 03B0     		add	sp, sp, #12
 260              		.cfi_def_cfa_offset 4
 261              		@ sp needed
 262 0016 5DF804FB 		ldr	pc, [sp], #4
 263              		.cfi_endproc
 264              	.LFE6:
 266              		.section	.text.ESC_SMack,"ax",%progbits
 267              		.align	1
 268              		.global	ESC_SMack
 269              		.syntax unified
 270              		.thumb
 271              		.thumb_func
 273              	ESC_SMack:
 274              	.LVL14:
 275              	.LFB7:
 130:Drivers/SOES/Src/esc.c **** 
 131:Drivers/SOES/Src/esc.c **** /** Read SM Activate register 0x806(+ offset to SyncManager n) to acknowledge a
 132:Drivers/SOES/Src/esc.c ****  * Sync Manager event Bit 3 in ALevent. The result is not used.
 133:Drivers/SOES/Src/esc.c ****  *
 134:Drivers/SOES/Src/esc.c ****  * @param[in] n   = Read Sync Manager no. n
 135:Drivers/SOES/Src/esc.c ****  */
 136:Drivers/SOES/Src/esc.c **** void ESC_SMack (uint8_t n)
 137:Drivers/SOES/Src/esc.c **** {
ARM GAS  /tmp/cctcjG2K.s 			page 8


 276              		.loc 1 137 1 is_stmt 1 view -0
 277              		.cfi_startproc
 278              		@ args = 0, pretend = 0, frame = 8
 279              		@ frame_needed = 0, uses_anonymous_args = 0
 280              		.loc 1 137 1 is_stmt 0 view .LVU47
 281 0000 00B5     		push	{lr}
 282              		.cfi_def_cfa_offset 4
 283              		.cfi_offset 14, -4
 284 0002 83B0     		sub	sp, sp, #12
 285              		.cfi_def_cfa_offset 16
 138:Drivers/SOES/Src/esc.c ****    uint8_t dummy;
 286              		.loc 1 138 4 is_stmt 1 view .LVU48
 139:Drivers/SOES/Src/esc.c ****    ESC_read (ESCREG_SM0ACTIVATE + (n << 3), &dummy, 1);
 287              		.loc 1 139 4 view .LVU49
 288              		.loc 1 139 38 is_stmt 0 view .LVU50
 289 0004 C000     		lsls	r0, r0, #3
 290              	.LVL15:
 291              		.loc 1 139 4 view .LVU51
 292 0006 0122     		movs	r2, #1
 293 0008 0DF10701 		add	r1, sp, #7
 294 000c 00F60600 		addw	r0, r0, #2054
 295 0010 FFF7FEFF 		bl	ESC_read
 296              	.LVL16:
 140:Drivers/SOES/Src/esc.c **** }
 297              		.loc 1 140 1 view .LVU52
 298 0014 03B0     		add	sp, sp, #12
 299              		.cfi_def_cfa_offset 4
 300              		@ sp needed
 301 0016 5DF804FB 		ldr	pc, [sp], #4
 302              		.cfi_endproc
 303              	.LFE7:
 305              		.section	.text.ESC_SMstatus,"ax",%progbits
 306              		.align	1
 307              		.global	ESC_SMstatus
 308              		.syntax unified
 309              		.thumb
 310              		.thumb_func
 312              	ESC_SMstatus:
 313              	.LVL17:
 314              	.LFB8:
 141:Drivers/SOES/Src/esc.c **** 
 142:Drivers/SOES/Src/esc.c **** /** Read SM Status register 0x805(+ offset to SyncManager n) and save the
 143:Drivers/SOES/Src/esc.c ****  * result in global variable ESCvar.SM[n].
 144:Drivers/SOES/Src/esc.c ****  *
 145:Drivers/SOES/Src/esc.c ****  * @param[in] n   = Read Sync Manager no. n
 146:Drivers/SOES/Src/esc.c ****  */
 147:Drivers/SOES/Src/esc.c **** void ESC_SMstatus (uint8_t n)
 148:Drivers/SOES/Src/esc.c **** {
 315              		.loc 1 148 1 is_stmt 1 view -0
 316              		.cfi_startproc
 317              		@ args = 0, pretend = 0, frame = 0
 318              		@ frame_needed = 0, uses_anonymous_args = 0
 319              		.loc 1 148 1 is_stmt 0 view .LVU54
 320 0000 08B5     		push	{r3, lr}
 321              		.cfi_def_cfa_offset 8
 322              		.cfi_offset 3, -8
 323              		.cfi_offset 14, -4
ARM GAS  /tmp/cctcjG2K.s 			page 9


 149:Drivers/SOES/Src/esc.c ****    _ESCsm2 *sm;
 324              		.loc 1 149 4 is_stmt 1 view .LVU55
 150:Drivers/SOES/Src/esc.c ****    sm = (_ESCsm2 *)&ESCvar.SM[n];
 325              		.loc 1 150 4 view .LVU56
 326              		.loc 1 150 7 is_stmt 0 view .LVU57
 327 0002 00F11603 		add	r3, r0, #22
 328 0006 0549     		ldr	r1, .L21
 329 0008 01EBC301 		add	r1, r1, r3, lsl #3
 330              	.LVL18:
 151:Drivers/SOES/Src/esc.c ****    ESC_read (ESCREG_SM0STATUS + (n << 3), &(sm->Status), 1);
 331              		.loc 1 151 4 is_stmt 1 view .LVU58
 332              		.loc 1 151 36 is_stmt 0 view .LVU59
 333 000c C000     		lsls	r0, r0, #3
 334              	.LVL19:
 335              		.loc 1 151 4 view .LVU60
 336 000e 0122     		movs	r2, #1
 337 0010 0931     		adds	r1, r1, #9
 338              	.LVL20:
 339              		.loc 1 151 4 view .LVU61
 340 0012 00F60500 		addw	r0, r0, #2053
 341 0016 FFF7FEFF 		bl	ESC_read
 342              	.LVL21:
 152:Drivers/SOES/Src/esc.c **** }
 343              		.loc 1 152 1 view .LVU62
 344 001a 08BD     		pop	{r3, pc}
 345              	.L22:
 346              		.align	2
 347              	.L21:
 348 001c 00000000 		.word	ESCvar
 349              		.cfi_endproc
 350              	.LFE8:
 352              		.section	.text.ESC_SMwritepdi,"ax",%progbits
 353              		.align	1
 354              		.global	ESC_SMwritepdi
 355              		.syntax unified
 356              		.thumb
 357              		.thumb_func
 359              	ESC_SMwritepdi:
 360              	.LVL22:
 361              	.LFB9:
 153:Drivers/SOES/Src/esc.c **** 
 154:Drivers/SOES/Src/esc.c **** /** Write ESCvar.SM[n] data to ESC PDI control register 0x807(+ offset to SyncManager n).
 155:Drivers/SOES/Src/esc.c ****  *
 156:Drivers/SOES/Src/esc.c ****  * @param[in] n   = Write to Sync Manager no. n
 157:Drivers/SOES/Src/esc.c ****  */
 158:Drivers/SOES/Src/esc.c **** void ESC_SMwritepdi (uint8_t n)
 159:Drivers/SOES/Src/esc.c **** {
 362              		.loc 1 159 1 is_stmt 1 view -0
 363              		.cfi_startproc
 364              		@ args = 0, pretend = 0, frame = 0
 365              		@ frame_needed = 0, uses_anonymous_args = 0
 366              		.loc 1 159 1 is_stmt 0 view .LVU64
 367 0000 08B5     		push	{r3, lr}
 368              		.cfi_def_cfa_offset 8
 369              		.cfi_offset 3, -8
 370              		.cfi_offset 14, -4
 160:Drivers/SOES/Src/esc.c ****    _ESCsm2 *sm;
ARM GAS  /tmp/cctcjG2K.s 			page 10


 371              		.loc 1 160 4 is_stmt 1 view .LVU65
 161:Drivers/SOES/Src/esc.c ****    sm = (_ESCsm2 *)&ESCvar.SM[n];
 372              		.loc 1 161 4 view .LVU66
 373              		.loc 1 161 7 is_stmt 0 view .LVU67
 374 0002 00F11603 		add	r3, r0, #22
 375 0006 0549     		ldr	r1, .L25
 376 0008 01EBC301 		add	r1, r1, r3, lsl #3
 377              	.LVL23:
 162:Drivers/SOES/Src/esc.c ****    ESC_write (ESCREG_SM0PDI + (n << 3), &(sm->ActPDI), 1);
 378              		.loc 1 162 4 is_stmt 1 view .LVU68
 379              		.loc 1 162 34 is_stmt 0 view .LVU69
 380 000c C000     		lsls	r0, r0, #3
 381              	.LVL24:
 382              		.loc 1 162 4 view .LVU70
 383 000e 0122     		movs	r2, #1
 384 0010 0B31     		adds	r1, r1, #11
 385              	.LVL25:
 386              		.loc 1 162 4 view .LVU71
 387 0012 00F60700 		addw	r0, r0, #2055
 388 0016 FFF7FEFF 		bl	ESC_write
 389              	.LVL26:
 163:Drivers/SOES/Src/esc.c **** }
 390              		.loc 1 163 1 view .LVU72
 391 001a 08BD     		pop	{r3, pc}
 392              	.L26:
 393              		.align	2
 394              	.L25:
 395 001c 00000000 		.word	ESCvar
 396              		.cfi_endproc
 397              	.LFE9:
 399              		.section	.text.ESC_SMenable,"ax",%progbits
 400              		.align	1
 401              		.global	ESC_SMenable
 402              		.syntax unified
 403              		.thumb
 404              		.thumb_func
 406              	ESC_SMenable:
 407              	.LVL27:
 408              	.LFB10:
 164:Drivers/SOES/Src/esc.c **** 
 165:Drivers/SOES/Src/esc.c **** /** Write 0 to Bit0 in SM PDI control register 0x807(+ offset to SyncManager n) to Activate the Syn
 166:Drivers/SOES/Src/esc.c ****  *
 167:Drivers/SOES/Src/esc.c ****  * @param[in] n   = Write to Sync Manager no. n
 168:Drivers/SOES/Src/esc.c ****  */
 169:Drivers/SOES/Src/esc.c **** void ESC_SMenable (uint8_t n)
 170:Drivers/SOES/Src/esc.c **** {
 409              		.loc 1 170 1 is_stmt 1 view -0
 410              		.cfi_startproc
 411              		@ args = 0, pretend = 0, frame = 0
 412              		@ frame_needed = 0, uses_anonymous_args = 0
 413              		.loc 1 170 1 is_stmt 0 view .LVU74
 414 0000 08B5     		push	{r3, lr}
 415              		.cfi_def_cfa_offset 8
 416              		.cfi_offset 3, -8
 417              		.cfi_offset 14, -4
 171:Drivers/SOES/Src/esc.c ****    _ESCsm2 *sm;
 418              		.loc 1 171 4 is_stmt 1 view .LVU75
ARM GAS  /tmp/cctcjG2K.s 			page 11


 172:Drivers/SOES/Src/esc.c ****    sm = (_ESCsm2 *)&ESCvar.SM[n];
 419              		.loc 1 172 4 view .LVU76
 420              		.loc 1 172 7 is_stmt 0 view .LVU77
 421 0002 00F11602 		add	r2, r0, #22
 422 0006 054B     		ldr	r3, .L29
 423 0008 03EBC203 		add	r3, r3, r2, lsl #3
 424              	.LVL28:
 173:Drivers/SOES/Src/esc.c ****    sm->ActPDI &= ~ESCREG_SMENABLE_BIT;
 425              		.loc 1 173 4 is_stmt 1 view .LVU78
 426              		.loc 1 173 15 is_stmt 0 view .LVU79
 427 000c DA7A     		ldrb	r2, [r3, #11]	@ zero_extendqisi2
 428 000e 22F00102 		bic	r2, r2, #1
 429 0012 DA72     		strb	r2, [r3, #11]
 174:Drivers/SOES/Src/esc.c ****    ESC_SMwritepdi (n);
 430              		.loc 1 174 4 is_stmt 1 view .LVU80
 431 0014 FFF7FEFF 		bl	ESC_SMwritepdi
 432              	.LVL29:
 175:Drivers/SOES/Src/esc.c **** }
 433              		.loc 1 175 1 is_stmt 0 view .LVU81
 434 0018 08BD     		pop	{r3, pc}
 435              	.L30:
 436 001a 00BF     		.align	2
 437              	.L29:
 438 001c 00000000 		.word	ESCvar
 439              		.cfi_endproc
 440              	.LFE10:
 442              		.section	.text.ESC_SMdisable,"ax",%progbits
 443              		.align	1
 444              		.global	ESC_SMdisable
 445              		.syntax unified
 446              		.thumb
 447              		.thumb_func
 449              	ESC_SMdisable:
 450              	.LVL30:
 451              	.LFB11:
 176:Drivers/SOES/Src/esc.c **** /** Write 1 to Bit0 in SM PDI control register 0x807(+ offset to SyncManager n) to De-activte the S
 177:Drivers/SOES/Src/esc.c ****  *
 178:Drivers/SOES/Src/esc.c ****  * @param[in] n   = Write to Sync Manager no. n
 179:Drivers/SOES/Src/esc.c ****  */
 180:Drivers/SOES/Src/esc.c **** void ESC_SMdisable (uint8_t n)
 181:Drivers/SOES/Src/esc.c **** {
 452              		.loc 1 181 1 is_stmt 1 view -0
 453              		.cfi_startproc
 454              		@ args = 0, pretend = 0, frame = 0
 455              		@ frame_needed = 0, uses_anonymous_args = 0
 456              		.loc 1 181 1 is_stmt 0 view .LVU83
 457 0000 08B5     		push	{r3, lr}
 458              		.cfi_def_cfa_offset 8
 459              		.cfi_offset 3, -8
 460              		.cfi_offset 14, -4
 182:Drivers/SOES/Src/esc.c ****    _ESCsm2 *sm;
 461              		.loc 1 182 4 is_stmt 1 view .LVU84
 183:Drivers/SOES/Src/esc.c ****    sm = (_ESCsm2 *)&ESCvar.SM[n];
 462              		.loc 1 183 4 view .LVU85
 463              		.loc 1 183 7 is_stmt 0 view .LVU86
 464 0002 00F11602 		add	r2, r0, #22
 465 0006 054B     		ldr	r3, .L33
ARM GAS  /tmp/cctcjG2K.s 			page 12


 466 0008 03EBC203 		add	r3, r3, r2, lsl #3
 467              	.LVL31:
 184:Drivers/SOES/Src/esc.c ****    sm->ActPDI |= ESCREG_SMENABLE_BIT;
 468              		.loc 1 184 4 is_stmt 1 view .LVU87
 469              		.loc 1 184 15 is_stmt 0 view .LVU88
 470 000c DA7A     		ldrb	r2, [r3, #11]	@ zero_extendqisi2
 471 000e 42F00102 		orr	r2, r2, #1
 472 0012 DA72     		strb	r2, [r3, #11]
 185:Drivers/SOES/Src/esc.c ****    ESC_SMwritepdi (n);
 473              		.loc 1 185 4 is_stmt 1 view .LVU89
 474 0014 FFF7FEFF 		bl	ESC_SMwritepdi
 475              	.LVL32:
 186:Drivers/SOES/Src/esc.c **** }
 476              		.loc 1 186 1 is_stmt 0 view .LVU90
 477 0018 08BD     		pop	{r3, pc}
 478              	.L34:
 479 001a 00BF     		.align	2
 480              	.L33:
 481 001c 00000000 		.word	ESCvar
 482              		.cfi_endproc
 483              	.LFE11:
 485              		.section	.text.ESC_address,"ax",%progbits
 486              		.align	1
 487              		.global	ESC_address
 488              		.syntax unified
 489              		.thumb
 490              		.thumb_func
 492              	ESC_address:
 493              	.LFB12:
 187:Drivers/SOES/Src/esc.c **** /** Read Configured Station Address register 0x010 assigned by the Master.
 188:Drivers/SOES/Src/esc.c ****  *
 189:Drivers/SOES/Src/esc.c ****  */
 190:Drivers/SOES/Src/esc.c **** void ESC_address (void)
 191:Drivers/SOES/Src/esc.c **** {
 494              		.loc 1 191 1 is_stmt 1 view -0
 495              		.cfi_startproc
 496              		@ args = 0, pretend = 0, frame = 0
 497              		@ frame_needed = 0, uses_anonymous_args = 0
 498 0000 08B5     		push	{r3, lr}
 499              		.cfi_def_cfa_offset 8
 500              		.cfi_offset 3, -8
 501              		.cfi_offset 14, -4
 192:Drivers/SOES/Src/esc.c ****    ESC_read (ESCREG_ADDRESS, (void *) &ESCvar.address, sizeof (ESCvar.address));
 502              		.loc 1 192 4 view .LVU92
 503 0002 0222     		movs	r2, #2
 504 0004 0249     		ldr	r1, .L37
 505 0006 1020     		movs	r0, #16
 506 0008 FFF7FEFF 		bl	ESC_read
 507              	.LVL33:
 193:Drivers/SOES/Src/esc.c ****    ESCvar.address = etohs (ESCvar.address);
 508              		.loc 1 193 4 view .LVU93
 194:Drivers/SOES/Src/esc.c **** }
 509              		.loc 1 194 1 is_stmt 0 view .LVU94
 510 000c 08BD     		pop	{r3, pc}
 511              	.L38:
 512 000e 00BF     		.align	2
 513              	.L37:
ARM GAS  /tmp/cctcjG2K.s 			page 13


 514 0010 84000000 		.word	ESCvar+132
 515              		.cfi_endproc
 516              	.LFE12:
 518              		.section	.text.ESC_WDstatus,"ax",%progbits
 519              		.align	1
 520              		.global	ESC_WDstatus
 521              		.syntax unified
 522              		.thumb
 523              		.thumb_func
 525              	ESC_WDstatus:
 526              	.LFB13:
 195:Drivers/SOES/Src/esc.c **** 
 196:Drivers/SOES/Src/esc.c **** /** Read Watchdog Status register 0x440. Result Bit0 0= Expired, 1= Active or disabled.
 197:Drivers/SOES/Src/esc.c ****  *
 198:Drivers/SOES/Src/esc.c ****  * @return value of register Watchdog Status.
 199:Drivers/SOES/Src/esc.c ****  */
 200:Drivers/SOES/Src/esc.c **** uint8_t ESC_WDstatus (void)
 201:Drivers/SOES/Src/esc.c **** {
 527              		.loc 1 201 1 is_stmt 1 view -0
 528              		.cfi_startproc
 529              		@ args = 0, pretend = 0, frame = 8
 530              		@ frame_needed = 0, uses_anonymous_args = 0
 531 0000 00B5     		push	{lr}
 532              		.cfi_def_cfa_offset 4
 533              		.cfi_offset 14, -4
 534 0002 83B0     		sub	sp, sp, #12
 535              		.cfi_def_cfa_offset 16
 202:Drivers/SOES/Src/esc.c ****    uint16_t wdstatus;
 536              		.loc 1 202 4 view .LVU96
 203:Drivers/SOES/Src/esc.c ****    ESC_read (ESCREG_WDSTATUS, &wdstatus, 2);
 537              		.loc 1 203 4 view .LVU97
 538 0004 0222     		movs	r2, #2
 539 0006 0DF10601 		add	r1, sp, #6
 540 000a 4FF48860 		mov	r0, #1088
 541 000e FFF7FEFF 		bl	ESC_read
 542              	.LVL34:
 204:Drivers/SOES/Src/esc.c ****    wdstatus = etohs (wdstatus);
 543              		.loc 1 204 4 view .LVU98
 205:Drivers/SOES/Src/esc.c ****    return (uint8_t) wdstatus;
 544              		.loc 1 205 4 view .LVU99
 206:Drivers/SOES/Src/esc.c **** }
 545              		.loc 1 206 1 is_stmt 0 view .LVU100
 546 0012 9DF80600 		ldrb	r0, [sp, #6]	@ zero_extendqisi2
 547 0016 03B0     		add	sp, sp, #12
 548              		.cfi_def_cfa_offset 4
 549              		@ sp needed
 550 0018 5DF804FB 		ldr	pc, [sp], #4
 551              		.cfi_endproc
 552              	.LFE13:
 554              		.section	.text.ESC_SYNCactivation,"ax",%progbits
 555              		.align	1
 556              		.global	ESC_SYNCactivation
 557              		.syntax unified
 558              		.thumb
 559              		.thumb_func
 561              	ESC_SYNCactivation:
 562              	.LFB14:
ARM GAS  /tmp/cctcjG2K.s 			page 14


 207:Drivers/SOES/Src/esc.c **** 
 208:Drivers/SOES/Src/esc.c **** /** Read SYNC Out Unit activation registers 0x981
 209:Drivers/SOES/Src/esc.c ****  *
 210:Drivers/SOES/Src/esc.c ****  * @return value of register Activation.
 211:Drivers/SOES/Src/esc.c ****  */
 212:Drivers/SOES/Src/esc.c **** uint8_t ESC_SYNCactivation (void)
 213:Drivers/SOES/Src/esc.c **** {
 563              		.loc 1 213 1 is_stmt 1 view -0
 564              		.cfi_startproc
 565              		@ args = 0, pretend = 0, frame = 8
 566              		@ frame_needed = 0, uses_anonymous_args = 0
 567 0000 00B5     		push	{lr}
 568              		.cfi_def_cfa_offset 4
 569              		.cfi_offset 14, -4
 570 0002 83B0     		sub	sp, sp, #12
 571              		.cfi_def_cfa_offset 16
 214:Drivers/SOES/Src/esc.c ****    uint8_t activation;
 572              		.loc 1 214 4 view .LVU102
 215:Drivers/SOES/Src/esc.c ****    ESC_read (ESCREG_SYNC_ACT, &activation, sizeof(activation));
 573              		.loc 1 215 4 view .LVU103
 574 0004 0122     		movs	r2, #1
 575 0006 0DF10701 		add	r1, sp, #7
 576 000a 40F68110 		movw	r0, #2433
 577 000e FFF7FEFF 		bl	ESC_read
 578              	.LVL35:
 216:Drivers/SOES/Src/esc.c ****    return activation;
 579              		.loc 1 216 4 view .LVU104
 217:Drivers/SOES/Src/esc.c **** }
 580              		.loc 1 217 1 is_stmt 0 view .LVU105
 581 0012 9DF80700 		ldrb	r0, [sp, #7]	@ zero_extendqisi2
 582 0016 03B0     		add	sp, sp, #12
 583              		.cfi_def_cfa_offset 4
 584              		@ sp needed
 585 0018 5DF804FB 		ldr	pc, [sp], #4
 586              		.cfi_endproc
 587              	.LFE14:
 589              		.section	.text.ESC_SYNC0cycletime,"ax",%progbits
 590              		.align	1
 591              		.global	ESC_SYNC0cycletime
 592              		.syntax unified
 593              		.thumb
 594              		.thumb_func
 596              	ESC_SYNC0cycletime:
 597              	.LFB15:
 218:Drivers/SOES/Src/esc.c **** 
 219:Drivers/SOES/Src/esc.c **** /** Read SYNC0 cycle time
 220:Drivers/SOES/Src/esc.c ****  *
 221:Drivers/SOES/Src/esc.c ****  * @return value of register SYNC0 cycle time
 222:Drivers/SOES/Src/esc.c ****  */
 223:Drivers/SOES/Src/esc.c **** uint32_t ESC_SYNC0cycletime (void)
 224:Drivers/SOES/Src/esc.c **** {
 598              		.loc 1 224 1 is_stmt 1 view -0
 599              		.cfi_startproc
 600              		@ args = 0, pretend = 0, frame = 8
 601              		@ frame_needed = 0, uses_anonymous_args = 0
 602 0000 00B5     		push	{lr}
 603              		.cfi_def_cfa_offset 4
ARM GAS  /tmp/cctcjG2K.s 			page 15


 604              		.cfi_offset 14, -4
 605 0002 83B0     		sub	sp, sp, #12
 606              		.cfi_def_cfa_offset 16
 225:Drivers/SOES/Src/esc.c ****    uint32_t cycletime;
 607              		.loc 1 225 4 view .LVU107
 226:Drivers/SOES/Src/esc.c ****    ESC_read (ESCREG_SYNC0_CYCLE_TIME, &cycletime, sizeof(cycletime));
 608              		.loc 1 226 4 view .LVU108
 609 0004 0422     		movs	r2, #4
 610 0006 0DEB0201 		add	r1, sp, r2
 611 000a 4FF41A60 		mov	r0, #2464
 612 000e FFF7FEFF 		bl	ESC_read
 613              	.LVL36:
 227:Drivers/SOES/Src/esc.c ****    cycletime = etohl (cycletime);
 614              		.loc 1 227 4 view .LVU109
 228:Drivers/SOES/Src/esc.c ****    return cycletime;
 615              		.loc 1 228 4 view .LVU110
 229:Drivers/SOES/Src/esc.c **** }
 616              		.loc 1 229 1 is_stmt 0 view .LVU111
 617 0012 0198     		ldr	r0, [sp, #4]
 618 0014 03B0     		add	sp, sp, #12
 619              		.cfi_def_cfa_offset 4
 620              		@ sp needed
 621 0016 5DF804FB 		ldr	pc, [sp], #4
 622              		.cfi_endproc
 623              	.LFE15:
 625              		.section	.text.ESC_SYNC1cycletime,"ax",%progbits
 626              		.align	1
 627              		.global	ESC_SYNC1cycletime
 628              		.syntax unified
 629              		.thumb
 630              		.thumb_func
 632              	ESC_SYNC1cycletime:
 633              	.LFB16:
 230:Drivers/SOES/Src/esc.c **** 
 231:Drivers/SOES/Src/esc.c **** /** Read SYNC1 cycle time
 232:Drivers/SOES/Src/esc.c ****  *
 233:Drivers/SOES/Src/esc.c ****  * @return value of register SYNC1 cycle time
 234:Drivers/SOES/Src/esc.c ****  */
 235:Drivers/SOES/Src/esc.c **** uint32_t ESC_SYNC1cycletime (void)
 236:Drivers/SOES/Src/esc.c **** {
 634              		.loc 1 236 1 is_stmt 1 view -0
 635              		.cfi_startproc
 636              		@ args = 0, pretend = 0, frame = 8
 637              		@ frame_needed = 0, uses_anonymous_args = 0
 638 0000 00B5     		push	{lr}
 639              		.cfi_def_cfa_offset 4
 640              		.cfi_offset 14, -4
 641 0002 83B0     		sub	sp, sp, #12
 642              		.cfi_def_cfa_offset 16
 237:Drivers/SOES/Src/esc.c ****    uint32_t cycletime;
 643              		.loc 1 237 4 view .LVU113
 238:Drivers/SOES/Src/esc.c ****    ESC_read (ESCREG_SYNC1_CYCLE_TIME, &cycletime, 4);
 644              		.loc 1 238 4 view .LVU114
 645 0004 0422     		movs	r2, #4
 646 0006 0DEB0201 		add	r1, sp, r2
 647 000a 40F6A410 		movw	r0, #2468
 648 000e FFF7FEFF 		bl	ESC_read
ARM GAS  /tmp/cctcjG2K.s 			page 16


 649              	.LVL37:
 239:Drivers/SOES/Src/esc.c ****    cycletime = etohl (cycletime);
 650              		.loc 1 239 4 view .LVU115
 240:Drivers/SOES/Src/esc.c ****    return cycletime;
 651              		.loc 1 240 4 view .LVU116
 241:Drivers/SOES/Src/esc.c **** }
 652              		.loc 1 241 1 is_stmt 0 view .LVU117
 653 0012 0198     		ldr	r0, [sp, #4]
 654 0014 03B0     		add	sp, sp, #12
 655              		.cfi_def_cfa_offset 4
 656              		@ sp needed
 657 0016 5DF804FB 		ldr	pc, [sp], #4
 658              		.cfi_endproc
 659              	.LFE16:
 661              		.section	.text.ESC_checkDC,"ax",%progbits
 662              		.align	1
 663              		.global	ESC_checkDC
 664              		.syntax unified
 665              		.thumb
 666              		.thumb_func
 668              	ESC_checkDC:
 669              	.LFB17:
 242:Drivers/SOES/Src/esc.c **** 
 243:Drivers/SOES/Src/esc.c **** 
 244:Drivers/SOES/Src/esc.c **** /** Validate the DC values if the SYNC unit is activated.
 245:Drivers/SOES/Src/esc.c ****  *
 246:Drivers/SOES/Src/esc.c ****  * @return = 0 if OK, else ERROR code to be set by caller.
 247:Drivers/SOES/Src/esc.c ****  */
 248:Drivers/SOES/Src/esc.c **** uint16_t ESC_checkDC (void)
 249:Drivers/SOES/Src/esc.c **** {
 670              		.loc 1 249 1 is_stmt 1 view -0
 671              		.cfi_startproc
 672              		@ args = 0, pretend = 0, frame = 0
 673              		@ frame_needed = 0, uses_anonymous_args = 0
 674 0000 08B5     		push	{r3, lr}
 675              		.cfi_def_cfa_offset 8
 676              		.cfi_offset 3, -8
 677              		.cfi_offset 14, -4
 250:Drivers/SOES/Src/esc.c ****    uint16_t ret = 0;
 678              		.loc 1 250 4 view .LVU119
 679              	.LVL38:
 251:Drivers/SOES/Src/esc.c **** 
 252:Drivers/SOES/Src/esc.c ****    uint8_t sync_act = ESC_SYNCactivation();
 680              		.loc 1 252 4 view .LVU120
 681              		.loc 1 252 23 is_stmt 0 view .LVU121
 682 0002 FFF7FEFF 		bl	ESC_SYNCactivation
 683              	.LVL39:
 253:Drivers/SOES/Src/esc.c ****    /* Do we need to check sync settings? */
 254:Drivers/SOES/Src/esc.c ****    if((sync_act & (ESCREG_SYNC_ACT_ACTIVATED | ESCREG_SYNC_AUTO_ACTIVATED)) > 0)
 684              		.loc 1 254 4 is_stmt 1 view .LVU122
 685              		.loc 1 254 6 is_stmt 0 view .LVU123
 686 0006 10F0090F 		tst	r0, #9
 687 000a 04D0     		beq	.L48
 255:Drivers/SOES/Src/esc.c ****    {
 256:Drivers/SOES/Src/esc.c ****       /* Trigger a by the application given DC check handler, return error if
 257:Drivers/SOES/Src/esc.c ****        *  non is given
 258:Drivers/SOES/Src/esc.c ****        */
ARM GAS  /tmp/cctcjG2K.s 			page 17


 259:Drivers/SOES/Src/esc.c ****       ret = ALERR_DCINVALIDSYNCCFG;
 688              		.loc 1 259 7 is_stmt 1 view .LVU124
 689              	.LVL40:
 260:Drivers/SOES/Src/esc.c ****       if(ESCvar.esc_check_dc_handler != NULL)
 690              		.loc 1 260 7 view .LVU125
 691              		.loc 1 260 16 is_stmt 0 view .LVU126
 692 000c 064B     		ldr	r3, .L52
 693 000e 1B6E     		ldr	r3, [r3, #96]
 694              		.loc 1 260 9 view .LVU127
 695 0010 43B1     		cbz	r3, .L50
 261:Drivers/SOES/Src/esc.c ****       {
 262:Drivers/SOES/Src/esc.c ****          ret = (ESCvar.esc_check_dc_handler)();
 696              		.loc 1 262 10 is_stmt 1 view .LVU128
 697              		.loc 1 262 23 is_stmt 0 view .LVU129
 698 0012 9847     		blx	r3
 699              	.LVL41:
 700              		.loc 1 262 23 view .LVU130
 701 0014 05E0     		b	.L49
 702              	.LVL42:
 703              	.L48:
 263:Drivers/SOES/Src/esc.c ****       }
 264:Drivers/SOES/Src/esc.c ****    }
 265:Drivers/SOES/Src/esc.c ****    else
 266:Drivers/SOES/Src/esc.c ****    {
 267:Drivers/SOES/Src/esc.c ****       ESCvar.dcsync = 0;
 704              		.loc 1 267 7 is_stmt 1 view .LVU131
 705              		.loc 1 267 21 is_stmt 0 view .LVU132
 706 0016 044B     		ldr	r3, .L52
 707 0018 0020     		movs	r0, #0
 708              	.LVL43:
 709              		.loc 1 267 21 view .LVU133
 710 001a 83F87800 		strb	r0, [r3, #120]
 268:Drivers/SOES/Src/esc.c ****       ESCvar.synccounter = 0;
 711              		.loc 1 268 7 is_stmt 1 view .LVU134
 712              		.loc 1 268 26 is_stmt 0 view .LVU135
 713 001e 83F8DE00 		strb	r0, [r3, #222]
 714              	.LVL44:
 715              	.L49:
 269:Drivers/SOES/Src/esc.c ****    }
 270:Drivers/SOES/Src/esc.c **** 
 271:Drivers/SOES/Src/esc.c ****    return ret;
 716              		.loc 1 271 4 is_stmt 1 view .LVU136
 272:Drivers/SOES/Src/esc.c **** }
 717              		.loc 1 272 1 is_stmt 0 view .LVU137
 718 0022 08BD     		pop	{r3, pc}
 719              	.LVL45:
 720              	.L50:
 259:Drivers/SOES/Src/esc.c ****       if(ESCvar.esc_check_dc_handler != NULL)
 721              		.loc 1 259 11 view .LVU138
 722 0024 3020     		movs	r0, #48
 723              	.LVL46:
 259:Drivers/SOES/Src/esc.c ****       if(ESCvar.esc_check_dc_handler != NULL)
 724              		.loc 1 259 11 view .LVU139
 725 0026 FCE7     		b	.L49
 726              	.L53:
 727              		.align	2
 728              	.L52:
ARM GAS  /tmp/cctcjG2K.s 			page 18


 729 0028 00000000 		.word	ESCvar
 730              		.cfi_endproc
 731              	.LFE17:
 733              		.section	.text.ESC_checkmbx,"ax",%progbits
 734              		.align	1
 735              		.global	ESC_checkmbx
 736              		.syntax unified
 737              		.thumb
 738              		.thumb_func
 740              	ESC_checkmbx:
 741              	.LVL47:
 742              	.LFB18:
 273:Drivers/SOES/Src/esc.c **** 
 274:Drivers/SOES/Src/esc.c **** /** Check mailbox status by reading all SyncManager 0 and 1 data. The read values
 275:Drivers/SOES/Src/esc.c ****  * are compared with local definitions for SM Physical Address, SM Length and SM Control.
 276:Drivers/SOES/Src/esc.c ****  * If we check fails we disable Mailboxes by disabling SyncManager 0 and 1 and return
 277:Drivers/SOES/Src/esc.c ****  * state Init with Error flag set.
 278:Drivers/SOES/Src/esc.c ****  *
 279:Drivers/SOES/Src/esc.c ****  * @param[in] state   = Current state request read from ALControl 0x0120
 280:Drivers/SOES/Src/esc.c ****  * @return if all Mailbox values is correct we return incoming state request, otherwise
 281:Drivers/SOES/Src/esc.c ****  * we return state Init with Error flag set.
 282:Drivers/SOES/Src/esc.c ****  */
 283:Drivers/SOES/Src/esc.c **** uint8_t ESC_checkmbx (uint8_t state)
 284:Drivers/SOES/Src/esc.c **** {
 743              		.loc 1 284 1 is_stmt 1 view -0
 744              		.cfi_startproc
 745              		@ args = 0, pretend = 0, frame = 0
 746              		@ frame_needed = 0, uses_anonymous_args = 0
 747              		.loc 1 284 1 is_stmt 0 view .LVU141
 748 0000 38B5     		push	{r3, r4, r5, lr}
 749              		.cfi_def_cfa_offset 16
 750              		.cfi_offset 3, -16
 751              		.cfi_offset 4, -12
 752              		.cfi_offset 5, -8
 753              		.cfi_offset 14, -4
 754 0002 0546     		mov	r5, r0
 285:Drivers/SOES/Src/esc.c ****    _ESCsm2 *SM;
 755              		.loc 1 285 4 is_stmt 1 view .LVU142
 286:Drivers/SOES/Src/esc.c ****    ESC_read (ESCREG_SM0, (void *) &ESCvar.SM[0], sizeof (ESCvar.SM[0]));
 756              		.loc 1 286 4 view .LVU143
 757 0004 2B4C     		ldr	r4, .L61
 758 0006 0822     		movs	r2, #8
 759 0008 2146     		mov	r1, r4
 760 000a 4FF40060 		mov	r0, #2048
 761              	.LVL48:
 762              		.loc 1 286 4 is_stmt 0 view .LVU144
 763 000e FFF7FEFF 		bl	ESC_read
 764              	.LVL49:
 287:Drivers/SOES/Src/esc.c ****    ESC_read (ESCREG_SM1, (void *) &ESCvar.SM[1], sizeof (ESCvar.SM[1]));
 765              		.loc 1 287 4 is_stmt 1 view .LVU145
 766 0012 0822     		movs	r2, #8
 767 0014 A118     		adds	r1, r4, r2
 768 0016 40F60800 		movw	r0, #2056
 769 001a FFF7FEFF 		bl	ESC_read
 770              	.LVL50:
 288:Drivers/SOES/Src/esc.c ****    SM = (_ESCsm2 *) & ESCvar.SM[0];
 771              		.loc 1 288 4 view .LVU146
ARM GAS  /tmp/cctcjG2K.s 			page 19


 289:Drivers/SOES/Src/esc.c ****    if ((etohs (SM->PSA) != ESC_MBX0_sma) || (etohs (SM->Length) != ESC_MBX0_sml)
 772              		.loc 1 289 4 view .LVU147
 773              		.loc 1 289 9 is_stmt 0 view .LVU148
 774 001e 34F8B419 		ldrh	r1, [r4], #-180
 775              	.LVL51:
 776              		.loc 1 289 28 view .LVU149
 777 0022 E36E     		ldr	r3, [r4, #108]
 778 0024 1A88     		ldrh	r2, [r3]
 779              		.loc 1 289 7 view .LVU150
 780 0026 9142     		cmp	r1, r2
 781 0028 2CD1     		bne	.L55
 782              		.loc 1 289 46 discriminator 1 view .LVU151
 783 002a 234A     		ldr	r2, .L61+4
 784 002c B2F8B610 		ldrh	r1, [r2, #182]
 785              		.loc 1 289 68 discriminator 1 view .LVU152
 786 0030 5A88     		ldrh	r2, [r3, #2]
 787              		.loc 1 289 42 discriminator 1 view .LVU153
 788 0032 9142     		cmp	r1, r2
 789 0034 26D1     		bne	.L55
 290:Drivers/SOES/Src/esc.c ****        || (SM->Command != ESC_MBX0_smc) || (ESCvar.SM[0].ECsm == 0))
 790              		.loc 1 290 14 view .LVU154
 791 0036 204A     		ldr	r2, .L61+4
 792 0038 92F8B820 		ldrb	r2, [r2, #184]	@ zero_extendqisi2
 793              		.loc 1 290 27 view .LVU155
 794 003c 9B79     		ldrb	r3, [r3, #6]	@ zero_extendqisi2
 795              		.loc 1 290 8 view .LVU156
 796 003e 9A42     		cmp	r2, r3
 797 0040 20D1     		bne	.L55
 798              		.loc 1 290 63 discriminator 1 view .LVU157
 799 0042 1D4B     		ldr	r3, .L61+4
 800 0044 93F8BA30 		ldrb	r3, [r3, #186]	@ zero_extendqisi2
 801              		.loc 1 290 41 discriminator 1 view .LVU158
 802 0048 13F0010F 		tst	r3, #1
 803 004c 1AD0     		beq	.L55
 291:Drivers/SOES/Src/esc.c ****    {
 292:Drivers/SOES/Src/esc.c ****       ESCvar.SMtestresult = SMRESULT_ERRSM0;
 293:Drivers/SOES/Src/esc.c ****       ESC_SMdisable (0);
 294:Drivers/SOES/Src/esc.c ****       ESC_SMdisable (1);
 295:Drivers/SOES/Src/esc.c ****       return (uint8_t) (ESCinit | ESCerror);      //fail state change
 296:Drivers/SOES/Src/esc.c ****    }
 297:Drivers/SOES/Src/esc.c ****    SM = (_ESCsm2 *) & ESCvar.SM[1];
 804              		.loc 1 297 4 is_stmt 1 view .LVU159
 805              	.LVL52:
 298:Drivers/SOES/Src/esc.c ****    if ((etohs (SM->PSA) != ESC_MBX1_sma) || (etohs (SM->Length) != ESC_MBX1_sml)
 806              		.loc 1 298 4 view .LVU160
 807              		.loc 1 298 9 is_stmt 0 view .LVU161
 808 004e 1A4B     		ldr	r3, .L61+4
 809 0050 B3F8BC10 		ldrh	r1, [r3, #188]
 810              		.loc 1 298 28 view .LVU162
 811 0054 1B6F     		ldr	r3, [r3, #112]
 812 0056 1A88     		ldrh	r2, [r3]
 813              		.loc 1 298 7 view .LVU163
 814 0058 9142     		cmp	r1, r2
 815 005a 1FD1     		bne	.L58
 816              		.loc 1 298 46 discriminator 1 view .LVU164
 817 005c 164A     		ldr	r2, .L61+4
 818 005e B2F8BE10 		ldrh	r1, [r2, #190]
ARM GAS  /tmp/cctcjG2K.s 			page 20


 819              		.loc 1 298 68 discriminator 1 view .LVU165
 820 0062 5A88     		ldrh	r2, [r3, #2]
 821              		.loc 1 298 42 discriminator 1 view .LVU166
 822 0064 9142     		cmp	r1, r2
 823 0066 19D1     		bne	.L58
 299:Drivers/SOES/Src/esc.c ****        || (SM->Command != ESC_MBX1_smc) || (ESCvar.SM[1].ECsm == 0))
 824              		.loc 1 299 14 view .LVU167
 825 0068 134A     		ldr	r2, .L61+4
 826 006a 92F8C020 		ldrb	r2, [r2, #192]	@ zero_extendqisi2
 827              		.loc 1 299 27 view .LVU168
 828 006e 9B79     		ldrb	r3, [r3, #6]	@ zero_extendqisi2
 829              		.loc 1 299 8 view .LVU169
 830 0070 9A42     		cmp	r2, r3
 831 0072 13D1     		bne	.L58
 832              		.loc 1 299 63 discriminator 1 view .LVU170
 833 0074 104B     		ldr	r3, .L61+4
 834 0076 93F8C230 		ldrb	r3, [r3, #194]	@ zero_extendqisi2
 835              		.loc 1 299 41 discriminator 1 view .LVU171
 836 007a 13F0010F 		tst	r3, #1
 837 007e 0DD0     		beq	.L58
 300:Drivers/SOES/Src/esc.c ****    {
 301:Drivers/SOES/Src/esc.c ****       ESCvar.SMtestresult = SMRESULT_ERRSM1;
 302:Drivers/SOES/Src/esc.c ****       ESC_SMdisable (0);
 303:Drivers/SOES/Src/esc.c ****       ESC_SMdisable (1);
 304:Drivers/SOES/Src/esc.c ****       return ESCinit | ESCerror;        //fail state change
 305:Drivers/SOES/Src/esc.c ****    }
 306:Drivers/SOES/Src/esc.c ****    return state;
 838              		.loc 1 306 11 view .LVU172
 839 0080 2846     		mov	r0, r5
 840 0082 0AE0     		b	.L57
 841              	.LVL53:
 842              	.L55:
 292:Drivers/SOES/Src/esc.c ****       ESC_SMdisable (0);
 843              		.loc 1 292 7 is_stmt 1 view .LVU173
 292:Drivers/SOES/Src/esc.c ****       ESC_SMdisable (0);
 844              		.loc 1 292 27 is_stmt 0 view .LVU174
 845 0084 0124     		movs	r4, #1
 846 0086 0C4B     		ldr	r3, .L61+4
 847 0088 83F8AC40 		strb	r4, [r3, #172]
 293:Drivers/SOES/Src/esc.c ****       ESC_SMdisable (1);
 848              		.loc 1 293 7 is_stmt 1 view .LVU175
 849 008c 0020     		movs	r0, #0
 850 008e FFF7FEFF 		bl	ESC_SMdisable
 851              	.LVL54:
 294:Drivers/SOES/Src/esc.c ****       return (uint8_t) (ESCinit | ESCerror);      //fail state change
 852              		.loc 1 294 7 view .LVU176
 853 0092 2046     		mov	r0, r4
 854 0094 FFF7FEFF 		bl	ESC_SMdisable
 855              	.LVL55:
 295:Drivers/SOES/Src/esc.c ****    }
 856              		.loc 1 295 7 view .LVU177
 295:Drivers/SOES/Src/esc.c ****    }
 857              		.loc 1 295 14 is_stmt 0 view .LVU178
 858 0098 1120     		movs	r0, #17
 859              	.LVL56:
 860              	.L57:
 307:Drivers/SOES/Src/esc.c **** }
ARM GAS  /tmp/cctcjG2K.s 			page 21


 861              		.loc 1 307 1 view .LVU179
 862 009a 38BD     		pop	{r3, r4, r5, pc}
 863              	.LVL57:
 864              	.L58:
 301:Drivers/SOES/Src/esc.c ****       ESC_SMdisable (0);
 865              		.loc 1 301 7 is_stmt 1 view .LVU180
 301:Drivers/SOES/Src/esc.c ****       ESC_SMdisable (0);
 866              		.loc 1 301 27 is_stmt 0 view .LVU181
 867 009c 064B     		ldr	r3, .L61+4
 868 009e 0222     		movs	r2, #2
 869 00a0 83F8AC20 		strb	r2, [r3, #172]
 302:Drivers/SOES/Src/esc.c ****       ESC_SMdisable (1);
 870              		.loc 1 302 7 is_stmt 1 view .LVU182
 871 00a4 0020     		movs	r0, #0
 872 00a6 FFF7FEFF 		bl	ESC_SMdisable
 873              	.LVL58:
 303:Drivers/SOES/Src/esc.c ****       return ESCinit | ESCerror;        //fail state change
 874              		.loc 1 303 7 view .LVU183
 875 00aa 0120     		movs	r0, #1
 876 00ac FFF7FEFF 		bl	ESC_SMdisable
 877              	.LVL59:
 304:Drivers/SOES/Src/esc.c ****    }
 878              		.loc 1 304 7 view .LVU184
 304:Drivers/SOES/Src/esc.c ****    }
 879              		.loc 1 304 14 is_stmt 0 view .LVU185
 880 00b0 1120     		movs	r0, #17
 881 00b2 F2E7     		b	.L57
 882              	.L62:
 883              		.align	2
 884              	.L61:
 885 00b4 B4000000 		.word	ESCvar+180
 886 00b8 00000000 		.word	ESCvar
 887              		.cfi_endproc
 888              	.LFE18:
 890              		.section	.text.ESC_startmbx,"ax",%progbits
 891              		.align	1
 892              		.global	ESC_startmbx
 893              		.syntax unified
 894              		.thumb
 895              		.thumb_func
 897              	ESC_startmbx:
 898              	.LVL60:
 899              	.LFB19:
 308:Drivers/SOES/Src/esc.c **** /** Try to start mailboxes for current ALControl state request by enabling SyncManager 0 and 1.
 309:Drivers/SOES/Src/esc.c ****  * If all mailbox settings is correct we return incoming state request, otherwise
 310:Drivers/SOES/Src/esc.c ****  * we return state Init with Error flag set and update local ALerror with code 0x16 Invalid
 311:Drivers/SOES/Src/esc.c ****  * mailbox configuration.
 312:Drivers/SOES/Src/esc.c ****  *
 313:Drivers/SOES/Src/esc.c ****  * @param[in] state   = Current state request read from ALControl 0x0120
 314:Drivers/SOES/Src/esc.c ****  * @return if all Mailbox values is correct we return incoming state, otherwise
 315:Drivers/SOES/Src/esc.c ****  * we return state Init with Error flag set.
 316:Drivers/SOES/Src/esc.c ****  */
 317:Drivers/SOES/Src/esc.c **** uint8_t ESC_startmbx (uint8_t state)
 318:Drivers/SOES/Src/esc.c **** {
 900              		.loc 1 318 1 is_stmt 1 view -0
 901              		.cfi_startproc
 902              		@ args = 0, pretend = 0, frame = 0
ARM GAS  /tmp/cctcjG2K.s 			page 22


 903              		@ frame_needed = 0, uses_anonymous_args = 0
 904              		.loc 1 318 1 is_stmt 0 view .LVU187
 905 0000 10B5     		push	{r4, lr}
 906              		.cfi_def_cfa_offset 8
 907              		.cfi_offset 4, -8
 908              		.cfi_offset 14, -4
 909 0002 0446     		mov	r4, r0
 319:Drivers/SOES/Src/esc.c ****    /* Assign SM settings */
 320:Drivers/SOES/Src/esc.c ****    ESCvar.activembxsize = MBXSIZE;
 910              		.loc 1 320 4 is_stmt 1 view .LVU188
 911              		.loc 1 320 25 is_stmt 0 view .LVU189
 912 0004 174B     		ldr	r3, .L68
 913 0006 4FF40072 		mov	r2, #512
 914 000a 9A66     		str	r2, [r3, #104]
 321:Drivers/SOES/Src/esc.c ****    ESCvar.activemb0 = &ESCvar.mb[0];
 915              		.loc 1 321 4 is_stmt 1 view .LVU190
 916              		.loc 1 321 21 is_stmt 0 view .LVU191
 917 000c 1A1D     		adds	r2, r3, #4
 918 000e DA66     		str	r2, [r3, #108]
 322:Drivers/SOES/Src/esc.c ****    ESCvar.activemb1 = &ESCvar.mb[1];
 919              		.loc 1 322 4 is_stmt 1 view .LVU192
 920              		.loc 1 322 21 is_stmt 0 view .LVU193
 921 0010 03F10C02 		add	r2, r3, #12
 922 0014 1A67     		str	r2, [r3, #112]
 323:Drivers/SOES/Src/esc.c **** 
 324:Drivers/SOES/Src/esc.c **** 
 325:Drivers/SOES/Src/esc.c ****    ESC_SMenable (0);
 923              		.loc 1 325 4 is_stmt 1 view .LVU194
 924 0016 0020     		movs	r0, #0
 925              	.LVL61:
 926              		.loc 1 325 4 is_stmt 0 view .LVU195
 927 0018 FFF7FEFF 		bl	ESC_SMenable
 928              	.LVL62:
 326:Drivers/SOES/Src/esc.c ****    ESC_SMenable (1);
 929              		.loc 1 326 4 is_stmt 1 view .LVU196
 930 001c 0120     		movs	r0, #1
 931 001e FFF7FEFF 		bl	ESC_SMenable
 932              	.LVL63:
 327:Drivers/SOES/Src/esc.c ****    ESC_SMstatus (0);
 933              		.loc 1 327 4 view .LVU197
 934 0022 0020     		movs	r0, #0
 935 0024 FFF7FEFF 		bl	ESC_SMstatus
 936              	.LVL64:
 328:Drivers/SOES/Src/esc.c ****    ESC_SMstatus (1);
 937              		.loc 1 328 4 view .LVU198
 938 0028 0120     		movs	r0, #1
 939 002a FFF7FEFF 		bl	ESC_SMstatus
 940              	.LVL65:
 329:Drivers/SOES/Src/esc.c ****    if ((state = ESC_checkmbx (state)) & ESCerror)
 941              		.loc 1 329 4 view .LVU199
 942              		.loc 1 329 17 is_stmt 0 view .LVU200
 943 002e 2046     		mov	r0, r4
 944 0030 FFF7FEFF 		bl	ESC_checkmbx
 945              	.LVL66:
 946 0034 0446     		mov	r4, r0
 947              	.LVL67:
 948              		.loc 1 329 7 view .LVU201
ARM GAS  /tmp/cctcjG2K.s 			page 23


 949 0036 10F0100F 		tst	r0, #16
 950 003a 0BD1     		bne	.L67
 330:Drivers/SOES/Src/esc.c ****    {
 331:Drivers/SOES/Src/esc.c ****       ESC_ALerror (ALERR_INVALIDMBXCONFIG);
 332:Drivers/SOES/Src/esc.c ****       ESCvar.MBXrun = 0;
 333:Drivers/SOES/Src/esc.c ****    }
 334:Drivers/SOES/Src/esc.c ****    else
 335:Drivers/SOES/Src/esc.c ****    {
 336:Drivers/SOES/Src/esc.c ****       ESCvar.toggle = ESCvar.SM[1].ECrep;       //sync repeat request toggle state
 951              		.loc 1 336 7 is_stmt 1 view .LVU202
 952              		.loc 1 336 35 is_stmt 0 view .LVU203
 953 003c 094B     		ldr	r3, .L68
 954 003e 93F8C220 		ldrb	r2, [r3, #194]	@ zero_extendqisi2
 955 0042 C2F34002 		ubfx	r2, r2, #1, #1
 956              		.loc 1 336 21 view .LVU204
 957 0046 83F8A020 		strb	r2, [r3, #160]
 337:Drivers/SOES/Src/esc.c ****       ESCvar.MBXrun = 1;
 958              		.loc 1 337 7 is_stmt 1 view .LVU205
 959              		.loc 1 337 21 is_stmt 0 view .LVU206
 960 004a 0122     		movs	r2, #1
 961 004c 83F86420 		strb	r2, [r3, #100]
 962              	.LVL68:
 963              	.L65:
 338:Drivers/SOES/Src/esc.c ****    }
 339:Drivers/SOES/Src/esc.c ****    return state;
 964              		.loc 1 339 4 is_stmt 1 view .LVU207
 340:Drivers/SOES/Src/esc.c **** }
 965              		.loc 1 340 1 is_stmt 0 view .LVU208
 966 0050 2046     		mov	r0, r4
 967 0052 10BD     		pop	{r4, pc}
 968              	.LVL69:
 969              	.L67:
 331:Drivers/SOES/Src/esc.c ****       ESCvar.MBXrun = 0;
 970              		.loc 1 331 7 is_stmt 1 view .LVU209
 971 0054 1620     		movs	r0, #22
 972              	.LVL70:
 331:Drivers/SOES/Src/esc.c ****       ESCvar.MBXrun = 0;
 973              		.loc 1 331 7 is_stmt 0 view .LVU210
 974 0056 FFF7FEFF 		bl	ESC_ALerror
 975              	.LVL71:
 332:Drivers/SOES/Src/esc.c ****    }
 976              		.loc 1 332 7 is_stmt 1 view .LVU211
 332:Drivers/SOES/Src/esc.c ****    }
 977              		.loc 1 332 21 is_stmt 0 view .LVU212
 978 005a 024B     		ldr	r3, .L68
 979 005c 0022     		movs	r2, #0
 980 005e 83F86420 		strb	r2, [r3, #100]
 981 0062 F5E7     		b	.L65
 982              	.L69:
 983              		.align	2
 984              	.L68:
 985 0064 00000000 		.word	ESCvar
 986              		.cfi_endproc
 987              	.LFE19:
 989              		.section	.text.ESC_startmbxboot,"ax",%progbits
 990              		.align	1
 991              		.global	ESC_startmbxboot
ARM GAS  /tmp/cctcjG2K.s 			page 24


 992              		.syntax unified
 993              		.thumb
 994              		.thumb_func
 996              	ESC_startmbxboot:
 997              	.LVL72:
 998              	.LFB20:
 341:Drivers/SOES/Src/esc.c **** 
 342:Drivers/SOES/Src/esc.c **** /** Try to start bootstrap mailboxes for current ALControl state request by enabling SyncManager 0 
 343:Drivers/SOES/Src/esc.c ****  * If all mailbox settings is correct we return incoming state request, otherwise
 344:Drivers/SOES/Src/esc.c ****  * we return state Init with Error flag set and update local ALerror with code 0x16 Invalid
 345:Drivers/SOES/Src/esc.c ****  * mailbox configuration.
 346:Drivers/SOES/Src/esc.c ****  *
 347:Drivers/SOES/Src/esc.c ****  * @param[in] state   = Current state request read from ALControl 0x0120
 348:Drivers/SOES/Src/esc.c ****  * @return if all Mailbox values is correct we return incoming state, otherwise
 349:Drivers/SOES/Src/esc.c ****  * we return state Init with Error flag set.
 350:Drivers/SOES/Src/esc.c ****  */
 351:Drivers/SOES/Src/esc.c **** uint8_t ESC_startmbxboot (uint8_t state)
 352:Drivers/SOES/Src/esc.c **** {
 999              		.loc 1 352 1 is_stmt 1 view -0
 1000              		.cfi_startproc
 1001              		@ args = 0, pretend = 0, frame = 0
 1002              		@ frame_needed = 0, uses_anonymous_args = 0
 1003              		.loc 1 352 1 is_stmt 0 view .LVU214
 1004 0000 10B5     		push	{r4, lr}
 1005              		.cfi_def_cfa_offset 8
 1006              		.cfi_offset 4, -8
 1007              		.cfi_offset 14, -4
 1008 0002 0446     		mov	r4, r0
 353:Drivers/SOES/Src/esc.c ****    /* Assign SM settings */
 354:Drivers/SOES/Src/esc.c ****    ESCvar.activembxsize = MBXSIZEBOOT;
 1009              		.loc 1 354 4 is_stmt 1 view .LVU215
 1010              		.loc 1 354 25 is_stmt 0 view .LVU216
 1011 0004 184B     		ldr	r3, .L75
 1012 0006 4FF40072 		mov	r2, #512
 1013 000a 9A66     		str	r2, [r3, #104]
 355:Drivers/SOES/Src/esc.c ****    ESCvar.activemb0 = &ESCvar.mbboot[0];
 1014              		.loc 1 355 4 is_stmt 1 view .LVU217
 1015              		.loc 1 355 21 is_stmt 0 view .LVU218
 1016 000c 03F11402 		add	r2, r3, #20
 1017 0010 DA66     		str	r2, [r3, #108]
 356:Drivers/SOES/Src/esc.c ****    ESCvar.activemb1 = &ESCvar.mbboot[1];
 1018              		.loc 1 356 4 is_stmt 1 view .LVU219
 1019              		.loc 1 356 21 is_stmt 0 view .LVU220
 1020 0012 03F11C02 		add	r2, r3, #28
 1021 0016 1A67     		str	r2, [r3, #112]
 357:Drivers/SOES/Src/esc.c **** 
 358:Drivers/SOES/Src/esc.c ****    ESC_SMenable (0);
 1022              		.loc 1 358 4 is_stmt 1 view .LVU221
 1023 0018 0020     		movs	r0, #0
 1024              	.LVL73:
 1025              		.loc 1 358 4 is_stmt 0 view .LVU222
 1026 001a FFF7FEFF 		bl	ESC_SMenable
 1027              	.LVL74:
 359:Drivers/SOES/Src/esc.c ****    ESC_SMenable (1);
 1028              		.loc 1 359 4 is_stmt 1 view .LVU223
 1029 001e 0120     		movs	r0, #1
 1030 0020 FFF7FEFF 		bl	ESC_SMenable
ARM GAS  /tmp/cctcjG2K.s 			page 25


 1031              	.LVL75:
 360:Drivers/SOES/Src/esc.c ****    ESC_SMstatus (0);
 1032              		.loc 1 360 4 view .LVU224
 1033 0024 0020     		movs	r0, #0
 1034 0026 FFF7FEFF 		bl	ESC_SMstatus
 1035              	.LVL76:
 361:Drivers/SOES/Src/esc.c ****    ESC_SMstatus (1);
 1036              		.loc 1 361 4 view .LVU225
 1037 002a 0120     		movs	r0, #1
 1038 002c FFF7FEFF 		bl	ESC_SMstatus
 1039              	.LVL77:
 362:Drivers/SOES/Src/esc.c ****    if ((state = ESC_checkmbx (state)) & ESCerror)
 1040              		.loc 1 362 4 view .LVU226
 1041              		.loc 1 362 17 is_stmt 0 view .LVU227
 1042 0030 2046     		mov	r0, r4
 1043 0032 FFF7FEFF 		bl	ESC_checkmbx
 1044              	.LVL78:
 1045 0036 0446     		mov	r4, r0
 1046              	.LVL79:
 1047              		.loc 1 362 7 view .LVU228
 1048 0038 10F0100F 		tst	r0, #16
 1049 003c 0BD1     		bne	.L74
 363:Drivers/SOES/Src/esc.c ****    {
 364:Drivers/SOES/Src/esc.c ****       ESC_ALerror (ALERR_INVALIDBOOTMBXCONFIG);
 365:Drivers/SOES/Src/esc.c ****       ESCvar.MBXrun = 0;
 366:Drivers/SOES/Src/esc.c ****    }
 367:Drivers/SOES/Src/esc.c ****    else
 368:Drivers/SOES/Src/esc.c ****    {
 369:Drivers/SOES/Src/esc.c ****       ESCvar.toggle = ESCvar.SM[1].ECrep;       //sync repeat request toggle state
 1050              		.loc 1 369 7 is_stmt 1 view .LVU229
 1051              		.loc 1 369 35 is_stmt 0 view .LVU230
 1052 003e 0A4B     		ldr	r3, .L75
 1053 0040 93F8C220 		ldrb	r2, [r3, #194]	@ zero_extendqisi2
 1054 0044 C2F34002 		ubfx	r2, r2, #1, #1
 1055              		.loc 1 369 21 view .LVU231
 1056 0048 83F8A020 		strb	r2, [r3, #160]
 370:Drivers/SOES/Src/esc.c ****       ESCvar.MBXrun = 1;
 1057              		.loc 1 370 7 is_stmt 1 view .LVU232
 1058              		.loc 1 370 21 is_stmt 0 view .LVU233
 1059 004c 0122     		movs	r2, #1
 1060 004e 83F86420 		strb	r2, [r3, #100]
 1061              	.LVL80:
 1062              	.L72:
 371:Drivers/SOES/Src/esc.c ****    }
 372:Drivers/SOES/Src/esc.c ****    return state;
 1063              		.loc 1 372 4 is_stmt 1 view .LVU234
 373:Drivers/SOES/Src/esc.c **** }
 1064              		.loc 1 373 1 is_stmt 0 view .LVU235
 1065 0052 2046     		mov	r0, r4
 1066 0054 10BD     		pop	{r4, pc}
 1067              	.LVL81:
 1068              	.L74:
 364:Drivers/SOES/Src/esc.c ****       ESCvar.MBXrun = 0;
 1069              		.loc 1 364 7 is_stmt 1 view .LVU236
 1070 0056 1520     		movs	r0, #21
 1071              	.LVL82:
 364:Drivers/SOES/Src/esc.c ****       ESCvar.MBXrun = 0;
ARM GAS  /tmp/cctcjG2K.s 			page 26


 1072              		.loc 1 364 7 is_stmt 0 view .LVU237
 1073 0058 FFF7FEFF 		bl	ESC_ALerror
 1074              	.LVL83:
 365:Drivers/SOES/Src/esc.c ****    }
 1075              		.loc 1 365 7 is_stmt 1 view .LVU238
 365:Drivers/SOES/Src/esc.c ****    }
 1076              		.loc 1 365 21 is_stmt 0 view .LVU239
 1077 005c 024B     		ldr	r3, .L75
 1078 005e 0022     		movs	r2, #0
 1079 0060 83F86420 		strb	r2, [r3, #100]
 1080 0064 F5E7     		b	.L72
 1081              	.L76:
 1082 0066 00BF     		.align	2
 1083              	.L75:
 1084 0068 00000000 		.word	ESCvar
 1085              		.cfi_endproc
 1086              	.LFE20:
 1088              		.section	.text.ESC_stopmbx,"ax",%progbits
 1089              		.align	1
 1090              		.global	ESC_stopmbx
 1091              		.syntax unified
 1092              		.thumb
 1093              		.thumb_func
 1095              	ESC_stopmbx:
 1096              	.LFB21:
 374:Drivers/SOES/Src/esc.c **** 
 375:Drivers/SOES/Src/esc.c **** /** Stop mailboxes by disabling SyncManager 0 and 1. Clear local mailbox variables
 376:Drivers/SOES/Src/esc.c ****  * stored in ESCvar.
 377:Drivers/SOES/Src/esc.c ****  */
 378:Drivers/SOES/Src/esc.c **** void ESC_stopmbx (void)
 379:Drivers/SOES/Src/esc.c **** {
 1097              		.loc 1 379 1 is_stmt 1 view -0
 1098              		.cfi_startproc
 1099              		@ args = 0, pretend = 0, frame = 0
 1100              		@ frame_needed = 0, uses_anonymous_args = 0
 1101 0000 10B5     		push	{r4, lr}
 1102              		.cfi_def_cfa_offset 8
 1103              		.cfi_offset 4, -8
 1104              		.cfi_offset 14, -4
 380:Drivers/SOES/Src/esc.c ****    uint8_t n;
 1105              		.loc 1 380 4 view .LVU241
 381:Drivers/SOES/Src/esc.c ****    ESCvar.MBXrun = 0;
 1106              		.loc 1 381 4 view .LVU242
 1107              		.loc 1 381 18 is_stmt 0 view .LVU243
 1108 0002 0024     		movs	r4, #0
 1109 0004 174B     		ldr	r3, .L81
 1110 0006 83F86440 		strb	r4, [r3, #100]
 382:Drivers/SOES/Src/esc.c ****    ESC_SMdisable (0);
 1111              		.loc 1 382 4 is_stmt 1 view .LVU244
 1112 000a 2046     		mov	r0, r4
 1113 000c FFF7FEFF 		bl	ESC_SMdisable
 1114              	.LVL84:
 383:Drivers/SOES/Src/esc.c ****    ESC_SMdisable (1);
 1115              		.loc 1 383 4 view .LVU245
 1116 0010 0120     		movs	r0, #1
 1117 0012 FFF7FEFF 		bl	ESC_SMdisable
 1118              	.LVL85:
ARM GAS  /tmp/cctcjG2K.s 			page 27


 384:Drivers/SOES/Src/esc.c ****    for (n = 0; n < ESC_MBXBUFFERS; n++)
 1119              		.loc 1 384 4 view .LVU246
 1120              		.loc 1 384 11 is_stmt 0 view .LVU247
 1121 0016 2046     		mov	r0, r4
 1122              		.loc 1 384 4 view .LVU248
 1123 0018 04E0     		b	.L78
 1124              	.LVL86:
 1125              	.L79:
 385:Drivers/SOES/Src/esc.c ****    {
 386:Drivers/SOES/Src/esc.c ****       MBXcontrol[n].state = MBXstate_idle;
 1126              		.loc 1 386 7 is_stmt 1 discriminator 3 view .LVU249
 1127              		.loc 1 386 27 is_stmt 0 discriminator 3 view .LVU250
 1128 001a 134B     		ldr	r3, .L81+4
 1129 001c 0022     		movs	r2, #0
 1130 001e 1A54     		strb	r2, [r3, r0]
 384:Drivers/SOES/Src/esc.c ****    for (n = 0; n < ESC_MBXBUFFERS; n++)
 1131              		.loc 1 384 36 is_stmt 1 discriminator 3 view .LVU251
 384:Drivers/SOES/Src/esc.c ****    for (n = 0; n < ESC_MBXBUFFERS; n++)
 1132              		.loc 1 384 37 is_stmt 0 discriminator 3 view .LVU252
 1133 0020 0130     		adds	r0, r0, #1
 1134              	.LVL87:
 384:Drivers/SOES/Src/esc.c ****    for (n = 0; n < ESC_MBXBUFFERS; n++)
 1135              		.loc 1 384 37 discriminator 3 view .LVU253
 1136 0022 C0B2     		uxtb	r0, r0
 1137              	.LVL88:
 1138              	.L78:
 384:Drivers/SOES/Src/esc.c ****    for (n = 0; n < ESC_MBXBUFFERS; n++)
 1139              		.loc 1 384 16 is_stmt 1 discriminator 1 view .LVU254
 384:Drivers/SOES/Src/esc.c ****    for (n = 0; n < ESC_MBXBUFFERS; n++)
 1140              		.loc 1 384 4 is_stmt 0 discriminator 1 view .LVU255
 1141 0024 0228     		cmp	r0, #2
 1142 0026 F8D9     		bls	.L79
 387:Drivers/SOES/Src/esc.c ****    }
 388:Drivers/SOES/Src/esc.c ****    ESCvar.mbxoutpost = 0;
 1143              		.loc 1 388 4 is_stmt 1 view .LVU256
 1144              		.loc 1 388 22 is_stmt 0 view .LVU257
 1145 0028 0E4B     		ldr	r3, .L81
 1146 002a 0022     		movs	r2, #0
 1147 002c 83F88820 		strb	r2, [r3, #136]
 389:Drivers/SOES/Src/esc.c ****    ESCvar.mbxbackup = 0;
 1148              		.loc 1 389 4 is_stmt 1 view .LVU258
 1149              		.loc 1 389 21 is_stmt 0 view .LVU259
 1150 0030 83F88920 		strb	r2, [r3, #137]
 390:Drivers/SOES/Src/esc.c ****    ESCvar.xoe = 0;
 1151              		.loc 1 390 4 is_stmt 1 view .LVU260
 1152              		.loc 1 390 15 is_stmt 0 view .LVU261
 1153 0034 83F88A20 		strb	r2, [r3, #138]
 391:Drivers/SOES/Src/esc.c ****    ESCvar.mbxfree = 1;
 1154              		.loc 1 391 4 is_stmt 1 view .LVU262
 1155              		.loc 1 391 19 is_stmt 0 view .LVU263
 1156 0038 0121     		movs	r1, #1
 1157 003a 83F88C10 		strb	r1, [r3, #140]
 392:Drivers/SOES/Src/esc.c ****    ESCvar.toggle = 0;
 1158              		.loc 1 392 4 is_stmt 1 view .LVU264
 1159              		.loc 1 392 18 is_stmt 0 view .LVU265
 1160 003e 83F8A020 		strb	r2, [r3, #160]
 393:Drivers/SOES/Src/esc.c ****    ESCvar.mbxincnt = 0;
ARM GAS  /tmp/cctcjG2K.s 			page 28


 1161              		.loc 1 393 4 is_stmt 1 view .LVU266
 1162              		.loc 1 393 20 is_stmt 0 view .LVU267
 1163 0042 83F88720 		strb	r2, [r3, #135]
 394:Drivers/SOES/Src/esc.c ****    ESCvar.segmented = 0;
 1164              		.loc 1 394 4 is_stmt 1 view .LVU268
 1165              		.loc 1 394 21 is_stmt 0 view .LVU269
 1166 0046 83F88D20 		strb	r2, [r3, #141]
 395:Drivers/SOES/Src/esc.c ****    ESCvar.frags = 0;
 1167              		.loc 1 395 4 is_stmt 1 view .LVU270
 1168              		.loc 1 395 17 is_stmt 0 view .LVU271
 1169 004a A3F89620 		strh	r2, [r3, #150]	@ movhi
 396:Drivers/SOES/Src/esc.c ****    ESCvar.fragsleft = 0;
 1170              		.loc 1 396 4 is_stmt 1 view .LVU272
 1171              		.loc 1 396 21 is_stmt 0 view .LVU273
 1172 004e A3F89820 		strh	r2, [r3, #152]	@ movhi
 397:Drivers/SOES/Src/esc.c ****    ESCvar.txcue = 0;
 1173              		.loc 1 397 4 is_stmt 1 view .LVU274
 1174              		.loc 1 397 17 is_stmt 0 view .LVU275
 1175 0052 83F88B20 		strb	r2, [r3, #139]
 398:Drivers/SOES/Src/esc.c ****    ESCvar.index = 0;
 1176              		.loc 1 398 4 is_stmt 1 view .LVU276
 1177              		.loc 1 398 17 is_stmt 0 view .LVU277
 1178 0056 A3F89A20 		strh	r2, [r3, #154]	@ movhi
 399:Drivers/SOES/Src/esc.c ****    ESCvar.subindex = 0;
 1179              		.loc 1 399 4 is_stmt 1 view .LVU278
 1180              		.loc 1 399 20 is_stmt 0 view .LVU279
 1181 005a 83F89C20 		strb	r2, [r3, #156]
 400:Drivers/SOES/Src/esc.c ****    ESCvar.flags = 0;
 1182              		.loc 1 400 4 is_stmt 1 view .LVU280
 1183              		.loc 1 400 17 is_stmt 0 view .LVU281
 1184 005e A3F89E20 		strh	r2, [r3, #158]	@ movhi
 401:Drivers/SOES/Src/esc.c **** }
 1185              		.loc 1 401 1 view .LVU282
 1186 0062 10BD     		pop	{r4, pc}
 1187              	.L82:
 1188              		.align	2
 1189              	.L81:
 1190 0064 00000000 		.word	ESCvar
 1191 0068 00000000 		.word	MBXcontrol
 1192              		.cfi_endproc
 1193              	.LFE21:
 1195              		.section	.text.ESC_readmbx,"ax",%progbits
 1196              		.align	1
 1197              		.global	ESC_readmbx
 1198              		.syntax unified
 1199              		.thumb
 1200              		.thumb_func
 1202              	ESC_readmbx:
 1203              	.LFB22:
 402:Drivers/SOES/Src/esc.c **** 
 403:Drivers/SOES/Src/esc.c **** /** Read Receive mailbox and store data in local ESCvar.MBX variable.
 404:Drivers/SOES/Src/esc.c ****  * Combined function for bootstrap and other states. State check decides
 405:Drivers/SOES/Src/esc.c ****  * which one to read.
 406:Drivers/SOES/Src/esc.c ****  */
 407:Drivers/SOES/Src/esc.c **** void ESC_readmbx (void)
 408:Drivers/SOES/Src/esc.c **** {
 1204              		.loc 1 408 1 is_stmt 1 view -0
ARM GAS  /tmp/cctcjG2K.s 			page 29


 1205              		.cfi_startproc
 1206              		@ args = 0, pretend = 0, frame = 8
 1207              		@ frame_needed = 0, uses_anonymous_args = 0
 1208 0000 30B5     		push	{r4, r5, lr}
 1209              		.cfi_def_cfa_offset 12
 1210              		.cfi_offset 4, -12
 1211              		.cfi_offset 5, -8
 1212              		.cfi_offset 14, -4
 1213 0002 83B0     		sub	sp, sp, #12
 1214              		.cfi_def_cfa_offset 24
 409:Drivers/SOES/Src/esc.c ****    _MBX *MB = (_MBX *)&MBX[0];
 1215              		.loc 1 409 4 view .LVU284
 1216              	.LVL89:
 410:Drivers/SOES/Src/esc.c ****    uint16_t length;
 1217              		.loc 1 410 4 view .LVU285
 411:Drivers/SOES/Src/esc.c **** 
 412:Drivers/SOES/Src/esc.c ****    ESC_read (ESC_MBX0_sma, MB, ESC_MBXHSIZE);
 1218              		.loc 1 412 4 view .LVU286
 1219              		.loc 1 412 14 is_stmt 0 view .LVU287
 1220 0004 174C     		ldr	r4, .L88
 1221 0006 E36E     		ldr	r3, [r4, #108]
 1222              		.loc 1 412 4 view .LVU288
 1223 0008 174D     		ldr	r5, .L88+4
 1224 000a 0622     		movs	r2, #6
 1225 000c 2946     		mov	r1, r5
 1226 000e 1888     		ldrh	r0, [r3]
 1227 0010 FFF7FEFF 		bl	ESC_read
 1228              	.LVL90:
 413:Drivers/SOES/Src/esc.c ****    length = etohs (MB->header.length);
 1229              		.loc 1 413 4 is_stmt 1 view .LVU289
 1230              		.loc 1 413 13 is_stmt 0 view .LVU290
 1231 0014 2B88     		ldrh	r3, [r5]	@ unaligned
 1232 0016 98B2     		uxth	r0, r3
 1233              		.loc 1 413 11 view .LVU291
 1234 0018 ADF80630 		strh	r3, [sp, #6]	@ movhi
 414:Drivers/SOES/Src/esc.c **** 
 415:Drivers/SOES/Src/esc.c ****    if (length > (ESC_MBX0_sml - ESC_MBXHSIZE))
 1235              		.loc 1 415 4 is_stmt 1 view .LVU292
 1236              		.loc 1 415 18 is_stmt 0 view .LVU293
 1237 001c E26E     		ldr	r2, [r4, #108]
 1238 001e 5388     		ldrh	r3, [r2, #2]
 1239              		.loc 1 415 31 view .LVU294
 1240 0020 991F     		subs	r1, r3, #6
 1241              		.loc 1 415 7 view .LVU295
 1242 0022 8842     		cmp	r0, r1
 1243 0024 01D9     		bls	.L84
 416:Drivers/SOES/Src/esc.c ****    {
 417:Drivers/SOES/Src/esc.c ****       length = ESC_MBX0_sml - ESC_MBXHSIZE;
 1244              		.loc 1 417 7 is_stmt 1 view .LVU296
 1245              		.loc 1 417 14 is_stmt 0 view .LVU297
 1246 0026 ADF80610 		strh	r1, [sp, #6]	@ movhi
 1247              	.L84:
 418:Drivers/SOES/Src/esc.c ****    }
 419:Drivers/SOES/Src/esc.c ****    ESC_read (ESC_MBX0_sma + ESC_MBXHSIZE, MB->b, length);
 1248              		.loc 1 419 4 is_stmt 1 view .LVU298
 1249              		.loc 1 419 14 is_stmt 0 view .LVU299
 1250 002a 1088     		ldrh	r0, [r2]
ARM GAS  /tmp/cctcjG2K.s 			page 30


 1251              		.loc 1 419 4 view .LVU300
 1252 002c 0630     		adds	r0, r0, #6
 1253 002e BDF80620 		ldrh	r2, [sp, #6]
 1254 0032 0E49     		ldr	r1, .L88+8
 1255 0034 80B2     		uxth	r0, r0
 1256 0036 FFF7FEFF 		bl	ESC_read
 1257              	.LVL91:
 420:Drivers/SOES/Src/esc.c ****    if (length + ESC_MBXHSIZE < ESC_MBX0_sml)
 1258              		.loc 1 420 4 is_stmt 1 view .LVU301
 1259              		.loc 1 420 15 is_stmt 0 view .LVU302
 1260 003a BDF80630 		ldrh	r3, [sp, #6]
 1261 003e 0633     		adds	r3, r3, #6
 1262              		.loc 1 420 32 view .LVU303
 1263 0040 084A     		ldr	r2, .L88
 1264 0042 D06E     		ldr	r0, [r2, #108]
 1265 0044 4288     		ldrh	r2, [r0, #2]
 1266              		.loc 1 420 7 view .LVU304
 1267 0046 9342     		cmp	r3, r2
 1268 0048 04D3     		bcc	.L87
 1269              	.L85:
 421:Drivers/SOES/Src/esc.c ****    {
 422:Drivers/SOES/Src/esc.c ****       ESC_read (ESC_MBX0_sme, &length, 1);
 423:Drivers/SOES/Src/esc.c ****    }
 424:Drivers/SOES/Src/esc.c **** 
 425:Drivers/SOES/Src/esc.c ****    MBXcontrol[0].state = MBXstate_inclaim;
 1270              		.loc 1 425 4 is_stmt 1 view .LVU305
 1271              		.loc 1 425 24 is_stmt 0 view .LVU306
 1272 004a 094B     		ldr	r3, .L88+12
 1273 004c 0122     		movs	r2, #1
 1274 004e 1A70     		strb	r2, [r3]
 426:Drivers/SOES/Src/esc.c **** }
 1275              		.loc 1 426 1 view .LVU307
 1276 0050 03B0     		add	sp, sp, #12
 1277              		.cfi_remember_state
 1278              		.cfi_def_cfa_offset 12
 1279              		@ sp needed
 1280 0052 30BD     		pop	{r4, r5, pc}
 1281              	.L87:
 1282              		.cfi_restore_state
 422:Drivers/SOES/Src/esc.c ****    }
 1283              		.loc 1 422 7 is_stmt 1 view .LVU308
 1284 0054 0122     		movs	r2, #1
 1285 0056 0DF10601 		add	r1, sp, #6
 1286 005a 8088     		ldrh	r0, [r0, #4]
 1287 005c FFF7FEFF 		bl	ESC_read
 1288              	.LVL92:
 1289 0060 F3E7     		b	.L85
 1290              	.L89:
 1291 0062 00BF     		.align	2
 1292              	.L88:
 1293 0064 00000000 		.word	ESCvar
 1294 0068 00000000 		.word	MBX
 1295 006c 06000000 		.word	MBX+6
 1296 0070 00000000 		.word	MBXcontrol
 1297              		.cfi_endproc
 1298              	.LFE22:
 1300              		.section	.text.ESC_writembx,"ax",%progbits
ARM GAS  /tmp/cctcjG2K.s 			page 31


 1301              		.align	1
 1302              		.global	ESC_writembx
 1303              		.syntax unified
 1304              		.thumb
 1305              		.thumb_func
 1307              	ESC_writembx:
 1308              	.LVL93:
 1309              	.LFB23:
 427:Drivers/SOES/Src/esc.c **** /** Write local mailbox buffer ESCvar.MBX[n] to Send mailbox.
 428:Drivers/SOES/Src/esc.c ****  * Combined function for bootstrap and other states. State check decides
 429:Drivers/SOES/Src/esc.c ****  * which one to write.
 430:Drivers/SOES/Src/esc.c ****  *
 431:Drivers/SOES/Src/esc.c ****  * @param[in] n   = Which local mailbox buffer n to send.
 432:Drivers/SOES/Src/esc.c ****  */
 433:Drivers/SOES/Src/esc.c **** void ESC_writembx (uint8_t n)
 434:Drivers/SOES/Src/esc.c **** {
 1310              		.loc 1 434 1 view -0
 1311              		.cfi_startproc
 1312              		@ args = 0, pretend = 0, frame = 8
 1313              		@ frame_needed = 0, uses_anonymous_args = 0
 1314              		.loc 1 434 1 is_stmt 0 view .LVU310
 1315 0000 10B5     		push	{r4, lr}
 1316              		.cfi_def_cfa_offset 8
 1317              		.cfi_offset 4, -8
 1318              		.cfi_offset 14, -4
 1319 0002 82B0     		sub	sp, sp, #8
 1320              		.cfi_def_cfa_offset 16
 435:Drivers/SOES/Src/esc.c ****    _MBXh *MBh = (_MBXh *)&MBX[n * ESC_MBXSIZE];
 1321              		.loc 1 435 4 is_stmt 1 view .LVU311
 1322              		.loc 1 435 35 is_stmt 0 view .LVU312
 1323 0004 134A     		ldr	r2, .L95
 1324 0006 936E     		ldr	r3, [r2, #104]
 1325              		.loc 1 435 33 view .LVU313
 1326 0008 03FB00F0 		mul	r0, r3, r0
 1327              	.LVL94:
 1328              		.loc 1 435 11 view .LVU314
 1329 000c 124B     		ldr	r3, .L95+4
 1330 000e C118     		adds	r1, r0, r3
 1331              	.LVL95:
 436:Drivers/SOES/Src/esc.c ****    uint8_t dummy = 0;
 1332              		.loc 1 436 4 is_stmt 1 view .LVU315
 1333              		.loc 1 436 12 is_stmt 0 view .LVU316
 1334 0010 0024     		movs	r4, #0
 1335 0012 8DF80740 		strb	r4, [sp, #7]
 437:Drivers/SOES/Src/esc.c ****    uint16_t length;
 1336              		.loc 1 437 4 is_stmt 1 view .LVU317
 438:Drivers/SOES/Src/esc.c ****    length = etohs (MBh->length);
 1337              		.loc 1 438 4 view .LVU318
 1338              		.loc 1 438 11 is_stmt 0 view .LVU319
 1339 0016 1B5A     		ldrh	r3, [r3, r0]	@ unaligned
 1340              	.LVL96:
 439:Drivers/SOES/Src/esc.c **** 
 440:Drivers/SOES/Src/esc.c ****    if (length > (ESC_MBX1_sml - ESC_MBXHSIZE))
 1341              		.loc 1 440 4 is_stmt 1 view .LVU320
 1342              		.loc 1 440 18 is_stmt 0 view .LVU321
 1343 0018 106F     		ldr	r0, [r2, #112]
 1344 001a 4288     		ldrh	r2, [r0, #2]
ARM GAS  /tmp/cctcjG2K.s 			page 32


 1345              		.loc 1 440 31 view .LVU322
 1346 001c 941F     		subs	r4, r2, #6
 1347              		.loc 1 440 7 view .LVU323
 1348 001e A342     		cmp	r3, r4
 1349 0020 00D9     		bls	.L91
 441:Drivers/SOES/Src/esc.c ****    {
 442:Drivers/SOES/Src/esc.c ****       length = ESC_MBX1_sml - ESC_MBXHSIZE;
 1350              		.loc 1 442 7 is_stmt 1 view .LVU324
 1351              		.loc 1 442 14 is_stmt 0 view .LVU325
 1352 0022 A3B2     		uxth	r3, r4
 1353              	.LVL97:
 1354              	.L91:
 443:Drivers/SOES/Src/esc.c ****    }
 444:Drivers/SOES/Src/esc.c ****    ESC_write (ESC_MBX1_sma, MBh, ESC_MBXHSIZE + length);
 1355              		.loc 1 444 4 is_stmt 1 view .LVU326
 1356 0024 9C1D     		adds	r4, r3, #6
 1357 0026 A2B2     		uxth	r2, r4
 1358 0028 0088     		ldrh	r0, [r0]
 1359 002a FFF7FEFF 		bl	ESC_write
 1360              	.LVL98:
 445:Drivers/SOES/Src/esc.c ****    if (length + ESC_MBXHSIZE < ESC_MBX1_sml)
 1361              		.loc 1 445 4 view .LVU327
 1362              		.loc 1 445 32 is_stmt 0 view .LVU328
 1363 002e 094B     		ldr	r3, .L95
 1364 0030 1B6F     		ldr	r3, [r3, #112]
 1365 0032 5A88     		ldrh	r2, [r3, #2]
 1366              		.loc 1 445 7 view .LVU329
 1367 0034 9442     		cmp	r4, r2
 1368 0036 05D3     		bcc	.L94
 1369              	.L92:
 446:Drivers/SOES/Src/esc.c ****    {
 447:Drivers/SOES/Src/esc.c ****       ESC_write (ESC_MBX1_sme, &dummy, 1);
 448:Drivers/SOES/Src/esc.c ****    }
 449:Drivers/SOES/Src/esc.c **** 
 450:Drivers/SOES/Src/esc.c ****    ESCvar.mbxfree = 0;
 1370              		.loc 1 450 4 is_stmt 1 view .LVU330
 1371              		.loc 1 450 19 is_stmt 0 view .LVU331
 1372 0038 064B     		ldr	r3, .L95
 1373 003a 0022     		movs	r2, #0
 1374 003c 83F88C20 		strb	r2, [r3, #140]
 451:Drivers/SOES/Src/esc.c **** }
 1375              		.loc 1 451 1 view .LVU332
 1376 0040 02B0     		add	sp, sp, #8
 1377              		.cfi_remember_state
 1378              		.cfi_def_cfa_offset 8
 1379              		@ sp needed
 1380 0042 10BD     		pop	{r4, pc}
 1381              	.L94:
 1382              		.cfi_restore_state
 447:Drivers/SOES/Src/esc.c ****    }
 1383              		.loc 1 447 7 is_stmt 1 view .LVU333
 1384 0044 0122     		movs	r2, #1
 1385 0046 0DF10701 		add	r1, sp, #7
 1386 004a 9888     		ldrh	r0, [r3, #4]
 1387 004c FFF7FEFF 		bl	ESC_write
 1388              	.LVL99:
 1389 0050 F2E7     		b	.L92
ARM GAS  /tmp/cctcjG2K.s 			page 33


 1390              	.L96:
 1391 0052 00BF     		.align	2
 1392              	.L95:
 1393 0054 00000000 		.word	ESCvar
 1394 0058 00000000 		.word	MBX
 1395              		.cfi_endproc
 1396              	.LFE23:
 1398              		.section	.text.ESC_ackmbxread,"ax",%progbits
 1399              		.align	1
 1400              		.global	ESC_ackmbxread
 1401              		.syntax unified
 1402              		.thumb
 1403              		.thumb_func
 1405              	ESC_ackmbxread:
 1406              	.LFB24:
 452:Drivers/SOES/Src/esc.c **** 
 453:Drivers/SOES/Src/esc.c **** /** TBD
 454:Drivers/SOES/Src/esc.c ****  */
 455:Drivers/SOES/Src/esc.c **** void ESC_ackmbxread (void)
 456:Drivers/SOES/Src/esc.c **** {
 1407              		.loc 1 456 1 view -0
 1408              		.cfi_startproc
 1409              		@ args = 0, pretend = 0, frame = 8
 1410              		@ frame_needed = 0, uses_anonymous_args = 0
 1411 0000 10B5     		push	{r4, lr}
 1412              		.cfi_def_cfa_offset 8
 1413              		.cfi_offset 4, -8
 1414              		.cfi_offset 14, -4
 1415 0002 82B0     		sub	sp, sp, #8
 1416              		.cfi_def_cfa_offset 16
 457:Drivers/SOES/Src/esc.c ****    uint8_t dummy = 0;
 1417              		.loc 1 457 4 view .LVU335
 1418              		.loc 1 457 12 is_stmt 0 view .LVU336
 1419 0004 0023     		movs	r3, #0
 1420 0006 8DF80730 		strb	r3, [sp, #7]
 458:Drivers/SOES/Src/esc.c **** 
 459:Drivers/SOES/Src/esc.c ****    ESC_write (ESC_MBX1_sma, &dummy, 1);
 1421              		.loc 1 459 4 is_stmt 1 view .LVU337
 1422              		.loc 1 459 15 is_stmt 0 view .LVU338
 1423 000a 064C     		ldr	r4, .L99
 1424 000c 236F     		ldr	r3, [r4, #112]
 1425              		.loc 1 459 4 view .LVU339
 1426 000e 0122     		movs	r2, #1
 1427 0010 0DF10701 		add	r1, sp, #7
 1428 0014 1888     		ldrh	r0, [r3]
 1429 0016 FFF7FEFF 		bl	ESC_write
 1430              	.LVL100:
 460:Drivers/SOES/Src/esc.c ****    ESCvar.mbxfree = 1;
 1431              		.loc 1 460 4 is_stmt 1 view .LVU340
 1432              		.loc 1 460 19 is_stmt 0 view .LVU341
 1433 001a 0123     		movs	r3, #1
 1434 001c 84F88C30 		strb	r3, [r4, #140]
 461:Drivers/SOES/Src/esc.c **** }
 1435              		.loc 1 461 1 view .LVU342
 1436 0020 02B0     		add	sp, sp, #8
 1437              		.cfi_def_cfa_offset 8
 1438              		@ sp needed
ARM GAS  /tmp/cctcjG2K.s 			page 34


 1439 0022 10BD     		pop	{r4, pc}
 1440              	.L100:
 1441              		.align	2
 1442              	.L99:
 1443 0024 00000000 		.word	ESCvar
 1444              		.cfi_endproc
 1445              	.LFE24:
 1447              		.section	.text.ESC_claimbuffer,"ax",%progbits
 1448              		.align	1
 1449              		.global	ESC_claimbuffer
 1450              		.syntax unified
 1451              		.thumb
 1452              		.thumb_func
 1454              	ESC_claimbuffer:
 1455              	.LFB25:
 462:Drivers/SOES/Src/esc.c **** 
 463:Drivers/SOES/Src/esc.c **** /** Allocate and prepare a mailbox buffer. Take the first Idle buffer from the End.
 464:Drivers/SOES/Src/esc.c ****  * Set Mailbox control state to be used for outbox and fill the mailbox buffer with
 465:Drivers/SOES/Src/esc.c ****  * address master and mailbox next CNT value between 1-7.
 466:Drivers/SOES/Src/esc.c ****  *
 467:Drivers/SOES/Src/esc.c ****  * @return The index of Mailbox buffer prepared for outbox. IF no buffer is available return 0.
 468:Drivers/SOES/Src/esc.c ****  */
 469:Drivers/SOES/Src/esc.c **** uint8_t ESC_claimbuffer (void)
 470:Drivers/SOES/Src/esc.c **** {
 1456              		.loc 1 470 1 is_stmt 1 view -0
 1457              		.cfi_startproc
 1458              		@ args = 0, pretend = 0, frame = 0
 1459              		@ frame_needed = 0, uses_anonymous_args = 0
 1460              		@ link register save eliminated.
 471:Drivers/SOES/Src/esc.c ****    _MBXh *MBh;
 1461              		.loc 1 471 4 view .LVU344
 472:Drivers/SOES/Src/esc.c ****    uint8_t n = ESC_MBXBUFFERS - 1;
 1462              		.loc 1 472 4 view .LVU345
 1463              	.LVL101:
 473:Drivers/SOES/Src/esc.c ****    while ((n > 0) && (MBXcontrol[n].state))
 1464              		.loc 1 473 4 view .LVU346
 472:Drivers/SOES/Src/esc.c ****    uint8_t n = ESC_MBXBUFFERS - 1;
 1465              		.loc 1 472 12 is_stmt 0 view .LVU347
 1466 0000 0220     		movs	r0, #2
 1467              		.loc 1 473 10 view .LVU348
 1468 0002 01E0     		b	.L102
 1469              	.LVL102:
 1470              	.L104:
 474:Drivers/SOES/Src/esc.c ****    {
 475:Drivers/SOES/Src/esc.c ****       n--;
 1471              		.loc 1 475 7 is_stmt 1 view .LVU349
 1472              		.loc 1 475 8 is_stmt 0 view .LVU350
 1473 0004 0138     		subs	r0, r0, #1
 1474              	.LVL103:
 1475              		.loc 1 475 8 view .LVU351
 1476 0006 C0B2     		uxtb	r0, r0
 1477              	.LVL104:
 1478              	.L102:
 473:Drivers/SOES/Src/esc.c ****    while ((n > 0) && (MBXcontrol[n].state))
 1479              		.loc 1 473 10 is_stmt 1 view .LVU352
 1480 0008 18B1     		cbz	r0, .L103
 473:Drivers/SOES/Src/esc.c ****    while ((n > 0) && (MBXcontrol[n].state))
ARM GAS  /tmp/cctcjG2K.s 			page 35


 1481              		.loc 1 473 36 is_stmt 0 discriminator 1 view .LVU353
 1482 000a 1A4B     		ldr	r3, .L107
 1483 000c 1B5C     		ldrb	r3, [r3, r0]	@ zero_extendqisi2
 473:Drivers/SOES/Src/esc.c ****    while ((n > 0) && (MBXcontrol[n].state))
 1484              		.loc 1 473 19 discriminator 1 view .LVU354
 1485 000e 002B     		cmp	r3, #0
 1486 0010 F8D1     		bne	.L104
 1487              	.L103:
 476:Drivers/SOES/Src/esc.c ****    }
 477:Drivers/SOES/Src/esc.c ****    if (n)
 1488              		.loc 1 477 4 is_stmt 1 view .LVU355
 1489              		.loc 1 477 7 is_stmt 0 view .LVU356
 1490 0012 68B3     		cbz	r0, .L105
 478:Drivers/SOES/Src/esc.c ****    {
 479:Drivers/SOES/Src/esc.c ****       MBXcontrol[n].state = MBXstate_outclaim;
 1491              		.loc 1 479 7 is_stmt 1 view .LVU357
 1492              		.loc 1 479 27 is_stmt 0 view .LVU358
 1493 0014 174B     		ldr	r3, .L107
 1494 0016 0222     		movs	r2, #2
 1495 0018 1A54     		strb	r2, [r3, r0]
 480:Drivers/SOES/Src/esc.c ****       MBh = (_MBXh *)&MBX[n * ESC_MBXSIZE];
 1496              		.loc 1 480 7 is_stmt 1 view .LVU359
 1497              		.loc 1 480 31 is_stmt 0 view .LVU360
 1498 001a 1749     		ldr	r1, .L107+4
 1499 001c 8A6E     		ldr	r2, [r1, #104]
 1500              		.loc 1 480 11 view .LVU361
 1501 001e 174B     		ldr	r3, .L107+8
 1502 0020 02FB0033 		mla	r3, r2, r0, r3
 1503              	.LVL105:
 481:Drivers/SOES/Src/esc.c ****       ESCvar.mbxcnt++;
 1504              		.loc 1 481 7 is_stmt 1 view .LVU362
 1505              		.loc 1 481 13 is_stmt 0 view .LVU363
 1506 0024 91F88620 		ldrb	r2, [r1, #134]	@ zero_extendqisi2
 1507              		.loc 1 481 20 view .LVU364
 1508 0028 0132     		adds	r2, r2, #1
 1509 002a D2B2     		uxtb	r2, r2
 1510 002c 81F88620 		strb	r2, [r1, #134]
 482:Drivers/SOES/Src/esc.c ****       ESCvar.mbxcnt = (ESCvar.mbxcnt & 0x07);
 1511              		.loc 1 482 7 is_stmt 1 view .LVU365
 1512              		.loc 1 482 38 is_stmt 0 view .LVU366
 1513 0030 02F00702 		and	r2, r2, #7
 1514              		.loc 1 482 21 view .LVU367
 1515 0034 81F88620 		strb	r2, [r1, #134]
 483:Drivers/SOES/Src/esc.c ****       if (ESCvar.mbxcnt == 0)
 1516              		.loc 1 483 7 is_stmt 1 view .LVU368
 1517              		.loc 1 483 10 is_stmt 0 view .LVU369
 1518 0038 1AB9     		cbnz	r2, .L106
 484:Drivers/SOES/Src/esc.c ****       {
 485:Drivers/SOES/Src/esc.c ****          ESCvar.mbxcnt = 1;
 1519              		.loc 1 485 10 is_stmt 1 view .LVU370
 1520              		.loc 1 485 24 is_stmt 0 view .LVU371
 1521 003a 0A46     		mov	r2, r1
 1522 003c 0121     		movs	r1, #1
 1523 003e 82F88610 		strb	r1, [r2, #134]
 1524              	.L106:
 486:Drivers/SOES/Src/esc.c ****       }
 487:Drivers/SOES/Src/esc.c ****       MBh->address = htoes (0x0000);      // destination is master
ARM GAS  /tmp/cctcjG2K.s 			page 36


 1525              		.loc 1 487 7 is_stmt 1 view .LVU372
 1526              		.loc 1 487 20 is_stmt 0 view .LVU373
 1527 0042 0022     		movs	r2, #0
 1528 0044 9A70     		strb	r2, [r3, #2]
 1529 0046 DA70     		strb	r2, [r3, #3]
 488:Drivers/SOES/Src/esc.c ****       MBh->channel = 0;
 1530              		.loc 1 488 7 is_stmt 1 view .LVU374
 1531              		.loc 1 488 20 is_stmt 0 view .LVU375
 1532 0048 1979     		ldrb	r1, [r3, #4]	@ zero_extendqisi2
 1533 004a 62F30501 		bfi	r1, r2, #0, #6
 1534 004e 1971     		strb	r1, [r3, #4]
 489:Drivers/SOES/Src/esc.c ****       MBh->priority = 0;
 1535              		.loc 1 489 7 is_stmt 1 view .LVU376
 1536              		.loc 1 489 21 is_stmt 0 view .LVU377
 1537 0050 C9B2     		uxtb	r1, r1
 1538 0052 62F38711 		bfi	r1, r2, #6, #2
 1539 0056 1971     		strb	r1, [r3, #4]
 490:Drivers/SOES/Src/esc.c ****       MBh->mbxcnt = ESCvar.mbxcnt;
 1540              		.loc 1 490 7 is_stmt 1 view .LVU378
 1541              		.loc 1 490 27 is_stmt 0 view .LVU379
 1542 0058 074A     		ldr	r2, .L107+4
 1543 005a 92F886C0 		ldrb	ip, [r2, #134]	@ zero_extendqisi2
 1544              		.loc 1 490 19 view .LVU380
 1545 005e 5979     		ldrb	r1, [r3, #5]	@ zero_extendqisi2
 1546 0060 6CF30711 		bfi	r1, ip, #4, #4
 1547 0064 5971     		strb	r1, [r3, #5]
 491:Drivers/SOES/Src/esc.c ****       ESCvar.txcue++;
 1548              		.loc 1 491 7 is_stmt 1 view .LVU381
 1549              		.loc 1 491 13 is_stmt 0 view .LVU382
 1550 0066 92F88B30 		ldrb	r3, [r2, #139]	@ zero_extendqisi2
 1551              	.LVL106:
 1552              		.loc 1 491 19 view .LVU383
 1553 006a 0133     		adds	r3, r3, #1
 1554 006c 82F88B30 		strb	r3, [r2, #139]
 1555              	.LVL107:
 1556              	.L105:
 492:Drivers/SOES/Src/esc.c ****    }
 493:Drivers/SOES/Src/esc.c ****    return n;
 1557              		.loc 1 493 4 is_stmt 1 view .LVU384
 494:Drivers/SOES/Src/esc.c **** }
 1558              		.loc 1 494 1 is_stmt 0 view .LVU385
 1559 0070 7047     		bx	lr
 1560              	.L108:
 1561 0072 00BF     		.align	2
 1562              	.L107:
 1563 0074 00000000 		.word	MBXcontrol
 1564 0078 00000000 		.word	ESCvar
 1565 007c 00000000 		.word	MBX
 1566              		.cfi_endproc
 1567              	.LFE25:
 1569              		.section	.text.ESC_outreqbuffer,"ax",%progbits
 1570              		.align	1
 1571              		.global	ESC_outreqbuffer
 1572              		.syntax unified
 1573              		.thumb
 1574              		.thumb_func
 1576              	ESC_outreqbuffer:
ARM GAS  /tmp/cctcjG2K.s 			page 37


 1577              	.LFB26:
 495:Drivers/SOES/Src/esc.c **** 
 496:Drivers/SOES/Src/esc.c **** /** Look for any present requests for posting to the outbox.
 497:Drivers/SOES/Src/esc.c ****  *
 498:Drivers/SOES/Src/esc.c ****  * @return the index of Mailbox buffer ready to be posted.
 499:Drivers/SOES/Src/esc.c ****  */
 500:Drivers/SOES/Src/esc.c **** uint8_t ESC_outreqbuffer (void)
 501:Drivers/SOES/Src/esc.c **** {
 1578              		.loc 1 501 1 is_stmt 1 view -0
 1579              		.cfi_startproc
 1580              		@ args = 0, pretend = 0, frame = 0
 1581              		@ frame_needed = 0, uses_anonymous_args = 0
 1582              		@ link register save eliminated.
 502:Drivers/SOES/Src/esc.c ****    uint8_t n = ESC_MBXBUFFERS - 1;
 1583              		.loc 1 502 4 view .LVU387
 1584              	.LVL108:
 503:Drivers/SOES/Src/esc.c ****    while ((n > 0) && (MBXcontrol[n].state != MBXstate_outreq))
 1585              		.loc 1 503 4 view .LVU388
 502:Drivers/SOES/Src/esc.c ****    uint8_t n = ESC_MBXBUFFERS - 1;
 1586              		.loc 1 502 12 is_stmt 0 view .LVU389
 1587 0000 0220     		movs	r0, #2
 1588              		.loc 1 503 10 view .LVU390
 1589 0002 01E0     		b	.L110
 1590              	.LVL109:
 1591              	.L112:
 504:Drivers/SOES/Src/esc.c ****    {
 505:Drivers/SOES/Src/esc.c ****       n--;
 1592              		.loc 1 505 7 is_stmt 1 view .LVU391
 1593              		.loc 1 505 8 is_stmt 0 view .LVU392
 1594 0004 0138     		subs	r0, r0, #1
 1595              	.LVL110:
 1596              		.loc 1 505 8 view .LVU393
 1597 0006 C0B2     		uxtb	r0, r0
 1598              	.LVL111:
 1599              	.L110:
 503:Drivers/SOES/Src/esc.c ****    while ((n > 0) && (MBXcontrol[n].state != MBXstate_outreq))
 1600              		.loc 1 503 10 is_stmt 1 view .LVU394
 1601 0008 18B1     		cbz	r0, .L111
 503:Drivers/SOES/Src/esc.c ****    while ((n > 0) && (MBXcontrol[n].state != MBXstate_outreq))
 1602              		.loc 1 503 36 is_stmt 0 discriminator 1 view .LVU395
 1603 000a 024B     		ldr	r3, .L113
 1604 000c 1B5C     		ldrb	r3, [r3, r0]	@ zero_extendqisi2
 503:Drivers/SOES/Src/esc.c ****    while ((n > 0) && (MBXcontrol[n].state != MBXstate_outreq))
 1605              		.loc 1 503 19 discriminator 1 view .LVU396
 1606 000e 032B     		cmp	r3, #3
 1607 0010 F8D1     		bne	.L112
 1608              	.L111:
 506:Drivers/SOES/Src/esc.c ****    }
 507:Drivers/SOES/Src/esc.c ****    return n;
 1609              		.loc 1 507 4 is_stmt 1 view .LVU397
 508:Drivers/SOES/Src/esc.c **** }
 1610              		.loc 1 508 1 is_stmt 0 view .LVU398
 1611 0012 7047     		bx	lr
 1612              	.L114:
 1613              		.align	2
 1614              	.L113:
 1615 0014 00000000 		.word	MBXcontrol
ARM GAS  /tmp/cctcjG2K.s 			page 38


 1616              		.cfi_endproc
 1617              	.LFE26:
 1619              		.section	.text.MBX_error,"ax",%progbits
 1620              		.align	1
 1621              		.global	MBX_error
 1622              		.syntax unified
 1623              		.thumb
 1624              		.thumb_func
 1626              	MBX_error:
 1627              	.LVL112:
 1628              	.LFB27:
 509:Drivers/SOES/Src/esc.c **** /** Allocate and prepare a mailbox buffer for sending an error message. Take the first Idle
 510:Drivers/SOES/Src/esc.c ****  * buffer from the end. Set Mailbox control state to be used for outbox and fill the mailbox
 511:Drivers/SOES/Src/esc.c ****  * buffer with error information.
 512:Drivers/SOES/Src/esc.c ****  *
 513:Drivers/SOES/Src/esc.c ****  * @param[in] n   = Error number to be sent in mailbox error message.
 514:Drivers/SOES/Src/esc.c ****  */
 515:Drivers/SOES/Src/esc.c **** void MBX_error (uint16_t error)
 516:Drivers/SOES/Src/esc.c **** {
 1629              		.loc 1 516 1 is_stmt 1 view -0
 1630              		.cfi_startproc
 1631              		@ args = 0, pretend = 0, frame = 0
 1632              		@ frame_needed = 0, uses_anonymous_args = 0
 1633              		.loc 1 516 1 is_stmt 0 view .LVU400
 1634 0000 10B5     		push	{r4, lr}
 1635              		.cfi_def_cfa_offset 8
 1636              		.cfi_offset 4, -8
 1637              		.cfi_offset 14, -4
 1638 0002 0446     		mov	r4, r0
 517:Drivers/SOES/Src/esc.c ****    uint8_t MBXout;
 1639              		.loc 1 517 4 is_stmt 1 view .LVU401
 518:Drivers/SOES/Src/esc.c ****    _MBXerr *mbxerr;
 1640              		.loc 1 518 4 view .LVU402
 519:Drivers/SOES/Src/esc.c ****    MBXout = ESC_claimbuffer ();
 1641              		.loc 1 519 4 view .LVU403
 1642              		.loc 1 519 13 is_stmt 0 view .LVU404
 1643 0004 FFF7FEFF 		bl	ESC_claimbuffer
 1644              	.LVL113:
 520:Drivers/SOES/Src/esc.c ****    if (MBXout)
 1645              		.loc 1 520 4 is_stmt 1 view .LVU405
 1646              		.loc 1 520 7 is_stmt 0 view .LVU406
 1647 0008 D0B1     		cbz	r0, .L115
 1648 000a 0146     		mov	r1, r0
 521:Drivers/SOES/Src/esc.c ****    {
 522:Drivers/SOES/Src/esc.c ****       mbxerr = (_MBXerr *) &MBX[MBXout * ESC_MBXSIZE];
 1649              		.loc 1 522 7 is_stmt 1 view .LVU407
 1650              		.loc 1 522 42 is_stmt 0 view .LVU408
 1651 000c 0D4B     		ldr	r3, .L118
 1652 000e 9A6E     		ldr	r2, [r3, #104]
 1653              		.loc 1 522 40 view .LVU409
 1654 0010 00FB02F2 		mul	r2, r0, r2
 1655              		.loc 1 522 14 view .LVU410
 1656 0014 0C48     		ldr	r0, .L118+4
 1657              	.LVL114:
 1658              		.loc 1 522 14 view .LVU411
 1659 0016 1318     		adds	r3, r2, r0
 1660              	.LVL115:
ARM GAS  /tmp/cctcjG2K.s 			page 39


 523:Drivers/SOES/Src/esc.c ****       mbxerr->mbxheader.length = htoes ((uint16_t) 0x04);
 1661              		.loc 1 523 7 is_stmt 1 view .LVU412
 1662              		.loc 1 523 32 is_stmt 0 view .LVU413
 1663 0018 4FF0000C 		mov	ip, #0
 1664 001c 4FF0040E 		mov	lr, #4
 1665 0020 02F800E0 		strb	lr, [r2, r0]
 1666 0024 83F801C0 		strb	ip, [r3, #1]
 524:Drivers/SOES/Src/esc.c ****       mbxerr->mbxheader.mbxtype = MBXERR;
 1667              		.loc 1 524 7 is_stmt 1 view .LVU414
 1668              		.loc 1 524 33 is_stmt 0 view .LVU415
 1669 0028 5A79     		ldrb	r2, [r3, #5]	@ zero_extendqisi2
 1670 002a 6CF30302 		bfi	r2, ip, #0, #4
 1671 002e 5A71     		strb	r2, [r3, #5]
 525:Drivers/SOES/Src/esc.c ****       mbxerr->type = htoes ((uint16_t) 0x01);
 1672              		.loc 1 525 7 is_stmt 1 view .LVU416
 1673              		.loc 1 525 20 is_stmt 0 view .LVU417
 1674 0030 0122     		movs	r2, #1
 1675 0032 9A71     		strb	r2, [r3, #6]
 1676 0034 83F807C0 		strb	ip, [r3, #7]
 526:Drivers/SOES/Src/esc.c ****       mbxerr->detail = htoes (error);
 1677              		.loc 1 526 7 is_stmt 1 view .LVU418
 1678              		.loc 1 526 22 is_stmt 0 view .LVU419
 1679 0038 1C81     		strh	r4, [r3, #8]	@ unaligned
 527:Drivers/SOES/Src/esc.c ****       MBXcontrol[MBXout].state = MBXstate_outreq;
 1680              		.loc 1 527 7 is_stmt 1 view .LVU420
 1681              		.loc 1 527 32 is_stmt 0 view .LVU421
 1682 003a 044B     		ldr	r3, .L118+8
 1683              	.LVL116:
 1684              		.loc 1 527 32 view .LVU422
 1685 003c 0322     		movs	r2, #3
 1686 003e 5A54     		strb	r2, [r3, r1]
 1687              	.LVL117:
 1688              	.L115:
 528:Drivers/SOES/Src/esc.c ****    }
 529:Drivers/SOES/Src/esc.c **** }
 1689              		.loc 1 529 1 view .LVU423
 1690 0040 10BD     		pop	{r4, pc}
 1691              	.L119:
 1692 0042 00BF     		.align	2
 1693              	.L118:
 1694 0044 00000000 		.word	ESCvar
 1695 0048 00000000 		.word	MBX
 1696 004c 00000000 		.word	MBXcontrol
 1697              		.cfi_endproc
 1698              	.LFE27:
 1700              		.section	.text.ESC_mbxprocess,"ax",%progbits
 1701              		.align	1
 1702              		.global	ESC_mbxprocess
 1703              		.syntax unified
 1704              		.thumb
 1705              		.thumb_func
 1707              	ESC_mbxprocess:
 1708              	.LFB28:
 530:Drivers/SOES/Src/esc.c **** 
 531:Drivers/SOES/Src/esc.c **** /** Mailbox routine for implementing the low-level part of the mailbox protocol
 532:Drivers/SOES/Src/esc.c ****  * used by Application Layers running on-top of mailboxes. It takes care of sending
 533:Drivers/SOES/Src/esc.c ****  * a mailbox, re-sending a mailbox, reading a mailbox and handles a mailbox full event.
ARM GAS  /tmp/cctcjG2K.s 			page 40


 534:Drivers/SOES/Src/esc.c ****  *
 535:Drivers/SOES/Src/esc.c ****  * @return =0 if nothing to do. =1 if something to be handled by mailbox protocols.
 536:Drivers/SOES/Src/esc.c ****  */
 537:Drivers/SOES/Src/esc.c **** uint8_t ESC_mbxprocess (void)
 538:Drivers/SOES/Src/esc.c **** {
 1709              		.loc 1 538 1 is_stmt 1 view -0
 1710              		.cfi_startproc
 1711              		@ args = 0, pretend = 0, frame = 0
 1712              		@ frame_needed = 0, uses_anonymous_args = 0
 539:Drivers/SOES/Src/esc.c ****    uint8_t mbxhandle = 0;
 1713              		.loc 1 539 4 view .LVU425
 1714              	.LVL118:
 540:Drivers/SOES/Src/esc.c ****    _MBXh *MBh = (_MBXh *)&MBX[0];
 1715              		.loc 1 540 4 view .LVU426
 541:Drivers/SOES/Src/esc.c **** 
 542:Drivers/SOES/Src/esc.c ****    if (ESCvar.MBXrun == 0)
 1716              		.loc 1 542 4 view .LVU427
 1717              		.loc 1 542 14 is_stmt 0 view .LVU428
 1718 0000 6F4B     		ldr	r3, .L145
 1719 0002 93F86400 		ldrb	r0, [r3, #100]	@ zero_extendqisi2
 1720              		.loc 1 542 7 view .LVU429
 1721 0006 0028     		cmp	r0, #0
 1722 0008 00F0D880 		beq	.L136
 538:Drivers/SOES/Src/esc.c ****    uint8_t mbxhandle = 0;
 1723              		.loc 1 538 1 view .LVU430
 1724 000c 10B5     		push	{r4, lr}
 1725              		.cfi_def_cfa_offset 8
 1726              		.cfi_offset 4, -8
 1727              		.cfi_offset 14, -4
 543:Drivers/SOES/Src/esc.c ****    {
 544:Drivers/SOES/Src/esc.c ****       /* nothing to do */
 545:Drivers/SOES/Src/esc.c ****       return 0;
 546:Drivers/SOES/Src/esc.c ****    }
 547:Drivers/SOES/Src/esc.c **** 
 548:Drivers/SOES/Src/esc.c ****    /* SM0/1 access */
 549:Drivers/SOES/Src/esc.c ****    if (ESCvar.ALevent & (ESCREG_ALEVENT_SM0 | ESCREG_ALEVENT_SM1))
 1728              		.loc 1 549 4 is_stmt 1 view .LVU431
 1729              		.loc 1 549 14 is_stmt 0 view .LVU432
 1730 000e B3F8DC30 		ldrh	r3, [r3, #220]
 1731              		.loc 1 549 7 view .LVU433
 1732 0012 03F44073 		and	r3, r3, #768
 1733 0016 7BBB     		cbnz	r3, .L139
 1734              	.L122:
 550:Drivers/SOES/Src/esc.c ****    {
 551:Drivers/SOES/Src/esc.c ****       ESC_SMstatus (0);
 552:Drivers/SOES/Src/esc.c ****       ESC_SMstatus (1);
 553:Drivers/SOES/Src/esc.c ****    }
 554:Drivers/SOES/Src/esc.c **** 
 555:Drivers/SOES/Src/esc.c ****    /* outmbx read by master */
 556:Drivers/SOES/Src/esc.c ****    if (ESCvar.mbxoutpost && (ESCvar.ALevent & ESCREG_ALEVENT_SM1))
 1735              		.loc 1 556 4 is_stmt 1 view .LVU434
 1736              		.loc 1 556 14 is_stmt 0 view .LVU435
 1737 0018 694B     		ldr	r3, .L145
 1738 001a 93F88810 		ldrb	r1, [r3, #136]	@ zero_extendqisi2
 1739              		.loc 1 556 7 view .LVU436
 1740 001e 21B1     		cbz	r1, .L123
 1741              		.loc 1 556 36 discriminator 1 view .LVU437
ARM GAS  /tmp/cctcjG2K.s 			page 41


 1742 0020 B3F8DC30 		ldrh	r3, [r3, #220]
 1743              		.loc 1 556 26 discriminator 1 view .LVU438
 1744 0024 13F4007F 		tst	r3, #512
 1745 0028 2DD1     		bne	.L140
 1746              	.L123:
 557:Drivers/SOES/Src/esc.c ****    {
 558:Drivers/SOES/Src/esc.c ****       ESC_ackmbxread ();
 559:Drivers/SOES/Src/esc.c ****       /* dispose old backup */
 560:Drivers/SOES/Src/esc.c ****       if (ESCvar.mbxbackup)
 561:Drivers/SOES/Src/esc.c ****       {
 562:Drivers/SOES/Src/esc.c ****          MBXcontrol[ESCvar.mbxbackup].state = MBXstate_idle;
 563:Drivers/SOES/Src/esc.c ****       }
 564:Drivers/SOES/Src/esc.c ****       /* if still to do */
 565:Drivers/SOES/Src/esc.c ****       if (MBXcontrol[ESCvar.mbxoutpost].state == MBXstate_again)
 566:Drivers/SOES/Src/esc.c ****       {
 567:Drivers/SOES/Src/esc.c ****          ESC_writembx (ESCvar.mbxoutpost);
 568:Drivers/SOES/Src/esc.c ****       }
 569:Drivers/SOES/Src/esc.c ****       /* create new backup */
 570:Drivers/SOES/Src/esc.c ****       MBXcontrol[ESCvar.mbxoutpost].state = MBXstate_backup;
 571:Drivers/SOES/Src/esc.c ****       ESCvar.mbxbackup = ESCvar.mbxoutpost;
 572:Drivers/SOES/Src/esc.c ****       ESCvar.mbxoutpost = 0;
 573:Drivers/SOES/Src/esc.c ****       /* Do we have any ongoing protocol transfers, return 1 */
 574:Drivers/SOES/Src/esc.c ****       if(ESCvar.xoe > 0)
 575:Drivers/SOES/Src/esc.c ****       {
 576:Drivers/SOES/Src/esc.c ****          return 1;
 577:Drivers/SOES/Src/esc.c ****       }
 578:Drivers/SOES/Src/esc.c ****       return 0;
 579:Drivers/SOES/Src/esc.c ****    }
 580:Drivers/SOES/Src/esc.c **** 
 581:Drivers/SOES/Src/esc.c ****    /* repeat request */
 582:Drivers/SOES/Src/esc.c ****    if (ESCvar.SM[1].ECrep != ESCvar.toggle)
 1747              		.loc 1 582 4 is_stmt 1 view .LVU439
 1748              		.loc 1 582 20 is_stmt 0 view .LVU440
 1749 002a 654A     		ldr	r2, .L145
 1750 002c 92F8C230 		ldrb	r3, [r2, #194]	@ zero_extendqisi2
 1751 0030 C3F34003 		ubfx	r3, r3, #1, #1
 1752              		.loc 1 582 36 view .LVU441
 1753 0034 92F8A020 		ldrb	r2, [r2, #160]	@ zero_extendqisi2
 1754              		.loc 1 582 7 view .LVU442
 1755 0038 9342     		cmp	r3, r2
 1756 003a 59D0     		beq	.L126
 583:Drivers/SOES/Src/esc.c ****    {
 584:Drivers/SOES/Src/esc.c ****       if (ESCvar.mbxoutpost || ESCvar.mbxbackup)
 1757              		.loc 1 584 7 is_stmt 1 view .LVU443
 1758              		.loc 1 584 29 is_stmt 0 view .LVU444
 1759 003c 604B     		ldr	r3, .L145
 1760 003e B3F88830 		ldrh	r3, [r3, #136]
 1761              		.loc 1 584 10 view .LVU445
 1762 0042 BBB1     		cbz	r3, .L127
 585:Drivers/SOES/Src/esc.c ****       {
 586:Drivers/SOES/Src/esc.c ****          /* if outmbx empty */
 587:Drivers/SOES/Src/esc.c ****          if (ESCvar.mbxoutpost == 0)
 1763              		.loc 1 587 10 is_stmt 1 view .LVU446
 1764              		.loc 1 587 13 is_stmt 0 view .LVU447
 1765 0044 0029     		cmp	r1, #0
 1766 0046 42D1     		bne	.L128
 588:Drivers/SOES/Src/esc.c ****          {
ARM GAS  /tmp/cctcjG2K.s 			page 42


 589:Drivers/SOES/Src/esc.c ****             /* use backup mbx */
 590:Drivers/SOES/Src/esc.c ****             ESC_writembx (ESCvar.mbxbackup);
 1767              		.loc 1 590 13 is_stmt 1 view .LVU448
 1768 0048 5D4B     		ldr	r3, .L145
 1769 004a 93F88900 		ldrb	r0, [r3, #137]	@ zero_extendqisi2
 1770 004e FFF7FEFF 		bl	ESC_writembx
 1771              	.LVL119:
 1772              	.L129:
 591:Drivers/SOES/Src/esc.c ****          }
 592:Drivers/SOES/Src/esc.c ****          else
 593:Drivers/SOES/Src/esc.c ****          {
 594:Drivers/SOES/Src/esc.c ****             /* reset mailbox */
 595:Drivers/SOES/Src/esc.c ****             ESC_SMdisable (1);
 596:Drivers/SOES/Src/esc.c ****             /* have to resend later */
 597:Drivers/SOES/Src/esc.c ****             MBXcontrol[ESCvar.mbxoutpost].state = MBXstate_again;
 598:Drivers/SOES/Src/esc.c ****             /* activate mailbox */
 599:Drivers/SOES/Src/esc.c ****             ESC_SMenable (1);
 600:Drivers/SOES/Src/esc.c ****             /* use backup mbx */
 601:Drivers/SOES/Src/esc.c ****             ESC_writembx (ESCvar.mbxbackup);
 602:Drivers/SOES/Src/esc.c ****          }
 603:Drivers/SOES/Src/esc.c ****          ESCvar.toggle = ESCvar.SM[1].ECrep;
 1773              		.loc 1 603 10 view .LVU449
 1774              		.loc 1 603 38 is_stmt 0 view .LVU450
 1775 0052 5B4B     		ldr	r3, .L145
 1776 0054 93F8C220 		ldrb	r2, [r3, #194]	@ zero_extendqisi2
 1777 0058 C2F34001 		ubfx	r1, r2, #1, #1
 1778 005c 0A46     		mov	r2, r1
 1779              		.loc 1 603 24 view .LVU451
 1780 005e 83F8A010 		strb	r1, [r3, #160]
 604:Drivers/SOES/Src/esc.c ****          ESCvar.SM[1].PDIrep = ESCvar.toggle;
 1781              		.loc 1 604 10 is_stmt 1 view .LVU452
 1782              		.loc 1 604 30 is_stmt 0 view .LVU453
 1783 0062 93F8C310 		ldrb	r1, [r3, #195]	@ zero_extendqisi2
 1784 0066 62F34101 		bfi	r1, r2, #1, #1
 1785 006a 83F8C310 		strb	r1, [r3, #195]
 605:Drivers/SOES/Src/esc.c ****          ESC_SMwritepdi (1);
 1786              		.loc 1 605 10 is_stmt 1 view .LVU454
 1787 006e 0120     		movs	r0, #1
 1788 0070 FFF7FEFF 		bl	ESC_SMwritepdi
 1789              	.LVL120:
 1790              	.L127:
 606:Drivers/SOES/Src/esc.c ****       }
 607:Drivers/SOES/Src/esc.c ****       return 0;
 1791              		.loc 1 607 7 view .LVU455
 1792              		.loc 1 607 14 is_stmt 0 view .LVU456
 1793 0074 0020     		movs	r0, #0
 1794              	.LVL121:
 1795              	.L121:
 608:Drivers/SOES/Src/esc.c ****    }
 609:Drivers/SOES/Src/esc.c **** 
 610:Drivers/SOES/Src/esc.c ****    /* if the outmailbox is free check if we have something to send */
 611:Drivers/SOES/Src/esc.c ****    if (ESCvar.txcue && (ESCvar.mbxfree || !ESCvar.SM[1].MBXstat))
 612:Drivers/SOES/Src/esc.c ****    {
 613:Drivers/SOES/Src/esc.c ****       /* check out request mbx */
 614:Drivers/SOES/Src/esc.c ****       mbxhandle = ESC_outreqbuffer ();
 615:Drivers/SOES/Src/esc.c ****       /* outmbx empty and outreq mbx available */
 616:Drivers/SOES/Src/esc.c ****       if (mbxhandle)
ARM GAS  /tmp/cctcjG2K.s 			page 43


 617:Drivers/SOES/Src/esc.c ****       {
 618:Drivers/SOES/Src/esc.c ****          ESC_writembx (mbxhandle);
 619:Drivers/SOES/Src/esc.c ****          /* Refresh SM status */
 620:Drivers/SOES/Src/esc.c ****          ESC_SMstatus (1);
 621:Drivers/SOES/Src/esc.c ****          /* change state */
 622:Drivers/SOES/Src/esc.c ****          MBXcontrol[mbxhandle].state = MBXstate_outpost;
 623:Drivers/SOES/Src/esc.c ****          ESCvar.mbxoutpost = mbxhandle;
 624:Drivers/SOES/Src/esc.c ****          if (ESCvar.txcue)
 625:Drivers/SOES/Src/esc.c ****          {
 626:Drivers/SOES/Src/esc.c ****             ESCvar.txcue--;
 627:Drivers/SOES/Src/esc.c ****          }
 628:Drivers/SOES/Src/esc.c ****       }
 629:Drivers/SOES/Src/esc.c ****    }
 630:Drivers/SOES/Src/esc.c **** 
 631:Drivers/SOES/Src/esc.c ****    /* read mailbox if full and no xoe in progress */
 632:Drivers/SOES/Src/esc.c ****    if ((ESCvar.SM[0].MBXstat != 0) && (MBXcontrol[0].state == 0)
 633:Drivers/SOES/Src/esc.c ****          && (ESCvar.mbxoutpost == 0) && (ESCvar.xoe == 0))
 634:Drivers/SOES/Src/esc.c ****    {
 635:Drivers/SOES/Src/esc.c ****       ESC_readmbx ();
 636:Drivers/SOES/Src/esc.c ****       ESCvar.SM[0].MBXstat = 0;
 637:Drivers/SOES/Src/esc.c ****       if (etohs (MBh->length) == 0)
 638:Drivers/SOES/Src/esc.c ****       {
 639:Drivers/SOES/Src/esc.c ****          MBX_error (MBXERR_INVALIDHEADER);
 640:Drivers/SOES/Src/esc.c ****          /* drop mailbox */
 641:Drivers/SOES/Src/esc.c ****          MBXcontrol[0].state = MBXstate_idle;
 642:Drivers/SOES/Src/esc.c ****       }
 643:Drivers/SOES/Src/esc.c ****       if ((MBh->mbxcnt != 0) && (MBh->mbxcnt == ESCvar.mbxincnt))
 644:Drivers/SOES/Src/esc.c ****       {
 645:Drivers/SOES/Src/esc.c ****          /* drop mailbox */
 646:Drivers/SOES/Src/esc.c ****          MBXcontrol[0].state = MBXstate_idle;
 647:Drivers/SOES/Src/esc.c ****       }
 648:Drivers/SOES/Src/esc.c ****       ESCvar.mbxincnt = MBh->mbxcnt;
 649:Drivers/SOES/Src/esc.c ****       return 1;
 650:Drivers/SOES/Src/esc.c ****    }
 651:Drivers/SOES/Src/esc.c **** 
 652:Drivers/SOES/Src/esc.c ****    return 0;
 653:Drivers/SOES/Src/esc.c **** }
 1796              		.loc 1 653 1 view .LVU457
 1797 0076 10BD     		pop	{r4, pc}
 1798              	.LVL122:
 1799              	.L139:
 551:Drivers/SOES/Src/esc.c ****       ESC_SMstatus (1);
 1800              		.loc 1 551 7 is_stmt 1 view .LVU458
 1801 0078 0020     		movs	r0, #0
 1802 007a FFF7FEFF 		bl	ESC_SMstatus
 1803              	.LVL123:
 552:Drivers/SOES/Src/esc.c ****    }
 1804              		.loc 1 552 7 view .LVU459
 1805 007e 0120     		movs	r0, #1
 1806 0080 FFF7FEFF 		bl	ESC_SMstatus
 1807              	.LVL124:
 1808 0084 C8E7     		b	.L122
 1809              	.L140:
 558:Drivers/SOES/Src/esc.c ****       /* dispose old backup */
 1810              		.loc 1 558 7 view .LVU460
 1811 0086 FFF7FEFF 		bl	ESC_ackmbxread
 1812              	.LVL125:
ARM GAS  /tmp/cctcjG2K.s 			page 44


 560:Drivers/SOES/Src/esc.c ****       {
 1813              		.loc 1 560 7 view .LVU461
 560:Drivers/SOES/Src/esc.c ****       {
 1814              		.loc 1 560 17 is_stmt 0 view .LVU462
 1815 008a 4D4B     		ldr	r3, .L145
 1816 008c 93F88930 		ldrb	r3, [r3, #137]	@ zero_extendqisi2
 560:Drivers/SOES/Src/esc.c ****       {
 1817              		.loc 1 560 10 view .LVU463
 1818 0090 13B1     		cbz	r3, .L124
 562:Drivers/SOES/Src/esc.c ****       }
 1819              		.loc 1 562 10 is_stmt 1 view .LVU464
 562:Drivers/SOES/Src/esc.c ****       }
 1820              		.loc 1 562 45 is_stmt 0 view .LVU465
 1821 0092 4C4A     		ldr	r2, .L145+4
 1822 0094 0021     		movs	r1, #0
 1823 0096 D154     		strb	r1, [r2, r3]
 1824              	.L124:
 565:Drivers/SOES/Src/esc.c ****       {
 1825              		.loc 1 565 7 is_stmt 1 view .LVU466
 565:Drivers/SOES/Src/esc.c ****       {
 1826              		.loc 1 565 28 is_stmt 0 view .LVU467
 1827 0098 494B     		ldr	r3, .L145
 1828 009a 93F88800 		ldrb	r0, [r3, #136]	@ zero_extendqisi2
 565:Drivers/SOES/Src/esc.c ****       {
 1829              		.loc 1 565 40 view .LVU468
 1830 009e 494B     		ldr	r3, .L145+4
 1831 00a0 1B5C     		ldrb	r3, [r3, r0]	@ zero_extendqisi2
 565:Drivers/SOES/Src/esc.c ****       {
 1832              		.loc 1 565 10 view .LVU469
 1833 00a2 062B     		cmp	r3, #6
 1834 00a4 10D0     		beq	.L141
 1835              	.L125:
 570:Drivers/SOES/Src/esc.c ****       ESCvar.mbxbackup = ESCvar.mbxoutpost;
 1836              		.loc 1 570 7 is_stmt 1 view .LVU470
 570:Drivers/SOES/Src/esc.c ****       ESCvar.mbxbackup = ESCvar.mbxoutpost;
 1837              		.loc 1 570 24 is_stmt 0 view .LVU471
 1838 00a6 464B     		ldr	r3, .L145
 1839 00a8 93F88820 		ldrb	r2, [r3, #136]	@ zero_extendqisi2
 570:Drivers/SOES/Src/esc.c ****       ESCvar.mbxbackup = ESCvar.mbxoutpost;
 1840              		.loc 1 570 43 view .LVU472
 1841 00ac 4549     		ldr	r1, .L145+4
 1842 00ae 0520     		movs	r0, #5
 1843 00b0 8854     		strb	r0, [r1, r2]
 571:Drivers/SOES/Src/esc.c ****       ESCvar.mbxoutpost = 0;
 1844              		.loc 1 571 7 is_stmt 1 view .LVU473
 571:Drivers/SOES/Src/esc.c ****       ESCvar.mbxoutpost = 0;
 1845              		.loc 1 571 24 is_stmt 0 view .LVU474
 1846 00b2 83F88920 		strb	r2, [r3, #137]
 572:Drivers/SOES/Src/esc.c ****       /* Do we have any ongoing protocol transfers, return 1 */
 1847              		.loc 1 572 7 is_stmt 1 view .LVU475
 572:Drivers/SOES/Src/esc.c ****       /* Do we have any ongoing protocol transfers, return 1 */
 1848              		.loc 1 572 25 is_stmt 0 view .LVU476
 1849 00b6 0022     		movs	r2, #0
 1850 00b8 83F88820 		strb	r2, [r3, #136]
 574:Drivers/SOES/Src/esc.c ****       {
 1851              		.loc 1 574 7 is_stmt 1 view .LVU477
 574:Drivers/SOES/Src/esc.c ****       {
ARM GAS  /tmp/cctcjG2K.s 			page 45


 1852              		.loc 1 574 16 is_stmt 0 view .LVU478
 1853 00bc 93F88A00 		ldrb	r0, [r3, #138]	@ zero_extendqisi2
 574:Drivers/SOES/Src/esc.c ****       {
 1854              		.loc 1 574 9 view .LVU479
 1855 00c0 0028     		cmp	r0, #0
 1856 00c2 D8D0     		beq	.L121
 576:Drivers/SOES/Src/esc.c ****       }
 1857              		.loc 1 576 17 view .LVU480
 1858 00c4 0120     		movs	r0, #1
 1859 00c6 D6E7     		b	.L121
 1860              	.L141:
 567:Drivers/SOES/Src/esc.c ****       }
 1861              		.loc 1 567 10 is_stmt 1 view .LVU481
 1862 00c8 FFF7FEFF 		bl	ESC_writembx
 1863              	.LVL126:
 1864 00cc EBE7     		b	.L125
 1865              	.L128:
 595:Drivers/SOES/Src/esc.c ****             /* have to resend later */
 1866              		.loc 1 595 13 view .LVU482
 1867 00ce 0120     		movs	r0, #1
 1868 00d0 FFF7FEFF 		bl	ESC_SMdisable
 1869              	.LVL127:
 597:Drivers/SOES/Src/esc.c ****             /* activate mailbox */
 1870              		.loc 1 597 13 view .LVU483
 597:Drivers/SOES/Src/esc.c ****             /* activate mailbox */
 1871              		.loc 1 597 30 is_stmt 0 view .LVU484
 1872 00d4 3A4C     		ldr	r4, .L145
 1873 00d6 94F88830 		ldrb	r3, [r4, #136]	@ zero_extendqisi2
 597:Drivers/SOES/Src/esc.c ****             /* activate mailbox */
 1874              		.loc 1 597 49 view .LVU485
 1875 00da 3A4A     		ldr	r2, .L145+4
 1876 00dc 0621     		movs	r1, #6
 1877 00de D154     		strb	r1, [r2, r3]
 599:Drivers/SOES/Src/esc.c ****             /* use backup mbx */
 1878              		.loc 1 599 13 is_stmt 1 view .LVU486
 1879 00e0 0120     		movs	r0, #1
 1880 00e2 FFF7FEFF 		bl	ESC_SMenable
 1881              	.LVL128:
 601:Drivers/SOES/Src/esc.c ****          }
 1882              		.loc 1 601 13 view .LVU487
 1883 00e6 94F88900 		ldrb	r0, [r4, #137]	@ zero_extendqisi2
 1884 00ea FFF7FEFF 		bl	ESC_writembx
 1885              	.LVL129:
 1886 00ee B0E7     		b	.L129
 1887              	.L126:
 611:Drivers/SOES/Src/esc.c ****    {
 1888              		.loc 1 611 4 view .LVU488
 611:Drivers/SOES/Src/esc.c ****    {
 1889              		.loc 1 611 14 is_stmt 0 view .LVU489
 1890 00f0 334B     		ldr	r3, .L145
 1891 00f2 93F88B30 		ldrb	r3, [r3, #139]	@ zero_extendqisi2
 611:Drivers/SOES/Src/esc.c ****    {
 1892              		.loc 1 611 7 view .LVU490
 1893 00f6 73B1     		cbz	r3, .L130
 611:Drivers/SOES/Src/esc.c ****    {
 1894              		.loc 1 611 31 discriminator 1 view .LVU491
 1895 00f8 314B     		ldr	r3, .L145
ARM GAS  /tmp/cctcjG2K.s 			page 46


 1896 00fa 93F88C30 		ldrb	r3, [r3, #140]	@ zero_extendqisi2
 611:Drivers/SOES/Src/esc.c ****    {
 1897              		.loc 1 611 21 discriminator 1 view .LVU492
 1898 00fe 2BB9     		cbnz	r3, .L131
 611:Drivers/SOES/Src/esc.c ****    {
 1899              		.loc 1 611 43 discriminator 2 view .LVU493
 1900 0100 2F4B     		ldr	r3, .L145
 1901 0102 93F8C130 		ldrb	r3, [r3, #193]	@ zero_extendqisi2
 611:Drivers/SOES/Src/esc.c ****    {
 1902              		.loc 1 611 40 discriminator 2 view .LVU494
 1903 0106 13F0080F 		tst	r3, #8
 1904 010a 04D1     		bne	.L130
 1905              	.L131:
 614:Drivers/SOES/Src/esc.c ****       /* outmbx empty and outreq mbx available */
 1906              		.loc 1 614 7 is_stmt 1 view .LVU495
 614:Drivers/SOES/Src/esc.c ****       /* outmbx empty and outreq mbx available */
 1907              		.loc 1 614 19 is_stmt 0 view .LVU496
 1908 010c FFF7FEFF 		bl	ESC_outreqbuffer
 1909              	.LVL130:
 616:Drivers/SOES/Src/esc.c ****       {
 1910              		.loc 1 616 7 is_stmt 1 view .LVU497
 616:Drivers/SOES/Src/esc.c ****       {
 1911              		.loc 1 616 10 is_stmt 0 view .LVU498
 1912 0110 0446     		mov	r4, r0
 1913 0112 0028     		cmp	r0, #0
 1914 0114 31D1     		bne	.L142
 1915              	.LVL131:
 1916              	.L130:
 632:Drivers/SOES/Src/esc.c ****          && (ESCvar.mbxoutpost == 0) && (ESCvar.xoe == 0))
 1917              		.loc 1 632 4 is_stmt 1 view .LVU499
 632:Drivers/SOES/Src/esc.c ****          && (ESCvar.mbxoutpost == 0) && (ESCvar.xoe == 0))
 1918              		.loc 1 632 30 is_stmt 0 view .LVU500
 1919 0116 2A4B     		ldr	r3, .L145
 1920 0118 93F8B900 		ldrb	r0, [r3, #185]	@ zero_extendqisi2
 632:Drivers/SOES/Src/esc.c ****          && (ESCvar.mbxoutpost == 0) && (ESCvar.xoe == 0))
 1921              		.loc 1 632 7 view .LVU501
 1922 011c 10F00800 		ands	r0, r0, #8
 1923 0120 A9D0     		beq	.L121
 632:Drivers/SOES/Src/esc.c ****          && (ESCvar.mbxoutpost == 0) && (ESCvar.xoe == 0))
 1924              		.loc 1 632 53 discriminator 1 view .LVU502
 1925 0122 284B     		ldr	r3, .L145+4
 1926 0124 1878     		ldrb	r0, [r3]	@ zero_extendqisi2
 632:Drivers/SOES/Src/esc.c ****          && (ESCvar.mbxoutpost == 0) && (ESCvar.xoe == 0))
 1927              		.loc 1 632 36 discriminator 1 view .LVU503
 1928 0126 0028     		cmp	r0, #0
 1929 0128 46D1     		bne	.L134
 633:Drivers/SOES/Src/esc.c ****    {
 1930              		.loc 1 633 38 view .LVU504
 1931 012a 254B     		ldr	r3, .L145
 1932 012c D3F88830 		ldr	r3, [r3, #136]
 1933 0130 13F0FF1F 		tst	r3, #16711935
 1934 0134 9FD1     		bne	.L121
 635:Drivers/SOES/Src/esc.c ****       ESCvar.SM[0].MBXstat = 0;
 1935              		.loc 1 635 7 is_stmt 1 view .LVU505
 1936 0136 FFF7FEFF 		bl	ESC_readmbx
 1937              	.LVL132:
 636:Drivers/SOES/Src/esc.c ****       if (etohs (MBh->length) == 0)
ARM GAS  /tmp/cctcjG2K.s 			page 47


 1938              		.loc 1 636 7 view .LVU506
 636:Drivers/SOES/Src/esc.c ****       if (etohs (MBh->length) == 0)
 1939              		.loc 1 636 28 is_stmt 0 view .LVU507
 1940 013a 214B     		ldr	r3, .L145
 1941 013c 93F8B920 		ldrb	r2, [r3, #185]	@ zero_extendqisi2
 1942 0140 6FF3C302 		bfc	r2, #3, #1
 1943 0144 83F8B920 		strb	r2, [r3, #185]
 637:Drivers/SOES/Src/esc.c ****       {
 1944              		.loc 1 637 7 is_stmt 1 view .LVU508
 637:Drivers/SOES/Src/esc.c ****       {
 1945              		.loc 1 637 11 is_stmt 0 view .LVU509
 1946 0148 1F4B     		ldr	r3, .L145+8
 1947 014a 1B88     		ldrh	r3, [r3]	@ unaligned
 637:Drivers/SOES/Src/esc.c ****       {
 1948              		.loc 1 637 10 view .LVU510
 1949 014c 4BB3     		cbz	r3, .L143
 1950              	.L132:
 643:Drivers/SOES/Src/esc.c ****       {
 1951              		.loc 1 643 7 is_stmt 1 view .LVU511
 643:Drivers/SOES/Src/esc.c ****       {
 1952              		.loc 1 643 24 is_stmt 0 view .LVU512
 1953 014e 1E4B     		ldr	r3, .L145+8
 1954 0150 5B79     		ldrb	r3, [r3, #5]	@ zero_extendqisi2
 643:Drivers/SOES/Src/esc.c ****       {
 1955              		.loc 1 643 10 view .LVU513
 1956 0152 13F0F00F 		tst	r3, #240
 1957 0156 07D0     		beq	.L133
 643:Drivers/SOES/Src/esc.c ****       {
 1958              		.loc 1 643 37 discriminator 1 view .LVU514
 1959 0158 1B4B     		ldr	r3, .L145+8
 1960 015a 5A79     		ldrb	r2, [r3, #5]	@ zero_extendqisi2
 643:Drivers/SOES/Src/esc.c ****       {
 1961              		.loc 1 643 55 discriminator 1 view .LVU515
 1962 015c 184B     		ldr	r3, .L145
 1963 015e 93F88730 		ldrb	r3, [r3, #135]	@ zero_extendqisi2
 643:Drivers/SOES/Src/esc.c ****       {
 1964              		.loc 1 643 30 discriminator 1 view .LVU516
 1965 0162 B3EB121F 		cmp	r3, r2, lsr #4
 1966 0166 23D0     		beq	.L144
 1967              	.L133:
 648:Drivers/SOES/Src/esc.c ****       return 1;
 1968              		.loc 1 648 7 is_stmt 1 view .LVU517
 648:Drivers/SOES/Src/esc.c ****       return 1;
 1969              		.loc 1 648 28 is_stmt 0 view .LVU518
 1970 0168 174B     		ldr	r3, .L145+8
 1971 016a 5B79     		ldrb	r3, [r3, #5]	@ zero_extendqisi2
 1972 016c C3F30313 		ubfx	r3, r3, #4, #4
 648:Drivers/SOES/Src/esc.c ****       return 1;
 1973              		.loc 1 648 23 view .LVU519
 1974 0170 134A     		ldr	r2, .L145
 1975 0172 82F88730 		strb	r3, [r2, #135]
 649:Drivers/SOES/Src/esc.c ****    }
 1976              		.loc 1 649 7 is_stmt 1 view .LVU520
 649:Drivers/SOES/Src/esc.c ****    }
 1977              		.loc 1 649 14 is_stmt 0 view .LVU521
 1978 0176 0120     		movs	r0, #1
 1979 0178 7DE7     		b	.L121
ARM GAS  /tmp/cctcjG2K.s 			page 48


 1980              	.LVL133:
 1981              	.L142:
 618:Drivers/SOES/Src/esc.c ****          /* Refresh SM status */
 1982              		.loc 1 618 10 is_stmt 1 view .LVU522
 1983 017a FFF7FEFF 		bl	ESC_writembx
 1984              	.LVL134:
 620:Drivers/SOES/Src/esc.c ****          /* change state */
 1985              		.loc 1 620 10 view .LVU523
 1986 017e 0120     		movs	r0, #1
 1987 0180 FFF7FEFF 		bl	ESC_SMstatus
 1988              	.LVL135:
 622:Drivers/SOES/Src/esc.c ****          ESCvar.mbxoutpost = mbxhandle;
 1989              		.loc 1 622 10 view .LVU524
 622:Drivers/SOES/Src/esc.c ****          ESCvar.mbxoutpost = mbxhandle;
 1990              		.loc 1 622 38 is_stmt 0 view .LVU525
 1991 0184 0F4B     		ldr	r3, .L145+4
 1992 0186 0422     		movs	r2, #4
 1993 0188 1A55     		strb	r2, [r3, r4]
 623:Drivers/SOES/Src/esc.c ****          if (ESCvar.txcue)
 1994              		.loc 1 623 10 is_stmt 1 view .LVU526
 623:Drivers/SOES/Src/esc.c ****          if (ESCvar.txcue)
 1995              		.loc 1 623 28 is_stmt 0 view .LVU527
 1996 018a 0D4B     		ldr	r3, .L145
 1997 018c 83F88840 		strb	r4, [r3, #136]
 624:Drivers/SOES/Src/esc.c ****          {
 1998              		.loc 1 624 10 is_stmt 1 view .LVU528
 624:Drivers/SOES/Src/esc.c ****          {
 1999              		.loc 1 624 20 is_stmt 0 view .LVU529
 2000 0190 93F88B30 		ldrb	r3, [r3, #139]	@ zero_extendqisi2
 624:Drivers/SOES/Src/esc.c ****          {
 2001              		.loc 1 624 13 view .LVU530
 2002 0194 002B     		cmp	r3, #0
 2003 0196 BED0     		beq	.L130
 626:Drivers/SOES/Src/esc.c ****          }
 2004              		.loc 1 626 13 is_stmt 1 view .LVU531
 626:Drivers/SOES/Src/esc.c ****          }
 2005              		.loc 1 626 25 is_stmt 0 view .LVU532
 2006 0198 013B     		subs	r3, r3, #1
 2007 019a 094A     		ldr	r2, .L145
 2008 019c 82F88B30 		strb	r3, [r2, #139]
 2009 01a0 B9E7     		b	.L130
 2010              	.L143:
 639:Drivers/SOES/Src/esc.c ****          /* drop mailbox */
 2011              		.loc 1 639 10 is_stmt 1 view .LVU533
 2012 01a2 0520     		movs	r0, #5
 2013 01a4 FFF7FEFF 		bl	MBX_error
 2014              	.LVL136:
 641:Drivers/SOES/Src/esc.c ****       }
 2015              		.loc 1 641 10 view .LVU534
 641:Drivers/SOES/Src/esc.c ****       }
 2016              		.loc 1 641 30 is_stmt 0 view .LVU535
 2017 01a8 064B     		ldr	r3, .L145+4
 2018 01aa 0022     		movs	r2, #0
 2019 01ac 1A70     		strb	r2, [r3]
 2020 01ae CEE7     		b	.L132
 2021              	.L144:
 646:Drivers/SOES/Src/esc.c ****       }
ARM GAS  /tmp/cctcjG2K.s 			page 49


 2022              		.loc 1 646 10 is_stmt 1 view .LVU536
 646:Drivers/SOES/Src/esc.c ****       }
 2023              		.loc 1 646 30 is_stmt 0 view .LVU537
 2024 01b0 044B     		ldr	r3, .L145+4
 2025 01b2 0022     		movs	r2, #0
 2026 01b4 1A70     		strb	r2, [r3]
 2027 01b6 D7E7     		b	.L133
 2028              	.L134:
 652:Drivers/SOES/Src/esc.c **** }
 2029              		.loc 1 652 11 view .LVU538
 2030 01b8 0020     		movs	r0, #0
 2031 01ba 5CE7     		b	.L121
 2032              	.LVL137:
 2033              	.L136:
 2034              		.cfi_def_cfa_offset 0
 2035              		.cfi_restore 4
 2036              		.cfi_restore 14
 2037              		.loc 1 653 1 view .LVU539
 2038 01bc 7047     		bx	lr
 2039              	.L146:
 2040 01be 00BF     		.align	2
 2041              	.L145:
 2042 01c0 00000000 		.word	ESCvar
 2043 01c4 00000000 		.word	MBXcontrol
 2044 01c8 00000000 		.word	MBX
 2045              		.cfi_endproc
 2046              	.LFE28:
 2048              		.section	.text.ESC_xoeprocess,"ax",%progbits
 2049              		.align	1
 2050              		.global	ESC_xoeprocess
 2051              		.syntax unified
 2052              		.thumb
 2053              		.thumb_func
 2055              	ESC_xoeprocess:
 2056              	.LFB29:
 654:Drivers/SOES/Src/esc.c **** /** Handler for incorrect or unsupported mailbox data. Write error response
 655:Drivers/SOES/Src/esc.c ****  * in Mailbox.
 656:Drivers/SOES/Src/esc.c ****  */
 657:Drivers/SOES/Src/esc.c **** void ESC_xoeprocess (void)
 658:Drivers/SOES/Src/esc.c **** {
 2057              		.loc 1 658 1 is_stmt 1 view -0
 2058              		.cfi_startproc
 2059              		@ args = 0, pretend = 0, frame = 0
 2060              		@ frame_needed = 0, uses_anonymous_args = 0
 2061 0000 08B5     		push	{r3, lr}
 2062              		.cfi_def_cfa_offset 8
 2063              		.cfi_offset 3, -8
 2064              		.cfi_offset 14, -4
 659:Drivers/SOES/Src/esc.c ****    _MBXh *mbh;
 2065              		.loc 1 659 4 view .LVU541
 660:Drivers/SOES/Src/esc.c ****    if (ESCvar.MBXrun == 0)
 2066              		.loc 1 660 4 view .LVU542
 2067              		.loc 1 660 14 is_stmt 0 view .LVU543
 2068 0002 104B     		ldr	r3, .L154
 2069 0004 93F86430 		ldrb	r3, [r3, #100]	@ zero_extendqisi2
 2070              		.loc 1 660 7 view .LVU544
 2071 0008 3BB1     		cbz	r3, .L147
ARM GAS  /tmp/cctcjG2K.s 			page 50


 661:Drivers/SOES/Src/esc.c ****    {
 662:Drivers/SOES/Src/esc.c ****       return;
 663:Drivers/SOES/Src/esc.c ****    }
 664:Drivers/SOES/Src/esc.c ****    if ((ESCvar.xoe == 0) && (MBXcontrol[0].state == MBXstate_inclaim))
 2072              		.loc 1 664 4 is_stmt 1 view .LVU545
 2073              		.loc 1 664 15 is_stmt 0 view .LVU546
 2074 000a 0E4B     		ldr	r3, .L154
 2075 000c 93F88A30 		ldrb	r3, [r3, #138]	@ zero_extendqisi2
 2076              		.loc 1 664 7 view .LVU547
 2077 0010 1BB9     		cbnz	r3, .L147
 2078              		.loc 1 664 43 discriminator 1 view .LVU548
 2079 0012 0D4B     		ldr	r3, .L154+4
 2080 0014 1B78     		ldrb	r3, [r3]	@ zero_extendqisi2
 2081              		.loc 1 664 26 discriminator 1 view .LVU549
 2082 0016 012B     		cmp	r3, #1
 2083 0018 00D0     		beq	.L153
 2084              	.L147:
 665:Drivers/SOES/Src/esc.c ****    {
 666:Drivers/SOES/Src/esc.c ****       mbh = (_MBXh *) &MBX[0];
 667:Drivers/SOES/Src/esc.c ****       if ((mbh->mbxtype == 0) || (etohs (mbh->length) == 0))
 668:Drivers/SOES/Src/esc.c ****       {
 669:Drivers/SOES/Src/esc.c ****          MBX_error (MBXERR_INVALIDHEADER);
 670:Drivers/SOES/Src/esc.c ****       }
 671:Drivers/SOES/Src/esc.c ****       else
 672:Drivers/SOES/Src/esc.c ****       {
 673:Drivers/SOES/Src/esc.c ****          MBX_error (MBXERR_UNSUPPORTEDPROTOCOL);
 674:Drivers/SOES/Src/esc.c ****       }
 675:Drivers/SOES/Src/esc.c ****       /* mailbox type not supported, drop mailbox */
 676:Drivers/SOES/Src/esc.c ****       MBXcontrol[0].state = MBXstate_idle;
 677:Drivers/SOES/Src/esc.c ****    }
 678:Drivers/SOES/Src/esc.c **** }
 2085              		.loc 1 678 1 view .LVU550
 2086 001a 08BD     		pop	{r3, pc}
 2087              	.L153:
 666:Drivers/SOES/Src/esc.c ****       if ((mbh->mbxtype == 0) || (etohs (mbh->length) == 0))
 2088              		.loc 1 666 7 is_stmt 1 view .LVU551
 2089              	.LVL138:
 667:Drivers/SOES/Src/esc.c ****       {
 2090              		.loc 1 667 7 view .LVU552
 667:Drivers/SOES/Src/esc.c ****       {
 2091              		.loc 1 667 25 is_stmt 0 view .LVU553
 2092 001c 0B4B     		ldr	r3, .L154+8
 2093 001e 5B79     		ldrb	r3, [r3, #5]	@ zero_extendqisi2
 667:Drivers/SOES/Src/esc.c ****       {
 2094              		.loc 1 667 10 view .LVU554
 2095 0020 13F00F0F 		tst	r3, #15
 2096 0024 02D0     		beq	.L149
 667:Drivers/SOES/Src/esc.c ****       {
 2097              		.loc 1 667 35 discriminator 1 view .LVU555
 2098 0026 094B     		ldr	r3, .L154+8
 2099 0028 1B88     		ldrh	r3, [r3]	@ unaligned
 667:Drivers/SOES/Src/esc.c ****       {
 2100              		.loc 1 667 31 discriminator 1 view .LVU556
 2101 002a 33B9     		cbnz	r3, .L150
 2102              	.L149:
 669:Drivers/SOES/Src/esc.c ****       }
 2103              		.loc 1 669 10 is_stmt 1 view .LVU557
ARM GAS  /tmp/cctcjG2K.s 			page 51


 2104 002c 0520     		movs	r0, #5
 2105 002e FFF7FEFF 		bl	MBX_error
 2106              	.LVL139:
 2107              	.L151:
 676:Drivers/SOES/Src/esc.c ****    }
 2108              		.loc 1 676 7 view .LVU558
 676:Drivers/SOES/Src/esc.c ****    }
 2109              		.loc 1 676 27 is_stmt 0 view .LVU559
 2110 0032 054B     		ldr	r3, .L154+4
 2111 0034 0022     		movs	r2, #0
 2112 0036 1A70     		strb	r2, [r3]
 2113 0038 EFE7     		b	.L147
 2114              	.L150:
 673:Drivers/SOES/Src/esc.c ****       }
 2115              		.loc 1 673 10 is_stmt 1 view .LVU560
 2116 003a 0220     		movs	r0, #2
 2117 003c FFF7FEFF 		bl	MBX_error
 2118              	.LVL140:
 2119 0040 F7E7     		b	.L151
 2120              	.L155:
 2121 0042 00BF     		.align	2
 2122              	.L154:
 2123 0044 00000000 		.word	ESCvar
 2124 0048 00000000 		.word	MBXcontrol
 2125 004c 00000000 		.word	MBX
 2126              		.cfi_endproc
 2127              	.LFE29:
 2129              		.section	.text.ESC_checkSM23,"ax",%progbits
 2130              		.align	1
 2131              		.global	ESC_checkSM23
 2132              		.syntax unified
 2133              		.thumb
 2134              		.thumb_func
 2136              	ESC_checkSM23:
 2137              	.LVL141:
 2138              	.LFB30:
 679:Drivers/SOES/Src/esc.c **** 
 680:Drivers/SOES/Src/esc.c **** /** Validate the values of Sync Manager 2 & 3 that the current ESC values is
 681:Drivers/SOES/Src/esc.c ****  * equal to configured and calculated local values.
 682:Drivers/SOES/Src/esc.c ****  *
 683:Drivers/SOES/Src/esc.c ****  * @param[in] state   = Requested state.
 684:Drivers/SOES/Src/esc.c ****  * @return = incoming state request if every thing checks out OK. = state (PREOP | ERROR)  if somet
 685:Drivers/SOES/Src/esc.c ****  */
 686:Drivers/SOES/Src/esc.c **** uint8_t ESC_checkSM23 (uint8_t state)
 687:Drivers/SOES/Src/esc.c **** {
 2139              		.loc 1 687 1 view -0
 2140              		.cfi_startproc
 2141              		@ args = 0, pretend = 0, frame = 0
 2142              		@ frame_needed = 0, uses_anonymous_args = 0
 2143              		.loc 1 687 1 is_stmt 0 view .LVU562
 2144 0000 38B5     		push	{r3, r4, r5, lr}
 2145              		.cfi_def_cfa_offset 16
 2146              		.cfi_offset 3, -16
 2147              		.cfi_offset 4, -12
 2148              		.cfi_offset 5, -8
 2149              		.cfi_offset 14, -4
 2150 0002 0546     		mov	r5, r0
ARM GAS  /tmp/cctcjG2K.s 			page 52


 688:Drivers/SOES/Src/esc.c ****    _ESCsm2 *SM;
 2151              		.loc 1 688 4 is_stmt 1 view .LVU563
 689:Drivers/SOES/Src/esc.c ****    ESC_read (ESCREG_SM2, (void *) &ESCvar.SM[2], sizeof (ESCvar.SM[2]));
 2152              		.loc 1 689 4 view .LVU564
 2153 0004 2C4C     		ldr	r4, .L165
 2154 0006 0822     		movs	r2, #8
 2155 0008 2146     		mov	r1, r4
 2156 000a 4FF40160 		mov	r0, #2064
 2157              	.LVL142:
 2158              		.loc 1 689 4 is_stmt 0 view .LVU565
 2159 000e FFF7FEFF 		bl	ESC_read
 2160              	.LVL143:
 690:Drivers/SOES/Src/esc.c ****    SM = (_ESCsm2 *) & ESCvar.SM[2];
 2161              		.loc 1 690 4 is_stmt 1 view .LVU566
 691:Drivers/SOES/Src/esc.c ****    if ((etohs (SM->PSA) != ESC_SM2_sma) || (etohs (SM->Length) != ESCvar.ESC_SM2_sml)
 2162              		.loc 1 691 4 view .LVU567
 2163              		.loc 1 691 9 is_stmt 0 view .LVU568
 2164 0012 2388     		ldrh	r3, [r4]
 2165              		.loc 1 691 7 view .LVU569
 2166 0014 B3F5A05F 		cmp	r3, #5120
 2167 0018 3BD1     		bne	.L157
 2168              		.loc 1 691 45 discriminator 1 view .LVU570
 2169 001a A4F1C402 		sub	r2, r4, #196
 2170 001e B2F8C630 		ldrh	r3, [r2, #198]
 2171              		.loc 1 691 73 discriminator 1 view .LVU571
 2172 0022 B2F87420 		ldrh	r2, [r2, #116]
 2173              		.loc 1 691 41 discriminator 1 view .LVU572
 2174 0026 9342     		cmp	r3, r2
 2175 0028 33D1     		bne	.L157
 692:Drivers/SOES/Src/esc.c ****        || (SM->Command != ESC_SM2_smc) || !(SM->ActESC & ESC_SM2_act))
 2176              		.loc 1 692 14 view .LVU573
 2177 002a A4F1C402 		sub	r2, r4, #196
 2178 002e 92F8C820 		ldrb	r2, [r2, #200]	@ zero_extendqisi2
 2179              		.loc 1 692 8 view .LVU574
 2180 0032 242A     		cmp	r2, #36
 2181 0034 2DD1     		bne	.L157
 2182              		.loc 1 692 47 discriminator 1 view .LVU575
 2183 0036 A4F1C402 		sub	r2, r4, #196
 2184 003a 92F8CA20 		ldrb	r2, [r2, #202]	@ zero_extendqisi2
 2185              		.loc 1 692 40 discriminator 1 view .LVU576
 2186 003e 12F0010F 		tst	r2, #1
 2187 0042 26D0     		beq	.L157
 693:Drivers/SOES/Src/esc.c ****    {
 694:Drivers/SOES/Src/esc.c ****       ESCvar.SMtestresult = SMRESULT_ERRSM2;
 695:Drivers/SOES/Src/esc.c ****       /* fail state change */
 696:Drivers/SOES/Src/esc.c ****       return (ESCpreop | ESCerror);
 697:Drivers/SOES/Src/esc.c ****    }
 698:Drivers/SOES/Src/esc.c ****    if ((ESC_SM2_sma + (etohs (SM->Length) * 3)) > ESC_SM3_sma)
 2188              		.loc 1 698 4 is_stmt 1 view .LVU577
 2189              		.loc 1 698 43 is_stmt 0 view .LVU578
 2190 0044 03EB4303 		add	r3, r3, r3, lsl #1
 2191              		.loc 1 698 7 view .LVU579
 2192 0048 B3F5C06F 		cmp	r3, #1536
 2193 004c 27DC     		bgt	.L164
 699:Drivers/SOES/Src/esc.c ****    {
 700:Drivers/SOES/Src/esc.c ****       ESCvar.SMtestresult = SMRESULT_ERRSM2;
 701:Drivers/SOES/Src/esc.c ****       /* SM2 overlaps SM3, fail state change */
ARM GAS  /tmp/cctcjG2K.s 			page 53


 702:Drivers/SOES/Src/esc.c ****       return (ESCpreop | ESCerror);
 703:Drivers/SOES/Src/esc.c ****    }
 704:Drivers/SOES/Src/esc.c ****    ESC_read (ESCREG_SM3, (void *) &ESCvar.SM[3], sizeof (ESCvar.SM[3]));
 2194              		.loc 1 704 4 is_stmt 1 view .LVU580
 2195 004e 1B4C     		ldr	r4, .L165+4
 2196              	.LVL144:
 2197              		.loc 1 704 4 is_stmt 0 view .LVU581
 2198 0050 0822     		movs	r2, #8
 2199 0052 2146     		mov	r1, r4
 2200 0054 40F61800 		movw	r0, #2072
 2201 0058 FFF7FEFF 		bl	ESC_read
 2202              	.LVL145:
 705:Drivers/SOES/Src/esc.c ****    SM = (_ESCsm2 *) & ESCvar.SM[3];
 2203              		.loc 1 705 4 is_stmt 1 view .LVU582
 706:Drivers/SOES/Src/esc.c ****    if ((etohs (SM->PSA) != ESC_SM3_sma) || (etohs (SM->Length) != ESCvar.ESC_SM3_sml)
 2204              		.loc 1 706 4 view .LVU583
 2205              		.loc 1 706 9 is_stmt 0 view .LVU584
 2206 005c 2388     		ldrh	r3, [r4]
 2207              		.loc 1 706 7 view .LVU585
 2208 005e B3F5D05F 		cmp	r3, #6656
 2209 0062 22D1     		bne	.L161
 2210              		.loc 1 706 45 discriminator 1 view .LVU586
 2211 0064 A4F1CC03 		sub	r3, r4, #204
 2212 0068 B3F8CE20 		ldrh	r2, [r3, #206]
 2213              		.loc 1 706 73 discriminator 1 view .LVU587
 2214 006c B3F87630 		ldrh	r3, [r3, #118]
 2215              		.loc 1 706 41 discriminator 1 view .LVU588
 2216 0070 9A42     		cmp	r2, r3
 2217 0072 1AD1     		bne	.L161
 707:Drivers/SOES/Src/esc.c ****        || (SM->Command != ESC_SM3_smc) || !(SM->ActESC & ESC_SM3_act))
 2218              		.loc 1 707 14 view .LVU589
 2219 0074 A4F1CC03 		sub	r3, r4, #204
 2220 0078 93F8D030 		ldrb	r3, [r3, #208]	@ zero_extendqisi2
 2221              		.loc 1 707 8 view .LVU590
 2222 007c 202B     		cmp	r3, #32
 2223 007e 14D1     		bne	.L161
 2224              		.loc 1 707 47 discriminator 1 view .LVU591
 2225 0080 A4F1CC03 		sub	r3, r4, #204
 2226 0084 93F8D230 		ldrb	r3, [r3, #210]	@ zero_extendqisi2
 2227              		.loc 1 707 40 discriminator 1 view .LVU592
 2228 0088 13F0010F 		tst	r3, #1
 2229 008c 0DD0     		beq	.L161
 708:Drivers/SOES/Src/esc.c ****    {
 709:Drivers/SOES/Src/esc.c ****       ESCvar.SMtestresult = SMRESULT_ERRSM3;
 710:Drivers/SOES/Src/esc.c ****       /* fail state change */
 711:Drivers/SOES/Src/esc.c ****       return (ESCpreop | ESCerror);
 712:Drivers/SOES/Src/esc.c ****    }
 713:Drivers/SOES/Src/esc.c ****    return state;
 2230              		.loc 1 713 11 view .LVU593
 2231 008e 2846     		mov	r0, r5
 2232 0090 04E0     		b	.L159
 2233              	.L157:
 694:Drivers/SOES/Src/esc.c ****       /* fail state change */
 2234              		.loc 1 694 7 is_stmt 1 view .LVU594
 694:Drivers/SOES/Src/esc.c ****       /* fail state change */
 2235              		.loc 1 694 27 is_stmt 0 view .LVU595
 2236 0092 0B4B     		ldr	r3, .L165+8
ARM GAS  /tmp/cctcjG2K.s 			page 54


 2237 0094 0422     		movs	r2, #4
 2238 0096 83F8AC20 		strb	r2, [r3, #172]
 696:Drivers/SOES/Src/esc.c ****    }
 2239              		.loc 1 696 7 is_stmt 1 view .LVU596
 696:Drivers/SOES/Src/esc.c ****    }
 2240              		.loc 1 696 14 is_stmt 0 view .LVU597
 2241 009a 1220     		movs	r0, #18
 2242              	.L159:
 714:Drivers/SOES/Src/esc.c **** }
 2243              		.loc 1 714 1 view .LVU598
 2244 009c 38BD     		pop	{r3, r4, r5, pc}
 2245              	.LVL146:
 2246              	.L164:
 700:Drivers/SOES/Src/esc.c ****       /* SM2 overlaps SM3, fail state change */
 2247              		.loc 1 700 7 is_stmt 1 view .LVU599
 700:Drivers/SOES/Src/esc.c ****       /* SM2 overlaps SM3, fail state change */
 2248              		.loc 1 700 27 is_stmt 0 view .LVU600
 2249 009e 084B     		ldr	r3, .L165+8
 2250 00a0 0422     		movs	r2, #4
 2251 00a2 83F8AC20 		strb	r2, [r3, #172]
 702:Drivers/SOES/Src/esc.c ****    }
 2252              		.loc 1 702 7 is_stmt 1 view .LVU601
 702:Drivers/SOES/Src/esc.c ****    }
 2253              		.loc 1 702 14 is_stmt 0 view .LVU602
 2254 00a6 1220     		movs	r0, #18
 2255 00a8 F8E7     		b	.L159
 2256              	.L161:
 709:Drivers/SOES/Src/esc.c ****       /* fail state change */
 2257              		.loc 1 709 7 is_stmt 1 view .LVU603
 709:Drivers/SOES/Src/esc.c ****       /* fail state change */
 2258              		.loc 1 709 27 is_stmt 0 view .LVU604
 2259 00aa 054B     		ldr	r3, .L165+8
 2260 00ac 0822     		movs	r2, #8
 2261 00ae 83F8AC20 		strb	r2, [r3, #172]
 711:Drivers/SOES/Src/esc.c ****    }
 2262              		.loc 1 711 7 is_stmt 1 view .LVU605
 711:Drivers/SOES/Src/esc.c ****    }
 2263              		.loc 1 711 14 is_stmt 0 view .LVU606
 2264 00b2 1220     		movs	r0, #18
 2265 00b4 F2E7     		b	.L159
 2266              	.L166:
 2267 00b6 00BF     		.align	2
 2268              	.L165:
 2269 00b8 C4000000 		.word	ESCvar+196
 2270 00bc CC000000 		.word	ESCvar+204
 2271 00c0 00000000 		.word	ESCvar
 2272              		.cfi_endproc
 2273              	.LFE30:
 2275              		.section	.text.ESC_startinput,"ax",%progbits
 2276              		.align	1
 2277              		.global	ESC_startinput
 2278              		.syntax unified
 2279              		.thumb
 2280              		.thumb_func
 2282              	ESC_startinput:
 2283              	.LVL147:
 2284              	.LFB31:
ARM GAS  /tmp/cctcjG2K.s 			page 55


 715:Drivers/SOES/Src/esc.c **** 
 716:Drivers/SOES/Src/esc.c **** /** Function trying to enable start updating the process data inputs. It calls the check SM 2 & 3
 717:Drivers/SOES/Src/esc.c ****  * routine, based on the result from there if enables or disables the Input SyncManager, in additio
 718:Drivers/SOES/Src/esc.c ****  * it updates the ALStatusCode case something didn't pass the check.
 719:Drivers/SOES/Src/esc.c ****  *
 720:Drivers/SOES/Src/esc.c ****  * @param[in] state   = Requested state.
 721:Drivers/SOES/Src/esc.c ****  * @return = state, incoming state request if every thing checks out OK. =state (PREOP | ERROR) if 
 722:Drivers/SOES/Src/esc.c ****  */
 723:Drivers/SOES/Src/esc.c **** uint8_t ESC_startinput (uint8_t state)
 724:Drivers/SOES/Src/esc.c **** {
 2285              		.loc 1 724 1 is_stmt 1 view -0
 2286              		.cfi_startproc
 2287              		@ args = 0, pretend = 0, frame = 0
 2288              		@ frame_needed = 0, uses_anonymous_args = 0
 2289              		.loc 1 724 1 is_stmt 0 view .LVU608
 2290 0000 10B5     		push	{r4, lr}
 2291              		.cfi_def_cfa_offset 8
 2292              		.cfi_offset 4, -8
 2293              		.cfi_offset 14, -4
 725:Drivers/SOES/Src/esc.c **** 
 726:Drivers/SOES/Src/esc.c ****    state = ESC_checkSM23 (state);
 2294              		.loc 1 726 4 is_stmt 1 view .LVU609
 2295              		.loc 1 726 12 is_stmt 0 view .LVU610
 2296 0002 FFF7FEFF 		bl	ESC_checkSM23
 2297              	.LVL148:
 2298              		.loc 1 726 12 view .LVU611
 2299 0006 0446     		mov	r4, r0
 2300              	.LVL149:
 727:Drivers/SOES/Src/esc.c **** 
 728:Drivers/SOES/Src/esc.c ****    if (state != (ESCpreop | ESCerror))
 2301              		.loc 1 728 4 is_stmt 1 view .LVU612
 2302              		.loc 1 728 7 is_stmt 0 view .LVU613
 2303 0008 1228     		cmp	r0, #18
 2304 000a 10D0     		beq	.L168
 729:Drivers/SOES/Src/esc.c ****    {
 730:Drivers/SOES/Src/esc.c ****       ESC_SMenable (3);
 2305              		.loc 1 730 7 is_stmt 1 view .LVU614
 2306 000c 0320     		movs	r0, #3
 2307              	.LVL150:
 2308              		.loc 1 730 7 is_stmt 0 view .LVU615
 2309 000e FFF7FEFF 		bl	ESC_SMenable
 2310              	.LVL151:
 731:Drivers/SOES/Src/esc.c ****       CC_ATOMIC_SET(ESCvar.App.state, APPSTATE_INPUT);
 2311              		.loc 1 731 7 is_stmt 1 view .LVU616
 2312 0012 BFF35B8F 		dmb	ish
 2313 0016 224B     		ldr	r3, .L177
 2314 0018 0122     		movs	r2, #1
 2315 001a 1A70     		strb	r2, [r3]
 2316 001c BFF35B8F 		dmb	ish
 2317              	.L169:
 732:Drivers/SOES/Src/esc.c ****    }
 733:Drivers/SOES/Src/esc.c ****    else
 734:Drivers/SOES/Src/esc.c ****    {
 735:Drivers/SOES/Src/esc.c ****       ESC_SMdisable (2);
 736:Drivers/SOES/Src/esc.c ****       ESC_SMdisable (3);
 737:Drivers/SOES/Src/esc.c ****       if (ESCvar.SMtestresult & SMRESULT_ERRSM3)
 738:Drivers/SOES/Src/esc.c ****       {
ARM GAS  /tmp/cctcjG2K.s 			page 56


 739:Drivers/SOES/Src/esc.c ****          ESC_ALerror (ALERR_INVALIDINPUTSM);
 740:Drivers/SOES/Src/esc.c ****       }
 741:Drivers/SOES/Src/esc.c ****       else
 742:Drivers/SOES/Src/esc.c ****       {
 743:Drivers/SOES/Src/esc.c ****          ESC_ALerror (ALERR_INVALIDOUTPUTSM);
 744:Drivers/SOES/Src/esc.c ****       }
 745:Drivers/SOES/Src/esc.c ****    }
 746:Drivers/SOES/Src/esc.c **** 
 747:Drivers/SOES/Src/esc.c ****    /* Exit here if polling */
 748:Drivers/SOES/Src/esc.c ****    if (ESCvar.use_interrupt == 0)
 2318              		.loc 1 748 4 view .LVU617
 2319              		.loc 1 748 14 is_stmt 0 view .LVU618
 2320 0020 204B     		ldr	r3, .L177+4
 2321 0022 1B68     		ldr	r3, [r3]
 2322              		.loc 1 748 7 view .LVU619
 2323 0024 0BB1     		cbz	r3, .L171
 749:Drivers/SOES/Src/esc.c ****    {
 750:Drivers/SOES/Src/esc.c ****       return state;
 751:Drivers/SOES/Src/esc.c ****    }
 752:Drivers/SOES/Src/esc.c **** 
 753:Drivers/SOES/Src/esc.c ****    if (state != (ESCpreop | ESCerror))
 2324              		.loc 1 753 4 is_stmt 1 view .LVU620
 2325              		.loc 1 753 7 is_stmt 0 view .LVU621
 2326 0026 122C     		cmp	r4, #18
 2327 0028 15D1     		bne	.L175
 2328              	.L171:
 754:Drivers/SOES/Src/esc.c ****    {
 755:Drivers/SOES/Src/esc.c ****       uint16_t dc_check_result;
 756:Drivers/SOES/Src/esc.c ****       dc_check_result = ESC_checkDC();
 757:Drivers/SOES/Src/esc.c ****       if(dc_check_result > 0)
 758:Drivers/SOES/Src/esc.c ****       {
 759:Drivers/SOES/Src/esc.c ****          ESC_ALerror (dc_check_result);
 760:Drivers/SOES/Src/esc.c ****          state = (ESCpreop | ESCerror);
 761:Drivers/SOES/Src/esc.c **** 
 762:Drivers/SOES/Src/esc.c ****          ESC_SMdisable (2);
 763:Drivers/SOES/Src/esc.c ****          ESC_SMdisable (3);
 764:Drivers/SOES/Src/esc.c ****          CC_ATOMIC_SET(ESCvar.App.state, APPSTATE_IDLE);
 765:Drivers/SOES/Src/esc.c ****       }
 766:Drivers/SOES/Src/esc.c ****       else
 767:Drivers/SOES/Src/esc.c ****       {
 768:Drivers/SOES/Src/esc.c ****          if (ESCvar.esc_hw_interrupt_enable != NULL)
 769:Drivers/SOES/Src/esc.c ****          {
 770:Drivers/SOES/Src/esc.c ****             if(ESCvar.dcsync > 0)
 771:Drivers/SOES/Src/esc.c ****             {
 772:Drivers/SOES/Src/esc.c ****                ESCvar.esc_hw_interrupt_enable(ESCREG_ALEVENT_DC_SYNC0 |
 773:Drivers/SOES/Src/esc.c ****                      ESCREG_ALEVENT_SM2);
 774:Drivers/SOES/Src/esc.c ****             }
 775:Drivers/SOES/Src/esc.c ****             else
 776:Drivers/SOES/Src/esc.c ****             {
 777:Drivers/SOES/Src/esc.c ****                ESCvar.esc_hw_interrupt_enable(ESCREG_ALEVENT_SM2);
 778:Drivers/SOES/Src/esc.c ****             }
 779:Drivers/SOES/Src/esc.c ****          }
 780:Drivers/SOES/Src/esc.c ****       }
 781:Drivers/SOES/Src/esc.c ****    }
 782:Drivers/SOES/Src/esc.c **** 
 783:Drivers/SOES/Src/esc.c ****    return state;
 784:Drivers/SOES/Src/esc.c **** }
ARM GAS  /tmp/cctcjG2K.s 			page 57


 2329              		.loc 1 784 1 view .LVU622
 2330 002a 2046     		mov	r0, r4
 2331 002c 10BD     		pop	{r4, pc}
 2332              	.LVL152:
 2333              	.L168:
 735:Drivers/SOES/Src/esc.c ****       ESC_SMdisable (3);
 2334              		.loc 1 735 7 is_stmt 1 view .LVU623
 2335 002e 0220     		movs	r0, #2
 2336              	.LVL153:
 735:Drivers/SOES/Src/esc.c ****       ESC_SMdisable (3);
 2337              		.loc 1 735 7 is_stmt 0 view .LVU624
 2338 0030 FFF7FEFF 		bl	ESC_SMdisable
 2339              	.LVL154:
 736:Drivers/SOES/Src/esc.c ****       if (ESCvar.SMtestresult & SMRESULT_ERRSM3)
 2340              		.loc 1 736 7 is_stmt 1 view .LVU625
 2341 0034 0320     		movs	r0, #3
 2342 0036 FFF7FEFF 		bl	ESC_SMdisable
 2343              	.LVL155:
 737:Drivers/SOES/Src/esc.c ****       {
 2344              		.loc 1 737 7 view .LVU626
 737:Drivers/SOES/Src/esc.c ****       {
 2345              		.loc 1 737 17 is_stmt 0 view .LVU627
 2346 003a 1A4B     		ldr	r3, .L177+4
 2347 003c 93F8AC30 		ldrb	r3, [r3, #172]	@ zero_extendqisi2
 737:Drivers/SOES/Src/esc.c ****       {
 2348              		.loc 1 737 10 view .LVU628
 2349 0040 13F0080F 		tst	r3, #8
 2350 0044 03D0     		beq	.L170
 739:Drivers/SOES/Src/esc.c ****       }
 2351              		.loc 1 739 10 is_stmt 1 view .LVU629
 2352 0046 1E20     		movs	r0, #30
 2353 0048 FFF7FEFF 		bl	ESC_ALerror
 2354              	.LVL156:
 2355 004c E8E7     		b	.L169
 2356              	.L170:
 743:Drivers/SOES/Src/esc.c ****       }
 2357              		.loc 1 743 10 view .LVU630
 2358 004e 1D20     		movs	r0, #29
 2359 0050 FFF7FEFF 		bl	ESC_ALerror
 2360              	.LVL157:
 2361 0054 E4E7     		b	.L169
 2362              	.L175:
 2363              	.LBB2:
 755:Drivers/SOES/Src/esc.c ****       dc_check_result = ESC_checkDC();
 2364              		.loc 1 755 7 view .LVU631
 756:Drivers/SOES/Src/esc.c ****       if(dc_check_result > 0)
 2365              		.loc 1 756 7 view .LVU632
 756:Drivers/SOES/Src/esc.c ****       if(dc_check_result > 0)
 2366              		.loc 1 756 25 is_stmt 0 view .LVU633
 2367 0056 FFF7FEFF 		bl	ESC_checkDC
 2368              	.LVL158:
 757:Drivers/SOES/Src/esc.c ****       {
 2369              		.loc 1 757 7 is_stmt 1 view .LVU634
 757:Drivers/SOES/Src/esc.c ****       {
 2370              		.loc 1 757 9 is_stmt 0 view .LVU635
 2371 005a 58B9     		cbnz	r0, .L176
 768:Drivers/SOES/Src/esc.c ****          {
ARM GAS  /tmp/cctcjG2K.s 			page 58


 2372              		.loc 1 768 10 is_stmt 1 view .LVU636
 768:Drivers/SOES/Src/esc.c ****          {
 2373              		.loc 1 768 20 is_stmt 0 view .LVU637
 2374 005c 114B     		ldr	r3, .L177+4
 2375 005e 5B6D     		ldr	r3, [r3, #84]
 768:Drivers/SOES/Src/esc.c ****          {
 2376              		.loc 1 768 13 view .LVU638
 2377 0060 002B     		cmp	r3, #0
 2378 0062 E2D0     		beq	.L171
 770:Drivers/SOES/Src/esc.c ****             {
 2379              		.loc 1 770 13 is_stmt 1 view .LVU639
 770:Drivers/SOES/Src/esc.c ****             {
 2380              		.loc 1 770 22 is_stmt 0 view .LVU640
 2381 0064 0F4A     		ldr	r2, .L177+4
 2382 0066 92F87820 		ldrb	r2, [r2, #120]	@ zero_extendqisi2
 770:Drivers/SOES/Src/esc.c ****             {
 2383              		.loc 1 770 15 view .LVU641
 2384 006a A2B1     		cbz	r2, .L173
 772:Drivers/SOES/Src/esc.c ****                      ESCREG_ALEVENT_SM2);
 2385              		.loc 1 772 16 is_stmt 1 view .LVU642
 2386 006c 40F20440 		movw	r0, #1028
 2387              	.LVL159:
 772:Drivers/SOES/Src/esc.c ****                      ESCREG_ALEVENT_SM2);
 2388              		.loc 1 772 16 is_stmt 0 view .LVU643
 2389 0070 9847     		blx	r3
 2390              	.LVL160:
 2391 0072 DAE7     		b	.L171
 2392              	.LVL161:
 2393              	.L176:
 759:Drivers/SOES/Src/esc.c ****          state = (ESCpreop | ESCerror);
 2394              		.loc 1 759 10 is_stmt 1 view .LVU644
 2395 0074 FFF7FEFF 		bl	ESC_ALerror
 2396              	.LVL162:
 760:Drivers/SOES/Src/esc.c **** 
 2397              		.loc 1 760 10 view .LVU645
 762:Drivers/SOES/Src/esc.c ****          ESC_SMdisable (3);
 2398              		.loc 1 762 10 view .LVU646
 2399 0078 0220     		movs	r0, #2
 2400 007a FFF7FEFF 		bl	ESC_SMdisable
 2401              	.LVL163:
 763:Drivers/SOES/Src/esc.c ****          CC_ATOMIC_SET(ESCvar.App.state, APPSTATE_IDLE);
 2402              		.loc 1 763 10 view .LVU647
 2403 007e 0320     		movs	r0, #3
 2404 0080 FFF7FEFF 		bl	ESC_SMdisable
 2405              	.LVL164:
 764:Drivers/SOES/Src/esc.c ****       }
 2406              		.loc 1 764 10 view .LVU648
 2407 0084 BFF35B8F 		dmb	ish
 2408 0088 054B     		ldr	r3, .L177
 2409 008a 0022     		movs	r2, #0
 2410 008c 1A70     		strb	r2, [r3]
 2411 008e BFF35B8F 		dmb	ish
 760:Drivers/SOES/Src/esc.c **** 
 2412              		.loc 1 760 16 is_stmt 0 view .LVU649
 2413 0092 1224     		movs	r4, #18
 2414 0094 C9E7     		b	.L171
 2415              	.LVL165:
ARM GAS  /tmp/cctcjG2K.s 			page 59


 2416              	.L173:
 777:Drivers/SOES/Src/esc.c ****             }
 2417              		.loc 1 777 16 is_stmt 1 view .LVU650
 2418 0096 4FF48060 		mov	r0, #1024
 2419              	.LVL166:
 777:Drivers/SOES/Src/esc.c ****             }
 2420              		.loc 1 777 16 is_stmt 0 view .LVU651
 2421 009a 9847     		blx	r3
 2422              	.LVL167:
 2423 009c C5E7     		b	.L171
 2424              	.L178:
 2425 009e 00BF     		.align	2
 2426              	.L177:
 2427 00a0 DF000000 		.word	ESCvar+223
 2428 00a4 00000000 		.word	ESCvar
 2429              	.LBE2:
 2430              		.cfi_endproc
 2431              	.LFE31:
 2433              		.section	.text.ESC_stopinput,"ax",%progbits
 2434              		.align	1
 2435              		.global	ESC_stopinput
 2436              		.syntax unified
 2437              		.thumb
 2438              		.thumb_func
 2440              	ESC_stopinput:
 2441              	.LFB32:
 785:Drivers/SOES/Src/esc.c **** 
 786:Drivers/SOES/Src/esc.c **** /** Unconditional stop of updating inputs by disabling Sync Manager 2 & 3.
 787:Drivers/SOES/Src/esc.c ****  * Set the App.state to APPSTATE_IDLE.
 788:Drivers/SOES/Src/esc.c ****  *
 789:Drivers/SOES/Src/esc.c ****  */
 790:Drivers/SOES/Src/esc.c **** void ESC_stopinput (void)
 791:Drivers/SOES/Src/esc.c **** {
 2442              		.loc 1 791 1 is_stmt 1 view -0
 2443              		.cfi_startproc
 2444              		@ args = 0, pretend = 0, frame = 0
 2445              		@ frame_needed = 0, uses_anonymous_args = 0
 2446 0000 10B5     		push	{r4, lr}
 2447              		.cfi_def_cfa_offset 8
 2448              		.cfi_offset 4, -8
 2449              		.cfi_offset 14, -4
 792:Drivers/SOES/Src/esc.c ****    CC_ATOMIC_SET(ESCvar.App.state, APPSTATE_IDLE);
 2450              		.loc 1 792 4 view .LVU653
 2451 0002 0C4C     		ldr	r4, .L182
 2452 0004 BFF35B8F 		dmb	ish
 2453 0008 0023     		movs	r3, #0
 2454 000a 2370     		strb	r3, [r4]
 2455 000c BFF35B8F 		dmb	ish
 793:Drivers/SOES/Src/esc.c ****    ESC_SMdisable (3);
 2456              		.loc 1 793 4 view .LVU654
 2457 0010 0320     		movs	r0, #3
 2458 0012 FFF7FEFF 		bl	ESC_SMdisable
 2459              	.LVL168:
 794:Drivers/SOES/Src/esc.c ****    ESC_SMdisable (2);
 2460              		.loc 1 794 4 view .LVU655
 2461 0016 0220     		movs	r0, #2
 2462 0018 FFF7FEFF 		bl	ESC_SMdisable
ARM GAS  /tmp/cctcjG2K.s 			page 60


 2463              	.LVL169:
 795:Drivers/SOES/Src/esc.c **** 
 796:Drivers/SOES/Src/esc.c ****    /* Call interrupt disable hook case it have been configured  */
 797:Drivers/SOES/Src/esc.c ****    if ((ESCvar.use_interrupt != 0) &&
 2464              		.loc 1 797 4 view .LVU656
 2465              		.loc 1 797 15 is_stmt 0 view .LVU657
 2466 001c 54F8DF3C 		ldr	r3, [r4, #-223]
 2467              		.loc 1 797 7 view .LVU658
 2468 0020 33B1     		cbz	r3, .L179
 798:Drivers/SOES/Src/esc.c ****          (ESCvar.esc_hw_interrupt_disable != NULL))
 2469              		.loc 1 798 17 discriminator 1 view .LVU659
 2470 0022 A4F1DF03 		sub	r3, r4, #223
 2471 0026 9B6D     		ldr	r3, [r3, #88]
 797:Drivers/SOES/Src/esc.c ****          (ESCvar.esc_hw_interrupt_disable != NULL))
 2472              		.loc 1 797 36 discriminator 1 view .LVU660
 2473 0028 13B1     		cbz	r3, .L179
 799:Drivers/SOES/Src/esc.c ****    {
 800:Drivers/SOES/Src/esc.c ****       ESCvar.esc_hw_interrupt_disable (ESCREG_ALEVENT_DC_SYNC0 |
 2474              		.loc 1 800 7 is_stmt 1 view .LVU661
 2475 002a 40F20440 		movw	r0, #1028
 2476 002e 9847     		blx	r3
 2477              	.LVL170:
 2478              	.L179:
 801:Drivers/SOES/Src/esc.c ****             ESCREG_ALEVENT_SM2);
 802:Drivers/SOES/Src/esc.c ****    }
 803:Drivers/SOES/Src/esc.c **** }
 2479              		.loc 1 803 1 is_stmt 0 view .LVU662
 2480 0030 10BD     		pop	{r4, pc}
 2481              	.L183:
 2482 0032 00BF     		.align	2
 2483              	.L182:
 2484 0034 DF000000 		.word	ESCvar+223
 2485              		.cfi_endproc
 2486              	.LFE32:
 2488              		.section	.text.ESC_startoutput,"ax",%progbits
 2489              		.align	1
 2490              		.global	ESC_startoutput
 2491              		.syntax unified
 2492              		.thumb
 2493              		.thumb_func
 2495              	ESC_startoutput:
 2496              	.LVL171:
 2497              	.LFB33:
 804:Drivers/SOES/Src/esc.c **** 
 805:Drivers/SOES/Src/esc.c **** 
 806:Drivers/SOES/Src/esc.c **** /** Unconditional start of updating outputs by enabling Sync Manager 2.
 807:Drivers/SOES/Src/esc.c ****  * Set the App.state to APPSTATE_OUTPUT.
 808:Drivers/SOES/Src/esc.c ****  *
 809:Drivers/SOES/Src/esc.c ****  * @param[in] state   = Not used.
 810:Drivers/SOES/Src/esc.c ****  * @return = state unchanged.
 811:Drivers/SOES/Src/esc.c ****  *
 812:Drivers/SOES/Src/esc.c ****  */
 813:Drivers/SOES/Src/esc.c **** uint8_t ESC_startoutput (uint8_t state)
 814:Drivers/SOES/Src/esc.c **** {
 2498              		.loc 1 814 1 is_stmt 1 view -0
 2499              		.cfi_startproc
 2500              		@ args = 0, pretend = 0, frame = 0
ARM GAS  /tmp/cctcjG2K.s 			page 61


 2501              		@ frame_needed = 0, uses_anonymous_args = 0
 2502              		.loc 1 814 1 is_stmt 0 view .LVU664
 2503 0000 10B5     		push	{r4, lr}
 2504              		.cfi_def_cfa_offset 8
 2505              		.cfi_offset 4, -8
 2506              		.cfi_offset 14, -4
 2507 0002 0446     		mov	r4, r0
 815:Drivers/SOES/Src/esc.c **** 
 816:Drivers/SOES/Src/esc.c ****    ESC_SMenable (2);
 2508              		.loc 1 816 4 is_stmt 1 view .LVU665
 2509 0004 0220     		movs	r0, #2
 2510              	.LVL172:
 2511              		.loc 1 816 4 is_stmt 0 view .LVU666
 2512 0006 FFF7FEFF 		bl	ESC_SMenable
 2513              	.LVL173:
 817:Drivers/SOES/Src/esc.c ****    CC_ATOMIC_OR(ESCvar.App.state, APPSTATE_OUTPUT);
 2514              		.loc 1 817 4 is_stmt 1 view .LVU667
 2515 000a 074B     		ldr	r3, .L187
 2516 000c BFF35B8F 		dmb	ish
 2517              	.L185:
 2518 0010 D3E84F2F 		ldrexb	r2, [r3]
 2519 0014 42F00202 		orr	r2, r2, #2
 2520 0018 C3E8412F 		strexb	r1, r2, [r3]
 2521 001c 0029     		cmp	r1, #0
 2522 001e F7D1     		bne	.L185
 2523 0020 BFF35B8F 		dmb	ish
 818:Drivers/SOES/Src/esc.c ****    return state;
 2524              		.loc 1 818 4 view .LVU668
 819:Drivers/SOES/Src/esc.c **** 
 820:Drivers/SOES/Src/esc.c **** }
 2525              		.loc 1 820 1 is_stmt 0 view .LVU669
 2526 0024 2046     		mov	r0, r4
 2527 0026 10BD     		pop	{r4, pc}
 2528              	.L188:
 2529              		.align	2
 2530              	.L187:
 2531 0028 DF000000 		.word	ESCvar+223
 2532              		.cfi_endproc
 2533              	.LFE33:
 2535              		.section	.text.ESC_stopoutput,"ax",%progbits
 2536              		.align	1
 2537              		.global	ESC_stopoutput
 2538              		.syntax unified
 2539              		.thumb
 2540              		.thumb_func
 2542              	ESC_stopoutput:
 2543              	.LFB34:
 821:Drivers/SOES/Src/esc.c **** 
 822:Drivers/SOES/Src/esc.c **** /** Unconditional stop of updating outputs by disabling Sync Manager 2.
 823:Drivers/SOES/Src/esc.c ****  * Set the App.state to APPSTATE_INPUT. Call application hook APP_safeoutput
 824:Drivers/SOES/Src/esc.c ****  * letting the user to set safe state values on outputs.
 825:Drivers/SOES/Src/esc.c ****  *
 826:Drivers/SOES/Src/esc.c ****  */
 827:Drivers/SOES/Src/esc.c **** void ESC_stopoutput (void)
 828:Drivers/SOES/Src/esc.c **** {
 2544              		.loc 1 828 1 is_stmt 1 view -0
 2545              		.cfi_startproc
ARM GAS  /tmp/cctcjG2K.s 			page 62


 2546              		@ args = 0, pretend = 0, frame = 0
 2547              		@ frame_needed = 0, uses_anonymous_args = 0
 2548 0000 08B5     		push	{r3, lr}
 2549              		.cfi_def_cfa_offset 8
 2550              		.cfi_offset 3, -8
 2551              		.cfi_offset 14, -4
 829:Drivers/SOES/Src/esc.c ****    CC_ATOMIC_AND(ESCvar.App.state, APPSTATE_INPUT);
 2552              		.loc 1 829 4 view .LVU671
 2553 0002 094B     		ldr	r3, .L192
 2554 0004 BFF35B8F 		dmb	ish
 2555              	.L190:
 2556 0008 D3E84F2F 		ldrexb	r2, [r3]
 2557 000c 02F00102 		and	r2, r2, #1
 2558 0010 C3E8412F 		strexb	r1, r2, [r3]
 2559 0014 0029     		cmp	r1, #0
 2560 0016 F7D1     		bne	.L190
 2561 0018 BFF35B8F 		dmb	ish
 830:Drivers/SOES/Src/esc.c ****    ESC_SMdisable (2);
 2562              		.loc 1 830 4 view .LVU672
 2563 001c 0220     		movs	r0, #2
 2564 001e FFF7FEFF 		bl	ESC_SMdisable
 2565              	.LVL174:
 831:Drivers/SOES/Src/esc.c ****    APP_safeoutput ();
 2566              		.loc 1 831 4 view .LVU673
 2567 0022 FFF7FEFF 		bl	APP_safeoutput
 2568              	.LVL175:
 832:Drivers/SOES/Src/esc.c **** }
 2569              		.loc 1 832 1 is_stmt 0 view .LVU674
 2570 0026 08BD     		pop	{r3, pc}
 2571              	.L193:
 2572              		.align	2
 2573              	.L192:
 2574 0028 DF000000 		.word	ESCvar+223
 2575              		.cfi_endproc
 2576              	.LFE34:
 2578              		.section	.text.ESC_ALstatusgotoerror,"ax",%progbits
 2579              		.align	1
 2580              		.global	ESC_ALstatusgotoerror
 2581              		.syntax unified
 2582              		.thumb
 2583              		.thumb_func
 2585              	ESC_ALstatusgotoerror:
 2586              	.LVL176:
 2587              	.LFB2:
  53:Drivers/SOES/Src/esc.c ****    uint8_t an, as;
 2588              		.loc 1 53 1 is_stmt 1 view -0
 2589              		.cfi_startproc
 2590              		@ args = 0, pretend = 0, frame = 8
 2591              		@ frame_needed = 0, uses_anonymous_args = 0
  54:Drivers/SOES/Src/esc.c **** 
 2592              		.loc 1 54 4 view .LVU676
  56:Drivers/SOES/Src/esc.c ****    {
 2593              		.loc 1 56 4 view .LVU677
  56:Drivers/SOES/Src/esc.c ****    {
 2594              		.loc 1 56 6 is_stmt 0 view .LVU678
 2595 0000 10F0080F 		tst	r0, #8
 2596 0004 35D1     		bne	.L201
ARM GAS  /tmp/cctcjG2K.s 			page 63


  53:Drivers/SOES/Src/esc.c ****    uint8_t an, as;
 2597              		.loc 1 53 1 view .LVU679
 2598 0006 30B5     		push	{r4, r5, lr}
 2599              		.cfi_def_cfa_offset 12
 2600              		.cfi_offset 4, -12
 2601              		.cfi_offset 5, -8
 2602              		.cfi_offset 14, -4
 2603 0008 83B0     		sub	sp, sp, #12
 2604              		.cfi_def_cfa_offset 24
 2605 000a 0446     		mov	r4, r0
 2606 000c 0D46     		mov	r5, r1
  62:Drivers/SOES/Src/esc.c ****    an = as;
 2607              		.loc 1 62 4 is_stmt 1 view .LVU680
  62:Drivers/SOES/Src/esc.c ****    an = as;
 2608              		.loc 1 62 15 is_stmt 0 view .LVU681
 2609 000e 194A     		ldr	r2, .L205
 2610 0010 B2F87C30 		ldrh	r3, [r2, #124]
  62:Drivers/SOES/Src/esc.c ****    an = as;
 2611              		.loc 1 62 25 view .LVU682
 2612 0014 03F00F03 		and	r3, r3, #15
  62:Drivers/SOES/Src/esc.c ****    an = as;
 2613              		.loc 1 62 7 view .LVU683
 2614 0018 8DF80630 		strb	r3, [sp, #6]
  63:Drivers/SOES/Src/esc.c ****    /* Set the state transition, new state in high bits and old in bits  */
 2615              		.loc 1 63 4 is_stmt 1 view .LVU684
  63:Drivers/SOES/Src/esc.c ****    /* Set the state transition, new state in high bits and old in bits  */
 2616              		.loc 1 63 7 is_stmt 0 view .LVU685
 2617 001c 8DF80730 		strb	r3, [sp, #7]
  65:Drivers/SOES/Src/esc.c ****    /* Call post state change hook case it have been configured  */
 2618              		.loc 1 65 4 is_stmt 1 view .LVU686
  65:Drivers/SOES/Src/esc.c ****    /* Call post state change hook case it have been configured  */
 2619              		.loc 1 65 48 is_stmt 0 view .LVU687
 2620 0020 43EA0013 		orr	r3, r3, r0, lsl #4
  65:Drivers/SOES/Src/esc.c ****    /* Call post state change hook case it have been configured  */
 2621              		.loc 1 65 7 view .LVU688
 2622 0024 8DF80630 		strb	r3, [sp, #6]
  67:Drivers/SOES/Src/esc.c ****    {
 2623              		.loc 1 67 4 is_stmt 1 view .LVU689
  67:Drivers/SOES/Src/esc.c ****    {
 2624              		.loc 1 67 14 is_stmt 0 view .LVU690
 2625 0028 D36A     		ldr	r3, [r2, #44]
  67:Drivers/SOES/Src/esc.c ****    {
 2626              		.loc 1 67 7 view .LVU691
 2627 002a 23B1     		cbz	r3, .L197
  69:Drivers/SOES/Src/esc.c ****    }
 2628              		.loc 1 69 7 is_stmt 1 view .LVU692
 2629 002c 0DF10701 		add	r1, sp, #7
 2630              	.LVL177:
  69:Drivers/SOES/Src/esc.c ****    }
 2631              		.loc 1 69 7 is_stmt 0 view .LVU693
 2632 0030 0DF10600 		add	r0, sp, #6
 2633              	.LVL178:
  69:Drivers/SOES/Src/esc.c ****    }
 2634              		.loc 1 69 7 view .LVU694
 2635 0034 9847     		blx	r3
 2636              	.LVL179:
 2637              	.L197:
ARM GAS  /tmp/cctcjG2K.s 			page 64


  72:Drivers/SOES/Src/esc.c ****    {
 2638              		.loc 1 72 4 is_stmt 1 view .LVU695
  72:Drivers/SOES/Src/esc.c ****    {
 2639              		.loc 1 72 9 is_stmt 0 view .LVU696
 2640 0036 BFF35B8F 		dmb	ish
 2641 003a 0F4B     		ldr	r3, .L205+4
 2642 003c 1B78     		ldrb	r3, [r3]	@ zero_extendqisi2
 2643 003e BFF35B8F 		dmb	ish
  72:Drivers/SOES/Src/esc.c ****    {
 2644              		.loc 1 72 7 view .LVU697
 2645 0042 13F0020F 		tst	r3, #2
 2646 0046 11D1     		bne	.L204
 2647              	.L198:
  76:Drivers/SOES/Src/esc.c ****    ESC_ALstatus(status);
 2648              		.loc 1 76 4 is_stmt 1 view .LVU698
 2649 0048 2846     		mov	r0, r5
 2650 004a FFF7FEFF 		bl	ESC_ALerror
 2651              	.LVL180:
  77:Drivers/SOES/Src/esc.c ****    an = status;
 2652              		.loc 1 77 4 view .LVU699
 2653 004e 2046     		mov	r0, r4
 2654 0050 FFF7FEFF 		bl	ESC_ALstatus
 2655              	.LVL181:
  78:Drivers/SOES/Src/esc.c ****    /* Call post state change hook case it have been configured  */
 2656              		.loc 1 78 4 view .LVU700
  78:Drivers/SOES/Src/esc.c ****    /* Call post state change hook case it have been configured  */
 2657              		.loc 1 78 7 is_stmt 0 view .LVU701
 2658 0054 8DF80740 		strb	r4, [sp, #7]
  80:Drivers/SOES/Src/esc.c ****    {
 2659              		.loc 1 80 4 is_stmt 1 view .LVU702
  80:Drivers/SOES/Src/esc.c ****    {
 2660              		.loc 1 80 14 is_stmt 0 view .LVU703
 2661 0058 064B     		ldr	r3, .L205
 2662 005a 1B6B     		ldr	r3, [r3, #48]
  80:Drivers/SOES/Src/esc.c ****    {
 2663              		.loc 1 80 7 view .LVU704
 2664 005c 23B1     		cbz	r3, .L194
  82:Drivers/SOES/Src/esc.c ****    }
 2665              		.loc 1 82 7 is_stmt 1 view .LVU705
 2666 005e 0DF10701 		add	r1, sp, #7
 2667 0062 0DF10600 		add	r0, sp, #6
 2668 0066 9847     		blx	r3
 2669              	.LVL182:
 2670              	.L194:
  84:Drivers/SOES/Src/esc.c **** 
 2671              		.loc 1 84 1 is_stmt 0 view .LVU706
 2672 0068 03B0     		add	sp, sp, #12
 2673              		.cfi_remember_state
 2674              		.cfi_def_cfa_offset 12
 2675              		@ sp needed
 2676 006a 30BD     		pop	{r4, r5, pc}
 2677              	.L204:
 2678              		.cfi_restore_state
  74:Drivers/SOES/Src/esc.c ****    }
 2679              		.loc 1 74 7 is_stmt 1 view .LVU707
 2680 006c FFF7FEFF 		bl	ESC_stopoutput
 2681              	.LVL183:
ARM GAS  /tmp/cctcjG2K.s 			page 65


 2682 0070 EAE7     		b	.L198
 2683              	.LVL184:
 2684              	.L201:
 2685              		.cfi_def_cfa_offset 0
 2686              		.cfi_restore 4
 2687              		.cfi_restore 5
 2688              		.cfi_restore 14
  74:Drivers/SOES/Src/esc.c ****    }
 2689              		.loc 1 74 7 is_stmt 0 view .LVU708
 2690 0072 7047     		bx	lr
 2691              	.L206:
 2692              		.align	2
 2693              	.L205:
 2694 0074 00000000 		.word	ESCvar
 2695 0078 DF000000 		.word	ESCvar+223
 2696              		.cfi_endproc
 2697              	.LFE2:
 2699              		.section	.text.ESC_sm_act_event,"ax",%progbits
 2700              		.align	1
 2701              		.global	ESC_sm_act_event
 2702              		.syntax unified
 2703              		.thumb
 2704              		.thumb_func
 2706              	ESC_sm_act_event:
 2707              	.LFB35:
 833:Drivers/SOES/Src/esc.c **** 
 834:Drivers/SOES/Src/esc.c **** /** The state handler acting on SyncManager Activation BIT(4)
 835:Drivers/SOES/Src/esc.c ****  * events in the Al Event Request register 0x220.
 836:Drivers/SOES/Src/esc.c ****  *
 837:Drivers/SOES/Src/esc.c ****  */
 838:Drivers/SOES/Src/esc.c **** void ESC_sm_act_event (void)
 839:Drivers/SOES/Src/esc.c **** {
 2708              		.loc 1 839 1 is_stmt 1 view -0
 2709              		.cfi_startproc
 2710              		@ args = 0, pretend = 0, frame = 0
 2711              		@ frame_needed = 0, uses_anonymous_args = 0
 2712 0000 F8B5     		push	{r3, r4, r5, r6, r7, lr}
 2713              		.cfi_def_cfa_offset 24
 2714              		.cfi_offset 3, -24
 2715              		.cfi_offset 4, -20
 2716              		.cfi_offset 5, -16
 2717              		.cfi_offset 6, -12
 2718              		.cfi_offset 7, -8
 2719              		.cfi_offset 14, -4
 840:Drivers/SOES/Src/esc.c ****    uint8_t ac, an, as, ax, ax23;
 2720              		.loc 1 840 4 view .LVU710
 841:Drivers/SOES/Src/esc.c **** 
 842:Drivers/SOES/Src/esc.c ****    /* Have at least on Sync Manager  changed */
 843:Drivers/SOES/Src/esc.c ****    if ((ESCvar.ALevent & ESCREG_ALEVENT_SMCHANGE) == 0)
 2721              		.loc 1 843 4 view .LVU711
 2722              		.loc 1 843 15 is_stmt 0 view .LVU712
 2723 0002 424B     		ldr	r3, .L222
 2724 0004 B3F8DC30 		ldrh	r3, [r3, #220]
 2725              		.loc 1 843 7 view .LVU713
 2726 0008 13F0100F 		tst	r3, #16
 2727 000c 34D0     		beq	.L207
 844:Drivers/SOES/Src/esc.c ****    {
ARM GAS  /tmp/cctcjG2K.s 			page 66


 845:Drivers/SOES/Src/esc.c ****       /* nothing to do */
 846:Drivers/SOES/Src/esc.c ****       return;
 847:Drivers/SOES/Src/esc.c ****    }
 848:Drivers/SOES/Src/esc.c **** 
 849:Drivers/SOES/Src/esc.c ****    /* Mask state request bits + Error ACK */
 850:Drivers/SOES/Src/esc.c ****    ac = ESCvar.ALcontrol & ESCREG_AL_STATEMASK;
 2728              		.loc 1 850 4 is_stmt 1 view .LVU714
 2729              		.loc 1 850 15 is_stmt 0 view .LVU715
 2730 000e 3F4B     		ldr	r3, .L222
 2731              		.loc 1 850 26 view .LVU716
 2732 0010 93F87E20 		ldrb	r2, [r3, #126]	@ zero_extendqisi2
 2733              		.loc 1 850 7 view .LVU717
 2734 0014 02F01F05 		and	r5, r2, #31
 2735              	.LVL185:
 851:Drivers/SOES/Src/esc.c ****    as = ESCvar.ALstatus & ESCREG_AL_STATEMASK;
 2736              		.loc 1 851 4 is_stmt 1 view .LVU718
 2737              		.loc 1 851 25 is_stmt 0 view .LVU719
 2738 0018 93F87C30 		ldrb	r3, [r3, #124]	@ zero_extendqisi2
 2739              		.loc 1 851 7 view .LVU720
 2740 001c 03F01F04 		and	r4, r3, #31
 2741              	.LVL186:
 852:Drivers/SOES/Src/esc.c ****    an = as;
 2742              		.loc 1 852 4 is_stmt 1 view .LVU721
 853:Drivers/SOES/Src/esc.c ****    if (((ac & ESCerror) || (ac == ESCinit)))
 2743              		.loc 1 853 4 view .LVU722
 2744              		.loc 1 853 7 is_stmt 0 view .LVU723
 2745 0020 12F0100F 		tst	r2, #16
 2746 0024 03D1     		bne	.L209
 2747              		.loc 1 853 25 discriminator 1 view .LVU724
 2748 0026 012D     		cmp	r5, #1
 2749 0028 01D0     		beq	.L209
 852:Drivers/SOES/Src/esc.c ****    an = as;
 2750              		.loc 1 852 7 view .LVU725
 2751 002a 2646     		mov	r6, r4
 2752 002c 03E0     		b	.L210
 2753              	.L209:
 854:Drivers/SOES/Src/esc.c ****    {
 855:Drivers/SOES/Src/esc.c ****       /* if error bit confirmed reset */
 856:Drivers/SOES/Src/esc.c ****       ac &= ESCREG_AL_ERRACKMASK;
 2754              		.loc 1 856 7 is_stmt 1 view .LVU726
 2755              		.loc 1 856 10 is_stmt 0 view .LVU727
 2756 002e 02F00F05 		and	r5, r2, #15
 2757              	.LVL187:
 857:Drivers/SOES/Src/esc.c ****       an &= ESCREG_AL_ERRACKMASK;
 2758              		.loc 1 857 7 is_stmt 1 view .LVU728
 2759              		.loc 1 857 10 is_stmt 0 view .LVU729
 2760 0032 03F00F06 		and	r6, r3, #15
 2761              	.LVL188:
 2762              	.L210:
 858:Drivers/SOES/Src/esc.c ****    }
 859:Drivers/SOES/Src/esc.c ****    /* Enter SM changed handling for all steps but Init and Boot when Mailboxes
 860:Drivers/SOES/Src/esc.c ****     * is up and running
 861:Drivers/SOES/Src/esc.c ****     */
 862:Drivers/SOES/Src/esc.c ****    if ((as & ESCREG_AL_ALLBUTINITMASK) &&
 2763              		.loc 1 862 4 is_stmt 1 view .LVU730
 2764              		.loc 1 862 7 is_stmt 0 view .LVU731
 2765 0036 13F00E0F 		tst	r3, #14
ARM GAS  /tmp/cctcjG2K.s 			page 67


 2766 003a 05D0     		beq	.L211
 2767              		.loc 1 862 40 discriminator 1 view .LVU732
 2768 003c 032C     		cmp	r4, #3
 2769 003e 03D0     		beq	.L211
 863:Drivers/SOES/Src/esc.c ****        ((as == ESCboot) == 0) && ESCvar.MBXrun)
 2770              		.loc 1 863 40 view .LVU733
 2771 0040 324B     		ldr	r3, .L222
 2772 0042 93F86430 		ldrb	r3, [r3, #100]	@ zero_extendqisi2
 2773              		.loc 1 863 31 view .LVU734
 2774 0046 C3B9     		cbnz	r3, .L219
 2775              	.L211:
 864:Drivers/SOES/Src/esc.c ****    {
 865:Drivers/SOES/Src/esc.c ****       /* Validate Sync Managers, reading the Activation register will
 866:Drivers/SOES/Src/esc.c ****        * acknowledge the SyncManager Activation event making us enter
 867:Drivers/SOES/Src/esc.c ****        * this execution path.
 868:Drivers/SOES/Src/esc.c ****        */
 869:Drivers/SOES/Src/esc.c ****       ax = ESC_checkmbx (as);
 870:Drivers/SOES/Src/esc.c ****       ax23 = ESC_checkSM23 (as);
 871:Drivers/SOES/Src/esc.c ****       if ((an & ESCerror) && ((ac & ESCerror) == 0))
 872:Drivers/SOES/Src/esc.c ****       {
 873:Drivers/SOES/Src/esc.c ****          /* if in error then stay there */
 874:Drivers/SOES/Src/esc.c ****       }
 875:Drivers/SOES/Src/esc.c ****       /* Have we been forced to step down to INIT we will stop mailboxes,
 876:Drivers/SOES/Src/esc.c ****        * update AL Status Code and exit ESC_state
 877:Drivers/SOES/Src/esc.c ****        */
 878:Drivers/SOES/Src/esc.c ****       else if (ax == (ESCinit | ESCerror))
 879:Drivers/SOES/Src/esc.c ****       {
 880:Drivers/SOES/Src/esc.c ****          /* If we have activated Inputs and Outputs we need to disable them */
 881:Drivers/SOES/Src/esc.c ****          if (CC_ATOMIC_GET(ESCvar.App.state))
 882:Drivers/SOES/Src/esc.c ****          {
 883:Drivers/SOES/Src/esc.c ****             ESC_stopoutput ();
 884:Drivers/SOES/Src/esc.c ****             ESC_stopinput ();
 885:Drivers/SOES/Src/esc.c ****          }
 886:Drivers/SOES/Src/esc.c ****          /* Stop mailboxes and update ALStatus code */
 887:Drivers/SOES/Src/esc.c ****          ESC_stopmbx ();
 888:Drivers/SOES/Src/esc.c ****          ESC_ALerror (ALERR_INVALIDMBXCONFIG);
 889:Drivers/SOES/Src/esc.c ****          ESCvar.MBXrun = 0;
 890:Drivers/SOES/Src/esc.c ****          ESC_ALstatus (ax);
 891:Drivers/SOES/Src/esc.c ****          return;
 892:Drivers/SOES/Src/esc.c ****       }
 893:Drivers/SOES/Src/esc.c ****       /* Have we been forced to step down to PREOP we will stop inputs
 894:Drivers/SOES/Src/esc.c ****        * and outputs, update AL Status Code and exit ESC_state
 895:Drivers/SOES/Src/esc.c ****        */
 896:Drivers/SOES/Src/esc.c ****       else if (CC_ATOMIC_GET(ESCvar.App.state) && (ax23 == (ESCpreop | ESCerror)))
 897:Drivers/SOES/Src/esc.c ****       {
 898:Drivers/SOES/Src/esc.c ****          ESC_stopoutput ();
 899:Drivers/SOES/Src/esc.c ****          ESC_stopinput ();
 900:Drivers/SOES/Src/esc.c ****          if (ESCvar.SMtestresult & SMRESULT_ERRSM3)
 901:Drivers/SOES/Src/esc.c ****          {
 902:Drivers/SOES/Src/esc.c ****             ESC_ALerror (ALERR_INVALIDINPUTSM);
 903:Drivers/SOES/Src/esc.c ****          }
 904:Drivers/SOES/Src/esc.c ****          else
 905:Drivers/SOES/Src/esc.c ****          {
 906:Drivers/SOES/Src/esc.c ****             ESC_ALerror (ALERR_INVALIDOUTPUTSM);
 907:Drivers/SOES/Src/esc.c ****          }
 908:Drivers/SOES/Src/esc.c ****          ESC_ALstatus (ax23);
 909:Drivers/SOES/Src/esc.c ****       }
ARM GAS  /tmp/cctcjG2K.s 			page 68


 910:Drivers/SOES/Src/esc.c ****    }
 911:Drivers/SOES/Src/esc.c ****    else
 912:Drivers/SOES/Src/esc.c ****    {
 913:Drivers/SOES/Src/esc.c ****       ESC_SMack (0);
 2776              		.loc 1 913 7 is_stmt 1 view .LVU735
 2777 0048 0020     		movs	r0, #0
 2778 004a FFF7FEFF 		bl	ESC_SMack
 2779              	.LVL189:
 914:Drivers/SOES/Src/esc.c ****       ESC_SMack (1);
 2780              		.loc 1 914 7 view .LVU736
 2781 004e 0120     		movs	r0, #1
 2782 0050 FFF7FEFF 		bl	ESC_SMack
 2783              	.LVL190:
 915:Drivers/SOES/Src/esc.c ****       ESC_SMack (2);
 2784              		.loc 1 915 7 view .LVU737
 2785 0054 0220     		movs	r0, #2
 2786 0056 FFF7FEFF 		bl	ESC_SMack
 2787              	.LVL191:
 916:Drivers/SOES/Src/esc.c ****       ESC_SMack (3);
 2788              		.loc 1 916 7 view .LVU738
 2789 005a 0320     		movs	r0, #3
 2790 005c FFF7FEFF 		bl	ESC_SMack
 2791              	.LVL192:
 917:Drivers/SOES/Src/esc.c ****       ESC_SMack (4);
 2792              		.loc 1 917 7 view .LVU739
 2793 0060 0420     		movs	r0, #4
 2794 0062 FFF7FEFF 		bl	ESC_SMack
 2795              	.LVL193:
 918:Drivers/SOES/Src/esc.c ****       ESC_SMack (5);
 2796              		.loc 1 918 7 view .LVU740
 2797 0066 0520     		movs	r0, #5
 2798 0068 FFF7FEFF 		bl	ESC_SMack
 2799              	.LVL194:
 919:Drivers/SOES/Src/esc.c ****       ESC_SMack (6);
 2800              		.loc 1 919 7 view .LVU741
 2801 006c 0620     		movs	r0, #6
 2802 006e FFF7FEFF 		bl	ESC_SMack
 2803              	.LVL195:
 920:Drivers/SOES/Src/esc.c ****       ESC_SMack (7);
 2804              		.loc 1 920 7 view .LVU742
 2805 0072 0720     		movs	r0, #7
 2806 0074 FFF7FEFF 		bl	ESC_SMack
 2807              	.LVL196:
 2808              	.L207:
 921:Drivers/SOES/Src/esc.c ****    }
 922:Drivers/SOES/Src/esc.c **** }
 2809              		.loc 1 922 1 is_stmt 0 view .LVU743
 2810 0078 F8BD     		pop	{r3, r4, r5, r6, r7, pc}
 2811              	.LVL197:
 2812              	.L219:
 869:Drivers/SOES/Src/esc.c ****       ax23 = ESC_checkSM23 (as);
 2813              		.loc 1 869 7 is_stmt 1 view .LVU744
 869:Drivers/SOES/Src/esc.c ****       ax23 = ESC_checkSM23 (as);
 2814              		.loc 1 869 12 is_stmt 0 view .LVU745
 2815 007a 2046     		mov	r0, r4
 2816 007c FFF7FEFF 		bl	ESC_checkmbx
 2817              	.LVL198:
ARM GAS  /tmp/cctcjG2K.s 			page 69


 2818 0080 0746     		mov	r7, r0
 2819              	.LVL199:
 870:Drivers/SOES/Src/esc.c ****       if ((an & ESCerror) && ((ac & ESCerror) == 0))
 2820              		.loc 1 870 7 is_stmt 1 view .LVU746
 870:Drivers/SOES/Src/esc.c ****       if ((an & ESCerror) && ((ac & ESCerror) == 0))
 2821              		.loc 1 870 14 is_stmt 0 view .LVU747
 2822 0082 2046     		mov	r0, r4
 2823 0084 FFF7FEFF 		bl	ESC_checkSM23
 2824              	.LVL200:
 2825 0088 0446     		mov	r4, r0
 2826              	.LVL201:
 871:Drivers/SOES/Src/esc.c ****       {
 2827              		.loc 1 871 7 is_stmt 1 view .LVU748
 871:Drivers/SOES/Src/esc.c ****       {
 2828              		.loc 1 871 10 is_stmt 0 view .LVU749
 2829 008a 16F0100F 		tst	r6, #16
 2830 008e 02D0     		beq	.L212
 871:Drivers/SOES/Src/esc.c ****       {
 2831              		.loc 1 871 27 discriminator 1 view .LVU750
 2832 0090 15F0100F 		tst	r5, #16
 2833 0094 F0D0     		beq	.L207
 2834              	.L212:
 878:Drivers/SOES/Src/esc.c ****       {
 2835              		.loc 1 878 12 is_stmt 1 view .LVU751
 878:Drivers/SOES/Src/esc.c ****       {
 2836              		.loc 1 878 15 is_stmt 0 view .LVU752
 2837 0096 112F     		cmp	r7, #17
 2838 0098 1AD0     		beq	.L220
 896:Drivers/SOES/Src/esc.c ****       {
 2839              		.loc 1 896 12 is_stmt 1 view .LVU753
 896:Drivers/SOES/Src/esc.c ****       {
 2840              		.loc 1 896 16 is_stmt 0 view .LVU754
 2841 009a BFF35B8F 		dmb	ish
 2842 009e 1C4B     		ldr	r3, .L222+4
 2843 00a0 1B78     		ldrb	r3, [r3]	@ zero_extendqisi2
 2844 00a2 BFF35B8F 		dmb	ish
 896:Drivers/SOES/Src/esc.c ****       {
 2845              		.loc 1 896 15 view .LVU755
 2846 00a6 002B     		cmp	r3, #0
 2847 00a8 E6D0     		beq	.L207
 896:Drivers/SOES/Src/esc.c ****       {
 2848              		.loc 1 896 48 discriminator 1 view .LVU756
 2849 00aa 122C     		cmp	r4, #18
 2850 00ac E4D1     		bne	.L207
 898:Drivers/SOES/Src/esc.c ****          ESC_stopinput ();
 2851              		.loc 1 898 10 is_stmt 1 view .LVU757
 2852 00ae FFF7FEFF 		bl	ESC_stopoutput
 2853              	.LVL202:
 899:Drivers/SOES/Src/esc.c ****          if (ESCvar.SMtestresult & SMRESULT_ERRSM3)
 2854              		.loc 1 899 10 view .LVU758
 2855 00b2 FFF7FEFF 		bl	ESC_stopinput
 2856              	.LVL203:
 900:Drivers/SOES/Src/esc.c ****          {
 2857              		.loc 1 900 10 view .LVU759
 900:Drivers/SOES/Src/esc.c ****          {
 2858              		.loc 1 900 20 is_stmt 0 view .LVU760
 2859 00b6 154B     		ldr	r3, .L222
ARM GAS  /tmp/cctcjG2K.s 			page 70


 2860 00b8 93F8AC30 		ldrb	r3, [r3, #172]	@ zero_extendqisi2
 900:Drivers/SOES/Src/esc.c ****          {
 2861              		.loc 1 900 13 view .LVU761
 2862 00bc 13F0080F 		tst	r3, #8
 2863 00c0 1FD0     		beq	.L215
 902:Drivers/SOES/Src/esc.c ****          }
 2864              		.loc 1 902 13 is_stmt 1 view .LVU762
 2865 00c2 1E20     		movs	r0, #30
 2866 00c4 FFF7FEFF 		bl	ESC_ALerror
 2867              	.LVL204:
 2868              	.L216:
 908:Drivers/SOES/Src/esc.c ****       }
 2869              		.loc 1 908 10 view .LVU763
 2870 00c8 2046     		mov	r0, r4
 2871 00ca FFF7FEFF 		bl	ESC_ALstatus
 2872              	.LVL205:
 2873 00ce D3E7     		b	.L207
 2874              	.L220:
 881:Drivers/SOES/Src/esc.c ****          {
 2875              		.loc 1 881 10 view .LVU764
 881:Drivers/SOES/Src/esc.c ****          {
 2876              		.loc 1 881 14 is_stmt 0 view .LVU765
 2877 00d0 BFF35B8F 		dmb	ish
 2878 00d4 0E4B     		ldr	r3, .L222+4
 2879 00d6 1B78     		ldrb	r3, [r3]	@ zero_extendqisi2
 2880 00d8 BFF35B8F 		dmb	ish
 881:Drivers/SOES/Src/esc.c ****          {
 2881              		.loc 1 881 13 view .LVU766
 2882 00dc 63B9     		cbnz	r3, .L221
 2883              	.L214:
 887:Drivers/SOES/Src/esc.c ****          ESC_ALerror (ALERR_INVALIDMBXCONFIG);
 2884              		.loc 1 887 10 is_stmt 1 view .LVU767
 2885 00de FFF7FEFF 		bl	ESC_stopmbx
 2886              	.LVL206:
 888:Drivers/SOES/Src/esc.c ****          ESCvar.MBXrun = 0;
 2887              		.loc 1 888 10 view .LVU768
 2888 00e2 1620     		movs	r0, #22
 2889 00e4 FFF7FEFF 		bl	ESC_ALerror
 2890              	.LVL207:
 889:Drivers/SOES/Src/esc.c ****          ESC_ALstatus (ax);
 2891              		.loc 1 889 10 view .LVU769
 889:Drivers/SOES/Src/esc.c ****          ESC_ALstatus (ax);
 2892              		.loc 1 889 24 is_stmt 0 view .LVU770
 2893 00e8 084B     		ldr	r3, .L222
 2894 00ea 0022     		movs	r2, #0
 2895 00ec 83F86420 		strb	r2, [r3, #100]
 890:Drivers/SOES/Src/esc.c ****          return;
 2896              		.loc 1 890 10 is_stmt 1 view .LVU771
 2897 00f0 3846     		mov	r0, r7
 2898 00f2 FFF7FEFF 		bl	ESC_ALstatus
 2899              	.LVL208:
 891:Drivers/SOES/Src/esc.c ****       }
 2900              		.loc 1 891 10 view .LVU772
 2901 00f6 BFE7     		b	.L207
 2902              	.L221:
 883:Drivers/SOES/Src/esc.c ****             ESC_stopinput ();
 2903              		.loc 1 883 13 view .LVU773
ARM GAS  /tmp/cctcjG2K.s 			page 71


 2904 00f8 FFF7FEFF 		bl	ESC_stopoutput
 2905              	.LVL209:
 884:Drivers/SOES/Src/esc.c ****          }
 2906              		.loc 1 884 13 view .LVU774
 2907 00fc FFF7FEFF 		bl	ESC_stopinput
 2908              	.LVL210:
 2909 0100 EDE7     		b	.L214
 2910              	.L215:
 906:Drivers/SOES/Src/esc.c ****          }
 2911              		.loc 1 906 13 view .LVU775
 2912 0102 1D20     		movs	r0, #29
 2913 0104 FFF7FEFF 		bl	ESC_ALerror
 2914              	.LVL211:
 2915 0108 DEE7     		b	.L216
 2916              	.L223:
 2917 010a 00BF     		.align	2
 2918              	.L222:
 2919 010c 00000000 		.word	ESCvar
 2920 0110 DF000000 		.word	ESCvar+223
 2921              		.cfi_endproc
 2922              	.LFE35:
 2924              		.section	.text.ESC_state,"ax",%progbits
 2925              		.align	1
 2926              		.global	ESC_state
 2927              		.syntax unified
 2928              		.thumb
 2929              		.thumb_func
 2931              	ESC_state:
 2932              	.LFB36:
 923:Drivers/SOES/Src/esc.c **** /** The state handler acting on ALControl Bit(0)
 924:Drivers/SOES/Src/esc.c ****  * events in the Al Event Request register 0x220.
 925:Drivers/SOES/Src/esc.c ****  *
 926:Drivers/SOES/Src/esc.c ****  */
 927:Drivers/SOES/Src/esc.c **** void ESC_state (void)
 928:Drivers/SOES/Src/esc.c **** {
 2933              		.loc 1 928 1 view -0
 2934              		.cfi_startproc
 2935              		@ args = 0, pretend = 0, frame = 8
 2936              		@ frame_needed = 0, uses_anonymous_args = 0
 929:Drivers/SOES/Src/esc.c ****    uint8_t ac, an, as;
 2937              		.loc 1 929 4 view .LVU777
 930:Drivers/SOES/Src/esc.c **** 
 931:Drivers/SOES/Src/esc.c ****    /* Do we have a state change request pending */
 932:Drivers/SOES/Src/esc.c ****    if (ESCvar.ALevent & ESCREG_ALEVENT_CONTROL)
 2938              		.loc 1 932 4 view .LVU778
 2939              		.loc 1 932 14 is_stmt 0 view .LVU779
 2940 0000 A44B     		ldr	r3, .L266
 2941 0002 B3F8DC30 		ldrh	r3, [r3, #220]
 2942              		.loc 1 932 7 view .LVU780
 2943 0006 13F0010F 		tst	r3, #1
 2944 000a 00D1     		bne	.L260
 2945 000c 7047     		bx	lr
 2946              	.L260:
 928:Drivers/SOES/Src/esc.c ****    uint8_t ac, an, as;
 2947              		.loc 1 928 1 view .LVU781
 2948 000e 30B5     		push	{r4, r5, lr}
 2949              		.cfi_def_cfa_offset 12
ARM GAS  /tmp/cctcjG2K.s 			page 72


 2950              		.cfi_offset 4, -12
 2951              		.cfi_offset 5, -8
 2952              		.cfi_offset 14, -4
 2953 0010 83B0     		sub	sp, sp, #12
 2954              		.cfi_def_cfa_offset 24
 933:Drivers/SOES/Src/esc.c ****    {
 934:Drivers/SOES/Src/esc.c ****       ESC_read (ESCREG_ALCONTROL, (void *) &ESCvar.ALcontrol,
 2955              		.loc 1 934 7 is_stmt 1 view .LVU782
 2956 0012 A14C     		ldr	r4, .L266+4
 2957 0014 0222     		movs	r2, #2
 2958 0016 2146     		mov	r1, r4
 2959 0018 4FF49070 		mov	r0, #288
 2960 001c FFF7FEFF 		bl	ESC_read
 2961              	.LVL212:
 935:Drivers/SOES/Src/esc.c ****                 sizeof (ESCvar.ALcontrol));
 936:Drivers/SOES/Src/esc.c ****       ESCvar.ALcontrol = etohs (ESCvar.ALcontrol);
 2962              		.loc 1 936 7 view .LVU783
 2963              		.loc 1 936 26 is_stmt 0 view .LVU784
 2964 0020 2146     		mov	r1, r4
 937:Drivers/SOES/Src/esc.c ****    }
 938:Drivers/SOES/Src/esc.c ****    else
 939:Drivers/SOES/Src/esc.c ****    {
 940:Drivers/SOES/Src/esc.c ****       /* nothing to do */
 941:Drivers/SOES/Src/esc.c ****       return;
 942:Drivers/SOES/Src/esc.c ****    }
 943:Drivers/SOES/Src/esc.c ****    /* Mask state request bits + Error ACK */
 944:Drivers/SOES/Src/esc.c ****    ac = ESCvar.ALcontrol & ESCREG_AL_STATEMASK;
 2965              		.loc 1 944 4 is_stmt 1 view .LVU785
 2966              		.loc 1 944 26 is_stmt 0 view .LVU786
 2967 0022 11F87E29 		ldrb	r2, [r1], #-126	@ zero_extendqisi2
 2968              		.loc 1 944 7 view .LVU787
 2969 0026 02F01F04 		and	r4, r2, #31
 2970              	.LVL213:
 945:Drivers/SOES/Src/esc.c ****    as = ESCvar.ALstatus & ESCREG_AL_STATEMASK;
 2971              		.loc 1 945 4 is_stmt 1 view .LVU788
 2972              		.loc 1 945 15 is_stmt 0 view .LVU789
 2973 002a B1F87C30 		ldrh	r3, [r1, #124]
 2974              		.loc 1 945 25 view .LVU790
 2975 002e 03F01F03 		and	r3, r3, #31
 2976              		.loc 1 945 7 view .LVU791
 2977 0032 8DF80630 		strb	r3, [sp, #6]
 946:Drivers/SOES/Src/esc.c ****    an = as;
 2978              		.loc 1 946 4 is_stmt 1 view .LVU792
 2979              		.loc 1 946 7 is_stmt 0 view .LVU793
 2980 0036 8DF80730 		strb	r3, [sp, #7]
 947:Drivers/SOES/Src/esc.c ****    if (((ac & ESCerror) || (ac == ESCinit)))
 2981              		.loc 1 947 4 is_stmt 1 view .LVU794
 2982              		.loc 1 947 7 is_stmt 0 view .LVU795
 2983 003a 12F0100F 		tst	r2, #16
 2984 003e 01D1     		bne	.L226
 2985              		.loc 1 947 25 discriminator 1 view .LVU796
 2986 0040 012C     		cmp	r4, #1
 2987 0042 05D1     		bne	.L227
 2988              	.L226:
 948:Drivers/SOES/Src/esc.c ****    {
 949:Drivers/SOES/Src/esc.c ****       /* if error bit confirmed reset */
 950:Drivers/SOES/Src/esc.c ****       ac &= ESCREG_AL_ERRACKMASK;
ARM GAS  /tmp/cctcjG2K.s 			page 73


 2989              		.loc 1 950 7 is_stmt 1 view .LVU797
 2990              		.loc 1 950 10 is_stmt 0 view .LVU798
 2991 0044 02F00F04 		and	r4, r2, #15
 2992              	.LVL214:
 951:Drivers/SOES/Src/esc.c ****       an &= ESCREG_AL_ERRACKMASK;
 2993              		.loc 1 951 7 is_stmt 1 view .LVU799
 2994              		.loc 1 951 10 is_stmt 0 view .LVU800
 2995 0048 03F00F02 		and	r2, r3, #15
 2996 004c 8DF80720 		strb	r2, [sp, #7]
 2997              	.L227:
 952:Drivers/SOES/Src/esc.c ****    }
 953:Drivers/SOES/Src/esc.c **** 
 954:Drivers/SOES/Src/esc.c ****    /* Error state not acked, leave original */
 955:Drivers/SOES/Src/esc.c ****    if ((an & ESCerror) && ((ac & ESCerror) == 0))
 2998              		.loc 1 955 4 is_stmt 1 view .LVU801
 2999              		.loc 1 955 12 is_stmt 0 view .LVU802
 3000 0050 9DF80720 		ldrb	r2, [sp, #7]	@ zero_extendqisi2
 3001              		.loc 1 955 7 view .LVU803
 3002 0054 12F0100F 		tst	r2, #16
 3003 0058 03D0     		beq	.L228
 3004              		.loc 1 955 24 discriminator 1 view .LVU804
 3005 005a 14F0100F 		tst	r4, #16
 3006 005e 00F0AC80 		beq	.L224
 3007              	.L228:
 956:Drivers/SOES/Src/esc.c ****    {
 957:Drivers/SOES/Src/esc.c ****       return;
 958:Drivers/SOES/Src/esc.c ****    }
 959:Drivers/SOES/Src/esc.c **** 
 960:Drivers/SOES/Src/esc.c ****    /* Mask high bits ALcommand, low bits ALstatus */
 961:Drivers/SOES/Src/esc.c ****    as = (ac << 4) | (as & 0x0f);
 3008              		.loc 1 961 4 is_stmt 1 view .LVU805
 3009              		.loc 1 961 25 is_stmt 0 view .LVU806
 3010 0062 03F00F03 		and	r3, r3, #15
 3011              		.loc 1 961 19 view .LVU807
 3012 0066 43EA0413 		orr	r3, r3, r4, lsl #4
 3013              		.loc 1 961 7 view .LVU808
 3014 006a 8DF80630 		strb	r3, [sp, #6]
 962:Drivers/SOES/Src/esc.c **** 
 963:Drivers/SOES/Src/esc.c ****    /* Call post state change hook case it have been configured  */
 964:Drivers/SOES/Src/esc.c ****    if (ESCvar.pre_state_change_hook != NULL)
 3015              		.loc 1 964 4 is_stmt 1 view .LVU809
 3016              		.loc 1 964 14 is_stmt 0 view .LVU810
 3017 006e 894B     		ldr	r3, .L266
 3018 0070 DB6A     		ldr	r3, [r3, #44]
 3019              		.loc 1 964 7 view .LVU811
 3020 0072 23B1     		cbz	r3, .L229
 965:Drivers/SOES/Src/esc.c ****    {
 966:Drivers/SOES/Src/esc.c ****       ESCvar.pre_state_change_hook (&as, &an);
 3021              		.loc 1 966 7 is_stmt 1 view .LVU812
 3022 0074 0DF10701 		add	r1, sp, #7
 3023 0078 0DF10600 		add	r0, sp, #6
 3024 007c 9847     		blx	r3
 3025              	.LVL215:
 3026              	.L229:
 967:Drivers/SOES/Src/esc.c ****    }
 968:Drivers/SOES/Src/esc.c **** 
 969:Drivers/SOES/Src/esc.c ****    /* Switch through the state change requested via AlControl from
ARM GAS  /tmp/cctcjG2K.s 			page 74


 970:Drivers/SOES/Src/esc.c ****     * current state read in AL status
 971:Drivers/SOES/Src/esc.c ****     */
 972:Drivers/SOES/Src/esc.c ****    switch (as)
 3027              		.loc 1 972 4 view .LVU813
 3028 007e 9DF80630 		ldrb	r3, [sp, #6]	@ zero_extendqisi2
 3029 0082 113B     		subs	r3, r3, #17
 3030 0084 772B     		cmp	r3, #119
 3031 0086 00F24281 		bhi	.L230
 3032 008a DFE813F0 		tbh	[pc, r3, lsl #1]
 3033              	.L232:
 3034 008e 7F00     		.2byte	(.L231-.L232)/2
 3035 0090 B800     		.2byte	(.L248-.L232)/2
 3036 0092 BE00     		.2byte	(.L247-.L232)/2
 3037 0094 B000     		.2byte	(.L246-.L232)/2
 3038 0096 4001     		.2byte	(.L230-.L232)/2
 3039 0098 4001     		.2byte	(.L230-.L232)/2
 3040 009a 4001     		.2byte	(.L230-.L232)/2
 3041 009c A600     		.2byte	(.L245-.L232)/2
 3042 009e 4001     		.2byte	(.L230-.L232)/2
 3043 00a0 4001     		.2byte	(.L230-.L232)/2
 3044 00a2 4001     		.2byte	(.L230-.L232)/2
 3045 00a4 4001     		.2byte	(.L230-.L232)/2
 3046 00a6 4001     		.2byte	(.L230-.L232)/2
 3047 00a8 4001     		.2byte	(.L230-.L232)/2
 3048 00aa 4001     		.2byte	(.L230-.L232)/2
 3049 00ac 4001     		.2byte	(.L230-.L232)/2
 3050 00ae 7800     		.2byte	(.L244-.L232)/2
 3051 00b0 7F00     		.2byte	(.L231-.L232)/2
 3052 00b2 C400     		.2byte	(.L234-.L232)/2
 3053 00b4 1E01     		.2byte	(.L243-.L232)/2
 3054 00b6 4001     		.2byte	(.L230-.L232)/2
 3055 00b8 4001     		.2byte	(.L230-.L232)/2
 3056 00ba 4001     		.2byte	(.L230-.L232)/2
 3057 00bc 1601     		.2byte	(.L242-.L232)/2
 3058 00be 4001     		.2byte	(.L230-.L232)/2
 3059 00c0 4001     		.2byte	(.L230-.L232)/2
 3060 00c2 4001     		.2byte	(.L230-.L232)/2
 3061 00c4 4001     		.2byte	(.L230-.L232)/2
 3062 00c6 4001     		.2byte	(.L230-.L232)/2
 3063 00c8 4001     		.2byte	(.L230-.L232)/2
 3064 00ca 4001     		.2byte	(.L230-.L232)/2
 3065 00cc 4001     		.2byte	(.L230-.L232)/2
 3066 00ce 9800     		.2byte	(.L241-.L232)/2
 3067 00d0 C400     		.2byte	(.L234-.L232)/2
 3068 00d2 9800     		.2byte	(.L241-.L232)/2
 3069 00d4 2401     		.2byte	(.L240-.L232)/2
 3070 00d6 4001     		.2byte	(.L230-.L232)/2
 3071 00d8 4001     		.2byte	(.L230-.L232)/2
 3072 00da 4001     		.2byte	(.L230-.L232)/2
 3073 00dc 3101     		.2byte	(.L239-.L232)/2
 3074 00de 4001     		.2byte	(.L230-.L232)/2
 3075 00e0 4001     		.2byte	(.L230-.L232)/2
 3076 00e2 4001     		.2byte	(.L230-.L232)/2
 3077 00e4 4001     		.2byte	(.L230-.L232)/2
 3078 00e6 4001     		.2byte	(.L230-.L232)/2
 3079 00e8 4001     		.2byte	(.L230-.L232)/2
 3080 00ea 4001     		.2byte	(.L230-.L232)/2
ARM GAS  /tmp/cctcjG2K.s 			page 75


 3081 00ec 4001     		.2byte	(.L230-.L232)/2
 3082 00ee A000     		.2byte	(.L236-.L232)/2
 3083 00f0 CB00     		.2byte	(.L238-.L232)/2
 3084 00f2 C400     		.2byte	(.L234-.L232)/2
 3085 00f4 CB00     		.2byte	(.L238-.L232)/2
 3086 00f6 4001     		.2byte	(.L230-.L232)/2
 3087 00f8 4001     		.2byte	(.L230-.L232)/2
 3088 00fa 4001     		.2byte	(.L230-.L232)/2
 3089 00fc 3A01     		.2byte	(.L237-.L232)/2
 3090 00fe 4001     		.2byte	(.L230-.L232)/2
 3091 0100 4001     		.2byte	(.L230-.L232)/2
 3092 0102 4001     		.2byte	(.L230-.L232)/2
 3093 0104 4001     		.2byte	(.L230-.L232)/2
 3094 0106 4001     		.2byte	(.L230-.L232)/2
 3095 0108 4001     		.2byte	(.L230-.L232)/2
 3096 010a 4001     		.2byte	(.L230-.L232)/2
 3097 010c 4001     		.2byte	(.L230-.L232)/2
 3098 010e 4001     		.2byte	(.L230-.L232)/2
 3099 0110 4001     		.2byte	(.L230-.L232)/2
 3100 0112 4001     		.2byte	(.L230-.L232)/2
 3101 0114 4001     		.2byte	(.L230-.L232)/2
 3102 0116 4001     		.2byte	(.L230-.L232)/2
 3103 0118 4001     		.2byte	(.L230-.L232)/2
 3104 011a 4001     		.2byte	(.L230-.L232)/2
 3105 011c 4001     		.2byte	(.L230-.L232)/2
 3106 011e 4001     		.2byte	(.L230-.L232)/2
 3107 0120 4001     		.2byte	(.L230-.L232)/2
 3108 0122 4001     		.2byte	(.L230-.L232)/2
 3109 0124 4001     		.2byte	(.L230-.L232)/2
 3110 0126 4001     		.2byte	(.L230-.L232)/2
 3111 0128 4001     		.2byte	(.L230-.L232)/2
 3112 012a 4001     		.2byte	(.L230-.L232)/2
 3113 012c 4001     		.2byte	(.L230-.L232)/2
 3114 012e 4001     		.2byte	(.L230-.L232)/2
 3115 0130 4001     		.2byte	(.L230-.L232)/2
 3116 0132 4001     		.2byte	(.L230-.L232)/2
 3117 0134 4001     		.2byte	(.L230-.L232)/2
 3118 0136 4001     		.2byte	(.L230-.L232)/2
 3119 0138 4001     		.2byte	(.L230-.L232)/2
 3120 013a 4001     		.2byte	(.L230-.L232)/2
 3121 013c 4001     		.2byte	(.L230-.L232)/2
 3122 013e 4001     		.2byte	(.L230-.L232)/2
 3123 0140 4001     		.2byte	(.L230-.L232)/2
 3124 0142 4001     		.2byte	(.L230-.L232)/2
 3125 0144 4001     		.2byte	(.L230-.L232)/2
 3126 0146 4001     		.2byte	(.L230-.L232)/2
 3127 0148 4001     		.2byte	(.L230-.L232)/2
 3128 014a 4001     		.2byte	(.L230-.L232)/2
 3129 014c 4001     		.2byte	(.L230-.L232)/2
 3130 014e 4001     		.2byte	(.L230-.L232)/2
 3131 0150 4001     		.2byte	(.L230-.L232)/2
 3132 0152 4001     		.2byte	(.L230-.L232)/2
 3133 0154 4001     		.2byte	(.L230-.L232)/2
 3134 0156 4001     		.2byte	(.L230-.L232)/2
 3135 0158 4001     		.2byte	(.L230-.L232)/2
 3136 015a 4001     		.2byte	(.L230-.L232)/2
 3137 015c 4001     		.2byte	(.L230-.L232)/2
ARM GAS  /tmp/cctcjG2K.s 			page 76


 3138 015e 4001     		.2byte	(.L230-.L232)/2
 3139 0160 4001     		.2byte	(.L230-.L232)/2
 3140 0162 4001     		.2byte	(.L230-.L232)/2
 3141 0164 4001     		.2byte	(.L230-.L232)/2
 3142 0166 4001     		.2byte	(.L230-.L232)/2
 3143 0168 4001     		.2byte	(.L230-.L232)/2
 3144 016a 4001     		.2byte	(.L230-.L232)/2
 3145 016c 4001     		.2byte	(.L230-.L232)/2
 3146 016e A000     		.2byte	(.L236-.L232)/2
 3147 0170 0F01     		.2byte	(.L235-.L232)/2
 3148 0172 C400     		.2byte	(.L234-.L232)/2
 3149 0174 2B01     		.2byte	(.L233-.L232)/2
 3150 0176 4001     		.2byte	(.L230-.L232)/2
 3151 0178 4001     		.2byte	(.L230-.L232)/2
 3152 017a 4001     		.2byte	(.L230-.L232)/2
 3153 017c 7F00     		.2byte	(.L231-.L232)/2
 3154              		.p2align 1
 3155              	.L244:
 973:Drivers/SOES/Src/esc.c ****    {
 974:Drivers/SOES/Src/esc.c ****       case INIT_TO_INIT:
 975:Drivers/SOES/Src/esc.c ****       case PREOP_TO_PREOP:
 976:Drivers/SOES/Src/esc.c ****       case OP_TO_OP:
 977:Drivers/SOES/Src/esc.c ****       {
 978:Drivers/SOES/Src/esc.c ****          break;
 979:Drivers/SOES/Src/esc.c ****       }
 980:Drivers/SOES/Src/esc.c ****       case INIT_TO_PREOP:
 981:Drivers/SOES/Src/esc.c ****       {
 982:Drivers/SOES/Src/esc.c ****          /* get station address */
 983:Drivers/SOES/Src/esc.c ****          ESC_address ();
 3156              		.loc 1 983 10 view .LVU814
 3157 017e FFF7FEFF 		bl	ESC_address
 3158              	.LVL216:
 984:Drivers/SOES/Src/esc.c ****          an = ESC_startmbx (ac);
 3159              		.loc 1 984 10 view .LVU815
 3160              		.loc 1 984 15 is_stmt 0 view .LVU816
 3161 0182 2046     		mov	r0, r4
 3162 0184 FFF7FEFF 		bl	ESC_startmbx
 3163              	.LVL217:
 3164              		.loc 1 984 13 view .LVU817
 3165 0188 8DF80700 		strb	r0, [sp, #7]
 985:Drivers/SOES/Src/esc.c ****          break;
 3166              		.loc 1 985 10 is_stmt 1 view .LVU818
 3167              	.L231:
 986:Drivers/SOES/Src/esc.c ****       }
 987:Drivers/SOES/Src/esc.c ****       case INIT_TO_BOOT:
 988:Drivers/SOES/Src/esc.c ****       case BOOT_TO_BOOT:
 989:Drivers/SOES/Src/esc.c ****       {
 990:Drivers/SOES/Src/esc.c ****          /* get station address */
 991:Drivers/SOES/Src/esc.c ****          ESC_address ();
 992:Drivers/SOES/Src/esc.c ****          an = ESC_startmbxboot (ac);
 993:Drivers/SOES/Src/esc.c ****          break;
 994:Drivers/SOES/Src/esc.c ****       }
 995:Drivers/SOES/Src/esc.c ****       case INIT_TO_SAFEOP:
 996:Drivers/SOES/Src/esc.c ****       case INIT_TO_OP:
 997:Drivers/SOES/Src/esc.c ****       {
 998:Drivers/SOES/Src/esc.c ****          an = ESCinit | ESCerror;
 999:Drivers/SOES/Src/esc.c ****          ESC_ALerror (ALERR_INVALIDSTATECHANGE);
ARM GAS  /tmp/cctcjG2K.s 			page 77


1000:Drivers/SOES/Src/esc.c ****          break;
1001:Drivers/SOES/Src/esc.c ****       }
1002:Drivers/SOES/Src/esc.c ****       case OP_TO_INIT:
1003:Drivers/SOES/Src/esc.c ****       {
1004:Drivers/SOES/Src/esc.c ****          ESC_stopoutput ();
1005:Drivers/SOES/Src/esc.c ****          ESC_stopinput ();
1006:Drivers/SOES/Src/esc.c ****          ESC_stopmbx ();
1007:Drivers/SOES/Src/esc.c ****          an = ESCinit;
1008:Drivers/SOES/Src/esc.c ****          break;
1009:Drivers/SOES/Src/esc.c ****       }
1010:Drivers/SOES/Src/esc.c ****       case SAFEOP_TO_INIT:
1011:Drivers/SOES/Src/esc.c ****       {
1012:Drivers/SOES/Src/esc.c ****          ESC_stopinput ();
1013:Drivers/SOES/Src/esc.c ****          ESC_stopmbx ();
1014:Drivers/SOES/Src/esc.c ****          an = ESCinit;
1015:Drivers/SOES/Src/esc.c ****          break;
1016:Drivers/SOES/Src/esc.c ****       }
1017:Drivers/SOES/Src/esc.c ****       case PREOP_TO_INIT:
1018:Drivers/SOES/Src/esc.c ****       {
1019:Drivers/SOES/Src/esc.c ****          ESC_stopmbx ();
1020:Drivers/SOES/Src/esc.c ****          an = ESCinit;
1021:Drivers/SOES/Src/esc.c ****          break;
1022:Drivers/SOES/Src/esc.c ****       }
1023:Drivers/SOES/Src/esc.c ****       case BOOT_TO_INIT:
1024:Drivers/SOES/Src/esc.c ****       {
1025:Drivers/SOES/Src/esc.c ****          ESC_stopmbx ();
1026:Drivers/SOES/Src/esc.c ****          an = ESCinit;
1027:Drivers/SOES/Src/esc.c ****          break;
1028:Drivers/SOES/Src/esc.c ****       }
1029:Drivers/SOES/Src/esc.c ****       case PREOP_TO_BOOT:
1030:Drivers/SOES/Src/esc.c ****       case BOOT_TO_PREOP:
1031:Drivers/SOES/Src/esc.c ****       case BOOT_TO_SAFEOP:
1032:Drivers/SOES/Src/esc.c ****       case BOOT_TO_OP:
1033:Drivers/SOES/Src/esc.c ****       {
1034:Drivers/SOES/Src/esc.c ****          an = ESCpreop | ESCerror;
1035:Drivers/SOES/Src/esc.c ****          ESC_ALerror (ALERR_INVALIDSTATECHANGE);
1036:Drivers/SOES/Src/esc.c ****          break;
1037:Drivers/SOES/Src/esc.c ****       }
1038:Drivers/SOES/Src/esc.c ****       case PREOP_TO_SAFEOP:
1039:Drivers/SOES/Src/esc.c ****       case SAFEOP_TO_SAFEOP:
1040:Drivers/SOES/Src/esc.c ****       {
1041:Drivers/SOES/Src/esc.c ****          ESCvar.ESC_SM2_sml = sizeOfPDO (RX_PDO_OBJIDX, &ESCvar.sm2mappings,
1042:Drivers/SOES/Src/esc.c ****                                          SMmap2, MAX_MAPPINGS_SM2);
1043:Drivers/SOES/Src/esc.c ****          if (ESCvar.sm2mappings < 0)
1044:Drivers/SOES/Src/esc.c ****          {
1045:Drivers/SOES/Src/esc.c ****             an = ESCpreop | ESCerror;
1046:Drivers/SOES/Src/esc.c ****             ESC_ALerror (ALERR_INVALIDOUTPUTSM);
1047:Drivers/SOES/Src/esc.c ****             break;
1048:Drivers/SOES/Src/esc.c ****          }
1049:Drivers/SOES/Src/esc.c **** 
1050:Drivers/SOES/Src/esc.c ****          ESCvar.ESC_SM3_sml = sizeOfPDO (TX_PDO_OBJIDX, &ESCvar.sm3mappings,
1051:Drivers/SOES/Src/esc.c ****                                          SMmap3, MAX_MAPPINGS_SM3);
1052:Drivers/SOES/Src/esc.c ****          if (ESCvar.sm3mappings < 0)
1053:Drivers/SOES/Src/esc.c ****          {
1054:Drivers/SOES/Src/esc.c ****             an = ESCpreop | ESCerror;
1055:Drivers/SOES/Src/esc.c ****             ESC_ALerror (ALERR_INVALIDINPUTSM);
1056:Drivers/SOES/Src/esc.c ****             break;
ARM GAS  /tmp/cctcjG2K.s 			page 78


1057:Drivers/SOES/Src/esc.c ****          }
1058:Drivers/SOES/Src/esc.c **** 
1059:Drivers/SOES/Src/esc.c ****          an = ESC_startinput (ac);
1060:Drivers/SOES/Src/esc.c ****          if (an == ac)
1061:Drivers/SOES/Src/esc.c ****          {
1062:Drivers/SOES/Src/esc.c ****             ESC_SMenable (2);
1063:Drivers/SOES/Src/esc.c ****          }
1064:Drivers/SOES/Src/esc.c ****          break;
1065:Drivers/SOES/Src/esc.c ****       }
1066:Drivers/SOES/Src/esc.c ****       case PREOP_TO_OP:
1067:Drivers/SOES/Src/esc.c ****       {
1068:Drivers/SOES/Src/esc.c ****          an = ESCpreop | ESCerror;
1069:Drivers/SOES/Src/esc.c ****          ESC_ALerror (ALERR_INVALIDSTATECHANGE);
1070:Drivers/SOES/Src/esc.c ****          break;
1071:Drivers/SOES/Src/esc.c ****       }
1072:Drivers/SOES/Src/esc.c ****       case OP_TO_PREOP:
1073:Drivers/SOES/Src/esc.c ****       {
1074:Drivers/SOES/Src/esc.c ****          ESC_stopoutput ();
1075:Drivers/SOES/Src/esc.c ****          ESC_stopinput ();
1076:Drivers/SOES/Src/esc.c ****          an = ESCpreop;
1077:Drivers/SOES/Src/esc.c ****          break;
1078:Drivers/SOES/Src/esc.c ****       }
1079:Drivers/SOES/Src/esc.c ****       case SAFEOP_TO_PREOP:
1080:Drivers/SOES/Src/esc.c ****       {
1081:Drivers/SOES/Src/esc.c ****          ESC_stopinput ();
1082:Drivers/SOES/Src/esc.c ****          an = ESCpreop;
1083:Drivers/SOES/Src/esc.c ****          break;
1084:Drivers/SOES/Src/esc.c ****       }
1085:Drivers/SOES/Src/esc.c ****       case SAFEOP_TO_BOOT:
1086:Drivers/SOES/Src/esc.c ****       {
1087:Drivers/SOES/Src/esc.c ****          an = ESCsafeop | ESCerror;
1088:Drivers/SOES/Src/esc.c ****          ESC_ALerror (ALERR_INVALIDSTATECHANGE);
1089:Drivers/SOES/Src/esc.c ****          break;
1090:Drivers/SOES/Src/esc.c ****       }
1091:Drivers/SOES/Src/esc.c ****       case SAFEOP_TO_OP:
1092:Drivers/SOES/Src/esc.c ****       {
1093:Drivers/SOES/Src/esc.c ****          an = ESC_startoutput (ac);
1094:Drivers/SOES/Src/esc.c ****          break;
1095:Drivers/SOES/Src/esc.c ****       }
1096:Drivers/SOES/Src/esc.c ****       case OP_TO_BOOT:
1097:Drivers/SOES/Src/esc.c ****       {
1098:Drivers/SOES/Src/esc.c ****          an = ESCsafeop | ESCerror;
1099:Drivers/SOES/Src/esc.c ****          ESC_ALerror (ALERR_INVALIDSTATECHANGE);
1100:Drivers/SOES/Src/esc.c ****          ESC_stopoutput ();
1101:Drivers/SOES/Src/esc.c ****          break;
1102:Drivers/SOES/Src/esc.c ****       }
1103:Drivers/SOES/Src/esc.c ****       case OP_TO_SAFEOP:
1104:Drivers/SOES/Src/esc.c ****       {
1105:Drivers/SOES/Src/esc.c ****          an = ESCsafeop;
1106:Drivers/SOES/Src/esc.c ****          ESC_stopoutput ();
1107:Drivers/SOES/Src/esc.c ****          break;
1108:Drivers/SOES/Src/esc.c ****       }
1109:Drivers/SOES/Src/esc.c ****       default:
1110:Drivers/SOES/Src/esc.c ****       {
1111:Drivers/SOES/Src/esc.c ****          if (an == ESCop)
1112:Drivers/SOES/Src/esc.c ****          {
1113:Drivers/SOES/Src/esc.c ****             ESC_stopoutput ();
ARM GAS  /tmp/cctcjG2K.s 			page 79


1114:Drivers/SOES/Src/esc.c ****             an = ESCsafeop;
1115:Drivers/SOES/Src/esc.c ****          }
1116:Drivers/SOES/Src/esc.c ****          if (as == ESCsafeop)
1117:Drivers/SOES/Src/esc.c ****          {
1118:Drivers/SOES/Src/esc.c ****             ESC_stopinput ();
1119:Drivers/SOES/Src/esc.c ****          }
1120:Drivers/SOES/Src/esc.c ****          an |= ESCerror;
1121:Drivers/SOES/Src/esc.c ****          ESC_ALerror (ALERR_UNKNOWNSTATE);
1122:Drivers/SOES/Src/esc.c ****          break;
1123:Drivers/SOES/Src/esc.c ****       }
1124:Drivers/SOES/Src/esc.c ****    }
1125:Drivers/SOES/Src/esc.c **** 
1126:Drivers/SOES/Src/esc.c ****    /* Call post state change hook case it have been configured  */
1127:Drivers/SOES/Src/esc.c ****    if (ESCvar.post_state_change_hook != NULL)
 3168              		.loc 1 1127 4 view .LVU819
 3169              		.loc 1 1127 14 is_stmt 0 view .LVU820
 3170 018c 414B     		ldr	r3, .L266
 3171 018e 1B6B     		ldr	r3, [r3, #48]
 3172              		.loc 1 1127 7 view .LVU821
 3173 0190 23B1     		cbz	r3, .L253
1128:Drivers/SOES/Src/esc.c ****    {
1129:Drivers/SOES/Src/esc.c ****       ESCvar.post_state_change_hook (&as, &an);
 3174              		.loc 1 1129 7 is_stmt 1 view .LVU822
 3175 0192 0DF10701 		add	r1, sp, #7
 3176 0196 0DF10600 		add	r0, sp, #6
 3177 019a 9847     		blx	r3
 3178              	.LVL218:
 3179              	.L253:
1130:Drivers/SOES/Src/esc.c ****    }
1131:Drivers/SOES/Src/esc.c **** 
1132:Drivers/SOES/Src/esc.c ****    if (!(an & ESCerror) && (ESCvar.ALerror))
 3180              		.loc 1 1132 4 view .LVU823
 3181              		.loc 1 1132 13 is_stmt 0 view .LVU824
 3182 019c 9DF80730 		ldrb	r3, [sp, #7]	@ zero_extendqisi2
 3183              		.loc 1 1132 7 view .LVU825
 3184 01a0 13F0100F 		tst	r3, #16
 3185 01a4 05D1     		bne	.L254
 3186              		.loc 1 1132 35 discriminator 1 view .LVU826
 3187 01a6 3B4B     		ldr	r3, .L266
 3188 01a8 B3F88030 		ldrh	r3, [r3, #128]
 3189              		.loc 1 1132 25 discriminator 1 view .LVU827
 3190 01ac 002B     		cmp	r3, #0
 3191 01ae 40F0C980 		bne	.L261
 3192              	.L254:
1133:Drivers/SOES/Src/esc.c ****    {
1134:Drivers/SOES/Src/esc.c ****       /* clear error */
1135:Drivers/SOES/Src/esc.c ****       ESC_ALerror (ALERR_NONE);
1136:Drivers/SOES/Src/esc.c ****    }
1137:Drivers/SOES/Src/esc.c **** 
1138:Drivers/SOES/Src/esc.c ****    ESC_ALstatus (an);
 3193              		.loc 1 1138 4 is_stmt 1 view .LVU828
 3194 01b2 9DF80700 		ldrb	r0, [sp, #7]	@ zero_extendqisi2
 3195 01b6 FFF7FEFF 		bl	ESC_ALstatus
 3196              	.LVL219:
1139:Drivers/SOES/Src/esc.c ****    DPRINT ("state %x\n", an);
 3197              		.loc 1 1139 29 view .LVU829
 3198              	.L224:
ARM GAS  /tmp/cctcjG2K.s 			page 80


1140:Drivers/SOES/Src/esc.c **** }
 3199              		.loc 1 1140 1 is_stmt 0 view .LVU830
 3200 01ba 03B0     		add	sp, sp, #12
 3201              		.cfi_remember_state
 3202              		.cfi_def_cfa_offset 12
 3203              		@ sp needed
 3204 01bc 30BD     		pop	{r4, r5, pc}
 3205              	.LVL220:
 3206              	.L241:
 3207              		.cfi_restore_state
 991:Drivers/SOES/Src/esc.c ****          an = ESC_startmbxboot (ac);
 3208              		.loc 1 991 10 is_stmt 1 view .LVU831
 3209 01be FFF7FEFF 		bl	ESC_address
 3210              	.LVL221:
 992:Drivers/SOES/Src/esc.c ****          break;
 3211              		.loc 1 992 10 view .LVU832
 992:Drivers/SOES/Src/esc.c ****          break;
 3212              		.loc 1 992 15 is_stmt 0 view .LVU833
 3213 01c2 2046     		mov	r0, r4
 3214 01c4 FFF7FEFF 		bl	ESC_startmbxboot
 3215              	.LVL222:
 992:Drivers/SOES/Src/esc.c ****          break;
 3216              		.loc 1 992 13 view .LVU834
 3217 01c8 8DF80700 		strb	r0, [sp, #7]
 993:Drivers/SOES/Src/esc.c ****       }
 3218              		.loc 1 993 10 is_stmt 1 view .LVU835
 3219 01cc DEE7     		b	.L231
 3220              	.L236:
 998:Drivers/SOES/Src/esc.c ****          ESC_ALerror (ALERR_INVALIDSTATECHANGE);
 3221              		.loc 1 998 10 view .LVU836
 998:Drivers/SOES/Src/esc.c ****          ESC_ALerror (ALERR_INVALIDSTATECHANGE);
 3222              		.loc 1 998 13 is_stmt 0 view .LVU837
 3223 01ce 1120     		movs	r0, #17
 3224 01d0 8DF80700 		strb	r0, [sp, #7]
 999:Drivers/SOES/Src/esc.c ****          break;
 3225              		.loc 1 999 10 is_stmt 1 view .LVU838
 3226 01d4 FFF7FEFF 		bl	ESC_ALerror
 3227              	.LVL223:
1000:Drivers/SOES/Src/esc.c ****       }
 3228              		.loc 1 1000 10 view .LVU839
 3229 01d8 D8E7     		b	.L231
 3230              	.L245:
1004:Drivers/SOES/Src/esc.c ****          ESC_stopinput ();
 3231              		.loc 1 1004 10 view .LVU840
 3232 01da FFF7FEFF 		bl	ESC_stopoutput
 3233              	.LVL224:
1005:Drivers/SOES/Src/esc.c ****          ESC_stopmbx ();
 3234              		.loc 1 1005 10 view .LVU841
 3235 01de FFF7FEFF 		bl	ESC_stopinput
 3236              	.LVL225:
1006:Drivers/SOES/Src/esc.c ****          an = ESCinit;
 3237              		.loc 1 1006 10 view .LVU842
 3238 01e2 FFF7FEFF 		bl	ESC_stopmbx
 3239              	.LVL226:
1007:Drivers/SOES/Src/esc.c ****          break;
 3240              		.loc 1 1007 10 view .LVU843
1007:Drivers/SOES/Src/esc.c ****          break;
ARM GAS  /tmp/cctcjG2K.s 			page 81


 3241              		.loc 1 1007 13 is_stmt 0 view .LVU844
 3242 01e6 0123     		movs	r3, #1
 3243 01e8 8DF80730 		strb	r3, [sp, #7]
1008:Drivers/SOES/Src/esc.c ****       }
 3244              		.loc 1 1008 10 is_stmt 1 view .LVU845
 3245 01ec CEE7     		b	.L231
 3246              	.L246:
1012:Drivers/SOES/Src/esc.c ****          ESC_stopmbx ();
 3247              		.loc 1 1012 10 view .LVU846
 3248 01ee FFF7FEFF 		bl	ESC_stopinput
 3249              	.LVL227:
1013:Drivers/SOES/Src/esc.c ****          an = ESCinit;
 3250              		.loc 1 1013 10 view .LVU847
 3251 01f2 FFF7FEFF 		bl	ESC_stopmbx
 3252              	.LVL228:
1014:Drivers/SOES/Src/esc.c ****          break;
 3253              		.loc 1 1014 10 view .LVU848
1014:Drivers/SOES/Src/esc.c ****          break;
 3254              		.loc 1 1014 13 is_stmt 0 view .LVU849
 3255 01f6 0123     		movs	r3, #1
 3256 01f8 8DF80730 		strb	r3, [sp, #7]
1015:Drivers/SOES/Src/esc.c ****       }
 3257              		.loc 1 1015 10 is_stmt 1 view .LVU850
 3258 01fc C6E7     		b	.L231
 3259              	.L248:
1019:Drivers/SOES/Src/esc.c ****          an = ESCinit;
 3260              		.loc 1 1019 10 view .LVU851
 3261 01fe FFF7FEFF 		bl	ESC_stopmbx
 3262              	.LVL229:
1020:Drivers/SOES/Src/esc.c ****          break;
 3263              		.loc 1 1020 10 view .LVU852
1020:Drivers/SOES/Src/esc.c ****          break;
 3264              		.loc 1 1020 13 is_stmt 0 view .LVU853
 3265 0202 0123     		movs	r3, #1
 3266 0204 8DF80730 		strb	r3, [sp, #7]
1021:Drivers/SOES/Src/esc.c ****       }
 3267              		.loc 1 1021 10 is_stmt 1 view .LVU854
 3268 0208 C0E7     		b	.L231
 3269              	.L247:
1025:Drivers/SOES/Src/esc.c ****          an = ESCinit;
 3270              		.loc 1 1025 10 view .LVU855
 3271 020a FFF7FEFF 		bl	ESC_stopmbx
 3272              	.LVL230:
1026:Drivers/SOES/Src/esc.c ****          break;
 3273              		.loc 1 1026 10 view .LVU856
1026:Drivers/SOES/Src/esc.c ****          break;
 3274              		.loc 1 1026 13 is_stmt 0 view .LVU857
 3275 020e 0123     		movs	r3, #1
 3276 0210 8DF80730 		strb	r3, [sp, #7]
1027:Drivers/SOES/Src/esc.c ****       }
 3277              		.loc 1 1027 10 is_stmt 1 view .LVU858
 3278 0214 BAE7     		b	.L231
 3279              	.L234:
1034:Drivers/SOES/Src/esc.c ****          ESC_ALerror (ALERR_INVALIDSTATECHANGE);
 3280              		.loc 1 1034 10 view .LVU859
1034:Drivers/SOES/Src/esc.c ****          ESC_ALerror (ALERR_INVALIDSTATECHANGE);
 3281              		.loc 1 1034 13 is_stmt 0 view .LVU860
ARM GAS  /tmp/cctcjG2K.s 			page 82


 3282 0216 1223     		movs	r3, #18
 3283 0218 8DF80730 		strb	r3, [sp, #7]
1035:Drivers/SOES/Src/esc.c ****          break;
 3284              		.loc 1 1035 10 is_stmt 1 view .LVU861
 3285 021c 1120     		movs	r0, #17
 3286 021e FFF7FEFF 		bl	ESC_ALerror
 3287              	.LVL231:
1036:Drivers/SOES/Src/esc.c ****       }
 3288              		.loc 1 1036 10 view .LVU862
 3289 0222 B3E7     		b	.L231
 3290              	.L238:
1041:Drivers/SOES/Src/esc.c ****                                          SMmap2, MAX_MAPPINGS_SM2);
 3291              		.loc 1 1041 10 view .LVU863
1041:Drivers/SOES/Src/esc.c ****                                          SMmap2, MAX_MAPPINGS_SM2);
 3292              		.loc 1 1041 31 is_stmt 0 view .LVU864
 3293 0224 1D4D     		ldr	r5, .L266+8
 3294 0226 0223     		movs	r3, #2
 3295 0228 1D4A     		ldr	r2, .L266+12
 3296 022a 2946     		mov	r1, r5
 3297 022c 41F61240 		movw	r0, #7186
 3298 0230 FFF7FEFF 		bl	sizeOfPDO
 3299              	.LVL232:
1041:Drivers/SOES/Src/esc.c ****                                          SMmap2, MAX_MAPPINGS_SM2);
 3300              		.loc 1 1041 29 view .LVU865
 3301 0234 25F8300C 		strh	r0, [r5, #-48]	@ movhi
 3302 0238 A43D     		subs	r5, r5, #164
1043:Drivers/SOES/Src/esc.c ****          {
 3303              		.loc 1 1043 10 is_stmt 1 view .LVU866
1043:Drivers/SOES/Src/esc.c ****          {
 3304              		.loc 1 1043 20 is_stmt 0 view .LVU867
 3305 023a D5F8A430 		ldr	r3, [r5, #164]
1043:Drivers/SOES/Src/esc.c ****          {
 3306              		.loc 1 1043 13 view .LVU868
 3307 023e 002B     		cmp	r3, #0
 3308 0240 19DB     		blt	.L262
1050:Drivers/SOES/Src/esc.c ****                                          SMmap3, MAX_MAPPINGS_SM3);
 3309              		.loc 1 1050 10 is_stmt 1 view .LVU869
1050:Drivers/SOES/Src/esc.c ****                                          SMmap3, MAX_MAPPINGS_SM3);
 3310              		.loc 1 1050 31 is_stmt 0 view .LVU870
 3311 0242 184D     		ldr	r5, .L266+16
 3312 0244 0223     		movs	r3, #2
 3313 0246 184A     		ldr	r2, .L266+20
 3314 0248 2946     		mov	r1, r5
 3315 024a 41F61340 		movw	r0, #7187
 3316 024e FFF7FEFF 		bl	sizeOfPDO
 3317              	.LVL233:
1050:Drivers/SOES/Src/esc.c ****                                          SMmap3, MAX_MAPPINGS_SM3);
 3318              		.loc 1 1050 29 view .LVU871
 3319 0252 25F8320C 		strh	r0, [r5, #-50]	@ movhi
 3320 0256 A83D     		subs	r5, r5, #168
1052:Drivers/SOES/Src/esc.c ****          {
 3321              		.loc 1 1052 10 is_stmt 1 view .LVU872
1052:Drivers/SOES/Src/esc.c ****          {
 3322              		.loc 1 1052 20 is_stmt 0 view .LVU873
 3323 0258 D5F8A830 		ldr	r3, [r5, #168]
1052:Drivers/SOES/Src/esc.c ****          {
 3324              		.loc 1 1052 13 view .LVU874
ARM GAS  /tmp/cctcjG2K.s 			page 83


 3325 025c 002B     		cmp	r3, #0
 3326 025e 11DB     		blt	.L263
1059:Drivers/SOES/Src/esc.c ****          if (an == ac)
 3327              		.loc 1 1059 10 is_stmt 1 view .LVU875
1059:Drivers/SOES/Src/esc.c ****          if (an == ac)
 3328              		.loc 1 1059 15 is_stmt 0 view .LVU876
 3329 0260 2046     		mov	r0, r4
 3330 0262 FFF7FEFF 		bl	ESC_startinput
 3331              	.LVL234:
1059:Drivers/SOES/Src/esc.c ****          if (an == ac)
 3332              		.loc 1 1059 13 view .LVU877
 3333 0266 8DF80700 		strb	r0, [sp, #7]
1060:Drivers/SOES/Src/esc.c ****          {
 3334              		.loc 1 1060 10 is_stmt 1 view .LVU878
1060:Drivers/SOES/Src/esc.c ****          {
 3335              		.loc 1 1060 13 is_stmt 0 view .LVU879
 3336 026a A042     		cmp	r0, r4
 3337 026c 8ED1     		bne	.L231
1062:Drivers/SOES/Src/esc.c ****          }
 3338              		.loc 1 1062 13 is_stmt 1 view .LVU880
 3339 026e 0220     		movs	r0, #2
 3340 0270 FFF7FEFF 		bl	ESC_SMenable
 3341              	.LVL235:
 3342 0274 8AE7     		b	.L231
 3343              	.L262:
1045:Drivers/SOES/Src/esc.c ****             ESC_ALerror (ALERR_INVALIDOUTPUTSM);
 3344              		.loc 1 1045 13 view .LVU881
1045:Drivers/SOES/Src/esc.c ****             ESC_ALerror (ALERR_INVALIDOUTPUTSM);
 3345              		.loc 1 1045 16 is_stmt 0 view .LVU882
 3346 0276 1223     		movs	r3, #18
 3347 0278 8DF80730 		strb	r3, [sp, #7]
1046:Drivers/SOES/Src/esc.c ****             break;
 3348              		.loc 1 1046 13 is_stmt 1 view .LVU883
 3349 027c 1D20     		movs	r0, #29
 3350 027e FFF7FEFF 		bl	ESC_ALerror
 3351              	.LVL236:
1047:Drivers/SOES/Src/esc.c ****          }
 3352              		.loc 1 1047 13 view .LVU884
 3353 0282 83E7     		b	.L231
 3354              	.L263:
1054:Drivers/SOES/Src/esc.c ****             ESC_ALerror (ALERR_INVALIDINPUTSM);
 3355              		.loc 1 1054 13 view .LVU885
1054:Drivers/SOES/Src/esc.c ****             ESC_ALerror (ALERR_INVALIDINPUTSM);
 3356              		.loc 1 1054 16 is_stmt 0 view .LVU886
 3357 0284 1223     		movs	r3, #18
 3358 0286 8DF80730 		strb	r3, [sp, #7]
1055:Drivers/SOES/Src/esc.c ****             break;
 3359              		.loc 1 1055 13 is_stmt 1 view .LVU887
 3360 028a 1E20     		movs	r0, #30
 3361 028c FFF7FEFF 		bl	ESC_ALerror
 3362              	.LVL237:
1056:Drivers/SOES/Src/esc.c ****          }
 3363              		.loc 1 1056 13 view .LVU888
 3364 0290 7CE7     		b	.L231
 3365              	.L267:
 3366 0292 00BF     		.align	2
 3367              	.L266:
ARM GAS  /tmp/cctcjG2K.s 			page 84


 3368 0294 00000000 		.word	ESCvar
 3369 0298 7E000000 		.word	ESCvar+126
 3370 029c A4000000 		.word	ESCvar+164
 3371 02a0 00000000 		.word	SMmap2
 3372 02a4 A8000000 		.word	ESCvar+168
 3373 02a8 00000000 		.word	SMmap3
 3374              	.L235:
1068:Drivers/SOES/Src/esc.c ****          ESC_ALerror (ALERR_INVALIDSTATECHANGE);
 3375              		.loc 1 1068 10 view .LVU889
1068:Drivers/SOES/Src/esc.c ****          ESC_ALerror (ALERR_INVALIDSTATECHANGE);
 3376              		.loc 1 1068 13 is_stmt 0 view .LVU890
 3377 02ac 1223     		movs	r3, #18
 3378 02ae 8DF80730 		strb	r3, [sp, #7]
1069:Drivers/SOES/Src/esc.c ****          break;
 3379              		.loc 1 1069 10 is_stmt 1 view .LVU891
 3380 02b2 1120     		movs	r0, #17
 3381 02b4 FFF7FEFF 		bl	ESC_ALerror
 3382              	.LVL238:
1070:Drivers/SOES/Src/esc.c ****       }
 3383              		.loc 1 1070 10 view .LVU892
 3384 02b8 68E7     		b	.L231
 3385              	.L242:
1074:Drivers/SOES/Src/esc.c ****          ESC_stopinput ();
 3386              		.loc 1 1074 10 view .LVU893
 3387 02ba FFF7FEFF 		bl	ESC_stopoutput
 3388              	.LVL239:
1075:Drivers/SOES/Src/esc.c ****          an = ESCpreop;
 3389              		.loc 1 1075 10 view .LVU894
 3390 02be FFF7FEFF 		bl	ESC_stopinput
 3391              	.LVL240:
1076:Drivers/SOES/Src/esc.c ****          break;
 3392              		.loc 1 1076 10 view .LVU895
1076:Drivers/SOES/Src/esc.c ****          break;
 3393              		.loc 1 1076 13 is_stmt 0 view .LVU896
 3394 02c2 0223     		movs	r3, #2
 3395 02c4 8DF80730 		strb	r3, [sp, #7]
1077:Drivers/SOES/Src/esc.c ****       }
 3396              		.loc 1 1077 10 is_stmt 1 view .LVU897
 3397 02c8 60E7     		b	.L231
 3398              	.L243:
1081:Drivers/SOES/Src/esc.c ****          an = ESCpreop;
 3399              		.loc 1 1081 10 view .LVU898
 3400 02ca FFF7FEFF 		bl	ESC_stopinput
 3401              	.LVL241:
1082:Drivers/SOES/Src/esc.c ****          break;
 3402              		.loc 1 1082 10 view .LVU899
1082:Drivers/SOES/Src/esc.c ****          break;
 3403              		.loc 1 1082 13 is_stmt 0 view .LVU900
 3404 02ce 0223     		movs	r3, #2
 3405 02d0 8DF80730 		strb	r3, [sp, #7]
1083:Drivers/SOES/Src/esc.c ****       }
 3406              		.loc 1 1083 10 is_stmt 1 view .LVU901
 3407 02d4 5AE7     		b	.L231
 3408              	.L240:
1087:Drivers/SOES/Src/esc.c ****          ESC_ALerror (ALERR_INVALIDSTATECHANGE);
 3409              		.loc 1 1087 10 view .LVU902
1087:Drivers/SOES/Src/esc.c ****          ESC_ALerror (ALERR_INVALIDSTATECHANGE);
ARM GAS  /tmp/cctcjG2K.s 			page 85


 3410              		.loc 1 1087 13 is_stmt 0 view .LVU903
 3411 02d6 1423     		movs	r3, #20
 3412 02d8 8DF80730 		strb	r3, [sp, #7]
1088:Drivers/SOES/Src/esc.c ****          break;
 3413              		.loc 1 1088 10 is_stmt 1 view .LVU904
 3414 02dc 1120     		movs	r0, #17
 3415 02de FFF7FEFF 		bl	ESC_ALerror
 3416              	.LVL242:
1089:Drivers/SOES/Src/esc.c ****       }
 3417              		.loc 1 1089 10 view .LVU905
 3418 02e2 53E7     		b	.L231
 3419              	.L233:
1093:Drivers/SOES/Src/esc.c ****          break;
 3420              		.loc 1 1093 10 view .LVU906
1093:Drivers/SOES/Src/esc.c ****          break;
 3421              		.loc 1 1093 15 is_stmt 0 view .LVU907
 3422 02e4 2046     		mov	r0, r4
 3423 02e6 FFF7FEFF 		bl	ESC_startoutput
 3424              	.LVL243:
1093:Drivers/SOES/Src/esc.c ****          break;
 3425              		.loc 1 1093 13 view .LVU908
 3426 02ea 8DF80700 		strb	r0, [sp, #7]
1094:Drivers/SOES/Src/esc.c ****       }
 3427              		.loc 1 1094 10 is_stmt 1 view .LVU909
 3428 02ee 4DE7     		b	.L231
 3429              	.L239:
1098:Drivers/SOES/Src/esc.c ****          ESC_ALerror (ALERR_INVALIDSTATECHANGE);
 3430              		.loc 1 1098 10 view .LVU910
1098:Drivers/SOES/Src/esc.c ****          ESC_ALerror (ALERR_INVALIDSTATECHANGE);
 3431              		.loc 1 1098 13 is_stmt 0 view .LVU911
 3432 02f0 1423     		movs	r3, #20
 3433 02f2 8DF80730 		strb	r3, [sp, #7]
1099:Drivers/SOES/Src/esc.c ****          ESC_stopoutput ();
 3434              		.loc 1 1099 10 is_stmt 1 view .LVU912
 3435 02f6 1120     		movs	r0, #17
 3436 02f8 FFF7FEFF 		bl	ESC_ALerror
 3437              	.LVL244:
1100:Drivers/SOES/Src/esc.c ****          break;
 3438              		.loc 1 1100 10 view .LVU913
 3439 02fc FFF7FEFF 		bl	ESC_stopoutput
 3440              	.LVL245:
1101:Drivers/SOES/Src/esc.c ****       }
 3441              		.loc 1 1101 10 view .LVU914
 3442 0300 44E7     		b	.L231
 3443              	.L237:
1105:Drivers/SOES/Src/esc.c ****          ESC_stopoutput ();
 3444              		.loc 1 1105 10 view .LVU915
1105:Drivers/SOES/Src/esc.c ****          ESC_stopoutput ();
 3445              		.loc 1 1105 13 is_stmt 0 view .LVU916
 3446 0302 0423     		movs	r3, #4
 3447 0304 8DF80730 		strb	r3, [sp, #7]
1106:Drivers/SOES/Src/esc.c ****          break;
 3448              		.loc 1 1106 10 is_stmt 1 view .LVU917
 3449 0308 FFF7FEFF 		bl	ESC_stopoutput
 3450              	.LVL246:
1107:Drivers/SOES/Src/esc.c ****       }
 3451              		.loc 1 1107 10 view .LVU918
ARM GAS  /tmp/cctcjG2K.s 			page 86


 3452 030c 3EE7     		b	.L231
 3453              	.L230:
1111:Drivers/SOES/Src/esc.c ****          {
 3454              		.loc 1 1111 10 view .LVU919
1111:Drivers/SOES/Src/esc.c ****          {
 3455              		.loc 1 1111 17 is_stmt 0 view .LVU920
 3456 030e 9DF80730 		ldrb	r3, [sp, #7]	@ zero_extendqisi2
1111:Drivers/SOES/Src/esc.c ****          {
 3457              		.loc 1 1111 13 view .LVU921
 3458 0312 082B     		cmp	r3, #8
 3459 0314 0DD0     		beq	.L264
 3460              	.L251:
1116:Drivers/SOES/Src/esc.c ****          {
 3461              		.loc 1 1116 10 is_stmt 1 view .LVU922
1116:Drivers/SOES/Src/esc.c ****          {
 3462              		.loc 1 1116 17 is_stmt 0 view .LVU923
 3463 0316 9DF80630 		ldrb	r3, [sp, #6]	@ zero_extendqisi2
1116:Drivers/SOES/Src/esc.c ****          {
 3464              		.loc 1 1116 13 view .LVU924
 3465 031a 042B     		cmp	r3, #4
 3466 031c 0FD0     		beq	.L265
 3467              	.L252:
1120:Drivers/SOES/Src/esc.c ****          ESC_ALerror (ALERR_UNKNOWNSTATE);
 3468              		.loc 1 1120 10 is_stmt 1 view .LVU925
1120:Drivers/SOES/Src/esc.c ****          ESC_ALerror (ALERR_UNKNOWNSTATE);
 3469              		.loc 1 1120 13 is_stmt 0 view .LVU926
 3470 031e 9DF80730 		ldrb	r3, [sp, #7]	@ zero_extendqisi2
 3471 0322 43F01003 		orr	r3, r3, #16
 3472 0326 8DF80730 		strb	r3, [sp, #7]
1121:Drivers/SOES/Src/esc.c ****          break;
 3473              		.loc 1 1121 10 is_stmt 1 view .LVU927
 3474 032a 1220     		movs	r0, #18
 3475 032c FFF7FEFF 		bl	ESC_ALerror
 3476              	.LVL247:
1122:Drivers/SOES/Src/esc.c ****       }
 3477              		.loc 1 1122 10 view .LVU928
 3478 0330 2CE7     		b	.L231
 3479              	.L264:
1113:Drivers/SOES/Src/esc.c ****             an = ESCsafeop;
 3480              		.loc 1 1113 13 view .LVU929
 3481 0332 FFF7FEFF 		bl	ESC_stopoutput
 3482              	.LVL248:
1114:Drivers/SOES/Src/esc.c ****          }
 3483              		.loc 1 1114 13 view .LVU930
1114:Drivers/SOES/Src/esc.c ****          }
 3484              		.loc 1 1114 16 is_stmt 0 view .LVU931
 3485 0336 0423     		movs	r3, #4
 3486 0338 8DF80730 		strb	r3, [sp, #7]
 3487 033c EBE7     		b	.L251
 3488              	.L265:
1118:Drivers/SOES/Src/esc.c ****          }
 3489              		.loc 1 1118 13 is_stmt 1 view .LVU932
 3490 033e FFF7FEFF 		bl	ESC_stopinput
 3491              	.LVL249:
 3492 0342 ECE7     		b	.L252
 3493              	.L261:
1135:Drivers/SOES/Src/esc.c ****    }
ARM GAS  /tmp/cctcjG2K.s 			page 87


 3494              		.loc 1 1135 7 view .LVU933
 3495 0344 0020     		movs	r0, #0
 3496 0346 FFF7FEFF 		bl	ESC_ALerror
 3497              	.LVL250:
 3498 034a 32E7     		b	.L254
 3499              		.cfi_endproc
 3500              	.LFE36:
 3502              		.section	.text.ESC_config,"ax",%progbits
 3503              		.align	1
 3504              		.global	ESC_config
 3505              		.syntax unified
 3506              		.thumb
 3507              		.thumb_func
 3509              	ESC_config:
 3510              	.LVL251:
 3511              	.LFB37:
1141:Drivers/SOES/Src/esc.c **** /** Function copying the application configuration variable
1142:Drivers/SOES/Src/esc.c ****  * data to the stack local variable.
1143:Drivers/SOES/Src/esc.c ****  *
1144:Drivers/SOES/Src/esc.c ****  * @param[in] cfg   = Pointer to the Application configuration variable
1145:Drivers/SOES/Src/esc.c ****  * holding application specific details. Data is copied.
1146:Drivers/SOES/Src/esc.c ****  */
1147:Drivers/SOES/Src/esc.c **** void ESC_config (esc_cfg_t * cfg)
1148:Drivers/SOES/Src/esc.c **** {
 3512              		.loc 1 1148 1 view -0
 3513              		.cfi_startproc
 3514              		@ args = 0, pretend = 0, frame = 0
 3515              		@ frame_needed = 0, uses_anonymous_args = 0
 3516              		@ link register save eliminated.
 3517              		.loc 1 1148 1 is_stmt 0 view .LVU935
 3518 0000 0246     		mov	r2, r0
1149:Drivers/SOES/Src/esc.c ****    static sm_cfg_t mb0 = {MBX0_sma, MBX0_sml, MBX0_sme, MBX0_smc, 0};
 3519              		.loc 1 1149 4 is_stmt 1 view .LVU936
1150:Drivers/SOES/Src/esc.c ****    static sm_cfg_t mb1 = {MBX1_sma, MBX1_sml, MBX1_sme, MBX1_smc, 0};
 3520              		.loc 1 1150 4 view .LVU937
1151:Drivers/SOES/Src/esc.c ****    static sm_cfg_t mbboot0 = {MBX0_sma_b, MBX0_sml_b, MBX0_sme_b, MBX0_smc_b, 0};
 3521              		.loc 1 1151 4 view .LVU938
1152:Drivers/SOES/Src/esc.c ****    static sm_cfg_t mbboot1 = {MBX1_sma_b, MBX1_sml_b, MBX1_sme_b, MBX1_smc_b, 0};
 3522              		.loc 1 1152 4 view .LVU939
1153:Drivers/SOES/Src/esc.c **** 
1154:Drivers/SOES/Src/esc.c ****    /* Configure stack */
1155:Drivers/SOES/Src/esc.c ****    ESCvar.use_interrupt = cfg->use_interrupt;
 3523              		.loc 1 1155 4 view .LVU940
 3524              		.loc 1 1155 30 is_stmt 0 view .LVU941
 3525 0002 4168     		ldr	r1, [r0, #4]
 3526              		.loc 1 1155 25 view .LVU942
 3527 0004 1F4B     		ldr	r3, .L269
 3528 0006 1960     		str	r1, [r3]
1156:Drivers/SOES/Src/esc.c ****    ESCvar.watchdogcnt = cfg->watchdog_cnt;
 3529              		.loc 1 1156 4 is_stmt 1 view .LVU943
 3530              		.loc 1 1156 28 is_stmt 0 view .LVU944
 3531 0008 8168     		ldr	r1, [r0, #8]
 3532              		.loc 1 1156 23 view .LVU945
 3533 000a C3F8D410 		str	r1, [r3, #212]
1157:Drivers/SOES/Src/esc.c **** 
1158:Drivers/SOES/Src/esc.c ****    ESCvar.mb[0] = mb0;
 3534              		.loc 1 1158 4 is_stmt 1 view .LVU946
ARM GAS  /tmp/cctcjG2K.s 			page 88


 3535              		.loc 1 1158 17 is_stmt 0 view .LVU947
 3536 000e 1E49     		ldr	r1, .L269+4
 3537 0010 03F1040C 		add	ip, r3, #4
 3538 0014 03C9     		ldm	r1, {r0, r1}
 3539              	.LVL252:
 3540              		.loc 1 1158 17 view .LVU948
 3541 0016 8CE80300 		stm	ip, {r0, r1}
1159:Drivers/SOES/Src/esc.c ****    ESCvar.mb[1] = mb1;
 3542              		.loc 1 1159 4 is_stmt 1 view .LVU949
 3543              		.loc 1 1159 17 is_stmt 0 view .LVU950
 3544 001a 1C49     		ldr	r1, .L269+8
 3545 001c 03F10C0C 		add	ip, r3, #12
 3546 0020 03C9     		ldm	r1, {r0, r1}
 3547 0022 8CE80300 		stm	ip, {r0, r1}
1160:Drivers/SOES/Src/esc.c ****    ESCvar.mbboot[0] = mbboot0;
 3548              		.loc 1 1160 4 is_stmt 1 view .LVU951
 3549              		.loc 1 1160 21 is_stmt 0 view .LVU952
 3550 0026 1A49     		ldr	r1, .L269+12
 3551 0028 03F1140C 		add	ip, r3, #20
 3552 002c 03C9     		ldm	r1, {r0, r1}
 3553 002e 8CE80300 		stm	ip, {r0, r1}
1161:Drivers/SOES/Src/esc.c ****    ESCvar.mbboot[1] = mbboot1;
 3554              		.loc 1 1161 4 is_stmt 1 view .LVU953
 3555              		.loc 1 1161 21 is_stmt 0 view .LVU954
 3556 0032 1849     		ldr	r1, .L269+16
 3557 0034 03F11C0C 		add	ip, r3, #28
 3558 0038 03C9     		ldm	r1, {r0, r1}
 3559 003a 8CE80300 		stm	ip, {r0, r1}
1162:Drivers/SOES/Src/esc.c **** 
1163:Drivers/SOES/Src/esc.c ****    ESCvar.skip_default_initialization = cfg->skip_default_initialization;
 3560              		.loc 1 1163 4 is_stmt 1 view .LVU955
 3561              		.loc 1 1163 44 is_stmt 0 view .LVU956
 3562 003e 117B     		ldrb	r1, [r2, #12]	@ zero_extendqisi2
 3563              		.loc 1 1163 39 view .LVU957
 3564 0040 83F82410 		strb	r1, [r3, #36]
1164:Drivers/SOES/Src/esc.c ****    ESCvar.set_defaults_hook = cfg->set_defaults_hook;
 3565              		.loc 1 1164 4 is_stmt 1 view .LVU958
 3566              		.loc 1 1164 34 is_stmt 0 view .LVU959
 3567 0044 1169     		ldr	r1, [r2, #16]
 3568              		.loc 1 1164 29 view .LVU960
 3569 0046 9962     		str	r1, [r3, #40]
1165:Drivers/SOES/Src/esc.c ****    ESCvar.pre_state_change_hook = cfg->pre_state_change_hook;
 3570              		.loc 1 1165 4 is_stmt 1 view .LVU961
 3571              		.loc 1 1165 38 is_stmt 0 view .LVU962
 3572 0048 5169     		ldr	r1, [r2, #20]
 3573              		.loc 1 1165 33 view .LVU963
 3574 004a D962     		str	r1, [r3, #44]
1166:Drivers/SOES/Src/esc.c ****    ESCvar.post_state_change_hook = cfg->post_state_change_hook;
 3575              		.loc 1 1166 4 is_stmt 1 view .LVU964
 3576              		.loc 1 1166 39 is_stmt 0 view .LVU965
 3577 004c 9169     		ldr	r1, [r2, #24]
 3578              		.loc 1 1166 34 view .LVU966
 3579 004e 1963     		str	r1, [r3, #48]
1167:Drivers/SOES/Src/esc.c ****    ESCvar.application_hook = cfg->application_hook;
 3580              		.loc 1 1167 4 is_stmt 1 view .LVU967
 3581              		.loc 1 1167 33 is_stmt 0 view .LVU968
 3582 0050 D169     		ldr	r1, [r2, #28]
ARM GAS  /tmp/cctcjG2K.s 			page 89


 3583              		.loc 1 1167 28 view .LVU969
 3584 0052 5963     		str	r1, [r3, #52]
1168:Drivers/SOES/Src/esc.c ****    ESCvar.safeoutput_override = cfg->safeoutput_override;
 3585              		.loc 1 1168 4 is_stmt 1 view .LVU970
 3586              		.loc 1 1168 36 is_stmt 0 view .LVU971
 3587 0054 116A     		ldr	r1, [r2, #32]
 3588              		.loc 1 1168 31 view .LVU972
 3589 0056 9963     		str	r1, [r3, #56]
1169:Drivers/SOES/Src/esc.c ****    ESCvar.pre_object_download_hook = cfg->pre_object_download_hook;
 3590              		.loc 1 1169 4 is_stmt 1 view .LVU973
 3591              		.loc 1 1169 41 is_stmt 0 view .LVU974
 3592 0058 516A     		ldr	r1, [r2, #36]
 3593              		.loc 1 1169 36 view .LVU975
 3594 005a D963     		str	r1, [r3, #60]
1170:Drivers/SOES/Src/esc.c ****    ESCvar.post_object_download_hook = cfg->post_object_download_hook;
 3595              		.loc 1 1170 4 is_stmt 1 view .LVU976
 3596              		.loc 1 1170 42 is_stmt 0 view .LVU977
 3597 005c 916A     		ldr	r1, [r2, #40]
 3598              		.loc 1 1170 37 view .LVU978
 3599 005e 1964     		str	r1, [r3, #64]
1171:Drivers/SOES/Src/esc.c ****    ESCvar.pre_object_upload_hook = cfg->pre_object_upload_hook;
 3600              		.loc 1 1171 4 is_stmt 1 view .LVU979
 3601              		.loc 1 1171 39 is_stmt 0 view .LVU980
 3602 0060 D16A     		ldr	r1, [r2, #44]
 3603              		.loc 1 1171 34 view .LVU981
 3604 0062 5964     		str	r1, [r3, #68]
1172:Drivers/SOES/Src/esc.c ****    ESCvar.post_object_upload_hook = cfg->post_object_upload_hook;
 3605              		.loc 1 1172 4 is_stmt 1 view .LVU982
 3606              		.loc 1 1172 40 is_stmt 0 view .LVU983
 3607 0064 116B     		ldr	r1, [r2, #48]
 3608              		.loc 1 1172 35 view .LVU984
 3609 0066 9964     		str	r1, [r3, #72]
1173:Drivers/SOES/Src/esc.c ****    ESCvar.rxpdo_override = cfg->rxpdo_override;
 3610              		.loc 1 1173 4 is_stmt 1 view .LVU985
 3611              		.loc 1 1173 31 is_stmt 0 view .LVU986
 3612 0068 516B     		ldr	r1, [r2, #52]
 3613              		.loc 1 1173 26 view .LVU987
 3614 006a D964     		str	r1, [r3, #76]
1174:Drivers/SOES/Src/esc.c ****    ESCvar.txpdo_override = cfg->txpdo_override;
 3615              		.loc 1 1174 4 is_stmt 1 view .LVU988
 3616              		.loc 1 1174 31 is_stmt 0 view .LVU989
 3617 006c 916B     		ldr	r1, [r2, #56]
 3618              		.loc 1 1174 26 view .LVU990
 3619 006e 1965     		str	r1, [r3, #80]
1175:Drivers/SOES/Src/esc.c ****    ESCvar.esc_hw_interrupt_enable = cfg->esc_hw_interrupt_enable;
 3620              		.loc 1 1175 4 is_stmt 1 view .LVU991
 3621              		.loc 1 1175 40 is_stmt 0 view .LVU992
 3622 0070 D16B     		ldr	r1, [r2, #60]
 3623              		.loc 1 1175 35 view .LVU993
 3624 0072 5965     		str	r1, [r3, #84]
1176:Drivers/SOES/Src/esc.c ****    ESCvar.esc_hw_interrupt_disable = cfg->esc_hw_interrupt_disable;
 3625              		.loc 1 1176 4 is_stmt 1 view .LVU994
 3626              		.loc 1 1176 41 is_stmt 0 view .LVU995
 3627 0074 116C     		ldr	r1, [r2, #64]
 3628              		.loc 1 1176 36 view .LVU996
 3629 0076 9965     		str	r1, [r3, #88]
1177:Drivers/SOES/Src/esc.c ****    ESCvar.esc_hw_eep_handler = cfg->esc_hw_eep_handler;
ARM GAS  /tmp/cctcjG2K.s 			page 90


 3630              		.loc 1 1177 4 is_stmt 1 view .LVU997
 3631              		.loc 1 1177 35 is_stmt 0 view .LVU998
 3632 0078 516C     		ldr	r1, [r2, #68]
 3633              		.loc 1 1177 30 view .LVU999
 3634 007a D965     		str	r1, [r3, #92]
1178:Drivers/SOES/Src/esc.c ****    ESCvar.esc_check_dc_handler = cfg->esc_check_dc_handler;
 3635              		.loc 1 1178 4 is_stmt 1 view .LVU1000
 3636              		.loc 1 1178 37 is_stmt 0 view .LVU1001
 3637 007c 926C     		ldr	r2, [r2, #72]
 3638              	.LVL253:
 3639              		.loc 1 1178 32 view .LVU1002
 3640 007e 1A66     		str	r2, [r3, #96]
1179:Drivers/SOES/Src/esc.c **** }
 3641              		.loc 1 1179 1 view .LVU1003
 3642 0080 7047     		bx	lr
 3643              	.L270:
 3644 0082 00BF     		.align	2
 3645              	.L269:
 3646 0084 00000000 		.word	ESCvar
 3647 0088 00000000 		.word	.LANCHOR0
 3648 008c 00000000 		.word	.LANCHOR1
 3649 0090 00000000 		.word	.LANCHOR2
 3650 0094 00000000 		.word	.LANCHOR3
 3651              		.cfi_endproc
 3652              	.LFE37:
 3654              		.section	.rodata.mb0.3,"a"
 3655              		.align	2
 3656              		.set	.LANCHOR0,. + 0
 3659              	mb0.3:
 3660 0000 0010     		.short	4096
 3661 0002 0002     		.short	512
 3662 0004 FF11     		.short	4607
 3663 0006 26       		.byte	38
 3664 0007 00       		.byte	0
 3665              		.section	.rodata.mb1.2,"a"
 3666              		.align	2
 3667              		.set	.LANCHOR1,. + 0
 3670              	mb1.2:
 3671 0000 0012     		.short	4608
 3672 0002 0002     		.short	512
 3673 0004 FF13     		.short	5119
 3674 0006 22       		.byte	34
 3675 0007 00       		.byte	0
 3676              		.section	.rodata.mbboot0.1,"a"
 3677              		.align	2
 3678              		.set	.LANCHOR2,. + 0
 3681              	mbboot0.1:
 3682 0000 0010     		.short	4096
 3683 0002 0002     		.short	512
 3684 0004 FF11     		.short	4607
 3685 0006 26       		.byte	38
 3686 0007 00       		.byte	0
 3687              		.section	.rodata.mbboot1.0,"a"
 3688              		.align	2
 3689              		.set	.LANCHOR3,. + 0
 3692              	mbboot1.0:
 3693 0000 0012     		.short	4608
ARM GAS  /tmp/cctcjG2K.s 			page 91


 3694 0002 0002     		.short	512
 3695 0004 FF13     		.short	5119
 3696 0006 22       		.byte	34
 3697 0007 00       		.byte	0
 3698              		.text
 3699              	.Letext0:
 3700              		.file 2 "/usr/share/gcc-arm-none-eabi-10.3-2021.10/lib/gcc/arm-none-eabi/10.3.1/include/stddef.h"
 3701              		.file 3 "/usr/share/gcc-arm-none-eabi-10.3-2021.10/arm-none-eabi/include/machine/_default_types.h"
 3702              		.file 4 "/usr/share/gcc-arm-none-eabi-10.3-2021.10/arm-none-eabi/include/sys/_stdint.h"
 3703              		.file 5 "Drivers/SOES/Inc/esc_coe.h"
 3704              		.file 6 "Drivers/SOES/Inc/esc.h"
ARM GAS  /tmp/cctcjG2K.s 			page 92

