ARM GAS  /tmp/ccYiZfXm.s 			page 1


   1              		.cpu cortex-m4
   2              		.arch armv7e-m
   3              		.fpu fpv4-sp-d16
   4              		.eabi_attribute 27, 1
   5              		.eabi_attribute 28, 1
   6              		.eabi_attribute 20, 1
   7              		.eabi_attribute 21, 1
   8              		.eabi_attribute 23, 3
   9              		.eabi_attribute 24, 1
  10              		.eabi_attribute 25, 1
  11              		.eabi_attribute 26, 1
  12              		.eabi_attribute 30, 1
  13              		.eabi_attribute 34, 1
  14              		.eabi_attribute 18, 4
  15              		.file	"ecatapp.c"
  16              		.text
  17              	.Ltext0:
  18              		.cfi_sections	.debug_frame
  19              		.section	.text.ecatapp,"ax",%progbits
  20              		.align	1
  21              		.global	ecatapp
  22              		.syntax unified
  23              		.thumb
  24              		.thumb_func
  26              	ecatapp:
  27              	.LFB132:
  28              		.file 1 "Core/Src/ecatapp.c"
   1:Core/Src/ecatapp.c **** #include "esc.h"
   2:Core/Src/ecatapp.c **** #include "ecat_slv.h"
   3:Core/Src/ecatapp.c **** #include "utypes.h"
   4:Core/Src/ecatapp.c **** 
   5:Core/Src/ecatapp.c **** #include "esc_irq.h"
   6:Core/Src/ecatapp.c **** #include "pdo_override.h"
   7:Core/Src/ecatapp.c **** #include "ecatapp.h"
   8:Core/Src/ecatapp.c **** 
   9:Core/Src/ecatapp.c **** #include "main.h"
  10:Core/Src/ecatapp.c **** 
  11:Core/Src/ecatapp.c **** /* CANopen Object Dictionary */
  12:Core/Src/ecatapp.c **** _Objects Obj;
  13:Core/Src/ecatapp.c **** 
  14:Core/Src/ecatapp.c **** extern int led_flag;
  15:Core/Src/ecatapp.c **** 
  16:Core/Src/ecatapp.c **** extern uint8_t led_1;
  17:Core/Src/ecatapp.c **** extern uint8_t led_2;
  18:Core/Src/ecatapp.c **** 
  19:Core/Src/ecatapp.c **** uint8_t sync0_irq_flag = 0;
  20:Core/Src/ecatapp.c **** uint8_t pdi_irq_flag = 0;
  21:Core/Src/ecatapp.c **** 
  22:Core/Src/ecatapp.c **** /* Application hook declaration */
  23:Core/Src/ecatapp.c **** void ecatapp(void);
  24:Core/Src/ecatapp.c **** uint16_t check_dc_handler(void);
  25:Core/Src/ecatapp.c **** 
  26:Core/Src/ecatapp.c **** /* SOES configuration */
  27:Core/Src/ecatapp.c **** static esc_cfg_t config = {
  28:Core/Src/ecatapp.c ****     .user_arg = "ax58100",
  29:Core/Src/ecatapp.c ****     .use_interrupt = 1,
  30:Core/Src/ecatapp.c ****     .watchdog_cnt = INT32_MAX,
ARM GAS  /tmp/ccYiZfXm.s 			page 2


  31:Core/Src/ecatapp.c ****     .set_defaults_hook = NULL,
  32:Core/Src/ecatapp.c ****     .pre_state_change_hook = NULL,
  33:Core/Src/ecatapp.c ****     .post_state_change_hook = NULL,
  34:Core/Src/ecatapp.c ****     .application_hook = ecatapp,
  35:Core/Src/ecatapp.c ****     .safeoutput_override = NULL,
  36:Core/Src/ecatapp.c ****     .pre_object_download_hook = NULL,
  37:Core/Src/ecatapp.c ****     .post_object_download_hook = NULL,
  38:Core/Src/ecatapp.c ****     .rxpdo_override = rxpdo_override,
  39:Core/Src/ecatapp.c ****     .txpdo_override = txpdo_override,
  40:Core/Src/ecatapp.c ****     .esc_hw_interrupt_enable = ESC_interrupt_enable,
  41:Core/Src/ecatapp.c ****     .esc_hw_interrupt_disable = ESC_interrupt_disable,
  42:Core/Src/ecatapp.c ****     .esc_hw_eep_handler = NULL,
  43:Core/Src/ecatapp.c ****     .esc_check_dc_handler = check_dc_handler,
  44:Core/Src/ecatapp.c **** };
  45:Core/Src/ecatapp.c **** 
  46:Core/Src/ecatapp.c **** void ecatapp_init(void)
  47:Core/Src/ecatapp.c **** {
  48:Core/Src/ecatapp.c ****     ecat_slv_init(&config);
  49:Core/Src/ecatapp.c ****     init_override();
  50:Core/Src/ecatapp.c **** }
  51:Core/Src/ecatapp.c **** 
  52:Core/Src/ecatapp.c **** uint16_t check_dc_handler(void)
  53:Core/Src/ecatapp.c **** {
  54:Core/Src/ecatapp.c **** // minimum watchdog value is 1 ms, in nanoseconds
  55:Core/Src/ecatapp.c **** #define MIN_WATCHDOG_VALUE_NS 1000000
  56:Core/Src/ecatapp.c **** 
  57:Core/Src/ecatapp.c ****     /* Indicate we run DC */
  58:Core/Src/ecatapp.c ****     ESCvar.dcsync = 1;
  59:Core/Src/ecatapp.c ****     /* Fetch the sync counter limit (SDO10F1) */
  60:Core/Src/ecatapp.c ****     ESCvar.synccounterlimit = Obj.Error_Settings.SyncErrorCounterLimit;
  61:Core/Src/ecatapp.c **** 
  62:Core/Src/ecatapp.c ****     uint32_t sync0cycleTime = ESC_enable_DC();
  63:Core/Src/ecatapp.c ****     Obj.Sync_Manager_2_Parameters.CycleTime = sync0cycleTime;
  64:Core/Src/ecatapp.c ****     // Obj.Sync_Manager_3_Parameters.CycleTime = sync0cycleTime;
  65:Core/Src/ecatapp.c ****     // calculate watchdog value as 2 x SYNC0 cycle time
  66:Core/Src/ecatapp.c ****     int watchdog_value = 2 * sync0cycleTime;
  67:Core/Src/ecatapp.c ****     if (watchdog_value < MIN_WATCHDOG_VALUE_NS)
  68:Core/Src/ecatapp.c ****     {
  69:Core/Src/ecatapp.c ****         watchdog_value = MIN_WATCHDOG_VALUE_NS;
  70:Core/Src/ecatapp.c ****     }
  71:Core/Src/ecatapp.c ****     APP_setwatchdog(watchdog_value);
  72:Core/Src/ecatapp.c **** 
  73:Core/Src/ecatapp.c ****     return 0;
  74:Core/Src/ecatapp.c **** }
  75:Core/Src/ecatapp.c **** 
  76:Core/Src/ecatapp.c **** void ecatapp()
  77:Core/Src/ecatapp.c **** {
  29              		.loc 1 77 1 view -0
  30              		.cfi_startproc
  31              		@ args = 0, pretend = 0, frame = 0
  32              		@ frame_needed = 0, uses_anonymous_args = 0
  33              		@ link register save eliminated.
  78:Core/Src/ecatapp.c **** 
  79:Core/Src/ecatapp.c **** }
  34              		.loc 1 79 1 view .LVU1
  35 0000 7047     		bx	lr
  36              		.cfi_endproc
ARM GAS  /tmp/ccYiZfXm.s 			page 3


  37              	.LFE132:
  39              		.section	.text.check_dc_handler,"ax",%progbits
  40              		.align	1
  41              		.global	check_dc_handler
  42              		.syntax unified
  43              		.thumb
  44              		.thumb_func
  46              	check_dc_handler:
  47              	.LFB131:
  53:Core/Src/ecatapp.c **** // minimum watchdog value is 1 ms, in nanoseconds
  48              		.loc 1 53 1 view -0
  49              		.cfi_startproc
  50              		@ args = 0, pretend = 0, frame = 0
  51              		@ frame_needed = 0, uses_anonymous_args = 0
  52 0000 10B5     		push	{r4, lr}
  53              		.cfi_def_cfa_offset 8
  54              		.cfi_offset 4, -8
  55              		.cfi_offset 14, -4
  58:Core/Src/ecatapp.c ****     /* Fetch the sync counter limit (SDO10F1) */
  56              		.loc 1 58 5 view .LVU3
  58:Core/Src/ecatapp.c ****     /* Fetch the sync counter limit (SDO10F1) */
  57              		.loc 1 58 19 is_stmt 0 view .LVU4
  58 0002 0B4B     		ldr	r3, .L6
  59 0004 0122     		movs	r2, #1
  60 0006 83F87C20 		strb	r2, [r3, #124]
  60:Core/Src/ecatapp.c **** 
  61              		.loc 1 60 5 is_stmt 1 view .LVU5
  60:Core/Src/ecatapp.c **** 
  62              		.loc 1 60 49 is_stmt 0 view .LVU6
  63 000a 0A4C     		ldr	r4, .L6+4
  64 000c 2269     		ldr	r2, [r4, #16]
  60:Core/Src/ecatapp.c **** 
  65              		.loc 1 60 29 view .LVU7
  66 000e A3F87E20 		strh	r2, [r3, #126]	@ movhi
  62:Core/Src/ecatapp.c ****     Obj.Sync_Manager_2_Parameters.CycleTime = sync0cycleTime;
  67              		.loc 1 62 5 is_stmt 1 view .LVU8
  62:Core/Src/ecatapp.c ****     Obj.Sync_Manager_2_Parameters.CycleTime = sync0cycleTime;
  68              		.loc 1 62 31 is_stmt 0 view .LVU9
  69 0012 FFF7FEFF 		bl	ESC_enable_DC
  70              	.LVL0:
  71 0016 0346     		mov	r3, r0
  72              	.LVL1:
  63:Core/Src/ecatapp.c ****     // Obj.Sync_Manager_3_Parameters.CycleTime = sync0cycleTime;
  73              		.loc 1 63 5 is_stmt 1 view .LVU10
  63:Core/Src/ecatapp.c ****     // Obj.Sync_Manager_3_Parameters.CycleTime = sync0cycleTime;
  74              		.loc 1 63 45 is_stmt 0 view .LVU11
  75 0018 A061     		str	r0, [r4, #24]
  66:Core/Src/ecatapp.c ****     if (watchdog_value < MIN_WATCHDOG_VALUE_NS)
  76              		.loc 1 66 5 is_stmt 1 view .LVU12
  66:Core/Src/ecatapp.c ****     if (watchdog_value < MIN_WATCHDOG_VALUE_NS)
  77              		.loc 1 66 28 is_stmt 0 view .LVU13
  78 001a 4000     		lsls	r0, r0, #1
  79              	.LVL2:
  67:Core/Src/ecatapp.c ****     {
  80              		.loc 1 67 5 is_stmt 1 view .LVU14
  67:Core/Src/ecatapp.c ****     {
  81              		.loc 1 67 8 is_stmt 0 view .LVU15
ARM GAS  /tmp/ccYiZfXm.s 			page 4


  82 001c 064A     		ldr	r2, .L6+8
  83 001e B2EB430F 		cmp	r2, r3, lsl #1
  84 0022 00DB     		blt	.L3
  69:Core/Src/ecatapp.c ****     }
  85              		.loc 1 69 24 view .LVU16
  86 0024 0548     		ldr	r0, .L6+12
  87              	.LVL3:
  88              	.L3:
  71:Core/Src/ecatapp.c **** 
  89              		.loc 1 71 5 is_stmt 1 view .LVU17
  90 0026 FFF7FEFF 		bl	APP_setwatchdog
  91              	.LVL4:
  73:Core/Src/ecatapp.c **** }
  92              		.loc 1 73 5 view .LVU18
  74:Core/Src/ecatapp.c **** 
  93              		.loc 1 74 1 is_stmt 0 view .LVU19
  94 002a 0020     		movs	r0, #0
  95 002c 10BD     		pop	{r4, pc}
  96              	.L7:
  97 002e 00BF     		.align	2
  98              	.L6:
  99 0030 00000000 		.word	ESCvar
 100 0034 00000000 		.word	.LANCHOR0
 101 0038 3F420F00 		.word	999999
 102 003c 40420F00 		.word	1000000
 103              		.cfi_endproc
 104              	.LFE131:
 106              		.section	.text.ecatapp_init,"ax",%progbits
 107              		.align	1
 108              		.global	ecatapp_init
 109              		.syntax unified
 110              		.thumb
 111              		.thumb_func
 113              	ecatapp_init:
 114              	.LFB130:
  47:Core/Src/ecatapp.c ****     ecat_slv_init(&config);
 115              		.loc 1 47 1 is_stmt 1 view -0
 116              		.cfi_startproc
 117              		@ args = 0, pretend = 0, frame = 0
 118              		@ frame_needed = 0, uses_anonymous_args = 0
 119 0000 08B5     		push	{r3, lr}
 120              		.cfi_def_cfa_offset 8
 121              		.cfi_offset 3, -8
 122              		.cfi_offset 14, -4
  48:Core/Src/ecatapp.c ****     init_override();
 123              		.loc 1 48 5 view .LVU21
 124 0002 0348     		ldr	r0, .L10
 125 0004 FFF7FEFF 		bl	ecat_slv_init
 126              	.LVL5:
  49:Core/Src/ecatapp.c **** }
 127              		.loc 1 49 5 view .LVU22
 128 0008 FFF7FEFF 		bl	init_override
 129              	.LVL6:
  50:Core/Src/ecatapp.c **** 
 130              		.loc 1 50 1 is_stmt 0 view .LVU23
 131 000c 08BD     		pop	{r3, pc}
 132              	.L11:
ARM GAS  /tmp/ccYiZfXm.s 			page 5


 133 000e 00BF     		.align	2
 134              	.L10:
 135 0010 00000000 		.word	.LANCHOR1
 136              		.cfi_endproc
 137              	.LFE130:
 139              		.section	.text.cb_get_inputs,"ax",%progbits
 140              		.align	1
 141              		.global	cb_get_inputs
 142              		.syntax unified
 143              		.thumb
 144              		.thumb_func
 146              	cb_get_inputs:
 147              	.LFB133:
  80:Core/Src/ecatapp.c **** 
  81:Core/Src/ecatapp.c **** void cb_get_inputs()
  82:Core/Src/ecatapp.c **** {
 148              		.loc 1 82 1 is_stmt 1 view -0
 149              		.cfi_startproc
 150              		@ args = 0, pretend = 0, frame = 0
 151              		@ frame_needed = 0, uses_anonymous_args = 0
 152              		@ link register save eliminated.
  83:Core/Src/ecatapp.c ****     led_1 = Obj.led_rx.led1_rx;
 153              		.loc 1 83 5 view .LVU25
 154              		.loc 1 83 23 is_stmt 0 view .LVU26
 155 0000 034B     		ldr	r3, .L13
 156 0002 D979     		ldrb	r1, [r3, #7]	@ zero_extendqisi2
 157              		.loc 1 83 11 view .LVU27
 158 0004 034A     		ldr	r2, .L13+4
 159 0006 1170     		strb	r1, [r2]
  84:Core/Src/ecatapp.c ****     led_2 = Obj.led_rx.led2_rx;
 160              		.loc 1 84 5 is_stmt 1 view .LVU28
 161              		.loc 1 84 23 is_stmt 0 view .LVU29
 162 0008 9A79     		ldrb	r2, [r3, #6]	@ zero_extendqisi2
 163              		.loc 1 84 11 view .LVU30
 164 000a 034B     		ldr	r3, .L13+8
 165 000c 1A70     		strb	r2, [r3]
  85:Core/Src/ecatapp.c ****     /* SOES reqires this function but nothing to do here in CiA402 app */
  86:Core/Src/ecatapp.c **** }
 166              		.loc 1 86 1 view .LVU31
 167 000e 7047     		bx	lr
 168              	.L14:
 169              		.align	2
 170              	.L13:
 171 0010 00000000 		.word	.LANCHOR0
 172 0014 00000000 		.word	led_1
 173 0018 00000000 		.word	led_2
 174              		.cfi_endproc
 175              	.LFE133:
 177              		.section	.text.cb_set_outputs,"ax",%progbits
 178              		.align	1
 179              		.global	cb_set_outputs
 180              		.syntax unified
 181              		.thumb
 182              		.thumb_func
 184              	cb_set_outputs:
 185              	.LFB134:
  87:Core/Src/ecatapp.c **** 
ARM GAS  /tmp/ccYiZfXm.s 			page 6


  88:Core/Src/ecatapp.c **** void cb_set_outputs()
  89:Core/Src/ecatapp.c **** {
 186              		.loc 1 89 1 is_stmt 1 view -0
 187              		.cfi_startproc
 188              		@ args = 0, pretend = 0, frame = 0
 189              		@ frame_needed = 0, uses_anonymous_args = 0
 190              		@ link register save eliminated.
  90:Core/Src/ecatapp.c ****     /* SOES reqires this function but nothing to do here in CiA402 app */
  91:Core/Src/ecatapp.c **** }
 191              		.loc 1 91 1 view .LVU33
 192 0000 7047     		bx	lr
 193              		.cfi_endproc
 194              	.LFE134:
 196              		.section	.text.ecatapp_loop,"ax",%progbits
 197              		.align	1
 198              		.global	ecatapp_loop
 199              		.syntax unified
 200              		.thumb
 201              		.thumb_func
 203              	ecatapp_loop:
 204              	.LFB135:
  92:Core/Src/ecatapp.c **** 
  93:Core/Src/ecatapp.c **** void ecatapp_loop(void)
  94:Core/Src/ecatapp.c **** {
 205              		.loc 1 94 1 view -0
 206              		.cfi_startproc
 207              		@ args = 0, pretend = 0, frame = 0
 208              		@ frame_needed = 0, uses_anonymous_args = 0
 209 0000 10B5     		push	{r4, lr}
 210              		.cfi_def_cfa_offset 8
 211              		.cfi_offset 4, -8
 212              		.cfi_offset 14, -4
  95:Core/Src/ecatapp.c ****     // stack in mixed mode
  96:Core/Src/ecatapp.c ****     if (sync0_irq_flag)
 213              		.loc 1 96 5 view .LVU35
 214              		.loc 1 96 9 is_stmt 0 view .LVU36
 215 0002 184B     		ldr	r3, .L24
 216 0004 1B78     		ldrb	r3, [r3]	@ zero_extendqisi2
 217              		.loc 1 96 8 view .LVU37
 218 0006 9BB9     		cbnz	r3, .L23
 219              	.L17:
  97:Core/Src/ecatapp.c ****     {
  98:Core/Src/ecatapp.c ****         led_flag = 1;
  99:Core/Src/ecatapp.c ****         ESC_updateALevent();
 100:Core/Src/ecatapp.c ****         DIG_process(DIG_PROCESS_APP_HOOK_FLAG | DIG_PROCESS_INPUTS_FLAG);
 101:Core/Src/ecatapp.c ****         sync0_irq_flag = 0;
 102:Core/Src/ecatapp.c ****     }
 103:Core/Src/ecatapp.c ****     if (pdi_irq_flag)
 220              		.loc 1 103 5 is_stmt 1 view .LVU38
 221              		.loc 1 103 9 is_stmt 0 view .LVU39
 222 0008 174B     		ldr	r3, .L24+4
 223 000a 1B78     		ldrb	r3, [r3]	@ zero_extendqisi2
 224              		.loc 1 103 8 view .LVU40
 225 000c 23B3     		cbz	r3, .L18
 104:Core/Src/ecatapp.c ****     {
 105:Core/Src/ecatapp.c ****         ESC_updateALevent();
 226              		.loc 1 105 9 is_stmt 1 view .LVU41
ARM GAS  /tmp/ccYiZfXm.s 			page 7


 227 000e 174C     		ldr	r4, .L24+8
 228 0010 0422     		movs	r2, #4
 229 0012 2146     		mov	r1, r4
 230 0014 4FF41160 		mov	r0, #2320
 231 0018 FFF7FEFF 		bl	ESC_read
 232              	.LVL7:
 233              		.loc 1 105 28 view .LVU42
 106:Core/Src/ecatapp.c ****         if (ESCvar.dcsync)
 234              		.loc 1 106 9 view .LVU43
 235              		.loc 1 106 19 is_stmt 0 view .LVU44
 236 001c 14F8643C 		ldrb	r3, [r4, #-100]	@ zero_extendqisi2
 237              		.loc 1 106 12 view .LVU45
 238 0020 B3B1     		cbz	r3, .L19
 107:Core/Src/ecatapp.c ****         {
 108:Core/Src/ecatapp.c ****             DIG_process(DIG_PROCESS_OUTPUTS_FLAG);
 239              		.loc 1 108 13 is_stmt 1 view .LVU46
 240 0022 0220     		movs	r0, #2
 241 0024 FFF7FEFF 		bl	DIG_process
 242              	.LVL8:
 243              	.L20:
 109:Core/Src/ecatapp.c ****         }
 110:Core/Src/ecatapp.c ****         else
 111:Core/Src/ecatapp.c ****         {
 112:Core/Src/ecatapp.c ****             DIG_process(DIG_PROCESS_OUTPUTS_FLAG | DIG_PROCESS_APP_HOOK_FLAG | DIG_PROCESS_INPUTS_F
 113:Core/Src/ecatapp.c ****         }
 114:Core/Src/ecatapp.c ****         pdi_irq_flag = 0;
 244              		.loc 1 114 9 view .LVU47
 245              		.loc 1 114 22 is_stmt 0 view .LVU48
 246 0028 0F4B     		ldr	r3, .L24+4
 247 002a 0022     		movs	r2, #0
 248 002c 1A70     		strb	r2, [r3]
 249              	.L16:
 115:Core/Src/ecatapp.c ****     }
 116:Core/Src/ecatapp.c ****     else
 117:Core/Src/ecatapp.c ****     {
 118:Core/Src/ecatapp.c ****         // ecat_slv_worker(ESCREG_ALEVENT_CONTROL | ESCREG_ALEVENT_SMCHANGE
 119:Core/Src/ecatapp.c ****         //                 | ESCREG_ALEVENT_SM0 | ESCREG_ALEVENT_SM1);
 120:Core/Src/ecatapp.c ****         ecat_slv_poll(); // TODO
 121:Core/Src/ecatapp.c ****         DIG_process(DIG_PROCESS_WD_FLAG);
 122:Core/Src/ecatapp.c ****     }
 123:Core/Src/ecatapp.c **** }
 250              		.loc 1 123 1 view .LVU49
 251 002e 10BD     		pop	{r4, pc}
 252              	.L23:
  98:Core/Src/ecatapp.c ****         ESC_updateALevent();
 253              		.loc 1 98 9 is_stmt 1 view .LVU50
  98:Core/Src/ecatapp.c ****         ESC_updateALevent();
 254              		.loc 1 98 18 is_stmt 0 view .LVU51
 255 0030 0F4B     		ldr	r3, .L24+12
 256 0032 0122     		movs	r2, #1
 257 0034 1A60     		str	r2, [r3]
  99:Core/Src/ecatapp.c ****         DIG_process(DIG_PROCESS_APP_HOOK_FLAG | DIG_PROCESS_INPUTS_FLAG);
 258              		.loc 1 99 9 is_stmt 1 view .LVU52
 259 0036 0422     		movs	r2, #4
 260 0038 0C49     		ldr	r1, .L24+8
 261 003a 4FF41160 		mov	r0, #2320
 262 003e FFF7FEFF 		bl	ESC_read
ARM GAS  /tmp/ccYiZfXm.s 			page 8


 263              	.LVL9:
  99:Core/Src/ecatapp.c ****         DIG_process(DIG_PROCESS_APP_HOOK_FLAG | DIG_PROCESS_INPUTS_FLAG);
 264              		.loc 1 99 28 view .LVU53
 100:Core/Src/ecatapp.c ****         sync0_irq_flag = 0;
 265              		.loc 1 100 9 view .LVU54
 266 0042 0920     		movs	r0, #9
 267 0044 FFF7FEFF 		bl	DIG_process
 268              	.LVL10:
 101:Core/Src/ecatapp.c ****     }
 269              		.loc 1 101 9 view .LVU55
 101:Core/Src/ecatapp.c ****     }
 270              		.loc 1 101 24 is_stmt 0 view .LVU56
 271 0048 064B     		ldr	r3, .L24
 272 004a 0022     		movs	r2, #0
 273 004c 1A70     		strb	r2, [r3]
 274 004e DBE7     		b	.L17
 275              	.L19:
 112:Core/Src/ecatapp.c ****         }
 276              		.loc 1 112 13 is_stmt 1 view .LVU57
 277 0050 0B20     		movs	r0, #11
 278 0052 FFF7FEFF 		bl	DIG_process
 279              	.LVL11:
 280 0056 E7E7     		b	.L20
 281              	.L18:
 120:Core/Src/ecatapp.c ****         DIG_process(DIG_PROCESS_WD_FLAG);
 282              		.loc 1 120 9 view .LVU58
 283 0058 FFF7FEFF 		bl	ecat_slv_poll
 284              	.LVL12:
 121:Core/Src/ecatapp.c ****     }
 285              		.loc 1 121 9 view .LVU59
 286 005c 0420     		movs	r0, #4
 287 005e FFF7FEFF 		bl	DIG_process
 288              	.LVL13:
 289              		.loc 1 123 1 is_stmt 0 view .LVU60
 290 0062 E4E7     		b	.L16
 291              	.L25:
 292              		.align	2
 293              	.L24:
 294 0064 00000000 		.word	.LANCHOR2
 295 0068 00000000 		.word	.LANCHOR3
 296 006c E0000000 		.word	ESCvar+224
 297 0070 00000000 		.word	led_flag
 298              		.cfi_endproc
 299              	.LFE135:
 301              		.section	.rodata.str1.4,"aMS",%progbits,1
 302              		.align	2
 303              	.LC0:
 304 0000 61783538 		.ascii	"ax58100\000"
 304      31303000 
 305              		.global	pdi_irq_flag
 306              		.global	sync0_irq_flag
 307              		.global	Obj
 308              		.section	.bss.Obj,"aw",%nobits
 309              		.align	2
 310              		.set	.LANCHOR0,. + 0
 313              	Obj:
 314 0000 00000000 		.space	68
ARM GAS  /tmp/ccYiZfXm.s 			page 9


 314      00000000 
 314      00000000 
 314      00000000 
 314      00000000 
 315              		.section	.bss.pdi_irq_flag,"aw",%nobits
 316              		.set	.LANCHOR3,. + 0
 319              	pdi_irq_flag:
 320 0000 00       		.space	1
 321              		.section	.bss.sync0_irq_flag,"aw",%nobits
 322              		.set	.LANCHOR2,. + 0
 325              	sync0_irq_flag:
 326 0000 00       		.space	1
 327              		.section	.data.config,"aw"
 328              		.align	2
 329              		.set	.LANCHOR1,. + 0
 332              	config:
 333 0000 00000000 		.word	.LC0
 334 0004 01000000 		.word	1
 335 0008 FFFFFF7F 		.word	2147483647
 336 000c 00000000 		.space	4
 337 0010 00000000 		.word	0
 338 0014 00000000 		.word	0
 339 0018 00000000 		.word	0
 340 001c 00000000 		.word	ecatapp
 341 0020 00000000 		.word	0
 342 0024 00000000 		.word	0
 343 0028 00000000 		.word	0
 344 002c 00000000 		.space	8
 344      00000000 
 345 0034 00000000 		.word	rxpdo_override
 346 0038 00000000 		.word	txpdo_override
 347 003c 00000000 		.word	ESC_interrupt_enable
 348 0040 00000000 		.word	ESC_interrupt_disable
 349 0044 00000000 		.word	0
 350 0048 00000000 		.word	check_dc_handler
 351 004c 00000000 		.space	4
 352              		.text
 353              	.Letext0:
 354              		.file 2 "/usr/share/gcc-arm-none-eabi-10.3-2021.10/arm-none-eabi/include/machine/_default_types.h"
 355              		.file 3 "/usr/share/gcc-arm-none-eabi-10.3-2021.10/arm-none-eabi/include/sys/_stdint.h"
 356              		.file 4 "/usr/share/gcc-arm-none-eabi-10.3-2021.10/lib/gcc/arm-none-eabi/10.3.1/include/stddef.h"
 357              		.file 5 "Lib/soes/include/esc.h"
 358              		.file 6 "Lib/soes-esi/utypes.h"
 359              		.file 7 "Lib/soes/include/ecat_slv.h"
 360              		.file 8 "Lib/soes_hal_bsp/include/esc_irq.h"
 361              		.file 9 "Core/Inc/pdo_override.h"
ARM GAS  /tmp/ccYiZfXm.s 			page 10


DEFINED SYMBOLS
                            *ABS*:0000000000000000 ecatapp.c
     /tmp/ccYiZfXm.s:20     .text.ecatapp:0000000000000000 $t
     /tmp/ccYiZfXm.s:26     .text.ecatapp:0000000000000000 ecatapp
     /tmp/ccYiZfXm.s:40     .text.check_dc_handler:0000000000000000 $t
     /tmp/ccYiZfXm.s:46     .text.check_dc_handler:0000000000000000 check_dc_handler
     /tmp/ccYiZfXm.s:99     .text.check_dc_handler:0000000000000030 $d
     /tmp/ccYiZfXm.s:107    .text.ecatapp_init:0000000000000000 $t
     /tmp/ccYiZfXm.s:113    .text.ecatapp_init:0000000000000000 ecatapp_init
     /tmp/ccYiZfXm.s:135    .text.ecatapp_init:0000000000000010 $d
     /tmp/ccYiZfXm.s:140    .text.cb_get_inputs:0000000000000000 $t
     /tmp/ccYiZfXm.s:146    .text.cb_get_inputs:0000000000000000 cb_get_inputs
     /tmp/ccYiZfXm.s:171    .text.cb_get_inputs:0000000000000010 $d
     /tmp/ccYiZfXm.s:178    .text.cb_set_outputs:0000000000000000 $t
     /tmp/ccYiZfXm.s:184    .text.cb_set_outputs:0000000000000000 cb_set_outputs
     /tmp/ccYiZfXm.s:197    .text.ecatapp_loop:0000000000000000 $t
     /tmp/ccYiZfXm.s:203    .text.ecatapp_loop:0000000000000000 ecatapp_loop
     /tmp/ccYiZfXm.s:294    .text.ecatapp_loop:0000000000000064 $d
     /tmp/ccYiZfXm.s:302    .rodata.str1.4:0000000000000000 $d
     /tmp/ccYiZfXm.s:319    .bss.pdi_irq_flag:0000000000000000 pdi_irq_flag
     /tmp/ccYiZfXm.s:325    .bss.sync0_irq_flag:0000000000000000 sync0_irq_flag
     /tmp/ccYiZfXm.s:313    .bss.Obj:0000000000000000 Obj
     /tmp/ccYiZfXm.s:309    .bss.Obj:0000000000000000 $d
     /tmp/ccYiZfXm.s:320    .bss.pdi_irq_flag:0000000000000000 $d
     /tmp/ccYiZfXm.s:326    .bss.sync0_irq_flag:0000000000000000 $d
     /tmp/ccYiZfXm.s:328    .data.config:0000000000000000 $d
     /tmp/ccYiZfXm.s:332    .data.config:0000000000000000 config

UNDEFINED SYMBOLS
ESC_enable_DC
APP_setwatchdog
ESCvar
ecat_slv_init
init_override
led_1
led_2
ESC_read
DIG_process
ecat_slv_poll
led_flag
rxpdo_override
txpdo_override
ESC_interrupt_enable
ESC_interrupt_disable
