ARM GAS  /tmp/ccg8Mt5x.s 			page 1


   1              		.cpu cortex-m4
   2              		.arch armv7e-m
   3              		.fpu fpv4-sp-d16
   4              		.eabi_attribute 27, 1
   5              		.eabi_attribute 28, 1
   6              		.eabi_attribute 20, 1
   7              		.eabi_attribute 21, 1
   8              		.eabi_attribute 23, 3
   9              		.eabi_attribute 24, 1
  10              		.eabi_attribute 25, 1
  11              		.eabi_attribute 26, 1
  12              		.eabi_attribute 30, 1
  13              		.eabi_attribute 34, 1
  14              		.eabi_attribute 18, 4
  15              		.file	"esc_irq.c"
  16              		.text
  17              	.Ltext0:
  18              		.cfi_sections	.debug_frame
  19              		.section	.text.EXTILine1_Config,"ax",%progbits
  20              		.align	1
  21              		.global	EXTILine1_Config
  22              		.syntax unified
  23              		.thumb
  24              		.thumb_func
  26              	EXTILine1_Config:
  27              	.LFB130:
  28              		.file 1 "Lib/soes_hal_bsp/src/esc_irq.c"
   1:Lib/soes_hal_bsp/src/esc_irq.c **** #include "esc_irq.h"
   2:Lib/soes_hal_bsp/src/esc_irq.c **** #include <stdint.h>
   3:Lib/soes_hal_bsp/src/esc_irq.c **** #include "main.h"
   4:Lib/soes_hal_bsp/src/esc_irq.c **** void EXTILine1_Config(void)
   5:Lib/soes_hal_bsp/src/esc_irq.c **** {
  29              		.loc 1 5 1 view -0
  30              		.cfi_startproc
  31              		@ args = 0, pretend = 0, frame = 0
  32              		@ frame_needed = 0, uses_anonymous_args = 0
  33 0000 08B5     		push	{r3, lr}
  34              		.cfi_def_cfa_offset 8
  35              		.cfi_offset 3, -8
  36              		.cfi_offset 14, -4
   6:Lib/soes_hal_bsp/src/esc_irq.c ****     HAL_NVIC_EnableIRQ(EXTI0_IRQn);
  37              		.loc 1 6 5 view .LVU1
  38 0002 0620     		movs	r0, #6
  39 0004 FFF7FEFF 		bl	HAL_NVIC_EnableIRQ
  40              	.LVL0:
   7:Lib/soes_hal_bsp/src/esc_irq.c **** }
  41              		.loc 1 7 1 is_stmt 0 view .LVU2
  42 0008 08BD     		pop	{r3, pc}
  43              		.cfi_endproc
  44              	.LFE130:
  46              		.section	.text.EXTILine1_Disable,"ax",%progbits
  47              		.align	1
  48              		.global	EXTILine1_Disable
  49              		.syntax unified
  50              		.thumb
  51              		.thumb_func
  53              	EXTILine1_Disable:
ARM GAS  /tmp/ccg8Mt5x.s 			page 2


  54              	.LFB131:
   8:Lib/soes_hal_bsp/src/esc_irq.c **** 
   9:Lib/soes_hal_bsp/src/esc_irq.c **** void EXTILine1_Disable(void)
  10:Lib/soes_hal_bsp/src/esc_irq.c **** {
  55              		.loc 1 10 1 is_stmt 1 view -0
  56              		.cfi_startproc
  57              		@ args = 0, pretend = 0, frame = 0
  58              		@ frame_needed = 0, uses_anonymous_args = 0
  59 0000 08B5     		push	{r3, lr}
  60              		.cfi_def_cfa_offset 8
  61              		.cfi_offset 3, -8
  62              		.cfi_offset 14, -4
  11:Lib/soes_hal_bsp/src/esc_irq.c ****     HAL_NVIC_DisableIRQ(EXTI0_IRQn);
  63              		.loc 1 11 5 view .LVU4
  64 0002 0620     		movs	r0, #6
  65 0004 FFF7FEFF 		bl	HAL_NVIC_DisableIRQ
  66              	.LVL1:
  12:Lib/soes_hal_bsp/src/esc_irq.c **** }
  67              		.loc 1 12 1 is_stmt 0 view .LVU5
  68 0008 08BD     		pop	{r3, pc}
  69              		.cfi_endproc
  70              	.LFE131:
  72              		.section	.text.EXTILine3_Config,"ax",%progbits
  73              		.align	1
  74              		.global	EXTILine3_Config
  75              		.syntax unified
  76              		.thumb
  77              		.thumb_func
  79              	EXTILine3_Config:
  80              	.LFB132:
  13:Lib/soes_hal_bsp/src/esc_irq.c **** 
  14:Lib/soes_hal_bsp/src/esc_irq.c **** void EXTILine3_Config(void)
  15:Lib/soes_hal_bsp/src/esc_irq.c **** {
  81              		.loc 1 15 1 is_stmt 1 view -0
  82              		.cfi_startproc
  83              		@ args = 0, pretend = 0, frame = 0
  84              		@ frame_needed = 0, uses_anonymous_args = 0
  85 0000 08B5     		push	{r3, lr}
  86              		.cfi_def_cfa_offset 8
  87              		.cfi_offset 3, -8
  88              		.cfi_offset 14, -4
  16:Lib/soes_hal_bsp/src/esc_irq.c ****     HAL_NVIC_EnableIRQ(EXTI9_5_IRQn);
  89              		.loc 1 16 5 view .LVU7
  90 0002 1720     		movs	r0, #23
  91 0004 FFF7FEFF 		bl	HAL_NVIC_EnableIRQ
  92              	.LVL2:
  17:Lib/soes_hal_bsp/src/esc_irq.c **** }
  93              		.loc 1 17 1 is_stmt 0 view .LVU8
  94 0008 08BD     		pop	{r3, pc}
  95              		.cfi_endproc
  96              	.LFE132:
  98              		.section	.text.EXTILine3_Disable,"ax",%progbits
  99              		.align	1
 100              		.global	EXTILine3_Disable
 101              		.syntax unified
 102              		.thumb
 103              		.thumb_func
ARM GAS  /tmp/ccg8Mt5x.s 			page 3


 105              	EXTILine3_Disable:
 106              	.LFB133:
  18:Lib/soes_hal_bsp/src/esc_irq.c **** 
  19:Lib/soes_hal_bsp/src/esc_irq.c **** void EXTILine3_Disable(void)
  20:Lib/soes_hal_bsp/src/esc_irq.c **** {
 107              		.loc 1 20 1 is_stmt 1 view -0
 108              		.cfi_startproc
 109              		@ args = 0, pretend = 0, frame = 0
 110              		@ frame_needed = 0, uses_anonymous_args = 0
 111 0000 08B5     		push	{r3, lr}
 112              		.cfi_def_cfa_offset 8
 113              		.cfi_offset 3, -8
 114              		.cfi_offset 14, -4
  21:Lib/soes_hal_bsp/src/esc_irq.c ****     HAL_NVIC_DisableIRQ(EXTI9_5_IRQn);
 115              		.loc 1 21 5 view .LVU10
 116 0002 1720     		movs	r0, #23
 117 0004 FFF7FEFF 		bl	HAL_NVIC_DisableIRQ
 118              	.LVL3:
  22:Lib/soes_hal_bsp/src/esc_irq.c **** }
 119              		.loc 1 22 1 is_stmt 0 view .LVU11
 120 0008 08BD     		pop	{r3, pc}
 121              		.cfi_endproc
 122              	.LFE133:
 124              		.text
 125              	.Letext0:
 126              		.file 2 "Drivers/STM32F4xx_HAL_Driver/Inc/stm32f4xx_hal_cortex.h"
 127              		.file 3 "Drivers/CMSIS/Device/ST/STM32F4xx/Include/stm32f405xx.h"
ARM GAS  /tmp/ccg8Mt5x.s 			page 4

