ARM GAS  /tmp/cc6N31Jy.s 			page 1


   1              		.cpu cortex-m4
   2              		.arch armv7e-m
   3              		.fpu fpv4-sp-d16
   4              		.eabi_attribute 27, 1
   5              		.eabi_attribute 28, 1
   6              		.eabi_attribute 20, 1
   7              		.eabi_attribute 21, 1
   8              		.eabi_attribute 23, 3
   9              		.eabi_attribute 24, 1
  10              		.eabi_attribute 25, 1
  11              		.eabi_attribute 26, 1
  12              		.eabi_attribute 30, 1
  13              		.eabi_attribute 34, 1
  14              		.eabi_attribute 18, 4
  15              		.file	"pdo_override.c"
  16              		.text
  17              	.Ltext0:
  18              		.cfi_sections	.debug_frame
  19              		.section	.text.spi_dma_prepare_transmission,"ax",%progbits
  20              		.align	1
  21              		.global	spi_dma_prepare_transmission
  22              		.syntax unified
  23              		.thumb
  24              		.thumb_func
  26              	spi_dma_prepare_transmission:
  27              	.LVL0:
  28              	.LFB130:
  29              		.file 1 "Core/Src/pdo_override.c"
   1:Core/Src/pdo_override.c **** #include <string.h>
   2:Core/Src/pdo_override.c **** #include "stm32f4xx.h"
   3:Core/Src/pdo_override.c **** #include "spi.h"
   4:Core/Src/pdo_override.c **** 
   5:Core/Src/pdo_override.c **** #include "esc.h"
   6:Core/Src/pdo_override.c **** #include "ecat_slv.h"
   7:Core/Src/pdo_override.c **** #include "utypes.h"
   8:Core/Src/pdo_override.c **** 
   9:Core/Src/pdo_override.c **** #include "pdo_override.h"
  10:Core/Src/pdo_override.c **** #include "main.h"
  11:Core/Src/pdo_override.c **** 
  12:Core/Src/pdo_override.c **** extern SPI_HandleTypeDef hspi2;
  13:Core/Src/pdo_override.c **** 
  14:Core/Src/pdo_override.c **** static int et1100 = 1;
  15:Core/Src/pdo_override.c **** 
  16:Core/Src/pdo_override.c **** volatile DMA_PDI_transmission_state_t pdi_dma_transmission = NOT_STARTED;
  17:Core/Src/pdo_override.c **** 
  18:Core/Src/pdo_override.c **** /* SPI DMA RX buffer */
  19:Core/Src/pdo_override.c **** uint8_t pdo_rxbuf[PDO_TR_SIZE + RX_PADDING_SIZE] __attribute__((aligned (8)));
  20:Core/Src/pdo_override.c **** uint8_t * pdo_spi_rxbuf = pdo_rxbuf + RX_PADDING_SIZE;
  21:Core/Src/pdo_override.c **** uint8_t * pdo_coe_rxbuf = pdo_rxbuf + RX_PADDING_SIZE + ADDR_SIZE + WAIT_SIZE;
  22:Core/Src/pdo_override.c **** 
  23:Core/Src/pdo_override.c **** /* SPI DMA TX buffer  */
  24:Core/Src/pdo_override.c **** uint8_t pdo_txbuf[PDO_TR_SIZE + TX_PADDING_SIZE] __attribute__((aligned (8))) = { 0 };
  25:Core/Src/pdo_override.c **** uint8_t * pdo_spi_txbuf = pdo_txbuf + TX_PADDING_SIZE;
  26:Core/Src/pdo_override.c **** uint8_t * pdo_coe_txbuf = pdo_txbuf + TX_PADDING_SIZE + ADDR_SIZE;
  27:Core/Src/pdo_override.c **** 
  28:Core/Src/pdo_override.c **** 
  29:Core/Src/pdo_override.c **** void spi_dma_prepare_transmission(uint16_t address, uint8_t * tx_buffer, uint8_t cmd)
ARM GAS  /tmp/cc6N31Jy.s 			page 2


  30:Core/Src/pdo_override.c **** {
  30              		.loc 1 30 1 view -0
  31              		.cfi_startproc
  32              		@ args = 0, pretend = 0, frame = 0
  33              		@ frame_needed = 0, uses_anonymous_args = 0
  34              		@ link register save eliminated.
  31:Core/Src/pdo_override.c ****     // set address and command
  32:Core/Src/pdo_override.c ****     tx_buffer[0] = address >> 5;
  35              		.loc 1 32 5 view .LVU1
  36              		.loc 1 32 18 is_stmt 0 view .LVU2
  37 0000 4309     		lsrs	r3, r0, #5
  38 0002 0B70     		strb	r3, [r1]
  33:Core/Src/pdo_override.c ****     tx_buffer[1] = ((address & 0x1F) << 3) | cmd;
  39              		.loc 1 33 5 is_stmt 1 view .LVU3
  40              		.loc 1 33 44 is_stmt 0 view .LVU4
  41 0004 42EAC000 		orr	r0, r2, r0, lsl #3
  42              	.LVL1:
  43              		.loc 1 33 18 view .LVU5
  44 0008 4870     		strb	r0, [r1, #1]
  34:Core/Src/pdo_override.c **** 
  35:Core/Src/pdo_override.c ****     if (cmd == ESC_CMD_READ_WAIT_STATE) {
  45              		.loc 1 35 5 is_stmt 1 view .LVU6
  46              		.loc 1 35 8 is_stmt 0 view .LVU7
  47 000a 032A     		cmp	r2, #3
  48 000c 02D0     		beq	.L4
  36:Core/Src/pdo_override.c ****         // set wait state byte
  37:Core/Src/pdo_override.c ****         tx_buffer[ADDR_SIZE] = READ_END_BYTE; 
  38:Core/Src/pdo_override.c ****         // set read termination
  39:Core/Src/pdo_override.c ****         tx_buffer[PDO_TR_SIZE - 1] = READ_END_BYTE;
  40:Core/Src/pdo_override.c ****     } else if (cmd == ESC_CMD_READ) {
  49              		.loc 1 40 12 is_stmt 1 view .LVU8
  50              		.loc 1 40 15 is_stmt 0 view .LVU9
  51 000e 022A     		cmp	r2, #2
  52 0010 04D0     		beq	.L5
  53              	.L1:
  41:Core/Src/pdo_override.c ****         // set read termination
  42:Core/Src/pdo_override.c ****         tx_buffer[PDO_TR_SIZE - 1] = READ_END_BYTE;
  43:Core/Src/pdo_override.c ****     }
  44:Core/Src/pdo_override.c **** }
  54              		.loc 1 44 1 view .LVU10
  55 0012 7047     		bx	lr
  56              	.L4:
  37:Core/Src/pdo_override.c ****         // set read termination
  57              		.loc 1 37 9 is_stmt 1 view .LVU11
  37:Core/Src/pdo_override.c ****         // set read termination
  58              		.loc 1 37 30 is_stmt 0 view .LVU12
  59 0014 FF23     		movs	r3, #255
  60 0016 8B70     		strb	r3, [r1, #2]
  39:Core/Src/pdo_override.c ****     } else if (cmd == ESC_CMD_READ) {
  61              		.loc 1 39 9 is_stmt 1 view .LVU13
  39:Core/Src/pdo_override.c ****     } else if (cmd == ESC_CMD_READ) {
  62              		.loc 1 39 36 is_stmt 0 view .LVU14
  63 0018 CB70     		strb	r3, [r1, #3]
  64 001a 7047     		bx	lr
  65              	.L5:
  42:Core/Src/pdo_override.c ****     }
  66              		.loc 1 42 9 is_stmt 1 view .LVU15
ARM GAS  /tmp/cc6N31Jy.s 			page 3


  42:Core/Src/pdo_override.c ****     }
  67              		.loc 1 42 36 is_stmt 0 view .LVU16
  68 001c FF23     		movs	r3, #255
  69 001e CB70     		strb	r3, [r1, #3]
  70              		.loc 1 44 1 view .LVU17
  71 0020 F7E7     		b	.L1
  72              		.cfi_endproc
  73              	.LFE130:
  75              		.section	.text.spi_dma_setup,"ax",%progbits
  76              		.align	1
  77              		.global	spi_dma_setup
  78              		.syntax unified
  79              		.thumb
  80              		.thumb_func
  82              	spi_dma_setup:
  83              	.LFB131:
  45:Core/Src/pdo_override.c **** 
  46:Core/Src/pdo_override.c **** 
  47:Core/Src/pdo_override.c **** //void DMA2_Stream2_IRQHandler(void)
  48:Core/Src/pdo_override.c **** //{
  49:Core/Src/pdo_override.c **** //    /* Test on DMA Stream Transfer Complete interrupt */
  50:Core/Src/pdo_override.c **** //    if(DMA_GetITStatus(DMA2_Stream2, DMA_IT_TCIF2))
  51:Core/Src/pdo_override.c **** //    {
  52:Core/Src/pdo_override.c **** //        /* Clear DMA Stream Transfer Complete interrupt pending bit */
  53:Core/Src/pdo_override.c **** //        DMA_ClearITPendingBit(DMA2_Stream2, DMA_IT_TCIF2);
  54:Core/Src/pdo_override.c **** //        pdi_dma_transmission = NOT_STARTED;
  55:Core/Src/pdo_override.c **** //    }
  56:Core/Src/pdo_override.c **** //}
  57:Core/Src/pdo_override.c **** 
  58:Core/Src/pdo_override.c **** 
  59:Core/Src/pdo_override.c **** void spi_dma_setup(void)
  60:Core/Src/pdo_override.c **** {
  84              		.loc 1 60 1 is_stmt 1 view -0
  85              		.cfi_startproc
  86              		@ args = 0, pretend = 0, frame = 0
  87              		@ frame_needed = 0, uses_anonymous_args = 0
  88              		@ link register save eliminated.
  61:Core/Src/pdo_override.c ****     //hal
  62:Core/Src/pdo_override.c **** }
  89              		.loc 1 62 1 view .LVU19
  90 0000 7047     		bx	lr
  91              		.cfi_endproc
  92              	.LFE131:
  94              		.section	.text.spi_dma_start,"ax",%progbits
  95              		.align	1
  96              		.global	spi_dma_start
  97              		.syntax unified
  98              		.thumb
  99              		.thumb_func
 101              	spi_dma_start:
 102              	.LFB132:
  63:Core/Src/pdo_override.c **** 
  64:Core/Src/pdo_override.c **** 
  65:Core/Src/pdo_override.c **** void spi_dma_start(void)
  66:Core/Src/pdo_override.c **** {
 103              		.loc 1 66 1 view -0
 104              		.cfi_startproc
ARM GAS  /tmp/cc6N31Jy.s 			page 4


 105              		@ args = 0, pretend = 0, frame = 0
 106              		@ frame_needed = 0, uses_anonymous_args = 0
 107 0000 08B5     		push	{r3, lr}
 108              		.cfi_def_cfa_offset 8
 109              		.cfi_offset 3, -8
 110              		.cfi_offset 14, -4
  67:Core/Src/pdo_override.c ****     HAL_SPI_DMAResume(&hspi2);
 111              		.loc 1 67 5 view .LVU21
 112 0002 0548     		ldr	r0, .L9
 113 0004 FFF7FEFF 		bl	HAL_SPI_DMAResume
 114              	.LVL2:
  68:Core/Src/pdo_override.c **** 
  69:Core/Src/pdo_override.c ****     spi_select (et1100);
 115              		.loc 1 69 5 view .LVU22
 116 0008 0120     		movs	r0, #1
 117 000a FFF7FEFF 		bl	spi_select
 118              	.LVL3:
  70:Core/Src/pdo_override.c **** 
  71:Core/Src/pdo_override.c ****     pdi_dma_transmission = IN_PROGRESS;
 119              		.loc 1 71 5 view .LVU23
 120              		.loc 1 71 26 is_stmt 0 view .LVU24
 121 000e 034B     		ldr	r3, .L9+4
 122 0010 0122     		movs	r2, #1
 123 0012 1A70     		strb	r2, [r3]
  72:Core/Src/pdo_override.c **** }
 124              		.loc 1 72 1 view .LVU25
 125 0014 08BD     		pop	{r3, pc}
 126              	.L10:
 127 0016 00BF     		.align	2
 128              	.L9:
 129 0018 00000000 		.word	hspi2
 130 001c 00000000 		.word	.LANCHOR0
 131              		.cfi_endproc
 132              	.LFE132:
 134              		.section	.text.spi_dma_stop,"ax",%progbits
 135              		.align	1
 136              		.global	spi_dma_stop
 137              		.syntax unified
 138              		.thumb
 139              		.thumb_func
 141              	spi_dma_stop:
 142              	.LFB133:
  73:Core/Src/pdo_override.c **** 
  74:Core/Src/pdo_override.c **** 
  75:Core/Src/pdo_override.c **** void spi_dma_stop(void)
  76:Core/Src/pdo_override.c **** {
 143              		.loc 1 76 1 is_stmt 1 view -0
 144              		.cfi_startproc
 145              		@ args = 0, pretend = 0, frame = 0
 146              		@ frame_needed = 0, uses_anonymous_args = 0
 147 0000 08B5     		push	{r3, lr}
 148              		.cfi_def_cfa_offset 8
 149              		.cfi_offset 3, -8
 150              		.cfi_offset 14, -4
  77:Core/Src/pdo_override.c ****     spi_unselect (et1100);
 151              		.loc 1 77 5 view .LVU27
 152 0002 0120     		movs	r0, #1
ARM GAS  /tmp/cc6N31Jy.s 			page 5


 153 0004 FFF7FEFF 		bl	spi_unselect
 154              	.LVL4:
  78:Core/Src/pdo_override.c **** 
  79:Core/Src/pdo_override.c ****     HAL_SPI_DMAPause(&hspi2);
 155              		.loc 1 79 5 view .LVU28
 156 0008 0148     		ldr	r0, .L13
 157 000a FFF7FEFF 		bl	HAL_SPI_DMAPause
 158              	.LVL5:
  80:Core/Src/pdo_override.c **** }
 159              		.loc 1 80 1 is_stmt 0 view .LVU29
 160 000e 08BD     		pop	{r3, pc}
 161              	.L14:
 162              		.align	2
 163              	.L13:
 164 0010 00000000 		.word	hspi2
 165              		.cfi_endproc
 166              	.LFE133:
 168              		.section	.text.spi_dma_rxpdo_start,"ax",%progbits
 169              		.align	1
 170              		.global	spi_dma_rxpdo_start
 171              		.syntax unified
 172              		.thumb
 173              		.thumb_func
 175              	spi_dma_rxpdo_start:
 176              	.LFB134:
  81:Core/Src/pdo_override.c **** 
  82:Core/Src/pdo_override.c **** 
  83:Core/Src/pdo_override.c **** void spi_dma_rxpdo_start(void)
  84:Core/Src/pdo_override.c **** {
 177              		.loc 1 84 1 is_stmt 1 view -0
 178              		.cfi_startproc
 179              		@ args = 0, pretend = 0, frame = 0
 180              		@ frame_needed = 0, uses_anonymous_args = 0
 181 0000 08B5     		push	{r3, lr}
 182              		.cfi_def_cfa_offset 8
 183              		.cfi_offset 3, -8
 184              		.cfi_offset 14, -4
  85:Core/Src/pdo_override.c ****     memset(pdo_coe_txbuf, 0, PDO_SIZE);  /* make sure TX buffer is filled with 0s, no read end byte
 185              		.loc 1 85 5 view .LVU31
 186 0002 074B     		ldr	r3, .L17
 187 0004 1B68     		ldr	r3, [r3]
 188 0006 0022     		movs	r2, #0
 189 0008 1A70     		strb	r2, [r3]
  86:Core/Src/pdo_override.c ****     spi_dma_prepare_transmission(ESC_SM2_sma, pdo_spi_txbuf, ESC_CMD_READ_WAIT_STATE);
 190              		.loc 1 86 5 view .LVU32
 191 000a 0322     		movs	r2, #3
 192 000c 054B     		ldr	r3, .L17+4
 193 000e 1968     		ldr	r1, [r3]
 194 0010 4FF4B050 		mov	r0, #5632
 195 0014 FFF7FEFF 		bl	spi_dma_prepare_transmission
 196              	.LVL6:
  87:Core/Src/pdo_override.c **** 
  88:Core/Src/pdo_override.c ****     spi_dma_start();
 197              		.loc 1 88 5 view .LVU33
 198 0018 FFF7FEFF 		bl	spi_dma_start
 199              	.LVL7:
  89:Core/Src/pdo_override.c **** }
ARM GAS  /tmp/cc6N31Jy.s 			page 6


 200              		.loc 1 89 1 is_stmt 0 view .LVU34
 201 001c 08BD     		pop	{r3, pc}
 202              	.L18:
 203 001e 00BF     		.align	2
 204              	.L17:
 205 0020 00000000 		.word	.LANCHOR1
 206 0024 00000000 		.word	.LANCHOR2
 207              		.cfi_endproc
 208              	.LFE134:
 210              		.section	.text.spi_dma_txpdo_start,"ax",%progbits
 211              		.align	1
 212              		.global	spi_dma_txpdo_start
 213              		.syntax unified
 214              		.thumb
 215              		.thumb_func
 217              	spi_dma_txpdo_start:
 218              	.LFB135:
  90:Core/Src/pdo_override.c **** 
  91:Core/Src/pdo_override.c **** 
  92:Core/Src/pdo_override.c **** void spi_dma_txpdo_start()
  93:Core/Src/pdo_override.c **** {
 219              		.loc 1 93 1 is_stmt 1 view -0
 220              		.cfi_startproc
 221              		@ args = 0, pretend = 0, frame = 0
 222              		@ frame_needed = 0, uses_anonymous_args = 0
 223 0000 08B5     		push	{r3, lr}
 224              		.cfi_def_cfa_offset 8
 225              		.cfi_offset 3, -8
 226              		.cfi_offset 14, -4
  94:Core/Src/pdo_override.c ****     spi_dma_prepare_transmission(ESC_SM3_sma, pdo_spi_txbuf, ESC_CMD_WRITE);
 227              		.loc 1 94 5 view .LVU36
 228 0002 0422     		movs	r2, #4
 229 0004 044B     		ldr	r3, .L21
 230 0006 1968     		ldr	r1, [r3]
 231 0008 4FF4D050 		mov	r0, #6656
 232 000c FFF7FEFF 		bl	spi_dma_prepare_transmission
 233              	.LVL8:
  95:Core/Src/pdo_override.c **** 
  96:Core/Src/pdo_override.c ****     spi_dma_start();
 234              		.loc 1 96 5 view .LVU37
 235 0010 FFF7FEFF 		bl	spi_dma_start
 236              	.LVL9:
  97:Core/Src/pdo_override.c **** }
 237              		.loc 1 97 1 is_stmt 0 view .LVU38
 238 0014 08BD     		pop	{r3, pc}
 239              	.L22:
 240 0016 00BF     		.align	2
 241              	.L21:
 242 0018 00000000 		.word	.LANCHOR2
 243              		.cfi_endproc
 244              	.LFE135:
 246              		.section	.text.init_override,"ax",%progbits
 247              		.align	1
 248              		.global	init_override
 249              		.syntax unified
 250              		.thumb
 251              		.thumb_func
ARM GAS  /tmp/cc6N31Jy.s 			page 7


 253              	init_override:
 254              	.LFB136:
  98:Core/Src/pdo_override.c **** 
  99:Core/Src/pdo_override.c **** 
 100:Core/Src/pdo_override.c **** void init_override(void)
 101:Core/Src/pdo_override.c **** {
 255              		.loc 1 101 1 is_stmt 1 view -0
 256              		.cfi_startproc
 257              		@ args = 0, pretend = 0, frame = 0
 258              		@ frame_needed = 0, uses_anonymous_args = 0
 259 0000 08B5     		push	{r3, lr}
 260              		.cfi_def_cfa_offset 8
 261              		.cfi_offset 3, -8
 262              		.cfi_offset 14, -4
 102:Core/Src/pdo_override.c ****     spi_dma_setup();
 263              		.loc 1 102 5 view .LVU40
 103:Core/Src/pdo_override.c ****     spi_setup();
 264              		.loc 1 103 5 view .LVU41
 265 0002 FFF7FEFF 		bl	spi_setup
 266              	.LVL10:
 104:Core/Src/pdo_override.c ****     
 105:Core/Src/pdo_override.c ****     /* SMx_sml are calculated at runtime on PREOP_TO_SAFEOP, buffer size is needed on compilation
 106:Core/Src/pdo_override.c ****         TODO test if they match, when ESC is OP */
 107:Core/Src/pdo_override.c ****     // CC_ASSERT (ESCvar.ESC_SM2_sml == PDO_SIZE);
 108:Core/Src/pdo_override.c ****     // CC_ASSERT (ESCvar.ESC_SM3_sml == PDO_SIZE);
 109:Core/Src/pdo_override.c **** }
 267              		.loc 1 109 1 is_stmt 0 view .LVU42
 268 0006 08BD     		pop	{r3, pc}
 269              		.cfi_endproc
 270              	.LFE136:
 272              		.section	.text.on_rxpdo_transfer_finished,"ax",%progbits
 273              		.align	1
 274              		.global	on_rxpdo_transfer_finished
 275              		.syntax unified
 276              		.thumb
 277              		.thumb_func
 279              	on_rxpdo_transfer_finished:
 280              	.LFB138:
 110:Core/Src/pdo_override.c **** 
 111:Core/Src/pdo_override.c **** 
 112:Core/Src/pdo_override.c **** void rxpdo_override(void)
 113:Core/Src/pdo_override.c **** {
 114:Core/Src/pdo_override.c ****     spi_dma_rxpdo_start();
 115:Core/Src/pdo_override.c ****     while (pdi_dma_transmission == IN_PROGRESS) { } /* polling for "end of transfer" flag */
 116:Core/Src/pdo_override.c ****     on_rxpdo_transfer_finished();
 117:Core/Src/pdo_override.c **** }
 118:Core/Src/pdo_override.c **** 
 119:Core/Src/pdo_override.c **** 
 120:Core/Src/pdo_override.c **** void on_rxpdo_transfer_finished(void)
 121:Core/Src/pdo_override.c **** {
 281              		.loc 1 121 1 is_stmt 1 view -0
 282              		.cfi_startproc
 283              		@ args = 0, pretend = 0, frame = 0
 284              		@ frame_needed = 0, uses_anonymous_args = 0
 285 0000 08B5     		push	{r3, lr}
 286              		.cfi_def_cfa_offset 8
 287              		.cfi_offset 3, -8
ARM GAS  /tmp/cc6N31Jy.s 			page 8


 288              		.cfi_offset 14, -4
 122:Core/Src/pdo_override.c ****     spi_dma_stop();
 289              		.loc 1 122 5 view .LVU44
 290 0002 FFF7FEFF 		bl	spi_dma_stop
 291              	.LVL11:
 123:Core/Src/pdo_override.c ****     ESCvar.ALevent = etohs ((uint16_t)*pdo_spi_rxbuf);
 292              		.loc 1 123 5 view .LVU45
 293              		.loc 1 123 22 is_stmt 0 view .LVU46
 294 0006 074B     		ldr	r3, .L27
 295 0008 1B68     		ldr	r3, [r3]
 296 000a 1A78     		ldrb	r2, [r3]	@ zero_extendqisi2
 297              		.loc 1 123 20 view .LVU47
 298 000c 064B     		ldr	r3, .L27+4
 299 000e C3F8E420 		str	r2, [r3, #228]
 124:Core/Src/pdo_override.c ****     
 125:Core/Src/pdo_override.c ****     if (MAX_MAPPINGS_SM2 > 0)
 300              		.loc 1 125 5 is_stmt 1 view .LVU48
 126:Core/Src/pdo_override.c ****     {
 127:Core/Src/pdo_override.c ****         COE_pdoUnpack (pdo_coe_rxbuf, ESCvar.sm2mappings, SMmap2);
 301              		.loc 1 127 9 view .LVU49
 302 0012 064A     		ldr	r2, .L27+8
 303 0014 D3F8AC10 		ldr	r1, [r3, #172]
 304 0018 054B     		ldr	r3, .L27+12
 305 001a 1868     		ldr	r0, [r3]
 306 001c FFF7FEFF 		bl	COE_pdoUnpack
 307              	.LVL12:
 128:Core/Src/pdo_override.c ****     }
 129:Core/Src/pdo_override.c **** }
 308              		.loc 1 129 1 is_stmt 0 view .LVU50
 309 0020 08BD     		pop	{r3, pc}
 310              	.L28:
 311 0022 00BF     		.align	2
 312              	.L27:
 313 0024 00000000 		.word	.LANCHOR3
 314 0028 00000000 		.word	ESCvar
 315 002c 00000000 		.word	SMmap2
 316 0030 00000000 		.word	.LANCHOR4
 317              		.cfi_endproc
 318              	.LFE138:
 320              		.section	.text.rxpdo_override,"ax",%progbits
 321              		.align	1
 322              		.global	rxpdo_override
 323              		.syntax unified
 324              		.thumb
 325              		.thumb_func
 327              	rxpdo_override:
 328              	.LFB137:
 113:Core/Src/pdo_override.c ****     spi_dma_rxpdo_start();
 329              		.loc 1 113 1 is_stmt 1 view -0
 330              		.cfi_startproc
 331              		@ args = 0, pretend = 0, frame = 0
 332              		@ frame_needed = 0, uses_anonymous_args = 0
 333 0000 08B5     		push	{r3, lr}
 334              		.cfi_def_cfa_offset 8
 335              		.cfi_offset 3, -8
 336              		.cfi_offset 14, -4
 114:Core/Src/pdo_override.c ****     while (pdi_dma_transmission == IN_PROGRESS) { } /* polling for "end of transfer" flag */
ARM GAS  /tmp/cc6N31Jy.s 			page 9


 337              		.loc 1 114 5 view .LVU52
 338 0002 FFF7FEFF 		bl	spi_dma_rxpdo_start
 339              	.LVL13:
 115:Core/Src/pdo_override.c ****     on_rxpdo_transfer_finished();
 340              		.loc 1 115 5 view .LVU53
 341              	.L30:
 115:Core/Src/pdo_override.c ****     on_rxpdo_transfer_finished();
 342              		.loc 1 115 51 discriminator 1 view .LVU54
 115:Core/Src/pdo_override.c ****     on_rxpdo_transfer_finished();
 343              		.loc 1 115 11 discriminator 1 view .LVU55
 115:Core/Src/pdo_override.c ****     on_rxpdo_transfer_finished();
 344              		.loc 1 115 33 is_stmt 0 discriminator 1 view .LVU56
 345 0006 044B     		ldr	r3, .L32
 346 0008 1B78     		ldrb	r3, [r3]	@ zero_extendqisi2
 347 000a DBB2     		uxtb	r3, r3
 115:Core/Src/pdo_override.c ****     on_rxpdo_transfer_finished();
 348              		.loc 1 115 11 discriminator 1 view .LVU57
 349 000c 012B     		cmp	r3, #1
 350 000e FAD0     		beq	.L30
 116:Core/Src/pdo_override.c **** }
 351              		.loc 1 116 5 is_stmt 1 view .LVU58
 352 0010 FFF7FEFF 		bl	on_rxpdo_transfer_finished
 353              	.LVL14:
 117:Core/Src/pdo_override.c **** 
 354              		.loc 1 117 1 is_stmt 0 view .LVU59
 355 0014 08BD     		pop	{r3, pc}
 356              	.L33:
 357 0016 00BF     		.align	2
 358              	.L32:
 359 0018 00000000 		.word	.LANCHOR0
 360              		.cfi_endproc
 361              	.LFE137:
 363              		.section	.text.on_txpdo_transfer_finished,"ax",%progbits
 364              		.align	1
 365              		.global	on_txpdo_transfer_finished
 366              		.syntax unified
 367              		.thumb
 368              		.thumb_func
 370              	on_txpdo_transfer_finished:
 371              	.LFB140:
 130:Core/Src/pdo_override.c **** 
 131:Core/Src/pdo_override.c **** 
 132:Core/Src/pdo_override.c **** void txpdo_override(void)
 133:Core/Src/pdo_override.c **** {
 134:Core/Src/pdo_override.c ****     if (MAX_MAPPINGS_SM3 > 0)
 135:Core/Src/pdo_override.c ****     {
 136:Core/Src/pdo_override.c ****         COE_pdoPack (pdo_coe_txbuf, ESCvar.sm3mappings, SMmap3);
 137:Core/Src/pdo_override.c ****     }
 138:Core/Src/pdo_override.c **** 
 139:Core/Src/pdo_override.c ****     spi_dma_txpdo_start();
 140:Core/Src/pdo_override.c ****     while (pdi_dma_transmission == IN_PROGRESS) { } /* polling to end of transfer flag */
 141:Core/Src/pdo_override.c ****     on_txpdo_transfer_finished();
 142:Core/Src/pdo_override.c **** }
 143:Core/Src/pdo_override.c **** 
 144:Core/Src/pdo_override.c **** 
 145:Core/Src/pdo_override.c **** void on_txpdo_transfer_finished(void)
 146:Core/Src/pdo_override.c **** {
ARM GAS  /tmp/cc6N31Jy.s 			page 10


 372              		.loc 1 146 1 is_stmt 1 view -0
 373              		.cfi_startproc
 374              		@ args = 0, pretend = 0, frame = 0
 375              		@ frame_needed = 0, uses_anonymous_args = 0
 376 0000 08B5     		push	{r3, lr}
 377              		.cfi_def_cfa_offset 8
 378              		.cfi_offset 3, -8
 379              		.cfi_offset 14, -4
 147:Core/Src/pdo_override.c ****     spi_dma_stop();
 380              		.loc 1 147 5 view .LVU61
 381 0002 FFF7FEFF 		bl	spi_dma_stop
 382              	.LVL15:
 148:Core/Src/pdo_override.c ****     ESCvar.ALevent = etohs ((uint16_t)*pdo_spi_rxbuf);
 383              		.loc 1 148 5 view .LVU62
 384              		.loc 1 148 22 is_stmt 0 view .LVU63
 385 0006 034B     		ldr	r3, .L36
 386 0008 1B68     		ldr	r3, [r3]
 387 000a 1A78     		ldrb	r2, [r3]	@ zero_extendqisi2
 388              		.loc 1 148 20 view .LVU64
 389 000c 024B     		ldr	r3, .L36+4
 390 000e C3F8E420 		str	r2, [r3, #228]
 149:Core/Src/pdo_override.c **** }...
 391              		.loc 1 149 1 view .LVU65
 392 0012 08BD     		pop	{r3, pc}
 393              	.L37:
 394              		.align	2
 395              	.L36:
 396 0014 00000000 		.word	.LANCHOR3
 397 0018 00000000 		.word	ESCvar
 398              		.cfi_endproc
 399              	.LFE140:
 401              		.section	.text.txpdo_override,"ax",%progbits
 402              		.align	1
 403              		.global	txpdo_override
 404              		.syntax unified
 405              		.thumb
 406              		.thumb_func
 408              	txpdo_override:
 409              	.LFB139:
 133:Core/Src/pdo_override.c **** {
 410              		.loc 1 133 1 is_stmt 1 view -0
 411              		.cfi_startproc
 412              		@ args = 0, pretend = 0, frame = 0
 413              		@ frame_needed = 0, uses_anonymous_args = 0
 414 0000 08B5     		push	{r3, lr}
 415              		.cfi_def_cfa_offset 8
 416              		.cfi_offset 3, -8
 417              		.cfi_offset 14, -4
 134:Core/Src/pdo_override.c ****     if (MAX_MAPPINGS_SM3 > 0)
 418              		.loc 1 134 5 view .LVU67
 136:Core/Src/pdo_override.c ****         COE_pdoPack (pdo_coe_txbuf, ESCvar.sm3mappings, SMmap3);
 419              		.loc 1 136 9 view .LVU68
 420 0002 094A     		ldr	r2, .L41
 421 0004 094B     		ldr	r3, .L41+4
 422 0006 D3F8B010 		ldr	r1, [r3, #176]
 423 000a 094B     		ldr	r3, .L41+8
 424 000c 1868     		ldr	r0, [r3]
ARM GAS  /tmp/cc6N31Jy.s 			page 11


 425 000e FFF7FEFF 		bl	COE_pdoPack
 426              	.LVL16:
 139:Core/Src/pdo_override.c ****     spi_dma_txpdo_start();
 427              		.loc 1 139 5 view .LVU69
 428 0012 FFF7FEFF 		bl	spi_dma_txpdo_start
 429              	.LVL17:
 140:Core/Src/pdo_override.c ****     while (pdi_dma_transmission == IN_PROGRESS) { } /* polling to end of transfer flag */
 430              		.loc 1 140 5 view .LVU70
 431              	.L39:
 140:Core/Src/pdo_override.c ****     while (pdi_dma_transmission == IN_PROGRESS) { } /* polling to end of transfer flag */
 432              		.loc 1 140 51 discriminator 1 view .LVU71
 140:Core/Src/pdo_override.c ****     while (pdi_dma_transmission == IN_PROGRESS) { } /* polling to end of transfer flag */
 433              		.loc 1 140 11 discriminator 1 view .LVU72
 140:Core/Src/pdo_override.c ****     while (pdi_dma_transmission == IN_PROGRESS) { } /* polling to end of transfer flag */
 434              		.loc 1 140 33 is_stmt 0 discriminator 1 view .LVU73
 435 0016 074B     		ldr	r3, .L41+12
 436 0018 1B78     		ldrb	r3, [r3]	@ zero_extendqisi2
 437 001a DBB2     		uxtb	r3, r3
 140:Core/Src/pdo_override.c ****     while (pdi_dma_transmission == IN_PROGRESS) { } /* polling to end of transfer flag */
 438              		.loc 1 140 11 discriminator 1 view .LVU74
 439 001c 012B     		cmp	r3, #1
 440 001e FAD0     		beq	.L39
 141:Core/Src/pdo_override.c ****     on_txpdo_transfer_finished();
 441              		.loc 1 141 5 is_stmt 1 view .LVU75
 442 0020 FFF7FEFF 		bl	on_txpdo_transfer_finished
 443              	.LVL18:
 142:Core/Src/pdo_override.c **** }
 444              		.loc 1 142 1 is_stmt 0 view .LVU76
 445 0024 08BD     		pop	{r3, pc}
 446              	.L42:
 447 0026 00BF     		.align	2
 448              	.L41:
 449 0028 00000000 		.word	SMmap3
 450 002c 00000000 		.word	ESCvar
 451 0030 00000000 		.word	.LANCHOR1
 452 0034 00000000 		.word	.LANCHOR0
 453              		.cfi_endproc
 454              	.LFE139:
 456              		.global	pdo_coe_txbuf
 457              		.global	pdo_spi_txbuf
 458              		.global	pdo_txbuf
 459              		.global	pdo_coe_rxbuf
 460              		.global	pdo_spi_rxbuf
 461              		.global	pdo_rxbuf
 462              		.global	pdi_dma_transmission
 463              		.section	.bss.pdi_dma_transmission,"aw",%nobits
 464              		.set	.LANCHOR0,. + 0
 467              	pdi_dma_transmission:
 468 0000 00       		.space	1
 469              		.section	.bss.pdo_rxbuf,"aw",%nobits
 470              		.align	3
 473              	pdo_rxbuf:
 474 0000 00000000 		.space	9
 474      00000000 
 474      00
 475              		.section	.bss.pdo_txbuf,"aw",%nobits
 476              		.align	3
ARM GAS  /tmp/cc6N31Jy.s 			page 12


 479              	pdo_txbuf:
 480 0000 00000000 		.space	10
 480      00000000 
 480      0000
 481              		.section	.data.pdo_coe_rxbuf,"aw"
 482              		.align	2
 483              		.set	.LANCHOR4,. + 0
 486              	pdo_coe_rxbuf:
 487 0000 08000000 		.word	pdo_rxbuf+8
 488              		.section	.data.pdo_coe_txbuf,"aw"
 489              		.align	2
 490              		.set	.LANCHOR1,. + 0
 493              	pdo_coe_txbuf:
 494 0000 08000000 		.word	pdo_txbuf+8
 495              		.section	.data.pdo_spi_rxbuf,"aw"
 496              		.align	2
 497              		.set	.LANCHOR3,. + 0
 500              	pdo_spi_rxbuf:
 501 0000 05000000 		.word	pdo_rxbuf+5
 502              		.section	.data.pdo_spi_txbuf,"aw"
 503              		.align	2
 504              		.set	.LANCHOR2,. + 0
 507              	pdo_spi_txbuf:
 508 0000 06000000 		.word	pdo_txbuf+6
 509              		.text
 510              	.Letext0:
 511              		.file 2 "/usr/share/gcc-arm-none-eabi-10.3-2021.10/lib/gcc/arm-none-eabi/10.3.1/include/stddef.h"
 512              		.file 3 "/usr/share/gcc-arm-none-eabi-10.3-2021.10/arm-none-eabi/include/machine/_default_types.h"
 513              		.file 4 "/usr/share/gcc-arm-none-eabi-10.3-2021.10/arm-none-eabi/include/sys/_stdint.h"
 514              		.file 5 "Drivers/CMSIS/Device/ST/STM32F4xx/Include/stm32f405xx.h"
 515              		.file 6 "Drivers/STM32F4xx_HAL_Driver/Inc/stm32f4xx_hal_def.h"
 516              		.file 7 "Drivers/STM32F4xx_HAL_Driver/Inc/stm32f4xx_hal_dma.h"
 517              		.file 8 "Drivers/STM32F4xx_HAL_Driver/Inc/stm32f4xx_hal_spi.h"
 518              		.file 9 "Lib/soes/include/esc_coe.h"
 519              		.file 10 "Lib/soes/include/esc.h"
 520              		.file 11 "Core/Inc/pdo_override.h"
 521              		.file 12 "Core/Inc/ecatapp.h"
 522              		.file 13 "Lib/soes_hal_bsp/include/spi.h"
ARM GAS  /tmp/cc6N31Jy.s 			page 13


DEFINED SYMBOLS
                            *ABS*:0000000000000000 pdo_override.c
     /tmp/cc6N31Jy.s:20     .text.spi_dma_prepare_transmission:0000000000000000 $t
     /tmp/cc6N31Jy.s:26     .text.spi_dma_prepare_transmission:0000000000000000 spi_dma_prepare_transmission
     /tmp/cc6N31Jy.s:76     .text.spi_dma_setup:0000000000000000 $t
     /tmp/cc6N31Jy.s:82     .text.spi_dma_setup:0000000000000000 spi_dma_setup
     /tmp/cc6N31Jy.s:95     .text.spi_dma_start:0000000000000000 $t
     /tmp/cc6N31Jy.s:101    .text.spi_dma_start:0000000000000000 spi_dma_start
     /tmp/cc6N31Jy.s:129    .text.spi_dma_start:0000000000000018 $d
     /tmp/cc6N31Jy.s:135    .text.spi_dma_stop:0000000000000000 $t
     /tmp/cc6N31Jy.s:141    .text.spi_dma_stop:0000000000000000 spi_dma_stop
     /tmp/cc6N31Jy.s:164    .text.spi_dma_stop:0000000000000010 $d
     /tmp/cc6N31Jy.s:169    .text.spi_dma_rxpdo_start:0000000000000000 $t
     /tmp/cc6N31Jy.s:175    .text.spi_dma_rxpdo_start:0000000000000000 spi_dma_rxpdo_start
     /tmp/cc6N31Jy.s:205    .text.spi_dma_rxpdo_start:0000000000000020 $d
     /tmp/cc6N31Jy.s:211    .text.spi_dma_txpdo_start:0000000000000000 $t
     /tmp/cc6N31Jy.s:217    .text.spi_dma_txpdo_start:0000000000000000 spi_dma_txpdo_start
     /tmp/cc6N31Jy.s:242    .text.spi_dma_txpdo_start:0000000000000018 $d
     /tmp/cc6N31Jy.s:247    .text.init_override:0000000000000000 $t
     /tmp/cc6N31Jy.s:253    .text.init_override:0000000000000000 init_override
     /tmp/cc6N31Jy.s:273    .text.on_rxpdo_transfer_finished:0000000000000000 $t
     /tmp/cc6N31Jy.s:279    .text.on_rxpdo_transfer_finished:0000000000000000 on_rxpdo_transfer_finished
     /tmp/cc6N31Jy.s:313    .text.on_rxpdo_transfer_finished:0000000000000024 $d
     /tmp/cc6N31Jy.s:321    .text.rxpdo_override:0000000000000000 $t
     /tmp/cc6N31Jy.s:327    .text.rxpdo_override:0000000000000000 rxpdo_override
     /tmp/cc6N31Jy.s:359    .text.rxpdo_override:0000000000000018 $d
     /tmp/cc6N31Jy.s:364    .text.on_txpdo_transfer_finished:0000000000000000 $t
     /tmp/cc6N31Jy.s:370    .text.on_txpdo_transfer_finished:0000000000000000 on_txpdo_transfer_finished
     /tmp/cc6N31Jy.s:396    .text.on_txpdo_transfer_finished:0000000000000014 $d
     /tmp/cc6N31Jy.s:402    .text.txpdo_override:0000000000000000 $t
     /tmp/cc6N31Jy.s:408    .text.txpdo_override:0000000000000000 txpdo_override
     /tmp/cc6N31Jy.s:449    .text.txpdo_override:0000000000000028 $d
     /tmp/cc6N31Jy.s:493    .data.pdo_coe_txbuf:0000000000000000 pdo_coe_txbuf
     /tmp/cc6N31Jy.s:507    .data.pdo_spi_txbuf:0000000000000000 pdo_spi_txbuf
     /tmp/cc6N31Jy.s:479    .bss.pdo_txbuf:0000000000000000 pdo_txbuf
     /tmp/cc6N31Jy.s:486    .data.pdo_coe_rxbuf:0000000000000000 pdo_coe_rxbuf
     /tmp/cc6N31Jy.s:500    .data.pdo_spi_rxbuf:0000000000000000 pdo_spi_rxbuf
     /tmp/cc6N31Jy.s:473    .bss.pdo_rxbuf:0000000000000000 pdo_rxbuf
     /tmp/cc6N31Jy.s:467    .bss.pdi_dma_transmission:0000000000000000 pdi_dma_transmission
     /tmp/cc6N31Jy.s:468    .bss.pdi_dma_transmission:0000000000000000 $d
     /tmp/cc6N31Jy.s:470    .bss.pdo_rxbuf:0000000000000000 $d
     /tmp/cc6N31Jy.s:476    .bss.pdo_txbuf:0000000000000000 $d
     /tmp/cc6N31Jy.s:482    .data.pdo_coe_rxbuf:0000000000000000 $d
     /tmp/cc6N31Jy.s:489    .data.pdo_coe_txbuf:0000000000000000 $d
     /tmp/cc6N31Jy.s:496    .data.pdo_spi_rxbuf:0000000000000000 $d
     /tmp/cc6N31Jy.s:503    .data.pdo_spi_txbuf:0000000000000000 $d

UNDEFINED SYMBOLS
HAL_SPI_DMAResume
spi_select
hspi2
spi_unselect
HAL_SPI_DMAPause
spi_setup
COE_pdoUnpack
ESCvar
SMmap2
ARM GAS  /tmp/cc6N31Jy.s 			page 14


COE_pdoPack
SMmap3
