ARM GAS  /tmp/ccvC9ew0.s 			page 1


   1              		.cpu cortex-m4
   2              		.arch armv7e-m
   3              		.fpu fpv4-sp-d16
   4              		.eabi_attribute 27, 1
   5              		.eabi_attribute 28, 1
   6              		.eabi_attribute 20, 1
   7              		.eabi_attribute 21, 1
   8              		.eabi_attribute 23, 3
   9              		.eabi_attribute 24, 1
  10              		.eabi_attribute 25, 1
  11              		.eabi_attribute 26, 1
  12              		.eabi_attribute 30, 1
  13              		.eabi_attribute 34, 1
  14              		.eabi_attribute 18, 4
  15              		.file	"pdo_override.c"
  16              		.text
  17              	.Ltext0:
  18              		.cfi_sections	.debug_frame
  19              		.section	.text.spi_dma_prepare_transmission,"ax",%progbits
  20              		.align	1
  21              		.global	spi_dma_prepare_transmission
  22              		.syntax unified
  23              		.thumb
  24              		.thumb_func
  26              	spi_dma_prepare_transmission:
  27              	.LVL0:
  28              	.LFB130:
  29              		.file 1 "Core/Src/pdo_override.c"
   1:Core/Src/pdo_override.c **** #include <string.h>
   2:Core/Src/pdo_override.c **** #include "stm32f4xx.h"
   3:Core/Src/pdo_override.c **** #include "spi.h"
   4:Core/Src/pdo_override.c **** 
   5:Core/Src/pdo_override.c **** #include "esc.h"
   6:Core/Src/pdo_override.c **** #include "ecat_slv.h"
   7:Core/Src/pdo_override.c **** #include "utypes.h"
   8:Core/Src/pdo_override.c **** 
   9:Core/Src/pdo_override.c **** #include "pdo_override.h"
  10:Core/Src/pdo_override.c **** #include "main.h"
  11:Core/Src/pdo_override.c **** 
  12:Core/Src/pdo_override.c **** extern int led_flag;
  13:Core/Src/pdo_override.c **** 
  14:Core/Src/pdo_override.c **** extern SPI_HandleTypeDef hspi2;
  15:Core/Src/pdo_override.c **** extern DMA_HandleTypeDef hdma_spi2_rx;
  16:Core/Src/pdo_override.c **** 
  17:Core/Src/pdo_override.c **** static int et1100 = 1;
  18:Core/Src/pdo_override.c **** 
  19:Core/Src/pdo_override.c **** volatile DMA_PDI_transmission_state_t pdi_dma_transmission = NOT_STARTED;
  20:Core/Src/pdo_override.c **** 
  21:Core/Src/pdo_override.c **** /* SPI DMA RX buffer */
  22:Core/Src/pdo_override.c **** uint8_t pdo_rxbuf[PDO_TR_SIZE + RX_PADDING_SIZE] __attribute__((aligned(8)));
  23:Core/Src/pdo_override.c **** uint8_t *pdo_spi_rxbuf = pdo_rxbuf + RX_PADDING_SIZE;
  24:Core/Src/pdo_override.c **** uint8_t *pdo_coe_rxbuf = pdo_rxbuf + RX_PADDING_SIZE + ADDR_SIZE + WAIT_SIZE;
  25:Core/Src/pdo_override.c **** 
  26:Core/Src/pdo_override.c **** /* SPI DMA TX buffer  */
  27:Core/Src/pdo_override.c **** uint8_t pdo_txbuf[PDO_TR_SIZE + TX_PADDING_SIZE] __attribute__((aligned(8))) = {0};
  28:Core/Src/pdo_override.c **** uint8_t *pdo_spi_txbuf = pdo_txbuf + TX_PADDING_SIZE;
  29:Core/Src/pdo_override.c **** uint8_t *pdo_coe_txbuf = pdo_txbuf + TX_PADDING_SIZE + ADDR_SIZE;
ARM GAS  /tmp/ccvC9ew0.s 			page 2


  30:Core/Src/pdo_override.c **** 
  31:Core/Src/pdo_override.c **** void spi_dma_prepare_transmission(uint16_t address, uint8_t *tx_buffer, uint8_t cmd)
  32:Core/Src/pdo_override.c **** {
  30              		.loc 1 32 1 view -0
  31              		.cfi_startproc
  32              		@ args = 0, pretend = 0, frame = 0
  33              		@ frame_needed = 0, uses_anonymous_args = 0
  34              		@ link register save eliminated.
  33:Core/Src/pdo_override.c ****     // set address and command
  34:Core/Src/pdo_override.c ****     tx_buffer[0] = address >> 5;
  35              		.loc 1 34 5 view .LVU1
  36              		.loc 1 34 18 is_stmt 0 view .LVU2
  37 0000 4309     		lsrs	r3, r0, #5
  38 0002 0B70     		strb	r3, [r1]
  35:Core/Src/pdo_override.c ****     tx_buffer[1] = ((address & 0x1F) << 3) | cmd;
  39              		.loc 1 35 5 is_stmt 1 view .LVU3
  40              		.loc 1 35 44 is_stmt 0 view .LVU4
  41 0004 42EAC000 		orr	r0, r2, r0, lsl #3
  42              	.LVL1:
  43              		.loc 1 35 18 view .LVU5
  44 0008 4870     		strb	r0, [r1, #1]
  36:Core/Src/pdo_override.c **** 
  37:Core/Src/pdo_override.c ****     if (cmd == ESC_CMD_READ_WAIT_STATE)
  45              		.loc 1 37 5 is_stmt 1 view .LVU6
  46              		.loc 1 37 8 is_stmt 0 view .LVU7
  47 000a 032A     		cmp	r2, #3
  48 000c 02D0     		beq	.L4
  38:Core/Src/pdo_override.c ****     {
  39:Core/Src/pdo_override.c ****         // set wait state byte
  40:Core/Src/pdo_override.c ****         tx_buffer[ADDR_SIZE] = READ_END_BYTE;
  41:Core/Src/pdo_override.c ****         // set read termination
  42:Core/Src/pdo_override.c ****         tx_buffer[PDO_TR_SIZE - 1] = READ_END_BYTE;
  43:Core/Src/pdo_override.c ****     }
  44:Core/Src/pdo_override.c ****     else if (cmd == ESC_CMD_READ)
  49              		.loc 1 44 10 is_stmt 1 view .LVU8
  50              		.loc 1 44 13 is_stmt 0 view .LVU9
  51 000e 022A     		cmp	r2, #2
  52 0010 04D0     		beq	.L5
  53              	.L1:
  45:Core/Src/pdo_override.c ****     {
  46:Core/Src/pdo_override.c ****         // set read termination
  47:Core/Src/pdo_override.c ****         tx_buffer[PDO_TR_SIZE - 1] = READ_END_BYTE;
  48:Core/Src/pdo_override.c ****     }
  49:Core/Src/pdo_override.c **** }
  54              		.loc 1 49 1 view .LVU10
  55 0012 7047     		bx	lr
  56              	.L4:
  40:Core/Src/pdo_override.c ****         // set read termination
  57              		.loc 1 40 9 is_stmt 1 view .LVU11
  40:Core/Src/pdo_override.c ****         // set read termination
  58              		.loc 1 40 30 is_stmt 0 view .LVU12
  59 0014 FF23     		movs	r3, #255
  60 0016 8B70     		strb	r3, [r1, #2]
  42:Core/Src/pdo_override.c ****     }
  61              		.loc 1 42 9 is_stmt 1 view .LVU13
  42:Core/Src/pdo_override.c ****     }
  62              		.loc 1 42 36 is_stmt 0 view .LVU14
ARM GAS  /tmp/ccvC9ew0.s 			page 3


  63 0018 0B71     		strb	r3, [r1, #4]
  64 001a 7047     		bx	lr
  65              	.L5:
  47:Core/Src/pdo_override.c ****     }
  66              		.loc 1 47 9 is_stmt 1 view .LVU15
  47:Core/Src/pdo_override.c ****     }
  67              		.loc 1 47 36 is_stmt 0 view .LVU16
  68 001c FF23     		movs	r3, #255
  69 001e 0B71     		strb	r3, [r1, #4]
  70              		.loc 1 49 1 view .LVU17
  71 0020 F7E7     		b	.L1
  72              		.cfi_endproc
  73              	.LFE130:
  75              		.section	.text.spi_dma_setup,"ax",%progbits
  76              		.align	1
  77              		.global	spi_dma_setup
  78              		.syntax unified
  79              		.thumb
  80              		.thumb_func
  82              	spi_dma_setup:
  83              	.LFB131:
  50:Core/Src/pdo_override.c **** 
  51:Core/Src/pdo_override.c **** // void DMA2_Stream2_IRQHandler(void)
  52:Core/Src/pdo_override.c **** //{
  53:Core/Src/pdo_override.c **** //     /* Test on DMA Stream Transfer Complete interrupt */
  54:Core/Src/pdo_override.c **** //     if(DMA_GetITStatus(DMA2_Stream2, DMA_IT_TCIF2))
  55:Core/Src/pdo_override.c **** //     {
  56:Core/Src/pdo_override.c **** //         /* Clear DMA Stream Transfer Complete interrupt pending bit */
  57:Core/Src/pdo_override.c **** //         DMA_ClearITPendingBit(DMA2_Stream2, DMA_IT_TCIF2);
  58:Core/Src/pdo_override.c **** //         pdi_dma_transmission = NOT_STARTED;
  59:Core/Src/pdo_override.c **** //     }
  60:Core/Src/pdo_override.c **** // }
  61:Core/Src/pdo_override.c **** 
  62:Core/Src/pdo_override.c **** void spi_dma_setup(void)
  63:Core/Src/pdo_override.c **** {
  84              		.loc 1 63 1 is_stmt 1 view -0
  85              		.cfi_startproc
  86              		@ args = 0, pretend = 0, frame = 0
  87              		@ frame_needed = 0, uses_anonymous_args = 0
  88              		@ link register save eliminated.
  64:Core/Src/pdo_override.c **** }
  89              		.loc 1 64 1 view .LVU19
  90 0000 7047     		bx	lr
  91              		.cfi_endproc
  92              	.LFE131:
  94              		.section	.text.spi_dma_start,"ax",%progbits
  95              		.align	1
  96              		.global	spi_dma_start
  97              		.syntax unified
  98              		.thumb
  99              		.thumb_func
 101              	spi_dma_start:
 102              	.LFB132:
  65:Core/Src/pdo_override.c **** 
  66:Core/Src/pdo_override.c **** void spi_dma_start(void)
  67:Core/Src/pdo_override.c **** {
 103              		.loc 1 67 1 view -0
ARM GAS  /tmp/ccvC9ew0.s 			page 4


 104              		.cfi_startproc
 105              		@ args = 0, pretend = 0, frame = 0
 106              		@ frame_needed = 0, uses_anonymous_args = 0
 107 0000 08B5     		push	{r3, lr}
 108              		.cfi_def_cfa_offset 8
 109              		.cfi_offset 3, -8
 110              		.cfi_offset 14, -4
  68:Core/Src/pdo_override.c ****     // HAL_NVIC_EnableIRQ(DMA1_Stream3_IRQn);
  69:Core/Src/pdo_override.c ****     spi_select(et1100);
 111              		.loc 1 69 5 view .LVU21
 112 0002 0120     		movs	r0, #1
 113 0004 FFF7FEFF 		bl	spi_select
 114              	.LVL2:
  70:Core/Src/pdo_override.c ****     HAL_SPI_TransmitReceive_DMA(&hspi2, (uint8_t *)pdo_spi_txbuf, (uint8_t *)pdo_spi_rxbuf, sizeof(
 115              		.loc 1 70 5 view .LVU22
 116 0008 0123     		movs	r3, #1
 117 000a 054A     		ldr	r2, .L9
 118 000c 1268     		ldr	r2, [r2]
 119 000e 0549     		ldr	r1, .L9+4
 120 0010 0968     		ldr	r1, [r1]
 121 0012 0548     		ldr	r0, .L9+8
 122 0014 FFF7FEFF 		bl	HAL_SPI_TransmitReceive_DMA
 123              	.LVL3:
  71:Core/Src/pdo_override.c ****     //while ((HAL_SPI_GetState(&hspi2) != HAL_SPI_STATE_READY))
  72:Core/Src/pdo_override.c ****     //    ;
  73:Core/Src/pdo_override.c **** 
  74:Core/Src/pdo_override.c ****     pdi_dma_transmission = IN_PROGRESS;
 124              		.loc 1 74 5 view .LVU23
 125              		.loc 1 74 26 is_stmt 0 view .LVU24
 126 0018 044B     		ldr	r3, .L9+12
 127 001a 0122     		movs	r2, #1
 128 001c 1A70     		strb	r2, [r3]
  75:Core/Src/pdo_override.c **** }
 129              		.loc 1 75 1 view .LVU25
 130 001e 08BD     		pop	{r3, pc}
 131              	.L10:
 132              		.align	2
 133              	.L9:
 134 0020 00000000 		.word	.LANCHOR0
 135 0024 00000000 		.word	.LANCHOR1
 136 0028 00000000 		.word	hspi2
 137 002c 00000000 		.word	.LANCHOR2
 138              		.cfi_endproc
 139              	.LFE132:
 141              		.section	.text.spi_dma_stop,"ax",%progbits
 142              		.align	1
 143              		.global	spi_dma_stop
 144              		.syntax unified
 145              		.thumb
 146              		.thumb_func
 148              	spi_dma_stop:
 149              	.LFB133:
  76:Core/Src/pdo_override.c **** 
  77:Core/Src/pdo_override.c **** void spi_dma_stop(void)
  78:Core/Src/pdo_override.c **** {
 150              		.loc 1 78 1 is_stmt 1 view -0
 151              		.cfi_startproc
ARM GAS  /tmp/ccvC9ew0.s 			page 5


 152              		@ args = 0, pretend = 0, frame = 0
 153              		@ frame_needed = 0, uses_anonymous_args = 0
 154 0000 08B5     		push	{r3, lr}
 155              		.cfi_def_cfa_offset 8
 156              		.cfi_offset 3, -8
 157              		.cfi_offset 14, -4
  79:Core/Src/pdo_override.c ****     spi_unselect(et1100);
 158              		.loc 1 79 5 view .LVU27
 159 0002 0120     		movs	r0, #1
 160 0004 FFF7FEFF 		bl	spi_unselect
 161              	.LVL4:
  80:Core/Src/pdo_override.c ****     // HAL_SPI_DMAStop(&hspi2);
  81:Core/Src/pdo_override.c **** }
 162              		.loc 1 81 1 is_stmt 0 view .LVU28
 163 0008 08BD     		pop	{r3, pc}
 164              		.cfi_endproc
 165              	.LFE133:
 167              		.section	.text.spi_dma_rxpdo_start,"ax",%progbits
 168              		.align	1
 169              		.global	spi_dma_rxpdo_start
 170              		.syntax unified
 171              		.thumb
 172              		.thumb_func
 174              	spi_dma_rxpdo_start:
 175              	.LFB134:
  82:Core/Src/pdo_override.c **** 
  83:Core/Src/pdo_override.c **** void spi_dma_rxpdo_start(void)
  84:Core/Src/pdo_override.c **** {
 176              		.loc 1 84 1 is_stmt 1 view -0
 177              		.cfi_startproc
 178              		@ args = 0, pretend = 0, frame = 0
 179              		@ frame_needed = 0, uses_anonymous_args = 0
 180 0000 08B5     		push	{r3, lr}
 181              		.cfi_def_cfa_offset 8
 182              		.cfi_offset 3, -8
 183              		.cfi_offset 14, -4
  85:Core/Src/pdo_override.c ****     memset(pdo_coe_txbuf, 0, PDO_SIZE); /* make sure TX buffer is filled with 0s, no read end byte 
 184              		.loc 1 85 5 view .LVU30
 185 0002 074B     		ldr	r3, .L15
 186 0004 1B68     		ldr	r3, [r3]
 187 0006 0022     		movs	r2, #0
 188 0008 1A80     		strh	r2, [r3]	@ unaligned
  86:Core/Src/pdo_override.c ****     spi_dma_prepare_transmission(ESC_SM2_sma, pdo_spi_txbuf, ESC_CMD_READ_WAIT_STATE);
 189              		.loc 1 86 5 view .LVU31
 190 000a 0322     		movs	r2, #3
 191 000c 054B     		ldr	r3, .L15+4
 192 000e 1968     		ldr	r1, [r3]
 193 0010 4FF4B050 		mov	r0, #5632
 194 0014 FFF7FEFF 		bl	spi_dma_prepare_transmission
 195              	.LVL5:
  87:Core/Src/pdo_override.c **** 
  88:Core/Src/pdo_override.c ****     spi_dma_start();
 196              		.loc 1 88 5 view .LVU32
 197 0018 FFF7FEFF 		bl	spi_dma_start
 198              	.LVL6:
  89:Core/Src/pdo_override.c **** }
 199              		.loc 1 89 1 is_stmt 0 view .LVU33
ARM GAS  /tmp/ccvC9ew0.s 			page 6


 200 001c 08BD     		pop	{r3, pc}
 201              	.L16:
 202 001e 00BF     		.align	2
 203              	.L15:
 204 0020 00000000 		.word	.LANCHOR3
 205 0024 00000000 		.word	.LANCHOR1
 206              		.cfi_endproc
 207              	.LFE134:
 209              		.section	.text.spi_dma_txpdo_start,"ax",%progbits
 210              		.align	1
 211              		.global	spi_dma_txpdo_start
 212              		.syntax unified
 213              		.thumb
 214              		.thumb_func
 216              	spi_dma_txpdo_start:
 217              	.LFB135:
  90:Core/Src/pdo_override.c **** 
  91:Core/Src/pdo_override.c **** void spi_dma_txpdo_start()
  92:Core/Src/pdo_override.c **** {
 218              		.loc 1 92 1 is_stmt 1 view -0
 219              		.cfi_startproc
 220              		@ args = 0, pretend = 0, frame = 0
 221              		@ frame_needed = 0, uses_anonymous_args = 0
 222 0000 08B5     		push	{r3, lr}
 223              		.cfi_def_cfa_offset 8
 224              		.cfi_offset 3, -8
 225              		.cfi_offset 14, -4
  93:Core/Src/pdo_override.c ****     spi_dma_prepare_transmission(ESC_SM3_sma, pdo_spi_txbuf, ESC_CMD_WRITE);
 226              		.loc 1 93 5 view .LVU35
 227 0002 0422     		movs	r2, #4
 228 0004 044B     		ldr	r3, .L19
 229 0006 1968     		ldr	r1, [r3]
 230 0008 4FF4D050 		mov	r0, #6656
 231 000c FFF7FEFF 		bl	spi_dma_prepare_transmission
 232              	.LVL7:
  94:Core/Src/pdo_override.c **** 
  95:Core/Src/pdo_override.c ****     spi_dma_start();
 233              		.loc 1 95 5 view .LVU36
 234 0010 FFF7FEFF 		bl	spi_dma_start
 235              	.LVL8:
  96:Core/Src/pdo_override.c **** }
 236              		.loc 1 96 1 is_stmt 0 view .LVU37
 237 0014 08BD     		pop	{r3, pc}
 238              	.L20:
 239 0016 00BF     		.align	2
 240              	.L19:
 241 0018 00000000 		.word	.LANCHOR1
 242              		.cfi_endproc
 243              	.LFE135:
 245              		.section	.text.init_override,"ax",%progbits
 246              		.align	1
 247              		.global	init_override
 248              		.syntax unified
 249              		.thumb
 250              		.thumb_func
 252              	init_override:
 253              	.LFB136:
ARM GAS  /tmp/ccvC9ew0.s 			page 7


  97:Core/Src/pdo_override.c **** 
  98:Core/Src/pdo_override.c **** void init_override(void)
  99:Core/Src/pdo_override.c **** {
 254              		.loc 1 99 1 is_stmt 1 view -0
 255              		.cfi_startproc
 256              		@ args = 0, pretend = 0, frame = 0
 257              		@ frame_needed = 0, uses_anonymous_args = 0
 258 0000 08B5     		push	{r3, lr}
 259              		.cfi_def_cfa_offset 8
 260              		.cfi_offset 3, -8
 261              		.cfi_offset 14, -4
 100:Core/Src/pdo_override.c ****     spi_dma_setup();
 262              		.loc 1 100 5 view .LVU39
 101:Core/Src/pdo_override.c ****     spi_setup();
 263              		.loc 1 101 5 view .LVU40
 264 0002 FFF7FEFF 		bl	spi_setup
 265              	.LVL9:
 102:Core/Src/pdo_override.c **** 
 103:Core/Src/pdo_override.c ****     /* SMx_sml are calculated at runtime on PREOP_TO_SAFEOP, buffer size is needed on compilation
 104:Core/Src/pdo_override.c ****         TODO test if they match, when ESC is OP */
 105:Core/Src/pdo_override.c ****     // CC_ASSERT (ESCvar.ESC_SM2_sml == PDO_SIZE);
 106:Core/Src/pdo_override.c ****     // CC_ASSERT (ESCvar.ESC_SM3_sml == PDO_SIZE);
 107:Core/Src/pdo_override.c **** }
 266              		.loc 1 107 1 is_stmt 0 view .LVU41
 267 0006 08BD     		pop	{r3, pc}
 268              		.cfi_endproc
 269              	.LFE136:
 271              		.section	.text.on_rxpdo_transfer_finished,"ax",%progbits
 272              		.align	1
 273              		.global	on_rxpdo_transfer_finished
 274              		.syntax unified
 275              		.thumb
 276              		.thumb_func
 278              	on_rxpdo_transfer_finished:
 279              	.LFB138:
 108:Core/Src/pdo_override.c **** 
 109:Core/Src/pdo_override.c **** void rxpdo_override(void)
 110:Core/Src/pdo_override.c **** {
 111:Core/Src/pdo_override.c ****     spi_dma_rxpdo_start();
 112:Core/Src/pdo_override.c ****     while (pdi_dma_transmission == IN_PROGRESS)
 113:Core/Src/pdo_override.c ****     {
 114:Core/Src/pdo_override.c ****     } /* polling for "end of transfer" flag */
 115:Core/Src/pdo_override.c ****     on_rxpdo_transfer_finished();
 116:Core/Src/pdo_override.c **** }
 117:Core/Src/pdo_override.c **** 
 118:Core/Src/pdo_override.c **** void on_rxpdo_transfer_finished(void)
 119:Core/Src/pdo_override.c **** {
 280              		.loc 1 119 1 is_stmt 1 view -0
 281              		.cfi_startproc
 282              		@ args = 0, pretend = 0, frame = 0
 283              		@ frame_needed = 0, uses_anonymous_args = 0
 284 0000 08B5     		push	{r3, lr}
 285              		.cfi_def_cfa_offset 8
 286              		.cfi_offset 3, -8
 287              		.cfi_offset 14, -4
 120:Core/Src/pdo_override.c ****     spi_dma_stop();
 288              		.loc 1 120 5 view .LVU43
ARM GAS  /tmp/ccvC9ew0.s 			page 8


 289 0002 FFF7FEFF 		bl	spi_dma_stop
 290              	.LVL10:
 121:Core/Src/pdo_override.c ****     ESCvar.ALevent = etohs((uint16_t)*pdo_spi_rxbuf);
 291              		.loc 1 121 5 view .LVU44
 292              		.loc 1 121 22 is_stmt 0 view .LVU45
 293 0006 074B     		ldr	r3, .L25
 294 0008 1B68     		ldr	r3, [r3]
 295 000a 1A78     		ldrb	r2, [r3]	@ zero_extendqisi2
 296              		.loc 1 121 20 view .LVU46
 297 000c 064B     		ldr	r3, .L25+4
 298 000e C3F8E420 		str	r2, [r3, #228]
 122:Core/Src/pdo_override.c **** 
 123:Core/Src/pdo_override.c ****     if (MAX_MAPPINGS_SM2 > 0)
 299              		.loc 1 123 5 is_stmt 1 view .LVU47
 124:Core/Src/pdo_override.c ****     {
 125:Core/Src/pdo_override.c ****         COE_pdoUnpack(pdo_coe_rxbuf, ESCvar.sm2mappings, SMmap2);
 300              		.loc 1 125 9 view .LVU48
 301 0012 064A     		ldr	r2, .L25+8
 302 0014 D3F8AC10 		ldr	r1, [r3, #172]
 303 0018 054B     		ldr	r3, .L25+12
 304 001a 1868     		ldr	r0, [r3]
 305 001c FFF7FEFF 		bl	COE_pdoUnpack
 306              	.LVL11:
 126:Core/Src/pdo_override.c ****     }
 127:Core/Src/pdo_override.c **** }
 307              		.loc 1 127 1 is_stmt 0 view .LVU49
 308 0020 08BD     		pop	{r3, pc}
 309              	.L26:
 310 0022 00BF     		.align	2
 311              	.L25:
 312 0024 00000000 		.word	.LANCHOR0
 313 0028 00000000 		.word	ESCvar
 314 002c 00000000 		.word	SMmap2
 315 0030 00000000 		.word	.LANCHOR4
 316              		.cfi_endproc
 317              	.LFE138:
 319              		.section	.text.rxpdo_override,"ax",%progbits
 320              		.align	1
 321              		.global	rxpdo_override
 322              		.syntax unified
 323              		.thumb
 324              		.thumb_func
 326              	rxpdo_override:
 327              	.LFB137:
 110:Core/Src/pdo_override.c ****     spi_dma_rxpdo_start();
 328              		.loc 1 110 1 is_stmt 1 view -0
 329              		.cfi_startproc
 330              		@ args = 0, pretend = 0, frame = 0
 331              		@ frame_needed = 0, uses_anonymous_args = 0
 332 0000 08B5     		push	{r3, lr}
 333              		.cfi_def_cfa_offset 8
 334              		.cfi_offset 3, -8
 335              		.cfi_offset 14, -4
 111:Core/Src/pdo_override.c ****     while (pdi_dma_transmission == IN_PROGRESS)
 336              		.loc 1 111 5 view .LVU51
 337 0002 FFF7FEFF 		bl	spi_dma_rxpdo_start
 338              	.LVL12:
ARM GAS  /tmp/ccvC9ew0.s 			page 9


 112:Core/Src/pdo_override.c ****     {
 339              		.loc 1 112 5 view .LVU52
 340              	.L28:
 114:Core/Src/pdo_override.c ****     on_rxpdo_transfer_finished();
 341              		.loc 1 114 5 discriminator 1 view .LVU53
 112:Core/Src/pdo_override.c ****     {
 342              		.loc 1 112 11 discriminator 1 view .LVU54
 112:Core/Src/pdo_override.c ****     {
 343              		.loc 1 112 33 is_stmt 0 discriminator 1 view .LVU55
 344 0006 044B     		ldr	r3, .L30
 345 0008 1B78     		ldrb	r3, [r3]	@ zero_extendqisi2
 346 000a DBB2     		uxtb	r3, r3
 112:Core/Src/pdo_override.c ****     {
 347              		.loc 1 112 11 discriminator 1 view .LVU56
 348 000c 012B     		cmp	r3, #1
 349 000e FAD0     		beq	.L28
 115:Core/Src/pdo_override.c **** }
 350              		.loc 1 115 5 is_stmt 1 view .LVU57
 351 0010 FFF7FEFF 		bl	on_rxpdo_transfer_finished
 352              	.LVL13:
 116:Core/Src/pdo_override.c **** 
 353              		.loc 1 116 1 is_stmt 0 view .LVU58
 354 0014 08BD     		pop	{r3, pc}
 355              	.L31:
 356 0016 00BF     		.align	2
 357              	.L30:
 358 0018 00000000 		.word	.LANCHOR2
 359              		.cfi_endproc
 360              	.LFE137:
 362              		.section	.text.on_txpdo_transfer_finished,"ax",%progbits
 363              		.align	1
 364              		.global	on_txpdo_transfer_finished
 365              		.syntax unified
 366              		.thumb
 367              		.thumb_func
 369              	on_txpdo_transfer_finished:
 370              	.LFB140:
 128:Core/Src/pdo_override.c **** 
 129:Core/Src/pdo_override.c **** void txpdo_override(void)
 130:Core/Src/pdo_override.c **** {
 131:Core/Src/pdo_override.c ****     if (MAX_MAPPINGS_SM3 > 0)
 132:Core/Src/pdo_override.c ****     {
 133:Core/Src/pdo_override.c ****         COE_pdoPack(pdo_coe_txbuf, ESCvar.sm3mappings, SMmap3);
 134:Core/Src/pdo_override.c ****     }
 135:Core/Src/pdo_override.c **** 
 136:Core/Src/pdo_override.c ****     spi_dma_txpdo_start();
 137:Core/Src/pdo_override.c ****     while (pdi_dma_transmission == IN_PROGRESS)
 138:Core/Src/pdo_override.c ****     {
 139:Core/Src/pdo_override.c ****     } /* polling to end of transfer flag */
 140:Core/Src/pdo_override.c ****     on_txpdo_transfer_finished();
 141:Core/Src/pdo_override.c **** }
 142:Core/Src/pdo_override.c **** 
 143:Core/Src/pdo_override.c **** void on_txpdo_transfer_finished(void)
 144:Core/Src/pdo_override.c **** {
 371              		.loc 1 144 1 is_stmt 1 view -0
 372              		.cfi_startproc
 373              		@ args = 0, pretend = 0, frame = 0
ARM GAS  /tmp/ccvC9ew0.s 			page 10


 374              		@ frame_needed = 0, uses_anonymous_args = 0
 375 0000 08B5     		push	{r3, lr}
 376              		.cfi_def_cfa_offset 8
 377              		.cfi_offset 3, -8
 378              		.cfi_offset 14, -4
 145:Core/Src/pdo_override.c ****     spi_dma_stop();
 379              		.loc 1 145 5 view .LVU60
 380 0002 FFF7FEFF 		bl	spi_dma_stop
 381              	.LVL14:
 146:Core/Src/pdo_override.c ****     ESCvar.ALevent = etohs((uint16_t)*pdo_spi_rxbuf);
 382              		.loc 1 146 5 view .LVU61
 383              		.loc 1 146 22 is_stmt 0 view .LVU62
 384 0006 034B     		ldr	r3, .L34
 385 0008 1B68     		ldr	r3, [r3]
 386 000a 1A78     		ldrb	r2, [r3]	@ zero_extendqisi2
 387              		.loc 1 146 20 view .LVU63
 388 000c 024B     		ldr	r3, .L34+4
 389 000e C3F8E420 		str	r2, [r3, #228]
 147:Core/Src/pdo_override.c **** }...
 390              		.loc 1 147 1 view .LVU64
 391 0012 08BD     		pop	{r3, pc}
 392              	.L35:
 393              		.align	2
 394              	.L34:
 395 0014 00000000 		.word	.LANCHOR0
 396 0018 00000000 		.word	ESCvar
 397              		.cfi_endproc
 398              	.LFE140:
 400              		.section	.text.txpdo_override,"ax",%progbits
 401              		.align	1
 402              		.global	txpdo_override
 403              		.syntax unified
 404              		.thumb
 405              		.thumb_func
 407              	txpdo_override:
 408              	.LFB139:
 130:Core/Src/pdo_override.c **** {
 409              		.loc 1 130 1 is_stmt 1 view -0
 410              		.cfi_startproc
 411              		@ args = 0, pretend = 0, frame = 0
 412              		@ frame_needed = 0, uses_anonymous_args = 0
 413 0000 08B5     		push	{r3, lr}
 414              		.cfi_def_cfa_offset 8
 415              		.cfi_offset 3, -8
 416              		.cfi_offset 14, -4
 131:Core/Src/pdo_override.c ****     if (MAX_MAPPINGS_SM3 > 0)
 417              		.loc 1 131 5 view .LVU66
 133:Core/Src/pdo_override.c ****         COE_pdoPack(pdo_coe_txbuf, ESCvar.sm3mappings, SMmap3);
 418              		.loc 1 133 9 view .LVU67
 419 0002 094A     		ldr	r2, .L39
 420 0004 094B     		ldr	r3, .L39+4
 421 0006 D3F8B010 		ldr	r1, [r3, #176]
 422 000a 094B     		ldr	r3, .L39+8
 423 000c 1868     		ldr	r0, [r3]
 424 000e FFF7FEFF 		bl	COE_pdoPack
 425              	.LVL15:
 136:Core/Src/pdo_override.c ****     spi_dma_txpdo_start();
ARM GAS  /tmp/ccvC9ew0.s 			page 11


 426              		.loc 1 136 5 view .LVU68
 427 0012 FFF7FEFF 		bl	spi_dma_txpdo_start
 428              	.LVL16:
 137:Core/Src/pdo_override.c ****     while (pdi_dma_transmission == IN_PROGRESS)
 429              		.loc 1 137 5 view .LVU69
 430              	.L37:
 139:Core/Src/pdo_override.c ****     } /* polling to end of transfer flag */
 431              		.loc 1 139 5 discriminator 1 view .LVU70
 137:Core/Src/pdo_override.c ****     while (pdi_dma_transmission == IN_PROGRESS)
 432              		.loc 1 137 11 discriminator 1 view .LVU71
 137:Core/Src/pdo_override.c ****     while (pdi_dma_transmission == IN_PROGRESS)
 433              		.loc 1 137 33 is_stmt 0 discriminator 1 view .LVU72
 434 0016 074B     		ldr	r3, .L39+12
 435 0018 1B78     		ldrb	r3, [r3]	@ zero_extendqisi2
 436 001a DBB2     		uxtb	r3, r3
 137:Core/Src/pdo_override.c ****     while (pdi_dma_transmission == IN_PROGRESS)
 437              		.loc 1 137 11 discriminator 1 view .LVU73
 438 001c 012B     		cmp	r3, #1
 439 001e FAD0     		beq	.L37
 140:Core/Src/pdo_override.c ****     on_txpdo_transfer_finished();
 440              		.loc 1 140 5 is_stmt 1 view .LVU74
 441 0020 FFF7FEFF 		bl	on_txpdo_transfer_finished
 442              	.LVL17:
 141:Core/Src/pdo_override.c **** }
 443              		.loc 1 141 1 is_stmt 0 view .LVU75
 444 0024 08BD     		pop	{r3, pc}
 445              	.L40:
 446 0026 00BF     		.align	2
 447              	.L39:
 448 0028 00000000 		.word	SMmap3
 449 002c 00000000 		.word	ESCvar
 450 0030 00000000 		.word	.LANCHOR3
 451 0034 00000000 		.word	.LANCHOR2
 452              		.cfi_endproc
 453              	.LFE139:
 455              		.global	pdo_coe_txbuf
 456              		.global	pdo_spi_txbuf
 457              		.global	pdo_txbuf
 458              		.global	pdo_coe_rxbuf
 459              		.global	pdo_spi_rxbuf
 460              		.global	pdo_rxbuf
 461              		.global	pdi_dma_transmission
 462              		.section	.bss.pdi_dma_transmission,"aw",%nobits
 463              		.set	.LANCHOR2,. + 0
 466              	pdi_dma_transmission:
 467 0000 00       		.space	1
 468              		.section	.bss.pdo_rxbuf,"aw",%nobits
 469              		.align	3
 472              	pdo_rxbuf:
 473 0000 00000000 		.space	10
 473      00000000 
 473      0000
 474              		.section	.bss.pdo_txbuf,"aw",%nobits
 475              		.align	3
 478              	pdo_txbuf:
 479 0000 00000000 		.space	11
 479      00000000 
ARM GAS  /tmp/ccvC9ew0.s 			page 12


 479      000000
 480              		.section	.data.pdo_coe_rxbuf,"aw"
 481              		.align	2
 482              		.set	.LANCHOR4,. + 0
 485              	pdo_coe_rxbuf:
 486 0000 08000000 		.word	pdo_rxbuf+8
 487              		.section	.data.pdo_coe_txbuf,"aw"
 488              		.align	2
 489              		.set	.LANCHOR3,. + 0
 492              	pdo_coe_txbuf:
 493 0000 08000000 		.word	pdo_txbuf+8
 494              		.section	.data.pdo_spi_rxbuf,"aw"
 495              		.align	2
 496              		.set	.LANCHOR0,. + 0
 499              	pdo_spi_rxbuf:
 500 0000 05000000 		.word	pdo_rxbuf+5
 501              		.section	.data.pdo_spi_txbuf,"aw"
 502              		.align	2
 503              		.set	.LANCHOR1,. + 0
 506              	pdo_spi_txbuf:
 507 0000 06000000 		.word	pdo_txbuf+6
 508              		.text
 509              	.Letext0:
 510              		.file 2 "/usr/share/gcc-arm-none-eabi-10.3-2021.10/lib/gcc/arm-none-eabi/10.3.1/include/stddef.h"
 511              		.file 3 "/usr/share/gcc-arm-none-eabi-10.3-2021.10/arm-none-eabi/include/machine/_default_types.h"
 512              		.file 4 "/usr/share/gcc-arm-none-eabi-10.3-2021.10/arm-none-eabi/include/sys/_stdint.h"
 513              		.file 5 "Drivers/CMSIS/Device/ST/STM32F4xx/Include/stm32f405xx.h"
 514              		.file 6 "Drivers/STM32F4xx_HAL_Driver/Inc/stm32f4xx_hal_def.h"
 515              		.file 7 "Drivers/STM32F4xx_HAL_Driver/Inc/stm32f4xx_hal_dma.h"
 516              		.file 8 "Drivers/STM32F4xx_HAL_Driver/Inc/stm32f4xx_hal_spi.h"
 517              		.file 9 "Lib/soes/include/esc_coe.h"
 518              		.file 10 "Lib/soes/include/esc.h"
 519              		.file 11 "Core/Inc/pdo_override.h"
 520              		.file 12 "Lib/soes_hal_bsp/include/spi.h"
ARM GAS  /tmp/ccvC9ew0.s 			page 13


DEFINED SYMBOLS
                            *ABS*:0000000000000000 pdo_override.c
     /tmp/ccvC9ew0.s:20     .text.spi_dma_prepare_transmission:0000000000000000 $t
     /tmp/ccvC9ew0.s:26     .text.spi_dma_prepare_transmission:0000000000000000 spi_dma_prepare_transmission
     /tmp/ccvC9ew0.s:76     .text.spi_dma_setup:0000000000000000 $t
     /tmp/ccvC9ew0.s:82     .text.spi_dma_setup:0000000000000000 spi_dma_setup
     /tmp/ccvC9ew0.s:95     .text.spi_dma_start:0000000000000000 $t
     /tmp/ccvC9ew0.s:101    .text.spi_dma_start:0000000000000000 spi_dma_start
     /tmp/ccvC9ew0.s:134    .text.spi_dma_start:0000000000000020 $d
     /tmp/ccvC9ew0.s:142    .text.spi_dma_stop:0000000000000000 $t
     /tmp/ccvC9ew0.s:148    .text.spi_dma_stop:0000000000000000 spi_dma_stop
     /tmp/ccvC9ew0.s:168    .text.spi_dma_rxpdo_start:0000000000000000 $t
     /tmp/ccvC9ew0.s:174    .text.spi_dma_rxpdo_start:0000000000000000 spi_dma_rxpdo_start
     /tmp/ccvC9ew0.s:204    .text.spi_dma_rxpdo_start:0000000000000020 $d
     /tmp/ccvC9ew0.s:210    .text.spi_dma_txpdo_start:0000000000000000 $t
     /tmp/ccvC9ew0.s:216    .text.spi_dma_txpdo_start:0000000000000000 spi_dma_txpdo_start
     /tmp/ccvC9ew0.s:241    .text.spi_dma_txpdo_start:0000000000000018 $d
     /tmp/ccvC9ew0.s:246    .text.init_override:0000000000000000 $t
     /tmp/ccvC9ew0.s:252    .text.init_override:0000000000000000 init_override
     /tmp/ccvC9ew0.s:272    .text.on_rxpdo_transfer_finished:0000000000000000 $t
     /tmp/ccvC9ew0.s:278    .text.on_rxpdo_transfer_finished:0000000000000000 on_rxpdo_transfer_finished
     /tmp/ccvC9ew0.s:312    .text.on_rxpdo_transfer_finished:0000000000000024 $d
     /tmp/ccvC9ew0.s:320    .text.rxpdo_override:0000000000000000 $t
     /tmp/ccvC9ew0.s:326    .text.rxpdo_override:0000000000000000 rxpdo_override
     /tmp/ccvC9ew0.s:358    .text.rxpdo_override:0000000000000018 $d
     /tmp/ccvC9ew0.s:363    .text.on_txpdo_transfer_finished:0000000000000000 $t
     /tmp/ccvC9ew0.s:369    .text.on_txpdo_transfer_finished:0000000000000000 on_txpdo_transfer_finished
     /tmp/ccvC9ew0.s:395    .text.on_txpdo_transfer_finished:0000000000000014 $d
     /tmp/ccvC9ew0.s:401    .text.txpdo_override:0000000000000000 $t
     /tmp/ccvC9ew0.s:407    .text.txpdo_override:0000000000000000 txpdo_override
     /tmp/ccvC9ew0.s:448    .text.txpdo_override:0000000000000028 $d
     /tmp/ccvC9ew0.s:492    .data.pdo_coe_txbuf:0000000000000000 pdo_coe_txbuf
     /tmp/ccvC9ew0.s:506    .data.pdo_spi_txbuf:0000000000000000 pdo_spi_txbuf
     /tmp/ccvC9ew0.s:478    .bss.pdo_txbuf:0000000000000000 pdo_txbuf
     /tmp/ccvC9ew0.s:485    .data.pdo_coe_rxbuf:0000000000000000 pdo_coe_rxbuf
     /tmp/ccvC9ew0.s:499    .data.pdo_spi_rxbuf:0000000000000000 pdo_spi_rxbuf
     /tmp/ccvC9ew0.s:472    .bss.pdo_rxbuf:0000000000000000 pdo_rxbuf
     /tmp/ccvC9ew0.s:466    .bss.pdi_dma_transmission:0000000000000000 pdi_dma_transmission
     /tmp/ccvC9ew0.s:467    .bss.pdi_dma_transmission:0000000000000000 $d
     /tmp/ccvC9ew0.s:469    .bss.pdo_rxbuf:0000000000000000 $d
     /tmp/ccvC9ew0.s:475    .bss.pdo_txbuf:0000000000000000 $d
     /tmp/ccvC9ew0.s:481    .data.pdo_coe_rxbuf:0000000000000000 $d
     /tmp/ccvC9ew0.s:488    .data.pdo_coe_txbuf:0000000000000000 $d
     /tmp/ccvC9ew0.s:495    .data.pdo_spi_rxbuf:0000000000000000 $d
     /tmp/ccvC9ew0.s:502    .data.pdo_spi_txbuf:0000000000000000 $d

UNDEFINED SYMBOLS
spi_select
HAL_SPI_TransmitReceive_DMA
hspi2
spi_unselect
spi_setup
COE_pdoUnpack
ESCvar
SMmap2
COE_pdoPack
SMmap3
ARM GAS  /tmp/ccvC9ew0.s 			page 14


