ARM GAS  /tmp/ccZuktbJ.s 			page 1


   1              		.cpu cortex-m4
   2              		.arch armv7e-m
   3              		.fpu fpv4-sp-d16
   4              		.eabi_attribute 27, 1
   5              		.eabi_attribute 28, 1
   6              		.eabi_attribute 20, 1
   7              		.eabi_attribute 21, 1
   8              		.eabi_attribute 23, 3
   9              		.eabi_attribute 24, 1
  10              		.eabi_attribute 25, 1
  11              		.eabi_attribute 26, 1
  12              		.eabi_attribute 30, 1
  13              		.eabi_attribute 34, 1
  14              		.eabi_attribute 18, 4
  15              		.file	"spi.c"
  16              		.text
  17              	.Ltext0:
  18              		.cfi_sections	.debug_frame
  19              		.section	.text.spi_gpio_setup,"ax",%progbits
  20              		.align	1
  21              		.global	spi_gpio_setup
  22              		.syntax unified
  23              		.thumb
  24              		.thumb_func
  26              	spi_gpio_setup:
  27              	.LFB130:
  28              		.file 1 "Lib/soes_hal_bsp/src/spi.c"
   1:Lib/soes_hal_bsp/src/spi.c **** #include "spi.h"
   2:Lib/soes_hal_bsp/src/spi.c **** #include "main.h"
   3:Lib/soes_hal_bsp/src/spi.c **** 
   4:Lib/soes_hal_bsp/src/spi.c **** extern SPI_HandleTypeDef hspi2;
   5:Lib/soes_hal_bsp/src/spi.c **** 
   6:Lib/soes_hal_bsp/src/spi.c **** void spi_gpio_setup(void)
   7:Lib/soes_hal_bsp/src/spi.c **** {
  29              		.loc 1 7 1 view -0
  30              		.cfi_startproc
  31              		@ args = 0, pretend = 0, frame = 0
  32              		@ frame_needed = 0, uses_anonymous_args = 0
  33              		@ link register save eliminated.
   8:Lib/soes_hal_bsp/src/spi.c ****     // init in hal
   9:Lib/soes_hal_bsp/src/spi.c **** }
  34              		.loc 1 9 1 view .LVU1
  35 0000 7047     		bx	lr
  36              		.cfi_endproc
  37              	.LFE130:
  39              		.section	.text.spi_setup,"ax",%progbits
  40              		.align	1
  41              		.global	spi_setup
  42              		.syntax unified
  43              		.thumb
  44              		.thumb_func
  46              	spi_setup:
  47              	.LFB131:
  10:Lib/soes_hal_bsp/src/spi.c **** 
  11:Lib/soes_hal_bsp/src/spi.c **** void spi_setup(void)
  12:Lib/soes_hal_bsp/src/spi.c **** {
  48              		.loc 1 12 1 view -0
ARM GAS  /tmp/ccZuktbJ.s 			page 2


  49              		.cfi_startproc
  50              		@ args = 0, pretend = 0, frame = 0
  51              		@ frame_needed = 0, uses_anonymous_args = 0
  52              		@ link register save eliminated.
  13:Lib/soes_hal_bsp/src/spi.c ****     // init in hal
  14:Lib/soes_hal_bsp/src/spi.c **** }
  53              		.loc 1 14 1 view .LVU3
  54 0000 7047     		bx	lr
  55              		.cfi_endproc
  56              	.LFE131:
  58              		.section	.text.spi_select,"ax",%progbits
  59              		.align	1
  60              		.global	spi_select
  61              		.syntax unified
  62              		.thumb
  63              		.thumb_func
  65              	spi_select:
  66              	.LVL0:
  67              	.LFB132:
  15:Lib/soes_hal_bsp/src/spi.c **** 
  16:Lib/soes_hal_bsp/src/spi.c **** void spi_select(int8_t board)
  17:Lib/soes_hal_bsp/src/spi.c **** {
  68              		.loc 1 17 1 view -0
  69              		.cfi_startproc
  70              		@ args = 0, pretend = 0, frame = 0
  71              		@ frame_needed = 0, uses_anonymous_args = 0
  72              		.loc 1 17 1 is_stmt 0 view .LVU5
  73 0000 08B5     		push	{r3, lr}
  74              		.cfi_def_cfa_offset 8
  75              		.cfi_offset 3, -8
  76              		.cfi_offset 14, -4
  18:Lib/soes_hal_bsp/src/spi.c ****     HAL_GPIO_WritePin(SPI2_NSS_GPIO_Port, SPI2_NSS_Pin, GPIO_PIN_RESET);
  77              		.loc 1 18 5 is_stmt 1 view .LVU6
  78 0002 0022     		movs	r2, #0
  79 0004 4FF48071 		mov	r1, #256
  80 0008 0148     		ldr	r0, .L5
  81              	.LVL1:
  82              		.loc 1 18 5 is_stmt 0 view .LVU7
  83 000a FFF7FEFF 		bl	HAL_GPIO_WritePin
  84              	.LVL2:
  19:Lib/soes_hal_bsp/src/spi.c **** }
  85              		.loc 1 19 1 view .LVU8
  86 000e 08BD     		pop	{r3, pc}
  87              	.L6:
  88              		.align	2
  89              	.L5:
  90 0010 00040240 		.word	1073873920
  91              		.cfi_endproc
  92              	.LFE132:
  94              		.section	.text.spi_unselect,"ax",%progbits
  95              		.align	1
  96              		.global	spi_unselect
  97              		.syntax unified
  98              		.thumb
  99              		.thumb_func
 101              	spi_unselect:
 102              	.LVL3:
ARM GAS  /tmp/ccZuktbJ.s 			page 3


 103              	.LFB133:
  20:Lib/soes_hal_bsp/src/spi.c **** 
  21:Lib/soes_hal_bsp/src/spi.c **** void spi_unselect(int8_t board)
  22:Lib/soes_hal_bsp/src/spi.c **** {
 104              		.loc 1 22 1 is_stmt 1 view -0
 105              		.cfi_startproc
 106              		@ args = 0, pretend = 0, frame = 0
 107              		@ frame_needed = 0, uses_anonymous_args = 0
 108              		.loc 1 22 1 is_stmt 0 view .LVU10
 109 0000 08B5     		push	{r3, lr}
 110              		.cfi_def_cfa_offset 8
 111              		.cfi_offset 3, -8
 112              		.cfi_offset 14, -4
  23:Lib/soes_hal_bsp/src/spi.c ****     HAL_GPIO_WritePin(SPI2_NSS_GPIO_Port, SPI2_NSS_Pin, GPIO_PIN_SET);
 113              		.loc 1 23 5 is_stmt 1 view .LVU11
 114 0002 0122     		movs	r2, #1
 115 0004 4FF48071 		mov	r1, #256
 116 0008 0148     		ldr	r0, .L9
 117              	.LVL4:
 118              		.loc 1 23 5 is_stmt 0 view .LVU12
 119 000a FFF7FEFF 		bl	HAL_GPIO_WritePin
 120              	.LVL5:
  24:Lib/soes_hal_bsp/src/spi.c **** }
 121              		.loc 1 24 1 view .LVU13
 122 000e 08BD     		pop	{r3, pc}
 123              	.L10:
 124              		.align	2
 125              	.L9:
 126 0010 00040240 		.word	1073873920
 127              		.cfi_endproc
 128              	.LFE133:
 130              		.section	.text.spi_write,"ax",%progbits
 131              		.align	1
 132              		.global	spi_write
 133              		.syntax unified
 134              		.thumb
 135              		.thumb_func
 137              	spi_write:
 138              	.LVL6:
 139              	.LFB134:
  25:Lib/soes_hal_bsp/src/spi.c **** 
  26:Lib/soes_hal_bsp/src/spi.c **** void spi_write(int8_t board, uint8_t *data, uint8_t size)
  27:Lib/soes_hal_bsp/src/spi.c **** {
 140              		.loc 1 27 1 is_stmt 1 view -0
 141              		.cfi_startproc
 142              		@ args = 0, pretend = 0, frame = 0
 143              		@ frame_needed = 0, uses_anonymous_args = 0
 144              		.loc 1 27 1 is_stmt 0 view .LVU15
 145 0000 08B5     		push	{r3, lr}
 146              		.cfi_def_cfa_offset 8
 147              		.cfi_offset 3, -8
 148              		.cfi_offset 14, -4
  28:Lib/soes_hal_bsp/src/spi.c ****     HAL_SPI_Transmit(&hspi2, data, size, 100);
 149              		.loc 1 28 5 is_stmt 1 view .LVU16
 150 0002 6423     		movs	r3, #100
 151 0004 0148     		ldr	r0, .L13
 152              	.LVL7:
ARM GAS  /tmp/ccZuktbJ.s 			page 4


 153              		.loc 1 28 5 is_stmt 0 view .LVU17
 154 0006 FFF7FEFF 		bl	HAL_SPI_Transmit
 155              	.LVL8:
  29:Lib/soes_hal_bsp/src/spi.c **** }
 156              		.loc 1 29 1 view .LVU18
 157 000a 08BD     		pop	{r3, pc}
 158              	.L14:
 159              		.align	2
 160              	.L13:
 161 000c 00000000 		.word	hspi2
 162              		.cfi_endproc
 163              	.LFE134:
 165              		.section	.text.spi_bidirectionally_transfer,"ax",%progbits
 166              		.align	1
 167              		.global	spi_bidirectionally_transfer
 168              		.syntax unified
 169              		.thumb
 170              		.thumb_func
 172              	spi_bidirectionally_transfer:
 173              	.LVL9:
 174              	.LFB135:
  30:Lib/soes_hal_bsp/src/spi.c **** 
  31:Lib/soes_hal_bsp/src/spi.c **** void spi_bidirectionally_transfer(int8_t board, uint8_t *result, uint8_t *data, uint8_t size)
  32:Lib/soes_hal_bsp/src/spi.c **** {
 175              		.loc 1 32 1 is_stmt 1 view -0
 176              		.cfi_startproc
 177              		@ args = 0, pretend = 0, frame = 0
 178              		@ frame_needed = 0, uses_anonymous_args = 0
 179              		.loc 1 32 1 is_stmt 0 view .LVU20
 180 0000 00B5     		push	{lr}
 181              		.cfi_def_cfa_offset 4
 182              		.cfi_offset 14, -4
 183 0002 83B0     		sub	sp, sp, #12
 184              		.cfi_def_cfa_offset 16
 185 0004 0846     		mov	r0, r1
 186              	.LVL10:
 187              		.loc 1 32 1 view .LVU21
 188 0006 1146     		mov	r1, r2
 189              	.LVL11:
  33:Lib/soes_hal_bsp/src/spi.c ****     HAL_SPI_TransmitReceive(&hspi2, data, result, size, 100);
 190              		.loc 1 33 5 is_stmt 1 view .LVU22
 191 0008 6422     		movs	r2, #100
 192              	.LVL12:
 193              		.loc 1 33 5 is_stmt 0 view .LVU23
 194 000a 0092     		str	r2, [sp]
 195 000c 0246     		mov	r2, r0
 196 000e 0348     		ldr	r0, .L17
 197              	.LVL13:
 198              		.loc 1 33 5 view .LVU24
 199 0010 FFF7FEFF 		bl	HAL_SPI_TransmitReceive
 200              	.LVL14:
  34:Lib/soes_hal_bsp/src/spi.c **** }
 201              		.loc 1 34 1 view .LVU25
 202 0014 03B0     		add	sp, sp, #12
 203              		.cfi_def_cfa_offset 4
 204              		@ sp needed
 205 0016 5DF804FB 		ldr	pc, [sp], #4
ARM GAS  /tmp/ccZuktbJ.s 			page 5


 206              	.L18:
 207 001a 00BF     		.align	2
 208              	.L17:
 209 001c 00000000 		.word	hspi2
 210              		.cfi_endproc
 211              	.LFE135:
 213              		.text
 214              	.Letext0:
 215              		.file 2 "/usr/share/gcc-arm-none-eabi-10.3-2021.10/arm-none-eabi/include/machine/_default_types.h"
 216              		.file 3 "/usr/share/gcc-arm-none-eabi-10.3-2021.10/arm-none-eabi/include/sys/_stdint.h"
 217              		.file 4 "Drivers/CMSIS/Device/ST/STM32F4xx/Include/stm32f405xx.h"
 218              		.file 5 "Drivers/STM32F4xx_HAL_Driver/Inc/stm32f4xx_hal_def.h"
 219              		.file 6 "Drivers/STM32F4xx_HAL_Driver/Inc/stm32f4xx_hal_gpio.h"
 220              		.file 7 "Drivers/STM32F4xx_HAL_Driver/Inc/stm32f4xx_hal_dma.h"
 221              		.file 8 "Drivers/STM32F4xx_HAL_Driver/Inc/stm32f4xx_hal_spi.h"
 222              		.file 9 "Core/Inc/ecatapp.h"
ARM GAS  /tmp/ccZuktbJ.s 			page 6

