ARM GAS  /tmp/ccHlxJTG.s 			page 1


   1              		.cpu cortex-m4
   2              		.arch armv7e-m
   3              		.fpu fpv4-sp-d16
   4              		.eabi_attribute 27, 1
   5              		.eabi_attribute 28, 1
   6              		.eabi_attribute 20, 1
   7              		.eabi_attribute 21, 1
   8              		.eabi_attribute 23, 3
   9              		.eabi_attribute 24, 1
  10              		.eabi_attribute 25, 1
  11              		.eabi_attribute 26, 1
  12              		.eabi_attribute 30, 1
  13              		.eabi_attribute 34, 1
  14              		.eabi_attribute 18, 4
  15              		.file	"spi.c"
  16              		.text
  17              	.Ltext0:
  18              		.cfi_sections	.debug_frame
  19              		.section	.text.spi_gpio_setup,"ax",%progbits
  20              		.align	1
  21              		.global	spi_gpio_setup
  22              		.syntax unified
  23              		.thumb
  24              		.thumb_func
  26              	spi_gpio_setup:
  27              	.LFB123:
  28              		.file 1 "Lib/soes_hal_bsp/src/spi.c"
   1:Lib/soes_hal_bsp/src/spi.c **** #include "spi.h"
   2:Lib/soes_hal_bsp/src/spi.c **** 
   3:Lib/soes_hal_bsp/src/spi.c **** 
   4:Lib/soes_hal_bsp/src/spi.c **** void spi_gpio_setup(void)
   5:Lib/soes_hal_bsp/src/spi.c **** {
  29              		.loc 1 5 1 view -0
  30              		.cfi_startproc
  31              		@ args = 0, pretend = 0, frame = 8
  32              		@ frame_needed = 0, uses_anonymous_args = 0
  33 0000 70B5     		push	{r4, r5, r6, lr}
  34              		.cfi_def_cfa_offset 16
  35              		.cfi_offset 4, -16
  36              		.cfi_offset 5, -12
  37              		.cfi_offset 6, -8
  38              		.cfi_offset 14, -4
  39 0002 82B0     		sub	sp, sp, #8
  40              		.cfi_def_cfa_offset 24
   6:Lib/soes_hal_bsp/src/spi.c ****     GPIO_InitTypeDef gpio;
  41              		.loc 1 6 5 view .LVU1
   7:Lib/soes_hal_bsp/src/spi.c ****     RCC_AHB1PeriphClockCmd(RCC_AHB1Periph_GPIOA, ENABLE);
  42              		.loc 1 7 5 view .LVU2
  43 0004 0121     		movs	r1, #1
  44 0006 0846     		mov	r0, r1
  45 0008 FFF7FEFF 		bl	RCC_AHB1PeriphClockCmd
  46              	.LVL0:
   8:Lib/soes_hal_bsp/src/spi.c **** 
   9:Lib/soes_hal_bsp/src/spi.c ****     /* SPI GPIO Configuration --------------------------------------------------*/
  10:Lib/soes_hal_bsp/src/spi.c ****     GPIO_PinAFConfig(GPIOA, GPIO_PinSource5,  GPIO_AF_SPI1);
  47              		.loc 1 10 5 view .LVU3
  48 000c 264D     		ldr	r5, .L3
ARM GAS  /tmp/ccHlxJTG.s 			page 2


  49 000e 0522     		movs	r2, #5
  50 0010 1146     		mov	r1, r2
  51 0012 2846     		mov	r0, r5
  52 0014 FFF7FEFF 		bl	GPIO_PinAFConfig
  53              	.LVL1:
  11:Lib/soes_hal_bsp/src/spi.c ****     GPIO_PinAFConfig(GPIOA, GPIO_PinSource6, GPIO_AF_SPI1);
  54              		.loc 1 11 5 view .LVU4
  55 0018 0522     		movs	r2, #5
  56 001a 0621     		movs	r1, #6
  57 001c 2846     		mov	r0, r5
  58 001e FFF7FEFF 		bl	GPIO_PinAFConfig
  59              	.LVL2:
  12:Lib/soes_hal_bsp/src/spi.c ****     GPIO_PinAFConfig(GPIOA, GPIO_PinSource7, GPIO_AF_SPI1);
  60              		.loc 1 12 5 view .LVU5
  61 0022 0522     		movs	r2, #5
  62 0024 0721     		movs	r1, #7
  63 0026 2846     		mov	r0, r5
  64 0028 FFF7FEFF 		bl	GPIO_PinAFConfig
  65              	.LVL3:
  13:Lib/soes_hal_bsp/src/spi.c **** 
  14:Lib/soes_hal_bsp/src/spi.c ****     /* SPI SCK pin configuration */
  15:Lib/soes_hal_bsp/src/spi.c ****     gpio.GPIO_Pin   = GPIO_Pin_5;
  66              		.loc 1 15 5 view .LVU6
  67              		.loc 1 15 21 is_stmt 0 view .LVU7
  68 002c 2023     		movs	r3, #32
  69 002e 0093     		str	r3, [sp]
  16:Lib/soes_hal_bsp/src/spi.c ****     gpio.GPIO_Mode  = GPIO_Mode_AF;
  70              		.loc 1 16 5 is_stmt 1 view .LVU8
  71              		.loc 1 16 21 is_stmt 0 view .LVU9
  72 0030 0224     		movs	r4, #2
  73 0032 8DF80440 		strb	r4, [sp, #4]
  17:Lib/soes_hal_bsp/src/spi.c ****     gpio.GPIO_Speed = GPIO_Speed_50MHz;
  74              		.loc 1 17 5 is_stmt 1 view .LVU10
  75              		.loc 1 17 21 is_stmt 0 view .LVU11
  76 0036 8DF80540 		strb	r4, [sp, #5]
  18:Lib/soes_hal_bsp/src/spi.c ****     gpio.GPIO_OType = GPIO_OType_PP;
  77              		.loc 1 18 5 is_stmt 1 view .LVU12
  78              		.loc 1 18 21 is_stmt 0 view .LVU13
  79 003a 0026     		movs	r6, #0
  80 003c 8DF80660 		strb	r6, [sp, #6]
  19:Lib/soes_hal_bsp/src/spi.c ****     gpio.GPIO_PuPd  = GPIO_PuPd_DOWN;
  81              		.loc 1 19 5 is_stmt 1 view .LVU14
  82              		.loc 1 19 21 is_stmt 0 view .LVU15
  83 0040 8DF80740 		strb	r4, [sp, #7]
  20:Lib/soes_hal_bsp/src/spi.c ****     GPIO_Init(GPIOA, &gpio);
  84              		.loc 1 20 5 is_stmt 1 view .LVU16
  85 0044 6946     		mov	r1, sp
  86 0046 2846     		mov	r0, r5
  87 0048 FFF7FEFF 		bl	GPIO_Init
  88              	.LVL4:
  21:Lib/soes_hal_bsp/src/spi.c **** 
  22:Lib/soes_hal_bsp/src/spi.c ****     /* SPI  MISO pin configuration */
  23:Lib/soes_hal_bsp/src/spi.c ****     gpio.GPIO_Pin   = GPIO_Pin_6;
  89              		.loc 1 23 5 view .LVU17
  90              		.loc 1 23 21 is_stmt 0 view .LVU18
  91 004c 4023     		movs	r3, #64
  92 004e 0093     		str	r3, [sp]
ARM GAS  /tmp/ccHlxJTG.s 			page 3


  24:Lib/soes_hal_bsp/src/spi.c ****     gpio.GPIO_Mode  = GPIO_Mode_AF;
  93              		.loc 1 24 5 is_stmt 1 view .LVU19
  94              		.loc 1 24 21 is_stmt 0 view .LVU20
  95 0050 8DF80440 		strb	r4, [sp, #4]
  25:Lib/soes_hal_bsp/src/spi.c ****     gpio.GPIO_Speed = GPIO_Speed_50MHz;
  96              		.loc 1 25 5 is_stmt 1 view .LVU21
  97              		.loc 1 25 21 is_stmt 0 view .LVU22
  98 0054 8DF80540 		strb	r4, [sp, #5]
  26:Lib/soes_hal_bsp/src/spi.c ****     gpio.GPIO_OType = GPIO_OType_PP;
  99              		.loc 1 26 5 is_stmt 1 view .LVU23
 100              		.loc 1 26 21 is_stmt 0 view .LVU24
 101 0058 8DF80660 		strb	r6, [sp, #6]
  27:Lib/soes_hal_bsp/src/spi.c ****     gpio.GPIO_PuPd  = GPIO_PuPd_DOWN;
 102              		.loc 1 27 5 is_stmt 1 view .LVU25
 103              		.loc 1 27 21 is_stmt 0 view .LVU26
 104 005c 8DF80740 		strb	r4, [sp, #7]
  28:Lib/soes_hal_bsp/src/spi.c ****     GPIO_Init(GPIOA, &gpio);  
 105              		.loc 1 28 5 is_stmt 1 view .LVU27
 106 0060 6946     		mov	r1, sp
 107 0062 2846     		mov	r0, r5
 108 0064 FFF7FEFF 		bl	GPIO_Init
 109              	.LVL5:
  29:Lib/soes_hal_bsp/src/spi.c **** 
  30:Lib/soes_hal_bsp/src/spi.c ****     /* SPI  MOSI pin configuration */
  31:Lib/soes_hal_bsp/src/spi.c ****     gpio.GPIO_Pin   = GPIO_Pin_7;
 110              		.loc 1 31 5 view .LVU28
 111              		.loc 1 31 21 is_stmt 0 view .LVU29
 112 0068 8023     		movs	r3, #128
 113 006a 0093     		str	r3, [sp]
  32:Lib/soes_hal_bsp/src/spi.c ****     gpio.GPIO_Mode  = GPIO_Mode_AF;
 114              		.loc 1 32 5 is_stmt 1 view .LVU30
 115              		.loc 1 32 21 is_stmt 0 view .LVU31
 116 006c 8DF80440 		strb	r4, [sp, #4]
  33:Lib/soes_hal_bsp/src/spi.c ****     gpio.GPIO_Speed = GPIO_Speed_50MHz;
 117              		.loc 1 33 5 is_stmt 1 view .LVU32
 118              		.loc 1 33 21 is_stmt 0 view .LVU33
 119 0070 8DF80540 		strb	r4, [sp, #5]
  34:Lib/soes_hal_bsp/src/spi.c ****     gpio.GPIO_OType = GPIO_OType_PP;
 120              		.loc 1 34 5 is_stmt 1 view .LVU34
 121              		.loc 1 34 21 is_stmt 0 view .LVU35
 122 0074 8DF80660 		strb	r6, [sp, #6]
  35:Lib/soes_hal_bsp/src/spi.c ****     gpio.GPIO_PuPd  = GPIO_PuPd_DOWN;
 123              		.loc 1 35 5 is_stmt 1 view .LVU36
 124              		.loc 1 35 21 is_stmt 0 view .LVU37
 125 0078 8DF80740 		strb	r4, [sp, #7]
  36:Lib/soes_hal_bsp/src/spi.c ****     GPIO_Init(GPIOA, &gpio);
 126              		.loc 1 36 5 is_stmt 1 view .LVU38
 127 007c 6946     		mov	r1, sp
 128 007e 2846     		mov	r0, r5
 129 0080 FFF7FEFF 		bl	GPIO_Init
 130              	.LVL6:
  37:Lib/soes_hal_bsp/src/spi.c **** 
  38:Lib/soes_hal_bsp/src/spi.c ****     /* CS */
  39:Lib/soes_hal_bsp/src/spi.c ****     gpio.GPIO_Pin   = GPIO_Pin_4; 
 131              		.loc 1 39 5 view .LVU39
 132              		.loc 1 39 21 is_stmt 0 view .LVU40
 133 0084 1023     		movs	r3, #16
ARM GAS  /tmp/ccHlxJTG.s 			page 4


 134 0086 0093     		str	r3, [sp]
  40:Lib/soes_hal_bsp/src/spi.c ****     gpio.GPIO_Mode  = GPIO_Mode_OUT;
 135              		.loc 1 40 5 is_stmt 1 view .LVU41
 136              		.loc 1 40 21 is_stmt 0 view .LVU42
 137 0088 0123     		movs	r3, #1
 138 008a 8DF80430 		strb	r3, [sp, #4]
  41:Lib/soes_hal_bsp/src/spi.c ****     gpio.GPIO_Speed = GPIO_Speed_50MHz;
 139              		.loc 1 41 5 is_stmt 1 view .LVU43
 140              		.loc 1 41 21 is_stmt 0 view .LVU44
 141 008e 8DF80540 		strb	r4, [sp, #5]
  42:Lib/soes_hal_bsp/src/spi.c ****     gpio.GPIO_OType = GPIO_OType_PP;
 142              		.loc 1 42 5 is_stmt 1 view .LVU45
 143              		.loc 1 42 21 is_stmt 0 view .LVU46
 144 0092 8DF80660 		strb	r6, [sp, #6]
  43:Lib/soes_hal_bsp/src/spi.c ****     gpio.GPIO_PuPd  = GPIO_PuPd_UP;
 145              		.loc 1 43 5 is_stmt 1 view .LVU47
 146              		.loc 1 43 21 is_stmt 0 view .LVU48
 147 0096 8DF80730 		strb	r3, [sp, #7]
  44:Lib/soes_hal_bsp/src/spi.c ****     GPIO_Init(GPIOA, &gpio);
 148              		.loc 1 44 5 is_stmt 1 view .LVU49
 149 009a 6946     		mov	r1, sp
 150 009c 2846     		mov	r0, r5
 151 009e FFF7FEFF 		bl	GPIO_Init
 152              	.LVL7:
  45:Lib/soes_hal_bsp/src/spi.c **** }
 153              		.loc 1 45 1 is_stmt 0 view .LVU50
 154 00a2 02B0     		add	sp, sp, #8
 155              		.cfi_def_cfa_offset 16
 156              		@ sp needed
 157 00a4 70BD     		pop	{r4, r5, r6, pc}
 158              	.L4:
 159 00a6 00BF     		.align	2
 160              	.L3:
 161 00a8 00000240 		.word	1073872896
 162              		.cfi_endproc
 163              	.LFE123:
 165              		.section	.text.spi_setup,"ax",%progbits
 166              		.align	1
 167              		.global	spi_setup
 168              		.syntax unified
 169              		.thumb
 170              		.thumb_func
 172              	spi_setup:
 173              	.LFB124:
  46:Lib/soes_hal_bsp/src/spi.c **** 
  47:Lib/soes_hal_bsp/src/spi.c **** void spi_setup(void)
  48:Lib/soes_hal_bsp/src/spi.c **** {
 174              		.loc 1 48 1 is_stmt 1 view -0
 175              		.cfi_startproc
 176              		@ args = 0, pretend = 0, frame = 24
 177              		@ frame_needed = 0, uses_anonymous_args = 0
 178 0000 10B5     		push	{r4, lr}
 179              		.cfi_def_cfa_offset 8
 180              		.cfi_offset 4, -8
 181              		.cfi_offset 14, -4
 182 0002 86B0     		sub	sp, sp, #24
 183              		.cfi_def_cfa_offset 32
ARM GAS  /tmp/ccHlxJTG.s 			page 5


  49:Lib/soes_hal_bsp/src/spi.c ****     spi_gpio_setup();
 184              		.loc 1 49 5 view .LVU52
 185 0004 FFF7FEFF 		bl	spi_gpio_setup
 186              	.LVL8:
  50:Lib/soes_hal_bsp/src/spi.c ****     
  51:Lib/soes_hal_bsp/src/spi.c ****     SPI_InitTypeDef  spi;
 187              		.loc 1 51 5 view .LVU53
  52:Lib/soes_hal_bsp/src/spi.c **** 
  53:Lib/soes_hal_bsp/src/spi.c ****     RCC_APB2PeriphClockCmd(RCC_APB2Periph_SPI1, ENABLE);
 188              		.loc 1 53 5 view .LVU54
 189 0008 0121     		movs	r1, #1
 190 000a 4FF48050 		mov	r0, #4096
 191 000e FFF7FEFF 		bl	RCC_APB2PeriphClockCmd
 192              	.LVL9:
  54:Lib/soes_hal_bsp/src/spi.c **** 
  55:Lib/soes_hal_bsp/src/spi.c ****     SPI_I2S_DeInit(SPI1);
 193              		.loc 1 55 5 view .LVU55
 194 0012 164C     		ldr	r4, .L8
 195 0014 2046     		mov	r0, r4
 196 0016 FFF7FEFF 		bl	SPI_I2S_DeInit
 197              	.LVL10:
  56:Lib/soes_hal_bsp/src/spi.c ****     spi.SPI_Direction         = SPI_Direction_2Lines_FullDuplex;
 198              		.loc 1 56 5 view .LVU56
 199              		.loc 1 56 31 is_stmt 0 view .LVU57
 200 001a 0023     		movs	r3, #0
 201 001c ADF80430 		strh	r3, [sp, #4]	@ movhi
  57:Lib/soes_hal_bsp/src/spi.c ****     spi.SPI_DataSize          = SPI_DataSize_8b;
 202              		.loc 1 57 5 is_stmt 1 view .LVU58
 203              		.loc 1 57 31 is_stmt 0 view .LVU59
 204 0020 ADF80830 		strh	r3, [sp, #8]	@ movhi
  58:Lib/soes_hal_bsp/src/spi.c ****     spi.SPI_CPOL              = SPI_CPOL_Low;
 205              		.loc 1 58 5 is_stmt 1 view .LVU60
 206              		.loc 1 58 31 is_stmt 0 view .LVU61
 207 0024 ADF80A30 		strh	r3, [sp, #10]	@ movhi
  59:Lib/soes_hal_bsp/src/spi.c ****     spi.SPI_CPHA              = SPI_CPHA_1Edge;
 208              		.loc 1 59 5 is_stmt 1 view .LVU62
 209              		.loc 1 59 31 is_stmt 0 view .LVU63
 210 0028 ADF80C30 		strh	r3, [sp, #12]	@ movhi
  60:Lib/soes_hal_bsp/src/spi.c ****     spi.SPI_NSS               = SPI_NSS_Soft;
 211              		.loc 1 60 5 is_stmt 1 view .LVU64
 212              		.loc 1 60 31 is_stmt 0 view .LVU65
 213 002c 4FF40072 		mov	r2, #512
 214 0030 ADF80E20 		strh	r2, [sp, #14]	@ movhi
  61:Lib/soes_hal_bsp/src/spi.c ****     spi.SPI_BaudRatePrescaler = SPI_BaudRatePrescaler_4;
 215              		.loc 1 61 5 is_stmt 1 view .LVU66
 216              		.loc 1 61 31 is_stmt 0 view .LVU67
 217 0034 0822     		movs	r2, #8
 218 0036 ADF81020 		strh	r2, [sp, #16]	@ movhi
  62:Lib/soes_hal_bsp/src/spi.c ****     spi.SPI_FirstBit          = SPI_FirstBit_MSB;
 219              		.loc 1 62 5 is_stmt 1 view .LVU68
 220              		.loc 1 62 31 is_stmt 0 view .LVU69
 221 003a ADF81230 		strh	r3, [sp, #18]	@ movhi
  63:Lib/soes_hal_bsp/src/spi.c ****     spi.SPI_CRCPolynomial     = 7;
 222              		.loc 1 63 5 is_stmt 1 view .LVU70
 223              		.loc 1 63 31 is_stmt 0 view .LVU71
 224 003e 0723     		movs	r3, #7
 225 0040 ADF81430 		strh	r3, [sp, #20]	@ movhi
ARM GAS  /tmp/ccHlxJTG.s 			page 6


  64:Lib/soes_hal_bsp/src/spi.c ****     spi.SPI_Mode              = SPI_Mode_Master;
 226              		.loc 1 64 5 is_stmt 1 view .LVU72
 227              		.loc 1 64 31 is_stmt 0 view .LVU73
 228 0044 4FF48273 		mov	r3, #260
 229 0048 ADF80630 		strh	r3, [sp, #6]	@ movhi
  65:Lib/soes_hal_bsp/src/spi.c ****     SPI_Init(SPI1, &spi);
 230              		.loc 1 65 5 is_stmt 1 view .LVU74
 231 004c 01A9     		add	r1, sp, #4
 232 004e 2046     		mov	r0, r4
 233 0050 FFF7FEFF 		bl	SPI_Init
 234              	.LVL11:
  66:Lib/soes_hal_bsp/src/spi.c **** 
  67:Lib/soes_hal_bsp/src/spi.c ****     while(SPI_I2S_GetFlagStatus(SPI1, SPI_I2S_FLAG_TXE) == RESET) { }
 235              		.loc 1 67 5 view .LVU75
 236              	.L6:
 237              		.loc 1 67 69 discriminator 1 view .LVU76
 238              		.loc 1 67 10 discriminator 1 view .LVU77
 239              		.loc 1 67 11 is_stmt 0 discriminator 1 view .LVU78
 240 0054 0221     		movs	r1, #2
 241 0056 0548     		ldr	r0, .L8
 242 0058 FFF7FEFF 		bl	SPI_I2S_GetFlagStatus
 243              	.LVL12:
 244              		.loc 1 67 10 discriminator 1 view .LVU79
 245 005c 0028     		cmp	r0, #0
 246 005e F9D0     		beq	.L6
  68:Lib/soes_hal_bsp/src/spi.c **** 
  69:Lib/soes_hal_bsp/src/spi.c ****     /* Enable the SPI peripheral */
  70:Lib/soes_hal_bsp/src/spi.c ****     SPI_Cmd(SPI1, ENABLE);
 247              		.loc 1 70 5 is_stmt 1 view .LVU80
 248 0060 0121     		movs	r1, #1
 249 0062 0248     		ldr	r0, .L8
 250 0064 FFF7FEFF 		bl	SPI_Cmd
 251              	.LVL13:
  71:Lib/soes_hal_bsp/src/spi.c **** }
 252              		.loc 1 71 1 is_stmt 0 view .LVU81
 253 0068 06B0     		add	sp, sp, #24
 254              		.cfi_def_cfa_offset 8
 255              		@ sp needed
 256 006a 10BD     		pop	{r4, pc}
 257              	.L9:
 258              		.align	2
 259              	.L8:
 260 006c 00300140 		.word	1073819648
 261              		.cfi_endproc
 262              	.LFE124:
 264              		.section	.text.spi_select,"ax",%progbits
 265              		.align	1
 266              		.global	spi_select
 267              		.syntax unified
 268              		.thumb
 269              		.thumb_func
 271              	spi_select:
 272              	.LVL14:
 273              	.LFB125:
  72:Lib/soes_hal_bsp/src/spi.c **** 
  73:Lib/soes_hal_bsp/src/spi.c **** void spi_select (int8_t board)
  74:Lib/soes_hal_bsp/src/spi.c **** {
ARM GAS  /tmp/ccHlxJTG.s 			page 7


 274              		.loc 1 74 1 is_stmt 1 view -0
 275              		.cfi_startproc
 276              		@ args = 0, pretend = 0, frame = 0
 277              		@ frame_needed = 0, uses_anonymous_args = 0
 278              		.loc 1 74 1 is_stmt 0 view .LVU83
 279 0000 08B5     		push	{r3, lr}
 280              		.cfi_def_cfa_offset 8
 281              		.cfi_offset 3, -8
 282              		.cfi_offset 14, -4
  75:Lib/soes_hal_bsp/src/spi.c ****     // Soft CSM
  76:Lib/soes_hal_bsp/src/spi.c ****     #if SCS_ACTIVE_POLARITY == SCS_LOW
  77:Lib/soes_hal_bsp/src/spi.c ****     GPIO_ResetBits(ESC_GPIOX_CS, ESC_GPIO_Pin_CS);
 283              		.loc 1 77 5 is_stmt 1 view .LVU84
 284 0002 1021     		movs	r1, #16
 285 0004 0148     		ldr	r0, .L12
 286              	.LVL15:
 287              		.loc 1 77 5 is_stmt 0 view .LVU85
 288 0006 FFF7FEFF 		bl	GPIO_ResetBits
 289              	.LVL16:
  78:Lib/soes_hal_bsp/src/spi.c ****     #elif SCS_ACTIVE_POLARITY == SCS_HIGH
  79:Lib/soes_hal_bsp/src/spi.c ****     GPIO_SetBits(ESC_GPIOX_CS, ESC_GPIO_Pin_CS);
  80:Lib/soes_hal_bsp/src/spi.c ****     #endif
  81:Lib/soes_hal_bsp/src/spi.c **** }
 290              		.loc 1 81 1 view .LVU86
 291 000a 08BD     		pop	{r3, pc}
 292              	.L13:
 293              		.align	2
 294              	.L12:
 295 000c 00000240 		.word	1073872896
 296              		.cfi_endproc
 297              	.LFE125:
 299              		.section	.text.spi_unselect,"ax",%progbits
 300              		.align	1
 301              		.global	spi_unselect
 302              		.syntax unified
 303              		.thumb
 304              		.thumb_func
 306              	spi_unselect:
 307              	.LVL17:
 308              	.LFB126:
  82:Lib/soes_hal_bsp/src/spi.c **** 
  83:Lib/soes_hal_bsp/src/spi.c **** void spi_unselect (int8_t board)
  84:Lib/soes_hal_bsp/src/spi.c **** {
 309              		.loc 1 84 1 is_stmt 1 view -0
 310              		.cfi_startproc
 311              		@ args = 0, pretend = 0, frame = 0
 312              		@ frame_needed = 0, uses_anonymous_args = 0
 313              		.loc 1 84 1 is_stmt 0 view .LVU88
 314 0000 08B5     		push	{r3, lr}
 315              		.cfi_def_cfa_offset 8
 316              		.cfi_offset 3, -8
 317              		.cfi_offset 14, -4
  85:Lib/soes_hal_bsp/src/spi.c ****     #if SCS_ACTIVE_POLARITY == SCS_LOW
  86:Lib/soes_hal_bsp/src/spi.c **** 	GPIO_SetBits(ESC_GPIOX_CS, ESC_GPIO_Pin_CS);
 318              		.loc 1 86 2 is_stmt 1 view .LVU89
 319 0002 1021     		movs	r1, #16
 320 0004 0148     		ldr	r0, .L16
ARM GAS  /tmp/ccHlxJTG.s 			page 8


 321              	.LVL18:
 322              		.loc 1 86 2 is_stmt 0 view .LVU90
 323 0006 FFF7FEFF 		bl	GPIO_SetBits
 324              	.LVL19:
  87:Lib/soes_hal_bsp/src/spi.c ****     #elif SCS_ACTIVE_POLARITY == SCS_HIGH
  88:Lib/soes_hal_bsp/src/spi.c ****     GPIO_ResetBits(ESC_GPIOX_CS, ESC_GPIO_Pin_CS);
  89:Lib/soes_hal_bsp/src/spi.c ****     #endif
  90:Lib/soes_hal_bsp/src/spi.c **** }
 325              		.loc 1 90 1 view .LVU91
 326 000a 08BD     		pop	{r3, pc}
 327              	.L17:
 328              		.align	2
 329              	.L16:
 330 000c 00000240 		.word	1073872896
 331              		.cfi_endproc
 332              	.LFE126:
 334              		.section	.text.spi_write,"ax",%progbits
 335              		.align	1
 336              		.global	spi_write
 337              		.syntax unified
 338              		.thumb
 339              		.thumb_func
 341              	spi_write:
 342              	.LVL20:
 343              	.LFB128:
  91:Lib/soes_hal_bsp/src/spi.c **** 
  92:Lib/soes_hal_bsp/src/spi.c **** inline static uint8_t spi_transfer(uint8_t byte)
  93:Lib/soes_hal_bsp/src/spi.c **** {
  94:Lib/soes_hal_bsp/src/spi.c ****     SPI_I2S_SendData(SPIX_ESC, byte);
  95:Lib/soes_hal_bsp/src/spi.c **** 
  96:Lib/soes_hal_bsp/src/spi.c ****     while ( SPI_I2S_GetFlagStatus(SPIX_ESC, SPI_I2S_FLAG_RXNE) == RESET) { }
  97:Lib/soes_hal_bsp/src/spi.c ****     // TODO add timeout
  98:Lib/soes_hal_bsp/src/spi.c **** 
  99:Lib/soes_hal_bsp/src/spi.c ****     return SPI_I2S_ReceiveData(SPIX_ESC);
 100:Lib/soes_hal_bsp/src/spi.c **** }
 101:Lib/soes_hal_bsp/src/spi.c **** 
 102:Lib/soes_hal_bsp/src/spi.c **** void spi_write (int8_t board, uint8_t *data, uint8_t size)
 103:Lib/soes_hal_bsp/src/spi.c **** {
 344              		.loc 1 103 1 is_stmt 1 view -0
 345              		.cfi_startproc
 346              		@ args = 0, pretend = 0, frame = 0
 347              		@ frame_needed = 0, uses_anonymous_args = 0
 348              		.loc 1 103 1 is_stmt 0 view .LVU93
 349 0000 70B5     		push	{r4, r5, r6, lr}
 350              		.cfi_def_cfa_offset 16
 351              		.cfi_offset 4, -16
 352              		.cfi_offset 5, -12
 353              		.cfi_offset 6, -8
 354              		.cfi_offset 14, -4
 355 0002 0E46     		mov	r6, r1
 356 0004 1546     		mov	r5, r2
 104:Lib/soes_hal_bsp/src/spi.c ****     for(int i = 0; i < size; ++i)
 357              		.loc 1 104 5 is_stmt 1 view .LVU94
 358              	.LBB5:
 359              		.loc 1 104 9 view .LVU95
 360              	.LVL21:
 361              		.loc 1 104 13 is_stmt 0 view .LVU96
ARM GAS  /tmp/ccHlxJTG.s 			page 9


 362 0006 0024     		movs	r4, #0
 363              	.LVL22:
 364              	.L19:
 365              		.loc 1 104 20 is_stmt 1 discriminator 1 view .LVU97
 366              		.loc 1 104 5 is_stmt 0 discriminator 1 view .LVU98
 367 0008 A542     		cmp	r5, r4
 368 000a 0EDD     		ble	.L23
 105:Lib/soes_hal_bsp/src/spi.c ****     {
 106:Lib/soes_hal_bsp/src/spi.c ****         spi_transfer(data[i]);
 369              		.loc 1 106 9 is_stmt 1 discriminator 3 view .LVU99
 370              	.LVL23:
 371              	.LBB6:
 372              	.LBI6:
  92:Lib/soes_hal_bsp/src/spi.c **** {
 373              		.loc 1 92 23 discriminator 3 view .LVU100
 374              	.LBB7:
  94:Lib/soes_hal_bsp/src/spi.c **** 
 375              		.loc 1 94 5 discriminator 3 view .LVU101
 376 000c 315D     		ldrb	r1, [r6, r4]	@ zero_extendqisi2
 377              	.LVL24:
  94:Lib/soes_hal_bsp/src/spi.c **** 
 378              		.loc 1 94 5 is_stmt 0 discriminator 3 view .LVU102
 379 000e 0748     		ldr	r0, .L24
 380 0010 FFF7FEFF 		bl	SPI_I2S_SendData
 381              	.LVL25:
  96:Lib/soes_hal_bsp/src/spi.c ****     // TODO add timeout
 382              		.loc 1 96 5 is_stmt 1 discriminator 3 view .LVU103
 383              	.L20:
  96:Lib/soes_hal_bsp/src/spi.c ****     // TODO add timeout
 384              		.loc 1 96 76 view .LVU104
  96:Lib/soes_hal_bsp/src/spi.c ****     // TODO add timeout
 385              		.loc 1 96 11 view .LVU105
  96:Lib/soes_hal_bsp/src/spi.c ****     // TODO add timeout
 386              		.loc 1 96 13 is_stmt 0 view .LVU106
 387 0014 0121     		movs	r1, #1
 388 0016 0548     		ldr	r0, .L24
 389 0018 FFF7FEFF 		bl	SPI_I2S_GetFlagStatus
 390              	.LVL26:
  96:Lib/soes_hal_bsp/src/spi.c ****     // TODO add timeout
 391              		.loc 1 96 11 view .LVU107
 392 001c 0028     		cmp	r0, #0
 393 001e F9D0     		beq	.L20
  99:Lib/soes_hal_bsp/src/spi.c **** }
 394              		.loc 1 99 5 is_stmt 1 view .LVU108
  99:Lib/soes_hal_bsp/src/spi.c **** }
 395              		.loc 1 99 12 is_stmt 0 view .LVU109
 396 0020 0248     		ldr	r0, .L24
 397 0022 FFF7FEFF 		bl	SPI_I2S_ReceiveData
 398              	.LVL27:
  99:Lib/soes_hal_bsp/src/spi.c **** }
 399              		.loc 1 99 12 view .LVU110
 400              	.LBE7:
 401              	.LBE6:
 104:Lib/soes_hal_bsp/src/spi.c ****     {
 402              		.loc 1 104 30 is_stmt 1 view .LVU111
 403 0026 0134     		adds	r4, r4, #1
 404              	.LVL28:
ARM GAS  /tmp/ccHlxJTG.s 			page 10


 104:Lib/soes_hal_bsp/src/spi.c ****     {
 405              		.loc 1 104 30 is_stmt 0 view .LVU112
 406 0028 EEE7     		b	.L19
 407              	.L23:
 104:Lib/soes_hal_bsp/src/spi.c ****     {
 408              		.loc 1 104 30 view .LVU113
 409              	.LBE5:
 107:Lib/soes_hal_bsp/src/spi.c ****     }
 108:Lib/soes_hal_bsp/src/spi.c **** }
 410              		.loc 1 108 1 view .LVU114
 411 002a 70BD     		pop	{r4, r5, r6, pc}
 412              	.LVL29:
 413              	.L25:
 414              		.loc 1 108 1 view .LVU115
 415              		.align	2
 416              	.L24:
 417 002c 00300140 		.word	1073819648
 418              		.cfi_endproc
 419              	.LFE128:
 421              		.section	.text.spi_read,"ax",%progbits
 422              		.align	1
 423              		.global	spi_read
 424              		.syntax unified
 425              		.thumb
 426              		.thumb_func
 428              	spi_read:
 429              	.LVL30:
 430              	.LFB129:
 109:Lib/soes_hal_bsp/src/spi.c **** 
 110:Lib/soes_hal_bsp/src/spi.c **** void spi_read (int8_t board, uint8_t *result, uint8_t size)
 111:Lib/soes_hal_bsp/src/spi.c **** {
 431              		.loc 1 111 1 is_stmt 1 view -0
 432              		.cfi_startproc
 433              		@ args = 0, pretend = 0, frame = 0
 434              		@ frame_needed = 0, uses_anonymous_args = 0
 435              		.loc 1 111 1 is_stmt 0 view .LVU117
 436 0000 F8B5     		push	{r3, r4, r5, r6, r7, lr}
 437              		.cfi_def_cfa_offset 24
 438              		.cfi_offset 3, -24
 439              		.cfi_offset 4, -20
 440              		.cfi_offset 5, -16
 441              		.cfi_offset 6, -12
 442              		.cfi_offset 7, -8
 443              		.cfi_offset 14, -4
 444 0002 0F46     		mov	r7, r1
 445 0004 1646     		mov	r6, r2
 112:Lib/soes_hal_bsp/src/spi.c **** 	for(int i = 0; i < size; ++i)
 446              		.loc 1 112 2 is_stmt 1 view .LVU118
 447              	.LBB11:
 448              		.loc 1 112 6 view .LVU119
 449              	.LVL31:
 450              		.loc 1 112 10 is_stmt 0 view .LVU120
 451 0006 0024     		movs	r4, #0
 452              	.LVL32:
 453              	.L27:
 454              		.loc 1 112 17 is_stmt 1 discriminator 1 view .LVU121
 455              		.loc 1 112 2 is_stmt 0 discriminator 1 view .LVU122
ARM GAS  /tmp/ccHlxJTG.s 			page 11


 456 0008 A642     		cmp	r6, r4
 457 000a 10DD     		ble	.L31
 113:Lib/soes_hal_bsp/src/spi.c ****     {
 114:Lib/soes_hal_bsp/src/spi.c ****         result[i] = spi_transfer(DUMMY_BYTE);
 458              		.loc 1 114 9 is_stmt 1 discriminator 3 view .LVU123
 459              		.loc 1 114 15 is_stmt 0 discriminator 3 view .LVU124
 460 000c 3D19     		adds	r5, r7, r4
 461              	.LVL33:
 462              	.LBB12:
 463              	.LBI12:
  92:Lib/soes_hal_bsp/src/spi.c **** {
 464              		.loc 1 92 23 is_stmt 1 discriminator 3 view .LVU125
 465              	.LBB13:
  94:Lib/soes_hal_bsp/src/spi.c **** 
 466              		.loc 1 94 5 discriminator 3 view .LVU126
 467 000e FF21     		movs	r1, #255
 468 0010 0748     		ldr	r0, .L32
 469 0012 FFF7FEFF 		bl	SPI_I2S_SendData
 470              	.LVL34:
  96:Lib/soes_hal_bsp/src/spi.c ****     // TODO add timeout
 471              		.loc 1 96 5 discriminator 3 view .LVU127
 472              	.L28:
  96:Lib/soes_hal_bsp/src/spi.c ****     // TODO add timeout
 473              		.loc 1 96 76 view .LVU128
  96:Lib/soes_hal_bsp/src/spi.c ****     // TODO add timeout
 474              		.loc 1 96 11 view .LVU129
  96:Lib/soes_hal_bsp/src/spi.c ****     // TODO add timeout
 475              		.loc 1 96 13 is_stmt 0 view .LVU130
 476 0016 0121     		movs	r1, #1
 477 0018 0548     		ldr	r0, .L32
 478 001a FFF7FEFF 		bl	SPI_I2S_GetFlagStatus
 479              	.LVL35:
  96:Lib/soes_hal_bsp/src/spi.c ****     // TODO add timeout
 480              		.loc 1 96 11 view .LVU131
 481 001e 0028     		cmp	r0, #0
 482 0020 F9D0     		beq	.L28
  99:Lib/soes_hal_bsp/src/spi.c **** }
 483              		.loc 1 99 5 is_stmt 1 view .LVU132
  99:Lib/soes_hal_bsp/src/spi.c **** }
 484              		.loc 1 99 12 is_stmt 0 view .LVU133
 485 0022 0348     		ldr	r0, .L32
 486 0024 FFF7FEFF 		bl	SPI_I2S_ReceiveData
 487              	.LVL36:
  99:Lib/soes_hal_bsp/src/spi.c **** }
 488              		.loc 1 99 12 view .LVU134
 489              	.LBE13:
 490              	.LBE12:
 491              		.loc 1 114 19 view .LVU135
 492 0028 2870     		strb	r0, [r5]
 112:Lib/soes_hal_bsp/src/spi.c ****     {
 493              		.loc 1 112 27 is_stmt 1 view .LVU136
 494 002a 0134     		adds	r4, r4, #1
 495              	.LVL37:
 112:Lib/soes_hal_bsp/src/spi.c ****     {
 496              		.loc 1 112 27 is_stmt 0 view .LVU137
 497 002c ECE7     		b	.L27
 498              	.L31:
ARM GAS  /tmp/ccHlxJTG.s 			page 12


 112:Lib/soes_hal_bsp/src/spi.c ****     {
 499              		.loc 1 112 27 view .LVU138
 500              	.LBE11:
 115:Lib/soes_hal_bsp/src/spi.c ****     }
 116:Lib/soes_hal_bsp/src/spi.c **** }
 501              		.loc 1 116 1 view .LVU139
 502 002e F8BD     		pop	{r3, r4, r5, r6, r7, pc}
 503              	.LVL38:
 504              	.L33:
 505              		.loc 1 116 1 view .LVU140
 506              		.align	2
 507              	.L32:
 508 0030 00300140 		.word	1073819648
 509              		.cfi_endproc
 510              	.LFE129:
 512              		.section	.text.spi_bidirectionally_transfer,"ax",%progbits
 513              		.align	1
 514              		.global	spi_bidirectionally_transfer
 515              		.syntax unified
 516              		.thumb
 517              		.thumb_func
 519              	spi_bidirectionally_transfer:
 520              	.LVL39:
 521              	.LFB130:
 117:Lib/soes_hal_bsp/src/spi.c **** 
 118:Lib/soes_hal_bsp/src/spi.c **** 
 119:Lib/soes_hal_bsp/src/spi.c **** void spi_bidirectionally_transfer (int8_t board, uint8_t *result, uint8_t *data, uint8_t size)
 120:Lib/soes_hal_bsp/src/spi.c **** {
 522              		.loc 1 120 1 is_stmt 1 view -0
 523              		.cfi_startproc
 524              		@ args = 0, pretend = 0, frame = 0
 525              		@ frame_needed = 0, uses_anonymous_args = 0
 526              		.loc 1 120 1 is_stmt 0 view .LVU142
 527 0000 2DE9F041 		push	{r4, r5, r6, r7, r8, lr}
 528              		.cfi_def_cfa_offset 24
 529              		.cfi_offset 4, -24
 530              		.cfi_offset 5, -20
 531              		.cfi_offset 6, -16
 532              		.cfi_offset 7, -12
 533              		.cfi_offset 8, -8
 534              		.cfi_offset 14, -4
 535 0004 8846     		mov	r8, r1
 536 0006 1746     		mov	r7, r2
 537 0008 1E46     		mov	r6, r3
 121:Lib/soes_hal_bsp/src/spi.c **** 	for(int i = 0; i < size; ++i)
 538              		.loc 1 121 2 is_stmt 1 view .LVU143
 539              	.LBB17:
 540              		.loc 1 121 6 view .LVU144
 541              	.LVL40:
 542              		.loc 1 121 10 is_stmt 0 view .LVU145
 543 000a 0024     		movs	r4, #0
 544              	.LVL41:
 545              	.L35:
 546              		.loc 1 121 17 is_stmt 1 discriminator 1 view .LVU146
 547              		.loc 1 121 2 is_stmt 0 discriminator 1 view .LVU147
 548 000c A642     		cmp	r6, r4
 549 000e 11DD     		ble	.L39
ARM GAS  /tmp/ccHlxJTG.s 			page 13


 122:Lib/soes_hal_bsp/src/spi.c ****     {
 123:Lib/soes_hal_bsp/src/spi.c ****         result[i] = spi_transfer(data[i]);
 550              		.loc 1 123 9 is_stmt 1 discriminator 3 view .LVU148
 551              		.loc 1 123 15 is_stmt 0 discriminator 3 view .LVU149
 552 0010 08EB0405 		add	r5, r8, r4
 553              	.LVL42:
 554              	.LBB18:
 555              	.LBI18:
  92:Lib/soes_hal_bsp/src/spi.c **** {
 556              		.loc 1 92 23 is_stmt 1 discriminator 3 view .LVU150
 557              	.LBB19:
  94:Lib/soes_hal_bsp/src/spi.c **** 
 558              		.loc 1 94 5 discriminator 3 view .LVU151
 559 0014 395D     		ldrb	r1, [r7, r4]	@ zero_extendqisi2
 560              	.LVL43:
  94:Lib/soes_hal_bsp/src/spi.c **** 
 561              		.loc 1 94 5 is_stmt 0 discriminator 3 view .LVU152
 562 0016 0848     		ldr	r0, .L40
 563 0018 FFF7FEFF 		bl	SPI_I2S_SendData
 564              	.LVL44:
  96:Lib/soes_hal_bsp/src/spi.c ****     // TODO add timeout
 565              		.loc 1 96 5 is_stmt 1 discriminator 3 view .LVU153
 566              	.L36:
  96:Lib/soes_hal_bsp/src/spi.c ****     // TODO add timeout
 567              		.loc 1 96 76 view .LVU154
  96:Lib/soes_hal_bsp/src/spi.c ****     // TODO add timeout
 568              		.loc 1 96 11 view .LVU155
  96:Lib/soes_hal_bsp/src/spi.c ****     // TODO add timeout
 569              		.loc 1 96 13 is_stmt 0 view .LVU156
 570 001c 0121     		movs	r1, #1
 571 001e 0648     		ldr	r0, .L40
 572 0020 FFF7FEFF 		bl	SPI_I2S_GetFlagStatus
 573              	.LVL45:
  96:Lib/soes_hal_bsp/src/spi.c ****     // TODO add timeout
 574              		.loc 1 96 11 view .LVU157
 575 0024 0028     		cmp	r0, #0
 576 0026 F9D0     		beq	.L36
  99:Lib/soes_hal_bsp/src/spi.c **** }
 577              		.loc 1 99 5 is_stmt 1 view .LVU158
  99:Lib/soes_hal_bsp/src/spi.c **** }
 578              		.loc 1 99 12 is_stmt 0 view .LVU159
 579 0028 0348     		ldr	r0, .L40
 580 002a FFF7FEFF 		bl	SPI_I2S_ReceiveData
 581              	.LVL46:
  99:Lib/soes_hal_bsp/src/spi.c **** }
 582              		.loc 1 99 12 view .LVU160
 583              	.LBE19:
 584              	.LBE18:
 585              		.loc 1 123 19 view .LVU161
 586 002e 2870     		strb	r0, [r5]
 121:Lib/soes_hal_bsp/src/spi.c ****     {
 587              		.loc 1 121 27 is_stmt 1 view .LVU162
 588 0030 0134     		adds	r4, r4, #1
 589              	.LVL47:
 121:Lib/soes_hal_bsp/src/spi.c ****     {
 590              		.loc 1 121 27 is_stmt 0 view .LVU163
 591 0032 EBE7     		b	.L35
ARM GAS  /tmp/ccHlxJTG.s 			page 14


 592              	.L39:
 121:Lib/soes_hal_bsp/src/spi.c ****     {
 593              		.loc 1 121 27 view .LVU164
 594              	.LBE17:
 124:Lib/soes_hal_bsp/src/spi.c ****     }
 125:Lib/soes_hal_bsp/src/spi.c **** }
 595              		.loc 1 125 1 view .LVU165
 596 0034 BDE8F081 		pop	{r4, r5, r6, r7, r8, pc}
 597              	.LVL48:
 598              	.L41:
 599              		.loc 1 125 1 view .LVU166
 600              		.align	2
 601              	.L40:
 602 0038 00300140 		.word	1073819648
 603              		.cfi_endproc
 604              	.LFE130:
 606              		.text
 607              	.Letext0:
 608              		.file 2 "/usr/share/gcc-arm-none-eabi-10.3-2021.10/arm-none-eabi/include/machine/_default_types.h"
 609              		.file 3 "/usr/share/gcc-arm-none-eabi-10.3-2021.10/arm-none-eabi/include/sys/_stdint.h"
 610              		.file 4 "Drivers/CMSIS/Device/ST/STM32F4xx/Include/stm32f4xx.h"
 611              		.file 5 "Drivers/STM32F4xx_StdPeriph_Driver/inc/stm32f4xx_gpio.h"
 612              		.file 6 "Drivers/STM32F4xx_StdPeriph_Driver/inc/stm32f4xx_spi.h"
 613              		.file 7 "Drivers/STM32F4xx_StdPeriph_Driver/inc/stm32f4xx_rcc.h"
ARM GAS  /tmp/ccHlxJTG.s 			page 15

