ARM GAS  /tmp/ccSIfEq2.s 			page 1


   1              		.cpu cortex-m4
   2              		.eabi_attribute 27, 1
   3              		.eabi_attribute 28, 1
   4              		.eabi_attribute 20, 1
   5              		.eabi_attribute 21, 1
   6              		.eabi_attribute 23, 3
   7              		.eabi_attribute 24, 1
   8              		.eabi_attribute 25, 1
   9              		.eabi_attribute 26, 1
  10              		.eabi_attribute 30, 1
  11              		.eabi_attribute 34, 1
  12              		.eabi_attribute 18, 4
  13              		.file	"delay.c"
  14              		.text
  15              	.Ltext0:
  16              		.cfi_sections	.debug_frame
  17              		.section	.text.SysTick_Handler,"ax",%progbits
  18              		.align	1
  19              		.global	SysTick_Handler
  20              		.arch armv7e-m
  21              		.syntax unified
  22              		.thumb
  23              		.thumb_func
  24              		.fpu fpv4-sp-d16
  26              	SysTick_Handler:
  27              	.LFB123:
  28              		.file 1 "Lib/bsp/src/delay.c"
   1:Lib/bsp/src/delay.c **** #include "delay.h"
   2:Lib/bsp/src/delay.c **** 
   3:Lib/bsp/src/delay.c **** 
   4:Lib/bsp/src/delay.c **** static uint32_t ticksPerUs = MAX_FREQ_TICKS_PER_US;  // max STM32F40x freq by default
   5:Lib/bsp/src/delay.c **** volatile uint32_t timer_ms = 0;
   6:Lib/bsp/src/delay.c **** 
   7:Lib/bsp/src/delay.c **** 
   8:Lib/bsp/src/delay.c **** void SysTick_Handler()
   9:Lib/bsp/src/delay.c **** {
  29              		.loc 1 9 1 view -0
  30              		.cfi_startproc
  31              		@ args = 0, pretend = 0, frame = 0
  32              		@ frame_needed = 0, uses_anonymous_args = 0
  33              		@ link register save eliminated.
  10:Lib/bsp/src/delay.c ****     timer_ms++;
  34              		.loc 1 10 5 view .LVU1
  35              		.loc 1 10 13 is_stmt 0 view .LVU2
  36 0000 024A     		ldr	r2, .L2
  37 0002 1368     		ldr	r3, [r2]
  38 0004 0133     		adds	r3, r3, #1
  39 0006 1360     		str	r3, [r2]
  11:Lib/bsp/src/delay.c **** }
  40              		.loc 1 11 1 view .LVU3
  41 0008 7047     		bx	lr
  42              	.L3:
  43 000a 00BF     		.align	2
  44              	.L2:
  45 000c 00000000 		.word	.LANCHOR0
  46              		.cfi_endproc
  47              	.LFE123:
ARM GAS  /tmp/ccSIfEq2.s 			page 2


  49              		.section	.text.delay_init,"ax",%progbits
  50              		.align	1
  51              		.global	delay_init
  52              		.syntax unified
  53              		.thumb
  54              		.thumb_func
  55              		.fpu fpv4-sp-d16
  57              	delay_init:
  58              	.LFB124:
  12:Lib/bsp/src/delay.c **** 
  13:Lib/bsp/src/delay.c **** 
  14:Lib/bsp/src/delay.c **** uint32_t delay_init(void) {
  59              		.loc 1 14 27 is_stmt 1 view -0
  60              		.cfi_startproc
  61              		@ args = 0, pretend = 0, frame = 0
  62              		@ frame_needed = 0, uses_anonymous_args = 0
  63              		@ link register save eliminated.
  15:Lib/bsp/src/delay.c **** 	uint32_t c;
  64              		.loc 1 15 2 view .LVU5
  16:Lib/bsp/src/delay.c ****     
  17:Lib/bsp/src/delay.c ****     /* Calculate ticks per us factor */
  18:Lib/bsp/src/delay.c ****     ticksPerUs = (SystemCoreClock / 1000000);
  65              		.loc 1 18 5 view .LVU6
  66              		.loc 1 18 35 is_stmt 0 view .LVU7
  67 0000 134B     		ldr	r3, .L5
  68 0002 1B68     		ldr	r3, [r3]
  69 0004 134A     		ldr	r2, .L5+4
  70 0006 A2FB0323 		umull	r2, r3, r2, r3
  71 000a 9B0C     		lsrs	r3, r3, #18
  72              		.loc 1 18 16 view .LVU8
  73 000c 124A     		ldr	r2, .L5+8
  74 000e 1360     		str	r3, [r2]
  19:Lib/bsp/src/delay.c **** 	
  20:Lib/bsp/src/delay.c ****     /* Enable TRC */
  21:Lib/bsp/src/delay.c ****     CoreDebug->DEMCR &= ~0x01000000;
  75              		.loc 1 21 5 is_stmt 1 view .LVU9
  76              		.loc 1 21 22 is_stmt 0 view .LVU10
  77 0010 124B     		ldr	r3, .L5+12
  78 0012 D3F8FC20 		ldr	r2, [r3, #252]
  79 0016 22F08072 		bic	r2, r2, #16777216
  80 001a C3F8FC20 		str	r2, [r3, #252]
  22:Lib/bsp/src/delay.c ****     CoreDebug->DEMCR |=  0x01000000;
  81              		.loc 1 22 5 is_stmt 1 view .LVU11
  82              		.loc 1 22 22 is_stmt 0 view .LVU12
  83 001e D3F8FC20 		ldr	r2, [r3, #252]
  84 0022 42F08072 		orr	r2, r2, #16777216
  85 0026 C3F8FC20 		str	r2, [r3, #252]
  23:Lib/bsp/src/delay.c **** 	
  24:Lib/bsp/src/delay.c ****     /* Enable counter */
  25:Lib/bsp/src/delay.c ****     DWT->CTRL &= ~0x00000001;
  86              		.loc 1 25 5 is_stmt 1 view .LVU13
  87              		.loc 1 25 15 is_stmt 0 view .LVU14
  88 002a A3F55D43 		sub	r3, r3, #56576
  89 002e 1A68     		ldr	r2, [r3]
  90 0030 22F00102 		bic	r2, r2, #1
  91 0034 1A60     		str	r2, [r3]
  26:Lib/bsp/src/delay.c ****     DWT->CTRL |=  0x00000001;
ARM GAS  /tmp/ccSIfEq2.s 			page 3


  92              		.loc 1 26 5 is_stmt 1 view .LVU15
  93              		.loc 1 26 15 is_stmt 0 view .LVU16
  94 0036 1A68     		ldr	r2, [r3]
  95 0038 42F00102 		orr	r2, r2, #1
  96 003c 1A60     		str	r2, [r3]
  27:Lib/bsp/src/delay.c **** 	
  28:Lib/bsp/src/delay.c ****     /* Reset counter */
  29:Lib/bsp/src/delay.c ****     DWT->CYCCNT = 0;
  97              		.loc 1 29 5 is_stmt 1 view .LVU17
  98              		.loc 1 29 17 is_stmt 0 view .LVU18
  99 003e 0022     		movs	r2, #0
 100 0040 5A60     		str	r2, [r3, #4]
  30:Lib/bsp/src/delay.c **** 	
  31:Lib/bsp/src/delay.c **** 	/* Check if DWT has started */
  32:Lib/bsp/src/delay.c **** 	c = DWT->CYCCNT;
 101              		.loc 1 32 2 is_stmt 1 view .LVU19
 102              		.loc 1 32 4 is_stmt 0 view .LVU20
 103 0042 5A68     		ldr	r2, [r3, #4]
 104              	.LVL0:
  33:Lib/bsp/src/delay.c **** 	
  34:Lib/bsp/src/delay.c **** 	/* 2 dummys */
  35:Lib/bsp/src/delay.c **** 	__ASM volatile ("NOP");
 105              		.loc 1 35 2 is_stmt 1 view .LVU21
 106              		.syntax unified
 107              	@ 35 "Lib/bsp/src/delay.c" 1
 108 0044 00BF     		NOP
 109              	@ 0 "" 2
  36:Lib/bsp/src/delay.c **** 	__ASM volatile ("NOP");
 110              		.loc 1 36 2 view .LVU22
 111              	@ 36 "Lib/bsp/src/delay.c" 1
 112 0046 00BF     		NOP
 113              	@ 0 "" 2
  37:Lib/bsp/src/delay.c **** 	
  38:Lib/bsp/src/delay.c **** 	/* Return difference, if result is zero, DWT has not started */
  39:Lib/bsp/src/delay.c **** 	return (DWT->CYCCNT - c);
 114              		.loc 1 39 2 view .LVU23
 115              		.loc 1 39 13 is_stmt 0 view .LVU24
 116              		.thumb
 117              		.syntax unified
 118 0048 5868     		ldr	r0, [r3, #4]
  40:Lib/bsp/src/delay.c **** }
 119              		.loc 1 40 1 view .LVU25
 120 004a 801A     		subs	r0, r0, r2
 121 004c 7047     		bx	lr
 122              	.L6:
 123 004e 00BF     		.align	2
 124              	.L5:
 125 0050 00000000 		.word	SystemCoreClock
 126 0054 83DE1B43 		.word	1125899907
 127 0058 00000000 		.word	.LANCHOR1
 128 005c 00ED00E0 		.word	-536810240
 129              		.cfi_endproc
 130              	.LFE124:
 132              		.section	.text.millis,"ax",%progbits
 133              		.align	1
 134              		.global	millis
 135              		.syntax unified
ARM GAS  /tmp/ccSIfEq2.s 			page 4


 136              		.thumb
 137              		.thumb_func
 138              		.fpu fpv4-sp-d16
 140              	millis:
 141              	.LFB125:
  41:Lib/bsp/src/delay.c **** 
  42:Lib/bsp/src/delay.c **** 
  43:Lib/bsp/src/delay.c **** uint32_t millis() 
  44:Lib/bsp/src/delay.c **** {
 142              		.loc 1 44 1 is_stmt 1 view -0
 143              		.cfi_startproc
 144              		@ args = 0, pretend = 0, frame = 0
 145              		@ frame_needed = 0, uses_anonymous_args = 0
 146              		@ link register save eliminated.
  45:Lib/bsp/src/delay.c ****     return timer_ms;
 147              		.loc 1 45 5 view .LVU27
 148              		.loc 1 45 12 is_stmt 0 view .LVU28
 149 0000 014B     		ldr	r3, .L8
 150 0002 1868     		ldr	r0, [r3]
  46:Lib/bsp/src/delay.c **** }
 151              		.loc 1 46 1 view .LVU29
 152 0004 7047     		bx	lr
 153              	.L9:
 154 0006 00BF     		.align	2
 155              	.L8:
 156 0008 00000000 		.word	.LANCHOR0
 157              		.cfi_endproc
 158              	.LFE125:
 160              		.section	.text.delay_ms,"ax",%progbits
 161              		.align	1
 162              		.global	delay_ms
 163              		.syntax unified
 164              		.thumb
 165              		.thumb_func
 166              		.fpu fpv4-sp-d16
 168              	delay_ms:
 169              	.LVL1:
 170              	.LFB126:
  47:Lib/bsp/src/delay.c **** 
  48:Lib/bsp/src/delay.c **** 
  49:Lib/bsp/src/delay.c **** void delay_ms(int time)
  50:Lib/bsp/src/delay.c **** {
 171              		.loc 1 50 1 is_stmt 1 view -0
 172              		.cfi_startproc
 173              		@ args = 0, pretend = 0, frame = 0
 174              		@ frame_needed = 0, uses_anonymous_args = 0
 175              		.loc 1 50 1 is_stmt 0 view .LVU31
 176 0000 10B5     		push	{r4, lr}
 177              		.cfi_def_cfa_offset 8
 178              		.cfi_offset 4, -8
 179              		.cfi_offset 14, -4
 180 0002 0446     		mov	r4, r0
  51:Lib/bsp/src/delay.c ****     uint32_t timer_end = millis() + time;
 181              		.loc 1 51 5 is_stmt 1 view .LVU32
 182              		.loc 1 51 26 is_stmt 0 view .LVU33
 183 0004 FFF7FEFF 		bl	millis
 184              	.LVL2:
ARM GAS  /tmp/ccSIfEq2.s 			page 5


 185              		.loc 1 51 14 view .LVU34
 186 0008 0444     		add	r4, r4, r0
 187              	.LVL3:
  52:Lib/bsp/src/delay.c ****     while(millis() < timer_end);
 188              		.loc 1 52 5 is_stmt 1 view .LVU35
 189              	.L11:
 190              		.loc 1 52 32 discriminator 1 view .LVU36
 191              		.loc 1 52 10 discriminator 1 view .LVU37
 192              		.loc 1 52 11 is_stmt 0 discriminator 1 view .LVU38
 193 000a FFF7FEFF 		bl	millis
 194              	.LVL4:
 195              		.loc 1 52 10 discriminator 1 view .LVU39
 196 000e A042     		cmp	r0, r4
 197 0010 FBD3     		bcc	.L11
  53:Lib/bsp/src/delay.c **** }
 198              		.loc 1 53 1 view .LVU40
 199 0012 10BD     		pop	{r4, pc}
 200              		.loc 1 53 1 view .LVU41
 201              		.cfi_endproc
 202              	.LFE126:
 204              		.section	.text.stopwatch_start,"ax",%progbits
 205              		.align	1
 206              		.global	stopwatch_start
 207              		.syntax unified
 208              		.thumb
 209              		.thumb_func
 210              		.fpu fpv4-sp-d16
 212              	stopwatch_start:
 213              	.LVL5:
 214              	.LFB127:
  54:Lib/bsp/src/delay.c **** 
  55:Lib/bsp/src/delay.c **** 
  56:Lib/bsp/src/delay.c **** void stopwatch_start(stopwatch_t * stopwatch)
  57:Lib/bsp/src/delay.c **** {
 215              		.loc 1 57 1 is_stmt 1 view -0
 216              		.cfi_startproc
 217              		@ args = 0, pretend = 0, frame = 0
 218              		@ frame_needed = 0, uses_anonymous_args = 0
 219              		@ link register save eliminated.
  58:Lib/bsp/src/delay.c ****     stopwatch->start = DWT->CYCCNT;
 220              		.loc 1 58 5 view .LVU43
 221              		.loc 1 58 27 is_stmt 0 view .LVU44
 222 0000 014B     		ldr	r3, .L14
 223 0002 5B68     		ldr	r3, [r3, #4]
 224              		.loc 1 58 22 view .LVU45
 225 0004 0360     		str	r3, [r0]
  59:Lib/bsp/src/delay.c **** }
 226              		.loc 1 59 1 view .LVU46
 227 0006 7047     		bx	lr
 228              	.L15:
 229              		.align	2
 230              	.L14:
 231 0008 001000E0 		.word	-536866816
 232              		.cfi_endproc
 233              	.LFE127:
 235              		.section	.text.stopwatch_now_us,"ax",%progbits
 236              		.align	1
ARM GAS  /tmp/ccSIfEq2.s 			page 6


 237              		.global	stopwatch_now_us
 238              		.syntax unified
 239              		.thumb
 240              		.thumb_func
 241              		.fpu fpv4-sp-d16
 243              	stopwatch_now_us:
 244              	.LVL6:
 245              	.LFB128:
  60:Lib/bsp/src/delay.c **** 
  61:Lib/bsp/src/delay.c **** 
  62:Lib/bsp/src/delay.c **** uint32_t stopwatch_now_us(stopwatch_t * stopwatch)
  63:Lib/bsp/src/delay.c **** {
 246              		.loc 1 63 1 is_stmt 1 view -0
 247              		.cfi_startproc
 248              		@ args = 0, pretend = 0, frame = 0
 249              		@ frame_needed = 0, uses_anonymous_args = 0
 250              		@ link register save eliminated.
  64:Lib/bsp/src/delay.c ****     return (DWT->CYCCNT - stopwatch->start) / ticksPerUs;
 251              		.loc 1 64 5 view .LVU48
 252              		.loc 1 64 16 is_stmt 0 view .LVU49
 253 0000 044B     		ldr	r3, .L17
 254 0002 5B68     		ldr	r3, [r3, #4]
 255              		.loc 1 64 36 view .LVU50
 256 0004 0068     		ldr	r0, [r0]
 257              	.LVL7:
 258              		.loc 1 64 25 view .LVU51
 259 0006 1B1A     		subs	r3, r3, r0
 260              		.loc 1 64 45 view .LVU52
 261 0008 034A     		ldr	r2, .L17+4
 262 000a 1068     		ldr	r0, [r2]
  65:Lib/bsp/src/delay.c **** }
 263              		.loc 1 65 1 view .LVU53
 264 000c B3FBF0F0 		udiv	r0, r3, r0
 265 0010 7047     		bx	lr
 266              	.L18:
 267 0012 00BF     		.align	2
 268              	.L17:
 269 0014 001000E0 		.word	-536866816
 270 0018 00000000 		.word	.LANCHOR1
 271              		.cfi_endproc
 272              	.LFE128:
 274              		.section	.text.test_stopwatch,"ax",%progbits
 275              		.align	1
 276              		.global	test_stopwatch
 277              		.syntax unified
 278              		.thumb
 279              		.thumb_func
 280              		.fpu fpv4-sp-d16
 282              	test_stopwatch:
 283              	.LFB129:
  66:Lib/bsp/src/delay.c **** 
  67:Lib/bsp/src/delay.c **** 
  68:Lib/bsp/src/delay.c **** int8_t test_stopwatch() {
 284              		.loc 1 68 25 is_stmt 1 view -0
 285              		.cfi_startproc
 286              		@ args = 0, pretend = 0, frame = 16
 287              		@ frame_needed = 0, uses_anonymous_args = 0
ARM GAS  /tmp/ccSIfEq2.s 			page 7


 288 0000 00B5     		push	{lr}
 289              		.cfi_def_cfa_offset 4
 290              		.cfi_offset 14, -4
 291 0002 85B0     		sub	sp, sp, #20
 292              		.cfi_def_cfa_offset 24
  69:Lib/bsp/src/delay.c ****     delay_init();
 293              		.loc 1 69 5 view .LVU55
 294 0004 FFF7FEFF 		bl	delay_init
 295              	.LVL8:
  70:Lib/bsp/src/delay.c ****     stopwatch_t st01, st02;
 296              		.loc 1 70 5 view .LVU56
  71:Lib/bsp/src/delay.c **** 
  72:Lib/bsp/src/delay.c ****     stopwatch_start(&st01);
 297              		.loc 1 72 5 view .LVU57
 298 0008 03A8     		add	r0, sp, #12
 299 000a FFF7FEFF 		bl	stopwatch_start
 300              	.LVL9:
  73:Lib/bsp/src/delay.c ****     delay_ms(1);
 301              		.loc 1 73 5 view .LVU58
 302 000e 0120     		movs	r0, #1
 303 0010 FFF7FEFF 		bl	delay_ms
 304              	.LVL10:
  74:Lib/bsp/src/delay.c ****     stopwatch_start(&st02);
 305              		.loc 1 74 5 view .LVU59
 306 0014 02A8     		add	r0, sp, #8
 307 0016 FFF7FEFF 		bl	stopwatch_start
 308              	.LVL11:
  75:Lib/bsp/src/delay.c ****     delay_ms(1);
 309              		.loc 1 75 5 view .LVU60
 310 001a 0120     		movs	r0, #1
 311 001c FFF7FEFF 		bl	delay_ms
 312              	.LVL12:
  76:Lib/bsp/src/delay.c ****     volatile uint32_t elapsed_02_us = stopwatch_now_us(&st02);
 313              		.loc 1 76 5 view .LVU61
 314              		.loc 1 76 39 is_stmt 0 view .LVU62
 315 0020 02A8     		add	r0, sp, #8
 316 0022 FFF7FEFF 		bl	stopwatch_now_us
 317              	.LVL13:
 318              		.loc 1 76 23 view .LVU63
 319 0026 0190     		str	r0, [sp, #4]
  77:Lib/bsp/src/delay.c ****     delay_ms(1);
 320              		.loc 1 77 5 is_stmt 1 view .LVU64
 321 0028 0120     		movs	r0, #1
 322 002a FFF7FEFF 		bl	delay_ms
 323              	.LVL14:
  78:Lib/bsp/src/delay.c ****     volatile uint32_t elapsed_01_us = stopwatch_now_us(&st02);
 324              		.loc 1 78 5 view .LVU65
 325              		.loc 1 78 39 is_stmt 0 view .LVU66
 326 002e 02A8     		add	r0, sp, #8
 327 0030 FFF7FEFF 		bl	stopwatch_now_us
 328              	.LVL15:
 329              		.loc 1 78 23 view .LVU67
 330 0034 0090     		str	r0, [sp]
  79:Lib/bsp/src/delay.c **** 
  80:Lib/bsp/src/delay.c ****     if (elapsed_02_us >= elapsed_01_us)
 331              		.loc 1 80 5 is_stmt 1 view .LVU68
 332              		.loc 1 80 23 is_stmt 0 view .LVU69
ARM GAS  /tmp/ccSIfEq2.s 			page 8


 333 0036 019A     		ldr	r2, [sp, #4]
 334 0038 009B     		ldr	r3, [sp]
 335              		.loc 1 80 8 view .LVU70
 336 003a 9A42     		cmp	r2, r3
 337 003c 03D2     		bcs	.L23
  81:Lib/bsp/src/delay.c ****     {
  82:Lib/bsp/src/delay.c ****         return -1;
  83:Lib/bsp/src/delay.c ****     } 
  84:Lib/bsp/src/delay.c ****     else
  85:Lib/bsp/src/delay.c ****     {
  86:Lib/bsp/src/delay.c ****         return 0;
 338              		.loc 1 86 16 view .LVU71
 339 003e 0020     		movs	r0, #0
 340              	.L20:
  87:Lib/bsp/src/delay.c ****     }    
  88:Lib/bsp/src/delay.c **** }
 341              		.loc 1 88 1 view .LVU72
 342 0040 05B0     		add	sp, sp, #20
 343              		.cfi_remember_state
 344              		.cfi_def_cfa_offset 4
 345              		@ sp needed
 346 0042 5DF804FB 		ldr	pc, [sp], #4
 347              	.L23:
 348              		.cfi_restore_state
  82:Lib/bsp/src/delay.c ****     } 
 349              		.loc 1 82 16 view .LVU73
 350 0046 4FF0FF30 		mov	r0, #-1
 351 004a F9E7     		b	.L20
 352              		.cfi_endproc
 353              	.LFE129:
 355              		.global	timer_ms
 356              		.section	.bss.timer_ms,"aw",%nobits
 357              		.align	2
 358              		.set	.LANCHOR0,. + 0
 361              	timer_ms:
 362 0000 00000000 		.space	4
 363              		.section	.data.ticksPerUs,"aw"
 364              		.align	2
 365              		.set	.LANCHOR1,. + 0
 368              	ticksPerUs:
 369 0000 A8000000 		.word	168
 370              		.text
 371              	.Letext0:
 372              		.file 2 "/usr/lib/gcc/arm-none-eabi/10.3.1/include/stdint.h"
 373              		.file 3 "Drivers/CMSIS/Include/core_cm4.h"
 374              		.file 4 "Lib/bsp/Inc/delay.h"
 375              		.file 5 "Drivers/CMSIS/Device/ST/STM32F4xx/Include/system_stm32f4xx.h"
ARM GAS  /tmp/ccSIfEq2.s 			page 9


DEFINED SYMBOLS
                            *ABS*:0000000000000000 delay.c
     /tmp/ccSIfEq2.s:18     .text.SysTick_Handler:0000000000000000 $t
     /tmp/ccSIfEq2.s:26     .text.SysTick_Handler:0000000000000000 SysTick_Handler
     /tmp/ccSIfEq2.s:45     .text.SysTick_Handler:000000000000000c $d
     /tmp/ccSIfEq2.s:50     .text.delay_init:0000000000000000 $t
     /tmp/ccSIfEq2.s:57     .text.delay_init:0000000000000000 delay_init
     /tmp/ccSIfEq2.s:125    .text.delay_init:0000000000000050 $d
     /tmp/ccSIfEq2.s:133    .text.millis:0000000000000000 $t
     /tmp/ccSIfEq2.s:140    .text.millis:0000000000000000 millis
     /tmp/ccSIfEq2.s:156    .text.millis:0000000000000008 $d
     /tmp/ccSIfEq2.s:161    .text.delay_ms:0000000000000000 $t
     /tmp/ccSIfEq2.s:168    .text.delay_ms:0000000000000000 delay_ms
     /tmp/ccSIfEq2.s:205    .text.stopwatch_start:0000000000000000 $t
     /tmp/ccSIfEq2.s:212    .text.stopwatch_start:0000000000000000 stopwatch_start
     /tmp/ccSIfEq2.s:231    .text.stopwatch_start:0000000000000008 $d
     /tmp/ccSIfEq2.s:236    .text.stopwatch_now_us:0000000000000000 $t
     /tmp/ccSIfEq2.s:243    .text.stopwatch_now_us:0000000000000000 stopwatch_now_us
     /tmp/ccSIfEq2.s:269    .text.stopwatch_now_us:0000000000000014 $d
     /tmp/ccSIfEq2.s:275    .text.test_stopwatch:0000000000000000 $t
     /tmp/ccSIfEq2.s:282    .text.test_stopwatch:0000000000000000 test_stopwatch
     /tmp/ccSIfEq2.s:361    .bss.timer_ms:0000000000000000 timer_ms
     /tmp/ccSIfEq2.s:357    .bss.timer_ms:0000000000000000 $d
     /tmp/ccSIfEq2.s:364    .data.ticksPerUs:0000000000000000 $d
     /tmp/ccSIfEq2.s:368    .data.ticksPerUs:0000000000000000 ticksPerUs

UNDEFINED SYMBOLS
SystemCoreClock
