ARM GAS  /tmp/ccUfH24l.s 			page 1


   1              		.cpu cortex-m4
   2              		.arch armv7e-m
   3              		.fpu fpv4-sp-d16
   4              		.eabi_attribute 27, 1
   5              		.eabi_attribute 28, 1
   6              		.eabi_attribute 20, 1
   7              		.eabi_attribute 21, 1
   8              		.eabi_attribute 23, 3
   9              		.eabi_attribute 24, 1
  10              		.eabi_attribute 25, 1
  11              		.eabi_attribute 26, 1
  12              		.eabi_attribute 30, 1
  13              		.eabi_attribute 34, 1
  14              		.eabi_attribute 18, 4
  15              		.file	"ecatapp.c"
  16              		.text
  17              	.Ltext0:
  18              		.cfi_sections	.debug_frame
  19              		.section	.text.ecatapp,"ax",%progbits
  20              		.align	1
  21              		.global	ecatapp
  22              		.syntax unified
  23              		.thumb
  24              		.thumb_func
  26              	ecatapp:
  27              	.LFB127:
  28              		.file 1 "Core/Src/ecatapp.c"
   1:Core/Src/ecatapp.c **** #include "esc.h"
   2:Core/Src/ecatapp.c **** #include "ecat_slv.h"
   3:Core/Src/ecatapp.c **** #include "utypes.h"
   4:Core/Src/ecatapp.c **** 
   5:Core/Src/ecatapp.c **** #include "esc_irq.h"
   6:Core/Src/ecatapp.c **** #include "pdo_override.h"
   7:Core/Src/ecatapp.c **** #include "ecatapp.h"
   8:Core/Src/ecatapp.c **** #include "stm32f4xx.h"
   9:Core/Src/ecatapp.c **** 
  10:Core/Src/ecatapp.c **** /* CANopen Object Dictionary */
  11:Core/Src/ecatapp.c **** _Objects Obj;
  12:Core/Src/ecatapp.c **** 
  13:Core/Src/ecatapp.c **** /* Application hook declaration */
  14:Core/Src/ecatapp.c **** void ecatapp(void);
  15:Core/Src/ecatapp.c **** uint16_t check_dc_handler(void);
  16:Core/Src/ecatapp.c **** 
  17:Core/Src/ecatapp.c **** /* SOES configuration */
  18:Core/Src/ecatapp.c **** static esc_cfg_t config = {
  19:Core/Src/ecatapp.c ****     .user_arg = "ax58100",
  20:Core/Src/ecatapp.c ****     .use_interrupt = 1,
  21:Core/Src/ecatapp.c ****     .watchdog_cnt = INT32_MAX,
  22:Core/Src/ecatapp.c ****     .set_defaults_hook = NULL,
  23:Core/Src/ecatapp.c ****     .pre_state_change_hook = NULL,
  24:Core/Src/ecatapp.c ****     .post_state_change_hook = NULL,
  25:Core/Src/ecatapp.c ****     .application_hook = ecatapp,
  26:Core/Src/ecatapp.c ****     .safeoutput_override = NULL,
  27:Core/Src/ecatapp.c ****     .pre_object_download_hook = NULL,
  28:Core/Src/ecatapp.c ****     .post_object_download_hook = NULL,
  29:Core/Src/ecatapp.c ****     .rxpdo_override = rxpdo_override,
  30:Core/Src/ecatapp.c ****     .txpdo_override = txpdo_override,
ARM GAS  /tmp/ccUfH24l.s 			page 2


  31:Core/Src/ecatapp.c ****     .esc_hw_interrupt_enable = ESC_interrupt_enable,
  32:Core/Src/ecatapp.c ****     .esc_hw_interrupt_disable = ESC_interrupt_disable,
  33:Core/Src/ecatapp.c ****     .esc_hw_eep_handler = NULL,
  34:Core/Src/ecatapp.c ****     .esc_check_dc_handler = check_dc_handler,
  35:Core/Src/ecatapp.c **** };
  36:Core/Src/ecatapp.c **** 
  37:Core/Src/ecatapp.c **** /* CiA402 motion control configuration */
  38:Core/Src/ecatapp.c **** 
  39:Core/Src/ecatapp.c **** // **************************************************************
  40:Core/Src/ecatapp.c **** 
  41:Core/Src/ecatapp.c **** static uint8_t sync0_irq_flag = 0;
  42:Core/Src/ecatapp.c **** 
  43:Core/Src/ecatapp.c **** void EXTI0_IRQHandler(void)
  44:Core/Src/ecatapp.c **** {
  45:Core/Src/ecatapp.c ****     if (EXTI_GetITStatus(EXTI_Line0) != RESET)
  46:Core/Src/ecatapp.c ****     {
  47:Core/Src/ecatapp.c ****         EXTI_ClearITPendingBit(EXTI_Line0);
  48:Core/Src/ecatapp.c ****         sync0_irq_flag = 1;
  49:Core/Src/ecatapp.c ****     }
  50:Core/Src/ecatapp.c **** }
  51:Core/Src/ecatapp.c **** 
  52:Core/Src/ecatapp.c **** static uint8_t pdi_irq_flag = 0;
  53:Core/Src/ecatapp.c **** 
  54:Core/Src/ecatapp.c **** void EXTI9_5_IRQHandler(void)
  55:Core/Src/ecatapp.c **** {
  56:Core/Src/ecatapp.c ****     if (EXTI_GetITStatus(EXTI_Line5) != RESET)
  57:Core/Src/ecatapp.c ****     {
  58:Core/Src/ecatapp.c ****         EXTI_ClearITPendingBit(EXTI_Line5);
  59:Core/Src/ecatapp.c ****         pdi_irq_flag = 1;
  60:Core/Src/ecatapp.c ****     }
  61:Core/Src/ecatapp.c **** }
  62:Core/Src/ecatapp.c **** // **************************************************************
  63:Core/Src/ecatapp.c **** 
  64:Core/Src/ecatapp.c **** void ecatapp_init(void)
  65:Core/Src/ecatapp.c **** {
  66:Core/Src/ecatapp.c ****     ecat_slv_init(&config);
  67:Core/Src/ecatapp.c ****     init_override();
  68:Core/Src/ecatapp.c **** }
  69:Core/Src/ecatapp.c **** 
  70:Core/Src/ecatapp.c **** uint16_t check_dc_handler(void)
  71:Core/Src/ecatapp.c **** {
  72:Core/Src/ecatapp.c **** // minimum watchdog value is 1 ms, in nanoseconds
  73:Core/Src/ecatapp.c **** #define MIN_WATCHDOG_VALUE_NS 1000000
  74:Core/Src/ecatapp.c **** 
  75:Core/Src/ecatapp.c ****     /* Indicate we run DC */
  76:Core/Src/ecatapp.c ****     ESCvar.dcsync = 1;
  77:Core/Src/ecatapp.c ****     /* Fetch the sync counter limit (SDO10F1) */
  78:Core/Src/ecatapp.c ****     ESCvar.synccounterlimit = Obj.Error_Settings.SyncErrorCounterLimit;
  79:Core/Src/ecatapp.c **** 
  80:Core/Src/ecatapp.c ****     uint32_t sync0cycleTime = ESC_enable_DC();
  81:Core/Src/ecatapp.c ****     Obj.Sync_Manager_2_Parameters.CycleTime = sync0cycleTime;
  82:Core/Src/ecatapp.c ****     // Obj.Sync_Manager_3_Parameters.CycleTime = sync0cycleTime;
  83:Core/Src/ecatapp.c ****     // calculate watchdog value as 2 x SYNC0 cycle time
  84:Core/Src/ecatapp.c ****     int watchdog_value = 2 * sync0cycleTime;
  85:Core/Src/ecatapp.c ****     if (watchdog_value < MIN_WATCHDOG_VALUE_NS)
  86:Core/Src/ecatapp.c ****     {
  87:Core/Src/ecatapp.c ****         watchdog_value = MIN_WATCHDOG_VALUE_NS;
ARM GAS  /tmp/ccUfH24l.s 			page 3


  88:Core/Src/ecatapp.c ****     }
  89:Core/Src/ecatapp.c ****     APP_setwatchdog(watchdog_value);
  90:Core/Src/ecatapp.c **** 
  91:Core/Src/ecatapp.c ****     return 0;
  92:Core/Src/ecatapp.c **** }
  93:Core/Src/ecatapp.c **** 
  94:Core/Src/ecatapp.c **** void ecatapp()
  95:Core/Src/ecatapp.c **** {
  29              		.loc 1 95 1 view -0
  30              		.cfi_startproc
  31              		@ args = 0, pretend = 0, frame = 0
  32              		@ frame_needed = 0, uses_anonymous_args = 0
  33              		@ link register save eliminated.
  96:Core/Src/ecatapp.c **** }
  34              		.loc 1 96 1 view .LVU1
  35 0000 7047     		bx	lr
  36              		.cfi_endproc
  37              	.LFE127:
  39              		.section	.text.check_dc_handler,"ax",%progbits
  40              		.align	1
  41              		.global	check_dc_handler
  42              		.syntax unified
  43              		.thumb
  44              		.thumb_func
  46              	check_dc_handler:
  47              	.LFB126:
  71:Core/Src/ecatapp.c **** // minimum watchdog value is 1 ms, in nanoseconds
  48              		.loc 1 71 1 view -0
  49              		.cfi_startproc
  50              		@ args = 0, pretend = 0, frame = 0
  51              		@ frame_needed = 0, uses_anonymous_args = 0
  52 0000 10B5     		push	{r4, lr}
  53              		.cfi_def_cfa_offset 8
  54              		.cfi_offset 4, -8
  55              		.cfi_offset 14, -4
  76:Core/Src/ecatapp.c ****     /* Fetch the sync counter limit (SDO10F1) */
  56              		.loc 1 76 5 view .LVU3
  76:Core/Src/ecatapp.c ****     /* Fetch the sync counter limit (SDO10F1) */
  57              		.loc 1 76 19 is_stmt 0 view .LVU4
  58 0002 0B4B     		ldr	r3, .L6
  59 0004 0122     		movs	r2, #1
  60 0006 83F87C20 		strb	r2, [r3, #124]
  78:Core/Src/ecatapp.c **** 
  61              		.loc 1 78 5 is_stmt 1 view .LVU5
  78:Core/Src/ecatapp.c **** 
  62              		.loc 1 78 49 is_stmt 0 view .LVU6
  63 000a 0A4C     		ldr	r4, .L6+4
  64 000c 2269     		ldr	r2, [r4, #16]
  78:Core/Src/ecatapp.c **** 
  65              		.loc 1 78 29 view .LVU7
  66 000e A3F87E20 		strh	r2, [r3, #126]	@ movhi
  80:Core/Src/ecatapp.c ****     Obj.Sync_Manager_2_Parameters.CycleTime = sync0cycleTime;
  67              		.loc 1 80 5 is_stmt 1 view .LVU8
  80:Core/Src/ecatapp.c ****     Obj.Sync_Manager_2_Parameters.CycleTime = sync0cycleTime;
  68              		.loc 1 80 31 is_stmt 0 view .LVU9
  69 0012 FFF7FEFF 		bl	ESC_enable_DC
  70              	.LVL0:
ARM GAS  /tmp/ccUfH24l.s 			page 4


  71 0016 0346     		mov	r3, r0
  72              	.LVL1:
  81:Core/Src/ecatapp.c ****     // Obj.Sync_Manager_3_Parameters.CycleTime = sync0cycleTime;
  73              		.loc 1 81 5 is_stmt 1 view .LVU10
  81:Core/Src/ecatapp.c ****     // Obj.Sync_Manager_3_Parameters.CycleTime = sync0cycleTime;
  74              		.loc 1 81 45 is_stmt 0 view .LVU11
  75 0018 A061     		str	r0, [r4, #24]
  84:Core/Src/ecatapp.c ****     if (watchdog_value < MIN_WATCHDOG_VALUE_NS)
  76              		.loc 1 84 5 is_stmt 1 view .LVU12
  84:Core/Src/ecatapp.c ****     if (watchdog_value < MIN_WATCHDOG_VALUE_NS)
  77              		.loc 1 84 28 is_stmt 0 view .LVU13
  78 001a 4000     		lsls	r0, r0, #1
  79              	.LVL2:
  85:Core/Src/ecatapp.c ****     {
  80              		.loc 1 85 5 is_stmt 1 view .LVU14
  85:Core/Src/ecatapp.c ****     {
  81              		.loc 1 85 8 is_stmt 0 view .LVU15
  82 001c 064A     		ldr	r2, .L6+8
  83 001e B2EB430F 		cmp	r2, r3, lsl #1
  84 0022 00DB     		blt	.L3
  87:Core/Src/ecatapp.c ****     }
  85              		.loc 1 87 24 view .LVU16
  86 0024 0548     		ldr	r0, .L6+12
  87              	.LVL3:
  88              	.L3:
  89:Core/Src/ecatapp.c **** 
  89              		.loc 1 89 5 is_stmt 1 view .LVU17
  90 0026 FFF7FEFF 		bl	APP_setwatchdog
  91              	.LVL4:
  91:Core/Src/ecatapp.c **** }
  92              		.loc 1 91 5 view .LVU18
  92:Core/Src/ecatapp.c **** 
  93              		.loc 1 92 1 is_stmt 0 view .LVU19
  94 002a 0020     		movs	r0, #0
  95 002c 10BD     		pop	{r4, pc}
  96              	.L7:
  97 002e 00BF     		.align	2
  98              	.L6:
  99 0030 00000000 		.word	ESCvar
 100 0034 00000000 		.word	.LANCHOR0
 101 0038 3F420F00 		.word	999999
 102 003c 40420F00 		.word	1000000
 103              		.cfi_endproc
 104              	.LFE126:
 106              		.section	.text.EXTI0_IRQHandler,"ax",%progbits
 107              		.align	1
 108              		.global	EXTI0_IRQHandler
 109              		.syntax unified
 110              		.thumb
 111              		.thumb_func
 113              	EXTI0_IRQHandler:
 114              	.LFB123:
  44:Core/Src/ecatapp.c ****     if (EXTI_GetITStatus(EXTI_Line0) != RESET)
 115              		.loc 1 44 1 is_stmt 1 view -0
 116              		.cfi_startproc
 117              		@ args = 0, pretend = 0, frame = 0
 118              		@ frame_needed = 0, uses_anonymous_args = 0
ARM GAS  /tmp/ccUfH24l.s 			page 5


 119 0000 08B5     		push	{r3, lr}
 120              		.cfi_def_cfa_offset 8
 121              		.cfi_offset 3, -8
 122              		.cfi_offset 14, -4
  45:Core/Src/ecatapp.c ****     {
 123              		.loc 1 45 5 view .LVU21
  45:Core/Src/ecatapp.c ****     {
 124              		.loc 1 45 9 is_stmt 0 view .LVU22
 125 0002 0120     		movs	r0, #1
 126 0004 FFF7FEFF 		bl	EXTI_GetITStatus
 127              	.LVL5:
  45:Core/Src/ecatapp.c ****     {
 128              		.loc 1 45 8 view .LVU23
 129 0008 00B9     		cbnz	r0, .L11
 130              	.L8:
  50:Core/Src/ecatapp.c **** 
 131              		.loc 1 50 1 view .LVU24
 132 000a 08BD     		pop	{r3, pc}
 133              	.L11:
  47:Core/Src/ecatapp.c ****         sync0_irq_flag = 1;
 134              		.loc 1 47 9 is_stmt 1 view .LVU25
 135 000c 0120     		movs	r0, #1
 136 000e FFF7FEFF 		bl	EXTI_ClearITPendingBit
 137              	.LVL6:
  48:Core/Src/ecatapp.c ****     }
 138              		.loc 1 48 9 view .LVU26
  48:Core/Src/ecatapp.c ****     }
 139              		.loc 1 48 24 is_stmt 0 view .LVU27
 140 0012 024B     		ldr	r3, .L12
 141 0014 0122     		movs	r2, #1
 142 0016 1A70     		strb	r2, [r3]
  50:Core/Src/ecatapp.c **** 
 143              		.loc 1 50 1 view .LVU28
 144 0018 F7E7     		b	.L8
 145              	.L13:
 146 001a 00BF     		.align	2
 147              	.L12:
 148 001c 00000000 		.word	.LANCHOR1
 149              		.cfi_endproc
 150              	.LFE123:
 152              		.section	.text.EXTI9_5_IRQHandler,"ax",%progbits
 153              		.align	1
 154              		.global	EXTI9_5_IRQHandler
 155              		.syntax unified
 156              		.thumb
 157              		.thumb_func
 159              	EXTI9_5_IRQHandler:
 160              	.LFB124:
  55:Core/Src/ecatapp.c ****     if (EXTI_GetITStatus(EXTI_Line5) != RESET)
 161              		.loc 1 55 1 is_stmt 1 view -0
 162              		.cfi_startproc
 163              		@ args = 0, pretend = 0, frame = 0
 164              		@ frame_needed = 0, uses_anonymous_args = 0
 165 0000 08B5     		push	{r3, lr}
 166              		.cfi_def_cfa_offset 8
 167              		.cfi_offset 3, -8
 168              		.cfi_offset 14, -4
ARM GAS  /tmp/ccUfH24l.s 			page 6


  56:Core/Src/ecatapp.c ****     {
 169              		.loc 1 56 5 view .LVU30
  56:Core/Src/ecatapp.c ****     {
 170              		.loc 1 56 9 is_stmt 0 view .LVU31
 171 0002 2020     		movs	r0, #32
 172 0004 FFF7FEFF 		bl	EXTI_GetITStatus
 173              	.LVL7:
  56:Core/Src/ecatapp.c ****     {
 174              		.loc 1 56 8 view .LVU32
 175 0008 00B9     		cbnz	r0, .L17
 176              	.L14:
  61:Core/Src/ecatapp.c **** // **************************************************************
 177              		.loc 1 61 1 view .LVU33
 178 000a 08BD     		pop	{r3, pc}
 179              	.L17:
  58:Core/Src/ecatapp.c ****         pdi_irq_flag = 1;
 180              		.loc 1 58 9 is_stmt 1 view .LVU34
 181 000c 2020     		movs	r0, #32
 182 000e FFF7FEFF 		bl	EXTI_ClearITPendingBit
 183              	.LVL8:
  59:Core/Src/ecatapp.c ****     }
 184              		.loc 1 59 9 view .LVU35
  59:Core/Src/ecatapp.c ****     }
 185              		.loc 1 59 22 is_stmt 0 view .LVU36
 186 0012 024B     		ldr	r3, .L18
 187 0014 0122     		movs	r2, #1
 188 0016 1A70     		strb	r2, [r3]
  61:Core/Src/ecatapp.c **** // **************************************************************
 189              		.loc 1 61 1 view .LVU37
 190 0018 F7E7     		b	.L14
 191              	.L19:
 192 001a 00BF     		.align	2
 193              	.L18:
 194 001c 00000000 		.word	.LANCHOR2
 195              		.cfi_endproc
 196              	.LFE124:
 198              		.section	.text.ecatapp_init,"ax",%progbits
 199              		.align	1
 200              		.global	ecatapp_init
 201              		.syntax unified
 202              		.thumb
 203              		.thumb_func
 205              	ecatapp_init:
 206              	.LFB125:
  65:Core/Src/ecatapp.c ****     ecat_slv_init(&config);
 207              		.loc 1 65 1 is_stmt 1 view -0
 208              		.cfi_startproc
 209              		@ args = 0, pretend = 0, frame = 0
 210              		@ frame_needed = 0, uses_anonymous_args = 0
 211 0000 08B5     		push	{r3, lr}
 212              		.cfi_def_cfa_offset 8
 213              		.cfi_offset 3, -8
 214              		.cfi_offset 14, -4
  66:Core/Src/ecatapp.c ****     init_override();
 215              		.loc 1 66 5 view .LVU39
 216 0002 0348     		ldr	r0, .L22
 217 0004 FFF7FEFF 		bl	ecat_slv_init
ARM GAS  /tmp/ccUfH24l.s 			page 7


 218              	.LVL9:
  67:Core/Src/ecatapp.c **** }
 219              		.loc 1 67 5 view .LVU40
 220 0008 FFF7FEFF 		bl	init_override
 221              	.LVL10:
  68:Core/Src/ecatapp.c **** 
 222              		.loc 1 68 1 is_stmt 0 view .LVU41
 223 000c 08BD     		pop	{r3, pc}
 224              	.L23:
 225 000e 00BF     		.align	2
 226              	.L22:
 227 0010 00000000 		.word	.LANCHOR3
 228              		.cfi_endproc
 229              	.LFE125:
 231              		.section	.text.cb_get_inputs,"ax",%progbits
 232              		.align	1
 233              		.global	cb_get_inputs
 234              		.syntax unified
 235              		.thumb
 236              		.thumb_func
 238              	cb_get_inputs:
 239              	.LFB128:
  97:Core/Src/ecatapp.c **** 
  98:Core/Src/ecatapp.c **** void cb_get_inputs()
  99:Core/Src/ecatapp.c **** {
 240              		.loc 1 99 1 is_stmt 1 view -0
 241              		.cfi_startproc
 242              		@ args = 0, pretend = 0, frame = 0
 243              		@ frame_needed = 0, uses_anonymous_args = 0
 244 0000 08B5     		push	{r3, lr}
 245              		.cfi_def_cfa_offset 8
 246              		.cfi_offset 3, -8
 247              		.cfi_offset 14, -4
 100:Core/Src/ecatapp.c ****     if (Obj.led_rx.led1_rx != 0)
 248              		.loc 1 100 5 view .LVU43
 249              		.loc 1 100 19 is_stmt 0 view .LVU44
 250 0002 0E4B     		ldr	r3, .L30
 251 0004 DB79     		ldrb	r3, [r3, #7]	@ zero_extendqisi2
 252              		.loc 1 100 8 view .LVU45
 253 0006 6BB1     		cbz	r3, .L25
 101:Core/Src/ecatapp.c ****     {
 102:Core/Src/ecatapp.c ****         GPIO_SetBits(GPIOB, GPIO_Pin_15);
 254              		.loc 1 102 9 is_stmt 1 view .LVU46
 255 0008 4FF40041 		mov	r1, #32768
 256 000c 0C48     		ldr	r0, .L30+4
 257 000e FFF7FEFF 		bl	GPIO_SetBits
 258              	.LVL11:
 259              	.L26:
 103:Core/Src/ecatapp.c ****     }
 104:Core/Src/ecatapp.c ****     else
 105:Core/Src/ecatapp.c ****     {
 106:Core/Src/ecatapp.c ****         GPIO_ResetBits(GPIOB, GPIO_Pin_15);
 107:Core/Src/ecatapp.c ****     }
 108:Core/Src/ecatapp.c **** 
 109:Core/Src/ecatapp.c ****     if (Obj.led_rx.led2_rx != 0)
 260              		.loc 1 109 5 view .LVU47
 261              		.loc 1 109 19 is_stmt 0 view .LVU48
ARM GAS  /tmp/ccUfH24l.s 			page 8


 262 0012 0A4B     		ldr	r3, .L30
 263 0014 9B79     		ldrb	r3, [r3, #6]	@ zero_extendqisi2
 264              		.loc 1 109 8 view .LVU49
 265 0016 5BB1     		cbz	r3, .L27
 110:Core/Src/ecatapp.c ****     {
 111:Core/Src/ecatapp.c ****         GPIO_SetBits(GPIOB, GPIO_Pin_14);
 266              		.loc 1 111 9 is_stmt 1 view .LVU50
 267 0018 4FF48041 		mov	r1, #16384
 268 001c 0848     		ldr	r0, .L30+4
 269 001e FFF7FEFF 		bl	GPIO_SetBits
 270              	.LVL12:
 271              	.L24:
 112:Core/Src/ecatapp.c ****     }
 113:Core/Src/ecatapp.c ****     else
 114:Core/Src/ecatapp.c ****     {
 115:Core/Src/ecatapp.c ****         GPIO_ResetBits(GPIOB, GPIO_Pin_14);
 116:Core/Src/ecatapp.c ****     }
 117:Core/Src/ecatapp.c **** }
 272              		.loc 1 117 1 is_stmt 0 view .LVU51
 273 0022 08BD     		pop	{r3, pc}
 274              	.L25:
 106:Core/Src/ecatapp.c ****     }
 275              		.loc 1 106 9 is_stmt 1 view .LVU52
 276 0024 4FF40041 		mov	r1, #32768
 277 0028 0548     		ldr	r0, .L30+4
 278 002a FFF7FEFF 		bl	GPIO_ResetBits
 279              	.LVL13:
 280 002e F0E7     		b	.L26
 281              	.L27:
 115:Core/Src/ecatapp.c ****     }
 282              		.loc 1 115 9 view .LVU53
 283 0030 4FF48041 		mov	r1, #16384
 284 0034 0248     		ldr	r0, .L30+4
 285 0036 FFF7FEFF 		bl	GPIO_ResetBits
 286              	.LVL14:
 287              		.loc 1 117 1 is_stmt 0 view .LVU54
 288 003a F2E7     		b	.L24
 289              	.L31:
 290              		.align	2
 291              	.L30:
 292 003c 00000000 		.word	.LANCHOR0
 293 0040 00040240 		.word	1073873920
 294              		.cfi_endproc
 295              	.LFE128:
 297              		.section	.text.cb_set_outputs,"ax",%progbits
 298              		.align	1
 299              		.global	cb_set_outputs
 300              		.syntax unified
 301              		.thumb
 302              		.thumb_func
 304              	cb_set_outputs:
 305              	.LFB129:
 118:Core/Src/ecatapp.c **** 
 119:Core/Src/ecatapp.c **** void cb_set_outputs()
 120:Core/Src/ecatapp.c **** {
 306              		.loc 1 120 1 is_stmt 1 view -0
 307              		.cfi_startproc
ARM GAS  /tmp/ccUfH24l.s 			page 9


 308              		@ args = 0, pretend = 0, frame = 0
 309              		@ frame_needed = 0, uses_anonymous_args = 0
 310              		@ link register save eliminated.
 121:Core/Src/ecatapp.c ****     Obj.led_tx.led1_tx = Obj.led_rx.led1_rx;
 311              		.loc 1 121 5 view .LVU56
 312              		.loc 1 121 36 is_stmt 0 view .LVU57
 313 0000 024B     		ldr	r3, .L33
 314 0002 DA79     		ldrb	r2, [r3, #7]	@ zero_extendqisi2
 315              		.loc 1 121 24 view .LVU58
 316 0004 1A71     		strb	r2, [r3, #4]
 122:Core/Src/ecatapp.c ****     Obj.led_tx.led2_tx = Obj.led_rx.led2_rx;
 317              		.loc 1 122 5 is_stmt 1 view .LVU59
 318              		.loc 1 122 36 is_stmt 0 view .LVU60
 319 0006 9A79     		ldrb	r2, [r3, #6]	@ zero_extendqisi2
 320              		.loc 1 122 24 view .LVU61
 321 0008 5A71     		strb	r2, [r3, #5]
 123:Core/Src/ecatapp.c **** }
 322              		.loc 1 123 1 view .LVU62
 323 000a 7047     		bx	lr
 324              	.L34:
 325              		.align	2
 326              	.L33:
 327 000c 00000000 		.word	.LANCHOR0
 328              		.cfi_endproc
 329              	.LFE129:
 331              		.section	.text.ecatapp_loop,"ax",%progbits
 332              		.align	1
 333              		.global	ecatapp_loop
 334              		.syntax unified
 335              		.thumb
 336              		.thumb_func
 338              	ecatapp_loop:
 339              	.LFB130:
 124:Core/Src/ecatapp.c **** 
 125:Core/Src/ecatapp.c **** void ecatapp_loop(void)
 126:Core/Src/ecatapp.c **** {
 340              		.loc 1 126 1 is_stmt 1 view -0
 341              		.cfi_startproc
 342              		@ args = 0, pretend = 0, frame = 0
 343              		@ frame_needed = 0, uses_anonymous_args = 0
 344 0000 10B5     		push	{r4, lr}
 345              		.cfi_def_cfa_offset 8
 346              		.cfi_offset 4, -8
 347              		.cfi_offset 14, -4
 127:Core/Src/ecatapp.c ****     // stack in mixed mode
 128:Core/Src/ecatapp.c ****     if (sync0_irq_flag)
 348              		.loc 1 128 5 view .LVU64
 349              		.loc 1 128 9 is_stmt 0 view .LVU65
 350 0002 174B     		ldr	r3, .L43
 351 0004 1B78     		ldrb	r3, [r3]	@ zero_extendqisi2
 352              		.loc 1 128 8 view .LVU66
 353 0006 9BB9     		cbnz	r3, .L42
 354              	.L36:
 129:Core/Src/ecatapp.c ****     {
 130:Core/Src/ecatapp.c ****         ESC_updateALevent();
 131:Core/Src/ecatapp.c ****         DIG_process(DIG_PROCESS_APP_HOOK_FLAG | DIG_PROCESS_INPUTS_FLAG);
 132:Core/Src/ecatapp.c ****         sync0_irq_flag = 0;
ARM GAS  /tmp/ccUfH24l.s 			page 10


 133:Core/Src/ecatapp.c ****     }
 134:Core/Src/ecatapp.c ****     if (pdi_irq_flag)
 355              		.loc 1 134 5 is_stmt 1 view .LVU67
 356              		.loc 1 134 9 is_stmt 0 view .LVU68
 357 0008 164B     		ldr	r3, .L43+4
 358 000a 1B78     		ldrb	r3, [r3]	@ zero_extendqisi2
 359              		.loc 1 134 8 view .LVU69
 360 000c 0BB3     		cbz	r3, .L37
 135:Core/Src/ecatapp.c ****     {
 136:Core/Src/ecatapp.c ****         ESC_updateALevent();
 361              		.loc 1 136 9 is_stmt 1 view .LVU70
 362 000e 164C     		ldr	r4, .L43+8
 363 0010 0422     		movs	r2, #4
 364 0012 2146     		mov	r1, r4
 365 0014 4FF41160 		mov	r0, #2320
 366 0018 FFF7FEFF 		bl	ESC_read
 367              	.LVL15:
 368              		.loc 1 136 28 view .LVU71
 137:Core/Src/ecatapp.c ****         if (ESCvar.dcsync)
 369              		.loc 1 137 9 view .LVU72
 370              		.loc 1 137 19 is_stmt 0 view .LVU73
 371 001c 14F8643C 		ldrb	r3, [r4, #-100]	@ zero_extendqisi2
 372              		.loc 1 137 12 view .LVU74
 373 0020 9BB1     		cbz	r3, .L38
 138:Core/Src/ecatapp.c ****         {
 139:Core/Src/ecatapp.c ****             DIG_process(DIG_PROCESS_OUTPUTS_FLAG);
 374              		.loc 1 139 13 is_stmt 1 view .LVU75
 375 0022 0220     		movs	r0, #2
 376 0024 FFF7FEFF 		bl	DIG_process
 377              	.LVL16:
 378              	.L39:
 140:Core/Src/ecatapp.c ****         }
 141:Core/Src/ecatapp.c ****         else
 142:Core/Src/ecatapp.c ****         {
 143:Core/Src/ecatapp.c ****             DIG_process(DIG_PROCESS_OUTPUTS_FLAG | DIG_PROCESS_APP_HOOK_FLAG | DIG_PROCESS_INPUTS_F
 144:Core/Src/ecatapp.c ****         }
 145:Core/Src/ecatapp.c ****         pdi_irq_flag = 0;
 379              		.loc 1 145 9 view .LVU76
 380              		.loc 1 145 22 is_stmt 0 view .LVU77
 381 0028 0E4B     		ldr	r3, .L43+4
 382 002a 0022     		movs	r2, #0
 383 002c 1A70     		strb	r2, [r3]
 384              	.L35:
 146:Core/Src/ecatapp.c ****     }
 147:Core/Src/ecatapp.c ****     else
 148:Core/Src/ecatapp.c ****     {
 149:Core/Src/ecatapp.c ****         // ecat_slv_worker(ESCREG_ALEVENT_CONTROL | ESCREG_ALEVENT_SMCHANGE
 150:Core/Src/ecatapp.c ****         //                 | ESCREG_ALEVENT_SM0 | ESCREG_ALEVENT_SM1);
 151:Core/Src/ecatapp.c ****         ecat_slv_poll();
 152:Core/Src/ecatapp.c ****         DIG_process(DIG_PROCESS_WD_FLAG);
 153:Core/Src/ecatapp.c ****     }
 154:Core/Src/ecatapp.c **** }...
 385              		.loc 1 154 1 view .LVU78
 386 002e 10BD     		pop	{r4, pc}
 387              	.L42:
 130:Core/Src/ecatapp.c ****         ESC_updateALevent();
 388              		.loc 1 130 9 is_stmt 1 view .LVU79
ARM GAS  /tmp/ccUfH24l.s 			page 11


 389 0030 0422     		movs	r2, #4
 390 0032 0D49     		ldr	r1, .L43+8
 391 0034 4FF41160 		mov	r0, #2320
 392 0038 FFF7FEFF 		bl	ESC_read
 393              	.LVL17:
 130:Core/Src/ecatapp.c ****         ESC_updateALevent();
 394              		.loc 1 130 28 view .LVU80
 131:Core/Src/ecatapp.c ****         DIG_process(DIG_PROCESS_APP_HOOK_FLAG | DIG_PROCESS_INPUTS_FLAG);
 395              		.loc 1 131 9 view .LVU81
 396 003c 0920     		movs	r0, #9
 397 003e FFF7FEFF 		bl	DIG_process
 398              	.LVL18:
 132:Core/Src/ecatapp.c ****         sync0_irq_flag = 0;
 399              		.loc 1 132 9 view .LVU82
 132:Core/Src/ecatapp.c ****         sync0_irq_flag = 0;
 400              		.loc 1 132 24 is_stmt 0 view .LVU83
 401 0042 074B     		ldr	r3, .L43
 402 0044 0022     		movs	r2, #0
 403 0046 1A70     		strb	r2, [r3]
 404 0048 DEE7     		b	.L36
 405              	.L38:
 143:Core/Src/ecatapp.c ****             DIG_process(DIG_PROCESS_OUTPUTS_FLAG | DIG_PROCESS_APP_HOOK_FLAG | DIG_PROCESS_INPUTS_F
 406              		.loc 1 143 13 is_stmt 1 view .LVU84
 407 004a 0B20     		movs	r0, #11
 408 004c FFF7FEFF 		bl	DIG_process
 409              	.LVL19:
 410 0050 EAE7     		b	.L39
 411              	.L37:
 151:Core/Src/ecatapp.c ****         ecat_slv_poll();
 412              		.loc 1 151 9 view .LVU85
 413 0052 FFF7FEFF 		bl	ecat_slv_poll
 414              	.LVL20:
 152:Core/Src/ecatapp.c ****         DIG_process(DIG_PROCESS_WD_FLAG);
 415              		.loc 1 152 9 view .LVU86
 416 0056 0420     		movs	r0, #4
 417 0058 FFF7FEFF 		bl	DIG_process
 418              	.LVL21:
 419              		.loc 1 154 1 is_stmt 0 view .LVU87
 420 005c E7E7     		b	.L35
 421              	.L44:
 422 005e 00BF     		.align	2
 423              	.L43:
 424 0060 00000000 		.word	.LANCHOR1
 425 0064 00000000 		.word	.LANCHOR2
 426 0068 E0000000 		.word	ESCvar+224
 427              		.cfi_endproc
 428              	.LFE130:
 430              		.section	.rodata.str1.4,"aMS",%progbits,1
 431              		.align	2
 432              	.LC0:
 433 0000 61783538 		.ascii	"ax58100\000"
 433      31303000 
 434              		.global	Obj
 435              		.section	.bss.Obj,"aw",%nobits
 436              		.align	2
 437              		.set	.LANCHOR0,. + 0
 440              	Obj:
ARM GAS  /tmp/ccUfH24l.s 			page 12


 441 0000 00000000 		.space	68
 441      00000000 
 441      00000000 
 441      00000000 
 441      00000000 
 442              		.section	.bss.pdi_irq_flag,"aw",%nobits
 443              		.set	.LANCHOR2,. + 0
 446              	pdi_irq_flag:
 447 0000 00       		.space	1
 448              		.section	.bss.sync0_irq_flag,"aw",%nobits
 449              		.set	.LANCHOR1,. + 0
 452              	sync0_irq_flag:
 453 0000 00       		.space	1
 454              		.section	.data.config,"aw"
 455              		.align	2
 456              		.set	.LANCHOR3,. + 0
 459              	config:
 460 0000 00000000 		.word	.LC0
 461 0004 01000000 		.word	1
 462 0008 FFFFFF7F 		.word	2147483647
 463 000c 00000000 		.space	4
 464 0010 00000000 		.word	0
 465 0014 00000000 		.word	0
 466 0018 00000000 		.word	0
 467 001c 00000000 		.word	ecatapp
 468 0020 00000000 		.word	0
 469 0024 00000000 		.word	0
 470 0028 00000000 		.word	0
 471 002c 00000000 		.space	8
 471      00000000 
 472 0034 00000000 		.word	rxpdo_override
 473 0038 00000000 		.word	txpdo_override
 474 003c 00000000 		.word	ESC_interrupt_enable
 475 0040 00000000 		.word	ESC_interrupt_disable
 476 0044 00000000 		.word	0
 477 0048 00000000 		.word	check_dc_handler
 478 004c 00000000 		.space	4
 479              		.text
 480              	.Letext0:
 481              		.file 2 "/usr/share/gcc-arm-none-eabi-10.3-2021.10/arm-none-eabi/include/machine/_default_types.h"
 482              		.file 3 "/usr/share/gcc-arm-none-eabi-10.3-2021.10/arm-none-eabi/include/sys/_stdint.h"
 483              		.file 4 "/usr/share/gcc-arm-none-eabi-10.3-2021.10/lib/gcc/arm-none-eabi/10.3.1/include/stddef.h"
 484              		.file 5 "Lib/soes/inc/esc.h"
 485              		.file 6 "Lib/soes-esi/utypes.h"
 486              		.file 7 "Drivers/CMSIS/Device/ST/STM32F4xx/Include/stm32f4xx.h"
 487              		.file 8 "Lib/soes/inc/ecat_slv.h"
 488              		.file 9 "Drivers/STM32F4xx_StdPeriph_Driver/inc/stm32f4xx_gpio.h"
 489              		.file 10 "Lib/soes_hal_bsp/inc/esc_irq.h"
 490              		.file 11 "Core/Inc/pdo_override.h"
 491              		.file 12 "Drivers/STM32F4xx_StdPeriph_Driver/inc/stm32f4xx_exti.h"
ARM GAS  /tmp/ccUfH24l.s 			page 13


DEFINED SYMBOLS
                            *ABS*:0000000000000000 ecatapp.c
     /tmp/ccUfH24l.s:20     .text.ecatapp:0000000000000000 $t
     /tmp/ccUfH24l.s:26     .text.ecatapp:0000000000000000 ecatapp
     /tmp/ccUfH24l.s:40     .text.check_dc_handler:0000000000000000 $t
     /tmp/ccUfH24l.s:46     .text.check_dc_handler:0000000000000000 check_dc_handler
     /tmp/ccUfH24l.s:99     .text.check_dc_handler:0000000000000030 $d
     /tmp/ccUfH24l.s:107    .text.EXTI0_IRQHandler:0000000000000000 $t
     /tmp/ccUfH24l.s:113    .text.EXTI0_IRQHandler:0000000000000000 EXTI0_IRQHandler
     /tmp/ccUfH24l.s:148    .text.EXTI0_IRQHandler:000000000000001c $d
     /tmp/ccUfH24l.s:153    .text.EXTI9_5_IRQHandler:0000000000000000 $t
     /tmp/ccUfH24l.s:159    .text.EXTI9_5_IRQHandler:0000000000000000 EXTI9_5_IRQHandler
     /tmp/ccUfH24l.s:194    .text.EXTI9_5_IRQHandler:000000000000001c $d
     /tmp/ccUfH24l.s:199    .text.ecatapp_init:0000000000000000 $t
     /tmp/ccUfH24l.s:205    .text.ecatapp_init:0000000000000000 ecatapp_init
     /tmp/ccUfH24l.s:227    .text.ecatapp_init:0000000000000010 $d
     /tmp/ccUfH24l.s:232    .text.cb_get_inputs:0000000000000000 $t
     /tmp/ccUfH24l.s:238    .text.cb_get_inputs:0000000000000000 cb_get_inputs
     /tmp/ccUfH24l.s:292    .text.cb_get_inputs:000000000000003c $d
     /tmp/ccUfH24l.s:298    .text.cb_set_outputs:0000000000000000 $t
     /tmp/ccUfH24l.s:304    .text.cb_set_outputs:0000000000000000 cb_set_outputs
     /tmp/ccUfH24l.s:327    .text.cb_set_outputs:000000000000000c $d
     /tmp/ccUfH24l.s:332    .text.ecatapp_loop:0000000000000000 $t
     /tmp/ccUfH24l.s:338    .text.ecatapp_loop:0000000000000000 ecatapp_loop
     /tmp/ccUfH24l.s:424    .text.ecatapp_loop:0000000000000060 $d
     /tmp/ccUfH24l.s:431    .rodata.str1.4:0000000000000000 $d
     /tmp/ccUfH24l.s:440    .bss.Obj:0000000000000000 Obj
     /tmp/ccUfH24l.s:436    .bss.Obj:0000000000000000 $d
     /tmp/ccUfH24l.s:446    .bss.pdi_irq_flag:0000000000000000 pdi_irq_flag
     /tmp/ccUfH24l.s:447    .bss.pdi_irq_flag:0000000000000000 $d
     /tmp/ccUfH24l.s:452    .bss.sync0_irq_flag:0000000000000000 sync0_irq_flag
     /tmp/ccUfH24l.s:453    .bss.sync0_irq_flag:0000000000000000 $d
     /tmp/ccUfH24l.s:455    .data.config:0000000000000000 $d
     /tmp/ccUfH24l.s:459    .data.config:0000000000000000 config

UNDEFINED SYMBOLS
ESC_enable_DC
APP_setwatchdog
ESCvar
EXTI_GetITStatus
EXTI_ClearITPendingBit
ecat_slv_init
init_override
GPIO_SetBits
GPIO_ResetBits
ESC_read
DIG_process
ecat_slv_poll
rxpdo_override
txpdo_override
ESC_interrupt_enable
ESC_interrupt_disable
