ARM GAS  /tmp/cc8hDZeS.s 			page 1


   1              		.cpu cortex-m4
   2              		.eabi_attribute 27, 1
   3              		.eabi_attribute 28, 1
   4              		.eabi_attribute 20, 1
   5              		.eabi_attribute 21, 1
   6              		.eabi_attribute 23, 3
   7              		.eabi_attribute 24, 1
   8              		.eabi_attribute 25, 1
   9              		.eabi_attribute 26, 1
  10              		.eabi_attribute 30, 1
  11              		.eabi_attribute 34, 1
  12              		.eabi_attribute 18, 4
  13              		.file	"ecatapp.c"
  14              		.text
  15              	.Ltext0:
  16              		.cfi_sections	.debug_frame
  17              		.section	.text.ecatapp,"ax",%progbits
  18              		.align	1
  19              		.global	ecatapp
  20              		.arch armv7e-m
  21              		.syntax unified
  22              		.thumb
  23              		.thumb_func
  24              		.fpu fpv4-sp-d16
  26              	ecatapp:
  27              	.LFB127:
  28              		.file 1 "Core/Src/ecatapp.c"
   1:Core/Src/ecatapp.c **** #include "esc.h"
   2:Core/Src/ecatapp.c **** #include "ecat_slv.h"
   3:Core/Src/ecatapp.c **** #include "utypes.h"
   4:Core/Src/ecatapp.c **** 
   5:Core/Src/ecatapp.c **** #include "esc_irq.h"
   6:Core/Src/ecatapp.c **** #include "pdo_override.h"
   7:Core/Src/ecatapp.c **** #include "ecatapp.h"
   8:Core/Src/ecatapp.c **** #include "stm32f4xx.h"
   9:Core/Src/ecatapp.c **** 
  10:Core/Src/ecatapp.c **** 
  11:Core/Src/ecatapp.c **** /* CANopen Object Dictionary */
  12:Core/Src/ecatapp.c **** _Objects    Obj;
  13:Core/Src/ecatapp.c **** 
  14:Core/Src/ecatapp.c **** 
  15:Core/Src/ecatapp.c **** /* Application hook declaration */
  16:Core/Src/ecatapp.c **** void ecatapp(void);
  17:Core/Src/ecatapp.c **** uint16_t check_dc_handler(void);
  18:Core/Src/ecatapp.c **** 
  19:Core/Src/ecatapp.c **** /* CiA402 hooks declarations */
  20:Core/Src/ecatapp.c **** void app_cia402_init(void);
  21:Core/Src/ecatapp.c **** void app_cia402_mc(void);
  22:Core/Src/ecatapp.c **** 
  23:Core/Src/ecatapp.c **** 
  24:Core/Src/ecatapp.c **** /* SOES configuration */
  25:Core/Src/ecatapp.c **** static esc_cfg_t config = { 
  26:Core/Src/ecatapp.c ****     .user_arg                  = "ax58100",
  27:Core/Src/ecatapp.c ****     .use_interrupt             = 1,
  28:Core/Src/ecatapp.c ****     .watchdog_cnt              = INT32_MAX,
  29:Core/Src/ecatapp.c ****     .set_defaults_hook         = NULL,
  30:Core/Src/ecatapp.c ****     .pre_state_change_hook     = NULL,
ARM GAS  /tmp/cc8hDZeS.s 			page 2


  31:Core/Src/ecatapp.c ****     .post_state_change_hook    = NULL,
  32:Core/Src/ecatapp.c ****     .application_hook          = ecatapp,
  33:Core/Src/ecatapp.c ****     .safeoutput_override       = NULL,
  34:Core/Src/ecatapp.c ****     .pre_object_download_hook  = NULL,
  35:Core/Src/ecatapp.c ****     .post_object_download_hook = NULL,
  36:Core/Src/ecatapp.c ****     .rxpdo_override            = rxpdo_override,
  37:Core/Src/ecatapp.c ****     .txpdo_override            = txpdo_override,
  38:Core/Src/ecatapp.c ****     .esc_hw_interrupt_enable   = ESC_interrupt_enable,
  39:Core/Src/ecatapp.c ****     .esc_hw_interrupt_disable  = ESC_interrupt_disable,
  40:Core/Src/ecatapp.c ****     .esc_hw_eep_handler        = NULL,
  41:Core/Src/ecatapp.c ****     .esc_check_dc_handler      = check_dc_handler,
  42:Core/Src/ecatapp.c **** };
  43:Core/Src/ecatapp.c **** 
  44:Core/Src/ecatapp.c **** /* CiA402 motion control configuration */
  45:Core/Src/ecatapp.c **** 
  46:Core/Src/ecatapp.c **** // **************************************************************
  47:Core/Src/ecatapp.c **** 
  48:Core/Src/ecatapp.c **** static uint8_t sync0_irq_flag = 0;
  49:Core/Src/ecatapp.c **** 
  50:Core/Src/ecatapp.c **** void EXTI1_IRQHandler(void)
  51:Core/Src/ecatapp.c **** {
  52:Core/Src/ecatapp.c ****     if(EXTI_GetITStatus(EXTI_Line1) != RESET)
  53:Core/Src/ecatapp.c ****     {
  54:Core/Src/ecatapp.c ****         EXTI_ClearITPendingBit(EXTI_Line1);
  55:Core/Src/ecatapp.c ****         sync0_irq_flag = 1;
  56:Core/Src/ecatapp.c ****     }
  57:Core/Src/ecatapp.c **** }
  58:Core/Src/ecatapp.c **** 
  59:Core/Src/ecatapp.c **** static uint8_t pdi_irq_flag = 0;
  60:Core/Src/ecatapp.c **** 
  61:Core/Src/ecatapp.c **** void EXTI3_IRQHandler(void)
  62:Core/Src/ecatapp.c **** {
  63:Core/Src/ecatapp.c ****     if(EXTI_GetITStatus(EXTI_Line3) != RESET)
  64:Core/Src/ecatapp.c ****     {
  65:Core/Src/ecatapp.c ****         EXTI_ClearITPendingBit(EXTI_Line3);
  66:Core/Src/ecatapp.c ****         pdi_irq_flag = 1;
  67:Core/Src/ecatapp.c ****     }
  68:Core/Src/ecatapp.c **** }
  69:Core/Src/ecatapp.c **** // **************************************************************
  70:Core/Src/ecatapp.c **** 
  71:Core/Src/ecatapp.c **** void ecatapp_init(void) {
  72:Core/Src/ecatapp.c ****     ecat_slv_init(&config);
  73:Core/Src/ecatapp.c **** 	init_override();
  74:Core/Src/ecatapp.c **** }
  75:Core/Src/ecatapp.c **** 
  76:Core/Src/ecatapp.c **** uint16_t check_dc_handler (void)
  77:Core/Src/ecatapp.c **** {
  78:Core/Src/ecatapp.c ****     // minimum watchdog value is 1 ms, in nanoseconds
  79:Core/Src/ecatapp.c ****     #define MIN_WATCHDOG_VALUE_NS      1000000
  80:Core/Src/ecatapp.c **** 
  81:Core/Src/ecatapp.c ****     /* Indicate we run DC */
  82:Core/Src/ecatapp.c ****     ESCvar.dcsync = 1;
  83:Core/Src/ecatapp.c ****     /* Fetch the sync counter limit (SDO10F1) */
  84:Core/Src/ecatapp.c ****     ESCvar.synccounterlimit = Obj.Error_Settings.SyncErrorCounterLimit;
  85:Core/Src/ecatapp.c **** 
  86:Core/Src/ecatapp.c ****     uint32_t sync0cycleTime = ESC_enable_DC();
  87:Core/Src/ecatapp.c ****     Obj.Sync_Manager_2_Parameters.CycleTime = sync0cycleTime;
ARM GAS  /tmp/cc8hDZeS.s 			page 3


  88:Core/Src/ecatapp.c ****     // Obj.Sync_Manager_3_Parameters.CycleTime = sync0cycleTime;
  89:Core/Src/ecatapp.c ****     // calculate watchdog value as 2 x SYNC0 cycle time
  90:Core/Src/ecatapp.c ****     int watchdog_value = 2 * sync0cycleTime;
  91:Core/Src/ecatapp.c ****     if (watchdog_value < MIN_WATCHDOG_VALUE_NS) {
  92:Core/Src/ecatapp.c ****         watchdog_value = MIN_WATCHDOG_VALUE_NS;
  93:Core/Src/ecatapp.c ****     }
  94:Core/Src/ecatapp.c ****     APP_setwatchdog(watchdog_value);
  95:Core/Src/ecatapp.c **** 
  96:Core/Src/ecatapp.c ****     return 0;
  97:Core/Src/ecatapp.c **** }
  98:Core/Src/ecatapp.c **** 
  99:Core/Src/ecatapp.c **** void ecatapp()
 100:Core/Src/ecatapp.c **** {
  29              		.loc 1 100 1 view -0
  30              		.cfi_startproc
  31              		@ args = 0, pretend = 0, frame = 0
  32              		@ frame_needed = 0, uses_anonymous_args = 0
  33              		@ link register save eliminated.
 101:Core/Src/ecatapp.c **** 
 102:Core/Src/ecatapp.c **** }
  34              		.loc 1 102 1 view .LVU1
  35 0000 7047     		bx	lr
  36              		.cfi_endproc
  37              	.LFE127:
  39              		.section	.text.check_dc_handler,"ax",%progbits
  40              		.align	1
  41              		.global	check_dc_handler
  42              		.syntax unified
  43              		.thumb
  44              		.thumb_func
  45              		.fpu fpv4-sp-d16
  47              	check_dc_handler:
  48              	.LFB126:
  77:Core/Src/ecatapp.c ****     // minimum watchdog value is 1 ms, in nanoseconds
  49              		.loc 1 77 1 view -0
  50              		.cfi_startproc
  51              		@ args = 0, pretend = 0, frame = 0
  52              		@ frame_needed = 0, uses_anonymous_args = 0
  53 0000 10B5     		push	{r4, lr}
  54              		.cfi_def_cfa_offset 8
  55              		.cfi_offset 4, -8
  56              		.cfi_offset 14, -4
  82:Core/Src/ecatapp.c ****     /* Fetch the sync counter limit (SDO10F1) */
  57              		.loc 1 82 5 view .LVU3
  82:Core/Src/ecatapp.c ****     /* Fetch the sync counter limit (SDO10F1) */
  58              		.loc 1 82 19 is_stmt 0 view .LVU4
  59 0002 0B4B     		ldr	r3, .L6
  60 0004 0122     		movs	r2, #1
  61 0006 83F87C20 		strb	r2, [r3, #124]
  84:Core/Src/ecatapp.c **** 
  62              		.loc 1 84 5 is_stmt 1 view .LVU5
  84:Core/Src/ecatapp.c **** 
  63              		.loc 1 84 49 is_stmt 0 view .LVU6
  64 000a 0A4C     		ldr	r4, .L6+4
  65 000c 2269     		ldr	r2, [r4, #16]
  84:Core/Src/ecatapp.c **** 
  66              		.loc 1 84 29 view .LVU7
ARM GAS  /tmp/cc8hDZeS.s 			page 4


  67 000e A3F87E20 		strh	r2, [r3, #126]	@ movhi
  86:Core/Src/ecatapp.c ****     Obj.Sync_Manager_2_Parameters.CycleTime = sync0cycleTime;
  68              		.loc 1 86 5 is_stmt 1 view .LVU8
  86:Core/Src/ecatapp.c ****     Obj.Sync_Manager_2_Parameters.CycleTime = sync0cycleTime;
  69              		.loc 1 86 31 is_stmt 0 view .LVU9
  70 0012 FFF7FEFF 		bl	ESC_enable_DC
  71              	.LVL0:
  72 0016 0346     		mov	r3, r0
  73              	.LVL1:
  87:Core/Src/ecatapp.c ****     // Obj.Sync_Manager_3_Parameters.CycleTime = sync0cycleTime;
  74              		.loc 1 87 5 is_stmt 1 view .LVU10
  87:Core/Src/ecatapp.c ****     // Obj.Sync_Manager_3_Parameters.CycleTime = sync0cycleTime;
  75              		.loc 1 87 45 is_stmt 0 view .LVU11
  76 0018 A061     		str	r0, [r4, #24]
  90:Core/Src/ecatapp.c ****     if (watchdog_value < MIN_WATCHDOG_VALUE_NS) {
  77              		.loc 1 90 5 is_stmt 1 view .LVU12
  90:Core/Src/ecatapp.c ****     if (watchdog_value < MIN_WATCHDOG_VALUE_NS) {
  78              		.loc 1 90 28 is_stmt 0 view .LVU13
  79 001a 4000     		lsls	r0, r0, #1
  80              	.LVL2:
  91:Core/Src/ecatapp.c ****         watchdog_value = MIN_WATCHDOG_VALUE_NS;
  81              		.loc 1 91 5 is_stmt 1 view .LVU14
  91:Core/Src/ecatapp.c ****         watchdog_value = MIN_WATCHDOG_VALUE_NS;
  82              		.loc 1 91 8 is_stmt 0 view .LVU15
  83 001c 064A     		ldr	r2, .L6+8
  84 001e B2EB430F 		cmp	r2, r3, lsl #1
  85 0022 00DB     		blt	.L3
  92:Core/Src/ecatapp.c ****     }
  86              		.loc 1 92 24 view .LVU16
  87 0024 0548     		ldr	r0, .L6+12
  88              	.LVL3:
  89              	.L3:
  94:Core/Src/ecatapp.c **** 
  90              		.loc 1 94 5 is_stmt 1 view .LVU17
  91 0026 FFF7FEFF 		bl	APP_setwatchdog
  92              	.LVL4:
  96:Core/Src/ecatapp.c **** }
  93              		.loc 1 96 5 view .LVU18
  97:Core/Src/ecatapp.c **** 
  94              		.loc 1 97 1 is_stmt 0 view .LVU19
  95 002a 0020     		movs	r0, #0
  96 002c 10BD     		pop	{r4, pc}
  97              	.L7:
  98 002e 00BF     		.align	2
  99              	.L6:
 100 0030 00000000 		.word	ESCvar
 101 0034 00000000 		.word	.LANCHOR0
 102 0038 3F420F00 		.word	999999
 103 003c 40420F00 		.word	1000000
 104              		.cfi_endproc
 105              	.LFE126:
 107              		.section	.text.EXTI1_IRQHandler,"ax",%progbits
 108              		.align	1
 109              		.global	EXTI1_IRQHandler
 110              		.syntax unified
 111              		.thumb
 112              		.thumb_func
ARM GAS  /tmp/cc8hDZeS.s 			page 5


 113              		.fpu fpv4-sp-d16
 115              	EXTI1_IRQHandler:
 116              	.LFB123:
  51:Core/Src/ecatapp.c ****     if(EXTI_GetITStatus(EXTI_Line1) != RESET)
 117              		.loc 1 51 1 is_stmt 1 view -0
 118              		.cfi_startproc
 119              		@ args = 0, pretend = 0, frame = 0
 120              		@ frame_needed = 0, uses_anonymous_args = 0
 121 0000 08B5     		push	{r3, lr}
 122              		.cfi_def_cfa_offset 8
 123              		.cfi_offset 3, -8
 124              		.cfi_offset 14, -4
  52:Core/Src/ecatapp.c ****     {
 125              		.loc 1 52 5 view .LVU21
  52:Core/Src/ecatapp.c ****     {
 126              		.loc 1 52 8 is_stmt 0 view .LVU22
 127 0002 0220     		movs	r0, #2
 128 0004 FFF7FEFF 		bl	EXTI_GetITStatus
 129              	.LVL5:
  52:Core/Src/ecatapp.c ****     {
 130              		.loc 1 52 7 view .LVU23
 131 0008 00B9     		cbnz	r0, .L11
 132              	.L8:
  57:Core/Src/ecatapp.c **** 
 133              		.loc 1 57 1 view .LVU24
 134 000a 08BD     		pop	{r3, pc}
 135              	.L11:
  54:Core/Src/ecatapp.c ****         sync0_irq_flag = 1;
 136              		.loc 1 54 9 is_stmt 1 view .LVU25
 137 000c 0220     		movs	r0, #2
 138 000e FFF7FEFF 		bl	EXTI_ClearITPendingBit
 139              	.LVL6:
  55:Core/Src/ecatapp.c ****     }
 140              		.loc 1 55 9 view .LVU26
  55:Core/Src/ecatapp.c ****     }
 141              		.loc 1 55 24 is_stmt 0 view .LVU27
 142 0012 024B     		ldr	r3, .L12
 143 0014 0122     		movs	r2, #1
 144 0016 1A70     		strb	r2, [r3]
  57:Core/Src/ecatapp.c **** 
 145              		.loc 1 57 1 view .LVU28
 146 0018 F7E7     		b	.L8
 147              	.L13:
 148 001a 00BF     		.align	2
 149              	.L12:
 150 001c 00000000 		.word	.LANCHOR1
 151              		.cfi_endproc
 152              	.LFE123:
 154              		.section	.text.EXTI3_IRQHandler,"ax",%progbits
 155              		.align	1
 156              		.global	EXTI3_IRQHandler
 157              		.syntax unified
 158              		.thumb
 159              		.thumb_func
 160              		.fpu fpv4-sp-d16
 162              	EXTI3_IRQHandler:
 163              	.LFB124:
ARM GAS  /tmp/cc8hDZeS.s 			page 6


  62:Core/Src/ecatapp.c ****     if(EXTI_GetITStatus(EXTI_Line3) != RESET)
 164              		.loc 1 62 1 is_stmt 1 view -0
 165              		.cfi_startproc
 166              		@ args = 0, pretend = 0, frame = 0
 167              		@ frame_needed = 0, uses_anonymous_args = 0
 168 0000 08B5     		push	{r3, lr}
 169              		.cfi_def_cfa_offset 8
 170              		.cfi_offset 3, -8
 171              		.cfi_offset 14, -4
  63:Core/Src/ecatapp.c ****     {
 172              		.loc 1 63 5 view .LVU30
  63:Core/Src/ecatapp.c ****     {
 173              		.loc 1 63 8 is_stmt 0 view .LVU31
 174 0002 0820     		movs	r0, #8
 175 0004 FFF7FEFF 		bl	EXTI_GetITStatus
 176              	.LVL7:
  63:Core/Src/ecatapp.c ****     {
 177              		.loc 1 63 7 view .LVU32
 178 0008 00B9     		cbnz	r0, .L17
 179              	.L14:
  68:Core/Src/ecatapp.c **** // **************************************************************
 180              		.loc 1 68 1 view .LVU33
 181 000a 08BD     		pop	{r3, pc}
 182              	.L17:
  65:Core/Src/ecatapp.c ****         pdi_irq_flag = 1;
 183              		.loc 1 65 9 is_stmt 1 view .LVU34
 184 000c 0820     		movs	r0, #8
 185 000e FFF7FEFF 		bl	EXTI_ClearITPendingBit
 186              	.LVL8:
  66:Core/Src/ecatapp.c ****     }
 187              		.loc 1 66 9 view .LVU35
  66:Core/Src/ecatapp.c ****     }
 188              		.loc 1 66 22 is_stmt 0 view .LVU36
 189 0012 024B     		ldr	r3, .L18
 190 0014 0122     		movs	r2, #1
 191 0016 1A70     		strb	r2, [r3]
  68:Core/Src/ecatapp.c **** // **************************************************************
 192              		.loc 1 68 1 view .LVU37
 193 0018 F7E7     		b	.L14
 194              	.L19:
 195 001a 00BF     		.align	2
 196              	.L18:
 197 001c 00000000 		.word	.LANCHOR2
 198              		.cfi_endproc
 199              	.LFE124:
 201              		.section	.text.ecatapp_init,"ax",%progbits
 202              		.align	1
 203              		.global	ecatapp_init
 204              		.syntax unified
 205              		.thumb
 206              		.thumb_func
 207              		.fpu fpv4-sp-d16
 209              	ecatapp_init:
 210              	.LFB125:
  71:Core/Src/ecatapp.c ****     ecat_slv_init(&config);
 211              		.loc 1 71 25 is_stmt 1 view -0
 212              		.cfi_startproc
ARM GAS  /tmp/cc8hDZeS.s 			page 7


 213              		@ args = 0, pretend = 0, frame = 0
 214              		@ frame_needed = 0, uses_anonymous_args = 0
 215 0000 08B5     		push	{r3, lr}
 216              		.cfi_def_cfa_offset 8
 217              		.cfi_offset 3, -8
 218              		.cfi_offset 14, -4
  72:Core/Src/ecatapp.c **** 	init_override();
 219              		.loc 1 72 5 view .LVU39
 220 0002 0348     		ldr	r0, .L22
 221 0004 FFF7FEFF 		bl	ecat_slv_init
 222              	.LVL9:
  73:Core/Src/ecatapp.c **** }
 223              		.loc 1 73 2 view .LVU40
 224 0008 FFF7FEFF 		bl	init_override
 225              	.LVL10:
  74:Core/Src/ecatapp.c **** 
 226              		.loc 1 74 1 is_stmt 0 view .LVU41
 227 000c 08BD     		pop	{r3, pc}
 228              	.L23:
 229 000e 00BF     		.align	2
 230              	.L22:
 231 0010 00000000 		.word	.LANCHOR3
 232              		.cfi_endproc
 233              	.LFE125:
 235              		.section	.text.cb_get_inputs,"ax",%progbits
 236              		.align	1
 237              		.global	cb_get_inputs
 238              		.syntax unified
 239              		.thumb
 240              		.thumb_func
 241              		.fpu fpv4-sp-d16
 243              	cb_get_inputs:
 244              	.LFB128:
 103:Core/Src/ecatapp.c **** 
 104:Core/Src/ecatapp.c **** 
 105:Core/Src/ecatapp.c **** void cb_get_inputs()
 106:Core/Src/ecatapp.c **** {
 245              		.loc 1 106 1 is_stmt 1 view -0
 246              		.cfi_startproc
 247              		@ args = 0, pretend = 0, frame = 0
 248              		@ frame_needed = 0, uses_anonymous_args = 0
 249              		@ link register save eliminated.
 107:Core/Src/ecatapp.c ****     /* SOES reqires this function but nothing to do here in CiA402 app */
 108:Core/Src/ecatapp.c **** }
 250              		.loc 1 108 1 view .LVU43
 251 0000 7047     		bx	lr
 252              		.cfi_endproc
 253              	.LFE128:
 255              		.section	.text.cb_set_outputs,"ax",%progbits
 256              		.align	1
 257              		.global	cb_set_outputs
 258              		.syntax unified
 259              		.thumb
 260              		.thumb_func
 261              		.fpu fpv4-sp-d16
 263              	cb_set_outputs:
 264              	.LFB129:
ARM GAS  /tmp/cc8hDZeS.s 			page 8


 109:Core/Src/ecatapp.c **** 
 110:Core/Src/ecatapp.c **** 
 111:Core/Src/ecatapp.c **** void cb_set_outputs()
 112:Core/Src/ecatapp.c **** {
 265              		.loc 1 112 1 view -0
 266              		.cfi_startproc
 267              		@ args = 0, pretend = 0, frame = 0
 268              		@ frame_needed = 0, uses_anonymous_args = 0
 269              		@ link register save eliminated.
 113:Core/Src/ecatapp.c ****     /* SOES reqires this function but nothing to do here in CiA402 app */
 114:Core/Src/ecatapp.c **** }
 270              		.loc 1 114 1 view .LVU45
 271 0000 7047     		bx	lr
 272              		.cfi_endproc
 273              	.LFE129:
 275              		.section	.text.ecatapp_loop,"ax",%progbits
 276              		.align	1
 277              		.global	ecatapp_loop
 278              		.syntax unified
 279              		.thumb
 280              		.thumb_func
 281              		.fpu fpv4-sp-d16
 283              	ecatapp_loop:
 284              	.LFB130:
 115:Core/Src/ecatapp.c ****  
 116:Core/Src/ecatapp.c **** void ecatapp_loop(void)
 117:Core/Src/ecatapp.c **** {
 285              		.loc 1 117 1 view -0
 286              		.cfi_startproc
 287              		@ args = 0, pretend = 0, frame = 0
 288              		@ frame_needed = 0, uses_anonymous_args = 0
 289 0000 10B5     		push	{r4, lr}
 290              		.cfi_def_cfa_offset 8
 291              		.cfi_offset 4, -8
 292              		.cfi_offset 14, -4
 118:Core/Src/ecatapp.c ****     // stack in mixed mode
 119:Core/Src/ecatapp.c ****     if (sync0_irq_flag) {
 293              		.loc 1 119 5 view .LVU47
 294              		.loc 1 119 9 is_stmt 0 view .LVU48
 295 0002 174B     		ldr	r3, .L34
 296 0004 1B78     		ldrb	r3, [r3]	@ zero_extendqisi2
 297              		.loc 1 119 8 view .LVU49
 298 0006 9BB9     		cbnz	r3, .L33
 299              	.L27:
 120:Core/Src/ecatapp.c ****         ESC_updateALevent();        
 121:Core/Src/ecatapp.c ****         DIG_process (DIG_PROCESS_APP_HOOK_FLAG | DIG_PROCESS_INPUTS_FLAG);
 122:Core/Src/ecatapp.c ****         sync0_irq_flag = 0;
 123:Core/Src/ecatapp.c ****     }
 124:Core/Src/ecatapp.c ****     if (pdi_irq_flag) {
 300              		.loc 1 124 5 is_stmt 1 view .LVU50
 301              		.loc 1 124 9 is_stmt 0 view .LVU51
 302 0008 164B     		ldr	r3, .L34+4
 303 000a 1B78     		ldrb	r3, [r3]	@ zero_extendqisi2
 304              		.loc 1 124 8 view .LVU52
 305 000c 0BB3     		cbz	r3, .L28
 125:Core/Src/ecatapp.c ****         ESC_updateALevent();
 306              		.loc 1 125 9 is_stmt 1 view .LVU53
ARM GAS  /tmp/cc8hDZeS.s 			page 9


 307 000e 164C     		ldr	r4, .L34+8
 308 0010 0422     		movs	r2, #4
 309 0012 2146     		mov	r1, r4
 310 0014 4FF41160 		mov	r0, #2320
 311 0018 FFF7FEFF 		bl	ESC_read
 312              	.LVL11:
 313              		.loc 1 125 28 view .LVU54
 126:Core/Src/ecatapp.c ****         if (ESCvar.dcsync) {
 314              		.loc 1 126 9 view .LVU55
 315              		.loc 1 126 19 is_stmt 0 view .LVU56
 316 001c 14F8643C 		ldrb	r3, [r4, #-100]	@ zero_extendqisi2
 317              		.loc 1 126 12 view .LVU57
 318 0020 9BB1     		cbz	r3, .L29
 127:Core/Src/ecatapp.c ****             DIG_process (DIG_PROCESS_OUTPUTS_FLAG);    
 319              		.loc 1 127 13 is_stmt 1 view .LVU58
 320 0022 0220     		movs	r0, #2
 321 0024 FFF7FEFF 		bl	DIG_process
 322              	.LVL12:
 323              	.L30:
 128:Core/Src/ecatapp.c ****         } else {
 129:Core/Src/ecatapp.c ****             DIG_process (DIG_PROCESS_OUTPUTS_FLAG | DIG_PROCESS_APP_HOOK_FLAG | DIG_PROCESS_INPUTS_
 130:Core/Src/ecatapp.c ****         }
 131:Core/Src/ecatapp.c ****         pdi_irq_flag = 0;
 324              		.loc 1 131 9 view .LVU59
 325              		.loc 1 131 22 is_stmt 0 view .LVU60
 326 0028 0E4B     		ldr	r3, .L34+4
 327 002a 0022     		movs	r2, #0
 328 002c 1A70     		strb	r2, [r3]
 329              	.L26:
 132:Core/Src/ecatapp.c ****     } else {
 133:Core/Src/ecatapp.c ****         // ecat_slv_worker(ESCREG_ALEVENT_CONTROL | ESCREG_ALEVENT_SMCHANGE
 134:Core/Src/ecatapp.c ****         //                 | ESCREG_ALEVENT_SM0 | ESCREG_ALEVENT_SM1);
 135:Core/Src/ecatapp.c ****         ecat_slv_poll();
 136:Core/Src/ecatapp.c ****         DIG_process(DIG_PROCESS_WD_FLAG);
 137:Core/Src/ecatapp.c ****     }
 138:Core/Src/ecatapp.c **** }
 330              		.loc 1 138 1 view .LVU61
 331 002e 10BD     		pop	{r4, pc}
 332              	.L33:
 120:Core/Src/ecatapp.c ****         DIG_process (DIG_PROCESS_APP_HOOK_FLAG | DIG_PROCESS_INPUTS_FLAG);
 333              		.loc 1 120 9 is_stmt 1 view .LVU62
 334 0030 0422     		movs	r2, #4
 335 0032 0D49     		ldr	r1, .L34+8
 336 0034 4FF41160 		mov	r0, #2320
 337 0038 FFF7FEFF 		bl	ESC_read
 338              	.LVL13:
 120:Core/Src/ecatapp.c ****         DIG_process (DIG_PROCESS_APP_HOOK_FLAG | DIG_PROCESS_INPUTS_FLAG);
 339              		.loc 1 120 28 view .LVU63
 121:Core/Src/ecatapp.c ****         sync0_irq_flag = 0;
 340              		.loc 1 121 9 view .LVU64
 341 003c 0920     		movs	r0, #9
 342 003e FFF7FEFF 		bl	DIG_process
 343              	.LVL14:
 122:Core/Src/ecatapp.c ****     }
 344              		.loc 1 122 9 view .LVU65
 122:Core/Src/ecatapp.c ****     }
 345              		.loc 1 122 24 is_stmt 0 view .LVU66
ARM GAS  /tmp/cc8hDZeS.s 			page 10


 346 0042 074B     		ldr	r3, .L34
 347 0044 0022     		movs	r2, #0
 348 0046 1A70     		strb	r2, [r3]
 349 0048 DEE7     		b	.L27
 350              	.L29:
 129:Core/Src/ecatapp.c ****         }
 351              		.loc 1 129 13 is_stmt 1 view .LVU67
 352 004a 0B20     		movs	r0, #11
 353 004c FFF7FEFF 		bl	DIG_process
 354              	.LVL15:
 355 0050 EAE7     		b	.L30
 356              	.L28:
 135:Core/Src/ecatapp.c ****         DIG_process(DIG_PROCESS_WD_FLAG);
 357              		.loc 1 135 9 view .LVU68
 358 0052 FFF7FEFF 		bl	ecat_slv_poll
 359              	.LVL16:
 136:Core/Src/ecatapp.c ****     }
 360              		.loc 1 136 9 view .LVU69
 361 0056 0420     		movs	r0, #4
 362 0058 FFF7FEFF 		bl	DIG_process
 363              	.LVL17:
 364              		.loc 1 138 1 is_stmt 0 view .LVU70
 365 005c E7E7     		b	.L26
 366              	.L35:
 367 005e 00BF     		.align	2
 368              	.L34:
 369 0060 00000000 		.word	.LANCHOR1
 370 0064 00000000 		.word	.LANCHOR2
 371 0068 E0000000 		.word	ESCvar+224
 372              		.cfi_endproc
 373              	.LFE130:
 375              		.section	.rodata.str1.4,"aMS",%progbits,1
 376              		.align	2
 377              	.LC0:
 378 0000 61783538 		.ascii	"ax58100\000"
 378      31303000 
 379              		.global	Obj
 380              		.section	.bss.Obj,"aw",%nobits
 381              		.align	2
 382              		.set	.LANCHOR0,. + 0
 385              	Obj:
 386 0000 00000000 		.space	68
 386      00000000 
 386      00000000 
 386      00000000 
 386      00000000 
 387              		.section	.bss.pdi_irq_flag,"aw",%nobits
 388              		.set	.LANCHOR2,. + 0
 391              	pdi_irq_flag:
 392 0000 00       		.space	1
 393              		.section	.bss.sync0_irq_flag,"aw",%nobits
 394              		.set	.LANCHOR1,. + 0
 397              	sync0_irq_flag:
 398 0000 00       		.space	1
 399              		.section	.data.config,"aw"
 400              		.align	2
 401              		.set	.LANCHOR3,. + 0
ARM GAS  /tmp/cc8hDZeS.s 			page 11


 404              	config:
 405 0000 00000000 		.word	.LC0
 406 0004 01000000 		.word	1
 407 0008 FFFFFF7F 		.word	2147483647
 408 000c 00000000 		.space	4
 409 0010 00000000 		.word	0
 410 0014 00000000 		.word	0
 411 0018 00000000 		.word	0
 412 001c 00000000 		.word	ecatapp
 413 0020 00000000 		.word	0
 414 0024 00000000 		.word	0
 415 0028 00000000 		.word	0
 416 002c 00000000 		.space	8
 416      00000000 
 417 0034 00000000 		.word	rxpdo_override
 418 0038 00000000 		.word	txpdo_override
 419 003c 00000000 		.word	ESC_interrupt_enable
 420 0040 00000000 		.word	ESC_interrupt_disable
 421 0044 00000000 		.word	0
 422 0048 00000000 		.word	check_dc_handler
 423 004c 00000000 		.space	4
 424              		.text
 425              	.Letext0:
 426              		.file 2 "/usr/lib/gcc/arm-none-eabi/10.3.1/include/stdint.h"
 427              		.file 3 "/usr/lib/gcc/arm-none-eabi/10.3.1/include/stddef.h"
 428              		.file 4 "Lib/soes/inc/esc.h"
 429              		.file 5 "Lib/soes-esi/utypes.h"
 430              		.file 6 "Lib/soes/inc/ecat_slv.h"
 431              		.file 7 "Lib/soes_hal_bsp/inc/esc_irq.h"
 432              		.file 8 "Core/Inc/pdo_override.h"
 433              		.file 9 "Drivers/STM32F4xx_StdPeriph_Driver/inc/stm32f4xx_exti.h"
 434              		.file 10 "Drivers/CMSIS/Device/ST/STM32F4xx/Include/stm32f4xx.h"
ARM GAS  /tmp/cc8hDZeS.s 			page 12

