ARM GAS  /tmp/ccc92rV8.s 			page 1


   1              		.cpu cortex-m4
   2              		.eabi_attribute 27, 1
   3              		.eabi_attribute 28, 1
   4              		.eabi_attribute 20, 1
   5              		.eabi_attribute 21, 1
   6              		.eabi_attribute 23, 3
   7              		.eabi_attribute 24, 1
   8              		.eabi_attribute 25, 1
   9              		.eabi_attribute 26, 1
  10              		.eabi_attribute 30, 1
  11              		.eabi_attribute 34, 1
  12              		.eabi_attribute 18, 4
  13              		.file	"esc_foe.c"
  14              		.text
  15              	.Ltext0:
  16              		.cfi_sections	.debug_frame
  17              		.section	.text.FOE_fwrite,"ax",%progbits
  18              		.align	1
  19              		.arch armv7e-m
  20              		.syntax unified
  21              		.thumb
  22              		.thumb_func
  23              		.fpu fpv4-sp-d16
  25              	FOE_fwrite:
  26              	.LVL0:
  27              	.LFB1:
  28              		.file 1 "Lib/soes/src/esc_foe.c"
   1:Lib/soes/src/esc_foe.c **** /*
   2:Lib/soes/src/esc_foe.c ****  * Licensed under the GNU General Public License version 2 with exceptions. See
   3:Lib/soes/src/esc_foe.c ****  * LICENSE file in the project root for full license information
   4:Lib/soes/src/esc_foe.c ****  */
   5:Lib/soes/src/esc_foe.c **** 
   6:Lib/soes/src/esc_foe.c ****  /** \file
   7:Lib/soes/src/esc_foe.c ****  * \brief
   8:Lib/soes/src/esc_foe.c ****  * File over EtherCAT (FoE) module.
   9:Lib/soes/src/esc_foe.c ****  */
  10:Lib/soes/src/esc_foe.c **** 
  11:Lib/soes/src/esc_foe.c **** 
  12:Lib/soes/src/esc_foe.c **** #include <cc.h>
  13:Lib/soes/src/esc_foe.c **** #include "esc.h"
  14:Lib/soes/src/esc_foe.c **** #include "esc_foe.h"
  15:Lib/soes/src/esc_foe.c **** #include <string.h>
  16:Lib/soes/src/esc_foe.c **** 
  17:Lib/soes/src/esc_foe.c ****  /** \file
  18:Lib/soes/src/esc_foe.c ****  * \brief
  19:Lib/soes/src/esc_foe.c ****  * File over EtherCAT (FoE) module.
  20:Lib/soes/src/esc_foe.c ****  *
  21:Lib/soes/src/esc_foe.c ****  * FOE read / write and FOE service functions
  22:Lib/soes/src/esc_foe.c ****  */
  23:Lib/soes/src/esc_foe.c **** 
  24:Lib/soes/src/esc_foe.c **** //define if FOE_read should be supported
  25:Lib/soes/src/esc_foe.c **** //#define FOE_READ_SUPPORTED
  26:Lib/soes/src/esc_foe.c **** 
  27:Lib/soes/src/esc_foe.c **** /** Variable holding current filename read at FOE Open.
  28:Lib/soes/src/esc_foe.c ****  */
  29:Lib/soes/src/esc_foe.c **** static char foe_file_name[FOE_FN_MAX + 1];
  30:Lib/soes/src/esc_foe.c **** 
ARM GAS  /tmp/ccc92rV8.s 			page 2


  31:Lib/soes/src/esc_foe.c **** 
  32:Lib/soes/src/esc_foe.c **** /** Main FoE configuration pointer data array. Structure is allocated and filled
  33:Lib/soes/src/esc_foe.c ****  * by the application defining what preferences it requires.
  34:Lib/soes/src/esc_foe.c ****  */
  35:Lib/soes/src/esc_foe.c **** static foe_cfg_t * foe_cfg;
  36:Lib/soes/src/esc_foe.c **** /** Pointer to current file configuration item used by FoE.
  37:Lib/soes/src/esc_foe.c ****  */
  38:Lib/soes/src/esc_foe.c **** static foe_file_cfg_t * foe_file;
  39:Lib/soes/src/esc_foe.c **** /** Main FoE status data array. Structure gets filled with current status
  40:Lib/soes/src/esc_foe.c ****  * variables during FoE usage.
  41:Lib/soes/src/esc_foe.c ****  */
  42:Lib/soes/src/esc_foe.c **** static _FOEvar FOEvar;
  43:Lib/soes/src/esc_foe.c **** 
  44:Lib/soes/src/esc_foe.c **** /** Validate a write or read request by checking filename and password.
  45:Lib/soes/src/esc_foe.c ****  *
  46:Lib/soes/src/esc_foe.c ****  * @param[in] name      = Filename
  47:Lib/soes/src/esc_foe.c ****  * @param[in] num_chars = Length of filename
  48:Lib/soes/src/esc_foe.c ****  * @param[in] pass      = Numeric variable of password
  49:Lib/soes/src/esc_foe.c ****  * @param[in] op        = Request op-code
  50:Lib/soes/src/esc_foe.c ****  * @return 0= if we succeed, FOE_ERR_NOTFOUND something wrong with filename or
  51:Lib/soes/src/esc_foe.c ****  * password
  52:Lib/soes/src/esc_foe.c ****  */
  53:Lib/soes/src/esc_foe.c **** static uint32_t FOE_fopen (char *name, uint8_t num_chars, uint32_t pass, uint8_t op)
  54:Lib/soes/src/esc_foe.c **** {
  55:Lib/soes/src/esc_foe.c ****    uint32_t i;
  56:Lib/soes/src/esc_foe.c **** 
  57:Lib/soes/src/esc_foe.c ****    /* Unpack the file name into characters we can look at. */
  58:Lib/soes/src/esc_foe.c ****    if (num_chars > FOE_FN_MAX)
  59:Lib/soes/src/esc_foe.c ****    {
  60:Lib/soes/src/esc_foe.c ****       num_chars = FOE_FN_MAX;
  61:Lib/soes/src/esc_foe.c ****    }
  62:Lib/soes/src/esc_foe.c **** 
  63:Lib/soes/src/esc_foe.c ****    for (i = 0; i < num_chars; i++)
  64:Lib/soes/src/esc_foe.c ****    {
  65:Lib/soes/src/esc_foe.c ****       foe_file_name[i] = name[i];
  66:Lib/soes/src/esc_foe.c ****    }
  67:Lib/soes/src/esc_foe.c ****    foe_file_name[i] = '\0';
  68:Lib/soes/src/esc_foe.c **** 
  69:Lib/soes/src/esc_foe.c ****    /* Figure out what file they're talking about. */
  70:Lib/soes/src/esc_foe.c ****    for (i = 0; i < foe_cfg->n_files; i++)
  71:Lib/soes/src/esc_foe.c ****    {
  72:Lib/soes/src/esc_foe.c ****       if (0 == strncmp (foe_file_name, foe_cfg->files[i].name, num_chars))
  73:Lib/soes/src/esc_foe.c ****       {
  74:Lib/soes/src/esc_foe.c ****          if (pass != foe_cfg->files[i].filepass)
  75:Lib/soes/src/esc_foe.c ****          {
  76:Lib/soes/src/esc_foe.c ****             return FOE_ERR_NORIGHTS;
  77:Lib/soes/src/esc_foe.c ****          }
  78:Lib/soes/src/esc_foe.c **** 
  79:Lib/soes/src/esc_foe.c ****          if (op == FOE_OP_WRQ &&
  80:Lib/soes/src/esc_foe.c ****              (foe_cfg->files[i].write_only_in_boot) &&
  81:Lib/soes/src/esc_foe.c ****              (ESCvar.ALstatus != ESCboot))
  82:Lib/soes/src/esc_foe.c ****          {
  83:Lib/soes/src/esc_foe.c ****             return FOE_ERR_NOTINBOOTSTRAP;
  84:Lib/soes/src/esc_foe.c ****          }
  85:Lib/soes/src/esc_foe.c **** 
  86:Lib/soes/src/esc_foe.c ****          foe_file = &foe_cfg->files[i];
  87:Lib/soes/src/esc_foe.c ****          foe_file->address_offset = 0;
ARM GAS  /tmp/ccc92rV8.s 			page 3


  88:Lib/soes/src/esc_foe.c ****          foe_file->total_size = 0;
  89:Lib/soes/src/esc_foe.c ****          switch (op)
  90:Lib/soes/src/esc_foe.c ****          {
  91:Lib/soes/src/esc_foe.c ****             case FOE_OP_RRQ:
  92:Lib/soes/src/esc_foe.c ****             {
  93:Lib/soes/src/esc_foe.c ****                FOEvar.fposition = 0;
  94:Lib/soes/src/esc_foe.c ****                FOEvar.fend = foe_cfg->files[i].max_data;
  95:Lib/soes/src/esc_foe.c ****                return 0;
  96:Lib/soes/src/esc_foe.c ****             }
  97:Lib/soes/src/esc_foe.c ****             case FOE_OP_WRQ:
  98:Lib/soes/src/esc_foe.c ****             {
  99:Lib/soes/src/esc_foe.c ****                FOEvar.fposition = 0;
 100:Lib/soes/src/esc_foe.c ****                FOEvar.fend = foe_cfg->files[i].max_data;
 101:Lib/soes/src/esc_foe.c ****                return 0;
 102:Lib/soes/src/esc_foe.c ****             }
 103:Lib/soes/src/esc_foe.c ****          }
 104:Lib/soes/src/esc_foe.c ****       }
 105:Lib/soes/src/esc_foe.c ****    }
 106:Lib/soes/src/esc_foe.c **** 
 107:Lib/soes/src/esc_foe.c ****    return FOE_ERR_NOTFOUND;
 108:Lib/soes/src/esc_foe.c **** }
 109:Lib/soes/src/esc_foe.c **** 
 110:Lib/soes/src/esc_foe.c **** #ifdef FOE_READ_SUPPORTED
 111:Lib/soes/src/esc_foe.c **** /** Function writing local data to mailbox buffer to be sent as next FoE frame.
 112:Lib/soes/src/esc_foe.c ****  * It will try to fill the Mailbox buffer available if there is enough data
 113:Lib/soes/src/esc_foe.c ****  * left to read.
 114:Lib/soes/src/esc_foe.c ****  *
 115:Lib/soes/src/esc_foe.c ****  * @param[in] data      = pointer to buffer
 116:Lib/soes/src/esc_foe.c ****  * @param[in] maxlength = max length of data possible to read, controlled by
 117:Lib/soes/src/esc_foe.c ****  * Mailbox - FoE and Mailbox frame headers.
 118:Lib/soes/src/esc_foe.c **** 
 119:Lib/soes/src/esc_foe.c ****  * @return Number of copied bytes.
 120:Lib/soes/src/esc_foe.c ****  */
 121:Lib/soes/src/esc_foe.c **** static uint32_t FOE_fread (uint8_t * data, uint32_t maxlength)
 122:Lib/soes/src/esc_foe.c **** {
 123:Lib/soes/src/esc_foe.c ****    uint32_t ncopied = 0;
 124:Lib/soes/src/esc_foe.c **** 
 125:Lib/soes/src/esc_foe.c ****    while (maxlength && (FOEvar.fend - FOEvar.fposition))
 126:Lib/soes/src/esc_foe.c ****    {
 127:Lib/soes/src/esc_foe.c ****       maxlength--;
 128:Lib/soes/src/esc_foe.c ****       *(data++) = foe_cfg->fbuffer[FOEvar.fposition++];
 129:Lib/soes/src/esc_foe.c ****       ncopied++;
 130:Lib/soes/src/esc_foe.c ****    }
 131:Lib/soes/src/esc_foe.c **** 
 132:Lib/soes/src/esc_foe.c ****    return ncopied;
 133:Lib/soes/src/esc_foe.c **** }
 134:Lib/soes/src/esc_foe.c **** #endif
 135:Lib/soes/src/esc_foe.c **** 
 136:Lib/soes/src/esc_foe.c **** /** Function reading mailbox buffer to local buffer to be handled by
 137:Lib/soes/src/esc_foe.c ****  * application write hook. Ex. flash routine used by software update.
 138:Lib/soes/src/esc_foe.c ****  * It will consume the buffer and call the write hook every time the configured
 139:Lib/soes/src/esc_foe.c ****  * flush buffer limit is reached.
 140:Lib/soes/src/esc_foe.c ****  *
 141:Lib/soes/src/esc_foe.c ****  *
 142:Lib/soes/src/esc_foe.c ****  * @param[in] data   = Pointer to buffer
 143:Lib/soes/src/esc_foe.c ****  * @param[in] length = Length of data to read
 144:Lib/soes/src/esc_foe.c **** 
ARM GAS  /tmp/ccc92rV8.s 			page 4


 145:Lib/soes/src/esc_foe.c ****  * @return Number of copied bytes.
 146:Lib/soes/src/esc_foe.c ****  */
 147:Lib/soes/src/esc_foe.c **** static uint32_t FOE_fwrite (uint8_t *data, uint32_t length)
 148:Lib/soes/src/esc_foe.c **** {
  29              		.loc 1 148 1 view -0
  30              		.cfi_startproc
  31              		@ args = 0, pretend = 0, frame = 0
  32              		@ frame_needed = 0, uses_anonymous_args = 0
  33              		.loc 1 148 1 is_stmt 0 view .LVU1
  34 0000 2DE9F843 		push	{r3, r4, r5, r6, r7, r8, r9, lr}
  35              		.cfi_def_cfa_offset 32
  36              		.cfi_offset 3, -32
  37              		.cfi_offset 4, -28
  38              		.cfi_offset 5, -24
  39              		.cfi_offset 6, -20
  40              		.cfi_offset 7, -16
  41              		.cfi_offset 8, -12
  42              		.cfi_offset 9, -8
  43              		.cfi_offset 14, -4
  44 0004 0446     		mov	r4, r0
  45 0006 0D46     		mov	r5, r1
 149:Lib/soes/src/esc_foe.c ****     uint32_t ncopied = 0;
  46              		.loc 1 149 5 is_stmt 1 view .LVU2
  47              	.LVL1:
 150:Lib/soes/src/esc_foe.c ****     uint32_t failed = 0;
  48              		.loc 1 150 5 view .LVU3
 151:Lib/soes/src/esc_foe.c **** 
 152:Lib/soes/src/esc_foe.c ****     DPRINT("FOE_fwrite\n");
  49              		.loc 1 152 27 view .LVU4
 153:Lib/soes/src/esc_foe.c ****     FOEvar.fprevposition = FOEvar.fposition;
  50              		.loc 1 153 5 view .LVU5
  51              		.loc 1 153 34 is_stmt 0 view .LVU6
  52 0008 244B     		ldr	r3, .L8
  53 000a D3F80720 		ldr	r2, [r3, #7]	@ unaligned
  54              		.loc 1 153 26 view .LVU7
  55 000e C3F80B20 		str	r2, [r3, #11]	@ unaligned
 154:Lib/soes/src/esc_foe.c ****     while (length && (FOEvar.fend - FOEvar.fposition) && !failed)
  56              		.loc 1 154 5 is_stmt 1 view .LVU8
 150:Lib/soes/src/esc_foe.c **** 
  57              		.loc 1 150 14 is_stmt 0 view .LVU9
  58 0012 0020     		movs	r0, #0
  59              	.LVL2:
 149:Lib/soes/src/esc_foe.c ****     uint32_t failed = 0;
  60              		.loc 1 149 14 view .LVU10
  61 0014 8146     		mov	r9, r0
  62              	.LVL3:
  63              	.L2:
  64              		.loc 1 154 11 is_stmt 1 view .LVU11
  65 0016 002D     		cmp	r5, #0
  66 0018 37D0     		beq	.L5
  67              		.loc 1 154 29 is_stmt 0 discriminator 1 view .LVU12
  68 001a 204B     		ldr	r3, .L8
  69 001c D3F80F20 		ldr	r2, [r3, #15]	@ unaligned
  70              		.loc 1 154 43 discriminator 1 view .LVU13
  71 0020 D3F80730 		ldr	r3, [r3, #7]	@ unaligned
  72              		.loc 1 154 19 discriminator 1 view .LVU14
  73 0024 9A42     		cmp	r2, r3
ARM GAS  /tmp/ccc92rV8.s 			page 5


  74 0026 30D0     		beq	.L5
  75              		.loc 1 154 55 discriminator 2 view .LVU15
  76 0028 0028     		cmp	r0, #0
  77 002a 2ED1     		bne	.L5
 155:Lib/soes/src/esc_foe.c ****     {
 156:Lib/soes/src/esc_foe.c ****        length--;
  78              		.loc 1 156 8 is_stmt 1 view .LVU16
  79              		.loc 1 156 14 is_stmt 0 view .LVU17
  80 002c 013D     		subs	r5, r5, #1
  81              	.LVL4:
 157:Lib/soes/src/esc_foe.c ****        foe_cfg->fbuffer[FOEvar.fbufposition++] = *(data++);
  82              		.loc 1 157 8 is_stmt 1 view .LVU18
  83              		.loc 1 157 15 is_stmt 0 view .LVU19
  84 002e 1C4B     		ldr	r3, .L8+4
  85 0030 1B68     		ldr	r3, [r3]
  86              		.loc 1 157 31 view .LVU20
  87 0032 1A4F     		ldr	r7, .L8
  88 0034 B7F80110 		ldrh	r1, [r7, #1]	@ unaligned
  89              		.loc 1 157 44 view .LVU21
  90 0038 01F1010C 		add	ip, r1, #1
  91 003c 1FFA8CF2 		uxth	r2, ip
  92 0040 A7F801C0 		strh	ip, [r7, #1]	@ unaligned
  93              		.loc 1 157 50 view .LVU22
  94 0044 14F8017B 		ldrb	r7, [r4], #1	@ zero_extendqisi2
  95              	.LVL5:
  96              		.loc 1 157 48 view .LVU23
  97 0048 1E68     		ldr	r6, [r3]
  98 004a 7754     		strb	r7, [r6, r1]
 158:Lib/soes/src/esc_foe.c ****        if(FOEvar.fbufposition >= foe_cfg->buffer_size)
  99              		.loc 1 158 8 is_stmt 1 view .LVU24
 100              		.loc 1 158 41 is_stmt 0 view .LVU25
 101 004c 5968     		ldr	r1, [r3, #4]
 102              		.loc 1 158 10 view .LVU26
 103 004e 8A42     		cmp	r2, r1
 104 0050 10D3     		bcc	.L3
 159:Lib/soes/src/esc_foe.c ****        {
 160:Lib/soes/src/esc_foe.c ****           failed = foe_file->write_function (foe_file, foe_cfg->fbuffer, FOEvar.fbufposition);
 105              		.loc 1 160 11 is_stmt 1 view .LVU27
 106              		.loc 1 160 28 is_stmt 0 view .LVU28
 107 0052 144F     		ldr	r7, .L8+8
 108 0054 3868     		ldr	r0, [r7]
 109              	.LVL6:
 110              		.loc 1 160 28 view .LVU29
 111 0056 D0F81C80 		ldr	r8, [r0, #28]
 112              		.loc 1 160 20 view .LVU30
 113 005a 1968     		ldr	r1, [r3]
 114 005c C047     		blx	r8
 115              	.LVL7:
 161:Lib/soes/src/esc_foe.c ****           FOEvar.fbufposition = 0;
 116              		.loc 1 161 11 is_stmt 1 view .LVU31
 117              		.loc 1 161 31 is_stmt 0 view .LVU32
 118 005e 0F4B     		ldr	r3, .L8
 119 0060 0022     		movs	r2, #0
 120 0062 5A70     		strb	r2, [r3, #1]
 121 0064 9A70     		strb	r2, [r3, #2]
 162:Lib/soes/src/esc_foe.c ****           foe_file->address_offset += foe_cfg->buffer_size;
 122              		.loc 1 162 11 is_stmt 1 view .LVU33
ARM GAS  /tmp/ccc92rV8.s 			page 6


 123              		.loc 1 162 36 is_stmt 0 view .LVU34
 124 0066 3A68     		ldr	r2, [r7]
 125              		.loc 1 162 46 view .LVU35
 126 0068 0D4B     		ldr	r3, .L8+4
 127 006a 1B68     		ldr	r3, [r3]
 128 006c 5968     		ldr	r1, [r3, #4]
 129              		.loc 1 162 36 view .LVU36
 130 006e D368     		ldr	r3, [r2, #12]
 131 0070 0B44     		add	r3, r3, r1
 132 0072 D360     		str	r3, [r2, #12]
 133              	.L3:
 163:Lib/soes/src/esc_foe.c ****        }
 164:Lib/soes/src/esc_foe.c ****        FOEvar.fposition++;
 134              		.loc 1 164 8 is_stmt 1 view .LVU37
 135              		.loc 1 164 14 is_stmt 0 view .LVU38
 136 0074 094A     		ldr	r2, .L8
 137 0076 D2F80730 		ldr	r3, [r2, #7]	@ unaligned
 138              		.loc 1 164 24 view .LVU39
 139 007a 0133     		adds	r3, r3, #1
 140 007c C2F80730 		str	r3, [r2, #7]	@ unaligned
 165:Lib/soes/src/esc_foe.c ****        if(failed)
 141              		.loc 1 165 8 is_stmt 1 view .LVU40
 142              		.loc 1 165 10 is_stmt 0 view .LVU41
 143 0080 0028     		cmp	r0, #0
 144 0082 C8D1     		bne	.L2
 166:Lib/soes/src/esc_foe.c ****        {
 167:Lib/soes/src/esc_foe.c ****           DPRINT("Failed FOE_fwrite ncopied=%"PRIu32"\n", ncopied);
 168:Lib/soes/src/esc_foe.c ****        }
 169:Lib/soes/src/esc_foe.c ****        else
 170:Lib/soes/src/esc_foe.c ****        {
 171:Lib/soes/src/esc_foe.c ****           ncopied++;
 145              		.loc 1 171 11 is_stmt 1 view .LVU42
 146              		.loc 1 171 18 is_stmt 0 view .LVU43
 147 0084 09F10109 		add	r9, r9, #1
 148              	.LVL8:
 149              		.loc 1 171 18 view .LVU44
 150 0088 C5E7     		b	.L2
 151              	.L5:
 172:Lib/soes/src/esc_foe.c ****        }
 173:Lib/soes/src/esc_foe.c ****     }
 174:Lib/soes/src/esc_foe.c **** 
 175:Lib/soes/src/esc_foe.c ****     foe_file->total_size += ncopied;
 152              		.loc 1 175 5 is_stmt 1 view .LVU45
 153              		.loc 1 175 26 is_stmt 0 view .LVU46
 154 008a 064B     		ldr	r3, .L8+8
 155 008c 1A68     		ldr	r2, [r3]
 156 008e 1369     		ldr	r3, [r2, #16]
 157 0090 4B44     		add	r3, r3, r9
 158 0092 1361     		str	r3, [r2, #16]
 176:Lib/soes/src/esc_foe.c **** 
 177:Lib/soes/src/esc_foe.c ****     DPRINT("FOE_fwrite END with : %"PRIu32"\n",ncopied);
 159              		.loc 1 177 56 is_stmt 1 view .LVU47
 178:Lib/soes/src/esc_foe.c ****     return ncopied;
 160              		.loc 1 178 5 view .LVU48
 179:Lib/soes/src/esc_foe.c **** }
 161              		.loc 1 179 1 is_stmt 0 view .LVU49
 162 0094 4846     		mov	r0, r9
ARM GAS  /tmp/ccc92rV8.s 			page 7


 163              	.LVL9:
 164              		.loc 1 179 1 view .LVU50
 165 0096 BDE8F883 		pop	{r3, r4, r5, r6, r7, r8, r9, pc}
 166              	.LVL10:
 167              	.L9:
 168              		.loc 1 179 1 view .LVU51
 169 009a 00BF     		.align	2
 170              	.L8:
 171 009c 00000000 		.word	.LANCHOR0
 172 00a0 00000000 		.word	.LANCHOR1
 173 00a4 00000000 		.word	.LANCHOR2
 174              		.cfi_endproc
 175              	.LFE1:
 177              		.section	.text.FOE_fclose,"ax",%progbits
 178              		.align	1
 179              		.syntax unified
 180              		.thumb
 181              		.thumb_func
 182              		.fpu fpv4-sp-d16
 184              	FOE_fclose:
 185              	.LFB2:
 180:Lib/soes/src/esc_foe.c **** 
 181:Lib/soes/src/esc_foe.c **** 
 182:Lib/soes/src/esc_foe.c **** /** Function handling the final FOE_fwrite when we close up regardless
 183:Lib/soes/src/esc_foe.c ****  * if we have filled the buffers or not.
 184:Lib/soes/src/esc_foe.c ****  *
 185:Lib/soes/src/esc_foe.c ****  * @return Number of copied bytes on success, 0= if failed.
 186:Lib/soes/src/esc_foe.c ****  */
 187:Lib/soes/src/esc_foe.c **** static uint32_t FOE_fclose (void)
 188:Lib/soes/src/esc_foe.c **** {
 186              		.loc 1 188 1 is_stmt 1 view -0
 187              		.cfi_startproc
 188              		@ args = 0, pretend = 0, frame = 0
 189              		@ frame_needed = 0, uses_anonymous_args = 0
 190 0000 38B5     		push	{r3, r4, r5, lr}
 191              		.cfi_def_cfa_offset 16
 192              		.cfi_offset 3, -16
 193              		.cfi_offset 4, -12
 194              		.cfi_offset 5, -8
 195              		.cfi_offset 14, -4
 189:Lib/soes/src/esc_foe.c ****    uint32_t failed = 0;
 196              		.loc 1 189 4 view .LVU53
 197              	.LVL11:
 190:Lib/soes/src/esc_foe.c **** 
 191:Lib/soes/src/esc_foe.c ****    DPRINT("FOE_fclose\n");
 198              		.loc 1 191 26 view .LVU54
 192:Lib/soes/src/esc_foe.c ****    
 193:Lib/soes/src/esc_foe.c ****    failed = foe_file->write_function (foe_file, foe_cfg->fbuffer, FOEvar.fbufposition);
 199              		.loc 1 193 4 view .LVU55
 200              		.loc 1 193 21 is_stmt 0 view .LVU56
 201 0002 0A4D     		ldr	r5, .L12
 202 0004 2868     		ldr	r0, [r5]
 203 0006 C369     		ldr	r3, [r0, #28]
 204              		.loc 1 193 56 view .LVU57
 205 0008 094A     		ldr	r2, .L12+4
 206 000a 1168     		ldr	r1, [r2]
 207              		.loc 1 193 73 view .LVU58
ARM GAS  /tmp/ccc92rV8.s 			page 8


 208 000c 094C     		ldr	r4, .L12+8
 209              		.loc 1 193 13 view .LVU59
 210 000e B4F80120 		ldrh	r2, [r4, #1]	@ unaligned
 211 0012 0968     		ldr	r1, [r1]
 212 0014 9847     		blx	r3
 213              	.LVL12:
 194:Lib/soes/src/esc_foe.c ****    foe_file->address_offset += FOEvar.fbufposition;
 214              		.loc 1 194 4 is_stmt 1 view .LVU60
 215              		.loc 1 194 29 is_stmt 0 view .LVU61
 216 0016 2A68     		ldr	r2, [r5]
 217              		.loc 1 194 38 view .LVU62
 218 0018 B4F80110 		ldrh	r1, [r4, #1]	@ unaligned
 219              		.loc 1 194 29 view .LVU63
 220 001c D368     		ldr	r3, [r2, #12]
 221 001e 0B44     		add	r3, r3, r1
 222 0020 D360     		str	r3, [r2, #12]
 195:Lib/soes/src/esc_foe.c ****    FOEvar.fbufposition = 0;
 223              		.loc 1 195 4 is_stmt 1 view .LVU64
 224              		.loc 1 195 24 is_stmt 0 view .LVU65
 225 0022 0023     		movs	r3, #0
 226 0024 6370     		strb	r3, [r4, #1]
 227 0026 A370     		strb	r3, [r4, #2]
 196:Lib/soes/src/esc_foe.c **** 
 197:Lib/soes/src/esc_foe.c ****    return failed;
 228              		.loc 1 197 4 is_stmt 1 view .LVU66
 198:Lib/soes/src/esc_foe.c **** }
 229              		.loc 1 198 1 is_stmt 0 view .LVU67
 230 0028 38BD     		pop	{r3, r4, r5, pc}
 231              	.L13:
 232 002a 00BF     		.align	2
 233              	.L12:
 234 002c 00000000 		.word	.LANCHOR2
 235 0030 00000000 		.word	.LANCHOR1
 236 0034 00000000 		.word	.LANCHOR0
 237              		.cfi_endproc
 238              	.LFE2:
 240              		.section	.text.FOE_fopen,"ax",%progbits
 241              		.align	1
 242              		.syntax unified
 243              		.thumb
 244              		.thumb_func
 245              		.fpu fpv4-sp-d16
 247              	FOE_fopen:
 248              	.LVL13:
 249              	.LFB0:
  54:Lib/soes/src/esc_foe.c ****    uint32_t i;
 250              		.loc 1 54 1 is_stmt 1 view -0
 251              		.cfi_startproc
 252              		@ args = 0, pretend = 0, frame = 0
 253              		@ frame_needed = 0, uses_anonymous_args = 0
  54:Lib/soes/src/esc_foe.c ****    uint32_t i;
 254              		.loc 1 54 1 is_stmt 0 view .LVU69
 255 0000 2DE9F047 		push	{r4, r5, r6, r7, r8, r9, r10, lr}
 256              		.cfi_def_cfa_offset 32
 257              		.cfi_offset 4, -32
 258              		.cfi_offset 5, -28
 259              		.cfi_offset 6, -24
ARM GAS  /tmp/ccc92rV8.s 			page 9


 260              		.cfi_offset 7, -20
 261              		.cfi_offset 8, -16
 262              		.cfi_offset 9, -12
 263              		.cfi_offset 10, -8
 264              		.cfi_offset 14, -4
 265 0004 1746     		mov	r7, r2
 266 0006 1E46     		mov	r6, r3
  55:Lib/soes/src/esc_foe.c **** 
 267              		.loc 1 55 4 is_stmt 1 view .LVU70
  58:Lib/soes/src/esc_foe.c ****    {
 268              		.loc 1 58 4 view .LVU71
  58:Lib/soes/src/esc_foe.c ****    {
 269              		.loc 1 58 7 is_stmt 0 view .LVU72
 270 0008 1F29     		cmp	r1, #31
 271 000a 00D9     		bls	.L15
  60:Lib/soes/src/esc_foe.c ****    }
 272              		.loc 1 60 17 view .LVU73
 273 000c 1F21     		movs	r1, #31
 274              	.LVL14:
 275              	.L15:
  63:Lib/soes/src/esc_foe.c ****    {
 276              		.loc 1 63 4 is_stmt 1 view .LVU74
  63:Lib/soes/src/esc_foe.c ****    {
 277              		.loc 1 63 11 is_stmt 0 view .LVU75
 278 000e 4FF0000C 		mov	ip, #0
  63:Lib/soes/src/esc_foe.c ****    {
 279              		.loc 1 63 4 view .LVU76
 280 0012 06E0     		b	.L16
 281              	.LVL15:
 282              	.L17:
  65:Lib/soes/src/esc_foe.c ****    }
 283              		.loc 1 65 7 is_stmt 1 discriminator 3 view .LVU77
  65:Lib/soes/src/esc_foe.c ****    }
 284              		.loc 1 65 30 is_stmt 0 discriminator 3 view .LVU78
 285 0014 10F80CE0 		ldrb	lr, [r0, ip]	@ zero_extendqisi2
  65:Lib/soes/src/esc_foe.c ****    }
 286              		.loc 1 65 24 discriminator 3 view .LVU79
 287 0018 314C     		ldr	r4, .L31
 288 001a 04F80CE0 		strb	lr, [r4, ip]
  63:Lib/soes/src/esc_foe.c ****    {
 289              		.loc 1 63 31 is_stmt 1 discriminator 3 view .LVU80
  63:Lib/soes/src/esc_foe.c ****    {
 290              		.loc 1 63 32 is_stmt 0 discriminator 3 view .LVU81
 291 001e 0CF1010C 		add	ip, ip, #1
 292              	.LVL16:
 293              	.L16:
  63:Lib/soes/src/esc_foe.c ****    {
 294              		.loc 1 63 16 is_stmt 1 discriminator 1 view .LVU82
  63:Lib/soes/src/esc_foe.c ****    {
 295              		.loc 1 63 18 is_stmt 0 discriminator 1 view .LVU83
 296 0022 0D46     		mov	r5, r1
  63:Lib/soes/src/esc_foe.c ****    {
 297              		.loc 1 63 4 discriminator 1 view .LVU84
 298 0024 6145     		cmp	r1, ip
 299 0026 F5D8     		bhi	.L17
  67:Lib/soes/src/esc_foe.c **** 
 300              		.loc 1 67 4 is_stmt 1 view .LVU85
ARM GAS  /tmp/ccc92rV8.s 			page 10


  67:Lib/soes/src/esc_foe.c **** 
 301              		.loc 1 67 21 is_stmt 0 view .LVU86
 302 0028 0024     		movs	r4, #0
 303 002a 2D4B     		ldr	r3, .L31
 304              	.LVL17:
  67:Lib/soes/src/esc_foe.c **** 
 305              		.loc 1 67 21 view .LVU87
 306 002c 03F80C40 		strb	r4, [r3, ip]
  70:Lib/soes/src/esc_foe.c ****    {
 307              		.loc 1 70 4 is_stmt 1 view .LVU88
 308              	.LVL18:
  70:Lib/soes/src/esc_foe.c ****    {
 309              		.loc 1 70 4 is_stmt 0 view .LVU89
 310 0030 1AE0     		b	.L18
 311              	.LVL19:
 312              	.L30:
  80:Lib/soes/src/esc_foe.c ****              (ESCvar.ALstatus != ESCboot))
 313              		.loc 1 80 32 discriminator 1 view .LVU90
 314 0032 99F81830 		ldrb	r3, [r9, #24]	@ zero_extendqisi2
  79:Lib/soes/src/esc_foe.c ****              (foe_cfg->files[i].write_only_in_boot) &&
 315              		.loc 1 79 31 discriminator 1 view .LVU91
 316 0036 93B3     		cbz	r3, .L21
  81:Lib/soes/src/esc_foe.c ****          {
 317              		.loc 1 81 21 view .LVU92
 318 0038 2A4B     		ldr	r3, .L31+4
 319 003a B3F88030 		ldrh	r3, [r3, #128]
  80:Lib/soes/src/esc_foe.c ****              (ESCvar.ALstatus != ESCboot))
 320              		.loc 1 80 53 view .LVU93
 321 003e 032B     		cmp	r3, #3
 322 0040 2DD0     		beq	.L21
  83:Lib/soes/src/esc_foe.c ****          }
 323              		.loc 1 83 20 view .LVU94
 324 0042 48F20900 		movw	r0, #32777
 325 0046 0CE0     		b	.L14
 326              	.L22:
  93:Lib/soes/src/esc_foe.c ****                FOEvar.fend = foe_cfg->files[i].max_data;
 327              		.loc 1 93 16 is_stmt 1 view .LVU95
  93:Lib/soes/src/esc_foe.c ****                FOEvar.fend = foe_cfg->files[i].max_data;
 328              		.loc 1 93 33 is_stmt 0 view .LVU96
 329 0048 274B     		ldr	r3, .L31+8
 330 004a 0020     		movs	r0, #0
 331 004c D871     		strb	r0, [r3, #7]
 332 004e 1872     		strb	r0, [r3, #8]
 333 0050 5872     		strb	r0, [r3, #9]
 334 0052 9872     		strb	r0, [r3, #10]
  94:Lib/soes/src/esc_foe.c ****                return 0;
 335              		.loc 1 94 16 is_stmt 1 view .LVU97
  94:Lib/soes/src/esc_foe.c ****                return 0;
 336              		.loc 1 94 37 is_stmt 0 view .LVU98
 337 0054 D8F80C20 		ldr	r2, [r8, #12]
  94:Lib/soes/src/esc_foe.c ****                return 0;
 338              		.loc 1 94 44 view .LVU99
 339 0058 9244     		add	r10, r10, r2
  94:Lib/soes/src/esc_foe.c ****                return 0;
 340              		.loc 1 94 47 view .LVU100
 341 005a DAF80420 		ldr	r2, [r10, #4]
  94:Lib/soes/src/esc_foe.c ****                return 0;
ARM GAS  /tmp/ccc92rV8.s 			page 11


 342              		.loc 1 94 28 view .LVU101
 343 005e C3F80F20 		str	r2, [r3, #15]	@ unaligned
  95:Lib/soes/src/esc_foe.c ****             }
 344              		.loc 1 95 16 is_stmt 1 view .LVU102
 345              	.L14:
 108:Lib/soes/src/esc_foe.c **** 
 346              		.loc 1 108 1 is_stmt 0 view .LVU103
 347 0062 BDE8F087 		pop	{r4, r5, r6, r7, r8, r9, r10, pc}
 348              	.LVL20:
 349              	.L19:
  70:Lib/soes/src/esc_foe.c ****    {
 350              		.loc 1 70 38 is_stmt 1 discriminator 2 view .LVU104
  70:Lib/soes/src/esc_foe.c ****    {
 351              		.loc 1 70 39 is_stmt 0 discriminator 2 view .LVU105
 352 0066 0134     		adds	r4, r4, #1
 353              	.LVL21:
 354              	.L18:
  70:Lib/soes/src/esc_foe.c ****    {
 355              		.loc 1 70 16 is_stmt 1 discriminator 1 view .LVU106
  70:Lib/soes/src/esc_foe.c ****    {
 356              		.loc 1 70 27 is_stmt 0 discriminator 1 view .LVU107
 357 0068 204B     		ldr	r3, .L31+12
 358 006a D3F80080 		ldr	r8, [r3]
 359 006e D8F80830 		ldr	r3, [r8, #8]
  70:Lib/soes/src/esc_foe.c ****    {
 360              		.loc 1 70 4 discriminator 1 view .LVU108
 361 0072 A342     		cmp	r3, r4
 362 0074 2DD9     		bls	.L29
  72:Lib/soes/src/esc_foe.c ****       {
 363              		.loc 1 72 7 is_stmt 1 view .LVU109
  72:Lib/soes/src/esc_foe.c ****       {
 364              		.loc 1 72 47 is_stmt 0 view .LVU110
 365 0076 D8F80C30 		ldr	r3, [r8, #12]
  72:Lib/soes/src/esc_foe.c ****       {
 366              		.loc 1 72 54 view .LVU111
 367 007a 4FEA441A 		lsl	r10, r4, #5
 368 007e 03EB4419 		add	r9, r3, r4, lsl #5
  72:Lib/soes/src/esc_foe.c ****       {
 369              		.loc 1 72 16 view .LVU112
 370 0082 2A46     		mov	r2, r5
 371 0084 53F80A10 		ldr	r1, [r3, r10]
 372 0088 1548     		ldr	r0, .L31
 373 008a FFF7FEFF 		bl	strncmp
 374              	.LVL22:
  72:Lib/soes/src/esc_foe.c ****       {
 375              		.loc 1 72 10 view .LVU113
 376 008e 0028     		cmp	r0, #0
 377 0090 E9D1     		bne	.L19
  74:Lib/soes/src/esc_foe.c ****          {
 378              		.loc 1 74 10 is_stmt 1 view .LVU114
  74:Lib/soes/src/esc_foe.c ****          {
 379              		.loc 1 74 39 is_stmt 0 view .LVU115
 380 0092 D9F81430 		ldr	r3, [r9, #20]
  74:Lib/soes/src/esc_foe.c ****          {
 381              		.loc 1 74 13 view .LVU116
 382 0096 BB42     		cmp	r3, r7
 383 0098 1ED1     		bne	.L26
ARM GAS  /tmp/ccc92rV8.s 			page 12


  79:Lib/soes/src/esc_foe.c ****              (foe_cfg->files[i].write_only_in_boot) &&
 384              		.loc 1 79 10 is_stmt 1 view .LVU117
  79:Lib/soes/src/esc_foe.c ****              (foe_cfg->files[i].write_only_in_boot) &&
 385              		.loc 1 79 13 is_stmt 0 view .LVU118
 386 009a 022E     		cmp	r6, #2
 387 009c C9D0     		beq	.L30
 388              	.L21:
  86:Lib/soes/src/esc_foe.c ****          foe_file->address_offset = 0;
 389              		.loc 1 86 10 is_stmt 1 view .LVU119
  86:Lib/soes/src/esc_foe.c ****          foe_file->address_offset = 0;
 390              		.loc 1 86 19 is_stmt 0 view .LVU120
 391 009e 144B     		ldr	r3, .L31+16
 392 00a0 C3F80090 		str	r9, [r3]
  87:Lib/soes/src/esc_foe.c ****          foe_file->total_size = 0;
 393              		.loc 1 87 10 is_stmt 1 view .LVU121
  87:Lib/soes/src/esc_foe.c ****          foe_file->total_size = 0;
 394              		.loc 1 87 35 is_stmt 0 view .LVU122
 395 00a4 0023     		movs	r3, #0
 396 00a6 C9F80C30 		str	r3, [r9, #12]
  88:Lib/soes/src/esc_foe.c ****          switch (op)
 397              		.loc 1 88 10 is_stmt 1 view .LVU123
  88:Lib/soes/src/esc_foe.c ****          switch (op)
 398              		.loc 1 88 31 is_stmt 0 view .LVU124
 399 00aa C9F81030 		str	r3, [r9, #16]
  89:Lib/soes/src/esc_foe.c ****          {
 400              		.loc 1 89 10 is_stmt 1 view .LVU125
 401 00ae 012E     		cmp	r6, #1
 402 00b0 CAD0     		beq	.L22
 403 00b2 022E     		cmp	r6, #2
 404 00b4 D7D1     		bne	.L19
  99:Lib/soes/src/esc_foe.c ****                FOEvar.fend = foe_cfg->files[i].max_data;
 405              		.loc 1 99 16 view .LVU126
  99:Lib/soes/src/esc_foe.c ****                FOEvar.fend = foe_cfg->files[i].max_data;
 406              		.loc 1 99 33 is_stmt 0 view .LVU127
 407 00b6 0C4B     		ldr	r3, .L31+8
 408 00b8 0020     		movs	r0, #0
 409 00ba D871     		strb	r0, [r3, #7]
 410 00bc 1872     		strb	r0, [r3, #8]
 411 00be 5872     		strb	r0, [r3, #9]
 412 00c0 9872     		strb	r0, [r3, #10]
 100:Lib/soes/src/esc_foe.c ****                return 0;
 413              		.loc 1 100 16 is_stmt 1 view .LVU128
 100:Lib/soes/src/esc_foe.c ****                return 0;
 414              		.loc 1 100 37 is_stmt 0 view .LVU129
 415 00c2 D8F80C20 		ldr	r2, [r8, #12]
 100:Lib/soes/src/esc_foe.c ****                return 0;
 416              		.loc 1 100 44 view .LVU130
 417 00c6 9244     		add	r10, r10, r2
 100:Lib/soes/src/esc_foe.c ****                return 0;
 418              		.loc 1 100 47 view .LVU131
 419 00c8 DAF80420 		ldr	r2, [r10, #4]
 100:Lib/soes/src/esc_foe.c ****                return 0;
 420              		.loc 1 100 28 view .LVU132
 421 00cc C3F80F20 		str	r2, [r3, #15]	@ unaligned
 101:Lib/soes/src/esc_foe.c ****             }
 422              		.loc 1 101 16 is_stmt 1 view .LVU133
 101:Lib/soes/src/esc_foe.c ****             }
ARM GAS  /tmp/ccc92rV8.s 			page 13


 423              		.loc 1 101 23 is_stmt 0 view .LVU134
 424 00d0 C7E7     		b	.L14
 425              	.L29:
 107:Lib/soes/src/esc_foe.c **** }
 426              		.loc 1 107 11 view .LVU135
 427 00d2 48F20100 		movw	r0, #32769
 428 00d6 C4E7     		b	.L14
 429              	.L26:
  76:Lib/soes/src/esc_foe.c ****          }
 430              		.loc 1 76 20 view .LVU136
 431 00d8 48F20A00 		movw	r0, #32778
 432 00dc C1E7     		b	.L14
 433              	.L32:
 434 00de 00BF     		.align	2
 435              	.L31:
 436 00e0 00000000 		.word	.LANCHOR3
 437 00e4 00000000 		.word	ESCvar
 438 00e8 00000000 		.word	.LANCHOR0
 439 00ec 00000000 		.word	.LANCHOR1
 440 00f0 00000000 		.word	.LANCHOR2
 441              		.cfi_endproc
 442              	.LFE0:
 444              		.section	.text.FOE_send_ack,"ax",%progbits
 445              		.align	1
 446              		.syntax unified
 447              		.thumb
 448              		.thumb_func
 449              		.fpu fpv4-sp-d16
 451              	FOE_send_ack:
 452              	.LFB5:
 199:Lib/soes/src/esc_foe.c **** 
 200:Lib/soes/src/esc_foe.c **** /** Initialize by clearing all current status variables.
 201:Lib/soes/src/esc_foe.c ****  *
 202:Lib/soes/src/esc_foe.c ****  */
 203:Lib/soes/src/esc_foe.c **** void FOE_init ()
 204:Lib/soes/src/esc_foe.c **** {
 205:Lib/soes/src/esc_foe.c ****    DPRINT("FOE_init\n");
 206:Lib/soes/src/esc_foe.c ****    FOEvar.foepacket = 0;
 207:Lib/soes/src/esc_foe.c ****    FOEvar.foestate = FOE_READY;
 208:Lib/soes/src/esc_foe.c ****    FOEvar.fposition = 0;
 209:Lib/soes/src/esc_foe.c ****    FOEvar.fprevposition = 0;
 210:Lib/soes/src/esc_foe.c ****    FOEvar.fbufposition = 0;
 211:Lib/soes/src/esc_foe.c **** }
 212:Lib/soes/src/esc_foe.c **** 
 213:Lib/soes/src/esc_foe.c **** /** Function for sending an FOE abort frame.
 214:Lib/soes/src/esc_foe.c ****  *
 215:Lib/soes/src/esc_foe.c ****  * @param[in] code   = abort code
 216:Lib/soes/src/esc_foe.c ****  */
 217:Lib/soes/src/esc_foe.c **** static void FOE_abort (uint32_t code)
 218:Lib/soes/src/esc_foe.c **** {
 219:Lib/soes/src/esc_foe.c ****    _FOE *foembx;
 220:Lib/soes/src/esc_foe.c ****    uint8_t mbxhandle;
 221:Lib/soes/src/esc_foe.c **** 
 222:Lib/soes/src/esc_foe.c ****    if (code)
 223:Lib/soes/src/esc_foe.c ****    {
 224:Lib/soes/src/esc_foe.c ****       /* Send back an error packet. */
 225:Lib/soes/src/esc_foe.c ****       mbxhandle = ESC_claimbuffer ();
ARM GAS  /tmp/ccc92rV8.s 			page 14


 226:Lib/soes/src/esc_foe.c ****       if (mbxhandle)
 227:Lib/soes/src/esc_foe.c ****       {
 228:Lib/soes/src/esc_foe.c ****          foembx = (_FOE *) &MBX[mbxhandle * ESC_MBXSIZE];
 229:Lib/soes/src/esc_foe.c ****          foembx->mbxheader.length = htoes (ESC_FOEHSIZE);   /* Don't bother with error text for now
 230:Lib/soes/src/esc_foe.c ****          foembx->mbxheader.mbxtype = MBXFOE;
 231:Lib/soes/src/esc_foe.c ****          foembx->foeheader.opcode = FOE_OP_ERR;
 232:Lib/soes/src/esc_foe.c ****          foembx->foeheader.errorcode = htoel (code);
 233:Lib/soes/src/esc_foe.c ****          MBXcontrol[mbxhandle].state = MBXstate_outreq;
 234:Lib/soes/src/esc_foe.c ****       }
 235:Lib/soes/src/esc_foe.c ****       /* Nothing we can do if we can't get an outbound mailbox. */
 236:Lib/soes/src/esc_foe.c ****    }
 237:Lib/soes/src/esc_foe.c ****    DPRINT("FOE_abort: 0x%"PRIX32"\n", code);
 238:Lib/soes/src/esc_foe.c ****    FOE_init ();
 239:Lib/soes/src/esc_foe.c **** }
 240:Lib/soes/src/esc_foe.c **** 
 241:Lib/soes/src/esc_foe.c **** #ifdef FOE_READ_SUPPORTED
 242:Lib/soes/src/esc_foe.c **** /** Sends an FoE data frame, returning the number of data bytes
 243:Lib/soes/src/esc_foe.c ****  * written or an error number.
 244:Lib/soes/src/esc_foe.c ****  * Error numbers will be greater than FOE_DATA_SIZE.
 245:Lib/soes/src/esc_foe.c **** 
 246:Lib/soes/src/esc_foe.c ****  * @param[in] data   = pointer to buffer
 247:Lib/soes/src/esc_foe.c ****  * @param[in] length = length of data to read
 248:Lib/soes/src/esc_foe.c **** 
 249:Lib/soes/src/esc_foe.c ****  * @return Number of data bytes written or an error number. Error numbers
 250:Lib/soes/src/esc_foe.c ****  * will be greater than FOE_DATA_SIZE.
 251:Lib/soes/src/esc_foe.c ****  */
 252:Lib/soes/src/esc_foe.c **** static uint32_t FOE_send_data_packet ()
 253:Lib/soes/src/esc_foe.c **** {
 254:Lib/soes/src/esc_foe.c ****    _FOE *foembx;
 255:Lib/soes/src/esc_foe.c ****    uint32_t data_len;
 256:Lib/soes/src/esc_foe.c ****    uint8_t mbxhandle;
 257:Lib/soes/src/esc_foe.c **** 
 258:Lib/soes/src/esc_foe.c ****    mbxhandle = ESC_claimbuffer ();
 259:Lib/soes/src/esc_foe.c ****    if (mbxhandle)
 260:Lib/soes/src/esc_foe.c ****    {
 261:Lib/soes/src/esc_foe.c ****       foembx = (_FOE *) &MBX[mbxhandle * ESC_MBXSIZE];
 262:Lib/soes/src/esc_foe.c ****       data_len = FOE_fread (foembx->data, ESC_FOE_DATA_SIZE);
 263:Lib/soes/src/esc_foe.c ****       foembx->foeheader.opcode = FOE_OP_DATA;
 264:Lib/soes/src/esc_foe.c ****       foembx->foeheader.packetnumber = htoel (FOEvar.foepacket);
 265:Lib/soes/src/esc_foe.c ****       FOEvar.foepacket++;
 266:Lib/soes/src/esc_foe.c ****       foembx->mbxheader.length = htoes (data_len + ESC_FOEHSIZE);
 267:Lib/soes/src/esc_foe.c ****       foembx->mbxheader.mbxtype = MBXFOE;
 268:Lib/soes/src/esc_foe.c ****       /* Mark the outbound mailbox as filled. */
 269:Lib/soes/src/esc_foe.c ****       MBXcontrol[mbxhandle].state = MBXstate_outreq;
 270:Lib/soes/src/esc_foe.c ****       return data_len;
 271:Lib/soes/src/esc_foe.c ****    }
 272:Lib/soes/src/esc_foe.c ****    else
 273:Lib/soes/src/esc_foe.c ****    {
 274:Lib/soes/src/esc_foe.c ****       return FOE_ERR_PROGERROR;
 275:Lib/soes/src/esc_foe.c ****    }
 276:Lib/soes/src/esc_foe.c **** }
 277:Lib/soes/src/esc_foe.c **** #endif
 278:Lib/soes/src/esc_foe.c **** 
 279:Lib/soes/src/esc_foe.c **** /** Sends an FoE ack data frame.
 280:Lib/soes/src/esc_foe.c **** 
 281:Lib/soes/src/esc_foe.c ****  * @return 0= or error number.
 282:Lib/soes/src/esc_foe.c ****  */
ARM GAS  /tmp/ccc92rV8.s 			page 15


 283:Lib/soes/src/esc_foe.c **** static uint32_t FOE_send_ack ()
 284:Lib/soes/src/esc_foe.c **** {
 453              		.loc 1 284 1 is_stmt 1 view -0
 454              		.cfi_startproc
 455              		@ args = 0, pretend = 0, frame = 0
 456              		@ frame_needed = 0, uses_anonymous_args = 0
 457 0000 10B5     		push	{r4, lr}
 458              		.cfi_def_cfa_offset 8
 459              		.cfi_offset 4, -8
 460              		.cfi_offset 14, -4
 285:Lib/soes/src/esc_foe.c ****    _FOE *foembx;
 461              		.loc 1 285 4 view .LVU138
 286:Lib/soes/src/esc_foe.c ****    uint8_t mbxhandle;
 462              		.loc 1 286 4 view .LVU139
 287:Lib/soes/src/esc_foe.c **** 
 288:Lib/soes/src/esc_foe.c ****    mbxhandle = ESC_claimbuffer ();
 463              		.loc 1 288 4 view .LVU140
 464              		.loc 1 288 16 is_stmt 0 view .LVU141
 465 0002 FFF7FEFF 		bl	ESC_claimbuffer
 466              	.LVL23:
 289:Lib/soes/src/esc_foe.c ****    if (mbxhandle)
 467              		.loc 1 289 4 is_stmt 1 view .LVU142
 468              		.loc 1 289 7 is_stmt 0 view .LVU143
 469 0006 E8B1     		cbz	r0, .L35
 470 0008 0146     		mov	r1, r0
 290:Lib/soes/src/esc_foe.c ****    {
 291:Lib/soes/src/esc_foe.c ****       DPRINT("FOE_send_ack\n");
 471              		.loc 1 291 31 is_stmt 1 view .LVU144
 292:Lib/soes/src/esc_foe.c ****       foembx = (_FOE *) &MBX[mbxhandle * ESC_MBXSIZE];
 472              		.loc 1 292 7 view .LVU145
 473              		.loc 1 292 42 is_stmt 0 view .LVU146
 474 000a 104B     		ldr	r3, .L37
 475 000c DA6E     		ldr	r2, [r3, #108]
 476              		.loc 1 292 40 view .LVU147
 477 000e 00FB02F2 		mul	r2, r0, r2
 478              		.loc 1 292 14 view .LVU148
 479 0012 0F4C     		ldr	r4, .L37+4
 480 0014 1319     		adds	r3, r2, r4
 481              	.LVL24:
 293:Lib/soes/src/esc_foe.c ****       foembx->mbxheader.length = htoes (ESC_FOEHSIZE);
 482              		.loc 1 293 7 is_stmt 1 view .LVU149
 483              		.loc 1 293 32 is_stmt 0 view .LVU150
 484 0016 0020     		movs	r0, #0
 485              	.LVL25:
 486              		.loc 1 293 32 view .LVU151
 487 0018 4FF0060C 		mov	ip, #6
 488 001c 02F804C0 		strb	ip, [r2, r4]
 489 0020 5870     		strb	r0, [r3, #1]
 294:Lib/soes/src/esc_foe.c ****       foembx->mbxheader.mbxtype = MBXFOE;
 490              		.loc 1 294 7 is_stmt 1 view .LVU152
 491              		.loc 1 294 33 is_stmt 0 view .LVU153
 492 0022 5C79     		ldrb	r4, [r3, #5]	@ zero_extendqisi2
 493 0024 0422     		movs	r2, #4
 494 0026 62F30304 		bfi	r4, r2, #0, #4
 495 002a 5C71     		strb	r4, [r3, #5]
 295:Lib/soes/src/esc_foe.c ****       foembx->foeheader.opcode = FOE_OP_ACK;
 496              		.loc 1 295 7 is_stmt 1 view .LVU154
ARM GAS  /tmp/ccc92rV8.s 			page 16


 497              		.loc 1 295 32 is_stmt 0 view .LVU155
 498 002c 9A71     		strb	r2, [r3, #6]
 296:Lib/soes/src/esc_foe.c ****       foembx->foeheader.packetnumber = htoel (FOEvar.foepacket);
 499              		.loc 1 296 7 is_stmt 1 view .LVU156
 500              		.loc 1 296 40 is_stmt 0 view .LVU157
 501 002e 094C     		ldr	r4, .L37+8
 502 0030 D4F80320 		ldr	r2, [r4, #3]	@ unaligned
 503              		.loc 1 296 38 view .LVU158
 504 0034 9A60     		str	r2, [r3, #8]	@ unaligned
 297:Lib/soes/src/esc_foe.c ****       FOEvar.foepacket++;
 505              		.loc 1 297 7 is_stmt 1 view .LVU159
 506              		.loc 1 297 23 is_stmt 0 view .LVU160
 507 0036 0132     		adds	r2, r2, #1
 508 0038 C4F80320 		str	r2, [r4, #3]	@ unaligned
 298:Lib/soes/src/esc_foe.c ****       MBXcontrol[mbxhandle].state = MBXstate_outreq;
 509              		.loc 1 298 7 is_stmt 1 view .LVU161
 510              		.loc 1 298 35 is_stmt 0 view .LVU162
 511 003c 064B     		ldr	r3, .L37+12
 512              	.LVL26:
 513              		.loc 1 298 35 view .LVU163
 514 003e 0322     		movs	r2, #3
 515 0040 5A54     		strb	r2, [r3, r1]
 299:Lib/soes/src/esc_foe.c ****       return 0;
 516              		.loc 1 299 7 is_stmt 1 view .LVU164
 517              	.LVL27:
 518              	.L33:
 300:Lib/soes/src/esc_foe.c ****    }
 301:Lib/soes/src/esc_foe.c ****    else
 302:Lib/soes/src/esc_foe.c ****    {
 303:Lib/soes/src/esc_foe.c ****       DPRINT("ERROR:FOE_send_ack\n");
 304:Lib/soes/src/esc_foe.c ****       return FOE_ERR_PROGERROR;
 305:Lib/soes/src/esc_foe.c ****    }
 306:Lib/soes/src/esc_foe.c **** }
 519              		.loc 1 306 1 is_stmt 0 view .LVU165
 520 0042 10BD     		pop	{r4, pc}
 521              	.LVL28:
 522              	.L35:
 304:Lib/soes/src/esc_foe.c ****    }
 523              		.loc 1 304 14 view .LVU166
 524 0044 48F20B00 		movw	r0, #32779
 525              	.LVL29:
 304:Lib/soes/src/esc_foe.c ****    }
 526              		.loc 1 304 14 view .LVU167
 527 0048 FBE7     		b	.L33
 528              	.L38:
 529 004a 00BF     		.align	2
 530              	.L37:
 531 004c 00000000 		.word	ESCvar
 532 0050 00000000 		.word	MBX
 533 0054 00000000 		.word	.LANCHOR0
 534 0058 00000000 		.word	MBXcontrol
 535              		.cfi_endproc
 536              	.LFE5:
 538              		.section	.text.FOE_init,"ax",%progbits
 539              		.align	1
 540              		.global	FOE_init
 541              		.syntax unified
ARM GAS  /tmp/ccc92rV8.s 			page 17


 542              		.thumb
 543              		.thumb_func
 544              		.fpu fpv4-sp-d16
 546              	FOE_init:
 547              	.LFB3:
 204:Lib/soes/src/esc_foe.c ****    DPRINT("FOE_init\n");
 548              		.loc 1 204 1 is_stmt 1 view -0
 549              		.cfi_startproc
 550              		@ args = 0, pretend = 0, frame = 0
 551              		@ frame_needed = 0, uses_anonymous_args = 0
 552              		@ link register save eliminated.
 205:Lib/soes/src/esc_foe.c ****    FOEvar.foepacket = 0;
 553              		.loc 1 205 24 view .LVU169
 206:Lib/soes/src/esc_foe.c ****    FOEvar.foestate = FOE_READY;
 554              		.loc 1 206 4 view .LVU170
 206:Lib/soes/src/esc_foe.c ****    FOEvar.foestate = FOE_READY;
 555              		.loc 1 206 21 is_stmt 0 view .LVU171
 556 0000 084B     		ldr	r3, .L40
 557 0002 0022     		movs	r2, #0
 558 0004 DA70     		strb	r2, [r3, #3]
 559 0006 1A71     		strb	r2, [r3, #4]
 560 0008 5A71     		strb	r2, [r3, #5]
 561 000a 9A71     		strb	r2, [r3, #6]
 207:Lib/soes/src/esc_foe.c ****    FOEvar.fposition = 0;
 562              		.loc 1 207 4 is_stmt 1 view .LVU172
 207:Lib/soes/src/esc_foe.c ****    FOEvar.fposition = 0;
 563              		.loc 1 207 20 is_stmt 0 view .LVU173
 564 000c 1A70     		strb	r2, [r3]
 208:Lib/soes/src/esc_foe.c ****    FOEvar.fprevposition = 0;
 565              		.loc 1 208 4 is_stmt 1 view .LVU174
 208:Lib/soes/src/esc_foe.c ****    FOEvar.fprevposition = 0;
 566              		.loc 1 208 21 is_stmt 0 view .LVU175
 567 000e DA71     		strb	r2, [r3, #7]
 568 0010 1A72     		strb	r2, [r3, #8]
 569 0012 5A72     		strb	r2, [r3, #9]
 570 0014 9A72     		strb	r2, [r3, #10]
 209:Lib/soes/src/esc_foe.c ****    FOEvar.fbufposition = 0;
 571              		.loc 1 209 4 is_stmt 1 view .LVU176
 209:Lib/soes/src/esc_foe.c ****    FOEvar.fbufposition = 0;
 572              		.loc 1 209 25 is_stmt 0 view .LVU177
 573 0016 DA72     		strb	r2, [r3, #11]
 574 0018 1A73     		strb	r2, [r3, #12]
 575 001a 5A73     		strb	r2, [r3, #13]
 576 001c 9A73     		strb	r2, [r3, #14]
 210:Lib/soes/src/esc_foe.c **** }
 577              		.loc 1 210 4 is_stmt 1 view .LVU178
 210:Lib/soes/src/esc_foe.c **** }
 578              		.loc 1 210 24 is_stmt 0 view .LVU179
 579 001e 5A70     		strb	r2, [r3, #1]
 580 0020 9A70     		strb	r2, [r3, #2]
 211:Lib/soes/src/esc_foe.c **** 
 581              		.loc 1 211 1 view .LVU180
 582 0022 7047     		bx	lr
 583              	.L41:
 584              		.align	2
 585              	.L40:
 586 0024 00000000 		.word	.LANCHOR0
ARM GAS  /tmp/ccc92rV8.s 			page 18


 587              		.cfi_endproc
 588              	.LFE3:
 590              		.section	.text.FOE_abort,"ax",%progbits
 591              		.align	1
 592              		.syntax unified
 593              		.thumb
 594              		.thumb_func
 595              		.fpu fpv4-sp-d16
 597              	FOE_abort:
 598              	.LVL30:
 599              	.LFB4:
 218:Lib/soes/src/esc_foe.c ****    _FOE *foembx;
 600              		.loc 1 218 1 is_stmt 1 view -0
 601              		.cfi_startproc
 602              		@ args = 0, pretend = 0, frame = 0
 603              		@ frame_needed = 0, uses_anonymous_args = 0
 218:Lib/soes/src/esc_foe.c ****    _FOE *foembx;
 604              		.loc 1 218 1 is_stmt 0 view .LVU182
 605 0000 10B5     		push	{r4, lr}
 606              		.cfi_def_cfa_offset 8
 607              		.cfi_offset 4, -8
 608              		.cfi_offset 14, -4
 219:Lib/soes/src/esc_foe.c ****    uint8_t mbxhandle;
 609              		.loc 1 219 4 is_stmt 1 view .LVU183
 220:Lib/soes/src/esc_foe.c **** 
 610              		.loc 1 220 4 view .LVU184
 222:Lib/soes/src/esc_foe.c ****    {
 611              		.loc 1 222 4 view .LVU185
 222:Lib/soes/src/esc_foe.c ****    {
 612              		.loc 1 222 7 is_stmt 0 view .LVU186
 613 0002 10B9     		cbnz	r0, .L45
 614              	.LVL31:
 615              	.L43:
 237:Lib/soes/src/esc_foe.c ****    FOE_init ();
 616              		.loc 1 237 44 is_stmt 1 view .LVU187
 238:Lib/soes/src/esc_foe.c **** }
 617              		.loc 1 238 4 view .LVU188
 618 0004 FFF7FEFF 		bl	FOE_init
 619              	.LVL32:
 239:Lib/soes/src/esc_foe.c **** 
 620              		.loc 1 239 1 is_stmt 0 view .LVU189
 621 0008 10BD     		pop	{r4, pc}
 622              	.LVL33:
 623              	.L45:
 239:Lib/soes/src/esc_foe.c **** 
 624              		.loc 1 239 1 view .LVU190
 625 000a 0446     		mov	r4, r0
 225:Lib/soes/src/esc_foe.c ****       if (mbxhandle)
 626              		.loc 1 225 7 is_stmt 1 view .LVU191
 225:Lib/soes/src/esc_foe.c ****       if (mbxhandle)
 627              		.loc 1 225 19 is_stmt 0 view .LVU192
 628 000c FFF7FEFF 		bl	ESC_claimbuffer
 629              	.LVL34:
 226:Lib/soes/src/esc_foe.c ****       {
 630              		.loc 1 226 7 is_stmt 1 view .LVU193
 226:Lib/soes/src/esc_foe.c ****       {
 631              		.loc 1 226 10 is_stmt 0 view .LVU194
ARM GAS  /tmp/ccc92rV8.s 			page 19


 632 0010 0146     		mov	r1, r0
 633 0012 0028     		cmp	r0, #0
 634 0014 F6D0     		beq	.L43
 228:Lib/soes/src/esc_foe.c ****          foembx->mbxheader.length = htoes (ESC_FOEHSIZE);   /* Don't bother with error text for now
 635              		.loc 1 228 10 is_stmt 1 view .LVU195
 228:Lib/soes/src/esc_foe.c ****          foembx->mbxheader.length = htoes (ESC_FOEHSIZE);   /* Don't bother with error text for now
 636              		.loc 1 228 45 is_stmt 0 view .LVU196
 637 0016 0C4B     		ldr	r3, .L46
 638 0018 DA6E     		ldr	r2, [r3, #108]
 228:Lib/soes/src/esc_foe.c ****          foembx->mbxheader.length = htoes (ESC_FOEHSIZE);   /* Don't bother with error text for now
 639              		.loc 1 228 43 view .LVU197
 640 001a 00FB02F2 		mul	r2, r0, r2
 228:Lib/soes/src/esc_foe.c ****          foembx->mbxheader.length = htoes (ESC_FOEHSIZE);   /* Don't bother with error text for now
 641              		.loc 1 228 17 view .LVU198
 642 001e 0B48     		ldr	r0, .L46+4
 643              	.LVL35:
 228:Lib/soes/src/esc_foe.c ****          foembx->mbxheader.length = htoes (ESC_FOEHSIZE);   /* Don't bother with error text for now
 644              		.loc 1 228 17 view .LVU199
 645 0020 1318     		adds	r3, r2, r0
 646              	.LVL36:
 229:Lib/soes/src/esc_foe.c ****          foembx->mbxheader.mbxtype = MBXFOE;
 647              		.loc 1 229 10 is_stmt 1 view .LVU200
 229:Lib/soes/src/esc_foe.c ****          foembx->mbxheader.mbxtype = MBXFOE;
 648              		.loc 1 229 35 is_stmt 0 view .LVU201
 649 0022 4FF0060C 		mov	ip, #6
 650 0026 02F800C0 		strb	ip, [r2, r0]
 651 002a 0022     		movs	r2, #0
 652 002c 5A70     		strb	r2, [r3, #1]
 230:Lib/soes/src/esc_foe.c ****          foembx->foeheader.opcode = FOE_OP_ERR;
 653              		.loc 1 230 10 is_stmt 1 view .LVU202
 230:Lib/soes/src/esc_foe.c ****          foembx->foeheader.opcode = FOE_OP_ERR;
 654              		.loc 1 230 36 is_stmt 0 view .LVU203
 655 002e 5A79     		ldrb	r2, [r3, #5]	@ zero_extendqisi2
 656 0030 0420     		movs	r0, #4
 657 0032 60F30302 		bfi	r2, r0, #0, #4
 658 0036 5A71     		strb	r2, [r3, #5]
 231:Lib/soes/src/esc_foe.c ****          foembx->foeheader.errorcode = htoel (code);
 659              		.loc 1 231 10 is_stmt 1 view .LVU204
 231:Lib/soes/src/esc_foe.c ****          foembx->foeheader.errorcode = htoel (code);
 660              		.loc 1 231 35 is_stmt 0 view .LVU205
 661 0038 0522     		movs	r2, #5
 662 003a 9A71     		strb	r2, [r3, #6]
 232:Lib/soes/src/esc_foe.c ****          MBXcontrol[mbxhandle].state = MBXstate_outreq;
 663              		.loc 1 232 10 is_stmt 1 view .LVU206
 232:Lib/soes/src/esc_foe.c ****          MBXcontrol[mbxhandle].state = MBXstate_outreq;
 664              		.loc 1 232 38 is_stmt 0 view .LVU207
 665 003c 9C60     		str	r4, [r3, #8]	@ unaligned
 233:Lib/soes/src/esc_foe.c ****       }
 666              		.loc 1 233 10 is_stmt 1 view .LVU208
 233:Lib/soes/src/esc_foe.c ****       }
 667              		.loc 1 233 38 is_stmt 0 view .LVU209
 668 003e 044B     		ldr	r3, .L46+8
 669              	.LVL37:
 233:Lib/soes/src/esc_foe.c ****       }
 670              		.loc 1 233 38 view .LVU210
 671 0040 0322     		movs	r2, #3
 672 0042 5A54     		strb	r2, [r3, r1]
ARM GAS  /tmp/ccc92rV8.s 			page 20


 673 0044 DEE7     		b	.L43
 674              	.L47:
 675 0046 00BF     		.align	2
 676              	.L46:
 677 0048 00000000 		.word	ESCvar
 678 004c 00000000 		.word	MBX
 679 0050 00000000 		.word	MBXcontrol
 680              		.cfi_endproc
 681              	.LFE4:
 683              		.section	.text.FOE_error,"ax",%progbits
 684              		.align	1
 685              		.syntax unified
 686              		.thumb
 687              		.thumb_func
 688              		.fpu fpv4-sp-d16
 690              	FOE_error:
 691              	.LFB8:
 307:Lib/soes/src/esc_foe.c **** 
 308:Lib/soes/src/esc_foe.c **** /* Handlers for various FoE states. */
 309:Lib/soes/src/esc_foe.c **** 
 310:Lib/soes/src/esc_foe.c **** #ifdef FOE_READ_SUPPORTED
 311:Lib/soes/src/esc_foe.c **** /** FoE read request handler. Starts with Initialize, Open and Sending one frame.
 312:Lib/soes/src/esc_foe.c ****  * When first frame have been sent we will send data from Ack.
 313:Lib/soes/src/esc_foe.c ****  * On error we will send FOE Abort.
 314:Lib/soes/src/esc_foe.c ****  *
 315:Lib/soes/src/esc_foe.c ****  */
 316:Lib/soes/src/esc_foe.c **** static void FOE_read ()
 317:Lib/soes/src/esc_foe.c **** {
 318:Lib/soes/src/esc_foe.c ****    _FOE *foembx;
 319:Lib/soes/src/esc_foe.c ****    uint32_t password;
 320:Lib/soes/src/esc_foe.c ****    uint32_t res;
 321:Lib/soes/src/esc_foe.c ****    uint8_t data_len;
 322:Lib/soes/src/esc_foe.c **** 
 323:Lib/soes/src/esc_foe.c ****    if (FOEvar.foestate != FOE_READY)
 324:Lib/soes/src/esc_foe.c ****    {
 325:Lib/soes/src/esc_foe.c ****       FOE_abort (FOE_ERR_ILLEGAL);
 326:Lib/soes/src/esc_foe.c ****       return;
 327:Lib/soes/src/esc_foe.c ****    }
 328:Lib/soes/src/esc_foe.c **** 
 329:Lib/soes/src/esc_foe.c ****    FOE_init ();
 330:Lib/soes/src/esc_foe.c ****    foembx = (_FOE *) &MBX[0];
 331:Lib/soes/src/esc_foe.c ****    /* Get the length of the file name in octets. */
 332:Lib/soes/src/esc_foe.c ****    data_len = (uint8_t)(etohs (foembx->mbxheader.length) - ESC_FOEHSIZE);
 333:Lib/soes/src/esc_foe.c ****    password = etohl (foembx->foeheader.password);
 334:Lib/soes/src/esc_foe.c **** 
 335:Lib/soes/src/esc_foe.c ****    res = FOE_fopen (foembx->filename, data_len, password, FOE_OP_RRQ);
 336:Lib/soes/src/esc_foe.c ****    if (res == 0)
 337:Lib/soes/src/esc_foe.c ****    {
 338:Lib/soes/src/esc_foe.c ****       FOEvar.foepacket = 1;
 339:Lib/soes/src/esc_foe.c ****       /*
 340:Lib/soes/src/esc_foe.c ****        * Attempt to send the packet
 341:Lib/soes/src/esc_foe.c ****        */
 342:Lib/soes/src/esc_foe.c ****       res = FOE_send_data_packet ();
 343:Lib/soes/src/esc_foe.c ****       if (res <= ESC_FOE_DATA_SIZE)
 344:Lib/soes/src/esc_foe.c ****       {
 345:Lib/soes/src/esc_foe.c ****          FOEvar.foestate = FOE_WAIT_FOR_ACK;
 346:Lib/soes/src/esc_foe.c ****       }
ARM GAS  /tmp/ccc92rV8.s 			page 21


 347:Lib/soes/src/esc_foe.c ****       else
 348:Lib/soes/src/esc_foe.c ****       {
 349:Lib/soes/src/esc_foe.c ****          FOE_abort (res);
 350:Lib/soes/src/esc_foe.c ****       }
 351:Lib/soes/src/esc_foe.c ****    }
 352:Lib/soes/src/esc_foe.c ****    else
 353:Lib/soes/src/esc_foe.c ****    {
 354:Lib/soes/src/esc_foe.c ****       FOE_abort (res);
 355:Lib/soes/src/esc_foe.c ****    }
 356:Lib/soes/src/esc_foe.c **** }
 357:Lib/soes/src/esc_foe.c **** 
 358:Lib/soes/src/esc_foe.c **** /** FoE data ack handler. Will continue sending next frame until finished.
 359:Lib/soes/src/esc_foe.c ****  * On error we will send FOE Abort.
 360:Lib/soes/src/esc_foe.c ****  */
 361:Lib/soes/src/esc_foe.c **** static void FOE_ack ()
 362:Lib/soes/src/esc_foe.c **** {
 363:Lib/soes/src/esc_foe.c ****    uint32_t res;
 364:Lib/soes/src/esc_foe.c **** 
 365:Lib/soes/src/esc_foe.c ****    /* Make sure we're able to take this. */
 366:Lib/soes/src/esc_foe.c ****    if (FOEvar.foestate == FOE_WAIT_FOR_FINAL_ACK)
 367:Lib/soes/src/esc_foe.c ****    {
 368:Lib/soes/src/esc_foe.c ****       /* Move us back to ready state. */
 369:Lib/soes/src/esc_foe.c ****       FOE_init ();
 370:Lib/soes/src/esc_foe.c ****       return;
 371:Lib/soes/src/esc_foe.c ****    }
 372:Lib/soes/src/esc_foe.c ****    else if (FOEvar.foestate != FOE_WAIT_FOR_ACK)
 373:Lib/soes/src/esc_foe.c ****    {
 374:Lib/soes/src/esc_foe.c ****       FOE_abort (FOE_ERR_ILLEGAL);
 375:Lib/soes/src/esc_foe.c ****       return;
 376:Lib/soes/src/esc_foe.c ****    }
 377:Lib/soes/src/esc_foe.c ****    res = FOE_send_data_packet ();
 378:Lib/soes/src/esc_foe.c ****    if (res < ESC_FOE_DATA_SIZE)
 379:Lib/soes/src/esc_foe.c ****    {
 380:Lib/soes/src/esc_foe.c ****       FOEvar.foestate = FOE_WAIT_FOR_FINAL_ACK;
 381:Lib/soes/src/esc_foe.c ****    }
 382:Lib/soes/src/esc_foe.c ****    else if (res >= FOE_ERR_NOTDEFINED)
 383:Lib/soes/src/esc_foe.c ****    {
 384:Lib/soes/src/esc_foe.c ****       FOE_abort (FOE_ERR_PROGERROR);
 385:Lib/soes/src/esc_foe.c ****    }
 386:Lib/soes/src/esc_foe.c **** }
 387:Lib/soes/src/esc_foe.c **** #endif
 388:Lib/soes/src/esc_foe.c **** 
 389:Lib/soes/src/esc_foe.c **** /** FoE write request handler. Starts with Initialize, Open and Ack that we can/will
 390:Lib/soes/src/esc_foe.c ****  * receive data. On error we will send FOE Abort.
 391:Lib/soes/src/esc_foe.c ****  *
 392:Lib/soes/src/esc_foe.c ****  */
 393:Lib/soes/src/esc_foe.c **** static void FOE_write ()
 394:Lib/soes/src/esc_foe.c **** {
 395:Lib/soes/src/esc_foe.c ****    _FOE *foembx;
 396:Lib/soes/src/esc_foe.c ****    uint32_t password;
 397:Lib/soes/src/esc_foe.c ****    uint32_t res;
 398:Lib/soes/src/esc_foe.c ****    uint8_t data_len;
 399:Lib/soes/src/esc_foe.c **** 
 400:Lib/soes/src/esc_foe.c ****    if (FOEvar.foestate != FOE_READY)
 401:Lib/soes/src/esc_foe.c ****    {
 402:Lib/soes/src/esc_foe.c ****       FOE_abort (FOE_ERR_ILLEGAL);
 403:Lib/soes/src/esc_foe.c ****       return;
ARM GAS  /tmp/ccc92rV8.s 			page 22


 404:Lib/soes/src/esc_foe.c ****    }
 405:Lib/soes/src/esc_foe.c **** 
 406:Lib/soes/src/esc_foe.c ****    FOE_init ();
 407:Lib/soes/src/esc_foe.c ****    foembx = (_FOE *) &MBX[0];
 408:Lib/soes/src/esc_foe.c ****    data_len = (uint8_t)(etohs (foembx->mbxheader.length) - ESC_FOEHSIZE);
 409:Lib/soes/src/esc_foe.c ****    password = etohl (foembx->foeheader.password);
 410:Lib/soes/src/esc_foe.c **** 
 411:Lib/soes/src/esc_foe.c ****    /* Get an address we can write the file to, if possible. */
 412:Lib/soes/src/esc_foe.c ****    res = FOE_fopen (foembx->filename, data_len, password, FOE_OP_WRQ);
 413:Lib/soes/src/esc_foe.c ****    DPRINT("%s %sOK, file \"%s\"\n", __func__, (res == 0) ? "" : "N", foe_file_name);
 414:Lib/soes/src/esc_foe.c ****    if (res == 0)
 415:Lib/soes/src/esc_foe.c ****    {
 416:Lib/soes/src/esc_foe.c ****       res = FOE_send_ack ();
 417:Lib/soes/src/esc_foe.c ****       if (res)
 418:Lib/soes/src/esc_foe.c ****       {
 419:Lib/soes/src/esc_foe.c ****          FOE_abort (res);
 420:Lib/soes/src/esc_foe.c ****       }
 421:Lib/soes/src/esc_foe.c ****       else
 422:Lib/soes/src/esc_foe.c ****       {
 423:Lib/soes/src/esc_foe.c ****          FOEvar.foestate = FOE_WAIT_FOR_DATA;
 424:Lib/soes/src/esc_foe.c ****       }
 425:Lib/soes/src/esc_foe.c ****    }
 426:Lib/soes/src/esc_foe.c ****    else
 427:Lib/soes/src/esc_foe.c ****    {
 428:Lib/soes/src/esc_foe.c ****       FOE_abort (res);
 429:Lib/soes/src/esc_foe.c ****    }
 430:Lib/soes/src/esc_foe.c **** }
 431:Lib/soes/src/esc_foe.c **** /** FoE data request handler. Validates and reads data until we're finished. Every
 432:Lib/soes/src/esc_foe.c ****  * read frame followed by an Ack frame. On error we will send FOE Abort.
 433:Lib/soes/src/esc_foe.c ****  *
 434:Lib/soes/src/esc_foe.c ****  */
 435:Lib/soes/src/esc_foe.c **** static void FOE_data ()
 436:Lib/soes/src/esc_foe.c **** {
 437:Lib/soes/src/esc_foe.c ****    _FOE *foembx;
 438:Lib/soes/src/esc_foe.c ****    uint32_t packet;
 439:Lib/soes/src/esc_foe.c ****    uint32_t data_len, ncopied;
 440:Lib/soes/src/esc_foe.c ****    uint32_t res;
 441:Lib/soes/src/esc_foe.c **** 
 442:Lib/soes/src/esc_foe.c ****    if(FOEvar.foestate != FOE_WAIT_FOR_DATA)
 443:Lib/soes/src/esc_foe.c ****    {
 444:Lib/soes/src/esc_foe.c ****       FOE_abort(FOE_ERR_ILLEGAL);
 445:Lib/soes/src/esc_foe.c ****       return;
 446:Lib/soes/src/esc_foe.c ****    }
 447:Lib/soes/src/esc_foe.c **** 
 448:Lib/soes/src/esc_foe.c ****    foembx = (_FOE*)&MBX[0];
 449:Lib/soes/src/esc_foe.c ****    data_len = etohs(foembx->mbxheader.length) - ESC_FOEHSIZE;
 450:Lib/soes/src/esc_foe.c ****    packet = etohl(foembx->foeheader.packetnumber);
 451:Lib/soes/src/esc_foe.c **** 
 452:Lib/soes/src/esc_foe.c ****    if (packet != FOEvar.foepacket)
 453:Lib/soes/src/esc_foe.c ****    {
 454:Lib/soes/src/esc_foe.c ****       DPRINT("FOE_data packet error, packet: %"PRIu32", foeheader.packet: %"PRIu32"\n",
 455:Lib/soes/src/esc_foe.c ****             packet,
 456:Lib/soes/src/esc_foe.c ****             FOEvar.foepacket);
 457:Lib/soes/src/esc_foe.c ****       FOE_abort (FOE_ERR_PACKETNO);
 458:Lib/soes/src/esc_foe.c ****    }
 459:Lib/soes/src/esc_foe.c ****    else if (data_len == 0)
 460:Lib/soes/src/esc_foe.c ****    {
ARM GAS  /tmp/ccc92rV8.s 			page 23


 461:Lib/soes/src/esc_foe.c ****       DPRINT("FOE_data completed\n");
 462:Lib/soes/src/esc_foe.c ****       FOE_fclose ();
 463:Lib/soes/src/esc_foe.c ****       res = FOE_send_ack ();
 464:Lib/soes/src/esc_foe.c ****       FOE_init ();
 465:Lib/soes/src/esc_foe.c ****    }
 466:Lib/soes/src/esc_foe.c ****    else if (FOEvar.fposition + data_len > FOEvar.fend)
 467:Lib/soes/src/esc_foe.c ****    {
 468:Lib/soes/src/esc_foe.c ****       DPRINT("FOE_data disk full\n");
 469:Lib/soes/src/esc_foe.c ****       FOE_abort (FOE_ERR_DISKFULL);
 470:Lib/soes/src/esc_foe.c ****    }
 471:Lib/soes/src/esc_foe.c ****    else
 472:Lib/soes/src/esc_foe.c ****    {
 473:Lib/soes/src/esc_foe.c ****       ncopied = FOE_fwrite (foembx->data, data_len);
 474:Lib/soes/src/esc_foe.c ****       if (!ncopied)
 475:Lib/soes/src/esc_foe.c ****       {
 476:Lib/soes/src/esc_foe.c ****          DPRINT("FOE_data no copied\n");
 477:Lib/soes/src/esc_foe.c ****          FOE_abort (FOE_ERR_PROGERROR);
 478:Lib/soes/src/esc_foe.c ****       }
 479:Lib/soes/src/esc_foe.c ****       else if (data_len == ESC_FOE_DATA_SIZE)
 480:Lib/soes/src/esc_foe.c ****       {
 481:Lib/soes/src/esc_foe.c ****          DPRINT("FOE_data data_len == FOE_DATA_SIZE\n");
 482:Lib/soes/src/esc_foe.c ****          if (ncopied != data_len)
 483:Lib/soes/src/esc_foe.c ****          {
 484:Lib/soes/src/esc_foe.c ****             DPRINT("FOE_data only %"PRIu32" of %"PRIu32" copied\n",ncopied, data_len);
 485:Lib/soes/src/esc_foe.c ****             FOE_abort (FOE_ERR_PROGERROR);
 486:Lib/soes/src/esc_foe.c ****          }
 487:Lib/soes/src/esc_foe.c ****          res = FOE_send_ack ();
 488:Lib/soes/src/esc_foe.c ****          if (res)
 489:Lib/soes/src/esc_foe.c ****          {
 490:Lib/soes/src/esc_foe.c ****             FOE_abort (res);
 491:Lib/soes/src/esc_foe.c ****          }
 492:Lib/soes/src/esc_foe.c ****       }
 493:Lib/soes/src/esc_foe.c ****       else
 494:Lib/soes/src/esc_foe.c ****       {
 495:Lib/soes/src/esc_foe.c ****          if ((ncopied != data_len) || FOE_fclose ())
 496:Lib/soes/src/esc_foe.c ****          {
 497:Lib/soes/src/esc_foe.c ****             DPRINT("FOE_fclose failed to write extra buffer\n");
 498:Lib/soes/src/esc_foe.c ****             FOE_abort (FOE_ERR_PROGERROR);
 499:Lib/soes/src/esc_foe.c ****          }
 500:Lib/soes/src/esc_foe.c ****          else
 501:Lib/soes/src/esc_foe.c ****          {
 502:Lib/soes/src/esc_foe.c ****             DPRINT("FOE_data completed\n");
 503:Lib/soes/src/esc_foe.c ****             res = FOE_send_ack ();
 504:Lib/soes/src/esc_foe.c ****             FOE_init ();
 505:Lib/soes/src/esc_foe.c ****          }
 506:Lib/soes/src/esc_foe.c ****       }
 507:Lib/soes/src/esc_foe.c ****    }
 508:Lib/soes/src/esc_foe.c **** }
 509:Lib/soes/src/esc_foe.c **** 
 510:Lib/soes/src/esc_foe.c **** #ifdef FOE_READ_SUPPORTED
 511:Lib/soes/src/esc_foe.c **** /** FoE read request busy handler. Send an Ack of last frame again. On error
 512:Lib/soes/src/esc_foe.c ****  * we will send FOE Abort.
 513:Lib/soes/src/esc_foe.c ****  *
 514:Lib/soes/src/esc_foe.c ****  */
 515:Lib/soes/src/esc_foe.c **** static void FOE_busy ()
 516:Lib/soes/src/esc_foe.c **** {
 517:Lib/soes/src/esc_foe.c ****    /* Only valid if we're servicing a read request. */
ARM GAS  /tmp/ccc92rV8.s 			page 24


 518:Lib/soes/src/esc_foe.c ****    if (FOEvar.foestate != FOE_WAIT_FOR_ACK)
 519:Lib/soes/src/esc_foe.c ****    {
 520:Lib/soes/src/esc_foe.c ****       FOE_abort (FOE_ERR_ILLEGAL);
 521:Lib/soes/src/esc_foe.c ****    }
 522:Lib/soes/src/esc_foe.c ****    else
 523:Lib/soes/src/esc_foe.c ****    {
 524:Lib/soes/src/esc_foe.c ****       /* Send the last part again. */
 525:Lib/soes/src/esc_foe.c ****       FOEvar.fposition = FOEvar.fprevposition;
 526:Lib/soes/src/esc_foe.c ****       FOEvar.foepacket--;
 527:Lib/soes/src/esc_foe.c ****       FOE_ack ();
 528:Lib/soes/src/esc_foe.c ****    }
 529:Lib/soes/src/esc_foe.c **** }
 530:Lib/soes/src/esc_foe.c **** #endif
 531:Lib/soes/src/esc_foe.c **** 
 532:Lib/soes/src/esc_foe.c **** /** FoE error requesthandler. Send an FOE Abort.
 533:Lib/soes/src/esc_foe.c ****  *
 534:Lib/soes/src/esc_foe.c ****  */
 535:Lib/soes/src/esc_foe.c **** static void FOE_error ()
 536:Lib/soes/src/esc_foe.c **** {
 692              		.loc 1 536 1 is_stmt 1 view -0
 693              		.cfi_startproc
 694              		@ args = 0, pretend = 0, frame = 0
 695              		@ frame_needed = 0, uses_anonymous_args = 0
 696 0000 08B5     		push	{r3, lr}
 697              		.cfi_def_cfa_offset 8
 698              		.cfi_offset 3, -8
 699              		.cfi_offset 14, -4
 537:Lib/soes/src/esc_foe.c ****    /* Master panic! abort the transfer. */
 538:Lib/soes/src/esc_foe.c ****    FOE_abort (0);
 700              		.loc 1 538 4 view .LVU212
 701 0002 0020     		movs	r0, #0
 702 0004 FFF7FEFF 		bl	FOE_abort
 703              	.LVL38:
 539:Lib/soes/src/esc_foe.c **** }
 704              		.loc 1 539 1 is_stmt 0 view .LVU213
 705 0008 08BD     		pop	{r3, pc}
 706              		.cfi_endproc
 707              	.LFE8:
 709              		.section	.text.FOE_write,"ax",%progbits
 710              		.align	1
 711              		.syntax unified
 712              		.thumb
 713              		.thumb_func
 714              		.fpu fpv4-sp-d16
 716              	FOE_write:
 717              	.LFB6:
 394:Lib/soes/src/esc_foe.c ****    _FOE *foembx;
 718              		.loc 1 394 1 is_stmt 1 view -0
 719              		.cfi_startproc
 720              		@ args = 0, pretend = 0, frame = 0
 721              		@ frame_needed = 0, uses_anonymous_args = 0
 722 0000 08B5     		push	{r3, lr}
 723              		.cfi_def_cfa_offset 8
 724              		.cfi_offset 3, -8
 725              		.cfi_offset 14, -4
 395:Lib/soes/src/esc_foe.c ****    uint32_t password;
 726              		.loc 1 395 4 view .LVU215
ARM GAS  /tmp/ccc92rV8.s 			page 25


 396:Lib/soes/src/esc_foe.c ****    uint32_t res;
 727              		.loc 1 396 4 view .LVU216
 397:Lib/soes/src/esc_foe.c ****    uint8_t data_len;
 728              		.loc 1 397 4 view .LVU217
 398:Lib/soes/src/esc_foe.c **** 
 729              		.loc 1 398 4 view .LVU218
 400:Lib/soes/src/esc_foe.c ****    {
 730              		.loc 1 400 4 view .LVU219
 400:Lib/soes/src/esc_foe.c ****    {
 731              		.loc 1 400 14 is_stmt 0 view .LVU220
 732 0002 114B     		ldr	r3, .L58
 733 0004 1B78     		ldrb	r3, [r3]	@ zero_extendqisi2
 400:Lib/soes/src/esc_foe.c ****    {
 734              		.loc 1 400 7 view .LVU221
 735 0006 9BB9     		cbnz	r3, .L56
 406:Lib/soes/src/esc_foe.c ****    foembx = (_FOE *) &MBX[0];
 736              		.loc 1 406 4 is_stmt 1 view .LVU222
 737 0008 FFF7FEFF 		bl	FOE_init
 738              	.LVL39:
 407:Lib/soes/src/esc_foe.c ****    data_len = (uint8_t)(etohs (foembx->mbxheader.length) - ESC_FOEHSIZE);
 739              		.loc 1 407 4 view .LVU223
 408:Lib/soes/src/esc_foe.c ****    password = etohl (foembx->foeheader.password);
 740              		.loc 1 408 4 view .LVU224
 408:Lib/soes/src/esc_foe.c ****    password = etohl (foembx->foeheader.password);
 741              		.loc 1 408 25 is_stmt 0 view .LVU225
 742 000c 0F48     		ldr	r0, .L58+4
 743 000e 0188     		ldrh	r1, [r0]	@ unaligned
 408:Lib/soes/src/esc_foe.c ****    password = etohl (foembx->foeheader.password);
 744              		.loc 1 408 15 view .LVU226
 745 0010 C9B2     		uxtb	r1, r1
 408:Lib/soes/src/esc_foe.c ****    password = etohl (foembx->foeheader.password);
 746              		.loc 1 408 13 view .LVU227
 747 0012 0639     		subs	r1, r1, #6
 748              	.LVL40:
 409:Lib/soes/src/esc_foe.c **** 
 749              		.loc 1 409 4 is_stmt 1 view .LVU228
 412:Lib/soes/src/esc_foe.c ****    DPRINT("%s %sOK, file \"%s\"\n", __func__, (res == 0) ? "" : "N", foe_file_name);
 750              		.loc 1 412 4 view .LVU229
 412:Lib/soes/src/esc_foe.c ****    DPRINT("%s %sOK, file \"%s\"\n", __func__, (res == 0) ? "" : "N", foe_file_name);
 751              		.loc 1 412 10 is_stmt 0 view .LVU230
 752 0014 0223     		movs	r3, #2
 753 0016 8268     		ldr	r2, [r0, #8]	@ unaligned
 754              	.LVL41:
 412:Lib/soes/src/esc_foe.c ****    DPRINT("%s %sOK, file \"%s\"\n", __func__, (res == 0) ? "" : "N", foe_file_name);
 755              		.loc 1 412 10 view .LVU231
 756 0018 C9B2     		uxtb	r1, r1
 412:Lib/soes/src/esc_foe.c ****    DPRINT("%s %sOK, file \"%s\"\n", __func__, (res == 0) ? "" : "N", foe_file_name);
 757              		.loc 1 412 10 view .LVU232
 758 001a 0C30     		adds	r0, r0, #12
 759 001c FFF7FEFF 		bl	FOE_fopen
 760              	.LVL42:
 413:Lib/soes/src/esc_foe.c ****    if (res == 0)
 761              		.loc 1 413 84 is_stmt 1 view .LVU233
 414:Lib/soes/src/esc_foe.c ****    {
 762              		.loc 1 414 4 view .LVU234
 414:Lib/soes/src/esc_foe.c ****    {
 763              		.loc 1 414 7 is_stmt 0 view .LVU235
ARM GAS  /tmp/ccc92rV8.s 			page 26


 764 0020 70B9     		cbnz	r0, .L53
 416:Lib/soes/src/esc_foe.c ****       if (res)
 765              		.loc 1 416 7 is_stmt 1 view .LVU236
 416:Lib/soes/src/esc_foe.c ****       if (res)
 766              		.loc 1 416 13 is_stmt 0 view .LVU237
 767 0022 FFF7FEFF 		bl	FOE_send_ack
 768              	.LVL43:
 417:Lib/soes/src/esc_foe.c ****       {
 769              		.loc 1 417 7 is_stmt 1 view .LVU238
 417:Lib/soes/src/esc_foe.c ****       {
 770              		.loc 1 417 10 is_stmt 0 view .LVU239
 771 0026 40B9     		cbnz	r0, .L57
 423:Lib/soes/src/esc_foe.c ****       }
 772              		.loc 1 423 10 is_stmt 1 view .LVU240
 423:Lib/soes/src/esc_foe.c ****       }
 773              		.loc 1 423 26 is_stmt 0 view .LVU241
 774 0028 074B     		ldr	r3, .L58
 775 002a 0322     		movs	r2, #3
 776 002c 1A70     		strb	r2, [r3]
 777 002e 03E0     		b	.L50
 778              	.LVL44:
 779              	.L56:
 402:Lib/soes/src/esc_foe.c ****       return;
 780              		.loc 1 402 7 is_stmt 1 view .LVU242
 781 0030 48F20400 		movw	r0, #32772
 782 0034 FFF7FEFF 		bl	FOE_abort
 783              	.LVL45:
 403:Lib/soes/src/esc_foe.c ****    }
 784              		.loc 1 403 7 view .LVU243
 785              	.L50:
 430:Lib/soes/src/esc_foe.c **** /** FoE data request handler. Validates and reads data until we're finished. Every
 786              		.loc 1 430 1 is_stmt 0 view .LVU244
 787 0038 08BD     		pop	{r3, pc}
 788              	.LVL46:
 789              	.L57:
 419:Lib/soes/src/esc_foe.c ****       }
 790              		.loc 1 419 10 is_stmt 1 view .LVU245
 791 003a FFF7FEFF 		bl	FOE_abort
 792              	.LVL47:
 419:Lib/soes/src/esc_foe.c ****       }
 793              		.loc 1 419 10 is_stmt 0 view .LVU246
 794 003e FBE7     		b	.L50
 795              	.LVL48:
 796              	.L53:
 428:Lib/soes/src/esc_foe.c ****    }
 797              		.loc 1 428 7 is_stmt 1 view .LVU247
 798 0040 FFF7FEFF 		bl	FOE_abort
 799              	.LVL49:
 428:Lib/soes/src/esc_foe.c ****    }
 800              		.loc 1 428 7 is_stmt 0 view .LVU248
 801 0044 F8E7     		b	.L50
 802              	.L59:
 803 0046 00BF     		.align	2
 804              	.L58:
 805 0048 00000000 		.word	.LANCHOR0
 806 004c 00000000 		.word	MBX
 807              		.cfi_endproc
ARM GAS  /tmp/ccc92rV8.s 			page 27


 808              	.LFE6:
 810              		.section	.text.FOE_data,"ax",%progbits
 811              		.align	1
 812              		.syntax unified
 813              		.thumb
 814              		.thumb_func
 815              		.fpu fpv4-sp-d16
 817              	FOE_data:
 818              	.LFB7:
 436:Lib/soes/src/esc_foe.c ****    _FOE *foembx;
 819              		.loc 1 436 1 is_stmt 1 view -0
 820              		.cfi_startproc
 821              		@ args = 0, pretend = 0, frame = 0
 822              		@ frame_needed = 0, uses_anonymous_args = 0
 823 0000 10B5     		push	{r4, lr}
 824              		.cfi_def_cfa_offset 8
 825              		.cfi_offset 4, -8
 826              		.cfi_offset 14, -4
 437:Lib/soes/src/esc_foe.c ****    uint32_t packet;
 827              		.loc 1 437 4 view .LVU250
 438:Lib/soes/src/esc_foe.c ****    uint32_t data_len, ncopied;
 828              		.loc 1 438 4 view .LVU251
 439:Lib/soes/src/esc_foe.c ****    uint32_t res;
 829              		.loc 1 439 4 view .LVU252
 440:Lib/soes/src/esc_foe.c **** 
 830              		.loc 1 440 4 view .LVU253
 442:Lib/soes/src/esc_foe.c ****    {
 831              		.loc 1 442 4 view .LVU254
 442:Lib/soes/src/esc_foe.c ****    {
 832              		.loc 1 442 13 is_stmt 0 view .LVU255
 833 0002 2C4B     		ldr	r3, .L79
 834 0004 1B78     		ldrb	r3, [r3]	@ zero_extendqisi2
 442:Lib/soes/src/esc_foe.c ****    {
 835              		.loc 1 442 6 view .LVU256
 836 0006 032B     		cmp	r3, #3
 837 0008 16D1     		bne	.L72
 448:Lib/soes/src/esc_foe.c ****    data_len = etohs(foembx->mbxheader.length) - ESC_FOEHSIZE;
 838              		.loc 1 448 4 is_stmt 1 view .LVU257
 839              	.LVL50:
 449:Lib/soes/src/esc_foe.c ****    packet = etohl(foembx->foeheader.packetnumber);
 840              		.loc 1 449 4 view .LVU258
 449:Lib/soes/src/esc_foe.c ****    packet = etohl(foembx->foeheader.packetnumber);
 841              		.loc 1 449 15 is_stmt 0 view .LVU259
 842 000a 2B4B     		ldr	r3, .L79+4
 843 000c 1C88     		ldrh	r4, [r3]	@ unaligned
 449:Lib/soes/src/esc_foe.c ****    packet = etohl(foembx->foeheader.packetnumber);
 844              		.loc 1 449 13 view .LVU260
 845 000e 063C     		subs	r4, r4, #6
 846              	.LVL51:
 450:Lib/soes/src/esc_foe.c **** 
 847              		.loc 1 450 4 is_stmt 1 view .LVU261
 450:Lib/soes/src/esc_foe.c **** 
 848              		.loc 1 450 11 is_stmt 0 view .LVU262
 849 0010 9B68     		ldr	r3, [r3, #8]	@ unaligned
 850              	.LVL52:
 452:Lib/soes/src/esc_foe.c ****    {
 851              		.loc 1 452 4 is_stmt 1 view .LVU263
ARM GAS  /tmp/ccc92rV8.s 			page 28


 452:Lib/soes/src/esc_foe.c ****    {
 852              		.loc 1 452 24 is_stmt 0 view .LVU264
 853 0012 284A     		ldr	r2, .L79
 854 0014 D2F80320 		ldr	r2, [r2, #3]	@ unaligned
 452:Lib/soes/src/esc_foe.c ****    {
 855              		.loc 1 452 7 view .LVU265
 856 0018 9A42     		cmp	r2, r3
 857 001a 12D1     		bne	.L73
 459:Lib/soes/src/esc_foe.c ****    {
 858              		.loc 1 459 9 is_stmt 1 view .LVU266
 459:Lib/soes/src/esc_foe.c ****    {
 859              		.loc 1 459 12 is_stmt 0 view .LVU267
 860 001c B4B1     		cbz	r4, .L74
 466:Lib/soes/src/esc_foe.c ****    {
 861              		.loc 1 466 9 is_stmt 1 view .LVU268
 466:Lib/soes/src/esc_foe.c ****    {
 862              		.loc 1 466 19 is_stmt 0 view .LVU269
 863 001e 254A     		ldr	r2, .L79
 864 0020 D2F80730 		ldr	r3, [r2, #7]	@ unaligned
 865              	.LVL53:
 466:Lib/soes/src/esc_foe.c ****    {
 866              		.loc 1 466 30 view .LVU270
 867 0024 2344     		add	r3, r3, r4
 466:Lib/soes/src/esc_foe.c ****    {
 868              		.loc 1 466 49 view .LVU271
 869 0026 D2F80F20 		ldr	r2, [r2, #15]	@ unaligned
 466:Lib/soes/src/esc_foe.c ****    {
 870              		.loc 1 466 12 view .LVU272
 871 002a 9342     		cmp	r3, r2
 872 002c 15D9     		bls	.L65
 468:Lib/soes/src/esc_foe.c ****       FOE_abort (FOE_ERR_DISKFULL);
 873              		.loc 1 468 37 is_stmt 1 view .LVU273
 469:Lib/soes/src/esc_foe.c ****    }
 874              		.loc 1 469 7 view .LVU274
 875 002e 48F20300 		movw	r0, #32771
 876 0032 FFF7FEFF 		bl	FOE_abort
 877              	.LVL54:
 469:Lib/soes/src/esc_foe.c ****    }
 878              		.loc 1 469 7 is_stmt 0 view .LVU275
 879 0036 03E0     		b	.L60
 880              	.LVL55:
 881              	.L72:
 444:Lib/soes/src/esc_foe.c ****       return;
 882              		.loc 1 444 7 is_stmt 1 view .LVU276
 883 0038 48F20400 		movw	r0, #32772
 884 003c FFF7FEFF 		bl	FOE_abort
 885              	.LVL56:
 445:Lib/soes/src/esc_foe.c ****    }
 886              		.loc 1 445 7 view .LVU277
 887              	.L60:
 508:Lib/soes/src/esc_foe.c **** 
 888              		.loc 1 508 1 is_stmt 0 view .LVU278
 889 0040 10BD     		pop	{r4, pc}
 890              	.LVL57:
 891              	.L73:
 456:Lib/soes/src/esc_foe.c ****       FOE_abort (FOE_ERR_PACKETNO);
 892              		.loc 1 456 30 is_stmt 1 view .LVU279
ARM GAS  /tmp/ccc92rV8.s 			page 29


 457:Lib/soes/src/esc_foe.c ****    }
 893              		.loc 1 457 7 view .LVU280
 894 0042 48F20500 		movw	r0, #32773
 895 0046 FFF7FEFF 		bl	FOE_abort
 896              	.LVL58:
 457:Lib/soes/src/esc_foe.c ****    }
 897              		.loc 1 457 7 is_stmt 0 view .LVU281
 898 004a F9E7     		b	.L60
 899              	.LVL59:
 900              	.L74:
 461:Lib/soes/src/esc_foe.c ****       FOE_fclose ();
 901              		.loc 1 461 37 is_stmt 1 view .LVU282
 462:Lib/soes/src/esc_foe.c ****       res = FOE_send_ack ();
 902              		.loc 1 462 7 view .LVU283
 903 004c FFF7FEFF 		bl	FOE_fclose
 904              	.LVL60:
 463:Lib/soes/src/esc_foe.c ****       FOE_init ();
 905              		.loc 1 463 7 view .LVU284
 463:Lib/soes/src/esc_foe.c ****       FOE_init ();
 906              		.loc 1 463 13 is_stmt 0 view .LVU285
 907 0050 FFF7FEFF 		bl	FOE_send_ack
 908              	.LVL61:
 464:Lib/soes/src/esc_foe.c ****    }
 909              		.loc 1 464 7 is_stmt 1 view .LVU286
 910 0054 FFF7FEFF 		bl	FOE_init
 911              	.LVL62:
 912 0058 F2E7     		b	.L60
 913              	.LVL63:
 914              	.L65:
 473:Lib/soes/src/esc_foe.c ****       if (!ncopied)
 915              		.loc 1 473 7 view .LVU287
 473:Lib/soes/src/esc_foe.c ****       if (!ncopied)
 916              		.loc 1 473 17 is_stmt 0 view .LVU288
 917 005a 2146     		mov	r1, r4
 918 005c 1748     		ldr	r0, .L79+8
 919 005e FFF7FEFF 		bl	FOE_fwrite
 920              	.LVL64:
 474:Lib/soes/src/esc_foe.c ****       {
 921              		.loc 1 474 7 is_stmt 1 view .LVU289
 474:Lib/soes/src/esc_foe.c ****       {
 922              		.loc 1 474 10 is_stmt 0 view .LVU290
 923 0062 58B1     		cbz	r0, .L75
 479:Lib/soes/src/esc_foe.c ****       {
 924              		.loc 1 479 12 is_stmt 1 view .LVU291
 479:Lib/soes/src/esc_foe.c ****       {
 925              		.loc 1 479 28 is_stmt 0 view .LVU292
 926 0064 164B     		ldr	r3, .L79+12
 927 0066 DB6E     		ldr	r3, [r3, #108]
 928 0068 0C3B     		subs	r3, r3, #12
 479:Lib/soes/src/esc_foe.c ****       {
 929              		.loc 1 479 15 view .LVU293
 930 006a A342     		cmp	r3, r4
 931 006c 0BD0     		beq	.L76
 495:Lib/soes/src/esc_foe.c ****          {
 932              		.loc 1 495 10 is_stmt 1 view .LVU294
 495:Lib/soes/src/esc_foe.c ****          {
 933              		.loc 1 495 13 is_stmt 0 view .LVU295
ARM GAS  /tmp/ccc92rV8.s 			page 30


 934 006e 8442     		cmp	r4, r0
 935 0070 17D0     		beq	.L77
 936              	.LVL65:
 937              	.L69:
 497:Lib/soes/src/esc_foe.c ****             FOE_abort (FOE_ERR_PROGERROR);
 938              		.loc 1 497 64 is_stmt 1 view .LVU296
 498:Lib/soes/src/esc_foe.c ****          }
 939              		.loc 1 498 13 view .LVU297
 940 0072 48F20B00 		movw	r0, #32779
 941 0076 FFF7FEFF 		bl	FOE_abort
 942              	.LVL66:
 943 007a E1E7     		b	.L60
 944              	.LVL67:
 945              	.L75:
 476:Lib/soes/src/esc_foe.c ****          FOE_abort (FOE_ERR_PROGERROR);
 946              		.loc 1 476 40 view .LVU298
 477:Lib/soes/src/esc_foe.c ****       }
 947              		.loc 1 477 10 view .LVU299
 948 007c 48F20B00 		movw	r0, #32779
 949              	.LVL68:
 477:Lib/soes/src/esc_foe.c ****       }
 950              		.loc 1 477 10 is_stmt 0 view .LVU300
 951 0080 FFF7FEFF 		bl	FOE_abort
 952              	.LVL69:
 953 0084 DCE7     		b	.L60
 954              	.LVL70:
 955              	.L76:
 481:Lib/soes/src/esc_foe.c ****          if (ncopied != data_len)
 956              		.loc 1 481 56 is_stmt 1 view .LVU301
 482:Lib/soes/src/esc_foe.c ****          {
 957              		.loc 1 482 10 view .LVU302
 482:Lib/soes/src/esc_foe.c ****          {
 958              		.loc 1 482 13 is_stmt 0 view .LVU303
 959 0086 8442     		cmp	r4, r0
 960 0088 06D1     		bne	.L78
 961              	.LVL71:
 962              	.L68:
 487:Lib/soes/src/esc_foe.c ****          if (res)
 963              		.loc 1 487 10 is_stmt 1 view .LVU304
 487:Lib/soes/src/esc_foe.c ****          if (res)
 964              		.loc 1 487 16 is_stmt 0 view .LVU305
 965 008a FFF7FEFF 		bl	FOE_send_ack
 966              	.LVL72:
 488:Lib/soes/src/esc_foe.c ****          {
 967              		.loc 1 488 10 is_stmt 1 view .LVU306
 488:Lib/soes/src/esc_foe.c ****          {
 968              		.loc 1 488 13 is_stmt 0 view .LVU307
 969 008e 0028     		cmp	r0, #0
 970 0090 D6D0     		beq	.L60
 490:Lib/soes/src/esc_foe.c ****          }
 971              		.loc 1 490 13 is_stmt 1 view .LVU308
 972 0092 FFF7FEFF 		bl	FOE_abort
 973              	.LVL73:
 490:Lib/soes/src/esc_foe.c ****          }
 974              		.loc 1 490 13 is_stmt 0 view .LVU309
 975 0096 D3E7     		b	.L60
 976              	.LVL74:
ARM GAS  /tmp/ccc92rV8.s 			page 31


 977              	.L78:
 484:Lib/soes/src/esc_foe.c ****             FOE_abort (FOE_ERR_PROGERROR);
 978              		.loc 1 484 86 is_stmt 1 view .LVU310
 485:Lib/soes/src/esc_foe.c ****          }
 979              		.loc 1 485 13 view .LVU311
 980 0098 48F20B00 		movw	r0, #32779
 981              	.LVL75:
 485:Lib/soes/src/esc_foe.c ****          }
 982              		.loc 1 485 13 is_stmt 0 view .LVU312
 983 009c FFF7FEFF 		bl	FOE_abort
 984              	.LVL76:
 985 00a0 F3E7     		b	.L68
 986              	.LVL77:
 987              	.L77:
 495:Lib/soes/src/esc_foe.c ****          {
 988              		.loc 1 495 39 discriminator 1 view .LVU313
 989 00a2 FFF7FEFF 		bl	FOE_fclose
 990              	.LVL78:
 495:Lib/soes/src/esc_foe.c ****          {
 991              		.loc 1 495 36 discriminator 1 view .LVU314
 992 00a6 0028     		cmp	r0, #0
 993 00a8 E3D1     		bne	.L69
 502:Lib/soes/src/esc_foe.c ****             res = FOE_send_ack ();
 994              		.loc 1 502 43 is_stmt 1 view .LVU315
 503:Lib/soes/src/esc_foe.c ****             FOE_init ();
 995              		.loc 1 503 13 view .LVU316
 503:Lib/soes/src/esc_foe.c ****             FOE_init ();
 996              		.loc 1 503 19 is_stmt 0 view .LVU317
 997 00aa FFF7FEFF 		bl	FOE_send_ack
 998              	.LVL79:
 504:Lib/soes/src/esc_foe.c ****          }
 999              		.loc 1 504 13 is_stmt 1 view .LVU318
 1000 00ae FFF7FEFF 		bl	FOE_init
 1001              	.LVL80:
 1002 00b2 C5E7     		b	.L60
 1003              	.L80:
 1004              		.align	2
 1005              	.L79:
 1006 00b4 00000000 		.word	.LANCHOR0
 1007 00b8 00000000 		.word	MBX
 1008 00bc 0C000000 		.word	MBX+12
 1009 00c0 00000000 		.word	ESCvar
 1010              		.cfi_endproc
 1011              	.LFE7:
 1013              		.section	.text.FOE_config,"ax",%progbits
 1014              		.align	1
 1015              		.global	FOE_config
 1016              		.syntax unified
 1017              		.thumb
 1018              		.thumb_func
 1019              		.fpu fpv4-sp-d16
 1021              	FOE_config:
 1022              	.LVL81:
 1023              	.LFB9:
 540:Lib/soes/src/esc_foe.c **** 
 541:Lib/soes/src/esc_foe.c **** /** Function copying the application configuration variable
 542:Lib/soes/src/esc_foe.c ****  * to the FoE module local pointer variable.
ARM GAS  /tmp/ccc92rV8.s 			page 32


 543:Lib/soes/src/esc_foe.c ****  *
 544:Lib/soes/src/esc_foe.c ****  * @param[in] cfg       = Pointer to by the Application static declared
 545:Lib/soes/src/esc_foe.c ****  * configuration variable holding application specific details.
 546:Lib/soes/src/esc_foe.c ****  */
 547:Lib/soes/src/esc_foe.c **** void FOE_config (foe_cfg_t * cfg)
 548:Lib/soes/src/esc_foe.c **** {
 1024              		.loc 1 548 1 view -0
 1025              		.cfi_startproc
 1026              		@ args = 0, pretend = 0, frame = 0
 1027              		@ frame_needed = 0, uses_anonymous_args = 0
 1028              		@ link register save eliminated.
 549:Lib/soes/src/esc_foe.c ****    foe_cfg = cfg;
 1029              		.loc 1 549 4 view .LVU320
 1030              		.loc 1 549 12 is_stmt 0 view .LVU321
 1031 0000 014B     		ldr	r3, .L82
 1032 0002 1860     		str	r0, [r3]
 550:Lib/soes/src/esc_foe.c **** }
 1033              		.loc 1 550 1 view .LVU322
 1034 0004 7047     		bx	lr
 1035              	.L83:
 1036 0006 00BF     		.align	2
 1037              	.L82:
 1038 0008 00000000 		.word	.LANCHOR1
 1039              		.cfi_endproc
 1040              	.LFE9:
 1042              		.section	.text.ESC_foeprocess,"ax",%progbits
 1043              		.align	1
 1044              		.global	ESC_foeprocess
 1045              		.syntax unified
 1046              		.thumb
 1047              		.thumb_func
 1048              		.fpu fpv4-sp-d16
 1050              	ESC_foeprocess:
 1051              	.LFB10:
 551:Lib/soes/src/esc_foe.c **** 
 552:Lib/soes/src/esc_foe.c **** /** Main FoE function checking the status on current mailbox buffers carrying
 553:Lib/soes/src/esc_foe.c ****  * data, distributing the mailboxes to appropriate FOE functions depending
 554:Lib/soes/src/esc_foe.c ****  * on requested opcode.
 555:Lib/soes/src/esc_foe.c ****  * On Error an FoE Error or FoE Abort will be sent.
 556:Lib/soes/src/esc_foe.c ****  */
 557:Lib/soes/src/esc_foe.c **** void ESC_foeprocess (void)
 558:Lib/soes/src/esc_foe.c **** {
 1052              		.loc 1 558 1 is_stmt 1 view -0
 1053              		.cfi_startproc
 1054              		@ args = 0, pretend = 0, frame = 0
 1055              		@ frame_needed = 0, uses_anonymous_args = 0
 1056 0000 08B5     		push	{r3, lr}
 1057              		.cfi_def_cfa_offset 8
 1058              		.cfi_offset 3, -8
 1059              		.cfi_offset 14, -4
 559:Lib/soes/src/esc_foe.c ****    _MBXh *mbh;
 1060              		.loc 1 559 4 view .LVU324
 560:Lib/soes/src/esc_foe.c ****    _FOE *foembx;
 1061              		.loc 1 560 4 view .LVU325
 561:Lib/soes/src/esc_foe.c **** 
 562:Lib/soes/src/esc_foe.c ****    if (ESCvar.MBXrun == 0)
 1062              		.loc 1 562 4 view .LVU326
ARM GAS  /tmp/ccc92rV8.s 			page 33


 1063              		.loc 1 562 14 is_stmt 0 view .LVU327
 1064 0002 204B     		ldr	r3, .L97
 1065 0004 93F86830 		ldrb	r3, [r3, #104]	@ zero_extendqisi2
 1066              		.loc 1 562 7 view .LVU328
 1067 0008 63B1     		cbz	r3, .L84
 563:Lib/soes/src/esc_foe.c ****    {
 564:Lib/soes/src/esc_foe.c ****       return;
 565:Lib/soes/src/esc_foe.c ****    }
 566:Lib/soes/src/esc_foe.c ****    if (!ESCvar.xoe && (MBXcontrol[0].state == MBXstate_inclaim))
 1068              		.loc 1 566 4 is_stmt 1 view .LVU329
 1069              		.loc 1 566 15 is_stmt 0 view .LVU330
 1070 000a 1E4B     		ldr	r3, .L97
 1071 000c 93F88E30 		ldrb	r3, [r3, #142]	@ zero_extendqisi2
 1072              		.loc 1 566 7 view .LVU331
 1073 0010 1BB9     		cbnz	r3, .L86
 1074              		.loc 1 566 37 discriminator 1 view .LVU332
 1075 0012 1D4B     		ldr	r3, .L97+4
 1076 0014 1B78     		ldrb	r3, [r3]	@ zero_extendqisi2
 1077              		.loc 1 566 20 discriminator 1 view .LVU333
 1078 0016 012B     		cmp	r3, #1
 1079 0018 05D0     		beq	.L93
 1080              	.L86:
 567:Lib/soes/src/esc_foe.c ****    {
 568:Lib/soes/src/esc_foe.c ****       mbh = (_MBXh *) &MBX[0];
 569:Lib/soes/src/esc_foe.c ****       if (mbh->mbxtype == MBXFOE)
 570:Lib/soes/src/esc_foe.c ****       {
 571:Lib/soes/src/esc_foe.c ****          ESCvar.xoe = MBXFOE;
 572:Lib/soes/src/esc_foe.c ****       }
 573:Lib/soes/src/esc_foe.c ****    }
 574:Lib/soes/src/esc_foe.c ****    if (ESCvar.xoe == MBXFOE)
 1081              		.loc 1 574 4 is_stmt 1 view .LVU334
 1082              		.loc 1 574 14 is_stmt 0 view .LVU335
 1083 001a 1A4B     		ldr	r3, .L97
 1084 001c 93F88E30 		ldrb	r3, [r3, #142]	@ zero_extendqisi2
 1085              		.loc 1 574 7 view .LVU336
 1086 0020 042B     		cmp	r3, #4
 1087 0022 0BD0     		beq	.L94
 1088              	.L84:
 575:Lib/soes/src/esc_foe.c ****    {
 576:Lib/soes/src/esc_foe.c ****       foembx = (_FOE *) &MBX[0];
 577:Lib/soes/src/esc_foe.c ****       /* Verify the size of the file data. */
 578:Lib/soes/src/esc_foe.c ****       if (etohs (foembx->mbxheader.length) < ESC_FOEHSIZE)
 579:Lib/soes/src/esc_foe.c ****       {
 580:Lib/soes/src/esc_foe.c ****          FOE_abort (MBXERR_SIZETOOSHORT);
 581:Lib/soes/src/esc_foe.c ****       }
 582:Lib/soes/src/esc_foe.c ****       else
 583:Lib/soes/src/esc_foe.c ****       {
 584:Lib/soes/src/esc_foe.c ****          switch (foembx->foeheader.opcode)
 585:Lib/soes/src/esc_foe.c ****          {
 586:Lib/soes/src/esc_foe.c ****             case FOE_OP_WRQ:
 587:Lib/soes/src/esc_foe.c ****             {
 588:Lib/soes/src/esc_foe.c ****                DPRINT("FOE_OP_WRQ\n");
 589:Lib/soes/src/esc_foe.c ****                FOE_write ();
 590:Lib/soes/src/esc_foe.c ****                break;
 591:Lib/soes/src/esc_foe.c ****             }
 592:Lib/soes/src/esc_foe.c ****             case FOE_OP_DATA:
 593:Lib/soes/src/esc_foe.c ****             {
ARM GAS  /tmp/ccc92rV8.s 			page 34


 594:Lib/soes/src/esc_foe.c ****                DPRINT("FOE_OP_DATA\n");
 595:Lib/soes/src/esc_foe.c ****                FOE_data ();
 596:Lib/soes/src/esc_foe.c ****                break;
 597:Lib/soes/src/esc_foe.c ****             }
 598:Lib/soes/src/esc_foe.c **** #ifdef FOE_READ_SUPPORTED
 599:Lib/soes/src/esc_foe.c ****             case FOE_OP_RRQ:
 600:Lib/soes/src/esc_foe.c ****             {
 601:Lib/soes/src/esc_foe.c ****                DPRINT("FOE_OP_RRQ\n");
 602:Lib/soes/src/esc_foe.c ****                FOE_read ();
 603:Lib/soes/src/esc_foe.c ****                break;
 604:Lib/soes/src/esc_foe.c ****             }
 605:Lib/soes/src/esc_foe.c ****             case FOE_OP_ACK:
 606:Lib/soes/src/esc_foe.c ****             {
 607:Lib/soes/src/esc_foe.c ****                DPRINT("FOE_OP_ACK\n");
 608:Lib/soes/src/esc_foe.c ****                FOE_ack ();
 609:Lib/soes/src/esc_foe.c ****                break;
 610:Lib/soes/src/esc_foe.c ****             }
 611:Lib/soes/src/esc_foe.c **** 
 612:Lib/soes/src/esc_foe.c ****             case FOE_OP_BUSY:
 613:Lib/soes/src/esc_foe.c ****             {
 614:Lib/soes/src/esc_foe.c ****                DPRINT("FOE_OP_BUSY\n");
 615:Lib/soes/src/esc_foe.c ****                FOE_busy ();
 616:Lib/soes/src/esc_foe.c ****                break;
 617:Lib/soes/src/esc_foe.c ****             }
 618:Lib/soes/src/esc_foe.c **** #endif
 619:Lib/soes/src/esc_foe.c ****             case FOE_OP_ERR:
 620:Lib/soes/src/esc_foe.c ****             {
 621:Lib/soes/src/esc_foe.c ****                DPRINT("FOE_OP_ERR\n");
 622:Lib/soes/src/esc_foe.c ****                FOE_error ();
 623:Lib/soes/src/esc_foe.c ****                break;
 624:Lib/soes/src/esc_foe.c ****             }
 625:Lib/soes/src/esc_foe.c ****             default:
 626:Lib/soes/src/esc_foe.c ****             {
 627:Lib/soes/src/esc_foe.c ****                DPRINT("FOE_ERR_NOTDEFINED\n");
 628:Lib/soes/src/esc_foe.c ****                FOE_abort (FOE_ERR_NOTDEFINED);
 629:Lib/soes/src/esc_foe.c ****                break;
 630:Lib/soes/src/esc_foe.c ****             }
 631:Lib/soes/src/esc_foe.c ****          }
 632:Lib/soes/src/esc_foe.c ****       }
 633:Lib/soes/src/esc_foe.c ****       MBXcontrol[0].state = MBXstate_idle;
 634:Lib/soes/src/esc_foe.c ****       ESCvar.xoe = 0;
 635:Lib/soes/src/esc_foe.c ****    }
 636:Lib/soes/src/esc_foe.c **** }
 1089              		.loc 1 636 1 view .LVU337
 1090 0024 08BD     		pop	{r3, pc}
 1091              	.L93:
 568:Lib/soes/src/esc_foe.c ****       if (mbh->mbxtype == MBXFOE)
 1092              		.loc 1 568 7 is_stmt 1 view .LVU338
 1093              	.LVL82:
 569:Lib/soes/src/esc_foe.c ****       {
 1094              		.loc 1 569 7 view .LVU339
 569:Lib/soes/src/esc_foe.c ****       {
 1095              		.loc 1 569 24 is_stmt 0 view .LVU340
 1096 0026 194B     		ldr	r3, .L97+8
 1097 0028 5B79     		ldrb	r3, [r3, #5]	@ zero_extendqisi2
 1098 002a 03F00F03 		and	r3, r3, #15
 569:Lib/soes/src/esc_foe.c ****       {
ARM GAS  /tmp/ccc92rV8.s 			page 35


 1099              		.loc 1 569 10 view .LVU341
 1100 002e 042B     		cmp	r3, #4
 1101 0030 F3D1     		bne	.L86
 571:Lib/soes/src/esc_foe.c ****       }
 1102              		.loc 1 571 10 is_stmt 1 view .LVU342
 571:Lib/soes/src/esc_foe.c ****       }
 1103              		.loc 1 571 21 is_stmt 0 view .LVU343
 1104 0032 144B     		ldr	r3, .L97
 1105 0034 0422     		movs	r2, #4
 1106 0036 83F88E20 		strb	r2, [r3, #142]
 1107 003a EEE7     		b	.L86
 1108              	.LVL83:
 1109              	.L94:
 576:Lib/soes/src/esc_foe.c ****       /* Verify the size of the file data. */
 1110              		.loc 1 576 7 is_stmt 1 view .LVU344
 578:Lib/soes/src/esc_foe.c ****       {
 1111              		.loc 1 578 7 view .LVU345
 578:Lib/soes/src/esc_foe.c ****       {
 1112              		.loc 1 578 11 is_stmt 0 view .LVU346
 1113 003c 134B     		ldr	r3, .L97+8
 1114 003e 1B88     		ldrh	r3, [r3]	@ unaligned
 578:Lib/soes/src/esc_foe.c ****       {
 1115              		.loc 1 578 10 view .LVU347
 1116 0040 052B     		cmp	r3, #5
 1117 0042 0CD9     		bls	.L95
 584:Lib/soes/src/esc_foe.c ****          {
 1118              		.loc 1 584 10 is_stmt 1 view .LVU348
 584:Lib/soes/src/esc_foe.c ****          {
 1119              		.loc 1 584 35 is_stmt 0 view .LVU349
 1120 0044 114B     		ldr	r3, .L97+8
 1121 0046 9B79     		ldrb	r3, [r3, #6]	@ zero_extendqisi2
 584:Lib/soes/src/esc_foe.c ****          {
 1122              		.loc 1 584 10 view .LVU350
 1123 0048 032B     		cmp	r3, #3
 1124 004a 15D0     		beq	.L89
 1125 004c 052B     		cmp	r3, #5
 1126 004e 16D0     		beq	.L90
 1127 0050 022B     		cmp	r3, #2
 1128 0052 0ED0     		beq	.L96
 627:Lib/soes/src/esc_foe.c ****                FOE_abort (FOE_ERR_NOTDEFINED);
 1129              		.loc 1 627 46 is_stmt 1 view .LVU351
 628:Lib/soes/src/esc_foe.c ****                break;
 1130              		.loc 1 628 16 view .LVU352
 1131 0054 4FF40040 		mov	r0, #32768
 1132 0058 FFF7FEFF 		bl	FOE_abort
 1133              	.LVL84:
 629:Lib/soes/src/esc_foe.c ****             }
 1134              		.loc 1 629 16 view .LVU353
 1135 005c 02E0     		b	.L88
 1136              	.L95:
 580:Lib/soes/src/esc_foe.c ****       }
 1137              		.loc 1 580 10 view .LVU354
 1138 005e 0620     		movs	r0, #6
 1139 0060 FFF7FEFF 		bl	FOE_abort
 1140              	.LVL85:
 1141              	.L88:
 633:Lib/soes/src/esc_foe.c ****       ESCvar.xoe = 0;
ARM GAS  /tmp/ccc92rV8.s 			page 36


 1142              		.loc 1 633 7 view .LVU355
 633:Lib/soes/src/esc_foe.c ****       ESCvar.xoe = 0;
 1143              		.loc 1 633 27 is_stmt 0 view .LVU356
 1144 0064 0023     		movs	r3, #0
 1145 0066 084A     		ldr	r2, .L97+4
 1146 0068 1370     		strb	r3, [r2]
 634:Lib/soes/src/esc_foe.c ****    }
 1147              		.loc 1 634 7 is_stmt 1 view .LVU357
 634:Lib/soes/src/esc_foe.c ****    }
 1148              		.loc 1 634 18 is_stmt 0 view .LVU358
 1149 006a 064A     		ldr	r2, .L97
 1150 006c 82F88E30 		strb	r3, [r2, #142]
 1151 0070 D8E7     		b	.L84
 1152              	.L96:
 588:Lib/soes/src/esc_foe.c ****                FOE_write ();
 1153              		.loc 1 588 38 is_stmt 1 view .LVU359
 589:Lib/soes/src/esc_foe.c ****                break;
 1154              		.loc 1 589 16 view .LVU360
 1155 0072 FFF7FEFF 		bl	FOE_write
 1156              	.LVL86:
 590:Lib/soes/src/esc_foe.c ****             }
 1157              		.loc 1 590 16 view .LVU361
 1158 0076 F5E7     		b	.L88
 1159              	.L89:
 594:Lib/soes/src/esc_foe.c ****                FOE_data ();
 1160              		.loc 1 594 39 view .LVU362
 595:Lib/soes/src/esc_foe.c ****                break;
 1161              		.loc 1 595 16 view .LVU363
 1162 0078 FFF7FEFF 		bl	FOE_data
 1163              	.LVL87:
 596:Lib/soes/src/esc_foe.c ****             }
 1164              		.loc 1 596 16 view .LVU364
 1165 007c F2E7     		b	.L88
 1166              	.L90:
 621:Lib/soes/src/esc_foe.c ****                FOE_error ();
 1167              		.loc 1 621 38 view .LVU365
 622:Lib/soes/src/esc_foe.c ****                break;
 1168              		.loc 1 622 16 view .LVU366
 1169 007e FFF7FEFF 		bl	FOE_error
 1170              	.LVL88:
 623:Lib/soes/src/esc_foe.c ****             }
 1171              		.loc 1 623 16 view .LVU367
 1172 0082 EFE7     		b	.L88
 1173              	.L98:
 1174              		.align	2
 1175              	.L97:
 1176 0084 00000000 		.word	ESCvar
 1177 0088 00000000 		.word	MBXcontrol
 1178 008c 00000000 		.word	MBX
 1179              		.cfi_endproc
 1180              	.LFE10:
 1182              		.section	.bss.FOEvar,"aw",%nobits
 1183              		.align	2
 1184              		.set	.LANCHOR0,. + 0
 1187              	FOEvar:
 1188 0000 00000000 		.space	19
 1188      00000000 
ARM GAS  /tmp/ccc92rV8.s 			page 37


 1188      00000000 
 1188      00000000 
 1188      000000
 1189              		.section	.bss.foe_cfg,"aw",%nobits
 1190              		.align	2
 1191              		.set	.LANCHOR1,. + 0
 1194              	foe_cfg:
 1195 0000 00000000 		.space	4
 1196              		.section	.bss.foe_file,"aw",%nobits
 1197              		.align	2
 1198              		.set	.LANCHOR2,. + 0
 1201              	foe_file:
 1202 0000 00000000 		.space	4
 1203              		.section	.bss.foe_file_name,"aw",%nobits
 1204              		.align	2
 1205              		.set	.LANCHOR3,. + 0
 1208              	foe_file_name:
 1209 0000 00000000 		.space	32
 1209      00000000 
 1209      00000000 
 1209      00000000 
 1209      00000000 
 1210              		.text
 1211              	.Letext0:
 1212              		.file 2 "/usr/lib/gcc/arm-none-eabi/10.3.1/include/stdint.h"
 1213              		.file 3 "/usr/lib/gcc/arm-none-eabi/10.3.1/include/stddef.h"
 1214              		.file 4 "Lib/soes/inc/esc.h"
 1215              		.file 5 "Lib/soes/inc/esc_foe.h"
 1216              		.file 6 "/usr/include/newlib/string.h"
ARM GAS  /tmp/ccc92rV8.s 			page 38

