ARM GAS  /tmp/ccHLqiFP.s 			page 1


   1              		.cpu cortex-m4
   2              		.eabi_attribute 27, 1
   3              		.eabi_attribute 28, 1
   4              		.eabi_attribute 20, 1
   5              		.eabi_attribute 21, 1
   6              		.eabi_attribute 23, 3
   7              		.eabi_attribute 24, 1
   8              		.eabi_attribute 25, 1
   9              		.eabi_attribute 26, 1
  10              		.eabi_attribute 30, 1
  11              		.eabi_attribute 34, 1
  12              		.eabi_attribute 18, 4
  13              		.file	"rst.c"
  14              		.text
  15              	.Ltext0:
  16              		.cfi_sections	.debug_frame
  17              		.section	.text.rst_low,"ax",%progbits
  18              		.align	1
  19              		.global	rst_low
  20              		.arch armv7e-m
  21              		.syntax unified
  22              		.thumb
  23              		.thumb_func
  24              		.fpu fpv4-sp-d16
  26              	rst_low:
  27              	.LFB124:
  28              		.file 1 "Lib/soes_hal_bsp/src/rst.c"
   1:Lib/soes_hal_bsp/src/rst.c **** #include "rst.h"
   2:Lib/soes_hal_bsp/src/rst.c **** 
   3:Lib/soes_hal_bsp/src/rst.c **** 
   4:Lib/soes_hal_bsp/src/rst.c **** void rst_setup(void)
   5:Lib/soes_hal_bsp/src/rst.c **** {
   6:Lib/soes_hal_bsp/src/rst.c ****     /* Setup NRST as GPIO out and pull it high */
   7:Lib/soes_hal_bsp/src/rst.c ****     GPIO_InitTypeDef gpio;
   8:Lib/soes_hal_bsp/src/rst.c ****  
   9:Lib/soes_hal_bsp/src/rst.c ****     RCC_AHB1PeriphClockCmd(ESC_RCC_APB1PERIPH_GPIOX_RSTN, ENABLE);
  10:Lib/soes_hal_bsp/src/rst.c **** 
  11:Lib/soes_hal_bsp/src/rst.c ****     gpio.GPIO_Pin   = ESC_GPIO_Pin_RSTN; 
  12:Lib/soes_hal_bsp/src/rst.c ****     gpio.GPIO_Mode  = GPIO_Mode_OUT;
  13:Lib/soes_hal_bsp/src/rst.c ****     gpio.GPIO_Speed = GPIO_Speed_50MHz;
  14:Lib/soes_hal_bsp/src/rst.c ****     gpio.GPIO_OType = GPIO_OType_PP;
  15:Lib/soes_hal_bsp/src/rst.c ****     gpio.GPIO_PuPd  = GPIO_PuPd_UP;
  16:Lib/soes_hal_bsp/src/rst.c ****     GPIO_Init(ESC_GPIOX_RSTN, &gpio);
  17:Lib/soes_hal_bsp/src/rst.c ****     
  18:Lib/soes_hal_bsp/src/rst.c ****     rst_high();
  19:Lib/soes_hal_bsp/src/rst.c **** }
  20:Lib/soes_hal_bsp/src/rst.c **** 
  21:Lib/soes_hal_bsp/src/rst.c **** void rst_low(void)
  22:Lib/soes_hal_bsp/src/rst.c **** {    /* Set RSTN line low */
  29              		.loc 1 22 1 view -0
  30              		.cfi_startproc
  31              		@ args = 0, pretend = 0, frame = 0
  32              		@ frame_needed = 0, uses_anonymous_args = 0
  33 0000 08B5     		push	{r3, lr}
  34              		.cfi_def_cfa_offset 8
  35              		.cfi_offset 3, -8
  36              		.cfi_offset 14, -4
ARM GAS  /tmp/ccHLqiFP.s 			page 2


  23:Lib/soes_hal_bsp/src/rst.c ****     GPIO_ResetBits(ESC_GPIOX_RSTN, ESC_GPIO_Pin_RSTN);
  37              		.loc 1 23 5 view .LVU1
  38 0002 0421     		movs	r1, #4
  39 0004 0148     		ldr	r0, .L3
  40 0006 FFF7FEFF 		bl	GPIO_ResetBits
  41              	.LVL0:
  24:Lib/soes_hal_bsp/src/rst.c **** }
  42              		.loc 1 24 1 is_stmt 0 view .LVU2
  43 000a 08BD     		pop	{r3, pc}
  44              	.L4:
  45              		.align	2
  46              	.L3:
  47 000c 00000240 		.word	1073872896
  48              		.cfi_endproc
  49              	.LFE124:
  51              		.section	.text.rst_high,"ax",%progbits
  52              		.align	1
  53              		.global	rst_high
  54              		.syntax unified
  55              		.thumb
  56              		.thumb_func
  57              		.fpu fpv4-sp-d16
  59              	rst_high:
  60              	.LFB125:
  25:Lib/soes_hal_bsp/src/rst.c **** 
  26:Lib/soes_hal_bsp/src/rst.c **** void rst_high(void)
  27:Lib/soes_hal_bsp/src/rst.c **** {
  61              		.loc 1 27 1 is_stmt 1 view -0
  62              		.cfi_startproc
  63              		@ args = 0, pretend = 0, frame = 0
  64              		@ frame_needed = 0, uses_anonymous_args = 0
  65 0000 08B5     		push	{r3, lr}
  66              		.cfi_def_cfa_offset 8
  67              		.cfi_offset 3, -8
  68              		.cfi_offset 14, -4
  28:Lib/soes_hal_bsp/src/rst.c ****     /* Set RSTN line high */
  29:Lib/soes_hal_bsp/src/rst.c ****     GPIO_SetBits(ESC_GPIOX_RSTN, ESC_GPIO_Pin_RSTN);
  69              		.loc 1 29 5 view .LVU4
  70 0002 0421     		movs	r1, #4
  71 0004 0148     		ldr	r0, .L7
  72 0006 FFF7FEFF 		bl	GPIO_SetBits
  73              	.LVL1:
  30:Lib/soes_hal_bsp/src/rst.c **** }
  74              		.loc 1 30 1 is_stmt 0 view .LVU5
  75 000a 08BD     		pop	{r3, pc}
  76              	.L8:
  77              		.align	2
  78              	.L7:
  79 000c 00000240 		.word	1073872896
  80              		.cfi_endproc
  81              	.LFE125:
  83              		.section	.text.rst_setup,"ax",%progbits
  84              		.align	1
  85              		.global	rst_setup
  86              		.syntax unified
  87              		.thumb
  88              		.thumb_func
ARM GAS  /tmp/ccHLqiFP.s 			page 3


  89              		.fpu fpv4-sp-d16
  91              	rst_setup:
  92              	.LFB123:
   5:Lib/soes_hal_bsp/src/rst.c ****     GPIO_InitTypeDef gpio;
  93              		.loc 1 5 1 is_stmt 1 view -0
  94              		.cfi_startproc
  95              		@ args = 0, pretend = 0, frame = 8
  96              		@ frame_needed = 0, uses_anonymous_args = 0
  97 0000 00B5     		push	{lr}
  98              		.cfi_def_cfa_offset 4
  99              		.cfi_offset 14, -4
 100 0002 83B0     		sub	sp, sp, #12
 101              		.cfi_def_cfa_offset 16
   7:Lib/soes_hal_bsp/src/rst.c ****  
 102              		.loc 1 7 5 view .LVU7
   9:Lib/soes_hal_bsp/src/rst.c **** 
 103              		.loc 1 9 5 view .LVU8
 104 0004 0121     		movs	r1, #1
 105 0006 0846     		mov	r0, r1
 106 0008 FFF7FEFF 		bl	RCC_AHB1PeriphClockCmd
 107              	.LVL2:
  11:Lib/soes_hal_bsp/src/rst.c ****     gpio.GPIO_Mode  = GPIO_Mode_OUT;
 108              		.loc 1 11 5 view .LVU9
  11:Lib/soes_hal_bsp/src/rst.c ****     gpio.GPIO_Mode  = GPIO_Mode_OUT;
 109              		.loc 1 11 21 is_stmt 0 view .LVU10
 110 000c 0423     		movs	r3, #4
 111 000e 0093     		str	r3, [sp]
  12:Lib/soes_hal_bsp/src/rst.c ****     gpio.GPIO_Speed = GPIO_Speed_50MHz;
 112              		.loc 1 12 5 is_stmt 1 view .LVU11
  12:Lib/soes_hal_bsp/src/rst.c ****     gpio.GPIO_Speed = GPIO_Speed_50MHz;
 113              		.loc 1 12 21 is_stmt 0 view .LVU12
 114 0010 0123     		movs	r3, #1
 115 0012 8DF80430 		strb	r3, [sp, #4]
  13:Lib/soes_hal_bsp/src/rst.c ****     gpio.GPIO_OType = GPIO_OType_PP;
 116              		.loc 1 13 5 is_stmt 1 view .LVU13
  13:Lib/soes_hal_bsp/src/rst.c ****     gpio.GPIO_OType = GPIO_OType_PP;
 117              		.loc 1 13 21 is_stmt 0 view .LVU14
 118 0016 0222     		movs	r2, #2
 119 0018 8DF80520 		strb	r2, [sp, #5]
  14:Lib/soes_hal_bsp/src/rst.c ****     gpio.GPIO_PuPd  = GPIO_PuPd_UP;
 120              		.loc 1 14 5 is_stmt 1 view .LVU15
  14:Lib/soes_hal_bsp/src/rst.c ****     gpio.GPIO_PuPd  = GPIO_PuPd_UP;
 121              		.loc 1 14 21 is_stmt 0 view .LVU16
 122 001c 0022     		movs	r2, #0
 123 001e 8DF80620 		strb	r2, [sp, #6]
  15:Lib/soes_hal_bsp/src/rst.c ****     GPIO_Init(ESC_GPIOX_RSTN, &gpio);
 124              		.loc 1 15 5 is_stmt 1 view .LVU17
  15:Lib/soes_hal_bsp/src/rst.c ****     GPIO_Init(ESC_GPIOX_RSTN, &gpio);
 125              		.loc 1 15 21 is_stmt 0 view .LVU18
 126 0022 8DF80730 		strb	r3, [sp, #7]
  16:Lib/soes_hal_bsp/src/rst.c ****     
 127              		.loc 1 16 5 is_stmt 1 view .LVU19
 128 0026 6946     		mov	r1, sp
 129 0028 0348     		ldr	r0, .L11
 130 002a FFF7FEFF 		bl	GPIO_Init
 131              	.LVL3:
  18:Lib/soes_hal_bsp/src/rst.c **** }
ARM GAS  /tmp/ccHLqiFP.s 			page 4


 132              		.loc 1 18 5 view .LVU20
 133 002e FFF7FEFF 		bl	rst_high
 134              	.LVL4:
  19:Lib/soes_hal_bsp/src/rst.c **** 
 135              		.loc 1 19 1 is_stmt 0 view .LVU21
 136 0032 03B0     		add	sp, sp, #12
 137              		.cfi_def_cfa_offset 4
 138              		@ sp needed
 139 0034 5DF804FB 		ldr	pc, [sp], #4
 140              	.L12:
 141              		.align	2
 142              	.L11:
 143 0038 00000240 		.word	1073872896
 144              		.cfi_endproc
 145              	.LFE123:
 147              		.section	.text.rst_check_start,"ax",%progbits
 148              		.align	1
 149              		.global	rst_check_start
 150              		.syntax unified
 151              		.thumb
 152              		.thumb_func
 153              		.fpu fpv4-sp-d16
 155              	rst_check_start:
 156              	.LFB126:
  31:Lib/soes_hal_bsp/src/rst.c **** 
  32:Lib/soes_hal_bsp/src/rst.c **** void rst_check_start(void)
  33:Lib/soes_hal_bsp/src/rst.c **** {
 157              		.loc 1 33 1 is_stmt 1 view -0
 158              		.cfi_startproc
 159              		@ args = 0, pretend = 0, frame = 8
 160              		@ frame_needed = 0, uses_anonymous_args = 0
 161 0000 00B5     		push	{lr}
 162              		.cfi_def_cfa_offset 4
 163              		.cfi_offset 14, -4
 164 0002 83B0     		sub	sp, sp, #12
 165              		.cfi_def_cfa_offset 16
  34:Lib/soes_hal_bsp/src/rst.c ****     /* Setup NRST as GPIO input and pull it high */
  35:Lib/soes_hal_bsp/src/rst.c ****     GPIO_InitTypeDef gpio;
 166              		.loc 1 35 5 view .LVU23
  36:Lib/soes_hal_bsp/src/rst.c ****  
  37:Lib/soes_hal_bsp/src/rst.c ****     RCC_AHB1PeriphClockCmd(ESC_RCC_APB1PERIPH_GPIOX_RSTN, ENABLE);
 167              		.loc 1 37 5 view .LVU24
 168 0004 0121     		movs	r1, #1
 169 0006 0846     		mov	r0, r1
 170 0008 FFF7FEFF 		bl	RCC_AHB1PeriphClockCmd
 171              	.LVL5:
  38:Lib/soes_hal_bsp/src/rst.c **** 
  39:Lib/soes_hal_bsp/src/rst.c ****     gpio.GPIO_Pin   = ESC_GPIO_Pin_RSTN; 
 172              		.loc 1 39 5 view .LVU25
 173              		.loc 1 39 21 is_stmt 0 view .LVU26
 174 000c 0423     		movs	r3, #4
 175 000e 0093     		str	r3, [sp]
  40:Lib/soes_hal_bsp/src/rst.c ****     gpio.GPIO_Mode  = GPIO_Mode_IN;
 176              		.loc 1 40 5 is_stmt 1 view .LVU27
 177              		.loc 1 40 21 is_stmt 0 view .LVU28
 178 0010 0023     		movs	r3, #0
 179 0012 8DF80430 		strb	r3, [sp, #4]
ARM GAS  /tmp/ccHLqiFP.s 			page 5


  41:Lib/soes_hal_bsp/src/rst.c ****     gpio.GPIO_Speed = GPIO_Speed_50MHz;
 180              		.loc 1 41 5 is_stmt 1 view .LVU29
 181              		.loc 1 41 21 is_stmt 0 view .LVU30
 182 0016 0222     		movs	r2, #2
 183 0018 8DF80520 		strb	r2, [sp, #5]
  42:Lib/soes_hal_bsp/src/rst.c ****     gpio.GPIO_PuPd  = GPIO_PuPd_NOPULL;
 184              		.loc 1 42 5 is_stmt 1 view .LVU31
 185              		.loc 1 42 21 is_stmt 0 view .LVU32
 186 001c 8DF80730 		strb	r3, [sp, #7]
  43:Lib/soes_hal_bsp/src/rst.c ****     GPIO_Init(ESC_GPIOX_RSTN, &gpio);
 187              		.loc 1 43 5 is_stmt 1 view .LVU33
 188 0020 6946     		mov	r1, sp
 189 0022 0348     		ldr	r0, .L15
 190 0024 FFF7FEFF 		bl	GPIO_Init
 191              	.LVL6:
  44:Lib/soes_hal_bsp/src/rst.c **** }
 192              		.loc 1 44 1 is_stmt 0 view .LVU34
 193 0028 03B0     		add	sp, sp, #12
 194              		.cfi_def_cfa_offset 4
 195              		@ sp needed
 196 002a 5DF804FB 		ldr	pc, [sp], #4
 197              	.L16:
 198 002e 00BF     		.align	2
 199              	.L15:
 200 0030 00000240 		.word	1073872896
 201              		.cfi_endproc
 202              	.LFE126:
 204              		.section	.text.is_esc_reset,"ax",%progbits
 205              		.align	1
 206              		.global	is_esc_reset
 207              		.syntax unified
 208              		.thumb
 209              		.thumb_func
 210              		.fpu fpv4-sp-d16
 212              	is_esc_reset:
 213              	.LFB127:
  45:Lib/soes_hal_bsp/src/rst.c **** 
  46:Lib/soes_hal_bsp/src/rst.c **** uint8_t is_esc_reset(void)
  47:Lib/soes_hal_bsp/src/rst.c **** {
 214              		.loc 1 47 1 is_stmt 1 view -0
 215              		.cfi_startproc
 216              		@ args = 0, pretend = 0, frame = 0
 217              		@ frame_needed = 0, uses_anonymous_args = 0
 218 0000 08B5     		push	{r3, lr}
 219              		.cfi_def_cfa_offset 8
 220              		.cfi_offset 3, -8
 221              		.cfi_offset 14, -4
  48:Lib/soes_hal_bsp/src/rst.c ****     /* Check if ESC pulled RSTN line up */ 
  49:Lib/soes_hal_bsp/src/rst.c ****     return GPIO_ReadInputDataBit(ESC_GPIOX_RSTN, ESC_GPIO_Pin_RSTN) == Bit_SET;
 222              		.loc 1 49 5 view .LVU36
 223              		.loc 1 49 12 is_stmt 0 view .LVU37
 224 0002 0421     		movs	r1, #4
 225 0004 0348     		ldr	r0, .L19
 226 0006 FFF7FEFF 		bl	GPIO_ReadInputDataBit
 227              	.LVL7:
  50:Lib/soes_hal_bsp/src/rst.c **** }
 228              		.loc 1 50 1 view .LVU38
ARM GAS  /tmp/ccHLqiFP.s 			page 6


 229 000a 0128     		cmp	r0, #1
 230 000c 14BF     		ite	ne
 231 000e 0020     		movne	r0, #0
 232 0010 0120     		moveq	r0, #1
 233 0012 08BD     		pop	{r3, pc}
 234              	.L20:
 235              		.align	2
 236              	.L19:
 237 0014 00000240 		.word	1073872896
 238              		.cfi_endproc
 239              	.LFE127:
 241              		.text
 242              	.Letext0:
 243              		.file 2 "/usr/lib/gcc/arm-none-eabi/10.3.1/include/stdint.h"
 244              		.file 3 "Drivers/CMSIS/Device/ST/STM32F4xx/Include/stm32f4xx.h"
 245              		.file 4 "Drivers/STM32F4xx_StdPeriph_Driver/inc/stm32f4xx_gpio.h"
 246              		.file 5 "Drivers/STM32F4xx_StdPeriph_Driver/inc/stm32f4xx_rcc.h"
ARM GAS  /tmp/ccHLqiFP.s 			page 7

