ARM GAS  /tmp/ccSXeS9O.s 			page 1


   1              		.cpu cortex-m4
   2              		.arch armv7e-m
   3              		.fpu fpv4-sp-d16
   4              		.eabi_attribute 27, 1
   5              		.eabi_attribute 28, 1
   6              		.eabi_attribute 20, 1
   7              		.eabi_attribute 21, 1
   8              		.eabi_attribute 23, 3
   9              		.eabi_attribute 24, 1
  10              		.eabi_attribute 25, 1
  11              		.eabi_attribute 26, 1
  12              		.eabi_attribute 30, 1
  13              		.eabi_attribute 34, 1
  14              		.eabi_attribute 18, 4
  15              		.file	"stm32f4xx_fsmc.c"
  16              		.text
  17              	.Ltext0:
  18              		.cfi_sections	.debug_frame
  19              		.section	.text.FSMC_NORSRAMDeInit,"ax",%progbits
  20              		.align	1
  21              		.global	FSMC_NORSRAMDeInit
  22              		.syntax unified
  23              		.thumb
  24              		.thumb_func
  26              	FSMC_NORSRAMDeInit:
  27              	.LVL0:
  28              	.LFB123:
  29              		.file 1 "Drivers/STM32F4xx_StdPeriph_Driver/src/stm32f4xx_fsmc.c"
   1:Drivers/STM32F4xx_StdPeriph_Driver/src/stm32f4xx_fsmc.c **** /**
   2:Drivers/STM32F4xx_StdPeriph_Driver/src/stm32f4xx_fsmc.c ****   ******************************************************************************
   3:Drivers/STM32F4xx_StdPeriph_Driver/src/stm32f4xx_fsmc.c ****   * @file    stm32f4xx_fsmc.c
   4:Drivers/STM32F4xx_StdPeriph_Driver/src/stm32f4xx_fsmc.c ****   * @author  MCD Application Team
   5:Drivers/STM32F4xx_StdPeriph_Driver/src/stm32f4xx_fsmc.c ****   * @version V1.6.1
   6:Drivers/STM32F4xx_StdPeriph_Driver/src/stm32f4xx_fsmc.c ****   * @date    21-October-2015
   7:Drivers/STM32F4xx_StdPeriph_Driver/src/stm32f4xx_fsmc.c ****  * @brief    This file provides firmware functions to manage the following 
   8:Drivers/STM32F4xx_StdPeriph_Driver/src/stm32f4xx_fsmc.c ****   *          functionalities of the FSMC peripheral:           
   9:Drivers/STM32F4xx_StdPeriph_Driver/src/stm32f4xx_fsmc.c ****   *           + Interface with SRAM, PSRAM, NOR and OneNAND memories
  10:Drivers/STM32F4xx_StdPeriph_Driver/src/stm32f4xx_fsmc.c ****   *           + Interface with NAND memories
  11:Drivers/STM32F4xx_StdPeriph_Driver/src/stm32f4xx_fsmc.c ****   *           + Interface with 16-bit PC Card compatible memories  
  12:Drivers/STM32F4xx_StdPeriph_Driver/src/stm32f4xx_fsmc.c ****   *           + Interrupts and flags management   
  13:Drivers/STM32F4xx_StdPeriph_Driver/src/stm32f4xx_fsmc.c ****   *           
  14:Drivers/STM32F4xx_StdPeriph_Driver/src/stm32f4xx_fsmc.c ****   ******************************************************************************
  15:Drivers/STM32F4xx_StdPeriph_Driver/src/stm32f4xx_fsmc.c ****   * @attention
  16:Drivers/STM32F4xx_StdPeriph_Driver/src/stm32f4xx_fsmc.c ****   *
  17:Drivers/STM32F4xx_StdPeriph_Driver/src/stm32f4xx_fsmc.c ****   * <h2><center>&copy; COPYRIGHT 2015 STMicroelectronics</center></h2>
  18:Drivers/STM32F4xx_StdPeriph_Driver/src/stm32f4xx_fsmc.c ****   *
  19:Drivers/STM32F4xx_StdPeriph_Driver/src/stm32f4xx_fsmc.c ****   * Licensed under MCD-ST Liberty SW License Agreement V2, (the "License");
  20:Drivers/STM32F4xx_StdPeriph_Driver/src/stm32f4xx_fsmc.c ****   * You may not use this file except in compliance with the License.
  21:Drivers/STM32F4xx_StdPeriph_Driver/src/stm32f4xx_fsmc.c ****   * You may obtain a copy of the License at:
  22:Drivers/STM32F4xx_StdPeriph_Driver/src/stm32f4xx_fsmc.c ****   *
  23:Drivers/STM32F4xx_StdPeriph_Driver/src/stm32f4xx_fsmc.c ****   *        http://www.st.com/software_license_agreement_liberty_v2
  24:Drivers/STM32F4xx_StdPeriph_Driver/src/stm32f4xx_fsmc.c ****   *
  25:Drivers/STM32F4xx_StdPeriph_Driver/src/stm32f4xx_fsmc.c ****   * Unless required by applicable law or agreed to in writing, software 
  26:Drivers/STM32F4xx_StdPeriph_Driver/src/stm32f4xx_fsmc.c ****   * distributed under the License is distributed on an "AS IS" BASIS, 
  27:Drivers/STM32F4xx_StdPeriph_Driver/src/stm32f4xx_fsmc.c ****   * WITHOUT WARRANTIES OR CONDITIONS OF ANY KIND, either express or implied.
  28:Drivers/STM32F4xx_StdPeriph_Driver/src/stm32f4xx_fsmc.c ****   * See the License for the specific language governing permissions and
  29:Drivers/STM32F4xx_StdPeriph_Driver/src/stm32f4xx_fsmc.c ****   * limitations under the License.
ARM GAS  /tmp/ccSXeS9O.s 			page 2


  30:Drivers/STM32F4xx_StdPeriph_Driver/src/stm32f4xx_fsmc.c ****   *
  31:Drivers/STM32F4xx_StdPeriph_Driver/src/stm32f4xx_fsmc.c ****   ******************************************************************************
  32:Drivers/STM32F4xx_StdPeriph_Driver/src/stm32f4xx_fsmc.c ****   */
  33:Drivers/STM32F4xx_StdPeriph_Driver/src/stm32f4xx_fsmc.c **** 
  34:Drivers/STM32F4xx_StdPeriph_Driver/src/stm32f4xx_fsmc.c **** /* Includes ------------------------------------------------------------------*/
  35:Drivers/STM32F4xx_StdPeriph_Driver/src/stm32f4xx_fsmc.c **** #include "stm32f4xx_fsmc.h"
  36:Drivers/STM32F4xx_StdPeriph_Driver/src/stm32f4xx_fsmc.c **** #include "stm32f4xx_rcc.h"
  37:Drivers/STM32F4xx_StdPeriph_Driver/src/stm32f4xx_fsmc.c **** 
  38:Drivers/STM32F4xx_StdPeriph_Driver/src/stm32f4xx_fsmc.c **** /** @addtogroup STM32F4xx_StdPeriph_Driver
  39:Drivers/STM32F4xx_StdPeriph_Driver/src/stm32f4xx_fsmc.c ****   * @{
  40:Drivers/STM32F4xx_StdPeriph_Driver/src/stm32f4xx_fsmc.c ****   */
  41:Drivers/STM32F4xx_StdPeriph_Driver/src/stm32f4xx_fsmc.c **** 
  42:Drivers/STM32F4xx_StdPeriph_Driver/src/stm32f4xx_fsmc.c **** /** @defgroup FSMC 
  43:Drivers/STM32F4xx_StdPeriph_Driver/src/stm32f4xx_fsmc.c ****   * @brief FSMC driver modules
  44:Drivers/STM32F4xx_StdPeriph_Driver/src/stm32f4xx_fsmc.c ****   * @{
  45:Drivers/STM32F4xx_StdPeriph_Driver/src/stm32f4xx_fsmc.c ****   */ 
  46:Drivers/STM32F4xx_StdPeriph_Driver/src/stm32f4xx_fsmc.c **** 
  47:Drivers/STM32F4xx_StdPeriph_Driver/src/stm32f4xx_fsmc.c **** /* Private typedef -----------------------------------------------------------*/
  48:Drivers/STM32F4xx_StdPeriph_Driver/src/stm32f4xx_fsmc.c **** const FSMC_NORSRAMTimingInitTypeDef FSMC_DefaultTimingStruct = {0x0F, /* FSMC_AddressSetupTime */
  49:Drivers/STM32F4xx_StdPeriph_Driver/src/stm32f4xx_fsmc.c ****                                                                 0x0F, /* FSMC_AddressHoldTime */
  50:Drivers/STM32F4xx_StdPeriph_Driver/src/stm32f4xx_fsmc.c ****                                                                 0xFF, /* FSMC_DataSetupTime */
  51:Drivers/STM32F4xx_StdPeriph_Driver/src/stm32f4xx_fsmc.c ****                                                                 0x0F, /* FSMC_BusTurnAroundDuration
  52:Drivers/STM32F4xx_StdPeriph_Driver/src/stm32f4xx_fsmc.c ****                                                                 0x0F, /* FSMC_CLKDivision */
  53:Drivers/STM32F4xx_StdPeriph_Driver/src/stm32f4xx_fsmc.c ****                                                                 0x0F, /* FSMC_DataLatency */
  54:Drivers/STM32F4xx_StdPeriph_Driver/src/stm32f4xx_fsmc.c ****                                                                 FSMC_AccessMode_A /* FSMC_AccessMod
  55:Drivers/STM32F4xx_StdPeriph_Driver/src/stm32f4xx_fsmc.c ****                                                                };
  56:Drivers/STM32F4xx_StdPeriph_Driver/src/stm32f4xx_fsmc.c **** /* Private define ------------------------------------------------------------*/
  57:Drivers/STM32F4xx_StdPeriph_Driver/src/stm32f4xx_fsmc.c **** 
  58:Drivers/STM32F4xx_StdPeriph_Driver/src/stm32f4xx_fsmc.c **** /* --------------------- FSMC registers bit mask ---------------------------- */
  59:Drivers/STM32F4xx_StdPeriph_Driver/src/stm32f4xx_fsmc.c **** /* FSMC BCRx Mask */
  60:Drivers/STM32F4xx_StdPeriph_Driver/src/stm32f4xx_fsmc.c **** #define BCR_MBKEN_SET          ((uint32_t)0x00000001)
  61:Drivers/STM32F4xx_StdPeriph_Driver/src/stm32f4xx_fsmc.c **** #define BCR_MBKEN_RESET        ((uint32_t)0x000FFFFE)
  62:Drivers/STM32F4xx_StdPeriph_Driver/src/stm32f4xx_fsmc.c **** #define BCR_FACCEN_SET         ((uint32_t)0x00000040)
  63:Drivers/STM32F4xx_StdPeriph_Driver/src/stm32f4xx_fsmc.c **** 
  64:Drivers/STM32F4xx_StdPeriph_Driver/src/stm32f4xx_fsmc.c **** /* FSMC PCRx Mask */
  65:Drivers/STM32F4xx_StdPeriph_Driver/src/stm32f4xx_fsmc.c **** #define PCR_PBKEN_SET          ((uint32_t)0x00000004)
  66:Drivers/STM32F4xx_StdPeriph_Driver/src/stm32f4xx_fsmc.c **** #define PCR_PBKEN_RESET        ((uint32_t)0x000FFFFB)
  67:Drivers/STM32F4xx_StdPeriph_Driver/src/stm32f4xx_fsmc.c **** #define PCR_ECCEN_SET          ((uint32_t)0x00000040)
  68:Drivers/STM32F4xx_StdPeriph_Driver/src/stm32f4xx_fsmc.c **** #define PCR_ECCEN_RESET        ((uint32_t)0x000FFFBF)
  69:Drivers/STM32F4xx_StdPeriph_Driver/src/stm32f4xx_fsmc.c **** #define PCR_MEMORYTYPE_NAND    ((uint32_t)0x00000008)
  70:Drivers/STM32F4xx_StdPeriph_Driver/src/stm32f4xx_fsmc.c **** 
  71:Drivers/STM32F4xx_StdPeriph_Driver/src/stm32f4xx_fsmc.c **** /* Private macro -------------------------------------------------------------*/
  72:Drivers/STM32F4xx_StdPeriph_Driver/src/stm32f4xx_fsmc.c **** /* Private variables ---------------------------------------------------------*/
  73:Drivers/STM32F4xx_StdPeriph_Driver/src/stm32f4xx_fsmc.c **** /* Private function prototypes -----------------------------------------------*/
  74:Drivers/STM32F4xx_StdPeriph_Driver/src/stm32f4xx_fsmc.c **** /* Private functions ---------------------------------------------------------*/
  75:Drivers/STM32F4xx_StdPeriph_Driver/src/stm32f4xx_fsmc.c **** 
  76:Drivers/STM32F4xx_StdPeriph_Driver/src/stm32f4xx_fsmc.c **** /** @defgroup FSMC_Private_Functions
  77:Drivers/STM32F4xx_StdPeriph_Driver/src/stm32f4xx_fsmc.c ****   * @{
  78:Drivers/STM32F4xx_StdPeriph_Driver/src/stm32f4xx_fsmc.c ****   */
  79:Drivers/STM32F4xx_StdPeriph_Driver/src/stm32f4xx_fsmc.c **** 
  80:Drivers/STM32F4xx_StdPeriph_Driver/src/stm32f4xx_fsmc.c **** /** @defgroup FSMC_Group1 NOR/SRAM Controller functions
  81:Drivers/STM32F4xx_StdPeriph_Driver/src/stm32f4xx_fsmc.c ****  *  @brief   NOR/SRAM Controller functions 
  82:Drivers/STM32F4xx_StdPeriph_Driver/src/stm32f4xx_fsmc.c ****  *
  83:Drivers/STM32F4xx_StdPeriph_Driver/src/stm32f4xx_fsmc.c **** @verbatim   
  84:Drivers/STM32F4xx_StdPeriph_Driver/src/stm32f4xx_fsmc.c ****  ===============================================================================
  85:Drivers/STM32F4xx_StdPeriph_Driver/src/stm32f4xx_fsmc.c ****                     ##### NOR and SRAM Controller functions #####
  86:Drivers/STM32F4xx_StdPeriph_Driver/src/stm32f4xx_fsmc.c ****  ===============================================================================  
ARM GAS  /tmp/ccSXeS9O.s 			page 3


  87:Drivers/STM32F4xx_StdPeriph_Driver/src/stm32f4xx_fsmc.c **** 
  88:Drivers/STM32F4xx_StdPeriph_Driver/src/stm32f4xx_fsmc.c ****  [..] The following sequence should be followed to configure the FSMC to interface
  89:Drivers/STM32F4xx_StdPeriph_Driver/src/stm32f4xx_fsmc.c ****       with SRAM, PSRAM, NOR or OneNAND memory connected to the NOR/SRAM Bank:
  90:Drivers/STM32F4xx_StdPeriph_Driver/src/stm32f4xx_fsmc.c ****  
  91:Drivers/STM32F4xx_StdPeriph_Driver/src/stm32f4xx_fsmc.c ****    (#) Enable the clock for the FSMC and associated GPIOs using the following functions:
  92:Drivers/STM32F4xx_StdPeriph_Driver/src/stm32f4xx_fsmc.c ****           RCC_AHB3PeriphClockCmd(RCC_AHB3Periph_FSMC, ENABLE);
  93:Drivers/STM32F4xx_StdPeriph_Driver/src/stm32f4xx_fsmc.c ****           RCC_AHB1PeriphClockCmd(RCC_AHB1Periph_GPIOx, ENABLE);
  94:Drivers/STM32F4xx_StdPeriph_Driver/src/stm32f4xx_fsmc.c **** 
  95:Drivers/STM32F4xx_StdPeriph_Driver/src/stm32f4xx_fsmc.c ****    (#) FSMC pins configuration 
  96:Drivers/STM32F4xx_StdPeriph_Driver/src/stm32f4xx_fsmc.c ****        (++) Connect the involved FSMC pins to AF12 using the following function 
  97:Drivers/STM32F4xx_StdPeriph_Driver/src/stm32f4xx_fsmc.c ****             GPIO_PinAFConfig(GPIOx, GPIO_PinSourcex, GPIO_AF_FSMC); 
  98:Drivers/STM32F4xx_StdPeriph_Driver/src/stm32f4xx_fsmc.c ****        (++) Configure these FSMC pins in alternate function mode by calling the function
  99:Drivers/STM32F4xx_StdPeriph_Driver/src/stm32f4xx_fsmc.c ****             GPIO_Init();    
 100:Drivers/STM32F4xx_StdPeriph_Driver/src/stm32f4xx_fsmc.c ****        
 101:Drivers/STM32F4xx_StdPeriph_Driver/src/stm32f4xx_fsmc.c ****    (#) Declare a FSMC_NORSRAMInitTypeDef structure, for example:
 102:Drivers/STM32F4xx_StdPeriph_Driver/src/stm32f4xx_fsmc.c ****           FSMC_NORSRAMInitTypeDef  FSMC_NORSRAMInitStructure;
 103:Drivers/STM32F4xx_StdPeriph_Driver/src/stm32f4xx_fsmc.c ****       and fill the FSMC_NORSRAMInitStructure variable with the allowed values of
 104:Drivers/STM32F4xx_StdPeriph_Driver/src/stm32f4xx_fsmc.c ****       the structure member.
 105:Drivers/STM32F4xx_StdPeriph_Driver/src/stm32f4xx_fsmc.c ****       
 106:Drivers/STM32F4xx_StdPeriph_Driver/src/stm32f4xx_fsmc.c ****    (#) Initialize the NOR/SRAM Controller by calling the function
 107:Drivers/STM32F4xx_StdPeriph_Driver/src/stm32f4xx_fsmc.c ****           FSMC_NORSRAMInit(&FSMC_NORSRAMInitStructure); 
 108:Drivers/STM32F4xx_StdPeriph_Driver/src/stm32f4xx_fsmc.c **** 
 109:Drivers/STM32F4xx_StdPeriph_Driver/src/stm32f4xx_fsmc.c ****    (#) Then enable the NOR/SRAM Bank, for example:
 110:Drivers/STM32F4xx_StdPeriph_Driver/src/stm32f4xx_fsmc.c ****           FSMC_NORSRAMCmd(FSMC_Bank1_NORSRAM2, ENABLE);  
 111:Drivers/STM32F4xx_StdPeriph_Driver/src/stm32f4xx_fsmc.c **** 
 112:Drivers/STM32F4xx_StdPeriph_Driver/src/stm32f4xx_fsmc.c ****    (#) At this stage you can read/write from/to the memory connected to the NOR/SRAM Bank. 
 113:Drivers/STM32F4xx_StdPeriph_Driver/src/stm32f4xx_fsmc.c ****    
 114:Drivers/STM32F4xx_StdPeriph_Driver/src/stm32f4xx_fsmc.c **** @endverbatim
 115:Drivers/STM32F4xx_StdPeriph_Driver/src/stm32f4xx_fsmc.c ****   * @{
 116:Drivers/STM32F4xx_StdPeriph_Driver/src/stm32f4xx_fsmc.c ****   */
 117:Drivers/STM32F4xx_StdPeriph_Driver/src/stm32f4xx_fsmc.c **** 
 118:Drivers/STM32F4xx_StdPeriph_Driver/src/stm32f4xx_fsmc.c **** /**
 119:Drivers/STM32F4xx_StdPeriph_Driver/src/stm32f4xx_fsmc.c ****   * @brief  De-initializes the FSMC NOR/SRAM Banks registers to their default 
 120:Drivers/STM32F4xx_StdPeriph_Driver/src/stm32f4xx_fsmc.c ****   *   reset values.
 121:Drivers/STM32F4xx_StdPeriph_Driver/src/stm32f4xx_fsmc.c ****   * @param  FSMC_Bank: specifies the FSMC Bank to be used
 122:Drivers/STM32F4xx_StdPeriph_Driver/src/stm32f4xx_fsmc.c ****   *          This parameter can be one of the following values:
 123:Drivers/STM32F4xx_StdPeriph_Driver/src/stm32f4xx_fsmc.c ****   *            @arg FSMC_Bank1_NORSRAM1: FSMC Bank1 NOR/SRAM1  
 124:Drivers/STM32F4xx_StdPeriph_Driver/src/stm32f4xx_fsmc.c ****   *            @arg FSMC_Bank1_NORSRAM2: FSMC Bank1 NOR/SRAM2 
 125:Drivers/STM32F4xx_StdPeriph_Driver/src/stm32f4xx_fsmc.c ****   *            @arg FSMC_Bank1_NORSRAM3: FSMC Bank1 NOR/SRAM3 
 126:Drivers/STM32F4xx_StdPeriph_Driver/src/stm32f4xx_fsmc.c ****   *            @arg FSMC_Bank1_NORSRAM4: FSMC Bank1 NOR/SRAM4 
 127:Drivers/STM32F4xx_StdPeriph_Driver/src/stm32f4xx_fsmc.c ****   * @retval None
 128:Drivers/STM32F4xx_StdPeriph_Driver/src/stm32f4xx_fsmc.c ****   */
 129:Drivers/STM32F4xx_StdPeriph_Driver/src/stm32f4xx_fsmc.c **** void FSMC_NORSRAMDeInit(uint32_t FSMC_Bank)
 130:Drivers/STM32F4xx_StdPeriph_Driver/src/stm32f4xx_fsmc.c **** {
  30              		.loc 1 130 1 view -0
  31              		.cfi_startproc
  32              		@ args = 0, pretend = 0, frame = 0
  33              		@ frame_needed = 0, uses_anonymous_args = 0
  34              		@ link register save eliminated.
 131:Drivers/STM32F4xx_StdPeriph_Driver/src/stm32f4xx_fsmc.c ****   /* Check the parameter */
 132:Drivers/STM32F4xx_StdPeriph_Driver/src/stm32f4xx_fsmc.c ****   assert_param(IS_FSMC_NORSRAM_BANK(FSMC_Bank));
  35              		.loc 1 132 3 view .LVU1
 133:Drivers/STM32F4xx_StdPeriph_Driver/src/stm32f4xx_fsmc.c ****   
 134:Drivers/STM32F4xx_StdPeriph_Driver/src/stm32f4xx_fsmc.c ****   /* FSMC_Bank1_NORSRAM1 */
 135:Drivers/STM32F4xx_StdPeriph_Driver/src/stm32f4xx_fsmc.c ****   if(FSMC_Bank == FSMC_Bank1_NORSRAM1)
  36              		.loc 1 135 3 view .LVU2
  37              		.loc 1 135 5 is_stmt 0 view .LVU3
ARM GAS  /tmp/ccSXeS9O.s 			page 4


  38 0000 0346     		mov	r3, r0
  39 0002 88B9     		cbnz	r0, .L2
 136:Drivers/STM32F4xx_StdPeriph_Driver/src/stm32f4xx_fsmc.c ****   {
 137:Drivers/STM32F4xx_StdPeriph_Driver/src/stm32f4xx_fsmc.c ****     FSMC_Bank1->BTCR[FSMC_Bank] = 0x000030DB;    
  40              		.loc 1 137 5 is_stmt 1 view .LVU4
  41              		.loc 1 137 33 is_stmt 0 view .LVU5
  42 0004 4FF02042 		mov	r2, #-1610612736
  43 0008 43F2DB01 		movw	r1, #12507
  44 000c 42F82010 		str	r1, [r2, r0, lsl #2]
  45              	.L3:
 138:Drivers/STM32F4xx_StdPeriph_Driver/src/stm32f4xx_fsmc.c ****   }
 139:Drivers/STM32F4xx_StdPeriph_Driver/src/stm32f4xx_fsmc.c ****   /* FSMC_Bank1_NORSRAM2,  FSMC_Bank1_NORSRAM3 or FSMC_Bank1_NORSRAM4 */
 140:Drivers/STM32F4xx_StdPeriph_Driver/src/stm32f4xx_fsmc.c ****   else
 141:Drivers/STM32F4xx_StdPeriph_Driver/src/stm32f4xx_fsmc.c ****   {   
 142:Drivers/STM32F4xx_StdPeriph_Driver/src/stm32f4xx_fsmc.c ****     FSMC_Bank1->BTCR[FSMC_Bank] = 0x000030D2; 
 143:Drivers/STM32F4xx_StdPeriph_Driver/src/stm32f4xx_fsmc.c ****   }
 144:Drivers/STM32F4xx_StdPeriph_Driver/src/stm32f4xx_fsmc.c ****   FSMC_Bank1->BTCR[FSMC_Bank + 1] = 0x0FFFFFFF;
  46              		.loc 1 144 3 is_stmt 1 view .LVU6
  47              		.loc 1 144 30 is_stmt 0 view .LVU7
  48 0010 581C     		adds	r0, r3, #1
  49              	.LVL1:
  50              		.loc 1 144 35 view .LVU8
  51 0012 6FF07042 		mvn	r2, #-268435456
  52 0016 4FF02041 		mov	r1, #-1610612736
  53 001a 41F82020 		str	r2, [r1, r0, lsl #2]
 145:Drivers/STM32F4xx_StdPeriph_Driver/src/stm32f4xx_fsmc.c ****   FSMC_Bank1E->BWTR[FSMC_Bank] = 0x0FFFFFFF;  
  54              		.loc 1 145 3 is_stmt 1 view .LVU9
  55              		.loc 1 145 32 is_stmt 0 view .LVU10
  56 001e 9B00     		lsls	r3, r3, #2
  57              	.LVL2:
  58              		.loc 1 145 32 view .LVU11
  59 0020 0B44     		add	r3, r3, r1
  60 0022 C3F80421 		str	r2, [r3, #260]
 146:Drivers/STM32F4xx_StdPeriph_Driver/src/stm32f4xx_fsmc.c **** }
  61              		.loc 1 146 1 view .LVU12
  62 0026 7047     		bx	lr
  63              	.LVL3:
  64              	.L2:
 142:Drivers/STM32F4xx_StdPeriph_Driver/src/stm32f4xx_fsmc.c ****   }
  65              		.loc 1 142 5 is_stmt 1 view .LVU13
 142:Drivers/STM32F4xx_StdPeriph_Driver/src/stm32f4xx_fsmc.c ****   }
  66              		.loc 1 142 33 is_stmt 0 view .LVU14
  67 0028 4FF02042 		mov	r2, #-1610612736
  68 002c 43F2D201 		movw	r1, #12498
  69 0030 42F82010 		str	r1, [r2, r0, lsl #2]
  70 0034 ECE7     		b	.L3
  71              		.cfi_endproc
  72              	.LFE123:
  74              		.section	.text.FSMC_NORSRAMInit,"ax",%progbits
  75              		.align	1
  76              		.global	FSMC_NORSRAMInit
  77              		.syntax unified
  78              		.thumb
  79              		.thumb_func
  81              	FSMC_NORSRAMInit:
  82              	.LVL4:
  83              	.LFB124:
ARM GAS  /tmp/ccSXeS9O.s 			page 5


 147:Drivers/STM32F4xx_StdPeriph_Driver/src/stm32f4xx_fsmc.c **** 
 148:Drivers/STM32F4xx_StdPeriph_Driver/src/stm32f4xx_fsmc.c **** /**
 149:Drivers/STM32F4xx_StdPeriph_Driver/src/stm32f4xx_fsmc.c ****   * @brief  Initializes the FSMC NOR/SRAM Banks according to the specified
 150:Drivers/STM32F4xx_StdPeriph_Driver/src/stm32f4xx_fsmc.c ****   *         parameters in the FSMC_NORSRAMInitStruct.
 151:Drivers/STM32F4xx_StdPeriph_Driver/src/stm32f4xx_fsmc.c ****   * @param  FSMC_NORSRAMInitStruct : pointer to a FSMC_NORSRAMInitTypeDef structure
 152:Drivers/STM32F4xx_StdPeriph_Driver/src/stm32f4xx_fsmc.c ****   *         that contains the configuration information for the FSMC NOR/SRAM 
 153:Drivers/STM32F4xx_StdPeriph_Driver/src/stm32f4xx_fsmc.c ****   *         specified Banks.                       
 154:Drivers/STM32F4xx_StdPeriph_Driver/src/stm32f4xx_fsmc.c ****   * @retval None
 155:Drivers/STM32F4xx_StdPeriph_Driver/src/stm32f4xx_fsmc.c ****   */
 156:Drivers/STM32F4xx_StdPeriph_Driver/src/stm32f4xx_fsmc.c **** void FSMC_NORSRAMInit(FSMC_NORSRAMInitTypeDef* FSMC_NORSRAMInitStruct)
 157:Drivers/STM32F4xx_StdPeriph_Driver/src/stm32f4xx_fsmc.c **** { 
  84              		.loc 1 157 1 is_stmt 1 view -0
  85              		.cfi_startproc
  86              		@ args = 0, pretend = 0, frame = 0
  87              		@ frame_needed = 0, uses_anonymous_args = 0
  88              		@ link register save eliminated.
  89              		.loc 1 157 1 is_stmt 0 view .LVU16
  90 0000 30B4     		push	{r4, r5}
  91              		.cfi_def_cfa_offset 8
  92              		.cfi_offset 4, -8
  93              		.cfi_offset 5, -4
 158:Drivers/STM32F4xx_StdPeriph_Driver/src/stm32f4xx_fsmc.c ****   uint32_t tmpbcr = 0, tmpbtr = 0, tmpbwr = 0;
  94              		.loc 1 158 3 is_stmt 1 view .LVU17
  95              	.LVL5:
 159:Drivers/STM32F4xx_StdPeriph_Driver/src/stm32f4xx_fsmc.c **** 
 160:Drivers/STM32F4xx_StdPeriph_Driver/src/stm32f4xx_fsmc.c ****   /* Check the parameters */
 161:Drivers/STM32F4xx_StdPeriph_Driver/src/stm32f4xx_fsmc.c ****   assert_param(IS_FSMC_NORSRAM_BANK(FSMC_NORSRAMInitStruct->FSMC_Bank));
  96              		.loc 1 161 3 view .LVU18
 162:Drivers/STM32F4xx_StdPeriph_Driver/src/stm32f4xx_fsmc.c ****   assert_param(IS_FSMC_MUX(FSMC_NORSRAMInitStruct->FSMC_DataAddressMux));
  97              		.loc 1 162 3 view .LVU19
 163:Drivers/STM32F4xx_StdPeriph_Driver/src/stm32f4xx_fsmc.c ****   assert_param(IS_FSMC_MEMORY(FSMC_NORSRAMInitStruct->FSMC_MemoryType));
  98              		.loc 1 163 3 view .LVU20
 164:Drivers/STM32F4xx_StdPeriph_Driver/src/stm32f4xx_fsmc.c ****   assert_param(IS_FSMC_MEMORY_WIDTH(FSMC_NORSRAMInitStruct->FSMC_MemoryDataWidth));
  99              		.loc 1 164 3 view .LVU21
 165:Drivers/STM32F4xx_StdPeriph_Driver/src/stm32f4xx_fsmc.c ****   assert_param(IS_FSMC_BURSTMODE(FSMC_NORSRAMInitStruct->FSMC_BurstAccessMode));
 100              		.loc 1 165 3 view .LVU22
 166:Drivers/STM32F4xx_StdPeriph_Driver/src/stm32f4xx_fsmc.c ****   assert_param(IS_FSMC_ASYNWAIT(FSMC_NORSRAMInitStruct->FSMC_AsynchronousWait));
 101              		.loc 1 166 3 view .LVU23
 167:Drivers/STM32F4xx_StdPeriph_Driver/src/stm32f4xx_fsmc.c ****   assert_param(IS_FSMC_WAIT_POLARITY(FSMC_NORSRAMInitStruct->FSMC_WaitSignalPolarity));
 102              		.loc 1 167 3 view .LVU24
 168:Drivers/STM32F4xx_StdPeriph_Driver/src/stm32f4xx_fsmc.c ****   assert_param(IS_FSMC_WRAP_MODE(FSMC_NORSRAMInitStruct->FSMC_WrapMode));
 103              		.loc 1 168 3 view .LVU25
 169:Drivers/STM32F4xx_StdPeriph_Driver/src/stm32f4xx_fsmc.c ****   assert_param(IS_FSMC_WAIT_SIGNAL_ACTIVE(FSMC_NORSRAMInitStruct->FSMC_WaitSignalActive));
 104              		.loc 1 169 3 view .LVU26
 170:Drivers/STM32F4xx_StdPeriph_Driver/src/stm32f4xx_fsmc.c ****   assert_param(IS_FSMC_WRITE_OPERATION(FSMC_NORSRAMInitStruct->FSMC_WriteOperation));
 105              		.loc 1 170 3 view .LVU27
 171:Drivers/STM32F4xx_StdPeriph_Driver/src/stm32f4xx_fsmc.c ****   assert_param(IS_FSMC_WAITE_SIGNAL(FSMC_NORSRAMInitStruct->FSMC_WaitSignal));
 106              		.loc 1 171 3 view .LVU28
 172:Drivers/STM32F4xx_StdPeriph_Driver/src/stm32f4xx_fsmc.c ****   assert_param(IS_FSMC_EXTENDED_MODE(FSMC_NORSRAMInitStruct->FSMC_ExtendedMode));
 107              		.loc 1 172 3 view .LVU29
 173:Drivers/STM32F4xx_StdPeriph_Driver/src/stm32f4xx_fsmc.c ****   assert_param(IS_FSMC_WRITE_BURST(FSMC_NORSRAMInitStruct->FSMC_WriteBurst));  
 108              		.loc 1 173 3 view .LVU30
 174:Drivers/STM32F4xx_StdPeriph_Driver/src/stm32f4xx_fsmc.c ****   assert_param(IS_FSMC_ADDRESS_SETUP_TIME(FSMC_NORSRAMInitStruct->FSMC_ReadWriteTimingStruct->FSMC_
 109              		.loc 1 174 3 view .LVU31
 175:Drivers/STM32F4xx_StdPeriph_Driver/src/stm32f4xx_fsmc.c ****   assert_param(IS_FSMC_ADDRESS_HOLD_TIME(FSMC_NORSRAMInitStruct->FSMC_ReadWriteTimingStruct->FSMC_A
 110              		.loc 1 175 3 view .LVU32
 176:Drivers/STM32F4xx_StdPeriph_Driver/src/stm32f4xx_fsmc.c ****   assert_param(IS_FSMC_DATASETUP_TIME(FSMC_NORSRAMInitStruct->FSMC_ReadWriteTimingStruct->FSMC_Data
ARM GAS  /tmp/ccSXeS9O.s 			page 6


 111              		.loc 1 176 3 view .LVU33
 177:Drivers/STM32F4xx_StdPeriph_Driver/src/stm32f4xx_fsmc.c ****   assert_param(IS_FSMC_TURNAROUND_TIME(FSMC_NORSRAMInitStruct->FSMC_ReadWriteTimingStruct->FSMC_Bus
 112              		.loc 1 177 3 view .LVU34
 178:Drivers/STM32F4xx_StdPeriph_Driver/src/stm32f4xx_fsmc.c ****   assert_param(IS_FSMC_CLK_DIV(FSMC_NORSRAMInitStruct->FSMC_ReadWriteTimingStruct->FSMC_CLKDivision
 113              		.loc 1 178 3 view .LVU35
 179:Drivers/STM32F4xx_StdPeriph_Driver/src/stm32f4xx_fsmc.c ****   assert_param(IS_FSMC_DATA_LATENCY(FSMC_NORSRAMInitStruct->FSMC_ReadWriteTimingStruct->FSMC_DataLa
 114              		.loc 1 179 3 view .LVU36
 180:Drivers/STM32F4xx_StdPeriph_Driver/src/stm32f4xx_fsmc.c ****   assert_param(IS_FSMC_ACCESS_MODE(FSMC_NORSRAMInitStruct->FSMC_ReadWriteTimingStruct->FSMC_AccessM
 115              		.loc 1 180 3 view .LVU37
 181:Drivers/STM32F4xx_StdPeriph_Driver/src/stm32f4xx_fsmc.c **** 
 182:Drivers/STM32F4xx_StdPeriph_Driver/src/stm32f4xx_fsmc.c ****   /* Get the BTCR register value */
 183:Drivers/STM32F4xx_StdPeriph_Driver/src/stm32f4xx_fsmc.c ****   tmpbcr = FSMC_Bank1->BTCR[FSMC_NORSRAMInitStruct->FSMC_Bank];
 116              		.loc 1 183 3 view .LVU38
 117              		.loc 1 183 51 is_stmt 0 view .LVU39
 118 0002 0168     		ldr	r1, [r0]
 119              		.loc 1 183 10 view .LVU40
 120 0004 4FF02042 		mov	r2, #-1610612736
 121 0008 52F82130 		ldr	r3, [r2, r1, lsl #2]
 122              	.LVL6:
 184:Drivers/STM32F4xx_StdPeriph_Driver/src/stm32f4xx_fsmc.c **** 
 185:Drivers/STM32F4xx_StdPeriph_Driver/src/stm32f4xx_fsmc.c ****   /* Clear MBKEN, MUXEN, MTYP, MWID, FACCEN, BURSTEN, WAITPOL, WRAPMOD, WAITCFG, WREN,
 186:Drivers/STM32F4xx_StdPeriph_Driver/src/stm32f4xx_fsmc.c ****            WAITEN, EXTMOD, ASYNCWAIT, CBURSTRW and CCLKEN bits */
 187:Drivers/STM32F4xx_StdPeriph_Driver/src/stm32f4xx_fsmc.c ****   tmpbcr &= ((uint32_t)~(FSMC_BCR1_MBKEN    | FSMC_BCR1_MUXEN    | FSMC_BCR1_MTYP     | \
 123              		.loc 1 187 3 is_stmt 1 view .LVU41
 124              		.loc 1 187 10 is_stmt 0 view .LVU42
 125 000c 354C     		ldr	r4, .L11
 126 000e 1C40     		ands	r4, r4, r3
 127              	.LVL7:
 188:Drivers/STM32F4xx_StdPeriph_Driver/src/stm32f4xx_fsmc.c ****                          FSMC_BCR1_MWID      | FSMC_BCR1_FACCEN   | FSMC_BCR1_BURSTEN  | \
 189:Drivers/STM32F4xx_StdPeriph_Driver/src/stm32f4xx_fsmc.c ****                          FSMC_BCR1_WAITPOL   | FSMC_BCR1_WRAPMOD  | FSMC_BCR1_WAITCFG  | \
 190:Drivers/STM32F4xx_StdPeriph_Driver/src/stm32f4xx_fsmc.c ****                          FSMC_BCR1_WREN      | FSMC_BCR1_WAITEN   | FSMC_BCR1_EXTMOD   | \
 191:Drivers/STM32F4xx_StdPeriph_Driver/src/stm32f4xx_fsmc.c ****                          FSMC_BCR1_ASYNCWAIT | FSMC_BCR1_CBURSTRW));
 192:Drivers/STM32F4xx_StdPeriph_Driver/src/stm32f4xx_fsmc.c **** 
 193:Drivers/STM32F4xx_StdPeriph_Driver/src/stm32f4xx_fsmc.c ****   /* Bank1 NOR/SRAM control register configuration */ 
 194:Drivers/STM32F4xx_StdPeriph_Driver/src/stm32f4xx_fsmc.c ****   tmpbcr |= (uint32_t)FSMC_NORSRAMInitStruct->FSMC_DataAddressMux |
 128              		.loc 1 194 3 is_stmt 1 view .LVU43
 129              		.loc 1 194 45 is_stmt 0 view .LVU44
 130 0010 4368     		ldr	r3, [r0, #4]
 131              		.loc 1 194 67 view .LVU45
 132 0012 8568     		ldr	r5, [r0, #8]
 133 0014 2B43     		orrs	r3, r3, r5
 195:Drivers/STM32F4xx_StdPeriph_Driver/src/stm32f4xx_fsmc.c ****             FSMC_NORSRAMInitStruct->FSMC_MemoryType |
 134              		.loc 1 195 53 view .LVU46
 135 0016 C568     		ldr	r5, [r0, #12]
 136 0018 2B43     		orrs	r3, r3, r5
 196:Drivers/STM32F4xx_StdPeriph_Driver/src/stm32f4xx_fsmc.c ****             FSMC_NORSRAMInitStruct->FSMC_MemoryDataWidth |
 137              		.loc 1 196 58 view .LVU47
 138 001a 0569     		ldr	r5, [r0, #16]
 139 001c 2B43     		orrs	r3, r3, r5
 197:Drivers/STM32F4xx_StdPeriph_Driver/src/stm32f4xx_fsmc.c ****             FSMC_NORSRAMInitStruct->FSMC_BurstAccessMode |
 140              		.loc 1 197 58 view .LVU48
 141 001e 4569     		ldr	r5, [r0, #20]
 142 0020 2B43     		orrs	r3, r3, r5
 198:Drivers/STM32F4xx_StdPeriph_Driver/src/stm32f4xx_fsmc.c ****             FSMC_NORSRAMInitStruct->FSMC_AsynchronousWait |
 143              		.loc 1 198 59 view .LVU49
 144 0022 8569     		ldr	r5, [r0, #24]
 145 0024 2B43     		orrs	r3, r3, r5
ARM GAS  /tmp/ccSXeS9O.s 			page 7


 199:Drivers/STM32F4xx_StdPeriph_Driver/src/stm32f4xx_fsmc.c ****             FSMC_NORSRAMInitStruct->FSMC_WaitSignalPolarity |
 146              		.loc 1 199 61 view .LVU50
 147 0026 C569     		ldr	r5, [r0, #28]
 148 0028 2B43     		orrs	r3, r3, r5
 200:Drivers/STM32F4xx_StdPeriph_Driver/src/stm32f4xx_fsmc.c ****             FSMC_NORSRAMInitStruct->FSMC_WrapMode |
 149              		.loc 1 200 51 view .LVU51
 150 002a 056A     		ldr	r5, [r0, #32]
 151 002c 2B43     		orrs	r3, r3, r5
 201:Drivers/STM32F4xx_StdPeriph_Driver/src/stm32f4xx_fsmc.c ****             FSMC_NORSRAMInitStruct->FSMC_WaitSignalActive |
 152              		.loc 1 201 59 view .LVU52
 153 002e 456A     		ldr	r5, [r0, #36]
 154 0030 2B43     		orrs	r3, r3, r5
 202:Drivers/STM32F4xx_StdPeriph_Driver/src/stm32f4xx_fsmc.c ****             FSMC_NORSRAMInitStruct->FSMC_WriteOperation |
 155              		.loc 1 202 57 view .LVU53
 156 0032 856A     		ldr	r5, [r0, #40]
 157 0034 2B43     		orrs	r3, r3, r5
 203:Drivers/STM32F4xx_StdPeriph_Driver/src/stm32f4xx_fsmc.c ****             FSMC_NORSRAMInitStruct->FSMC_WaitSignal |
 158              		.loc 1 203 53 view .LVU54
 159 0036 C56A     		ldr	r5, [r0, #44]
 160 0038 2B43     		orrs	r3, r3, r5
 204:Drivers/STM32F4xx_StdPeriph_Driver/src/stm32f4xx_fsmc.c ****             FSMC_NORSRAMInitStruct->FSMC_ExtendedMode |
 161              		.loc 1 204 55 view .LVU55
 162 003a 056B     		ldr	r5, [r0, #48]
 163 003c 2B43     		orrs	r3, r3, r5
 194:Drivers/STM32F4xx_StdPeriph_Driver/src/stm32f4xx_fsmc.c ****             FSMC_NORSRAMInitStruct->FSMC_MemoryType |
 164              		.loc 1 194 10 view .LVU56
 165 003e 2343     		orrs	r3, r3, r4
 166              	.LVL8:
 205:Drivers/STM32F4xx_StdPeriph_Driver/src/stm32f4xx_fsmc.c ****             FSMC_NORSRAMInitStruct->FSMC_WriteBurst;
 206:Drivers/STM32F4xx_StdPeriph_Driver/src/stm32f4xx_fsmc.c **** 			
 207:Drivers/STM32F4xx_StdPeriph_Driver/src/stm32f4xx_fsmc.c ****   FSMC_Bank1->BTCR[FSMC_NORSRAMInitStruct->FSMC_Bank] = tmpbcr;
 167              		.loc 1 207 3 is_stmt 1 view .LVU57
 168              		.loc 1 207 55 is_stmt 0 view .LVU58
 169 0040 42F82130 		str	r3, [r2, r1, lsl #2]
 208:Drivers/STM32F4xx_StdPeriph_Driver/src/stm32f4xx_fsmc.c ****   
 209:Drivers/STM32F4xx_StdPeriph_Driver/src/stm32f4xx_fsmc.c ****   if(FSMC_NORSRAMInitStruct->FSMC_MemoryType == FSMC_MemoryType_NOR)
 170              		.loc 1 209 3 is_stmt 1 view .LVU59
 171              		.loc 1 209 28 is_stmt 0 view .LVU60
 172 0044 8368     		ldr	r3, [r0, #8]
 173              	.LVL9:
 174              		.loc 1 209 5 view .LVU61
 175 0046 082B     		cmp	r3, #8
 176 0048 2BD0     		beq	.L9
 177              	.LVL10:
 178              	.L5:
 210:Drivers/STM32F4xx_StdPeriph_Driver/src/stm32f4xx_fsmc.c ****   {
 211:Drivers/STM32F4xx_StdPeriph_Driver/src/stm32f4xx_fsmc.c ****     FSMC_Bank1->BTCR[FSMC_NORSRAMInitStruct->FSMC_Bank] |= (uint32_t)BCR_FACCEN_SET;
 212:Drivers/STM32F4xx_StdPeriph_Driver/src/stm32f4xx_fsmc.c ****   }
 213:Drivers/STM32F4xx_StdPeriph_Driver/src/stm32f4xx_fsmc.c ****   
 214:Drivers/STM32F4xx_StdPeriph_Driver/src/stm32f4xx_fsmc.c ****   /* Get the BTCR register value */
 215:Drivers/STM32F4xx_StdPeriph_Driver/src/stm32f4xx_fsmc.c ****   tmpbtr = FSMC_Bank1->BTCR[FSMC_NORSRAMInitStruct->FSMC_Bank+1];
 179              		.loc 1 215 3 is_stmt 1 view .LVU62
 180              		.loc 1 215 51 is_stmt 0 view .LVU63
 181 004a 0168     		ldr	r1, [r0]
 182              		.loc 1 215 62 view .LVU64
 183 004c 0131     		adds	r1, r1, #1
 184              		.loc 1 215 10 view .LVU65
ARM GAS  /tmp/ccSXeS9O.s 			page 8


 185 004e 4FF0204C 		mov	ip, #-1610612736
 186 0052 5CF82140 		ldr	r4, [ip, r1, lsl #2]
 187              	.LVL11:
 216:Drivers/STM32F4xx_StdPeriph_Driver/src/stm32f4xx_fsmc.c **** 
 217:Drivers/STM32F4xx_StdPeriph_Driver/src/stm32f4xx_fsmc.c ****   /* Clear ADDSET, ADDHLD, DATAST, BUSTURN, CLKDIV, DATLAT and ACCMOD bits */
 218:Drivers/STM32F4xx_StdPeriph_Driver/src/stm32f4xx_fsmc.c ****   tmpbtr &= ((uint32_t)~(FSMC_BTR1_ADDSET | FSMC_BTR1_ADDHLD | FSMC_BTR1_DATAST | \
 188              		.loc 1 218 3 is_stmt 1 view .LVU66
 189              		.loc 1 218 10 is_stmt 0 view .LVU67
 190 0056 04F04044 		and	r4, r4, #-1073741824
 191              	.LVL12:
 219:Drivers/STM32F4xx_StdPeriph_Driver/src/stm32f4xx_fsmc.c ****                        FSMC_BTR1_BUSTURN | FSMC_BTR1_CLKDIV | FSMC_BTR1_DATLAT | \
 220:Drivers/STM32F4xx_StdPeriph_Driver/src/stm32f4xx_fsmc.c ****                        FSMC_BTR1_ACCMOD));
 221:Drivers/STM32F4xx_StdPeriph_Driver/src/stm32f4xx_fsmc.c **** 					   
 222:Drivers/STM32F4xx_StdPeriph_Driver/src/stm32f4xx_fsmc.c ****   /* Bank1 NOR/SRAM timing register configuration */
 223:Drivers/STM32F4xx_StdPeriph_Driver/src/stm32f4xx_fsmc.c ****   tmpbtr |= (uint32_t)FSMC_NORSRAMInitStruct->FSMC_ReadWriteTimingStruct->FSMC_AddressSetupTime |
 192              		.loc 1 223 3 is_stmt 1 view .LVU68
 193              		.loc 1 223 45 is_stmt 0 view .LVU69
 194 005a 426B     		ldr	r2, [r0, #52]
 195              		.loc 1 223 73 view .LVU70
 196 005c 1368     		ldr	r3, [r2]
 197              		.loc 1 223 97 view .LVU71
 198 005e 5568     		ldr	r5, [r2, #4]
 199 0060 43EA0513 		orr	r3, r3, r5, lsl #4
 224:Drivers/STM32F4xx_StdPeriph_Driver/src/stm32f4xx_fsmc.c ****             (FSMC_NORSRAMInitStruct->FSMC_ReadWriteTimingStruct->FSMC_AddressHoldTime << 4) |
 200              		.loc 1 224 93 view .LVU72
 201 0064 9568     		ldr	r5, [r2, #8]
 202 0066 43EA0523 		orr	r3, r3, r5, lsl #8
 225:Drivers/STM32F4xx_StdPeriph_Driver/src/stm32f4xx_fsmc.c ****             (FSMC_NORSRAMInitStruct->FSMC_ReadWriteTimingStruct->FSMC_DataSetupTime << 8) |
 203              		.loc 1 225 91 view .LVU73
 204 006a D568     		ldr	r5, [r2, #12]
 205 006c 43EA0543 		orr	r3, r3, r5, lsl #16
 226:Drivers/STM32F4xx_StdPeriph_Driver/src/stm32f4xx_fsmc.c ****             (FSMC_NORSRAMInitStruct->FSMC_ReadWriteTimingStruct->FSMC_BusTurnAroundDuration << 16) 
 206              		.loc 1 226 100 view .LVU74
 207 0070 1569     		ldr	r5, [r2, #16]
 208 0072 43EA0553 		orr	r3, r3, r5, lsl #20
 227:Drivers/STM32F4xx_StdPeriph_Driver/src/stm32f4xx_fsmc.c ****             (FSMC_NORSRAMInitStruct->FSMC_ReadWriteTimingStruct->FSMC_CLKDivision << 20) |
 209              		.loc 1 227 90 view .LVU75
 210 0076 5569     		ldr	r5, [r2, #20]
 211 0078 43EA0563 		orr	r3, r3, r5, lsl #24
 228:Drivers/STM32F4xx_StdPeriph_Driver/src/stm32f4xx_fsmc.c ****             (FSMC_NORSRAMInitStruct->FSMC_ReadWriteTimingStruct->FSMC_DataLatency << 24) |
 229:Drivers/STM32F4xx_StdPeriph_Driver/src/stm32f4xx_fsmc.c ****              FSMC_NORSRAMInitStruct->FSMC_ReadWriteTimingStruct->FSMC_AccessMode;
 212              		.loc 1 229 64 view .LVU76
 213 007c 9269     		ldr	r2, [r2, #24]
 228:Drivers/STM32F4xx_StdPeriph_Driver/src/stm32f4xx_fsmc.c ****             (FSMC_NORSRAMInitStruct->FSMC_ReadWriteTimingStruct->FSMC_DataLatency << 24) |
 214              		.loc 1 228 90 view .LVU77
 215 007e 1343     		orrs	r3, r3, r2
 223:Drivers/STM32F4xx_StdPeriph_Driver/src/stm32f4xx_fsmc.c ****             (FSMC_NORSRAMInitStruct->FSMC_ReadWriteTimingStruct->FSMC_AddressHoldTime << 4) |
 216              		.loc 1 223 10 view .LVU78
 217 0080 2343     		orrs	r3, r3, r4
 218              	.LVL13:
 230:Drivers/STM32F4xx_StdPeriph_Driver/src/stm32f4xx_fsmc.c ****             
 231:Drivers/STM32F4xx_StdPeriph_Driver/src/stm32f4xx_fsmc.c ****   FSMC_Bank1->BTCR[FSMC_NORSRAMInitStruct->FSMC_Bank+1] = tmpbtr;
 219              		.loc 1 231 3 is_stmt 1 view .LVU79
 220              		.loc 1 231 57 is_stmt 0 view .LVU80
 221 0082 4CF82130 		str	r3, [ip, r1, lsl #2]
 232:Drivers/STM32F4xx_StdPeriph_Driver/src/stm32f4xx_fsmc.c **** 	
 233:Drivers/STM32F4xx_StdPeriph_Driver/src/stm32f4xx_fsmc.c ****   /* Bank1 NOR/SRAM timing register for write configuration, if extended mode is used */
ARM GAS  /tmp/ccSXeS9O.s 			page 9


 234:Drivers/STM32F4xx_StdPeriph_Driver/src/stm32f4xx_fsmc.c ****   if(FSMC_NORSRAMInitStruct->FSMC_ExtendedMode == FSMC_ExtendedMode_Enable)
 222              		.loc 1 234 3 is_stmt 1 view .LVU81
 223              		.loc 1 234 28 is_stmt 0 view .LVU82
 224 0086 C36A     		ldr	r3, [r0, #44]
 225              	.LVL14:
 226              		.loc 1 234 5 view .LVU83
 227 0088 B3F5804F 		cmp	r3, #16384
 228 008c 11D0     		beq	.L10
 235:Drivers/STM32F4xx_StdPeriph_Driver/src/stm32f4xx_fsmc.c ****   {
 236:Drivers/STM32F4xx_StdPeriph_Driver/src/stm32f4xx_fsmc.c ****     assert_param(IS_FSMC_ADDRESS_SETUP_TIME(FSMC_NORSRAMInitStruct->FSMC_WriteTimingStruct->FSMC_Ad
 237:Drivers/STM32F4xx_StdPeriph_Driver/src/stm32f4xx_fsmc.c ****     assert_param(IS_FSMC_ADDRESS_HOLD_TIME(FSMC_NORSRAMInitStruct->FSMC_WriteTimingStruct->FSMC_Add
 238:Drivers/STM32F4xx_StdPeriph_Driver/src/stm32f4xx_fsmc.c ****     assert_param(IS_FSMC_DATASETUP_TIME(FSMC_NORSRAMInitStruct->FSMC_WriteTimingStruct->FSMC_DataSe
 239:Drivers/STM32F4xx_StdPeriph_Driver/src/stm32f4xx_fsmc.c ****     assert_param(IS_FSMC_TURNAROUND_TIME(FSMC_NORSRAMInitStruct->FSMC_WriteTimingStruct->FSMC_BusTu
 240:Drivers/STM32F4xx_StdPeriph_Driver/src/stm32f4xx_fsmc.c ****     assert_param(IS_FSMC_ACCESS_MODE(FSMC_NORSRAMInitStruct->FSMC_WriteTimingStruct->FSMC_AccessMod
 241:Drivers/STM32F4xx_StdPeriph_Driver/src/stm32f4xx_fsmc.c ****     
 242:Drivers/STM32F4xx_StdPeriph_Driver/src/stm32f4xx_fsmc.c ****     /* Get the BWTR register value */
 243:Drivers/STM32F4xx_StdPeriph_Driver/src/stm32f4xx_fsmc.c ****     tmpbwr = FSMC_Bank1E->BWTR[FSMC_NORSRAMInitStruct->FSMC_Bank];
 244:Drivers/STM32F4xx_StdPeriph_Driver/src/stm32f4xx_fsmc.c ****     
 245:Drivers/STM32F4xx_StdPeriph_Driver/src/stm32f4xx_fsmc.c ****     /* Clear ADDSET, ADDHLD, DATAST, BUSTURN, and ACCMOD bits */
 246:Drivers/STM32F4xx_StdPeriph_Driver/src/stm32f4xx_fsmc.c ****     tmpbwr &= ((uint32_t)~(FSMC_BWTR1_ADDSET | FSMC_BWTR1_ADDHLD | FSMC_BWTR1_DATAST | \
 247:Drivers/STM32F4xx_StdPeriph_Driver/src/stm32f4xx_fsmc.c ****                            FSMC_BWTR1_BUSTURN | FSMC_BWTR1_ACCMOD));
 248:Drivers/STM32F4xx_StdPeriph_Driver/src/stm32f4xx_fsmc.c ****     
 249:Drivers/STM32F4xx_StdPeriph_Driver/src/stm32f4xx_fsmc.c ****     tmpbwr |= (uint32_t)FSMC_NORSRAMInitStruct->FSMC_WriteTimingStruct->FSMC_AddressSetupTime |
 250:Drivers/STM32F4xx_StdPeriph_Driver/src/stm32f4xx_fsmc.c ****                        (FSMC_NORSRAMInitStruct->FSMC_WriteTimingStruct->FSMC_AddressHoldTime << 4 )
 251:Drivers/STM32F4xx_StdPeriph_Driver/src/stm32f4xx_fsmc.c ****                        (FSMC_NORSRAMInitStruct->FSMC_WriteTimingStruct->FSMC_DataSetupTime << 8) |
 252:Drivers/STM32F4xx_StdPeriph_Driver/src/stm32f4xx_fsmc.c ****                        (FSMC_NORSRAMInitStruct->FSMC_WriteTimingStruct->FSMC_BusTurnAroundDuration 
 253:Drivers/STM32F4xx_StdPeriph_Driver/src/stm32f4xx_fsmc.c ****                         FSMC_NORSRAMInitStruct->FSMC_WriteTimingStruct->FSMC_AccessMode;
 254:Drivers/STM32F4xx_StdPeriph_Driver/src/stm32f4xx_fsmc.c ****     
 255:Drivers/STM32F4xx_StdPeriph_Driver/src/stm32f4xx_fsmc.c ****     FSMC_Bank1E->BWTR[FSMC_NORSRAMInitStruct->FSMC_Bank] = tmpbwr;
 256:Drivers/STM32F4xx_StdPeriph_Driver/src/stm32f4xx_fsmc.c ****   }
 257:Drivers/STM32F4xx_StdPeriph_Driver/src/stm32f4xx_fsmc.c ****   else
 258:Drivers/STM32F4xx_StdPeriph_Driver/src/stm32f4xx_fsmc.c ****   {
 259:Drivers/STM32F4xx_StdPeriph_Driver/src/stm32f4xx_fsmc.c ****     FSMC_Bank1E->BWTR[FSMC_NORSRAMInitStruct->FSMC_Bank] = 0x0FFFFFFF;
 229              		.loc 1 259 5 is_stmt 1 view .LVU84
 230              		.loc 1 259 45 is_stmt 0 view .LVU85
 231 008e 0368     		ldr	r3, [r0]
 232              		.loc 1 259 58 view .LVU86
 233 0090 9B00     		lsls	r3, r3, #2
 234 0092 03F12043 		add	r3, r3, #-1610612736
 235 0096 6FF07042 		mvn	r2, #-268435456
 236 009a C3F80421 		str	r2, [r3, #260]
 237              	.LVL15:
 238              	.L4:
 260:Drivers/STM32F4xx_StdPeriph_Driver/src/stm32f4xx_fsmc.c ****   }
 261:Drivers/STM32F4xx_StdPeriph_Driver/src/stm32f4xx_fsmc.c **** }
 239              		.loc 1 261 1 view .LVU87
 240 009e 30BC     		pop	{r4, r5}
 241              		.cfi_remember_state
 242              		.cfi_restore 5
 243              		.cfi_restore 4
 244              		.cfi_def_cfa_offset 0
 245              		.loc 1 261 1 view .LVU88
 246 00a0 7047     		bx	lr
 247              	.LVL16:
 248              	.L9:
 249              		.cfi_restore_state
 211:Drivers/STM32F4xx_StdPeriph_Driver/src/stm32f4xx_fsmc.c ****   }
ARM GAS  /tmp/ccSXeS9O.s 			page 10


 250              		.loc 1 211 5 is_stmt 1 view .LVU89
 211:Drivers/STM32F4xx_StdPeriph_Driver/src/stm32f4xx_fsmc.c ****   }
 251              		.loc 1 211 44 is_stmt 0 view .LVU90
 252 00a2 0168     		ldr	r1, [r0]
 253              	.LVL17:
 211:Drivers/STM32F4xx_StdPeriph_Driver/src/stm32f4xx_fsmc.c ****   }
 254              		.loc 1 211 57 view .LVU91
 255 00a4 52F82130 		ldr	r3, [r2, r1, lsl #2]
 256 00a8 43F04003 		orr	r3, r3, #64
 257 00ac 42F82130 		str	r3, [r2, r1, lsl #2]
 211:Drivers/STM32F4xx_StdPeriph_Driver/src/stm32f4xx_fsmc.c ****   }
 258              		.loc 1 211 57 view .LVU92
 259 00b0 CBE7     		b	.L5
 260              	.LVL18:
 261              	.L10:
 236:Drivers/STM32F4xx_StdPeriph_Driver/src/stm32f4xx_fsmc.c ****     assert_param(IS_FSMC_ADDRESS_HOLD_TIME(FSMC_NORSRAMInitStruct->FSMC_WriteTimingStruct->FSMC_Add
 262              		.loc 1 236 5 is_stmt 1 view .LVU93
 237:Drivers/STM32F4xx_StdPeriph_Driver/src/stm32f4xx_fsmc.c ****     assert_param(IS_FSMC_DATASETUP_TIME(FSMC_NORSRAMInitStruct->FSMC_WriteTimingStruct->FSMC_DataSe
 263              		.loc 1 237 5 view .LVU94
 238:Drivers/STM32F4xx_StdPeriph_Driver/src/stm32f4xx_fsmc.c ****     assert_param(IS_FSMC_TURNAROUND_TIME(FSMC_NORSRAMInitStruct->FSMC_WriteTimingStruct->FSMC_BusTu
 264              		.loc 1 238 5 view .LVU95
 239:Drivers/STM32F4xx_StdPeriph_Driver/src/stm32f4xx_fsmc.c ****     assert_param(IS_FSMC_ACCESS_MODE(FSMC_NORSRAMInitStruct->FSMC_WriteTimingStruct->FSMC_AccessMod
 265              		.loc 1 239 5 view .LVU96
 240:Drivers/STM32F4xx_StdPeriph_Driver/src/stm32f4xx_fsmc.c ****     
 266              		.loc 1 240 5 view .LVU97
 243:Drivers/STM32F4xx_StdPeriph_Driver/src/stm32f4xx_fsmc.c ****     
 267              		.loc 1 243 5 view .LVU98
 243:Drivers/STM32F4xx_StdPeriph_Driver/src/stm32f4xx_fsmc.c ****     
 268              		.loc 1 243 54 is_stmt 0 view .LVU99
 269 00b2 0268     		ldr	r2, [r0]
 243:Drivers/STM32F4xx_StdPeriph_Driver/src/stm32f4xx_fsmc.c ****     
 270              		.loc 1 243 12 view .LVU100
 271 00b4 9200     		lsls	r2, r2, #2
 272 00b6 6244     		add	r2, r2, ip
 273 00b8 D2F80431 		ldr	r3, [r2, #260]
 274              	.LVL19:
 246:Drivers/STM32F4xx_StdPeriph_Driver/src/stm32f4xx_fsmc.c ****                            FSMC_BWTR1_BUSTURN | FSMC_BWTR1_ACCMOD));
 275              		.loc 1 246 5 is_stmt 1 view .LVU101
 246:Drivers/STM32F4xx_StdPeriph_Driver/src/stm32f4xx_fsmc.c ****                            FSMC_BWTR1_BUSTURN | FSMC_BWTR1_ACCMOD));
 276              		.loc 1 246 12 is_stmt 0 view .LVU102
 277 00bc 0A4C     		ldr	r4, .L11+4
 278 00be 1C40     		ands	r4, r4, r3
 279              	.LVL20:
 249:Drivers/STM32F4xx_StdPeriph_Driver/src/stm32f4xx_fsmc.c ****                        (FSMC_NORSRAMInitStruct->FSMC_WriteTimingStruct->FSMC_AddressHoldTime << 4 )
 280              		.loc 1 249 5 is_stmt 1 view .LVU103
 249:Drivers/STM32F4xx_StdPeriph_Driver/src/stm32f4xx_fsmc.c ****                        (FSMC_NORSRAMInitStruct->FSMC_WriteTimingStruct->FSMC_AddressHoldTime << 4 )
 281              		.loc 1 249 47 is_stmt 0 view .LVU104
 282 00c0 816B     		ldr	r1, [r0, #56]
 283              	.LVL21:
 249:Drivers/STM32F4xx_StdPeriph_Driver/src/stm32f4xx_fsmc.c ****                        (FSMC_NORSRAMInitStruct->FSMC_WriteTimingStruct->FSMC_AddressHoldTime << 4 )
 284              		.loc 1 249 71 view .LVU105
 285 00c2 0B68     		ldr	r3, [r1]
 250:Drivers/STM32F4xx_StdPeriph_Driver/src/stm32f4xx_fsmc.c ****                        (FSMC_NORSRAMInitStruct->FSMC_WriteTimingStruct->FSMC_DataSetupTime << 8) |
 286              		.loc 1 250 71 view .LVU106
 287 00c4 4868     		ldr	r0, [r1, #4]
 288              	.LVL22:
 249:Drivers/STM32F4xx_StdPeriph_Driver/src/stm32f4xx_fsmc.c ****                        (FSMC_NORSRAMInitStruct->FSMC_WriteTimingStruct->FSMC_AddressHoldTime << 4 )
ARM GAS  /tmp/ccSXeS9O.s 			page 11


 289              		.loc 1 249 95 view .LVU107
 290 00c6 43EA0013 		orr	r3, r3, r0, lsl #4
 251:Drivers/STM32F4xx_StdPeriph_Driver/src/stm32f4xx_fsmc.c ****                        (FSMC_NORSRAMInitStruct->FSMC_WriteTimingStruct->FSMC_BusTurnAroundDuration 
 291              		.loc 1 251 71 view .LVU108
 292 00ca 8868     		ldr	r0, [r1, #8]
 250:Drivers/STM32F4xx_StdPeriph_Driver/src/stm32f4xx_fsmc.c ****                        (FSMC_NORSRAMInitStruct->FSMC_WriteTimingStruct->FSMC_DataSetupTime << 8) |
 293              		.loc 1 250 100 view .LVU109
 294 00cc 43EA0023 		orr	r3, r3, r0, lsl #8
 252:Drivers/STM32F4xx_StdPeriph_Driver/src/stm32f4xx_fsmc.c ****                         FSMC_NORSRAMInitStruct->FSMC_WriteTimingStruct->FSMC_AccessMode;
 295              		.loc 1 252 71 view .LVU110
 296 00d0 C868     		ldr	r0, [r1, #12]
 251:Drivers/STM32F4xx_StdPeriph_Driver/src/stm32f4xx_fsmc.c ****                        (FSMC_NORSRAMInitStruct->FSMC_WriteTimingStruct->FSMC_BusTurnAroundDuration 
 297              		.loc 1 251 98 view .LVU111
 298 00d2 43EA0043 		orr	r3, r3, r0, lsl #16
 253:Drivers/STM32F4xx_StdPeriph_Driver/src/stm32f4xx_fsmc.c ****     
 299              		.loc 1 253 71 view .LVU112
 300 00d6 8969     		ldr	r1, [r1, #24]
 252:Drivers/STM32F4xx_StdPeriph_Driver/src/stm32f4xx_fsmc.c ****                         FSMC_NORSRAMInitStruct->FSMC_WriteTimingStruct->FSMC_AccessMode;
 301              		.loc 1 252 107 view .LVU113
 302 00d8 0B43     		orrs	r3, r3, r1
 249:Drivers/STM32F4xx_StdPeriph_Driver/src/stm32f4xx_fsmc.c ****                        (FSMC_NORSRAMInitStruct->FSMC_WriteTimingStruct->FSMC_AddressHoldTime << 4 )
 303              		.loc 1 249 12 view .LVU114
 304 00da 2343     		orrs	r3, r3, r4
 305              	.LVL23:
 255:Drivers/STM32F4xx_StdPeriph_Driver/src/stm32f4xx_fsmc.c ****   }
 306              		.loc 1 255 5 is_stmt 1 view .LVU115
 255:Drivers/STM32F4xx_StdPeriph_Driver/src/stm32f4xx_fsmc.c ****   }
 307              		.loc 1 255 58 is_stmt 0 view .LVU116
 308 00dc C2F80431 		str	r3, [r2, #260]
 255:Drivers/STM32F4xx_StdPeriph_Driver/src/stm32f4xx_fsmc.c ****   }
 309              		.loc 1 255 58 view .LVU117
 310 00e0 DDE7     		b	.L4
 311              	.L12:
 312 00e2 00BF     		.align	2
 313              	.L11:
 314 00e4 8000F7FF 		.word	-589696
 315 00e8 0000F0CF 		.word	-806354944
 316              		.cfi_endproc
 317              	.LFE124:
 319              		.section	.text.FSMC_NORSRAMStructInit,"ax",%progbits
 320              		.align	1
 321              		.global	FSMC_NORSRAMStructInit
 322              		.syntax unified
 323              		.thumb
 324              		.thumb_func
 326              	FSMC_NORSRAMStructInit:
 327              	.LVL24:
 328              	.LFB125:
 262:Drivers/STM32F4xx_StdPeriph_Driver/src/stm32f4xx_fsmc.c **** 
 263:Drivers/STM32F4xx_StdPeriph_Driver/src/stm32f4xx_fsmc.c **** /**
 264:Drivers/STM32F4xx_StdPeriph_Driver/src/stm32f4xx_fsmc.c ****   * @brief  Fills each FSMC_NORSRAMInitStruct member with its default value.
 265:Drivers/STM32F4xx_StdPeriph_Driver/src/stm32f4xx_fsmc.c ****   * @param  FSMC_NORSRAMInitStruct: pointer to a FSMC_NORSRAMInitTypeDef structure 
 266:Drivers/STM32F4xx_StdPeriph_Driver/src/stm32f4xx_fsmc.c ****   *         which will be initialized.
 267:Drivers/STM32F4xx_StdPeriph_Driver/src/stm32f4xx_fsmc.c ****   * @retval None
 268:Drivers/STM32F4xx_StdPeriph_Driver/src/stm32f4xx_fsmc.c ****   */
 269:Drivers/STM32F4xx_StdPeriph_Driver/src/stm32f4xx_fsmc.c **** void FSMC_NORSRAMStructInit(FSMC_NORSRAMInitTypeDef* FSMC_NORSRAMInitStruct)
 270:Drivers/STM32F4xx_StdPeriph_Driver/src/stm32f4xx_fsmc.c **** {  
ARM GAS  /tmp/ccSXeS9O.s 			page 12


 329              		.loc 1 270 1 is_stmt 1 view -0
 330              		.cfi_startproc
 331              		@ args = 0, pretend = 0, frame = 0
 332              		@ frame_needed = 0, uses_anonymous_args = 0
 333              		@ link register save eliminated.
 271:Drivers/STM32F4xx_StdPeriph_Driver/src/stm32f4xx_fsmc.c ****   /* Reset NOR/SRAM Init structure parameters values */
 272:Drivers/STM32F4xx_StdPeriph_Driver/src/stm32f4xx_fsmc.c ****   FSMC_NORSRAMInitStruct->FSMC_Bank = FSMC_Bank1_NORSRAM1;
 334              		.loc 1 272 3 view .LVU119
 335              		.loc 1 272 37 is_stmt 0 view .LVU120
 336 0000 0023     		movs	r3, #0
 337 0002 0360     		str	r3, [r0]
 273:Drivers/STM32F4xx_StdPeriph_Driver/src/stm32f4xx_fsmc.c ****   FSMC_NORSRAMInitStruct->FSMC_DataAddressMux = FSMC_DataAddressMux_Enable;
 338              		.loc 1 273 3 is_stmt 1 view .LVU121
 339              		.loc 1 273 47 is_stmt 0 view .LVU122
 340 0004 0222     		movs	r2, #2
 341 0006 4260     		str	r2, [r0, #4]
 274:Drivers/STM32F4xx_StdPeriph_Driver/src/stm32f4xx_fsmc.c ****   FSMC_NORSRAMInitStruct->FSMC_MemoryType = FSMC_MemoryType_SRAM;
 342              		.loc 1 274 3 is_stmt 1 view .LVU123
 343              		.loc 1 274 43 is_stmt 0 view .LVU124
 344 0008 8360     		str	r3, [r0, #8]
 275:Drivers/STM32F4xx_StdPeriph_Driver/src/stm32f4xx_fsmc.c ****   FSMC_NORSRAMInitStruct->FSMC_MemoryDataWidth = FSMC_MemoryDataWidth_8b;
 345              		.loc 1 275 3 is_stmt 1 view .LVU125
 346              		.loc 1 275 48 is_stmt 0 view .LVU126
 347 000a C360     		str	r3, [r0, #12]
 276:Drivers/STM32F4xx_StdPeriph_Driver/src/stm32f4xx_fsmc.c ****   FSMC_NORSRAMInitStruct->FSMC_BurstAccessMode = FSMC_BurstAccessMode_Disable;
 348              		.loc 1 276 3 is_stmt 1 view .LVU127
 349              		.loc 1 276 48 is_stmt 0 view .LVU128
 350 000c 0361     		str	r3, [r0, #16]
 277:Drivers/STM32F4xx_StdPeriph_Driver/src/stm32f4xx_fsmc.c ****   FSMC_NORSRAMInitStruct->FSMC_AsynchronousWait = FSMC_AsynchronousWait_Disable;
 351              		.loc 1 277 3 is_stmt 1 view .LVU129
 352              		.loc 1 277 49 is_stmt 0 view .LVU130
 353 000e 4361     		str	r3, [r0, #20]
 278:Drivers/STM32F4xx_StdPeriph_Driver/src/stm32f4xx_fsmc.c ****   FSMC_NORSRAMInitStruct->FSMC_WaitSignalPolarity = FSMC_WaitSignalPolarity_Low;
 354              		.loc 1 278 3 is_stmt 1 view .LVU131
 355              		.loc 1 278 51 is_stmt 0 view .LVU132
 356 0010 8361     		str	r3, [r0, #24]
 279:Drivers/STM32F4xx_StdPeriph_Driver/src/stm32f4xx_fsmc.c ****   FSMC_NORSRAMInitStruct->FSMC_WrapMode = FSMC_WrapMode_Disable;
 357              		.loc 1 279 3 is_stmt 1 view .LVU133
 358              		.loc 1 279 41 is_stmt 0 view .LVU134
 359 0012 C361     		str	r3, [r0, #28]
 280:Drivers/STM32F4xx_StdPeriph_Driver/src/stm32f4xx_fsmc.c ****   FSMC_NORSRAMInitStruct->FSMC_WaitSignalActive = FSMC_WaitSignalActive_BeforeWaitState;
 360              		.loc 1 280 3 is_stmt 1 view .LVU135
 361              		.loc 1 280 49 is_stmt 0 view .LVU136
 362 0014 0362     		str	r3, [r0, #32]
 281:Drivers/STM32F4xx_StdPeriph_Driver/src/stm32f4xx_fsmc.c ****   FSMC_NORSRAMInitStruct->FSMC_WriteOperation = FSMC_WriteOperation_Enable;
 363              		.loc 1 281 3 is_stmt 1 view .LVU137
 364              		.loc 1 281 47 is_stmt 0 view .LVU138
 365 0016 4FF48052 		mov	r2, #4096
 366 001a 4262     		str	r2, [r0, #36]
 282:Drivers/STM32F4xx_StdPeriph_Driver/src/stm32f4xx_fsmc.c ****   FSMC_NORSRAMInitStruct->FSMC_WaitSignal = FSMC_WaitSignal_Enable;
 367              		.loc 1 282 3 is_stmt 1 view .LVU139
 368              		.loc 1 282 43 is_stmt 0 view .LVU140
 369 001c 4FF40052 		mov	r2, #8192
 370 0020 8262     		str	r2, [r0, #40]
 283:Drivers/STM32F4xx_StdPeriph_Driver/src/stm32f4xx_fsmc.c ****   FSMC_NORSRAMInitStruct->FSMC_ExtendedMode = FSMC_ExtendedMode_Disable;
 371              		.loc 1 283 3 is_stmt 1 view .LVU141
 372              		.loc 1 283 45 is_stmt 0 view .LVU142
ARM GAS  /tmp/ccSXeS9O.s 			page 13


 373 0022 C362     		str	r3, [r0, #44]
 284:Drivers/STM32F4xx_StdPeriph_Driver/src/stm32f4xx_fsmc.c ****   FSMC_NORSRAMInitStruct->FSMC_WriteBurst = FSMC_WriteBurst_Disable;
 374              		.loc 1 284 3 is_stmt 1 view .LVU143
 375              		.loc 1 284 43 is_stmt 0 view .LVU144
 376 0024 0363     		str	r3, [r0, #48]
 285:Drivers/STM32F4xx_StdPeriph_Driver/src/stm32f4xx_fsmc.c ****   FSMC_NORSRAMInitStruct->FSMC_ReadWriteTimingStruct = (FSMC_NORSRAMTimingInitTypeDef*)&FSMC_Defaul
 377              		.loc 1 285 3 is_stmt 1 view .LVU145
 378              		.loc 1 285 54 is_stmt 0 view .LVU146
 379 0026 024B     		ldr	r3, .L14
 380 0028 4363     		str	r3, [r0, #52]
 286:Drivers/STM32F4xx_StdPeriph_Driver/src/stm32f4xx_fsmc.c ****   FSMC_NORSRAMInitStruct->FSMC_WriteTimingStruct = (FSMC_NORSRAMTimingInitTypeDef*)&FSMC_DefaultTim
 381              		.loc 1 286 3 is_stmt 1 view .LVU147
 382              		.loc 1 286 50 is_stmt 0 view .LVU148
 383 002a 8363     		str	r3, [r0, #56]
 287:Drivers/STM32F4xx_StdPeriph_Driver/src/stm32f4xx_fsmc.c **** }
 384              		.loc 1 287 1 view .LVU149
 385 002c 7047     		bx	lr
 386              	.L15:
 387 002e 00BF     		.align	2
 388              	.L14:
 389 0030 00000000 		.word	.LANCHOR0
 390              		.cfi_endproc
 391              	.LFE125:
 393              		.section	.text.FSMC_NORSRAMCmd,"ax",%progbits
 394              		.align	1
 395              		.global	FSMC_NORSRAMCmd
 396              		.syntax unified
 397              		.thumb
 398              		.thumb_func
 400              	FSMC_NORSRAMCmd:
 401              	.LVL25:
 402              	.LFB126:
 288:Drivers/STM32F4xx_StdPeriph_Driver/src/stm32f4xx_fsmc.c **** 
 289:Drivers/STM32F4xx_StdPeriph_Driver/src/stm32f4xx_fsmc.c **** /**
 290:Drivers/STM32F4xx_StdPeriph_Driver/src/stm32f4xx_fsmc.c ****   * @brief  Enables or disables the specified NOR/SRAM Memory Bank.
 291:Drivers/STM32F4xx_StdPeriph_Driver/src/stm32f4xx_fsmc.c ****   * @param  FSMC_Bank: specifies the FSMC Bank to be used
 292:Drivers/STM32F4xx_StdPeriph_Driver/src/stm32f4xx_fsmc.c ****   *          This parameter can be one of the following values:
 293:Drivers/STM32F4xx_StdPeriph_Driver/src/stm32f4xx_fsmc.c ****   *            @arg FSMC_Bank1_NORSRAM1: FSMC Bank1 NOR/SRAM1  
 294:Drivers/STM32F4xx_StdPeriph_Driver/src/stm32f4xx_fsmc.c ****   *            @arg FSMC_Bank1_NORSRAM2: FSMC Bank1 NOR/SRAM2 
 295:Drivers/STM32F4xx_StdPeriph_Driver/src/stm32f4xx_fsmc.c ****   *            @arg FSMC_Bank1_NORSRAM3: FSMC Bank1 NOR/SRAM3 
 296:Drivers/STM32F4xx_StdPeriph_Driver/src/stm32f4xx_fsmc.c ****   *            @arg FSMC_Bank1_NORSRAM4: FSMC Bank1 NOR/SRAM4 
 297:Drivers/STM32F4xx_StdPeriph_Driver/src/stm32f4xx_fsmc.c ****   * @param  NewState: new state of the FSMC_Bank. This parameter can be: ENABLE or DISABLE.
 298:Drivers/STM32F4xx_StdPeriph_Driver/src/stm32f4xx_fsmc.c ****   * @retval None
 299:Drivers/STM32F4xx_StdPeriph_Driver/src/stm32f4xx_fsmc.c ****   */
 300:Drivers/STM32F4xx_StdPeriph_Driver/src/stm32f4xx_fsmc.c **** void FSMC_NORSRAMCmd(uint32_t FSMC_Bank, FunctionalState NewState)
 301:Drivers/STM32F4xx_StdPeriph_Driver/src/stm32f4xx_fsmc.c **** {
 403              		.loc 1 301 1 is_stmt 1 view -0
 404              		.cfi_startproc
 405              		@ args = 0, pretend = 0, frame = 0
 406              		@ frame_needed = 0, uses_anonymous_args = 0
 407              		@ link register save eliminated.
 302:Drivers/STM32F4xx_StdPeriph_Driver/src/stm32f4xx_fsmc.c ****   assert_param(IS_FSMC_NORSRAM_BANK(FSMC_Bank));
 408              		.loc 1 302 3 view .LVU151
 303:Drivers/STM32F4xx_StdPeriph_Driver/src/stm32f4xx_fsmc.c ****   assert_param(IS_FUNCTIONAL_STATE(NewState));
 409              		.loc 1 303 3 view .LVU152
 304:Drivers/STM32F4xx_StdPeriph_Driver/src/stm32f4xx_fsmc.c ****   
 305:Drivers/STM32F4xx_StdPeriph_Driver/src/stm32f4xx_fsmc.c ****   if (NewState != DISABLE)
ARM GAS  /tmp/ccSXeS9O.s 			page 14


 410              		.loc 1 305 3 view .LVU153
 411              		.loc 1 305 6 is_stmt 0 view .LVU154
 412 0000 41B1     		cbz	r1, .L17
 306:Drivers/STM32F4xx_StdPeriph_Driver/src/stm32f4xx_fsmc.c ****   {
 307:Drivers/STM32F4xx_StdPeriph_Driver/src/stm32f4xx_fsmc.c ****     /* Enable the selected NOR/SRAM Bank by setting the PBKEN bit in the BCRx register */
 308:Drivers/STM32F4xx_StdPeriph_Driver/src/stm32f4xx_fsmc.c ****     FSMC_Bank1->BTCR[FSMC_Bank] |= BCR_MBKEN_SET;
 413              		.loc 1 308 5 is_stmt 1 view .LVU155
 414              		.loc 1 308 33 is_stmt 0 view .LVU156
 415 0002 4FF02042 		mov	r2, #-1610612736
 416 0006 52F82030 		ldr	r3, [r2, r0, lsl #2]
 417 000a 43F00103 		orr	r3, r3, #1
 418 000e 42F82030 		str	r3, [r2, r0, lsl #2]
 419 0012 7047     		bx	lr
 420              	.L17:
 309:Drivers/STM32F4xx_StdPeriph_Driver/src/stm32f4xx_fsmc.c ****   }
 310:Drivers/STM32F4xx_StdPeriph_Driver/src/stm32f4xx_fsmc.c ****   else
 311:Drivers/STM32F4xx_StdPeriph_Driver/src/stm32f4xx_fsmc.c ****   {
 312:Drivers/STM32F4xx_StdPeriph_Driver/src/stm32f4xx_fsmc.c ****     /* Disable the selected NOR/SRAM Bank by clearing the PBKEN bit in the BCRx register */
 313:Drivers/STM32F4xx_StdPeriph_Driver/src/stm32f4xx_fsmc.c ****     FSMC_Bank1->BTCR[FSMC_Bank] &= BCR_MBKEN_RESET;
 421              		.loc 1 313 5 is_stmt 1 view .LVU157
 422              		.loc 1 313 33 is_stmt 0 view .LVU158
 423 0014 4FF02042 		mov	r2, #-1610612736
 424 0018 52F82010 		ldr	r1, [r2, r0, lsl #2]
 425              	.LVL26:
 426              		.loc 1 313 33 view .LVU159
 427 001c 024B     		ldr	r3, .L19
 428 001e 0B40     		ands	r3, r3, r1
 429 0020 42F82030 		str	r3, [r2, r0, lsl #2]
 314:Drivers/STM32F4xx_StdPeriph_Driver/src/stm32f4xx_fsmc.c ****   }
 315:Drivers/STM32F4xx_StdPeriph_Driver/src/stm32f4xx_fsmc.c **** }
 430              		.loc 1 315 1 view .LVU160
 431 0024 7047     		bx	lr
 432              	.L20:
 433 0026 00BF     		.align	2
 434              	.L19:
 435 0028 FEFF0F00 		.word	1048574
 436              		.cfi_endproc
 437              	.LFE126:
 439              		.section	.text.FSMC_NANDDeInit,"ax",%progbits
 440              		.align	1
 441              		.global	FSMC_NANDDeInit
 442              		.syntax unified
 443              		.thumb
 444              		.thumb_func
 446              	FSMC_NANDDeInit:
 447              	.LVL27:
 448              	.LFB127:
 316:Drivers/STM32F4xx_StdPeriph_Driver/src/stm32f4xx_fsmc.c **** /**
 317:Drivers/STM32F4xx_StdPeriph_Driver/src/stm32f4xx_fsmc.c ****   * @}
 318:Drivers/STM32F4xx_StdPeriph_Driver/src/stm32f4xx_fsmc.c ****   */
 319:Drivers/STM32F4xx_StdPeriph_Driver/src/stm32f4xx_fsmc.c **** 
 320:Drivers/STM32F4xx_StdPeriph_Driver/src/stm32f4xx_fsmc.c **** /** @defgroup FSMC_Group2 NAND Controller functions
 321:Drivers/STM32F4xx_StdPeriph_Driver/src/stm32f4xx_fsmc.c ****  *  @brief   NAND Controller functions 
 322:Drivers/STM32F4xx_StdPeriph_Driver/src/stm32f4xx_fsmc.c ****  *
 323:Drivers/STM32F4xx_StdPeriph_Driver/src/stm32f4xx_fsmc.c **** @verbatim   
 324:Drivers/STM32F4xx_StdPeriph_Driver/src/stm32f4xx_fsmc.c ****  ===============================================================================
 325:Drivers/STM32F4xx_StdPeriph_Driver/src/stm32f4xx_fsmc.c ****                     ##### NAND Controller functions #####
ARM GAS  /tmp/ccSXeS9O.s 			page 15


 326:Drivers/STM32F4xx_StdPeriph_Driver/src/stm32f4xx_fsmc.c ****  ===============================================================================  
 327:Drivers/STM32F4xx_StdPeriph_Driver/src/stm32f4xx_fsmc.c **** 
 328:Drivers/STM32F4xx_StdPeriph_Driver/src/stm32f4xx_fsmc.c ****  [..]  The following sequence should be followed to configure the FSMC to interface 
 329:Drivers/STM32F4xx_StdPeriph_Driver/src/stm32f4xx_fsmc.c ****        with 8-bit or 16-bit NAND memory connected to the NAND Bank:
 330:Drivers/STM32F4xx_StdPeriph_Driver/src/stm32f4xx_fsmc.c ****  
 331:Drivers/STM32F4xx_StdPeriph_Driver/src/stm32f4xx_fsmc.c ****   (#) Enable the clock for the FSMC and associated GPIOs using the following functions:
 332:Drivers/STM32F4xx_StdPeriph_Driver/src/stm32f4xx_fsmc.c ****       (++)  RCC_AHB3PeriphClockCmd(RCC_AHB3Periph_FSMC, ENABLE);
 333:Drivers/STM32F4xx_StdPeriph_Driver/src/stm32f4xx_fsmc.c ****       (++)  RCC_AHB1PeriphClockCmd(RCC_AHB1Periph_GPIOx, ENABLE);
 334:Drivers/STM32F4xx_StdPeriph_Driver/src/stm32f4xx_fsmc.c **** 
 335:Drivers/STM32F4xx_StdPeriph_Driver/src/stm32f4xx_fsmc.c ****   (#) FSMC pins configuration 
 336:Drivers/STM32F4xx_StdPeriph_Driver/src/stm32f4xx_fsmc.c ****       (++) Connect the involved FSMC pins to AF12 using the following function 
 337:Drivers/STM32F4xx_StdPeriph_Driver/src/stm32f4xx_fsmc.c ****            GPIO_PinAFConfig(GPIOx, GPIO_PinSourcex, GPIO_AF_FSMC); 
 338:Drivers/STM32F4xx_StdPeriph_Driver/src/stm32f4xx_fsmc.c ****       (++) Configure these FSMC pins in alternate function mode by calling the function
 339:Drivers/STM32F4xx_StdPeriph_Driver/src/stm32f4xx_fsmc.c ****            GPIO_Init();    
 340:Drivers/STM32F4xx_StdPeriph_Driver/src/stm32f4xx_fsmc.c ****        
 341:Drivers/STM32F4xx_StdPeriph_Driver/src/stm32f4xx_fsmc.c ****   (#) Declare a FSMC_NANDInitTypeDef structure, for example:
 342:Drivers/STM32F4xx_StdPeriph_Driver/src/stm32f4xx_fsmc.c ****       FSMC_NANDInitTypeDef  FSMC_NANDInitStructure;
 343:Drivers/STM32F4xx_StdPeriph_Driver/src/stm32f4xx_fsmc.c ****       and fill the FSMC_NANDInitStructure variable with the allowed values of
 344:Drivers/STM32F4xx_StdPeriph_Driver/src/stm32f4xx_fsmc.c ****       the structure member.
 345:Drivers/STM32F4xx_StdPeriph_Driver/src/stm32f4xx_fsmc.c ****       
 346:Drivers/STM32F4xx_StdPeriph_Driver/src/stm32f4xx_fsmc.c ****   (#) Initialize the NAND Controller by calling the function
 347:Drivers/STM32F4xx_StdPeriph_Driver/src/stm32f4xx_fsmc.c ****       FSMC_NANDInit(&FSMC_NANDInitStructure); 
 348:Drivers/STM32F4xx_StdPeriph_Driver/src/stm32f4xx_fsmc.c **** 
 349:Drivers/STM32F4xx_StdPeriph_Driver/src/stm32f4xx_fsmc.c ****   (#) Then enable the NAND Bank, for example:
 350:Drivers/STM32F4xx_StdPeriph_Driver/src/stm32f4xx_fsmc.c ****       FSMC_NANDCmd(FSMC_Bank3_NAND, ENABLE);  
 351:Drivers/STM32F4xx_StdPeriph_Driver/src/stm32f4xx_fsmc.c **** 
 352:Drivers/STM32F4xx_StdPeriph_Driver/src/stm32f4xx_fsmc.c ****   (#) At this stage you can read/write from/to the memory connected to the NAND Bank. 
 353:Drivers/STM32F4xx_StdPeriph_Driver/src/stm32f4xx_fsmc.c ****    
 354:Drivers/STM32F4xx_StdPeriph_Driver/src/stm32f4xx_fsmc.c ****  [..]
 355:Drivers/STM32F4xx_StdPeriph_Driver/src/stm32f4xx_fsmc.c ****   (@) To enable the Error Correction Code (ECC), you have to use the function
 356:Drivers/STM32F4xx_StdPeriph_Driver/src/stm32f4xx_fsmc.c ****       FSMC_NANDECCCmd(FSMC_Bank3_NAND, ENABLE);  
 357:Drivers/STM32F4xx_StdPeriph_Driver/src/stm32f4xx_fsmc.c ****  [..]
 358:Drivers/STM32F4xx_StdPeriph_Driver/src/stm32f4xx_fsmc.c ****   (@) and to get the current ECC value you have to use the function
 359:Drivers/STM32F4xx_StdPeriph_Driver/src/stm32f4xx_fsmc.c ****       ECCval = FSMC_GetECC(FSMC_Bank3_NAND); 
 360:Drivers/STM32F4xx_StdPeriph_Driver/src/stm32f4xx_fsmc.c **** 
 361:Drivers/STM32F4xx_StdPeriph_Driver/src/stm32f4xx_fsmc.c **** @endverbatim
 362:Drivers/STM32F4xx_StdPeriph_Driver/src/stm32f4xx_fsmc.c ****   * @{
 363:Drivers/STM32F4xx_StdPeriph_Driver/src/stm32f4xx_fsmc.c ****   */
 364:Drivers/STM32F4xx_StdPeriph_Driver/src/stm32f4xx_fsmc.c ****   
 365:Drivers/STM32F4xx_StdPeriph_Driver/src/stm32f4xx_fsmc.c **** /**
 366:Drivers/STM32F4xx_StdPeriph_Driver/src/stm32f4xx_fsmc.c ****   * @brief  De-initializes the FSMC NAND Banks registers to their default reset values.
 367:Drivers/STM32F4xx_StdPeriph_Driver/src/stm32f4xx_fsmc.c ****   * @param  FSMC_Bank: specifies the FSMC Bank to be used
 368:Drivers/STM32F4xx_StdPeriph_Driver/src/stm32f4xx_fsmc.c ****   *          This parameter can be one of the following values:
 369:Drivers/STM32F4xx_StdPeriph_Driver/src/stm32f4xx_fsmc.c ****   *            @arg FSMC_Bank2_NAND: FSMC Bank2 NAND 
 370:Drivers/STM32F4xx_StdPeriph_Driver/src/stm32f4xx_fsmc.c ****   *            @arg FSMC_Bank3_NAND: FSMC Bank3 NAND 
 371:Drivers/STM32F4xx_StdPeriph_Driver/src/stm32f4xx_fsmc.c ****   * @retval None
 372:Drivers/STM32F4xx_StdPeriph_Driver/src/stm32f4xx_fsmc.c ****   */
 373:Drivers/STM32F4xx_StdPeriph_Driver/src/stm32f4xx_fsmc.c **** void FSMC_NANDDeInit(uint32_t FSMC_Bank)
 374:Drivers/STM32F4xx_StdPeriph_Driver/src/stm32f4xx_fsmc.c **** {
 449              		.loc 1 374 1 is_stmt 1 view -0
 450              		.cfi_startproc
 451              		@ args = 0, pretend = 0, frame = 0
 452              		@ frame_needed = 0, uses_anonymous_args = 0
 453              		@ link register save eliminated.
 375:Drivers/STM32F4xx_StdPeriph_Driver/src/stm32f4xx_fsmc.c ****   /* Check the parameter */
 376:Drivers/STM32F4xx_StdPeriph_Driver/src/stm32f4xx_fsmc.c ****   assert_param(IS_FSMC_NAND_BANK(FSMC_Bank));
 454              		.loc 1 376 3 view .LVU162
ARM GAS  /tmp/ccSXeS9O.s 			page 16


 377:Drivers/STM32F4xx_StdPeriph_Driver/src/stm32f4xx_fsmc.c ****   
 378:Drivers/STM32F4xx_StdPeriph_Driver/src/stm32f4xx_fsmc.c ****   if(FSMC_Bank == FSMC_Bank2_NAND)
 455              		.loc 1 378 3 view .LVU163
 456              		.loc 1 378 5 is_stmt 0 view .LVU164
 457 0000 1028     		cmp	r0, #16
 458 0002 0ED0     		beq	.L24
 379:Drivers/STM32F4xx_StdPeriph_Driver/src/stm32f4xx_fsmc.c ****   {
 380:Drivers/STM32F4xx_StdPeriph_Driver/src/stm32f4xx_fsmc.c ****     /* Set the FSMC_Bank2 registers to their reset values */
 381:Drivers/STM32F4xx_StdPeriph_Driver/src/stm32f4xx_fsmc.c ****     FSMC_Bank2->PCR2 = 0x00000018;
 382:Drivers/STM32F4xx_StdPeriph_Driver/src/stm32f4xx_fsmc.c ****     FSMC_Bank2->SR2 = 0x00000040;
 383:Drivers/STM32F4xx_StdPeriph_Driver/src/stm32f4xx_fsmc.c ****     FSMC_Bank2->PMEM2 = 0xFCFCFCFC;
 384:Drivers/STM32F4xx_StdPeriph_Driver/src/stm32f4xx_fsmc.c ****     FSMC_Bank2->PATT2 = 0xFCFCFCFC;  
 385:Drivers/STM32F4xx_StdPeriph_Driver/src/stm32f4xx_fsmc.c ****   }
 386:Drivers/STM32F4xx_StdPeriph_Driver/src/stm32f4xx_fsmc.c ****   /* FSMC_Bank3_NAND */  
 387:Drivers/STM32F4xx_StdPeriph_Driver/src/stm32f4xx_fsmc.c ****   else
 388:Drivers/STM32F4xx_StdPeriph_Driver/src/stm32f4xx_fsmc.c ****   {
 389:Drivers/STM32F4xx_StdPeriph_Driver/src/stm32f4xx_fsmc.c ****     /* Set the FSMC_Bank3 registers to their reset values */
 390:Drivers/STM32F4xx_StdPeriph_Driver/src/stm32f4xx_fsmc.c ****     FSMC_Bank3->PCR3 = 0x00000018;
 459              		.loc 1 390 5 is_stmt 1 view .LVU165
 460              		.loc 1 390 22 is_stmt 0 view .LVU166
 461 0004 4FF02043 		mov	r3, #-1610612736
 462 0008 1822     		movs	r2, #24
 463 000a C3F88020 		str	r2, [r3, #128]
 391:Drivers/STM32F4xx_StdPeriph_Driver/src/stm32f4xx_fsmc.c ****     FSMC_Bank3->SR3 = 0x00000040;
 464              		.loc 1 391 5 is_stmt 1 view .LVU167
 465              		.loc 1 391 21 is_stmt 0 view .LVU168
 466 000e 4022     		movs	r2, #64
 467 0010 C3F88420 		str	r2, [r3, #132]
 392:Drivers/STM32F4xx_StdPeriph_Driver/src/stm32f4xx_fsmc.c ****     FSMC_Bank3->PMEM3 = 0xFCFCFCFC;
 468              		.loc 1 392 5 is_stmt 1 view .LVU169
 469              		.loc 1 392 23 is_stmt 0 view .LVU170
 470 0014 4FF0FC32 		mov	r2, #-50529028
 471 0018 C3F88820 		str	r2, [r3, #136]
 393:Drivers/STM32F4xx_StdPeriph_Driver/src/stm32f4xx_fsmc.c ****     FSMC_Bank3->PATT3 = 0xFCFCFCFC; 
 472              		.loc 1 393 5 is_stmt 1 view .LVU171
 473              		.loc 1 393 23 is_stmt 0 view .LVU172
 474 001c C3F88C20 		str	r2, [r3, #140]
 394:Drivers/STM32F4xx_StdPeriph_Driver/src/stm32f4xx_fsmc.c ****   }  
 395:Drivers/STM32F4xx_StdPeriph_Driver/src/stm32f4xx_fsmc.c **** }
 475              		.loc 1 395 1 view .LVU173
 476 0020 7047     		bx	lr
 477              	.L24:
 381:Drivers/STM32F4xx_StdPeriph_Driver/src/stm32f4xx_fsmc.c ****     FSMC_Bank2->SR2 = 0x00000040;
 478              		.loc 1 381 5 is_stmt 1 view .LVU174
 381:Drivers/STM32F4xx_StdPeriph_Driver/src/stm32f4xx_fsmc.c ****     FSMC_Bank2->SR2 = 0x00000040;
 479              		.loc 1 381 22 is_stmt 0 view .LVU175
 480 0022 4FF02043 		mov	r3, #-1610612736
 481 0026 1822     		movs	r2, #24
 482 0028 1A66     		str	r2, [r3, #96]
 382:Drivers/STM32F4xx_StdPeriph_Driver/src/stm32f4xx_fsmc.c ****     FSMC_Bank2->PMEM2 = 0xFCFCFCFC;
 483              		.loc 1 382 5 is_stmt 1 view .LVU176
 382:Drivers/STM32F4xx_StdPeriph_Driver/src/stm32f4xx_fsmc.c ****     FSMC_Bank2->PMEM2 = 0xFCFCFCFC;
 484              		.loc 1 382 21 is_stmt 0 view .LVU177
 485 002a 4022     		movs	r2, #64
 486 002c 5A66     		str	r2, [r3, #100]
 383:Drivers/STM32F4xx_StdPeriph_Driver/src/stm32f4xx_fsmc.c ****     FSMC_Bank2->PATT2 = 0xFCFCFCFC;  
 487              		.loc 1 383 5 is_stmt 1 view .LVU178
ARM GAS  /tmp/ccSXeS9O.s 			page 17


 383:Drivers/STM32F4xx_StdPeriph_Driver/src/stm32f4xx_fsmc.c ****     FSMC_Bank2->PATT2 = 0xFCFCFCFC;  
 488              		.loc 1 383 23 is_stmt 0 view .LVU179
 489 002e 4FF0FC32 		mov	r2, #-50529028
 490 0032 9A66     		str	r2, [r3, #104]
 384:Drivers/STM32F4xx_StdPeriph_Driver/src/stm32f4xx_fsmc.c ****   }
 491              		.loc 1 384 5 is_stmt 1 view .LVU180
 384:Drivers/STM32F4xx_StdPeriph_Driver/src/stm32f4xx_fsmc.c ****   }
 492              		.loc 1 384 23 is_stmt 0 view .LVU181
 493 0034 DA66     		str	r2, [r3, #108]
 494 0036 7047     		bx	lr
 495              		.cfi_endproc
 496              	.LFE127:
 498              		.section	.text.FSMC_NANDInit,"ax",%progbits
 499              		.align	1
 500              		.global	FSMC_NANDInit
 501              		.syntax unified
 502              		.thumb
 503              		.thumb_func
 505              	FSMC_NANDInit:
 506              	.LVL28:
 507              	.LFB128:
 396:Drivers/STM32F4xx_StdPeriph_Driver/src/stm32f4xx_fsmc.c **** 
 397:Drivers/STM32F4xx_StdPeriph_Driver/src/stm32f4xx_fsmc.c **** /**
 398:Drivers/STM32F4xx_StdPeriph_Driver/src/stm32f4xx_fsmc.c ****   * @brief  Initializes the FSMC NAND Banks according to the specified parameters
 399:Drivers/STM32F4xx_StdPeriph_Driver/src/stm32f4xx_fsmc.c ****   *         in the FSMC_NANDInitStruct.
 400:Drivers/STM32F4xx_StdPeriph_Driver/src/stm32f4xx_fsmc.c ****   * @param  FSMC_NANDInitStruct : pointer to a FSMC_NANDInitTypeDef structure that
 401:Drivers/STM32F4xx_StdPeriph_Driver/src/stm32f4xx_fsmc.c ****   *         contains the configuration information for the FSMC NAND specified Banks.              
 402:Drivers/STM32F4xx_StdPeriph_Driver/src/stm32f4xx_fsmc.c ****   * @retval None
 403:Drivers/STM32F4xx_StdPeriph_Driver/src/stm32f4xx_fsmc.c ****   */
 404:Drivers/STM32F4xx_StdPeriph_Driver/src/stm32f4xx_fsmc.c **** void FSMC_NANDInit(FSMC_NANDInitTypeDef* FSMC_NANDInitStruct)
 405:Drivers/STM32F4xx_StdPeriph_Driver/src/stm32f4xx_fsmc.c **** {
 508              		.loc 1 405 1 is_stmt 1 view -0
 509              		.cfi_startproc
 510              		@ args = 0, pretend = 0, frame = 0
 511              		@ frame_needed = 0, uses_anonymous_args = 0
 512              		@ link register save eliminated.
 513              		.loc 1 405 1 is_stmt 0 view .LVU183
 514 0000 30B4     		push	{r4, r5}
 515              		.cfi_def_cfa_offset 8
 516              		.cfi_offset 4, -8
 517              		.cfi_offset 5, -4
 406:Drivers/STM32F4xx_StdPeriph_Driver/src/stm32f4xx_fsmc.c ****   uint32_t tmppcr = 0x00000000, tmppmem = 0x00000000, tmppatt = 0x00000000; 
 518              		.loc 1 406 3 is_stmt 1 view .LVU184
 519              	.LVL29:
 407:Drivers/STM32F4xx_StdPeriph_Driver/src/stm32f4xx_fsmc.c ****     
 408:Drivers/STM32F4xx_StdPeriph_Driver/src/stm32f4xx_fsmc.c ****   /* Check the parameters */
 409:Drivers/STM32F4xx_StdPeriph_Driver/src/stm32f4xx_fsmc.c ****   assert_param( IS_FSMC_NAND_BANK(FSMC_NANDInitStruct->FSMC_Bank));
 520              		.loc 1 409 3 view .LVU185
 410:Drivers/STM32F4xx_StdPeriph_Driver/src/stm32f4xx_fsmc.c ****   assert_param( IS_FSMC_WAIT_FEATURE(FSMC_NANDInitStruct->FSMC_Waitfeature));
 521              		.loc 1 410 3 view .LVU186
 411:Drivers/STM32F4xx_StdPeriph_Driver/src/stm32f4xx_fsmc.c ****   assert_param( IS_FSMC_MEMORY_WIDTH(FSMC_NANDInitStruct->FSMC_MemoryDataWidth));
 522              		.loc 1 411 3 view .LVU187
 412:Drivers/STM32F4xx_StdPeriph_Driver/src/stm32f4xx_fsmc.c ****   assert_param( IS_FSMC_ECC_STATE(FSMC_NANDInitStruct->FSMC_ECC));
 523              		.loc 1 412 3 view .LVU188
 413:Drivers/STM32F4xx_StdPeriph_Driver/src/stm32f4xx_fsmc.c ****   assert_param( IS_FSMC_ECCPAGE_SIZE(FSMC_NANDInitStruct->FSMC_ECCPageSize));
 524              		.loc 1 413 3 view .LVU189
 414:Drivers/STM32F4xx_StdPeriph_Driver/src/stm32f4xx_fsmc.c ****   assert_param( IS_FSMC_TCLR_TIME(FSMC_NANDInitStruct->FSMC_TCLRSetupTime));
ARM GAS  /tmp/ccSXeS9O.s 			page 18


 525              		.loc 1 414 3 view .LVU190
 415:Drivers/STM32F4xx_StdPeriph_Driver/src/stm32f4xx_fsmc.c ****   assert_param( IS_FSMC_TAR_TIME(FSMC_NANDInitStruct->FSMC_TARSetupTime));
 526              		.loc 1 415 3 view .LVU191
 416:Drivers/STM32F4xx_StdPeriph_Driver/src/stm32f4xx_fsmc.c ****   assert_param(IS_FSMC_SETUP_TIME(FSMC_NANDInitStruct->FSMC_CommonSpaceTimingStruct->FSMC_SetupTime
 527              		.loc 1 416 3 view .LVU192
 417:Drivers/STM32F4xx_StdPeriph_Driver/src/stm32f4xx_fsmc.c ****   assert_param(IS_FSMC_WAIT_TIME(FSMC_NANDInitStruct->FSMC_CommonSpaceTimingStruct->FSMC_WaitSetupT
 528              		.loc 1 417 3 view .LVU193
 418:Drivers/STM32F4xx_StdPeriph_Driver/src/stm32f4xx_fsmc.c ****   assert_param(IS_FSMC_HOLD_TIME(FSMC_NANDInitStruct->FSMC_CommonSpaceTimingStruct->FSMC_HoldSetupT
 529              		.loc 1 418 3 view .LVU194
 419:Drivers/STM32F4xx_StdPeriph_Driver/src/stm32f4xx_fsmc.c ****   assert_param(IS_FSMC_HIZ_TIME(FSMC_NANDInitStruct->FSMC_CommonSpaceTimingStruct->FSMC_HiZSetupTim
 530              		.loc 1 419 3 view .LVU195
 420:Drivers/STM32F4xx_StdPeriph_Driver/src/stm32f4xx_fsmc.c ****   assert_param(IS_FSMC_SETUP_TIME(FSMC_NANDInitStruct->FSMC_AttributeSpaceTimingStruct->FSMC_SetupT
 531              		.loc 1 420 3 view .LVU196
 421:Drivers/STM32F4xx_StdPeriph_Driver/src/stm32f4xx_fsmc.c ****   assert_param(IS_FSMC_WAIT_TIME(FSMC_NANDInitStruct->FSMC_AttributeSpaceTimingStruct->FSMC_WaitSet
 532              		.loc 1 421 3 view .LVU197
 422:Drivers/STM32F4xx_StdPeriph_Driver/src/stm32f4xx_fsmc.c ****   assert_param(IS_FSMC_HOLD_TIME(FSMC_NANDInitStruct->FSMC_AttributeSpaceTimingStruct->FSMC_HoldSet
 533              		.loc 1 422 3 view .LVU198
 423:Drivers/STM32F4xx_StdPeriph_Driver/src/stm32f4xx_fsmc.c ****   assert_param(IS_FSMC_HIZ_TIME(FSMC_NANDInitStruct->FSMC_AttributeSpaceTimingStruct->FSMC_HiZSetup
 534              		.loc 1 423 3 view .LVU199
 424:Drivers/STM32F4xx_StdPeriph_Driver/src/stm32f4xx_fsmc.c ****   
 425:Drivers/STM32F4xx_StdPeriph_Driver/src/stm32f4xx_fsmc.c ****   if(FSMC_NANDInitStruct->FSMC_Bank == FSMC_Bank2_NAND)
 535              		.loc 1 425 3 view .LVU200
 536              		.loc 1 425 25 is_stmt 0 view .LVU201
 537 0002 0168     		ldr	r1, [r0]
 538              		.loc 1 425 5 view .LVU202
 539 0004 1029     		cmp	r1, #16
 540 0006 42D0     		beq	.L35
 426:Drivers/STM32F4xx_StdPeriph_Driver/src/stm32f4xx_fsmc.c ****   {
 427:Drivers/STM32F4xx_StdPeriph_Driver/src/stm32f4xx_fsmc.c ****   /* Get the NAND bank 2 register value */
 428:Drivers/STM32F4xx_StdPeriph_Driver/src/stm32f4xx_fsmc.c ****     tmppcr = FSMC_Bank2->PCR2;
 429:Drivers/STM32F4xx_StdPeriph_Driver/src/stm32f4xx_fsmc.c ****   }
 430:Drivers/STM32F4xx_StdPeriph_Driver/src/stm32f4xx_fsmc.c ****   else
 431:Drivers/STM32F4xx_StdPeriph_Driver/src/stm32f4xx_fsmc.c ****   {
 432:Drivers/STM32F4xx_StdPeriph_Driver/src/stm32f4xx_fsmc.c ****   /* Get the NAND bank 3 register value */
 433:Drivers/STM32F4xx_StdPeriph_Driver/src/stm32f4xx_fsmc.c ****     tmppcr = FSMC_Bank3->PCR3;
 541              		.loc 1 433 5 is_stmt 1 view .LVU203
 542              		.loc 1 433 12 is_stmt 0 view .LVU204
 543 0008 4FF02043 		mov	r3, #-1610612736
 544 000c D3F88030 		ldr	r3, [r3, #128]
 545              	.LVL30:
 546              	.L27:
 434:Drivers/STM32F4xx_StdPeriph_Driver/src/stm32f4xx_fsmc.c ****   }
 435:Drivers/STM32F4xx_StdPeriph_Driver/src/stm32f4xx_fsmc.c **** 
 436:Drivers/STM32F4xx_StdPeriph_Driver/src/stm32f4xx_fsmc.c ****   /* Clear PWAITEN, PBKEN, PTYP, PWID, ECCEN, TCLR, TAR and ECCPS bits */
 437:Drivers/STM32F4xx_StdPeriph_Driver/src/stm32f4xx_fsmc.c ****   tmppcr &= ((uint32_t)~(FSMC_PCR2_PWAITEN  | FSMC_PCR2_PBKEN | FSMC_PCR2_PTYP | \
 547              		.loc 1 437 3 is_stmt 1 view .LVU205
 548              		.loc 1 437 10 is_stmt 0 view .LVU206
 549 0010 284A     		ldr	r2, .L39
 550 0012 1A40     		ands	r2, r2, r3
 551              	.LVL31:
 438:Drivers/STM32F4xx_StdPeriph_Driver/src/stm32f4xx_fsmc.c ****                          FSMC_PCR2_PWID | FSMC_PCR2_ECCEN | FSMC_PCR2_TCLR | \
 439:Drivers/STM32F4xx_StdPeriph_Driver/src/stm32f4xx_fsmc.c ****                          FSMC_PCR2_TAR | FSMC_PCR2_ECCPS));  
 440:Drivers/STM32F4xx_StdPeriph_Driver/src/stm32f4xx_fsmc.c **** 					   
 441:Drivers/STM32F4xx_StdPeriph_Driver/src/stm32f4xx_fsmc.c ****   /* Set the tmppcr value according to FSMC_NANDInitStruct parameters */
 442:Drivers/STM32F4xx_StdPeriph_Driver/src/stm32f4xx_fsmc.c ****   tmppcr |= (uint32_t)FSMC_NANDInitStruct->FSMC_Waitfeature |
 552              		.loc 1 442 3 is_stmt 1 view .LVU207
 553              		.loc 1 442 42 is_stmt 0 view .LVU208
ARM GAS  /tmp/ccSXeS9O.s 			page 19


 554 0014 4368     		ldr	r3, [r0, #4]
 443:Drivers/STM32F4xx_StdPeriph_Driver/src/stm32f4xx_fsmc.c ****                       PCR_MEMORYTYPE_NAND |
 444:Drivers/STM32F4xx_StdPeriph_Driver/src/stm32f4xx_fsmc.c ****                       FSMC_NANDInitStruct->FSMC_MemoryDataWidth |
 555              		.loc 1 444 42 view .LVU209
 556 0016 8468     		ldr	r4, [r0, #8]
 443:Drivers/STM32F4xx_StdPeriph_Driver/src/stm32f4xx_fsmc.c ****                       PCR_MEMORYTYPE_NAND |
 557              		.loc 1 443 43 view .LVU210
 558 0018 2343     		orrs	r3, r3, r4
 445:Drivers/STM32F4xx_StdPeriph_Driver/src/stm32f4xx_fsmc.c ****                       FSMC_NANDInitStruct->FSMC_ECC |
 559              		.loc 1 445 42 view .LVU211
 560 001a C468     		ldr	r4, [r0, #12]
 444:Drivers/STM32F4xx_StdPeriph_Driver/src/stm32f4xx_fsmc.c ****                       FSMC_NANDInitStruct->FSMC_ECC |
 561              		.loc 1 444 65 view .LVU212
 562 001c 2343     		orrs	r3, r3, r4
 446:Drivers/STM32F4xx_StdPeriph_Driver/src/stm32f4xx_fsmc.c ****                       FSMC_NANDInitStruct->FSMC_ECCPageSize |
 563              		.loc 1 446 42 view .LVU213
 564 001e 0469     		ldr	r4, [r0, #16]
 445:Drivers/STM32F4xx_StdPeriph_Driver/src/stm32f4xx_fsmc.c ****                       FSMC_NANDInitStruct->FSMC_ECC |
 565              		.loc 1 445 53 view .LVU214
 566 0020 2343     		orrs	r3, r3, r4
 447:Drivers/STM32F4xx_StdPeriph_Driver/src/stm32f4xx_fsmc.c ****                       (FSMC_NANDInitStruct->FSMC_TCLRSetupTime << 9 )|
 567              		.loc 1 447 43 view .LVU215
 568 0022 4469     		ldr	r4, [r0, #20]
 446:Drivers/STM32F4xx_StdPeriph_Driver/src/stm32f4xx_fsmc.c ****                       FSMC_NANDInitStruct->FSMC_ECCPageSize |
 569              		.loc 1 446 61 view .LVU216
 570 0024 43EA4423 		orr	r3, r3, r4, lsl #9
 448:Drivers/STM32F4xx_StdPeriph_Driver/src/stm32f4xx_fsmc.c ****                       (FSMC_NANDInitStruct->FSMC_TARSetupTime << 13);
 571              		.loc 1 448 43 view .LVU217
 572 0028 8469     		ldr	r4, [r0, #24]
 447:Drivers/STM32F4xx_StdPeriph_Driver/src/stm32f4xx_fsmc.c ****                       (FSMC_NANDInitStruct->FSMC_TCLRSetupTime << 9 )|
 573              		.loc 1 447 70 view .LVU218
 574 002a 43EA4433 		orr	r3, r3, r4, lsl #13
 442:Drivers/STM32F4xx_StdPeriph_Driver/src/stm32f4xx_fsmc.c ****                       PCR_MEMORYTYPE_NAND |
 575              		.loc 1 442 10 view .LVU219
 576 002e 1343     		orrs	r3, r3, r2
 577 0030 43F00803 		orr	r3, r3, #8
 578              	.LVL32:
 449:Drivers/STM32F4xx_StdPeriph_Driver/src/stm32f4xx_fsmc.c ****     
 450:Drivers/STM32F4xx_StdPeriph_Driver/src/stm32f4xx_fsmc.c ****   if(FSMC_NANDInitStruct->FSMC_Bank == FSMC_Bank2_NAND)
 579              		.loc 1 450 3 is_stmt 1 view .LVU220
 580              		.loc 1 450 5 is_stmt 0 view .LVU221
 581 0034 1029     		cmp	r1, #16
 582 0036 2ED0     		beq	.L36
 451:Drivers/STM32F4xx_StdPeriph_Driver/src/stm32f4xx_fsmc.c ****   {
 452:Drivers/STM32F4xx_StdPeriph_Driver/src/stm32f4xx_fsmc.c ****     /* Get the NAND bank 2 register value */
 453:Drivers/STM32F4xx_StdPeriph_Driver/src/stm32f4xx_fsmc.c ****     tmppmem = FSMC_Bank2->PMEM2;
 454:Drivers/STM32F4xx_StdPeriph_Driver/src/stm32f4xx_fsmc.c ****   }
 455:Drivers/STM32F4xx_StdPeriph_Driver/src/stm32f4xx_fsmc.c ****   else
 456:Drivers/STM32F4xx_StdPeriph_Driver/src/stm32f4xx_fsmc.c ****   {
 457:Drivers/STM32F4xx_StdPeriph_Driver/src/stm32f4xx_fsmc.c ****     /* Get the NAND bank 3 register value */
 458:Drivers/STM32F4xx_StdPeriph_Driver/src/stm32f4xx_fsmc.c ****     tmppmem = FSMC_Bank3->PMEM3;
 583              		.loc 1 458 5 is_stmt 1 view .LVU222
 584              		.loc 1 458 13 is_stmt 0 view .LVU223
 585 0038 4FF02042 		mov	r2, #-1610612736
 586 003c D2F88820 		ldr	r2, [r2, #136]
 587              	.LVL33:
 588              	.L29:
ARM GAS  /tmp/ccSXeS9O.s 			page 20


 459:Drivers/STM32F4xx_StdPeriph_Driver/src/stm32f4xx_fsmc.c ****   } 
 460:Drivers/STM32F4xx_StdPeriph_Driver/src/stm32f4xx_fsmc.c ****   
 461:Drivers/STM32F4xx_StdPeriph_Driver/src/stm32f4xx_fsmc.c ****   /* Clear MEMSETx, MEMWAITx, MEMHOLDx and MEMHIZx bits */
 462:Drivers/STM32F4xx_StdPeriph_Driver/src/stm32f4xx_fsmc.c ****   tmppmem &= ((uint32_t)~(FSMC_PMEM2_MEMSET2  | FSMC_PMEM2_MEMWAIT2 | FSMC_PMEM2_MEMHOLD2 | \
 589              		.loc 1 462 3 is_stmt 1 view .LVU224
 463:Drivers/STM32F4xx_StdPeriph_Driver/src/stm32f4xx_fsmc.c ****                           FSMC_PMEM2_MEMHIZ2));
 464:Drivers/STM32F4xx_StdPeriph_Driver/src/stm32f4xx_fsmc.c **** 					   
 465:Drivers/STM32F4xx_StdPeriph_Driver/src/stm32f4xx_fsmc.c ****   /* Set tmppmem value according to FSMC_CommonSpaceTimingStructure parameters */
 466:Drivers/STM32F4xx_StdPeriph_Driver/src/stm32f4xx_fsmc.c ****   tmppmem |= (uint32_t)FSMC_NANDInitStruct->FSMC_CommonSpaceTimingStruct->FSMC_SetupTime |
 590              		.loc 1 466 3 view .LVU225
 591              		.loc 1 466 43 is_stmt 0 view .LVU226
 592 0040 C569     		ldr	r5, [r0, #28]
 593              		.loc 1 466 73 view .LVU227
 594 0042 2A68     		ldr	r2, [r5]
 467:Drivers/STM32F4xx_StdPeriph_Driver/src/stm32f4xx_fsmc.c ****                        (FSMC_NANDInitStruct->FSMC_CommonSpaceTimingStruct->FSMC_WaitSetupTime << 8)
 595              		.loc 1 467 74 view .LVU228
 596 0044 6C68     		ldr	r4, [r5, #4]
 466:Drivers/STM32F4xx_StdPeriph_Driver/src/stm32f4xx_fsmc.c ****                        (FSMC_NANDInitStruct->FSMC_CommonSpaceTimingStruct->FSMC_WaitSetupTime << 8)
 597              		.loc 1 466 90 view .LVU229
 598 0046 42EA0424 		orr	r4, r2, r4, lsl #8
 468:Drivers/STM32F4xx_StdPeriph_Driver/src/stm32f4xx_fsmc.c ****                        (FSMC_NANDInitStruct->FSMC_CommonSpaceTimingStruct->FSMC_HoldSetupTime << 16
 599              		.loc 1 468 74 view .LVU230
 600 004a AA68     		ldr	r2, [r5, #8]
 467:Drivers/STM32F4xx_StdPeriph_Driver/src/stm32f4xx_fsmc.c ****                        (FSMC_NANDInitStruct->FSMC_CommonSpaceTimingStruct->FSMC_WaitSetupTime << 8)
 601              		.loc 1 467 101 view .LVU231
 602 004c 44EA0244 		orr	r4, r4, r2, lsl #16
 469:Drivers/STM32F4xx_StdPeriph_Driver/src/stm32f4xx_fsmc.c ****                        (FSMC_NANDInitStruct->FSMC_CommonSpaceTimingStruct->FSMC_HiZSetupTime << 24)
 603              		.loc 1 469 74 view .LVU232
 604 0050 EA68     		ldr	r2, [r5, #12]
 468:Drivers/STM32F4xx_StdPeriph_Driver/src/stm32f4xx_fsmc.c ****                        (FSMC_NANDInitStruct->FSMC_CommonSpaceTimingStruct->FSMC_HoldSetupTime << 16
 605              		.loc 1 468 101 view .LVU233
 606 0052 44EA0264 		orr	r4, r4, r2, lsl #24
 607              	.LVL34:
 470:Drivers/STM32F4xx_StdPeriph_Driver/src/stm32f4xx_fsmc.c **** 
 471:Drivers/STM32F4xx_StdPeriph_Driver/src/stm32f4xx_fsmc.c ****   if(FSMC_NANDInitStruct->FSMC_Bank == FSMC_Bank2_NAND)
 608              		.loc 1 471 3 is_stmt 1 view .LVU234
 609              		.loc 1 471 5 is_stmt 0 view .LVU235
 610 0056 1029     		cmp	r1, #16
 611 0058 21D0     		beq	.L37
 472:Drivers/STM32F4xx_StdPeriph_Driver/src/stm32f4xx_fsmc.c ****   {
 473:Drivers/STM32F4xx_StdPeriph_Driver/src/stm32f4xx_fsmc.c ****     /* Get the NAND bank 2 register value */
 474:Drivers/STM32F4xx_StdPeriph_Driver/src/stm32f4xx_fsmc.c ****     tmppatt = FSMC_Bank2->PATT2;
 475:Drivers/STM32F4xx_StdPeriph_Driver/src/stm32f4xx_fsmc.c ****   }
 476:Drivers/STM32F4xx_StdPeriph_Driver/src/stm32f4xx_fsmc.c ****   else
 477:Drivers/STM32F4xx_StdPeriph_Driver/src/stm32f4xx_fsmc.c ****   {
 478:Drivers/STM32F4xx_StdPeriph_Driver/src/stm32f4xx_fsmc.c ****     /* Get the NAND bank 3 register value */
 479:Drivers/STM32F4xx_StdPeriph_Driver/src/stm32f4xx_fsmc.c ****     tmppatt = FSMC_Bank2->PATT2;
 612              		.loc 1 479 5 is_stmt 1 view .LVU236
 613              		.loc 1 479 13 is_stmt 0 view .LVU237
 614 005a 4FF02042 		mov	r2, #-1610612736
 615 005e D26E     		ldr	r2, [r2, #108]
 616              	.LVL35:
 617              	.L31:
 480:Drivers/STM32F4xx_StdPeriph_Driver/src/stm32f4xx_fsmc.c ****   } 
 481:Drivers/STM32F4xx_StdPeriph_Driver/src/stm32f4xx_fsmc.c ****   
 482:Drivers/STM32F4xx_StdPeriph_Driver/src/stm32f4xx_fsmc.c ****   /* Clear ATTSETx, ATTWAITx, ATTHOLDx and ATTHIZx bits */
 483:Drivers/STM32F4xx_StdPeriph_Driver/src/stm32f4xx_fsmc.c ****   tmppatt &= ((uint32_t)~(FSMC_PATT2_ATTSET2  | FSMC_PATT2_ATTWAIT2 | FSMC_PATT2_ATTHOLD2 | \
ARM GAS  /tmp/ccSXeS9O.s 			page 21


 618              		.loc 1 483 3 is_stmt 1 view .LVU238
 484:Drivers/STM32F4xx_StdPeriph_Driver/src/stm32f4xx_fsmc.c ****                           FSMC_PATT2_ATTHIZ2));
 485:Drivers/STM32F4xx_StdPeriph_Driver/src/stm32f4xx_fsmc.c ****   
 486:Drivers/STM32F4xx_StdPeriph_Driver/src/stm32f4xx_fsmc.c ****   /* Set tmppatt value according to FSMC_AttributeSpaceTimingStructure parameters */
 487:Drivers/STM32F4xx_StdPeriph_Driver/src/stm32f4xx_fsmc.c ****   tmppatt |= (uint32_t)FSMC_NANDInitStruct->FSMC_AttributeSpaceTimingStruct->FSMC_SetupTime |
 619              		.loc 1 487 3 view .LVU239
 620              		.loc 1 487 43 is_stmt 0 view .LVU240
 621 0060 006A     		ldr	r0, [r0, #32]
 622              	.LVL36:
 623              		.loc 1 487 76 view .LVU241
 624 0062 0268     		ldr	r2, [r0]
 488:Drivers/STM32F4xx_StdPeriph_Driver/src/stm32f4xx_fsmc.c ****                        (FSMC_NANDInitStruct->FSMC_AttributeSpaceTimingStruct->FSMC_WaitSetupTime <<
 625              		.loc 1 488 77 view .LVU242
 626 0064 4568     		ldr	r5, [r0, #4]
 487:Drivers/STM32F4xx_StdPeriph_Driver/src/stm32f4xx_fsmc.c ****                        (FSMC_NANDInitStruct->FSMC_AttributeSpaceTimingStruct->FSMC_WaitSetupTime <<
 627              		.loc 1 487 93 view .LVU243
 628 0066 42EA0522 		orr	r2, r2, r5, lsl #8
 489:Drivers/STM32F4xx_StdPeriph_Driver/src/stm32f4xx_fsmc.c ****                        (FSMC_NANDInitStruct->FSMC_AttributeSpaceTimingStruct->FSMC_HoldSetupTime <<
 629              		.loc 1 489 77 view .LVU244
 630 006a 8568     		ldr	r5, [r0, #8]
 488:Drivers/STM32F4xx_StdPeriph_Driver/src/stm32f4xx_fsmc.c ****                        (FSMC_NANDInitStruct->FSMC_AttributeSpaceTimingStruct->FSMC_WaitSetupTime <<
 631              		.loc 1 488 104 view .LVU245
 632 006c 42EA0542 		orr	r2, r2, r5, lsl #16
 490:Drivers/STM32F4xx_StdPeriph_Driver/src/stm32f4xx_fsmc.c ****                        (FSMC_NANDInitStruct->FSMC_AttributeSpaceTimingStruct->FSMC_HiZSetupTime << 
 633              		.loc 1 490 77 view .LVU246
 634 0070 C068     		ldr	r0, [r0, #12]
 489:Drivers/STM32F4xx_StdPeriph_Driver/src/stm32f4xx_fsmc.c ****                        (FSMC_NANDInitStruct->FSMC_AttributeSpaceTimingStruct->FSMC_HoldSetupTime <<
 635              		.loc 1 489 104 view .LVU247
 636 0072 42EA0062 		orr	r2, r2, r0, lsl #24
 637              	.LVL37:
 491:Drivers/STM32F4xx_StdPeriph_Driver/src/stm32f4xx_fsmc.c ****   
 492:Drivers/STM32F4xx_StdPeriph_Driver/src/stm32f4xx_fsmc.c ****   if(FSMC_NANDInitStruct->FSMC_Bank == FSMC_Bank2_NAND)
 638              		.loc 1 492 3 is_stmt 1 view .LVU248
 639              		.loc 1 492 5 is_stmt 0 view .LVU249
 640 0076 1029     		cmp	r1, #16
 641 0078 15D0     		beq	.L38
 493:Drivers/STM32F4xx_StdPeriph_Driver/src/stm32f4xx_fsmc.c ****   {
 494:Drivers/STM32F4xx_StdPeriph_Driver/src/stm32f4xx_fsmc.c ****     /* FSMC_Bank2_NAND registers configuration */
 495:Drivers/STM32F4xx_StdPeriph_Driver/src/stm32f4xx_fsmc.c ****     FSMC_Bank2->PCR2 = tmppcr;
 496:Drivers/STM32F4xx_StdPeriph_Driver/src/stm32f4xx_fsmc.c ****     FSMC_Bank2->PMEM2 = tmppmem;
 497:Drivers/STM32F4xx_StdPeriph_Driver/src/stm32f4xx_fsmc.c ****     FSMC_Bank2->PATT2 = tmppatt;
 498:Drivers/STM32F4xx_StdPeriph_Driver/src/stm32f4xx_fsmc.c ****   }
 499:Drivers/STM32F4xx_StdPeriph_Driver/src/stm32f4xx_fsmc.c ****   else
 500:Drivers/STM32F4xx_StdPeriph_Driver/src/stm32f4xx_fsmc.c ****   {
 501:Drivers/STM32F4xx_StdPeriph_Driver/src/stm32f4xx_fsmc.c ****     /* FSMC_Bank3_NAND registers configuration */
 502:Drivers/STM32F4xx_StdPeriph_Driver/src/stm32f4xx_fsmc.c ****     FSMC_Bank3->PCR3 = tmppcr;
 642              		.loc 1 502 5 is_stmt 1 view .LVU250
 643              		.loc 1 502 22 is_stmt 0 view .LVU251
 644 007a 4FF02041 		mov	r1, #-1610612736
 645 007e C1F88030 		str	r3, [r1, #128]
 503:Drivers/STM32F4xx_StdPeriph_Driver/src/stm32f4xx_fsmc.c ****     FSMC_Bank3->PMEM3 = tmppmem;
 646              		.loc 1 503 5 is_stmt 1 view .LVU252
 647              		.loc 1 503 23 is_stmt 0 view .LVU253
 648 0082 C1F88840 		str	r4, [r1, #136]
 504:Drivers/STM32F4xx_StdPeriph_Driver/src/stm32f4xx_fsmc.c ****     FSMC_Bank3->PATT3 = tmppatt;
 649              		.loc 1 504 5 is_stmt 1 view .LVU254
 650              		.loc 1 504 23 is_stmt 0 view .LVU255
ARM GAS  /tmp/ccSXeS9O.s 			page 22


 651 0086 C1F88C20 		str	r2, [r1, #140]
 652              	.L25:
 505:Drivers/STM32F4xx_StdPeriph_Driver/src/stm32f4xx_fsmc.c ****   }
 506:Drivers/STM32F4xx_StdPeriph_Driver/src/stm32f4xx_fsmc.c **** }
 653              		.loc 1 506 1 view .LVU256
 654 008a 30BC     		pop	{r4, r5}
 655              		.cfi_remember_state
 656              		.cfi_restore 5
 657              		.cfi_restore 4
 658              		.cfi_def_cfa_offset 0
 659              	.LVL38:
 660              		.loc 1 506 1 view .LVU257
 661 008c 7047     		bx	lr
 662              	.LVL39:
 663              	.L35:
 664              		.cfi_restore_state
 428:Drivers/STM32F4xx_StdPeriph_Driver/src/stm32f4xx_fsmc.c ****   }
 665              		.loc 1 428 5 is_stmt 1 view .LVU258
 428:Drivers/STM32F4xx_StdPeriph_Driver/src/stm32f4xx_fsmc.c ****   }
 666              		.loc 1 428 12 is_stmt 0 view .LVU259
 667 008e 4FF02043 		mov	r3, #-1610612736
 668 0092 1B6E     		ldr	r3, [r3, #96]
 669              	.LVL40:
 428:Drivers/STM32F4xx_StdPeriph_Driver/src/stm32f4xx_fsmc.c ****   }
 670              		.loc 1 428 12 view .LVU260
 671 0094 BCE7     		b	.L27
 672              	.L36:
 453:Drivers/STM32F4xx_StdPeriph_Driver/src/stm32f4xx_fsmc.c ****   }
 673              		.loc 1 453 5 is_stmt 1 view .LVU261
 453:Drivers/STM32F4xx_StdPeriph_Driver/src/stm32f4xx_fsmc.c ****   }
 674              		.loc 1 453 13 is_stmt 0 view .LVU262
 675 0096 4FF02042 		mov	r2, #-1610612736
 676 009a 926E     		ldr	r2, [r2, #104]
 677              	.LVL41:
 453:Drivers/STM32F4xx_StdPeriph_Driver/src/stm32f4xx_fsmc.c ****   }
 678              		.loc 1 453 13 view .LVU263
 679 009c D0E7     		b	.L29
 680              	.LVL42:
 681              	.L37:
 474:Drivers/STM32F4xx_StdPeriph_Driver/src/stm32f4xx_fsmc.c ****   }
 682              		.loc 1 474 5 is_stmt 1 view .LVU264
 474:Drivers/STM32F4xx_StdPeriph_Driver/src/stm32f4xx_fsmc.c ****   }
 683              		.loc 1 474 13 is_stmt 0 view .LVU265
 684 009e 4FF02042 		mov	r2, #-1610612736
 685 00a2 D26E     		ldr	r2, [r2, #108]
 686              	.LVL43:
 474:Drivers/STM32F4xx_StdPeriph_Driver/src/stm32f4xx_fsmc.c ****   }
 687              		.loc 1 474 13 view .LVU266
 688 00a4 DCE7     		b	.L31
 689              	.LVL44:
 690              	.L38:
 495:Drivers/STM32F4xx_StdPeriph_Driver/src/stm32f4xx_fsmc.c ****     FSMC_Bank2->PMEM2 = tmppmem;
 691              		.loc 1 495 5 is_stmt 1 view .LVU267
 495:Drivers/STM32F4xx_StdPeriph_Driver/src/stm32f4xx_fsmc.c ****     FSMC_Bank2->PMEM2 = tmppmem;
 692              		.loc 1 495 22 is_stmt 0 view .LVU268
 693 00a6 4FF02041 		mov	r1, #-1610612736
 694 00aa 0B66     		str	r3, [r1, #96]
ARM GAS  /tmp/ccSXeS9O.s 			page 23


 496:Drivers/STM32F4xx_StdPeriph_Driver/src/stm32f4xx_fsmc.c ****     FSMC_Bank2->PATT2 = tmppatt;
 695              		.loc 1 496 5 is_stmt 1 view .LVU269
 496:Drivers/STM32F4xx_StdPeriph_Driver/src/stm32f4xx_fsmc.c ****     FSMC_Bank2->PATT2 = tmppatt;
 696              		.loc 1 496 23 is_stmt 0 view .LVU270
 697 00ac 8C66     		str	r4, [r1, #104]
 497:Drivers/STM32F4xx_StdPeriph_Driver/src/stm32f4xx_fsmc.c ****   }
 698              		.loc 1 497 5 is_stmt 1 view .LVU271
 497:Drivers/STM32F4xx_StdPeriph_Driver/src/stm32f4xx_fsmc.c ****   }
 699              		.loc 1 497 23 is_stmt 0 view .LVU272
 700 00ae CA66     		str	r2, [r1, #108]
 701 00b0 EBE7     		b	.L25
 702              	.L40:
 703 00b2 00BF     		.align	2
 704              	.L39:
 705 00b4 8101F0FF 		.word	-1048191
 706              		.cfi_endproc
 707              	.LFE128:
 709              		.section	.text.FSMC_NANDStructInit,"ax",%progbits
 710              		.align	1
 711              		.global	FSMC_NANDStructInit
 712              		.syntax unified
 713              		.thumb
 714              		.thumb_func
 716              	FSMC_NANDStructInit:
 717              	.LVL45:
 718              	.LFB129:
 507:Drivers/STM32F4xx_StdPeriph_Driver/src/stm32f4xx_fsmc.c **** 
 508:Drivers/STM32F4xx_StdPeriph_Driver/src/stm32f4xx_fsmc.c **** 
 509:Drivers/STM32F4xx_StdPeriph_Driver/src/stm32f4xx_fsmc.c **** /**
 510:Drivers/STM32F4xx_StdPeriph_Driver/src/stm32f4xx_fsmc.c ****   * @brief  Fills each FSMC_NANDInitStruct member with its default value.
 511:Drivers/STM32F4xx_StdPeriph_Driver/src/stm32f4xx_fsmc.c ****   * @param  FSMC_NANDInitStruct: pointer to a FSMC_NANDInitTypeDef structure which
 512:Drivers/STM32F4xx_StdPeriph_Driver/src/stm32f4xx_fsmc.c ****   *         will be initialized.
 513:Drivers/STM32F4xx_StdPeriph_Driver/src/stm32f4xx_fsmc.c ****   * @retval None
 514:Drivers/STM32F4xx_StdPeriph_Driver/src/stm32f4xx_fsmc.c ****   */
 515:Drivers/STM32F4xx_StdPeriph_Driver/src/stm32f4xx_fsmc.c **** void FSMC_NANDStructInit(FSMC_NANDInitTypeDef* FSMC_NANDInitStruct)
 516:Drivers/STM32F4xx_StdPeriph_Driver/src/stm32f4xx_fsmc.c **** { 
 719              		.loc 1 516 1 is_stmt 1 view -0
 720              		.cfi_startproc
 721              		@ args = 0, pretend = 0, frame = 0
 722              		@ frame_needed = 0, uses_anonymous_args = 0
 723              		@ link register save eliminated.
 517:Drivers/STM32F4xx_StdPeriph_Driver/src/stm32f4xx_fsmc.c ****   /* Reset NAND Init structure parameters values */
 518:Drivers/STM32F4xx_StdPeriph_Driver/src/stm32f4xx_fsmc.c ****   FSMC_NANDInitStruct->FSMC_Bank = FSMC_Bank2_NAND;
 724              		.loc 1 518 3 view .LVU274
 725              		.loc 1 518 34 is_stmt 0 view .LVU275
 726 0000 1023     		movs	r3, #16
 727 0002 0360     		str	r3, [r0]
 519:Drivers/STM32F4xx_StdPeriph_Driver/src/stm32f4xx_fsmc.c ****   FSMC_NANDInitStruct->FSMC_Waitfeature = FSMC_Waitfeature_Disable;
 728              		.loc 1 519 3 is_stmt 1 view .LVU276
 729              		.loc 1 519 41 is_stmt 0 view .LVU277
 730 0004 0023     		movs	r3, #0
 731 0006 4360     		str	r3, [r0, #4]
 520:Drivers/STM32F4xx_StdPeriph_Driver/src/stm32f4xx_fsmc.c ****   FSMC_NANDInitStruct->FSMC_MemoryDataWidth = FSMC_MemoryDataWidth_8b;
 732              		.loc 1 520 3 is_stmt 1 view .LVU278
 733              		.loc 1 520 45 is_stmt 0 view .LVU279
 734 0008 8360     		str	r3, [r0, #8]
 521:Drivers/STM32F4xx_StdPeriph_Driver/src/stm32f4xx_fsmc.c ****   FSMC_NANDInitStruct->FSMC_ECC = FSMC_ECC_Disable;
ARM GAS  /tmp/ccSXeS9O.s 			page 24


 735              		.loc 1 521 3 is_stmt 1 view .LVU280
 736              		.loc 1 521 33 is_stmt 0 view .LVU281
 737 000a C360     		str	r3, [r0, #12]
 522:Drivers/STM32F4xx_StdPeriph_Driver/src/stm32f4xx_fsmc.c ****   FSMC_NANDInitStruct->FSMC_ECCPageSize = FSMC_ECCPageSize_256Bytes;
 738              		.loc 1 522 3 is_stmt 1 view .LVU282
 739              		.loc 1 522 41 is_stmt 0 view .LVU283
 740 000c 0361     		str	r3, [r0, #16]
 523:Drivers/STM32F4xx_StdPeriph_Driver/src/stm32f4xx_fsmc.c ****   FSMC_NANDInitStruct->FSMC_TCLRSetupTime = 0x0;
 741              		.loc 1 523 3 is_stmt 1 view .LVU284
 742              		.loc 1 523 43 is_stmt 0 view .LVU285
 743 000e 4361     		str	r3, [r0, #20]
 524:Drivers/STM32F4xx_StdPeriph_Driver/src/stm32f4xx_fsmc.c ****   FSMC_NANDInitStruct->FSMC_TARSetupTime = 0x0;
 744              		.loc 1 524 3 is_stmt 1 view .LVU286
 745              		.loc 1 524 42 is_stmt 0 view .LVU287
 746 0010 8361     		str	r3, [r0, #24]
 525:Drivers/STM32F4xx_StdPeriph_Driver/src/stm32f4xx_fsmc.c ****   FSMC_NANDInitStruct->FSMC_CommonSpaceTimingStruct->FSMC_SetupTime = 0xFC;
 747              		.loc 1 525 3 is_stmt 1 view .LVU288
 748              		.loc 1 525 22 is_stmt 0 view .LVU289
 749 0012 C269     		ldr	r2, [r0, #28]
 750              		.loc 1 525 69 view .LVU290
 751 0014 FC23     		movs	r3, #252
 752 0016 1360     		str	r3, [r2]
 526:Drivers/STM32F4xx_StdPeriph_Driver/src/stm32f4xx_fsmc.c ****   FSMC_NANDInitStruct->FSMC_CommonSpaceTimingStruct->FSMC_WaitSetupTime = 0xFC;
 753              		.loc 1 526 3 is_stmt 1 view .LVU291
 754              		.loc 1 526 22 is_stmt 0 view .LVU292
 755 0018 C269     		ldr	r2, [r0, #28]
 756              		.loc 1 526 73 view .LVU293
 757 001a 5360     		str	r3, [r2, #4]
 527:Drivers/STM32F4xx_StdPeriph_Driver/src/stm32f4xx_fsmc.c ****   FSMC_NANDInitStruct->FSMC_CommonSpaceTimingStruct->FSMC_HoldSetupTime = 0xFC;
 758              		.loc 1 527 3 is_stmt 1 view .LVU294
 759              		.loc 1 527 22 is_stmt 0 view .LVU295
 760 001c C269     		ldr	r2, [r0, #28]
 761              		.loc 1 527 73 view .LVU296
 762 001e 9360     		str	r3, [r2, #8]
 528:Drivers/STM32F4xx_StdPeriph_Driver/src/stm32f4xx_fsmc.c ****   FSMC_NANDInitStruct->FSMC_CommonSpaceTimingStruct->FSMC_HiZSetupTime = 0xFC;
 763              		.loc 1 528 3 is_stmt 1 view .LVU297
 764              		.loc 1 528 22 is_stmt 0 view .LVU298
 765 0020 C269     		ldr	r2, [r0, #28]
 766              		.loc 1 528 72 view .LVU299
 767 0022 D360     		str	r3, [r2, #12]
 529:Drivers/STM32F4xx_StdPeriph_Driver/src/stm32f4xx_fsmc.c ****   FSMC_NANDInitStruct->FSMC_AttributeSpaceTimingStruct->FSMC_SetupTime = 0xFC;
 768              		.loc 1 529 3 is_stmt 1 view .LVU300
 769              		.loc 1 529 22 is_stmt 0 view .LVU301
 770 0024 026A     		ldr	r2, [r0, #32]
 771              		.loc 1 529 72 view .LVU302
 772 0026 1360     		str	r3, [r2]
 530:Drivers/STM32F4xx_StdPeriph_Driver/src/stm32f4xx_fsmc.c ****   FSMC_NANDInitStruct->FSMC_AttributeSpaceTimingStruct->FSMC_WaitSetupTime = 0xFC;
 773              		.loc 1 530 3 is_stmt 1 view .LVU303
 774              		.loc 1 530 22 is_stmt 0 view .LVU304
 775 0028 026A     		ldr	r2, [r0, #32]
 776              		.loc 1 530 76 view .LVU305
 777 002a 5360     		str	r3, [r2, #4]
 531:Drivers/STM32F4xx_StdPeriph_Driver/src/stm32f4xx_fsmc.c ****   FSMC_NANDInitStruct->FSMC_AttributeSpaceTimingStruct->FSMC_HoldSetupTime = 0xFC;
 778              		.loc 1 531 3 is_stmt 1 view .LVU306
 779              		.loc 1 531 22 is_stmt 0 view .LVU307
 780 002c 026A     		ldr	r2, [r0, #32]
 781              		.loc 1 531 76 view .LVU308
ARM GAS  /tmp/ccSXeS9O.s 			page 25


 782 002e 9360     		str	r3, [r2, #8]
 532:Drivers/STM32F4xx_StdPeriph_Driver/src/stm32f4xx_fsmc.c ****   FSMC_NANDInitStruct->FSMC_AttributeSpaceTimingStruct->FSMC_HiZSetupTime = 0xFC;	  
 783              		.loc 1 532 3 is_stmt 1 view .LVU309
 784              		.loc 1 532 22 is_stmt 0 view .LVU310
 785 0030 026A     		ldr	r2, [r0, #32]
 786              		.loc 1 532 75 view .LVU311
 787 0032 D360     		str	r3, [r2, #12]
 533:Drivers/STM32F4xx_StdPeriph_Driver/src/stm32f4xx_fsmc.c **** }
 788              		.loc 1 533 1 view .LVU312
 789 0034 7047     		bx	lr
 790              		.cfi_endproc
 791              	.LFE129:
 793              		.section	.text.FSMC_NANDCmd,"ax",%progbits
 794              		.align	1
 795              		.global	FSMC_NANDCmd
 796              		.syntax unified
 797              		.thumb
 798              		.thumb_func
 800              	FSMC_NANDCmd:
 801              	.LVL46:
 802              	.LFB130:
 534:Drivers/STM32F4xx_StdPeriph_Driver/src/stm32f4xx_fsmc.c **** 
 535:Drivers/STM32F4xx_StdPeriph_Driver/src/stm32f4xx_fsmc.c **** /**
 536:Drivers/STM32F4xx_StdPeriph_Driver/src/stm32f4xx_fsmc.c ****   * @brief  Enables or disables the specified NAND Memory Bank.
 537:Drivers/STM32F4xx_StdPeriph_Driver/src/stm32f4xx_fsmc.c ****   * @param  FSMC_Bank: specifies the FSMC Bank to be used
 538:Drivers/STM32F4xx_StdPeriph_Driver/src/stm32f4xx_fsmc.c ****   *          This parameter can be one of the following values:
 539:Drivers/STM32F4xx_StdPeriph_Driver/src/stm32f4xx_fsmc.c ****   *            @arg FSMC_Bank2_NAND: FSMC Bank2 NAND 
 540:Drivers/STM32F4xx_StdPeriph_Driver/src/stm32f4xx_fsmc.c ****   *            @arg FSMC_Bank3_NAND: FSMC Bank3 NAND
 541:Drivers/STM32F4xx_StdPeriph_Driver/src/stm32f4xx_fsmc.c ****   * @param  NewState: new state of the FSMC_Bank. This parameter can be: ENABLE or DISABLE.
 542:Drivers/STM32F4xx_StdPeriph_Driver/src/stm32f4xx_fsmc.c ****   * @retval None
 543:Drivers/STM32F4xx_StdPeriph_Driver/src/stm32f4xx_fsmc.c ****   */
 544:Drivers/STM32F4xx_StdPeriph_Driver/src/stm32f4xx_fsmc.c **** void FSMC_NANDCmd(uint32_t FSMC_Bank, FunctionalState NewState)
 545:Drivers/STM32F4xx_StdPeriph_Driver/src/stm32f4xx_fsmc.c **** {
 803              		.loc 1 545 1 is_stmt 1 view -0
 804              		.cfi_startproc
 805              		@ args = 0, pretend = 0, frame = 0
 806              		@ frame_needed = 0, uses_anonymous_args = 0
 807              		@ link register save eliminated.
 546:Drivers/STM32F4xx_StdPeriph_Driver/src/stm32f4xx_fsmc.c ****   assert_param(IS_FSMC_NAND_BANK(FSMC_Bank));
 808              		.loc 1 546 3 view .LVU314
 547:Drivers/STM32F4xx_StdPeriph_Driver/src/stm32f4xx_fsmc.c ****   assert_param(IS_FUNCTIONAL_STATE(NewState));
 809              		.loc 1 547 3 view .LVU315
 548:Drivers/STM32F4xx_StdPeriph_Driver/src/stm32f4xx_fsmc.c ****   
 549:Drivers/STM32F4xx_StdPeriph_Driver/src/stm32f4xx_fsmc.c ****   if (NewState != DISABLE)
 810              		.loc 1 549 3 view .LVU316
 811              		.loc 1 549 6 is_stmt 0 view .LVU317
 812 0000 89B1     		cbz	r1, .L43
 550:Drivers/STM32F4xx_StdPeriph_Driver/src/stm32f4xx_fsmc.c ****   {
 551:Drivers/STM32F4xx_StdPeriph_Driver/src/stm32f4xx_fsmc.c ****     /* Enable the selected NAND Bank by setting the PBKEN bit in the PCRx register */
 552:Drivers/STM32F4xx_StdPeriph_Driver/src/stm32f4xx_fsmc.c ****     if(FSMC_Bank == FSMC_Bank2_NAND)
 813              		.loc 1 552 5 is_stmt 1 view .LVU318
 814              		.loc 1 552 7 is_stmt 0 view .LVU319
 815 0002 1028     		cmp	r0, #16
 816 0004 08D0     		beq	.L47
 553:Drivers/STM32F4xx_StdPeriph_Driver/src/stm32f4xx_fsmc.c ****     {
 554:Drivers/STM32F4xx_StdPeriph_Driver/src/stm32f4xx_fsmc.c ****       FSMC_Bank2->PCR2 |= PCR_PBKEN_SET;
 555:Drivers/STM32F4xx_StdPeriph_Driver/src/stm32f4xx_fsmc.c ****     }
ARM GAS  /tmp/ccSXeS9O.s 			page 26


 556:Drivers/STM32F4xx_StdPeriph_Driver/src/stm32f4xx_fsmc.c ****     else
 557:Drivers/STM32F4xx_StdPeriph_Driver/src/stm32f4xx_fsmc.c ****     {
 558:Drivers/STM32F4xx_StdPeriph_Driver/src/stm32f4xx_fsmc.c ****       FSMC_Bank3->PCR3 |= PCR_PBKEN_SET;
 817              		.loc 1 558 7 is_stmt 1 view .LVU320
 818              		.loc 1 558 24 is_stmt 0 view .LVU321
 819 0006 4FF02042 		mov	r2, #-1610612736
 820 000a D2F88030 		ldr	r3, [r2, #128]
 821 000e 43F00403 		orr	r3, r3, #4
 822 0012 C2F88030 		str	r3, [r2, #128]
 823 0016 7047     		bx	lr
 824              	.L47:
 554:Drivers/STM32F4xx_StdPeriph_Driver/src/stm32f4xx_fsmc.c ****     }
 825              		.loc 1 554 7 is_stmt 1 view .LVU322
 554:Drivers/STM32F4xx_StdPeriph_Driver/src/stm32f4xx_fsmc.c ****     }
 826              		.loc 1 554 24 is_stmt 0 view .LVU323
 827 0018 4FF02042 		mov	r2, #-1610612736
 828 001c 136E     		ldr	r3, [r2, #96]
 829 001e 43F00403 		orr	r3, r3, #4
 830 0022 1366     		str	r3, [r2, #96]
 831 0024 7047     		bx	lr
 832              	.L43:
 559:Drivers/STM32F4xx_StdPeriph_Driver/src/stm32f4xx_fsmc.c ****     }
 560:Drivers/STM32F4xx_StdPeriph_Driver/src/stm32f4xx_fsmc.c ****   }
 561:Drivers/STM32F4xx_StdPeriph_Driver/src/stm32f4xx_fsmc.c ****   else
 562:Drivers/STM32F4xx_StdPeriph_Driver/src/stm32f4xx_fsmc.c ****   {
 563:Drivers/STM32F4xx_StdPeriph_Driver/src/stm32f4xx_fsmc.c ****     /* Disable the selected NAND Bank by clearing the PBKEN bit in the PCRx register */
 564:Drivers/STM32F4xx_StdPeriph_Driver/src/stm32f4xx_fsmc.c ****     if(FSMC_Bank == FSMC_Bank2_NAND)
 833              		.loc 1 564 5 is_stmt 1 view .LVU324
 834              		.loc 1 564 7 is_stmt 0 view .LVU325
 835 0026 1028     		cmp	r0, #16
 836 0028 08D0     		beq	.L48
 565:Drivers/STM32F4xx_StdPeriph_Driver/src/stm32f4xx_fsmc.c ****     {
 566:Drivers/STM32F4xx_StdPeriph_Driver/src/stm32f4xx_fsmc.c ****       FSMC_Bank2->PCR2 &= PCR_PBKEN_RESET;
 567:Drivers/STM32F4xx_StdPeriph_Driver/src/stm32f4xx_fsmc.c ****     }
 568:Drivers/STM32F4xx_StdPeriph_Driver/src/stm32f4xx_fsmc.c ****     else
 569:Drivers/STM32F4xx_StdPeriph_Driver/src/stm32f4xx_fsmc.c ****     {
 570:Drivers/STM32F4xx_StdPeriph_Driver/src/stm32f4xx_fsmc.c ****       FSMC_Bank3->PCR3 &= PCR_PBKEN_RESET;
 837              		.loc 1 570 7 is_stmt 1 view .LVU326
 838              		.loc 1 570 24 is_stmt 0 view .LVU327
 839 002a 4FF02042 		mov	r2, #-1610612736
 840 002e D2F88010 		ldr	r1, [r2, #128]
 841              	.LVL47:
 842              		.loc 1 570 24 view .LVU328
 843 0032 064B     		ldr	r3, .L49
 844 0034 0B40     		ands	r3, r3, r1
 845 0036 C2F88030 		str	r3, [r2, #128]
 571:Drivers/STM32F4xx_StdPeriph_Driver/src/stm32f4xx_fsmc.c ****     }
 572:Drivers/STM32F4xx_StdPeriph_Driver/src/stm32f4xx_fsmc.c ****   }
 573:Drivers/STM32F4xx_StdPeriph_Driver/src/stm32f4xx_fsmc.c **** }
 846              		.loc 1 573 1 view .LVU329
 847 003a 7047     		bx	lr
 848              	.LVL48:
 849              	.L48:
 566:Drivers/STM32F4xx_StdPeriph_Driver/src/stm32f4xx_fsmc.c ****     }
 850              		.loc 1 566 7 is_stmt 1 view .LVU330
 566:Drivers/STM32F4xx_StdPeriph_Driver/src/stm32f4xx_fsmc.c ****     }
 851              		.loc 1 566 24 is_stmt 0 view .LVU331
ARM GAS  /tmp/ccSXeS9O.s 			page 27


 852 003c 4FF02042 		mov	r2, #-1610612736
 853 0040 116E     		ldr	r1, [r2, #96]
 854              	.LVL49:
 566:Drivers/STM32F4xx_StdPeriph_Driver/src/stm32f4xx_fsmc.c ****     }
 855              		.loc 1 566 24 view .LVU332
 856 0042 024B     		ldr	r3, .L49
 857 0044 0B40     		ands	r3, r3, r1
 858 0046 1366     		str	r3, [r2, #96]
 859 0048 7047     		bx	lr
 860              	.L50:
 861 004a 00BF     		.align	2
 862              	.L49:
 863 004c FBFF0F00 		.word	1048571
 864              		.cfi_endproc
 865              	.LFE130:
 867              		.section	.text.FSMC_NANDECCCmd,"ax",%progbits
 868              		.align	1
 869              		.global	FSMC_NANDECCCmd
 870              		.syntax unified
 871              		.thumb
 872              		.thumb_func
 874              	FSMC_NANDECCCmd:
 875              	.LVL50:
 876              	.LFB131:
 574:Drivers/STM32F4xx_StdPeriph_Driver/src/stm32f4xx_fsmc.c **** /**
 575:Drivers/STM32F4xx_StdPeriph_Driver/src/stm32f4xx_fsmc.c ****   * @brief  Enables or disables the FSMC NAND ECC feature.
 576:Drivers/STM32F4xx_StdPeriph_Driver/src/stm32f4xx_fsmc.c ****   * @param  FSMC_Bank: specifies the FSMC Bank to be used
 577:Drivers/STM32F4xx_StdPeriph_Driver/src/stm32f4xx_fsmc.c ****   *          This parameter can be one of the following values:
 578:Drivers/STM32F4xx_StdPeriph_Driver/src/stm32f4xx_fsmc.c ****   *            @arg FSMC_Bank2_NAND: FSMC Bank2 NAND 
 579:Drivers/STM32F4xx_StdPeriph_Driver/src/stm32f4xx_fsmc.c ****   *            @arg FSMC_Bank3_NAND: FSMC Bank3 NAND
 580:Drivers/STM32F4xx_StdPeriph_Driver/src/stm32f4xx_fsmc.c ****   * @param  NewState: new state of the FSMC NAND ECC feature.  
 581:Drivers/STM32F4xx_StdPeriph_Driver/src/stm32f4xx_fsmc.c ****   *          This parameter can be: ENABLE or DISABLE.
 582:Drivers/STM32F4xx_StdPeriph_Driver/src/stm32f4xx_fsmc.c ****   * @retval None
 583:Drivers/STM32F4xx_StdPeriph_Driver/src/stm32f4xx_fsmc.c ****   */
 584:Drivers/STM32F4xx_StdPeriph_Driver/src/stm32f4xx_fsmc.c **** void FSMC_NANDECCCmd(uint32_t FSMC_Bank, FunctionalState NewState)
 585:Drivers/STM32F4xx_StdPeriph_Driver/src/stm32f4xx_fsmc.c **** {
 877              		.loc 1 585 1 is_stmt 1 view -0
 878              		.cfi_startproc
 879              		@ args = 0, pretend = 0, frame = 0
 880              		@ frame_needed = 0, uses_anonymous_args = 0
 881              		@ link register save eliminated.
 586:Drivers/STM32F4xx_StdPeriph_Driver/src/stm32f4xx_fsmc.c ****   assert_param(IS_FSMC_NAND_BANK(FSMC_Bank));
 882              		.loc 1 586 3 view .LVU334
 587:Drivers/STM32F4xx_StdPeriph_Driver/src/stm32f4xx_fsmc.c ****   assert_param(IS_FUNCTIONAL_STATE(NewState));
 883              		.loc 1 587 3 view .LVU335
 588:Drivers/STM32F4xx_StdPeriph_Driver/src/stm32f4xx_fsmc.c ****   
 589:Drivers/STM32F4xx_StdPeriph_Driver/src/stm32f4xx_fsmc.c ****   if (NewState != DISABLE)
 884              		.loc 1 589 3 view .LVU336
 885              		.loc 1 589 6 is_stmt 0 view .LVU337
 886 0000 89B1     		cbz	r1, .L52
 590:Drivers/STM32F4xx_StdPeriph_Driver/src/stm32f4xx_fsmc.c ****   {
 591:Drivers/STM32F4xx_StdPeriph_Driver/src/stm32f4xx_fsmc.c ****     /* Enable the selected NAND Bank ECC function by setting the ECCEN bit in the PCRx register */
 592:Drivers/STM32F4xx_StdPeriph_Driver/src/stm32f4xx_fsmc.c ****     if(FSMC_Bank == FSMC_Bank2_NAND)
 887              		.loc 1 592 5 is_stmt 1 view .LVU338
 888              		.loc 1 592 7 is_stmt 0 view .LVU339
 889 0002 1028     		cmp	r0, #16
 890 0004 08D0     		beq	.L56
ARM GAS  /tmp/ccSXeS9O.s 			page 28


 593:Drivers/STM32F4xx_StdPeriph_Driver/src/stm32f4xx_fsmc.c ****     {
 594:Drivers/STM32F4xx_StdPeriph_Driver/src/stm32f4xx_fsmc.c ****       FSMC_Bank2->PCR2 |= PCR_ECCEN_SET;
 595:Drivers/STM32F4xx_StdPeriph_Driver/src/stm32f4xx_fsmc.c ****     }
 596:Drivers/STM32F4xx_StdPeriph_Driver/src/stm32f4xx_fsmc.c ****     else
 597:Drivers/STM32F4xx_StdPeriph_Driver/src/stm32f4xx_fsmc.c ****     {
 598:Drivers/STM32F4xx_StdPeriph_Driver/src/stm32f4xx_fsmc.c ****       FSMC_Bank3->PCR3 |= PCR_ECCEN_SET;
 891              		.loc 1 598 7 is_stmt 1 view .LVU340
 892              		.loc 1 598 24 is_stmt 0 view .LVU341
 893 0006 4FF02042 		mov	r2, #-1610612736
 894 000a D2F88030 		ldr	r3, [r2, #128]
 895 000e 43F04003 		orr	r3, r3, #64
 896 0012 C2F88030 		str	r3, [r2, #128]
 897 0016 7047     		bx	lr
 898              	.L56:
 594:Drivers/STM32F4xx_StdPeriph_Driver/src/stm32f4xx_fsmc.c ****     }
 899              		.loc 1 594 7 is_stmt 1 view .LVU342
 594:Drivers/STM32F4xx_StdPeriph_Driver/src/stm32f4xx_fsmc.c ****     }
 900              		.loc 1 594 24 is_stmt 0 view .LVU343
 901 0018 4FF02042 		mov	r2, #-1610612736
 902 001c 136E     		ldr	r3, [r2, #96]
 903 001e 43F04003 		orr	r3, r3, #64
 904 0022 1366     		str	r3, [r2, #96]
 905 0024 7047     		bx	lr
 906              	.L52:
 599:Drivers/STM32F4xx_StdPeriph_Driver/src/stm32f4xx_fsmc.c ****     }
 600:Drivers/STM32F4xx_StdPeriph_Driver/src/stm32f4xx_fsmc.c ****   }
 601:Drivers/STM32F4xx_StdPeriph_Driver/src/stm32f4xx_fsmc.c ****   else
 602:Drivers/STM32F4xx_StdPeriph_Driver/src/stm32f4xx_fsmc.c ****   {
 603:Drivers/STM32F4xx_StdPeriph_Driver/src/stm32f4xx_fsmc.c ****     /* Disable the selected NAND Bank ECC function by clearing the ECCEN bit in the PCRx register *
 604:Drivers/STM32F4xx_StdPeriph_Driver/src/stm32f4xx_fsmc.c ****     if(FSMC_Bank == FSMC_Bank2_NAND)
 907              		.loc 1 604 5 is_stmt 1 view .LVU344
 908              		.loc 1 604 7 is_stmt 0 view .LVU345
 909 0026 1028     		cmp	r0, #16
 910 0028 08D0     		beq	.L57
 605:Drivers/STM32F4xx_StdPeriph_Driver/src/stm32f4xx_fsmc.c ****     {
 606:Drivers/STM32F4xx_StdPeriph_Driver/src/stm32f4xx_fsmc.c ****       FSMC_Bank2->PCR2 &= PCR_ECCEN_RESET;
 607:Drivers/STM32F4xx_StdPeriph_Driver/src/stm32f4xx_fsmc.c ****     }
 608:Drivers/STM32F4xx_StdPeriph_Driver/src/stm32f4xx_fsmc.c ****     else
 609:Drivers/STM32F4xx_StdPeriph_Driver/src/stm32f4xx_fsmc.c ****     {
 610:Drivers/STM32F4xx_StdPeriph_Driver/src/stm32f4xx_fsmc.c ****       FSMC_Bank3->PCR3 &= PCR_ECCEN_RESET;
 911              		.loc 1 610 7 is_stmt 1 view .LVU346
 912              		.loc 1 610 24 is_stmt 0 view .LVU347
 913 002a 4FF02042 		mov	r2, #-1610612736
 914 002e D2F88010 		ldr	r1, [r2, #128]
 915              	.LVL51:
 916              		.loc 1 610 24 view .LVU348
 917 0032 064B     		ldr	r3, .L58
 918 0034 0B40     		ands	r3, r3, r1
 919 0036 C2F88030 		str	r3, [r2, #128]
 611:Drivers/STM32F4xx_StdPeriph_Driver/src/stm32f4xx_fsmc.c ****     }
 612:Drivers/STM32F4xx_StdPeriph_Driver/src/stm32f4xx_fsmc.c ****   }
 613:Drivers/STM32F4xx_StdPeriph_Driver/src/stm32f4xx_fsmc.c **** }
 920              		.loc 1 613 1 view .LVU349
 921 003a 7047     		bx	lr
 922              	.LVL52:
 923              	.L57:
 606:Drivers/STM32F4xx_StdPeriph_Driver/src/stm32f4xx_fsmc.c ****     }
ARM GAS  /tmp/ccSXeS9O.s 			page 29


 924              		.loc 1 606 7 is_stmt 1 view .LVU350
 606:Drivers/STM32F4xx_StdPeriph_Driver/src/stm32f4xx_fsmc.c ****     }
 925              		.loc 1 606 24 is_stmt 0 view .LVU351
 926 003c 4FF02042 		mov	r2, #-1610612736
 927 0040 116E     		ldr	r1, [r2, #96]
 928              	.LVL53:
 606:Drivers/STM32F4xx_StdPeriph_Driver/src/stm32f4xx_fsmc.c ****     }
 929              		.loc 1 606 24 view .LVU352
 930 0042 024B     		ldr	r3, .L58
 931 0044 0B40     		ands	r3, r3, r1
 932 0046 1366     		str	r3, [r2, #96]
 933 0048 7047     		bx	lr
 934              	.L59:
 935 004a 00BF     		.align	2
 936              	.L58:
 937 004c BFFF0F00 		.word	1048511
 938              		.cfi_endproc
 939              	.LFE131:
 941              		.section	.text.FSMC_GetECC,"ax",%progbits
 942              		.align	1
 943              		.global	FSMC_GetECC
 944              		.syntax unified
 945              		.thumb
 946              		.thumb_func
 948              	FSMC_GetECC:
 949              	.LVL54:
 950              	.LFB132:
 614:Drivers/STM32F4xx_StdPeriph_Driver/src/stm32f4xx_fsmc.c **** 
 615:Drivers/STM32F4xx_StdPeriph_Driver/src/stm32f4xx_fsmc.c **** /**
 616:Drivers/STM32F4xx_StdPeriph_Driver/src/stm32f4xx_fsmc.c ****   * @brief  Returns the error correction code register value.
 617:Drivers/STM32F4xx_StdPeriph_Driver/src/stm32f4xx_fsmc.c ****   * @param  FSMC_Bank: specifies the FSMC Bank to be used
 618:Drivers/STM32F4xx_StdPeriph_Driver/src/stm32f4xx_fsmc.c ****   *          This parameter can be one of the following values:
 619:Drivers/STM32F4xx_StdPeriph_Driver/src/stm32f4xx_fsmc.c ****   *            @arg FSMC_Bank2_NAND: FSMC Bank2 NAND 
 620:Drivers/STM32F4xx_StdPeriph_Driver/src/stm32f4xx_fsmc.c ****   *            @arg FSMC_Bank3_NAND: FSMC Bank3 NAND
 621:Drivers/STM32F4xx_StdPeriph_Driver/src/stm32f4xx_fsmc.c ****   * @retval The Error Correction Code (ECC) value.
 622:Drivers/STM32F4xx_StdPeriph_Driver/src/stm32f4xx_fsmc.c ****   */
 623:Drivers/STM32F4xx_StdPeriph_Driver/src/stm32f4xx_fsmc.c **** uint32_t FSMC_GetECC(uint32_t FSMC_Bank)
 624:Drivers/STM32F4xx_StdPeriph_Driver/src/stm32f4xx_fsmc.c **** {
 951              		.loc 1 624 1 is_stmt 1 view -0
 952              		.cfi_startproc
 953              		@ args = 0, pretend = 0, frame = 0
 954              		@ frame_needed = 0, uses_anonymous_args = 0
 955              		@ link register save eliminated.
 625:Drivers/STM32F4xx_StdPeriph_Driver/src/stm32f4xx_fsmc.c ****   uint32_t eccval = 0x00000000;
 956              		.loc 1 625 3 view .LVU354
 626:Drivers/STM32F4xx_StdPeriph_Driver/src/stm32f4xx_fsmc.c ****   
 627:Drivers/STM32F4xx_StdPeriph_Driver/src/stm32f4xx_fsmc.c ****   if(FSMC_Bank == FSMC_Bank2_NAND)
 957              		.loc 1 627 3 view .LVU355
 958              		.loc 1 627 5 is_stmt 0 view .LVU356
 959 0000 1028     		cmp	r0, #16
 960 0002 04D0     		beq	.L63
 628:Drivers/STM32F4xx_StdPeriph_Driver/src/stm32f4xx_fsmc.c ****   {
 629:Drivers/STM32F4xx_StdPeriph_Driver/src/stm32f4xx_fsmc.c ****     /* Get the ECCR2 register value */
 630:Drivers/STM32F4xx_StdPeriph_Driver/src/stm32f4xx_fsmc.c ****     eccval = FSMC_Bank2->ECCR2;
 631:Drivers/STM32F4xx_StdPeriph_Driver/src/stm32f4xx_fsmc.c ****   }
 632:Drivers/STM32F4xx_StdPeriph_Driver/src/stm32f4xx_fsmc.c ****   else
 633:Drivers/STM32F4xx_StdPeriph_Driver/src/stm32f4xx_fsmc.c ****   {
ARM GAS  /tmp/ccSXeS9O.s 			page 30


 634:Drivers/STM32F4xx_StdPeriph_Driver/src/stm32f4xx_fsmc.c ****     /* Get the ECCR3 register value */
 635:Drivers/STM32F4xx_StdPeriph_Driver/src/stm32f4xx_fsmc.c ****     eccval = FSMC_Bank3->ECCR3;
 961              		.loc 1 635 5 is_stmt 1 view .LVU357
 962              		.loc 1 635 12 is_stmt 0 view .LVU358
 963 0004 4FF02043 		mov	r3, #-1610612736
 964 0008 D3F89400 		ldr	r0, [r3, #148]
 965              	.LVL55:
 636:Drivers/STM32F4xx_StdPeriph_Driver/src/stm32f4xx_fsmc.c ****   }
 637:Drivers/STM32F4xx_StdPeriph_Driver/src/stm32f4xx_fsmc.c ****   /* Return the error correction code value */
 638:Drivers/STM32F4xx_StdPeriph_Driver/src/stm32f4xx_fsmc.c ****   return(eccval);
 966              		.loc 1 638 3 is_stmt 1 view .LVU359
 639:Drivers/STM32F4xx_StdPeriph_Driver/src/stm32f4xx_fsmc.c **** }
 967              		.loc 1 639 1 is_stmt 0 view .LVU360
 968 000c 7047     		bx	lr
 969              	.LVL56:
 970              	.L63:
 630:Drivers/STM32F4xx_StdPeriph_Driver/src/stm32f4xx_fsmc.c ****   }
 971              		.loc 1 630 5 is_stmt 1 view .LVU361
 630:Drivers/STM32F4xx_StdPeriph_Driver/src/stm32f4xx_fsmc.c ****   }
 972              		.loc 1 630 12 is_stmt 0 view .LVU362
 973 000e 4FF02043 		mov	r3, #-1610612736
 974 0012 586F     		ldr	r0, [r3, #116]
 975              	.LVL57:
 630:Drivers/STM32F4xx_StdPeriph_Driver/src/stm32f4xx_fsmc.c ****   }
 976              		.loc 1 630 12 view .LVU363
 977 0014 7047     		bx	lr
 978              		.cfi_endproc
 979              	.LFE132:
 981              		.section	.text.FSMC_PCCARDDeInit,"ax",%progbits
 982              		.align	1
 983              		.global	FSMC_PCCARDDeInit
 984              		.syntax unified
 985              		.thumb
 986              		.thumb_func
 988              	FSMC_PCCARDDeInit:
 989              	.LFB133:
 640:Drivers/STM32F4xx_StdPeriph_Driver/src/stm32f4xx_fsmc.c **** /**
 641:Drivers/STM32F4xx_StdPeriph_Driver/src/stm32f4xx_fsmc.c ****   * @}
 642:Drivers/STM32F4xx_StdPeriph_Driver/src/stm32f4xx_fsmc.c ****   */
 643:Drivers/STM32F4xx_StdPeriph_Driver/src/stm32f4xx_fsmc.c **** 
 644:Drivers/STM32F4xx_StdPeriph_Driver/src/stm32f4xx_fsmc.c **** /** @defgroup FSMC_Group3 PCCARD Controller functions
 645:Drivers/STM32F4xx_StdPeriph_Driver/src/stm32f4xx_fsmc.c ****  *  @brief   PCCARD Controller functions 
 646:Drivers/STM32F4xx_StdPeriph_Driver/src/stm32f4xx_fsmc.c ****  *
 647:Drivers/STM32F4xx_StdPeriph_Driver/src/stm32f4xx_fsmc.c **** @verbatim   
 648:Drivers/STM32F4xx_StdPeriph_Driver/src/stm32f4xx_fsmc.c ****  ===============================================================================
 649:Drivers/STM32F4xx_StdPeriph_Driver/src/stm32f4xx_fsmc.c ****                     ##### PCCARD Controller functions #####
 650:Drivers/STM32F4xx_StdPeriph_Driver/src/stm32f4xx_fsmc.c ****  ===============================================================================  
 651:Drivers/STM32F4xx_StdPeriph_Driver/src/stm32f4xx_fsmc.c **** 
 652:Drivers/STM32F4xx_StdPeriph_Driver/src/stm32f4xx_fsmc.c ****  [..]  he following sequence should be followed to configure the FSMC to interface 
 653:Drivers/STM32F4xx_StdPeriph_Driver/src/stm32f4xx_fsmc.c ****        with 16-bit PC Card compatible memory connected to the PCCARD Bank:
 654:Drivers/STM32F4xx_StdPeriph_Driver/src/stm32f4xx_fsmc.c ****  
 655:Drivers/STM32F4xx_StdPeriph_Driver/src/stm32f4xx_fsmc.c ****   (#)  Enable the clock for the FSMC and associated GPIOs using the following functions:
 656:Drivers/STM32F4xx_StdPeriph_Driver/src/stm32f4xx_fsmc.c ****        (++)  RCC_AHB3PeriphClockCmd(RCC_AHB3Periph_FSMC, ENABLE);
 657:Drivers/STM32F4xx_StdPeriph_Driver/src/stm32f4xx_fsmc.c ****        (++)  RCC_AHB1PeriphClockCmd(RCC_AHB1Periph_GPIOx, ENABLE);
 658:Drivers/STM32F4xx_StdPeriph_Driver/src/stm32f4xx_fsmc.c **** 
 659:Drivers/STM32F4xx_StdPeriph_Driver/src/stm32f4xx_fsmc.c ****   (#) FSMC pins configuration 
 660:Drivers/STM32F4xx_StdPeriph_Driver/src/stm32f4xx_fsmc.c ****        (++) Connect the involved FSMC pins to AF12 using the following function 
ARM GAS  /tmp/ccSXeS9O.s 			page 31


 661:Drivers/STM32F4xx_StdPeriph_Driver/src/stm32f4xx_fsmc.c ****             GPIO_PinAFConfig(GPIOx, GPIO_PinSourcex, GPIO_AF_FSMC); 
 662:Drivers/STM32F4xx_StdPeriph_Driver/src/stm32f4xx_fsmc.c ****        (++) Configure these FSMC pins in alternate function mode by calling the function
 663:Drivers/STM32F4xx_StdPeriph_Driver/src/stm32f4xx_fsmc.c ****             GPIO_Init();    
 664:Drivers/STM32F4xx_StdPeriph_Driver/src/stm32f4xx_fsmc.c ****        
 665:Drivers/STM32F4xx_StdPeriph_Driver/src/stm32f4xx_fsmc.c ****   (#) Declare a FSMC_PCCARDInitTypeDef structure, for example:
 666:Drivers/STM32F4xx_StdPeriph_Driver/src/stm32f4xx_fsmc.c ****       FSMC_PCCARDInitTypeDef  FSMC_PCCARDInitStructure;
 667:Drivers/STM32F4xx_StdPeriph_Driver/src/stm32f4xx_fsmc.c ****       and fill the FSMC_PCCARDInitStructure variable with the allowed values of
 668:Drivers/STM32F4xx_StdPeriph_Driver/src/stm32f4xx_fsmc.c ****       the structure member.
 669:Drivers/STM32F4xx_StdPeriph_Driver/src/stm32f4xx_fsmc.c ****       
 670:Drivers/STM32F4xx_StdPeriph_Driver/src/stm32f4xx_fsmc.c ****   (#) Initialize the PCCARD Controller by calling the function
 671:Drivers/STM32F4xx_StdPeriph_Driver/src/stm32f4xx_fsmc.c ****       FSMC_PCCARDInit(&FSMC_PCCARDInitStructure); 
 672:Drivers/STM32F4xx_StdPeriph_Driver/src/stm32f4xx_fsmc.c **** 
 673:Drivers/STM32F4xx_StdPeriph_Driver/src/stm32f4xx_fsmc.c ****   (#) Then enable the PCCARD Bank:
 674:Drivers/STM32F4xx_StdPeriph_Driver/src/stm32f4xx_fsmc.c ****       FSMC_PCCARDCmd(ENABLE);  
 675:Drivers/STM32F4xx_StdPeriph_Driver/src/stm32f4xx_fsmc.c **** 
 676:Drivers/STM32F4xx_StdPeriph_Driver/src/stm32f4xx_fsmc.c ****   (#) At this stage you can read/write from/to the memory connected to the PCCARD Bank. 
 677:Drivers/STM32F4xx_StdPeriph_Driver/src/stm32f4xx_fsmc.c ****  
 678:Drivers/STM32F4xx_StdPeriph_Driver/src/stm32f4xx_fsmc.c **** @endverbatim
 679:Drivers/STM32F4xx_StdPeriph_Driver/src/stm32f4xx_fsmc.c ****   * @{
 680:Drivers/STM32F4xx_StdPeriph_Driver/src/stm32f4xx_fsmc.c ****   */
 681:Drivers/STM32F4xx_StdPeriph_Driver/src/stm32f4xx_fsmc.c **** 
 682:Drivers/STM32F4xx_StdPeriph_Driver/src/stm32f4xx_fsmc.c **** /**
 683:Drivers/STM32F4xx_StdPeriph_Driver/src/stm32f4xx_fsmc.c ****   * @brief  De-initializes the FSMC PCCARD Bank registers to their default reset values.
 684:Drivers/STM32F4xx_StdPeriph_Driver/src/stm32f4xx_fsmc.c ****   * @param  None                       
 685:Drivers/STM32F4xx_StdPeriph_Driver/src/stm32f4xx_fsmc.c ****   * @retval None
 686:Drivers/STM32F4xx_StdPeriph_Driver/src/stm32f4xx_fsmc.c ****   */
 687:Drivers/STM32F4xx_StdPeriph_Driver/src/stm32f4xx_fsmc.c **** void FSMC_PCCARDDeInit(void)
 688:Drivers/STM32F4xx_StdPeriph_Driver/src/stm32f4xx_fsmc.c **** {
 990              		.loc 1 688 1 is_stmt 1 view -0
 991              		.cfi_startproc
 992              		@ args = 0, pretend = 0, frame = 0
 993              		@ frame_needed = 0, uses_anonymous_args = 0
 994              		@ link register save eliminated.
 689:Drivers/STM32F4xx_StdPeriph_Driver/src/stm32f4xx_fsmc.c ****   /* Set the FSMC_Bank4 registers to their reset values */
 690:Drivers/STM32F4xx_StdPeriph_Driver/src/stm32f4xx_fsmc.c ****   FSMC_Bank4->PCR4 = 0x00000018; 
 995              		.loc 1 690 3 view .LVU365
 996              		.loc 1 690 20 is_stmt 0 view .LVU366
 997 0000 4FF02043 		mov	r3, #-1610612736
 998 0004 1822     		movs	r2, #24
 999 0006 C3F8A020 		str	r2, [r3, #160]
 691:Drivers/STM32F4xx_StdPeriph_Driver/src/stm32f4xx_fsmc.c ****   FSMC_Bank4->SR4 = 0x00000000;	
 1000              		.loc 1 691 3 is_stmt 1 view .LVU367
 1001              		.loc 1 691 19 is_stmt 0 view .LVU368
 1002 000a 0022     		movs	r2, #0
 1003 000c C3F8A420 		str	r2, [r3, #164]
 692:Drivers/STM32F4xx_StdPeriph_Driver/src/stm32f4xx_fsmc.c ****   FSMC_Bank4->PMEM4 = 0xFCFCFCFC;
 1004              		.loc 1 692 3 is_stmt 1 view .LVU369
 1005              		.loc 1 692 21 is_stmt 0 view .LVU370
 1006 0010 4FF0FC32 		mov	r2, #-50529028
 1007 0014 C3F8A820 		str	r2, [r3, #168]
 693:Drivers/STM32F4xx_StdPeriph_Driver/src/stm32f4xx_fsmc.c ****   FSMC_Bank4->PATT4 = 0xFCFCFCFC;
 1008              		.loc 1 693 3 is_stmt 1 view .LVU371
 1009              		.loc 1 693 21 is_stmt 0 view .LVU372
 1010 0018 C3F8AC20 		str	r2, [r3, #172]
 694:Drivers/STM32F4xx_StdPeriph_Driver/src/stm32f4xx_fsmc.c ****   FSMC_Bank4->PIO4 = 0xFCFCFCFC;
 1011              		.loc 1 694 3 is_stmt 1 view .LVU373
 1012              		.loc 1 694 20 is_stmt 0 view .LVU374
ARM GAS  /tmp/ccSXeS9O.s 			page 32


 1013 001c C3F8B020 		str	r2, [r3, #176]
 695:Drivers/STM32F4xx_StdPeriph_Driver/src/stm32f4xx_fsmc.c **** }
 1014              		.loc 1 695 1 view .LVU375
 1015 0020 7047     		bx	lr
 1016              		.cfi_endproc
 1017              	.LFE133:
 1019              		.section	.text.FSMC_PCCARDInit,"ax",%progbits
 1020              		.align	1
 1021              		.global	FSMC_PCCARDInit
 1022              		.syntax unified
 1023              		.thumb
 1024              		.thumb_func
 1026              	FSMC_PCCARDInit:
 1027              	.LVL58:
 1028              	.LFB134:
 696:Drivers/STM32F4xx_StdPeriph_Driver/src/stm32f4xx_fsmc.c **** 
 697:Drivers/STM32F4xx_StdPeriph_Driver/src/stm32f4xx_fsmc.c **** /**
 698:Drivers/STM32F4xx_StdPeriph_Driver/src/stm32f4xx_fsmc.c ****   * @brief  Initializes the FSMC PCCARD Bank according to the specified parameters
 699:Drivers/STM32F4xx_StdPeriph_Driver/src/stm32f4xx_fsmc.c ****   *         in the FSMC_PCCARDInitStruct.
 700:Drivers/STM32F4xx_StdPeriph_Driver/src/stm32f4xx_fsmc.c ****   * @param  FSMC_PCCARDInitStruct : pointer to a FSMC_PCCARDInitTypeDef structure
 701:Drivers/STM32F4xx_StdPeriph_Driver/src/stm32f4xx_fsmc.c ****   *         that contains the configuration information for the FSMC PCCARD Bank.                  
 702:Drivers/STM32F4xx_StdPeriph_Driver/src/stm32f4xx_fsmc.c ****   * @retval None
 703:Drivers/STM32F4xx_StdPeriph_Driver/src/stm32f4xx_fsmc.c ****   */
 704:Drivers/STM32F4xx_StdPeriph_Driver/src/stm32f4xx_fsmc.c **** void FSMC_PCCARDInit(FSMC_PCCARDInitTypeDef* FSMC_PCCARDInitStruct)
 705:Drivers/STM32F4xx_StdPeriph_Driver/src/stm32f4xx_fsmc.c **** {
 1029              		.loc 1 705 1 is_stmt 1 view -0
 1030              		.cfi_startproc
 1031              		@ args = 0, pretend = 0, frame = 0
 1032              		@ frame_needed = 0, uses_anonymous_args = 0
 1033              		@ link register save eliminated.
 1034              		.loc 1 705 1 is_stmt 0 view .LVU377
 1035 0000 10B4     		push	{r4}
 1036              		.cfi_def_cfa_offset 4
 1037              		.cfi_offset 4, -4
 706:Drivers/STM32F4xx_StdPeriph_Driver/src/stm32f4xx_fsmc.c ****    uint32_t tmppcr4 = 0, tmppmem4 = 0, tmppatt4 = 0, tmppio4 = 0;
 1038              		.loc 1 706 4 is_stmt 1 view .LVU378
 1039              	.LVL59:
 707:Drivers/STM32F4xx_StdPeriph_Driver/src/stm32f4xx_fsmc.c **** 
 708:Drivers/STM32F4xx_StdPeriph_Driver/src/stm32f4xx_fsmc.c ****   /* Check the parameters */
 709:Drivers/STM32F4xx_StdPeriph_Driver/src/stm32f4xx_fsmc.c ****   assert_param(IS_FSMC_WAIT_FEATURE(FSMC_PCCARDInitStruct->FSMC_Waitfeature));
 1040              		.loc 1 709 3 view .LVU379
 710:Drivers/STM32F4xx_StdPeriph_Driver/src/stm32f4xx_fsmc.c ****   assert_param(IS_FSMC_TCLR_TIME(FSMC_PCCARDInitStruct->FSMC_TCLRSetupTime));
 1041              		.loc 1 710 3 view .LVU380
 711:Drivers/STM32F4xx_StdPeriph_Driver/src/stm32f4xx_fsmc.c ****   assert_param(IS_FSMC_TAR_TIME(FSMC_PCCARDInitStruct->FSMC_TARSetupTime));
 1042              		.loc 1 711 3 view .LVU381
 712:Drivers/STM32F4xx_StdPeriph_Driver/src/stm32f4xx_fsmc.c ****  
 713:Drivers/STM32F4xx_StdPeriph_Driver/src/stm32f4xx_fsmc.c ****   assert_param(IS_FSMC_SETUP_TIME(FSMC_PCCARDInitStruct->FSMC_CommonSpaceTimingStruct->FSMC_SetupTi
 1043              		.loc 1 713 3 view .LVU382
 714:Drivers/STM32F4xx_StdPeriph_Driver/src/stm32f4xx_fsmc.c ****   assert_param(IS_FSMC_WAIT_TIME(FSMC_PCCARDInitStruct->FSMC_CommonSpaceTimingStruct->FSMC_WaitSetu
 1044              		.loc 1 714 3 view .LVU383
 715:Drivers/STM32F4xx_StdPeriph_Driver/src/stm32f4xx_fsmc.c ****   assert_param(IS_FSMC_HOLD_TIME(FSMC_PCCARDInitStruct->FSMC_CommonSpaceTimingStruct->FSMC_HoldSetu
 1045              		.loc 1 715 3 view .LVU384
 716:Drivers/STM32F4xx_StdPeriph_Driver/src/stm32f4xx_fsmc.c ****   assert_param(IS_FSMC_HIZ_TIME(FSMC_PCCARDInitStruct->FSMC_CommonSpaceTimingStruct->FSMC_HiZSetupT
 1046              		.loc 1 716 3 view .LVU385
 717:Drivers/STM32F4xx_StdPeriph_Driver/src/stm32f4xx_fsmc.c ****   
 718:Drivers/STM32F4xx_StdPeriph_Driver/src/stm32f4xx_fsmc.c ****   assert_param(IS_FSMC_SETUP_TIME(FSMC_PCCARDInitStruct->FSMC_AttributeSpaceTimingStruct->FSMC_Setu
 1047              		.loc 1 718 3 view .LVU386
ARM GAS  /tmp/ccSXeS9O.s 			page 33


 719:Drivers/STM32F4xx_StdPeriph_Driver/src/stm32f4xx_fsmc.c ****   assert_param(IS_FSMC_WAIT_TIME(FSMC_PCCARDInitStruct->FSMC_AttributeSpaceTimingStruct->FSMC_WaitS
 1048              		.loc 1 719 3 view .LVU387
 720:Drivers/STM32F4xx_StdPeriph_Driver/src/stm32f4xx_fsmc.c ****   assert_param(IS_FSMC_HOLD_TIME(FSMC_PCCARDInitStruct->FSMC_AttributeSpaceTimingStruct->FSMC_HoldS
 1049              		.loc 1 720 3 view .LVU388
 721:Drivers/STM32F4xx_StdPeriph_Driver/src/stm32f4xx_fsmc.c ****   assert_param(IS_FSMC_HIZ_TIME(FSMC_PCCARDInitStruct->FSMC_AttributeSpaceTimingStruct->FSMC_HiZSet
 1050              		.loc 1 721 3 view .LVU389
 722:Drivers/STM32F4xx_StdPeriph_Driver/src/stm32f4xx_fsmc.c ****   assert_param(IS_FSMC_SETUP_TIME(FSMC_PCCARDInitStruct->FSMC_IOSpaceTimingStruct->FSMC_SetupTime))
 1051              		.loc 1 722 3 view .LVU390
 723:Drivers/STM32F4xx_StdPeriph_Driver/src/stm32f4xx_fsmc.c ****   assert_param(IS_FSMC_WAIT_TIME(FSMC_PCCARDInitStruct->FSMC_IOSpaceTimingStruct->FSMC_WaitSetupTim
 1052              		.loc 1 723 3 view .LVU391
 724:Drivers/STM32F4xx_StdPeriph_Driver/src/stm32f4xx_fsmc.c ****   assert_param(IS_FSMC_HOLD_TIME(FSMC_PCCARDInitStruct->FSMC_IOSpaceTimingStruct->FSMC_HoldSetupTim
 1053              		.loc 1 724 3 view .LVU392
 725:Drivers/STM32F4xx_StdPeriph_Driver/src/stm32f4xx_fsmc.c ****   assert_param(IS_FSMC_HIZ_TIME(FSMC_PCCARDInitStruct->FSMC_IOSpaceTimingStruct->FSMC_HiZSetupTime)
 1054              		.loc 1 725 3 view .LVU393
 726:Drivers/STM32F4xx_StdPeriph_Driver/src/stm32f4xx_fsmc.c ****   
 727:Drivers/STM32F4xx_StdPeriph_Driver/src/stm32f4xx_fsmc.c ****   /* Get PCCARD control register value */
 728:Drivers/STM32F4xx_StdPeriph_Driver/src/stm32f4xx_fsmc.c ****   tmppcr4 = FSMC_Bank4->PCR4;
 1055              		.loc 1 728 3 view .LVU394
 1056              		.loc 1 728 11 is_stmt 0 view .LVU395
 1057 0002 4FF02042 		mov	r2, #-1610612736
 1058 0006 D2F8A010 		ldr	r1, [r2, #160]
 1059              	.LVL60:
 729:Drivers/STM32F4xx_StdPeriph_Driver/src/stm32f4xx_fsmc.c ****   
 730:Drivers/STM32F4xx_StdPeriph_Driver/src/stm32f4xx_fsmc.c ****   /* Clear TAR, TCLR, PWAITEN and PWID bits */
 731:Drivers/STM32F4xx_StdPeriph_Driver/src/stm32f4xx_fsmc.c ****   tmppcr4 &= ((uint32_t)~(FSMC_PCR4_TAR  | FSMC_PCR4_TCLR | FSMC_PCR4_PWAITEN | \
 1060              		.loc 1 731 3 is_stmt 1 view .LVU396
 1061              		.loc 1 731 11 is_stmt 0 view .LVU397
 1062 000a 21F4FF31 		bic	r1, r1, #130560
 1063              	.LVL61:
 1064              		.loc 1 731 11 view .LVU398
 1065 000e 21F03201 		bic	r1, r1, #50
 1066              	.LVL62:
 732:Drivers/STM32F4xx_StdPeriph_Driver/src/stm32f4xx_fsmc.c ****                           FSMC_PCR4_PWID));
 733:Drivers/STM32F4xx_StdPeriph_Driver/src/stm32f4xx_fsmc.c **** 					   
 734:Drivers/STM32F4xx_StdPeriph_Driver/src/stm32f4xx_fsmc.c ****   /* Set the PCR4 register value according to FSMC_PCCARDInitStruct parameters */
 735:Drivers/STM32F4xx_StdPeriph_Driver/src/stm32f4xx_fsmc.c ****   tmppcr4 |= (uint32_t)FSMC_PCCARDInitStruct->FSMC_Waitfeature |
 1067              		.loc 1 735 3 is_stmt 1 view .LVU399
 1068              		.loc 1 735 45 is_stmt 0 view .LVU400
 1069 0012 0368     		ldr	r3, [r0]
 736:Drivers/STM32F4xx_StdPeriph_Driver/src/stm32f4xx_fsmc.c ****                        FSMC_MemoryDataWidth_16b |  
 1070              		.loc 1 736 49 view .LVU401
 1071 0014 4468     		ldr	r4, [r0, #4]
 1072 0016 43EA4423 		orr	r3, r3, r4, lsl #9
 737:Drivers/STM32F4xx_StdPeriph_Driver/src/stm32f4xx_fsmc.c ****                        (FSMC_PCCARDInitStruct->FSMC_TCLRSetupTime << 9) |
 1073              		.loc 1 737 73 view .LVU402
 1074 001a 8468     		ldr	r4, [r0, #8]
 1075 001c 43EA4433 		orr	r3, r3, r4, lsl #13
 735:Drivers/STM32F4xx_StdPeriph_Driver/src/stm32f4xx_fsmc.c ****                        FSMC_MemoryDataWidth_16b |  
 1076              		.loc 1 735 11 view .LVU403
 1077 0020 0B43     		orrs	r3, r3, r1
 1078 0022 43F01003 		orr	r3, r3, #16
 1079              	.LVL63:
 738:Drivers/STM32F4xx_StdPeriph_Driver/src/stm32f4xx_fsmc.c ****                        (FSMC_PCCARDInitStruct->FSMC_TARSetupTime << 13);
 739:Drivers/STM32F4xx_StdPeriph_Driver/src/stm32f4xx_fsmc.c ****   
 740:Drivers/STM32F4xx_StdPeriph_Driver/src/stm32f4xx_fsmc.c ****   FSMC_Bank4->PCR4 = tmppcr4;
 1080              		.loc 1 740 3 is_stmt 1 view .LVU404
 1081              		.loc 1 740 20 is_stmt 0 view .LVU405
ARM GAS  /tmp/ccSXeS9O.s 			page 34


 1082 0026 C2F8A030 		str	r3, [r2, #160]
 741:Drivers/STM32F4xx_StdPeriph_Driver/src/stm32f4xx_fsmc.c ****   
 742:Drivers/STM32F4xx_StdPeriph_Driver/src/stm32f4xx_fsmc.c ****   /* Get PCCARD common space timing register value */
 743:Drivers/STM32F4xx_StdPeriph_Driver/src/stm32f4xx_fsmc.c ****   tmppmem4 = FSMC_Bank4->PMEM4;
 1083              		.loc 1 743 3 is_stmt 1 view .LVU406
 1084              		.loc 1 743 12 is_stmt 0 view .LVU407
 1085 002a D2F8A830 		ldr	r3, [r2, #168]
 1086              	.LVL64:
 744:Drivers/STM32F4xx_StdPeriph_Driver/src/stm32f4xx_fsmc.c ****   
 745:Drivers/STM32F4xx_StdPeriph_Driver/src/stm32f4xx_fsmc.c ****   /* Clear MEMSETx, MEMWAITx, MEMHOLDx and MEMHIZx bits */
 746:Drivers/STM32F4xx_StdPeriph_Driver/src/stm32f4xx_fsmc.c ****   tmppmem4 &= ((uint32_t)~(FSMC_PMEM4_MEMSET4  | FSMC_PMEM4_MEMWAIT4 | FSMC_PMEM4_MEMHOLD4 | \
 1087              		.loc 1 746 3 is_stmt 1 view .LVU408
 747:Drivers/STM32F4xx_StdPeriph_Driver/src/stm32f4xx_fsmc.c ****                            FSMC_PMEM4_MEMHIZ4));
 748:Drivers/STM32F4xx_StdPeriph_Driver/src/stm32f4xx_fsmc.c **** 					   
 749:Drivers/STM32F4xx_StdPeriph_Driver/src/stm32f4xx_fsmc.c ****   /* Set PMEM4 register value according to FSMC_CommonSpaceTimingStructure parameters */
 750:Drivers/STM32F4xx_StdPeriph_Driver/src/stm32f4xx_fsmc.c ****   tmppmem4 |= (uint32_t)FSMC_PCCARDInitStruct->FSMC_CommonSpaceTimingStruct->FSMC_SetupTime |
 1088              		.loc 1 750 3 view .LVU409
 1089              		.loc 1 750 46 is_stmt 0 view .LVU410
 1090 002e C168     		ldr	r1, [r0, #12]
 1091              		.loc 1 750 76 view .LVU411
 1092 0030 0B68     		ldr	r3, [r1]
 1093              		.loc 1 750 93 view .LVU412
 1094 0032 4C68     		ldr	r4, [r1, #4]
 1095 0034 43EA0423 		orr	r3, r3, r4, lsl #8
 751:Drivers/STM32F4xx_StdPeriph_Driver/src/stm32f4xx_fsmc.c ****                         (FSMC_PCCARDInitStruct->FSMC_CommonSpaceTimingStruct->FSMC_WaitSetupTime <<
 1096              		.loc 1 751 104 view .LVU413
 1097 0038 8C68     		ldr	r4, [r1, #8]
 1098 003a 43EA0443 		orr	r3, r3, r4, lsl #16
 752:Drivers/STM32F4xx_StdPeriph_Driver/src/stm32f4xx_fsmc.c ****                         (FSMC_PCCARDInitStruct->FSMC_CommonSpaceTimingStruct->FSMC_HoldSetupTime <<
 753:Drivers/STM32F4xx_StdPeriph_Driver/src/stm32f4xx_fsmc.c ****                         (FSMC_PCCARDInitStruct->FSMC_CommonSpaceTimingStruct->FSMC_HiZSetupTime << 
 1099              		.loc 1 753 77 view .LVU414
 1100 003e C968     		ldr	r1, [r1, #12]
 752:Drivers/STM32F4xx_StdPeriph_Driver/src/stm32f4xx_fsmc.c ****                         (FSMC_PCCARDInitStruct->FSMC_CommonSpaceTimingStruct->FSMC_HoldSetupTime <<
 1101              		.loc 1 752 104 view .LVU415
 1102 0040 43EA0163 		orr	r3, r3, r1, lsl #24
 1103              	.LVL65:
 754:Drivers/STM32F4xx_StdPeriph_Driver/src/stm32f4xx_fsmc.c ****    
 755:Drivers/STM32F4xx_StdPeriph_Driver/src/stm32f4xx_fsmc.c ****   FSMC_Bank4->PMEM4 = tmppmem4;
 1104              		.loc 1 755 3 is_stmt 1 view .LVU416
 1105              		.loc 1 755 21 is_stmt 0 view .LVU417
 1106 0044 C2F8A830 		str	r3, [r2, #168]
 1107              	.LVL66:
 756:Drivers/STM32F4xx_StdPeriph_Driver/src/stm32f4xx_fsmc.c ****   
 757:Drivers/STM32F4xx_StdPeriph_Driver/src/stm32f4xx_fsmc.c ****   /* Get PCCARD timing parameters */
 758:Drivers/STM32F4xx_StdPeriph_Driver/src/stm32f4xx_fsmc.c ****   tmppatt4 = FSMC_Bank4->PATT4;
 1108              		.loc 1 758 3 is_stmt 1 view .LVU418
 1109              		.loc 1 758 12 is_stmt 0 view .LVU419
 1110 0048 D2F8AC30 		ldr	r3, [r2, #172]
 1111              	.LVL67:
 759:Drivers/STM32F4xx_StdPeriph_Driver/src/stm32f4xx_fsmc.c **** 
 760:Drivers/STM32F4xx_StdPeriph_Driver/src/stm32f4xx_fsmc.c ****   /* Clear ATTSETx, ATTWAITx, ATTHOLDx and ATTHIZx bits */
 761:Drivers/STM32F4xx_StdPeriph_Driver/src/stm32f4xx_fsmc.c ****   tmppatt4 &= ((uint32_t)~(FSMC_PATT4_ATTSET4  | FSMC_PATT4_ATTWAIT4 | FSMC_PATT4_ATTHOLD4 | \
 1112              		.loc 1 761 3 is_stmt 1 view .LVU420
 762:Drivers/STM32F4xx_StdPeriph_Driver/src/stm32f4xx_fsmc.c ****                            FSMC_PATT4_ATTHIZ4));
 763:Drivers/STM32F4xx_StdPeriph_Driver/src/stm32f4xx_fsmc.c **** 					   
 764:Drivers/STM32F4xx_StdPeriph_Driver/src/stm32f4xx_fsmc.c ****   /* Set PATT4 register value according to FSMC_AttributeSpaceTimingStructure parameters */
 765:Drivers/STM32F4xx_StdPeriph_Driver/src/stm32f4xx_fsmc.c ****   tmppatt4 |= (uint32_t)FSMC_PCCARDInitStruct->FSMC_AttributeSpaceTimingStruct->FSMC_SetupTime |
ARM GAS  /tmp/ccSXeS9O.s 			page 35


 1113              		.loc 1 765 3 view .LVU421
 1114              		.loc 1 765 46 is_stmt 0 view .LVU422
 1115 004c 0169     		ldr	r1, [r0, #16]
 1116              		.loc 1 765 79 view .LVU423
 1117 004e 0B68     		ldr	r3, [r1]
 1118              		.loc 1 765 96 view .LVU424
 1119 0050 4C68     		ldr	r4, [r1, #4]
 1120 0052 43EA0423 		orr	r3, r3, r4, lsl #8
 766:Drivers/STM32F4xx_StdPeriph_Driver/src/stm32f4xx_fsmc.c ****                         (FSMC_PCCARDInitStruct->FSMC_AttributeSpaceTimingStruct->FSMC_WaitSetupTime
 1121              		.loc 1 766 107 view .LVU425
 1122 0056 8C68     		ldr	r4, [r1, #8]
 1123 0058 43EA0443 		orr	r3, r3, r4, lsl #16
 767:Drivers/STM32F4xx_StdPeriph_Driver/src/stm32f4xx_fsmc.c ****                         (FSMC_PCCARDInitStruct->FSMC_AttributeSpaceTimingStruct->FSMC_HoldSetupTime
 768:Drivers/STM32F4xx_StdPeriph_Driver/src/stm32f4xx_fsmc.c ****                         (FSMC_PCCARDInitStruct->FSMC_AttributeSpaceTimingStruct->FSMC_HiZSetupTime 
 1124              		.loc 1 768 80 view .LVU426
 1125 005c C968     		ldr	r1, [r1, #12]
 767:Drivers/STM32F4xx_StdPeriph_Driver/src/stm32f4xx_fsmc.c ****                         (FSMC_PCCARDInitStruct->FSMC_AttributeSpaceTimingStruct->FSMC_HoldSetupTime
 1126              		.loc 1 767 107 view .LVU427
 1127 005e 43EA0163 		orr	r3, r3, r1, lsl #24
 1128              	.LVL68:
 769:Drivers/STM32F4xx_StdPeriph_Driver/src/stm32f4xx_fsmc.c ****    
 770:Drivers/STM32F4xx_StdPeriph_Driver/src/stm32f4xx_fsmc.c ****   FSMC_Bank4->PATT4 = tmppatt4;
 1129              		.loc 1 770 3 is_stmt 1 view .LVU428
 1130              		.loc 1 770 21 is_stmt 0 view .LVU429
 1131 0062 C2F8AC30 		str	r3, [r2, #172]
 1132              	.LVL69:
 771:Drivers/STM32F4xx_StdPeriph_Driver/src/stm32f4xx_fsmc.c **** 
 772:Drivers/STM32F4xx_StdPeriph_Driver/src/stm32f4xx_fsmc.c ****   /* Get FSMC_PCCARD device timing parameters */
 773:Drivers/STM32F4xx_StdPeriph_Driver/src/stm32f4xx_fsmc.c ****   tmppio4 = FSMC_Bank4->PIO4;
 1133              		.loc 1 773 3 is_stmt 1 view .LVU430
 1134              		.loc 1 773 11 is_stmt 0 view .LVU431
 1135 0066 D2F8B030 		ldr	r3, [r2, #176]
 1136              	.LVL70:
 774:Drivers/STM32F4xx_StdPeriph_Driver/src/stm32f4xx_fsmc.c **** 
 775:Drivers/STM32F4xx_StdPeriph_Driver/src/stm32f4xx_fsmc.c ****   /* Clear IOSET4, IOWAIT4, IOHOLD4 and IOHIZ4 bits */
 776:Drivers/STM32F4xx_StdPeriph_Driver/src/stm32f4xx_fsmc.c ****   tmppio4 &= ((uint32_t)~(FSMC_PIO4_IOSET4  | FSMC_PIO4_IOWAIT4 | FSMC_PIO4_IOHOLD4 | \
 1137              		.loc 1 776 3 is_stmt 1 view .LVU432
 777:Drivers/STM32F4xx_StdPeriph_Driver/src/stm32f4xx_fsmc.c ****                           FSMC_PIO4_IOHIZ4));
 778:Drivers/STM32F4xx_StdPeriph_Driver/src/stm32f4xx_fsmc.c **** 					   
 779:Drivers/STM32F4xx_StdPeriph_Driver/src/stm32f4xx_fsmc.c ****   /* Set PIO4 register value according to FSMC_IOSpaceTimingStructure parameters */
 780:Drivers/STM32F4xx_StdPeriph_Driver/src/stm32f4xx_fsmc.c ****   tmppio4 |= (uint32_t)FSMC_PCCARDInitStruct->FSMC_IOSpaceTimingStruct->FSMC_SetupTime |
 1138              		.loc 1 780 3 view .LVU433
 1139              		.loc 1 780 45 is_stmt 0 view .LVU434
 1140 006a 4169     		ldr	r1, [r0, #20]
 1141              		.loc 1 780 71 view .LVU435
 1142 006c 0B68     		ldr	r3, [r1]
 781:Drivers/STM32F4xx_StdPeriph_Driver/src/stm32f4xx_fsmc.c ****                        (FSMC_PCCARDInitStruct->FSMC_IOSpaceTimingStruct->FSMC_WaitSetupTime << 8) |
 1143              		.loc 1 781 72 view .LVU436
 1144 006e 4868     		ldr	r0, [r1, #4]
 1145              	.LVL71:
 780:Drivers/STM32F4xx_StdPeriph_Driver/src/stm32f4xx_fsmc.c ****                        (FSMC_PCCARDInitStruct->FSMC_IOSpaceTimingStruct->FSMC_WaitSetupTime << 8) |
 1146              		.loc 1 780 88 view .LVU437
 1147 0070 43EA0023 		orr	r3, r3, r0, lsl #8
 782:Drivers/STM32F4xx_StdPeriph_Driver/src/stm32f4xx_fsmc.c ****                        (FSMC_PCCARDInitStruct->FSMC_IOSpaceTimingStruct->FSMC_HoldSetupTime << 16)|
 1148              		.loc 1 782 72 view .LVU438
 1149 0074 8868     		ldr	r0, [r1, #8]
 781:Drivers/STM32F4xx_StdPeriph_Driver/src/stm32f4xx_fsmc.c ****                        (FSMC_PCCARDInitStruct->FSMC_IOSpaceTimingStruct->FSMC_WaitSetupTime << 8) |
ARM GAS  /tmp/ccSXeS9O.s 			page 36


 1150              		.loc 1 781 99 view .LVU439
 1151 0076 43EA0043 		orr	r3, r3, r0, lsl #16
 783:Drivers/STM32F4xx_StdPeriph_Driver/src/stm32f4xx_fsmc.c ****                        (FSMC_PCCARDInitStruct->FSMC_IOSpaceTimingStruct->FSMC_HiZSetupTime << 24); 
 1152              		.loc 1 783 72 view .LVU440
 1153 007a C968     		ldr	r1, [r1, #12]
 782:Drivers/STM32F4xx_StdPeriph_Driver/src/stm32f4xx_fsmc.c ****                        (FSMC_PCCARDInitStruct->FSMC_IOSpaceTimingStruct->FSMC_HoldSetupTime << 16)|
 1154              		.loc 1 782 99 view .LVU441
 1155 007c 43EA0163 		orr	r3, r3, r1, lsl #24
 1156              	.LVL72:
 784:Drivers/STM32F4xx_StdPeriph_Driver/src/stm32f4xx_fsmc.c ****   
 785:Drivers/STM32F4xx_StdPeriph_Driver/src/stm32f4xx_fsmc.c ****   FSMC_Bank4->PIO4 = tmppio4;					 
 1157              		.loc 1 785 3 is_stmt 1 view .LVU442
 1158              		.loc 1 785 20 is_stmt 0 view .LVU443
 1159 0080 C2F8B030 		str	r3, [r2, #176]
 1160              	.LVL73:
 786:Drivers/STM32F4xx_StdPeriph_Driver/src/stm32f4xx_fsmc.c **** }
 1161              		.loc 1 786 1 view .LVU444
 1162 0084 5DF8044B 		ldr	r4, [sp], #4
 1163              		.cfi_restore 4
 1164              		.cfi_def_cfa_offset 0
 1165 0088 7047     		bx	lr
 1166              		.cfi_endproc
 1167              	.LFE134:
 1169              		.section	.text.FSMC_PCCARDStructInit,"ax",%progbits
 1170              		.align	1
 1171              		.global	FSMC_PCCARDStructInit
 1172              		.syntax unified
 1173              		.thumb
 1174              		.thumb_func
 1176              	FSMC_PCCARDStructInit:
 1177              	.LVL74:
 1178              	.LFB135:
 787:Drivers/STM32F4xx_StdPeriph_Driver/src/stm32f4xx_fsmc.c **** 
 788:Drivers/STM32F4xx_StdPeriph_Driver/src/stm32f4xx_fsmc.c **** /**
 789:Drivers/STM32F4xx_StdPeriph_Driver/src/stm32f4xx_fsmc.c ****   * @brief  Fills each FSMC_PCCARDInitStruct member with its default value.
 790:Drivers/STM32F4xx_StdPeriph_Driver/src/stm32f4xx_fsmc.c ****   * @param  FSMC_PCCARDInitStruct: pointer to a FSMC_PCCARDInitTypeDef structure
 791:Drivers/STM32F4xx_StdPeriph_Driver/src/stm32f4xx_fsmc.c ****   *         which will be initialized.
 792:Drivers/STM32F4xx_StdPeriph_Driver/src/stm32f4xx_fsmc.c ****   * @retval None
 793:Drivers/STM32F4xx_StdPeriph_Driver/src/stm32f4xx_fsmc.c ****   */
 794:Drivers/STM32F4xx_StdPeriph_Driver/src/stm32f4xx_fsmc.c **** void FSMC_PCCARDStructInit(FSMC_PCCARDInitTypeDef* FSMC_PCCARDInitStruct)
 795:Drivers/STM32F4xx_StdPeriph_Driver/src/stm32f4xx_fsmc.c **** {
 1179              		.loc 1 795 1 is_stmt 1 view -0
 1180              		.cfi_startproc
 1181              		@ args = 0, pretend = 0, frame = 0
 1182              		@ frame_needed = 0, uses_anonymous_args = 0
 1183              		@ link register save eliminated.
 796:Drivers/STM32F4xx_StdPeriph_Driver/src/stm32f4xx_fsmc.c ****   /* Reset PCCARD Init structure parameters values */
 797:Drivers/STM32F4xx_StdPeriph_Driver/src/stm32f4xx_fsmc.c ****   FSMC_PCCARDInitStruct->FSMC_Waitfeature = FSMC_Waitfeature_Disable;
 1184              		.loc 1 797 3 view .LVU446
 1185              		.loc 1 797 43 is_stmt 0 view .LVU447
 1186 0000 0023     		movs	r3, #0
 1187 0002 0360     		str	r3, [r0]
 798:Drivers/STM32F4xx_StdPeriph_Driver/src/stm32f4xx_fsmc.c ****   FSMC_PCCARDInitStruct->FSMC_TCLRSetupTime = 0x0;
 1188              		.loc 1 798 3 is_stmt 1 view .LVU448
 1189              		.loc 1 798 45 is_stmt 0 view .LVU449
 1190 0004 4360     		str	r3, [r0, #4]
 799:Drivers/STM32F4xx_StdPeriph_Driver/src/stm32f4xx_fsmc.c ****   FSMC_PCCARDInitStruct->FSMC_TARSetupTime = 0x0;
ARM GAS  /tmp/ccSXeS9O.s 			page 37


 1191              		.loc 1 799 3 is_stmt 1 view .LVU450
 1192              		.loc 1 799 44 is_stmt 0 view .LVU451
 1193 0006 8360     		str	r3, [r0, #8]
 800:Drivers/STM32F4xx_StdPeriph_Driver/src/stm32f4xx_fsmc.c ****   FSMC_PCCARDInitStruct->FSMC_CommonSpaceTimingStruct->FSMC_SetupTime = 0xFC;
 1194              		.loc 1 800 3 is_stmt 1 view .LVU452
 1195              		.loc 1 800 24 is_stmt 0 view .LVU453
 1196 0008 C268     		ldr	r2, [r0, #12]
 1197              		.loc 1 800 71 view .LVU454
 1198 000a FC23     		movs	r3, #252
 1199 000c 1360     		str	r3, [r2]
 801:Drivers/STM32F4xx_StdPeriph_Driver/src/stm32f4xx_fsmc.c ****   FSMC_PCCARDInitStruct->FSMC_CommonSpaceTimingStruct->FSMC_WaitSetupTime = 0xFC;
 1200              		.loc 1 801 3 is_stmt 1 view .LVU455
 1201              		.loc 1 801 24 is_stmt 0 view .LVU456
 1202 000e C268     		ldr	r2, [r0, #12]
 1203              		.loc 1 801 75 view .LVU457
 1204 0010 5360     		str	r3, [r2, #4]
 802:Drivers/STM32F4xx_StdPeriph_Driver/src/stm32f4xx_fsmc.c ****   FSMC_PCCARDInitStruct->FSMC_CommonSpaceTimingStruct->FSMC_HoldSetupTime = 0xFC;
 1205              		.loc 1 802 3 is_stmt 1 view .LVU458
 1206              		.loc 1 802 24 is_stmt 0 view .LVU459
 1207 0012 C268     		ldr	r2, [r0, #12]
 1208              		.loc 1 802 75 view .LVU460
 1209 0014 9360     		str	r3, [r2, #8]
 803:Drivers/STM32F4xx_StdPeriph_Driver/src/stm32f4xx_fsmc.c ****   FSMC_PCCARDInitStruct->FSMC_CommonSpaceTimingStruct->FSMC_HiZSetupTime = 0xFC;
 1210              		.loc 1 803 3 is_stmt 1 view .LVU461
 1211              		.loc 1 803 24 is_stmt 0 view .LVU462
 1212 0016 C268     		ldr	r2, [r0, #12]
 1213              		.loc 1 803 74 view .LVU463
 1214 0018 D360     		str	r3, [r2, #12]
 804:Drivers/STM32F4xx_StdPeriph_Driver/src/stm32f4xx_fsmc.c ****   FSMC_PCCARDInitStruct->FSMC_AttributeSpaceTimingStruct->FSMC_SetupTime = 0xFC;
 1215              		.loc 1 804 3 is_stmt 1 view .LVU464
 1216              		.loc 1 804 24 is_stmt 0 view .LVU465
 1217 001a 0269     		ldr	r2, [r0, #16]
 1218              		.loc 1 804 74 view .LVU466
 1219 001c 1360     		str	r3, [r2]
 805:Drivers/STM32F4xx_StdPeriph_Driver/src/stm32f4xx_fsmc.c ****   FSMC_PCCARDInitStruct->FSMC_AttributeSpaceTimingStruct->FSMC_WaitSetupTime = 0xFC;
 1220              		.loc 1 805 3 is_stmt 1 view .LVU467
 1221              		.loc 1 805 24 is_stmt 0 view .LVU468
 1222 001e 0269     		ldr	r2, [r0, #16]
 1223              		.loc 1 805 78 view .LVU469
 1224 0020 5360     		str	r3, [r2, #4]
 806:Drivers/STM32F4xx_StdPeriph_Driver/src/stm32f4xx_fsmc.c ****   FSMC_PCCARDInitStruct->FSMC_AttributeSpaceTimingStruct->FSMC_HoldSetupTime = 0xFC;
 1225              		.loc 1 806 3 is_stmt 1 view .LVU470
 1226              		.loc 1 806 24 is_stmt 0 view .LVU471
 1227 0022 0269     		ldr	r2, [r0, #16]
 1228              		.loc 1 806 78 view .LVU472
 1229 0024 9360     		str	r3, [r2, #8]
 807:Drivers/STM32F4xx_StdPeriph_Driver/src/stm32f4xx_fsmc.c ****   FSMC_PCCARDInitStruct->FSMC_AttributeSpaceTimingStruct->FSMC_HiZSetupTime = 0xFC;	
 1230              		.loc 1 807 3 is_stmt 1 view .LVU473
 1231              		.loc 1 807 24 is_stmt 0 view .LVU474
 1232 0026 0269     		ldr	r2, [r0, #16]
 1233              		.loc 1 807 77 view .LVU475
 1234 0028 D360     		str	r3, [r2, #12]
 808:Drivers/STM32F4xx_StdPeriph_Driver/src/stm32f4xx_fsmc.c ****   FSMC_PCCARDInitStruct->FSMC_IOSpaceTimingStruct->FSMC_SetupTime = 0xFC;
 1235              		.loc 1 808 3 is_stmt 1 view .LVU476
 1236              		.loc 1 808 24 is_stmt 0 view .LVU477
 1237 002a 4269     		ldr	r2, [r0, #20]
 1238              		.loc 1 808 67 view .LVU478
ARM GAS  /tmp/ccSXeS9O.s 			page 38


 1239 002c 1360     		str	r3, [r2]
 809:Drivers/STM32F4xx_StdPeriph_Driver/src/stm32f4xx_fsmc.c ****   FSMC_PCCARDInitStruct->FSMC_IOSpaceTimingStruct->FSMC_WaitSetupTime = 0xFC;
 1240              		.loc 1 809 3 is_stmt 1 view .LVU479
 1241              		.loc 1 809 24 is_stmt 0 view .LVU480
 1242 002e 4269     		ldr	r2, [r0, #20]
 1243              		.loc 1 809 71 view .LVU481
 1244 0030 5360     		str	r3, [r2, #4]
 810:Drivers/STM32F4xx_StdPeriph_Driver/src/stm32f4xx_fsmc.c ****   FSMC_PCCARDInitStruct->FSMC_IOSpaceTimingStruct->FSMC_HoldSetupTime = 0xFC;
 1245              		.loc 1 810 3 is_stmt 1 view .LVU482
 1246              		.loc 1 810 24 is_stmt 0 view .LVU483
 1247 0032 4269     		ldr	r2, [r0, #20]
 1248              		.loc 1 810 71 view .LVU484
 1249 0034 9360     		str	r3, [r2, #8]
 811:Drivers/STM32F4xx_StdPeriph_Driver/src/stm32f4xx_fsmc.c ****   FSMC_PCCARDInitStruct->FSMC_IOSpaceTimingStruct->FSMC_HiZSetupTime = 0xFC;
 1250              		.loc 1 811 3 is_stmt 1 view .LVU485
 1251              		.loc 1 811 24 is_stmt 0 view .LVU486
 1252 0036 4269     		ldr	r2, [r0, #20]
 1253              		.loc 1 811 70 view .LVU487
 1254 0038 D360     		str	r3, [r2, #12]
 812:Drivers/STM32F4xx_StdPeriph_Driver/src/stm32f4xx_fsmc.c **** }
 1255              		.loc 1 812 1 view .LVU488
 1256 003a 7047     		bx	lr
 1257              		.cfi_endproc
 1258              	.LFE135:
 1260              		.section	.text.FSMC_PCCARDCmd,"ax",%progbits
 1261              		.align	1
 1262              		.global	FSMC_PCCARDCmd
 1263              		.syntax unified
 1264              		.thumb
 1265              		.thumb_func
 1267              	FSMC_PCCARDCmd:
 1268              	.LVL75:
 1269              	.LFB136:
 813:Drivers/STM32F4xx_StdPeriph_Driver/src/stm32f4xx_fsmc.c **** 
 814:Drivers/STM32F4xx_StdPeriph_Driver/src/stm32f4xx_fsmc.c **** /**
 815:Drivers/STM32F4xx_StdPeriph_Driver/src/stm32f4xx_fsmc.c ****   * @brief  Enables or disables the PCCARD Memory Bank.
 816:Drivers/STM32F4xx_StdPeriph_Driver/src/stm32f4xx_fsmc.c ****   * @param  NewState: new state of the PCCARD Memory Bank.  
 817:Drivers/STM32F4xx_StdPeriph_Driver/src/stm32f4xx_fsmc.c ****   *          This parameter can be: ENABLE or DISABLE.
 818:Drivers/STM32F4xx_StdPeriph_Driver/src/stm32f4xx_fsmc.c ****   * @retval None
 819:Drivers/STM32F4xx_StdPeriph_Driver/src/stm32f4xx_fsmc.c ****   */
 820:Drivers/STM32F4xx_StdPeriph_Driver/src/stm32f4xx_fsmc.c **** void FSMC_PCCARDCmd(FunctionalState NewState)
 821:Drivers/STM32F4xx_StdPeriph_Driver/src/stm32f4xx_fsmc.c **** {
 1270              		.loc 1 821 1 is_stmt 1 view -0
 1271              		.cfi_startproc
 1272              		@ args = 0, pretend = 0, frame = 0
 1273              		@ frame_needed = 0, uses_anonymous_args = 0
 1274              		@ link register save eliminated.
 822:Drivers/STM32F4xx_StdPeriph_Driver/src/stm32f4xx_fsmc.c ****   assert_param(IS_FUNCTIONAL_STATE(NewState));
 1275              		.loc 1 822 3 view .LVU490
 823:Drivers/STM32F4xx_StdPeriph_Driver/src/stm32f4xx_fsmc.c ****   
 824:Drivers/STM32F4xx_StdPeriph_Driver/src/stm32f4xx_fsmc.c ****   if (NewState != DISABLE)
 1276              		.loc 1 824 3 view .LVU491
 1277              		.loc 1 824 6 is_stmt 0 view .LVU492
 1278 0000 40B1     		cbz	r0, .L69
 825:Drivers/STM32F4xx_StdPeriph_Driver/src/stm32f4xx_fsmc.c ****   {
 826:Drivers/STM32F4xx_StdPeriph_Driver/src/stm32f4xx_fsmc.c ****     /* Enable the PCCARD Bank by setting the PBKEN bit in the PCR4 register */
 827:Drivers/STM32F4xx_StdPeriph_Driver/src/stm32f4xx_fsmc.c ****     FSMC_Bank4->PCR4 |= PCR_PBKEN_SET;
ARM GAS  /tmp/ccSXeS9O.s 			page 39


 1279              		.loc 1 827 5 is_stmt 1 view .LVU493
 1280              		.loc 1 827 22 is_stmt 0 view .LVU494
 1281 0002 4FF02042 		mov	r2, #-1610612736
 1282 0006 D2F8A030 		ldr	r3, [r2, #160]
 1283 000a 43F00403 		orr	r3, r3, #4
 1284 000e C2F8A030 		str	r3, [r2, #160]
 1285 0012 7047     		bx	lr
 1286              	.L69:
 828:Drivers/STM32F4xx_StdPeriph_Driver/src/stm32f4xx_fsmc.c ****   }
 829:Drivers/STM32F4xx_StdPeriph_Driver/src/stm32f4xx_fsmc.c ****   else
 830:Drivers/STM32F4xx_StdPeriph_Driver/src/stm32f4xx_fsmc.c ****   {
 831:Drivers/STM32F4xx_StdPeriph_Driver/src/stm32f4xx_fsmc.c ****     /* Disable the PCCARD Bank by clearing the PBKEN bit in the PCR4 register */
 832:Drivers/STM32F4xx_StdPeriph_Driver/src/stm32f4xx_fsmc.c ****     FSMC_Bank4->PCR4 &= PCR_PBKEN_RESET;
 1287              		.loc 1 832 5 is_stmt 1 view .LVU495
 1288              		.loc 1 832 22 is_stmt 0 view .LVU496
 1289 0014 4FF02042 		mov	r2, #-1610612736
 1290 0018 D2F8A010 		ldr	r1, [r2, #160]
 1291 001c 024B     		ldr	r3, .L71
 1292 001e 0B40     		ands	r3, r3, r1
 1293 0020 C2F8A030 		str	r3, [r2, #160]
 833:Drivers/STM32F4xx_StdPeriph_Driver/src/stm32f4xx_fsmc.c ****   }
 834:Drivers/STM32F4xx_StdPeriph_Driver/src/stm32f4xx_fsmc.c **** }
 1294              		.loc 1 834 1 view .LVU497
 1295 0024 7047     		bx	lr
 1296              	.L72:
 1297 0026 00BF     		.align	2
 1298              	.L71:
 1299 0028 FBFF0F00 		.word	1048571
 1300              		.cfi_endproc
 1301              	.LFE136:
 1303              		.section	.text.FSMC_ITConfig,"ax",%progbits
 1304              		.align	1
 1305              		.global	FSMC_ITConfig
 1306              		.syntax unified
 1307              		.thumb
 1308              		.thumb_func
 1310              	FSMC_ITConfig:
 1311              	.LVL76:
 1312              	.LFB137:
 835:Drivers/STM32F4xx_StdPeriph_Driver/src/stm32f4xx_fsmc.c **** /**
 836:Drivers/STM32F4xx_StdPeriph_Driver/src/stm32f4xx_fsmc.c ****   * @}
 837:Drivers/STM32F4xx_StdPeriph_Driver/src/stm32f4xx_fsmc.c ****   */
 838:Drivers/STM32F4xx_StdPeriph_Driver/src/stm32f4xx_fsmc.c **** 
 839:Drivers/STM32F4xx_StdPeriph_Driver/src/stm32f4xx_fsmc.c **** /** @defgroup FSMC_Group4  Interrupts and flags management functions
 840:Drivers/STM32F4xx_StdPeriph_Driver/src/stm32f4xx_fsmc.c ****  *  @brief    Interrupts and flags management functions
 841:Drivers/STM32F4xx_StdPeriph_Driver/src/stm32f4xx_fsmc.c ****  *
 842:Drivers/STM32F4xx_StdPeriph_Driver/src/stm32f4xx_fsmc.c **** @verbatim   
 843:Drivers/STM32F4xx_StdPeriph_Driver/src/stm32f4xx_fsmc.c ****  ===============================================================================
 844:Drivers/STM32F4xx_StdPeriph_Driver/src/stm32f4xx_fsmc.c ****              ##### Interrupts and flags management functions #####
 845:Drivers/STM32F4xx_StdPeriph_Driver/src/stm32f4xx_fsmc.c ****  ===============================================================================   
 846:Drivers/STM32F4xx_StdPeriph_Driver/src/stm32f4xx_fsmc.c **** 
 847:Drivers/STM32F4xx_StdPeriph_Driver/src/stm32f4xx_fsmc.c **** @endverbatim
 848:Drivers/STM32F4xx_StdPeriph_Driver/src/stm32f4xx_fsmc.c ****   * @{
 849:Drivers/STM32F4xx_StdPeriph_Driver/src/stm32f4xx_fsmc.c ****   */
 850:Drivers/STM32F4xx_StdPeriph_Driver/src/stm32f4xx_fsmc.c **** 
 851:Drivers/STM32F4xx_StdPeriph_Driver/src/stm32f4xx_fsmc.c **** /**
 852:Drivers/STM32F4xx_StdPeriph_Driver/src/stm32f4xx_fsmc.c ****   * @brief  Enables or disables the specified FSMC interrupts.
ARM GAS  /tmp/ccSXeS9O.s 			page 40


 853:Drivers/STM32F4xx_StdPeriph_Driver/src/stm32f4xx_fsmc.c ****   * @param  FSMC_Bank: specifies the FSMC Bank to be used
 854:Drivers/STM32F4xx_StdPeriph_Driver/src/stm32f4xx_fsmc.c ****   *          This parameter can be one of the following values:
 855:Drivers/STM32F4xx_StdPeriph_Driver/src/stm32f4xx_fsmc.c ****   *            @arg FSMC_Bank2_NAND: FSMC Bank2 NAND 
 856:Drivers/STM32F4xx_StdPeriph_Driver/src/stm32f4xx_fsmc.c ****   *            @arg FSMC_Bank3_NAND: FSMC Bank3 NAND
 857:Drivers/STM32F4xx_StdPeriph_Driver/src/stm32f4xx_fsmc.c ****   *            @arg FSMC_Bank4_PCCARD: FSMC Bank4 PCCARD
 858:Drivers/STM32F4xx_StdPeriph_Driver/src/stm32f4xx_fsmc.c ****   * @param  FSMC_IT: specifies the FSMC interrupt sources to be enabled or disabled.
 859:Drivers/STM32F4xx_StdPeriph_Driver/src/stm32f4xx_fsmc.c ****   *          This parameter can be any combination of the following values:
 860:Drivers/STM32F4xx_StdPeriph_Driver/src/stm32f4xx_fsmc.c ****   *            @arg FSMC_IT_RisingEdge: Rising edge detection interrupt. 
 861:Drivers/STM32F4xx_StdPeriph_Driver/src/stm32f4xx_fsmc.c ****   *            @arg FSMC_IT_Level: Level edge detection interrupt.
 862:Drivers/STM32F4xx_StdPeriph_Driver/src/stm32f4xx_fsmc.c ****   *            @arg FSMC_IT_FallingEdge: Falling edge detection interrupt.
 863:Drivers/STM32F4xx_StdPeriph_Driver/src/stm32f4xx_fsmc.c ****   * @param  NewState: new state of the specified FSMC interrupts.
 864:Drivers/STM32F4xx_StdPeriph_Driver/src/stm32f4xx_fsmc.c ****   *          This parameter can be: ENABLE or DISABLE.
 865:Drivers/STM32F4xx_StdPeriph_Driver/src/stm32f4xx_fsmc.c ****   * @retval None
 866:Drivers/STM32F4xx_StdPeriph_Driver/src/stm32f4xx_fsmc.c ****   */
 867:Drivers/STM32F4xx_StdPeriph_Driver/src/stm32f4xx_fsmc.c **** void FSMC_ITConfig(uint32_t FSMC_Bank, uint32_t FSMC_IT, FunctionalState NewState)
 868:Drivers/STM32F4xx_StdPeriph_Driver/src/stm32f4xx_fsmc.c **** {
 1313              		.loc 1 868 1 is_stmt 1 view -0
 1314              		.cfi_startproc
 1315              		@ args = 0, pretend = 0, frame = 0
 1316              		@ frame_needed = 0, uses_anonymous_args = 0
 1317              		@ link register save eliminated.
 869:Drivers/STM32F4xx_StdPeriph_Driver/src/stm32f4xx_fsmc.c ****   assert_param(IS_FSMC_IT_BANK(FSMC_Bank));
 1318              		.loc 1 869 3 view .LVU499
 870:Drivers/STM32F4xx_StdPeriph_Driver/src/stm32f4xx_fsmc.c ****   assert_param(IS_FSMC_IT(FSMC_IT));	
 1319              		.loc 1 870 3 view .LVU500
 871:Drivers/STM32F4xx_StdPeriph_Driver/src/stm32f4xx_fsmc.c ****   assert_param(IS_FUNCTIONAL_STATE(NewState));
 1320              		.loc 1 871 3 view .LVU501
 872:Drivers/STM32F4xx_StdPeriph_Driver/src/stm32f4xx_fsmc.c ****   
 873:Drivers/STM32F4xx_StdPeriph_Driver/src/stm32f4xx_fsmc.c ****   if (NewState != DISABLE)
 1321              		.loc 1 873 3 view .LVU502
 1322              		.loc 1 873 6 is_stmt 0 view .LVU503
 1323 0000 D2B1     		cbz	r2, .L74
 874:Drivers/STM32F4xx_StdPeriph_Driver/src/stm32f4xx_fsmc.c ****   {
 875:Drivers/STM32F4xx_StdPeriph_Driver/src/stm32f4xx_fsmc.c ****     /* Enable the selected FSMC_Bank2 interrupts */
 876:Drivers/STM32F4xx_StdPeriph_Driver/src/stm32f4xx_fsmc.c ****     if(FSMC_Bank == FSMC_Bank2_NAND)
 1324              		.loc 1 876 5 is_stmt 1 view .LVU504
 1325              		.loc 1 876 7 is_stmt 0 view .LVU505
 1326 0002 1028     		cmp	r0, #16
 1327 0004 0AD0     		beq	.L80
 877:Drivers/STM32F4xx_StdPeriph_Driver/src/stm32f4xx_fsmc.c ****     {
 878:Drivers/STM32F4xx_StdPeriph_Driver/src/stm32f4xx_fsmc.c ****       FSMC_Bank2->SR2 |= FSMC_IT;
 879:Drivers/STM32F4xx_StdPeriph_Driver/src/stm32f4xx_fsmc.c ****     }
 880:Drivers/STM32F4xx_StdPeriph_Driver/src/stm32f4xx_fsmc.c ****     /* Enable the selected FSMC_Bank3 interrupts */
 881:Drivers/STM32F4xx_StdPeriph_Driver/src/stm32f4xx_fsmc.c ****     else if (FSMC_Bank == FSMC_Bank3_NAND)
 1328              		.loc 1 881 10 is_stmt 1 view .LVU506
 1329              		.loc 1 881 13 is_stmt 0 view .LVU507
 1330 0006 B0F5807F 		cmp	r0, #256
 1331 000a 0DD0     		beq	.L81
 882:Drivers/STM32F4xx_StdPeriph_Driver/src/stm32f4xx_fsmc.c ****     {
 883:Drivers/STM32F4xx_StdPeriph_Driver/src/stm32f4xx_fsmc.c ****       FSMC_Bank3->SR3 |= FSMC_IT;
 884:Drivers/STM32F4xx_StdPeriph_Driver/src/stm32f4xx_fsmc.c ****     }
 885:Drivers/STM32F4xx_StdPeriph_Driver/src/stm32f4xx_fsmc.c ****     /* Enable the selected FSMC_Bank4 interrupts */
 886:Drivers/STM32F4xx_StdPeriph_Driver/src/stm32f4xx_fsmc.c ****     else
 887:Drivers/STM32F4xx_StdPeriph_Driver/src/stm32f4xx_fsmc.c ****     {
 888:Drivers/STM32F4xx_StdPeriph_Driver/src/stm32f4xx_fsmc.c ****       FSMC_Bank4->SR4 |= FSMC_IT;    
 1332              		.loc 1 888 7 is_stmt 1 view .LVU508
 1333              		.loc 1 888 23 is_stmt 0 view .LVU509
ARM GAS  /tmp/ccSXeS9O.s 			page 41


 1334 000c 4FF02042 		mov	r2, #-1610612736
 1335              	.LVL77:
 1336              		.loc 1 888 23 view .LVU510
 1337 0010 D2F8A430 		ldr	r3, [r2, #164]
 1338 0014 1943     		orrs	r1, r1, r3
 1339              	.LVL78:
 1340              		.loc 1 888 23 view .LVU511
 1341 0016 C2F8A410 		str	r1, [r2, #164]
 1342 001a 7047     		bx	lr
 1343              	.LVL79:
 1344              	.L80:
 878:Drivers/STM32F4xx_StdPeriph_Driver/src/stm32f4xx_fsmc.c ****     }
 1345              		.loc 1 878 7 is_stmt 1 view .LVU512
 878:Drivers/STM32F4xx_StdPeriph_Driver/src/stm32f4xx_fsmc.c ****     }
 1346              		.loc 1 878 23 is_stmt 0 view .LVU513
 1347 001c 4FF02042 		mov	r2, #-1610612736
 1348              	.LVL80:
 878:Drivers/STM32F4xx_StdPeriph_Driver/src/stm32f4xx_fsmc.c ****     }
 1349              		.loc 1 878 23 view .LVU514
 1350 0020 536E     		ldr	r3, [r2, #100]
 1351 0022 1943     		orrs	r1, r1, r3
 1352              	.LVL81:
 878:Drivers/STM32F4xx_StdPeriph_Driver/src/stm32f4xx_fsmc.c ****     }
 1353              		.loc 1 878 23 view .LVU515
 1354 0024 5166     		str	r1, [r2, #100]
 1355 0026 7047     		bx	lr
 1356              	.LVL82:
 1357              	.L81:
 883:Drivers/STM32F4xx_StdPeriph_Driver/src/stm32f4xx_fsmc.c ****     }
 1358              		.loc 1 883 7 is_stmt 1 view .LVU516
 883:Drivers/STM32F4xx_StdPeriph_Driver/src/stm32f4xx_fsmc.c ****     }
 1359              		.loc 1 883 23 is_stmt 0 view .LVU517
 1360 0028 4FF02042 		mov	r2, #-1610612736
 1361              	.LVL83:
 883:Drivers/STM32F4xx_StdPeriph_Driver/src/stm32f4xx_fsmc.c ****     }
 1362              		.loc 1 883 23 view .LVU518
 1363 002c D2F88430 		ldr	r3, [r2, #132]
 1364 0030 1943     		orrs	r1, r1, r3
 1365              	.LVL84:
 883:Drivers/STM32F4xx_StdPeriph_Driver/src/stm32f4xx_fsmc.c ****     }
 1366              		.loc 1 883 23 view .LVU519
 1367 0032 C2F88410 		str	r1, [r2, #132]
 1368 0036 7047     		bx	lr
 1369              	.LVL85:
 1370              	.L74:
 889:Drivers/STM32F4xx_StdPeriph_Driver/src/stm32f4xx_fsmc.c ****     }
 890:Drivers/STM32F4xx_StdPeriph_Driver/src/stm32f4xx_fsmc.c ****   }
 891:Drivers/STM32F4xx_StdPeriph_Driver/src/stm32f4xx_fsmc.c ****   else
 892:Drivers/STM32F4xx_StdPeriph_Driver/src/stm32f4xx_fsmc.c ****   {
 893:Drivers/STM32F4xx_StdPeriph_Driver/src/stm32f4xx_fsmc.c ****     /* Disable the selected FSMC_Bank2 interrupts */
 894:Drivers/STM32F4xx_StdPeriph_Driver/src/stm32f4xx_fsmc.c ****     if(FSMC_Bank == FSMC_Bank2_NAND)
 1371              		.loc 1 894 5 is_stmt 1 view .LVU520
 1372              		.loc 1 894 7 is_stmt 0 view .LVU521
 1373 0038 1028     		cmp	r0, #16
 1374 003a 0BD0     		beq	.L82
 895:Drivers/STM32F4xx_StdPeriph_Driver/src/stm32f4xx_fsmc.c ****     {
 896:Drivers/STM32F4xx_StdPeriph_Driver/src/stm32f4xx_fsmc.c ****       
ARM GAS  /tmp/ccSXeS9O.s 			page 42


 897:Drivers/STM32F4xx_StdPeriph_Driver/src/stm32f4xx_fsmc.c ****       FSMC_Bank2->SR2 &= (uint32_t)~FSMC_IT;
 898:Drivers/STM32F4xx_StdPeriph_Driver/src/stm32f4xx_fsmc.c ****     }
 899:Drivers/STM32F4xx_StdPeriph_Driver/src/stm32f4xx_fsmc.c ****     /* Disable the selected FSMC_Bank3 interrupts */
 900:Drivers/STM32F4xx_StdPeriph_Driver/src/stm32f4xx_fsmc.c ****     else if (FSMC_Bank == FSMC_Bank3_NAND)
 1375              		.loc 1 900 10 is_stmt 1 view .LVU522
 1376              		.loc 1 900 13 is_stmt 0 view .LVU523
 1377 003c B0F5807F 		cmp	r0, #256
 1378 0040 0FD0     		beq	.L83
 901:Drivers/STM32F4xx_StdPeriph_Driver/src/stm32f4xx_fsmc.c ****     {
 902:Drivers/STM32F4xx_StdPeriph_Driver/src/stm32f4xx_fsmc.c ****       FSMC_Bank3->SR3 &= (uint32_t)~FSMC_IT;
 903:Drivers/STM32F4xx_StdPeriph_Driver/src/stm32f4xx_fsmc.c ****     }
 904:Drivers/STM32F4xx_StdPeriph_Driver/src/stm32f4xx_fsmc.c ****     /* Disable the selected FSMC_Bank4 interrupts */
 905:Drivers/STM32F4xx_StdPeriph_Driver/src/stm32f4xx_fsmc.c ****     else
 906:Drivers/STM32F4xx_StdPeriph_Driver/src/stm32f4xx_fsmc.c ****     {
 907:Drivers/STM32F4xx_StdPeriph_Driver/src/stm32f4xx_fsmc.c ****       FSMC_Bank4->SR4 &= (uint32_t)~FSMC_IT;    
 1379              		.loc 1 907 7 is_stmt 1 view .LVU524
 1380              		.loc 1 907 23 is_stmt 0 view .LVU525
 1381 0042 4FF02042 		mov	r2, #-1610612736
 1382              	.LVL86:
 1383              		.loc 1 907 23 view .LVU526
 1384 0046 D2F8A430 		ldr	r3, [r2, #164]
 1385 004a 23EA0101 		bic	r1, r3, r1
 1386              	.LVL87:
 1387              		.loc 1 907 23 view .LVU527
 1388 004e C2F8A410 		str	r1, [r2, #164]
 908:Drivers/STM32F4xx_StdPeriph_Driver/src/stm32f4xx_fsmc.c ****     }
 909:Drivers/STM32F4xx_StdPeriph_Driver/src/stm32f4xx_fsmc.c ****   }
 910:Drivers/STM32F4xx_StdPeriph_Driver/src/stm32f4xx_fsmc.c **** }
 1389              		.loc 1 910 1 view .LVU528
 1390 0052 7047     		bx	lr
 1391              	.LVL88:
 1392              	.L82:
 897:Drivers/STM32F4xx_StdPeriph_Driver/src/stm32f4xx_fsmc.c ****     }
 1393              		.loc 1 897 7 is_stmt 1 view .LVU529
 897:Drivers/STM32F4xx_StdPeriph_Driver/src/stm32f4xx_fsmc.c ****     }
 1394              		.loc 1 897 23 is_stmt 0 view .LVU530
 1395 0054 4FF02042 		mov	r2, #-1610612736
 1396              	.LVL89:
 897:Drivers/STM32F4xx_StdPeriph_Driver/src/stm32f4xx_fsmc.c ****     }
 1397              		.loc 1 897 23 view .LVU531
 1398 0058 536E     		ldr	r3, [r2, #100]
 1399 005a 23EA0101 		bic	r1, r3, r1
 1400              	.LVL90:
 897:Drivers/STM32F4xx_StdPeriph_Driver/src/stm32f4xx_fsmc.c ****     }
 1401              		.loc 1 897 23 view .LVU532
 1402 005e 5166     		str	r1, [r2, #100]
 1403 0060 7047     		bx	lr
 1404              	.LVL91:
 1405              	.L83:
 902:Drivers/STM32F4xx_StdPeriph_Driver/src/stm32f4xx_fsmc.c ****     }
 1406              		.loc 1 902 7 is_stmt 1 view .LVU533
 902:Drivers/STM32F4xx_StdPeriph_Driver/src/stm32f4xx_fsmc.c ****     }
 1407              		.loc 1 902 23 is_stmt 0 view .LVU534
 1408 0062 4FF02042 		mov	r2, #-1610612736
 1409              	.LVL92:
 902:Drivers/STM32F4xx_StdPeriph_Driver/src/stm32f4xx_fsmc.c ****     }
 1410              		.loc 1 902 23 view .LVU535
ARM GAS  /tmp/ccSXeS9O.s 			page 43


 1411 0066 D2F88430 		ldr	r3, [r2, #132]
 1412 006a 23EA0101 		bic	r1, r3, r1
 1413              	.LVL93:
 902:Drivers/STM32F4xx_StdPeriph_Driver/src/stm32f4xx_fsmc.c ****     }
 1414              		.loc 1 902 23 view .LVU536
 1415 006e C2F88410 		str	r1, [r2, #132]
 1416 0072 7047     		bx	lr
 1417              		.cfi_endproc
 1418              	.LFE137:
 1420              		.section	.text.FSMC_GetFlagStatus,"ax",%progbits
 1421              		.align	1
 1422              		.global	FSMC_GetFlagStatus
 1423              		.syntax unified
 1424              		.thumb
 1425              		.thumb_func
 1427              	FSMC_GetFlagStatus:
 1428              	.LVL94:
 1429              	.LFB138:
 911:Drivers/STM32F4xx_StdPeriph_Driver/src/stm32f4xx_fsmc.c **** 
 912:Drivers/STM32F4xx_StdPeriph_Driver/src/stm32f4xx_fsmc.c **** /**
 913:Drivers/STM32F4xx_StdPeriph_Driver/src/stm32f4xx_fsmc.c ****   * @brief  Checks whether the specified FSMC flag is set or not.
 914:Drivers/STM32F4xx_StdPeriph_Driver/src/stm32f4xx_fsmc.c ****   * @param  FSMC_Bank: specifies the FSMC Bank to be used
 915:Drivers/STM32F4xx_StdPeriph_Driver/src/stm32f4xx_fsmc.c ****   *          This parameter can be one of the following values:
 916:Drivers/STM32F4xx_StdPeriph_Driver/src/stm32f4xx_fsmc.c ****   *            @arg FSMC_Bank2_NAND: FSMC Bank2 NAND 
 917:Drivers/STM32F4xx_StdPeriph_Driver/src/stm32f4xx_fsmc.c ****   *            @arg FSMC_Bank3_NAND: FSMC Bank3 NAND
 918:Drivers/STM32F4xx_StdPeriph_Driver/src/stm32f4xx_fsmc.c ****   *            @arg FSMC_Bank4_PCCARD: FSMC Bank4 PCCARD
 919:Drivers/STM32F4xx_StdPeriph_Driver/src/stm32f4xx_fsmc.c ****   * @param  FSMC_FLAG: specifies the flag to check.
 920:Drivers/STM32F4xx_StdPeriph_Driver/src/stm32f4xx_fsmc.c ****   *          This parameter can be one of the following values:
 921:Drivers/STM32F4xx_StdPeriph_Driver/src/stm32f4xx_fsmc.c ****   *            @arg FSMC_FLAG_RisingEdge: Rising edge detection Flag.
 922:Drivers/STM32F4xx_StdPeriph_Driver/src/stm32f4xx_fsmc.c ****   *            @arg FSMC_FLAG_Level: Level detection Flag.
 923:Drivers/STM32F4xx_StdPeriph_Driver/src/stm32f4xx_fsmc.c ****   *            @arg FSMC_FLAG_FallingEdge: Falling edge detection Flag.
 924:Drivers/STM32F4xx_StdPeriph_Driver/src/stm32f4xx_fsmc.c ****   *            @arg FSMC_FLAG_FEMPT: Fifo empty Flag. 
 925:Drivers/STM32F4xx_StdPeriph_Driver/src/stm32f4xx_fsmc.c ****   * @retval The new state of FSMC_FLAG (SET or RESET).
 926:Drivers/STM32F4xx_StdPeriph_Driver/src/stm32f4xx_fsmc.c ****   */
 927:Drivers/STM32F4xx_StdPeriph_Driver/src/stm32f4xx_fsmc.c **** FlagStatus FSMC_GetFlagStatus(uint32_t FSMC_Bank, uint32_t FSMC_FLAG)
 928:Drivers/STM32F4xx_StdPeriph_Driver/src/stm32f4xx_fsmc.c **** {
 1430              		.loc 1 928 1 is_stmt 1 view -0
 1431              		.cfi_startproc
 1432              		@ args = 0, pretend = 0, frame = 0
 1433              		@ frame_needed = 0, uses_anonymous_args = 0
 1434              		@ link register save eliminated.
 929:Drivers/STM32F4xx_StdPeriph_Driver/src/stm32f4xx_fsmc.c ****   FlagStatus bitstatus = RESET;
 1435              		.loc 1 929 3 view .LVU538
 930:Drivers/STM32F4xx_StdPeriph_Driver/src/stm32f4xx_fsmc.c ****   uint32_t tmpsr = 0x00000000;
 1436              		.loc 1 930 3 view .LVU539
 931:Drivers/STM32F4xx_StdPeriph_Driver/src/stm32f4xx_fsmc.c ****   
 932:Drivers/STM32F4xx_StdPeriph_Driver/src/stm32f4xx_fsmc.c ****   /* Check the parameters */
 933:Drivers/STM32F4xx_StdPeriph_Driver/src/stm32f4xx_fsmc.c ****   assert_param(IS_FSMC_GETFLAG_BANK(FSMC_Bank));
 1437              		.loc 1 933 3 view .LVU540
 934:Drivers/STM32F4xx_StdPeriph_Driver/src/stm32f4xx_fsmc.c ****   assert_param(IS_FSMC_GET_FLAG(FSMC_FLAG));
 1438              		.loc 1 934 3 view .LVU541
 935:Drivers/STM32F4xx_StdPeriph_Driver/src/stm32f4xx_fsmc.c ****   
 936:Drivers/STM32F4xx_StdPeriph_Driver/src/stm32f4xx_fsmc.c ****   if(FSMC_Bank == FSMC_Bank2_NAND)
 1439              		.loc 1 936 3 view .LVU542
 1440              		.loc 1 936 5 is_stmt 0 view .LVU543
 1441 0000 1028     		cmp	r0, #16
 1442 0002 0AD0     		beq	.L90
ARM GAS  /tmp/ccSXeS9O.s 			page 44


 937:Drivers/STM32F4xx_StdPeriph_Driver/src/stm32f4xx_fsmc.c ****   {
 938:Drivers/STM32F4xx_StdPeriph_Driver/src/stm32f4xx_fsmc.c ****     tmpsr = FSMC_Bank2->SR2;
 939:Drivers/STM32F4xx_StdPeriph_Driver/src/stm32f4xx_fsmc.c ****   }  
 940:Drivers/STM32F4xx_StdPeriph_Driver/src/stm32f4xx_fsmc.c ****   else if(FSMC_Bank == FSMC_Bank3_NAND)
 1443              		.loc 1 940 8 is_stmt 1 view .LVU544
 1444              		.loc 1 940 10 is_stmt 0 view .LVU545
 1445 0004 B0F5807F 		cmp	r0, #256
 1446 0008 0BD0     		beq	.L91
 941:Drivers/STM32F4xx_StdPeriph_Driver/src/stm32f4xx_fsmc.c ****   {
 942:Drivers/STM32F4xx_StdPeriph_Driver/src/stm32f4xx_fsmc.c ****     tmpsr = FSMC_Bank3->SR3;
 943:Drivers/STM32F4xx_StdPeriph_Driver/src/stm32f4xx_fsmc.c ****   }
 944:Drivers/STM32F4xx_StdPeriph_Driver/src/stm32f4xx_fsmc.c ****   /* FSMC_Bank4_PCCARD*/
 945:Drivers/STM32F4xx_StdPeriph_Driver/src/stm32f4xx_fsmc.c ****   else
 946:Drivers/STM32F4xx_StdPeriph_Driver/src/stm32f4xx_fsmc.c ****   {
 947:Drivers/STM32F4xx_StdPeriph_Driver/src/stm32f4xx_fsmc.c ****     tmpsr = FSMC_Bank4->SR4;
 1447              		.loc 1 947 5 is_stmt 1 view .LVU546
 1448              		.loc 1 947 11 is_stmt 0 view .LVU547
 1449 000a 4FF02043 		mov	r3, #-1610612736
 1450 000e D3F8A430 		ldr	r3, [r3, #164]
 1451              	.LVL95:
 1452              	.L86:
 948:Drivers/STM32F4xx_StdPeriph_Driver/src/stm32f4xx_fsmc.c ****   } 
 949:Drivers/STM32F4xx_StdPeriph_Driver/src/stm32f4xx_fsmc.c ****   
 950:Drivers/STM32F4xx_StdPeriph_Driver/src/stm32f4xx_fsmc.c ****   /* Get the flag status */
 951:Drivers/STM32F4xx_StdPeriph_Driver/src/stm32f4xx_fsmc.c ****   if ((tmpsr & FSMC_FLAG) != (uint16_t)RESET )
 1453              		.loc 1 951 3 is_stmt 1 view .LVU548
 1454              		.loc 1 951 6 is_stmt 0 view .LVU549
 1455 0012 0B42     		tst	r3, r1
 1456 0014 0AD0     		beq	.L89
 952:Drivers/STM32F4xx_StdPeriph_Driver/src/stm32f4xx_fsmc.c ****   {
 953:Drivers/STM32F4xx_StdPeriph_Driver/src/stm32f4xx_fsmc.c ****     bitstatus = SET;
 1457              		.loc 1 953 15 view .LVU550
 1458 0016 0120     		movs	r0, #1
 1459              	.LVL96:
 1460              		.loc 1 953 15 view .LVU551
 1461 0018 7047     		bx	lr
 1462              	.LVL97:
 1463              	.L90:
 938:Drivers/STM32F4xx_StdPeriph_Driver/src/stm32f4xx_fsmc.c ****   }  
 1464              		.loc 1 938 5 is_stmt 1 view .LVU552
 938:Drivers/STM32F4xx_StdPeriph_Driver/src/stm32f4xx_fsmc.c ****   }  
 1465              		.loc 1 938 11 is_stmt 0 view .LVU553
 1466 001a 4FF02043 		mov	r3, #-1610612736
 1467 001e 5B6E     		ldr	r3, [r3, #100]
 1468              	.LVL98:
 938:Drivers/STM32F4xx_StdPeriph_Driver/src/stm32f4xx_fsmc.c ****   }  
 1469              		.loc 1 938 11 view .LVU554
 1470 0020 F7E7     		b	.L86
 1471              	.LVL99:
 1472              	.L91:
 942:Drivers/STM32F4xx_StdPeriph_Driver/src/stm32f4xx_fsmc.c ****   }
 1473              		.loc 1 942 5 is_stmt 1 view .LVU555
 942:Drivers/STM32F4xx_StdPeriph_Driver/src/stm32f4xx_fsmc.c ****   }
 1474              		.loc 1 942 11 is_stmt 0 view .LVU556
 1475 0022 4FF02043 		mov	r3, #-1610612736
 1476 0026 D3F88430 		ldr	r3, [r3, #132]
 1477              	.LVL100:
ARM GAS  /tmp/ccSXeS9O.s 			page 45


 942:Drivers/STM32F4xx_StdPeriph_Driver/src/stm32f4xx_fsmc.c ****   }
 1478              		.loc 1 942 11 view .LVU557
 1479 002a F2E7     		b	.L86
 1480              	.L89:
 954:Drivers/STM32F4xx_StdPeriph_Driver/src/stm32f4xx_fsmc.c ****   }
 955:Drivers/STM32F4xx_StdPeriph_Driver/src/stm32f4xx_fsmc.c ****   else
 956:Drivers/STM32F4xx_StdPeriph_Driver/src/stm32f4xx_fsmc.c ****   {
 957:Drivers/STM32F4xx_StdPeriph_Driver/src/stm32f4xx_fsmc.c ****     bitstatus = RESET;
 1481              		.loc 1 957 15 view .LVU558
 1482 002c 0020     		movs	r0, #0
 1483              	.LVL101:
 958:Drivers/STM32F4xx_StdPeriph_Driver/src/stm32f4xx_fsmc.c ****   }
 959:Drivers/STM32F4xx_StdPeriph_Driver/src/stm32f4xx_fsmc.c ****   /* Return the flag status */
 960:Drivers/STM32F4xx_StdPeriph_Driver/src/stm32f4xx_fsmc.c ****   return bitstatus;
 1484              		.loc 1 960 3 is_stmt 1 view .LVU559
 961:Drivers/STM32F4xx_StdPeriph_Driver/src/stm32f4xx_fsmc.c **** }
 1485              		.loc 1 961 1 is_stmt 0 view .LVU560
 1486 002e 7047     		bx	lr
 1487              		.cfi_endproc
 1488              	.LFE138:
 1490              		.section	.text.FSMC_ClearFlag,"ax",%progbits
 1491              		.align	1
 1492              		.global	FSMC_ClearFlag
 1493              		.syntax unified
 1494              		.thumb
 1495              		.thumb_func
 1497              	FSMC_ClearFlag:
 1498              	.LVL102:
 1499              	.LFB139:
 962:Drivers/STM32F4xx_StdPeriph_Driver/src/stm32f4xx_fsmc.c **** 
 963:Drivers/STM32F4xx_StdPeriph_Driver/src/stm32f4xx_fsmc.c **** /**
 964:Drivers/STM32F4xx_StdPeriph_Driver/src/stm32f4xx_fsmc.c ****   * @brief  Clears the FSMC's pending flags.
 965:Drivers/STM32F4xx_StdPeriph_Driver/src/stm32f4xx_fsmc.c ****   * @param  FSMC_Bank: specifies the FSMC Bank to be used
 966:Drivers/STM32F4xx_StdPeriph_Driver/src/stm32f4xx_fsmc.c ****   *          This parameter can be one of the following values:
 967:Drivers/STM32F4xx_StdPeriph_Driver/src/stm32f4xx_fsmc.c ****   *            @arg FSMC_Bank2_NAND: FSMC Bank2 NAND 
 968:Drivers/STM32F4xx_StdPeriph_Driver/src/stm32f4xx_fsmc.c ****   *            @arg FSMC_Bank3_NAND: FSMC Bank3 NAND
 969:Drivers/STM32F4xx_StdPeriph_Driver/src/stm32f4xx_fsmc.c ****   *            @arg FSMC_Bank4_PCCARD: FSMC Bank4 PCCARD
 970:Drivers/STM32F4xx_StdPeriph_Driver/src/stm32f4xx_fsmc.c ****   * @param  FSMC_FLAG: specifies the flag to clear.
 971:Drivers/STM32F4xx_StdPeriph_Driver/src/stm32f4xx_fsmc.c ****   *          This parameter can be any combination of the following values:
 972:Drivers/STM32F4xx_StdPeriph_Driver/src/stm32f4xx_fsmc.c ****   *            @arg FSMC_FLAG_RisingEdge: Rising edge detection Flag.
 973:Drivers/STM32F4xx_StdPeriph_Driver/src/stm32f4xx_fsmc.c ****   *            @arg FSMC_FLAG_Level: Level detection Flag.
 974:Drivers/STM32F4xx_StdPeriph_Driver/src/stm32f4xx_fsmc.c ****   *            @arg FSMC_FLAG_FallingEdge: Falling edge detection Flag.
 975:Drivers/STM32F4xx_StdPeriph_Driver/src/stm32f4xx_fsmc.c ****   * @retval None
 976:Drivers/STM32F4xx_StdPeriph_Driver/src/stm32f4xx_fsmc.c ****   */
 977:Drivers/STM32F4xx_StdPeriph_Driver/src/stm32f4xx_fsmc.c **** void FSMC_ClearFlag(uint32_t FSMC_Bank, uint32_t FSMC_FLAG)
 978:Drivers/STM32F4xx_StdPeriph_Driver/src/stm32f4xx_fsmc.c **** {
 1500              		.loc 1 978 1 is_stmt 1 view -0
 1501              		.cfi_startproc
 1502              		@ args = 0, pretend = 0, frame = 0
 1503              		@ frame_needed = 0, uses_anonymous_args = 0
 1504              		@ link register save eliminated.
 979:Drivers/STM32F4xx_StdPeriph_Driver/src/stm32f4xx_fsmc.c ****  /* Check the parameters */
 980:Drivers/STM32F4xx_StdPeriph_Driver/src/stm32f4xx_fsmc.c ****   assert_param(IS_FSMC_GETFLAG_BANK(FSMC_Bank));
 1505              		.loc 1 980 3 view .LVU562
 981:Drivers/STM32F4xx_StdPeriph_Driver/src/stm32f4xx_fsmc.c ****   assert_param(IS_FSMC_CLEAR_FLAG(FSMC_FLAG)) ;
 1506              		.loc 1 981 3 view .LVU563
 982:Drivers/STM32F4xx_StdPeriph_Driver/src/stm32f4xx_fsmc.c ****     
ARM GAS  /tmp/ccSXeS9O.s 			page 46


 983:Drivers/STM32F4xx_StdPeriph_Driver/src/stm32f4xx_fsmc.c ****   if(FSMC_Bank == FSMC_Bank2_NAND)
 1507              		.loc 1 983 3 view .LVU564
 1508              		.loc 1 983 5 is_stmt 0 view .LVU565
 1509 0000 1028     		cmp	r0, #16
 1510 0002 0BD0     		beq	.L96
 984:Drivers/STM32F4xx_StdPeriph_Driver/src/stm32f4xx_fsmc.c ****   {
 985:Drivers/STM32F4xx_StdPeriph_Driver/src/stm32f4xx_fsmc.c ****     FSMC_Bank2->SR2 &= ~FSMC_FLAG; 
 986:Drivers/STM32F4xx_StdPeriph_Driver/src/stm32f4xx_fsmc.c ****   }  
 987:Drivers/STM32F4xx_StdPeriph_Driver/src/stm32f4xx_fsmc.c ****   else if(FSMC_Bank == FSMC_Bank3_NAND)
 1511              		.loc 1 987 8 is_stmt 1 view .LVU566
 1512              		.loc 1 987 10 is_stmt 0 view .LVU567
 1513 0004 B0F5807F 		cmp	r0, #256
 1514 0008 0FD0     		beq	.L97
 988:Drivers/STM32F4xx_StdPeriph_Driver/src/stm32f4xx_fsmc.c ****   {
 989:Drivers/STM32F4xx_StdPeriph_Driver/src/stm32f4xx_fsmc.c ****     FSMC_Bank3->SR3 &= ~FSMC_FLAG;
 990:Drivers/STM32F4xx_StdPeriph_Driver/src/stm32f4xx_fsmc.c ****   }
 991:Drivers/STM32F4xx_StdPeriph_Driver/src/stm32f4xx_fsmc.c ****   /* FSMC_Bank4_PCCARD*/
 992:Drivers/STM32F4xx_StdPeriph_Driver/src/stm32f4xx_fsmc.c ****   else
 993:Drivers/STM32F4xx_StdPeriph_Driver/src/stm32f4xx_fsmc.c ****   {
 994:Drivers/STM32F4xx_StdPeriph_Driver/src/stm32f4xx_fsmc.c ****     FSMC_Bank4->SR4 &= ~FSMC_FLAG;
 1515              		.loc 1 994 5 is_stmt 1 view .LVU568
 1516              		.loc 1 994 21 is_stmt 0 view .LVU569
 1517 000a 4FF02042 		mov	r2, #-1610612736
 1518 000e D2F8A430 		ldr	r3, [r2, #164]
 1519 0012 23EA0101 		bic	r1, r3, r1
 1520              	.LVL103:
 1521              		.loc 1 994 21 view .LVU570
 1522 0016 C2F8A410 		str	r1, [r2, #164]
 995:Drivers/STM32F4xx_StdPeriph_Driver/src/stm32f4xx_fsmc.c ****   }
 996:Drivers/STM32F4xx_StdPeriph_Driver/src/stm32f4xx_fsmc.c **** }
 1523              		.loc 1 996 1 view .LVU571
 1524 001a 7047     		bx	lr
 1525              	.LVL104:
 1526              	.L96:
 985:Drivers/STM32F4xx_StdPeriph_Driver/src/stm32f4xx_fsmc.c ****   }  
 1527              		.loc 1 985 5 is_stmt 1 view .LVU572
 985:Drivers/STM32F4xx_StdPeriph_Driver/src/stm32f4xx_fsmc.c ****   }  
 1528              		.loc 1 985 21 is_stmt 0 view .LVU573
 1529 001c 4FF02042 		mov	r2, #-1610612736
 1530 0020 536E     		ldr	r3, [r2, #100]
 1531 0022 23EA0101 		bic	r1, r3, r1
 1532              	.LVL105:
 985:Drivers/STM32F4xx_StdPeriph_Driver/src/stm32f4xx_fsmc.c ****   }  
 1533              		.loc 1 985 21 view .LVU574
 1534 0026 5166     		str	r1, [r2, #100]
 1535 0028 7047     		bx	lr
 1536              	.LVL106:
 1537              	.L97:
 989:Drivers/STM32F4xx_StdPeriph_Driver/src/stm32f4xx_fsmc.c ****   }
 1538              		.loc 1 989 5 is_stmt 1 view .LVU575
 989:Drivers/STM32F4xx_StdPeriph_Driver/src/stm32f4xx_fsmc.c ****   }
 1539              		.loc 1 989 21 is_stmt 0 view .LVU576
 1540 002a 4FF02042 		mov	r2, #-1610612736
 1541 002e D2F88430 		ldr	r3, [r2, #132]
 1542 0032 23EA0101 		bic	r1, r3, r1
 1543              	.LVL107:
 989:Drivers/STM32F4xx_StdPeriph_Driver/src/stm32f4xx_fsmc.c ****   }
ARM GAS  /tmp/ccSXeS9O.s 			page 47


 1544              		.loc 1 989 21 view .LVU577
 1545 0036 C2F88410 		str	r1, [r2, #132]
 1546 003a 7047     		bx	lr
 1547              		.cfi_endproc
 1548              	.LFE139:
 1550              		.section	.text.FSMC_GetITStatus,"ax",%progbits
 1551              		.align	1
 1552              		.global	FSMC_GetITStatus
 1553              		.syntax unified
 1554              		.thumb
 1555              		.thumb_func
 1557              	FSMC_GetITStatus:
 1558              	.LVL108:
 1559              	.LFB140:
 997:Drivers/STM32F4xx_StdPeriph_Driver/src/stm32f4xx_fsmc.c **** 
 998:Drivers/STM32F4xx_StdPeriph_Driver/src/stm32f4xx_fsmc.c **** /**
 999:Drivers/STM32F4xx_StdPeriph_Driver/src/stm32f4xx_fsmc.c ****   * @brief  Checks whether the specified FSMC interrupt has occurred or not.
1000:Drivers/STM32F4xx_StdPeriph_Driver/src/stm32f4xx_fsmc.c ****   * @param  FSMC_Bank: specifies the FSMC Bank to be used
1001:Drivers/STM32F4xx_StdPeriph_Driver/src/stm32f4xx_fsmc.c ****   *          This parameter can be one of the following values:
1002:Drivers/STM32F4xx_StdPeriph_Driver/src/stm32f4xx_fsmc.c ****   *            @arg FSMC_Bank2_NAND: FSMC Bank2 NAND 
1003:Drivers/STM32F4xx_StdPeriph_Driver/src/stm32f4xx_fsmc.c ****   *            @arg FSMC_Bank3_NAND: FSMC Bank3 NAND
1004:Drivers/STM32F4xx_StdPeriph_Driver/src/stm32f4xx_fsmc.c ****   *            @arg FSMC_Bank4_PCCARD: FSMC Bank4 PCCARD
1005:Drivers/STM32F4xx_StdPeriph_Driver/src/stm32f4xx_fsmc.c ****   * @param  FSMC_IT: specifies the FSMC interrupt source to check.
1006:Drivers/STM32F4xx_StdPeriph_Driver/src/stm32f4xx_fsmc.c ****   *          This parameter can be one of the following values:
1007:Drivers/STM32F4xx_StdPeriph_Driver/src/stm32f4xx_fsmc.c ****   *            @arg FSMC_IT_RisingEdge: Rising edge detection interrupt. 
1008:Drivers/STM32F4xx_StdPeriph_Driver/src/stm32f4xx_fsmc.c ****   *            @arg FSMC_IT_Level: Level edge detection interrupt.
1009:Drivers/STM32F4xx_StdPeriph_Driver/src/stm32f4xx_fsmc.c ****   *            @arg FSMC_IT_FallingEdge: Falling edge detection interrupt. 
1010:Drivers/STM32F4xx_StdPeriph_Driver/src/stm32f4xx_fsmc.c ****   * @retval The new state of FSMC_IT (SET or RESET).
1011:Drivers/STM32F4xx_StdPeriph_Driver/src/stm32f4xx_fsmc.c ****   */
1012:Drivers/STM32F4xx_StdPeriph_Driver/src/stm32f4xx_fsmc.c **** ITStatus FSMC_GetITStatus(uint32_t FSMC_Bank, uint32_t FSMC_IT)
1013:Drivers/STM32F4xx_StdPeriph_Driver/src/stm32f4xx_fsmc.c **** {
 1560              		.loc 1 1013 1 is_stmt 1 view -0
 1561              		.cfi_startproc
 1562              		@ args = 0, pretend = 0, frame = 0
 1563              		@ frame_needed = 0, uses_anonymous_args = 0
 1564              		@ link register save eliminated.
1014:Drivers/STM32F4xx_StdPeriph_Driver/src/stm32f4xx_fsmc.c ****   ITStatus bitstatus = RESET;
 1565              		.loc 1 1014 3 view .LVU579
1015:Drivers/STM32F4xx_StdPeriph_Driver/src/stm32f4xx_fsmc.c ****   uint32_t tmpsr = 0x0, itstatus = 0x0, itenable = 0x0; 
 1566              		.loc 1 1015 3 view .LVU580
1016:Drivers/STM32F4xx_StdPeriph_Driver/src/stm32f4xx_fsmc.c ****   
1017:Drivers/STM32F4xx_StdPeriph_Driver/src/stm32f4xx_fsmc.c ****   /* Check the parameters */
1018:Drivers/STM32F4xx_StdPeriph_Driver/src/stm32f4xx_fsmc.c ****   assert_param(IS_FSMC_IT_BANK(FSMC_Bank));
 1567              		.loc 1 1018 3 view .LVU581
1019:Drivers/STM32F4xx_StdPeriph_Driver/src/stm32f4xx_fsmc.c ****   assert_param(IS_FSMC_GET_IT(FSMC_IT));
 1568              		.loc 1 1019 3 view .LVU582
1020:Drivers/STM32F4xx_StdPeriph_Driver/src/stm32f4xx_fsmc.c ****   
1021:Drivers/STM32F4xx_StdPeriph_Driver/src/stm32f4xx_fsmc.c ****   if(FSMC_Bank == FSMC_Bank2_NAND)
 1569              		.loc 1 1021 3 view .LVU583
 1570              		.loc 1 1021 5 is_stmt 0 view .LVU584
 1571 0000 1028     		cmp	r0, #16
 1572 0002 0DD0     		beq	.L105
1022:Drivers/STM32F4xx_StdPeriph_Driver/src/stm32f4xx_fsmc.c ****   {
1023:Drivers/STM32F4xx_StdPeriph_Driver/src/stm32f4xx_fsmc.c ****     tmpsr = FSMC_Bank2->SR2;
1024:Drivers/STM32F4xx_StdPeriph_Driver/src/stm32f4xx_fsmc.c ****   }  
1025:Drivers/STM32F4xx_StdPeriph_Driver/src/stm32f4xx_fsmc.c ****   else if(FSMC_Bank == FSMC_Bank3_NAND)
 1573              		.loc 1 1025 8 is_stmt 1 view .LVU585
ARM GAS  /tmp/ccSXeS9O.s 			page 48


 1574              		.loc 1 1025 10 is_stmt 0 view .LVU586
 1575 0004 B0F5807F 		cmp	r0, #256
 1576 0008 0ED0     		beq	.L106
1026:Drivers/STM32F4xx_StdPeriph_Driver/src/stm32f4xx_fsmc.c ****   {
1027:Drivers/STM32F4xx_StdPeriph_Driver/src/stm32f4xx_fsmc.c ****     tmpsr = FSMC_Bank3->SR3;
1028:Drivers/STM32F4xx_StdPeriph_Driver/src/stm32f4xx_fsmc.c ****   }
1029:Drivers/STM32F4xx_StdPeriph_Driver/src/stm32f4xx_fsmc.c ****   /* FSMC_Bank4_PCCARD*/
1030:Drivers/STM32F4xx_StdPeriph_Driver/src/stm32f4xx_fsmc.c ****   else
1031:Drivers/STM32F4xx_StdPeriph_Driver/src/stm32f4xx_fsmc.c ****   {
1032:Drivers/STM32F4xx_StdPeriph_Driver/src/stm32f4xx_fsmc.c ****     tmpsr = FSMC_Bank4->SR4;
 1577              		.loc 1 1032 5 is_stmt 1 view .LVU587
 1578              		.loc 1 1032 11 is_stmt 0 view .LVU588
 1579 000a 4FF02043 		mov	r3, #-1610612736
 1580 000e D3F8A430 		ldr	r3, [r3, #164]
 1581              	.LVL109:
 1582              	.L100:
1033:Drivers/STM32F4xx_StdPeriph_Driver/src/stm32f4xx_fsmc.c ****   } 
1034:Drivers/STM32F4xx_StdPeriph_Driver/src/stm32f4xx_fsmc.c ****   
1035:Drivers/STM32F4xx_StdPeriph_Driver/src/stm32f4xx_fsmc.c ****   itstatus = tmpsr & FSMC_IT;
 1583              		.loc 1 1035 3 is_stmt 1 view .LVU589
1036:Drivers/STM32F4xx_StdPeriph_Driver/src/stm32f4xx_fsmc.c ****   
1037:Drivers/STM32F4xx_StdPeriph_Driver/src/stm32f4xx_fsmc.c ****   itenable = tmpsr & (FSMC_IT >> 3);
 1584              		.loc 1 1037 3 view .LVU590
 1585              		.loc 1 1037 12 is_stmt 0 view .LVU591
 1586 0012 03EAD102 		and	r2, r3, r1, lsr #3
 1587              	.LVL110:
1038:Drivers/STM32F4xx_StdPeriph_Driver/src/stm32f4xx_fsmc.c ****   if ((itstatus != (uint32_t)RESET)  && (itenable != (uint32_t)RESET))
 1588              		.loc 1 1038 3 is_stmt 1 view .LVU592
 1589              		.loc 1 1038 6 is_stmt 0 view .LVU593
 1590 0016 0B42     		tst	r3, r1
 1591 0018 0BD0     		beq	.L103
 1592              		.loc 1 1038 38 discriminator 1 view .LVU594
 1593 001a 62B9     		cbnz	r2, .L104
1039:Drivers/STM32F4xx_StdPeriph_Driver/src/stm32f4xx_fsmc.c ****   {
1040:Drivers/STM32F4xx_StdPeriph_Driver/src/stm32f4xx_fsmc.c ****     bitstatus = SET;
1041:Drivers/STM32F4xx_StdPeriph_Driver/src/stm32f4xx_fsmc.c ****   }
1042:Drivers/STM32F4xx_StdPeriph_Driver/src/stm32f4xx_fsmc.c ****   else
1043:Drivers/STM32F4xx_StdPeriph_Driver/src/stm32f4xx_fsmc.c ****   {
1044:Drivers/STM32F4xx_StdPeriph_Driver/src/stm32f4xx_fsmc.c ****     bitstatus = RESET;
 1594              		.loc 1 1044 15 view .LVU595
 1595 001c 0020     		movs	r0, #0
 1596              	.LVL111:
 1597              		.loc 1 1044 15 view .LVU596
 1598 001e 7047     		bx	lr
 1599              	.LVL112:
 1600              	.L105:
1023:Drivers/STM32F4xx_StdPeriph_Driver/src/stm32f4xx_fsmc.c ****   }  
 1601              		.loc 1 1023 5 is_stmt 1 view .LVU597
1023:Drivers/STM32F4xx_StdPeriph_Driver/src/stm32f4xx_fsmc.c ****   }  
 1602              		.loc 1 1023 11 is_stmt 0 view .LVU598
 1603 0020 4FF02043 		mov	r3, #-1610612736
 1604 0024 5B6E     		ldr	r3, [r3, #100]
 1605              	.LVL113:
1023:Drivers/STM32F4xx_StdPeriph_Driver/src/stm32f4xx_fsmc.c ****   }  
 1606              		.loc 1 1023 11 view .LVU599
 1607 0026 F4E7     		b	.L100
 1608              	.LVL114:
ARM GAS  /tmp/ccSXeS9O.s 			page 49


 1609              	.L106:
1027:Drivers/STM32F4xx_StdPeriph_Driver/src/stm32f4xx_fsmc.c ****   }
 1610              		.loc 1 1027 5 is_stmt 1 view .LVU600
1027:Drivers/STM32F4xx_StdPeriph_Driver/src/stm32f4xx_fsmc.c ****   }
 1611              		.loc 1 1027 11 is_stmt 0 view .LVU601
 1612 0028 4FF02043 		mov	r3, #-1610612736
 1613 002c D3F88430 		ldr	r3, [r3, #132]
 1614              	.LVL115:
1027:Drivers/STM32F4xx_StdPeriph_Driver/src/stm32f4xx_fsmc.c ****   }
 1615              		.loc 1 1027 11 view .LVU602
 1616 0030 EFE7     		b	.L100
 1617              	.LVL116:
 1618              	.L103:
 1619              		.loc 1 1044 15 view .LVU603
 1620 0032 0020     		movs	r0, #0
 1621              	.LVL117:
 1622              		.loc 1 1044 15 view .LVU604
 1623 0034 7047     		bx	lr
 1624              	.LVL118:
 1625              	.L104:
1040:Drivers/STM32F4xx_StdPeriph_Driver/src/stm32f4xx_fsmc.c ****   }
 1626              		.loc 1 1040 15 view .LVU605
 1627 0036 0120     		movs	r0, #1
 1628              	.LVL119:
1045:Drivers/STM32F4xx_StdPeriph_Driver/src/stm32f4xx_fsmc.c ****   }
1046:Drivers/STM32F4xx_StdPeriph_Driver/src/stm32f4xx_fsmc.c ****   return bitstatus; 
 1629              		.loc 1 1046 3 is_stmt 1 view .LVU606
1047:Drivers/STM32F4xx_StdPeriph_Driver/src/stm32f4xx_fsmc.c **** }
 1630              		.loc 1 1047 1 is_stmt 0 view .LVU607
 1631 0038 7047     		bx	lr
 1632              		.cfi_endproc
 1633              	.LFE140:
 1635              		.section	.text.FSMC_ClearITPendingBit,"ax",%progbits
 1636              		.align	1
 1637              		.global	FSMC_ClearITPendingBit
 1638              		.syntax unified
 1639              		.thumb
 1640              		.thumb_func
 1642              	FSMC_ClearITPendingBit:
 1643              	.LVL120:
 1644              	.LFB141:
1048:Drivers/STM32F4xx_StdPeriph_Driver/src/stm32f4xx_fsmc.c **** 
1049:Drivers/STM32F4xx_StdPeriph_Driver/src/stm32f4xx_fsmc.c **** /**
1050:Drivers/STM32F4xx_StdPeriph_Driver/src/stm32f4xx_fsmc.c ****   * @brief  Clears the FSMC's interrupt pending bits.
1051:Drivers/STM32F4xx_StdPeriph_Driver/src/stm32f4xx_fsmc.c ****   * @param  FSMC_Bank: specifies the FSMC Bank to be used
1052:Drivers/STM32F4xx_StdPeriph_Driver/src/stm32f4xx_fsmc.c ****   *          This parameter can be one of the following values:
1053:Drivers/STM32F4xx_StdPeriph_Driver/src/stm32f4xx_fsmc.c ****   *            @arg FSMC_Bank2_NAND: FSMC Bank2 NAND 
1054:Drivers/STM32F4xx_StdPeriph_Driver/src/stm32f4xx_fsmc.c ****   *            @arg FSMC_Bank3_NAND: FSMC Bank3 NAND
1055:Drivers/STM32F4xx_StdPeriph_Driver/src/stm32f4xx_fsmc.c ****   *            @arg FSMC_Bank4_PCCARD: FSMC Bank4 PCCARD
1056:Drivers/STM32F4xx_StdPeriph_Driver/src/stm32f4xx_fsmc.c ****   * @param  FSMC_IT: specifies the interrupt pending bit to clear.
1057:Drivers/STM32F4xx_StdPeriph_Driver/src/stm32f4xx_fsmc.c ****   *          This parameter can be any combination of the following values:
1058:Drivers/STM32F4xx_StdPeriph_Driver/src/stm32f4xx_fsmc.c ****   *            @arg FSMC_IT_RisingEdge: Rising edge detection interrupt. 
1059:Drivers/STM32F4xx_StdPeriph_Driver/src/stm32f4xx_fsmc.c ****   *            @arg FSMC_IT_Level: Level edge detection interrupt.
1060:Drivers/STM32F4xx_StdPeriph_Driver/src/stm32f4xx_fsmc.c ****   *            @arg FSMC_IT_FallingEdge: Falling edge detection interrupt.
1061:Drivers/STM32F4xx_StdPeriph_Driver/src/stm32f4xx_fsmc.c ****   * @retval None
1062:Drivers/STM32F4xx_StdPeriph_Driver/src/stm32f4xx_fsmc.c ****   */
1063:Drivers/STM32F4xx_StdPeriph_Driver/src/stm32f4xx_fsmc.c **** void FSMC_ClearITPendingBit(uint32_t FSMC_Bank, uint32_t FSMC_IT)
ARM GAS  /tmp/ccSXeS9O.s 			page 50


1064:Drivers/STM32F4xx_StdPeriph_Driver/src/stm32f4xx_fsmc.c **** {
 1645              		.loc 1 1064 1 is_stmt 1 view -0
 1646              		.cfi_startproc
 1647              		@ args = 0, pretend = 0, frame = 0
 1648              		@ frame_needed = 0, uses_anonymous_args = 0
 1649              		@ link register save eliminated.
1065:Drivers/STM32F4xx_StdPeriph_Driver/src/stm32f4xx_fsmc.c ****   /* Check the parameters */
1066:Drivers/STM32F4xx_StdPeriph_Driver/src/stm32f4xx_fsmc.c ****   assert_param(IS_FSMC_IT_BANK(FSMC_Bank));
 1650              		.loc 1 1066 3 view .LVU609
1067:Drivers/STM32F4xx_StdPeriph_Driver/src/stm32f4xx_fsmc.c ****   assert_param(IS_FSMC_IT(FSMC_IT));
 1651              		.loc 1 1067 3 view .LVU610
1068:Drivers/STM32F4xx_StdPeriph_Driver/src/stm32f4xx_fsmc.c ****     
1069:Drivers/STM32F4xx_StdPeriph_Driver/src/stm32f4xx_fsmc.c ****   if(FSMC_Bank == FSMC_Bank2_NAND)
 1652              		.loc 1 1069 3 view .LVU611
 1653              		.loc 1 1069 5 is_stmt 0 view .LVU612
 1654 0000 1028     		cmp	r0, #16
 1655 0002 0BD0     		beq	.L111
1070:Drivers/STM32F4xx_StdPeriph_Driver/src/stm32f4xx_fsmc.c ****   {
1071:Drivers/STM32F4xx_StdPeriph_Driver/src/stm32f4xx_fsmc.c ****     FSMC_Bank2->SR2 &= ~(FSMC_IT >> 3); 
1072:Drivers/STM32F4xx_StdPeriph_Driver/src/stm32f4xx_fsmc.c ****   }  
1073:Drivers/STM32F4xx_StdPeriph_Driver/src/stm32f4xx_fsmc.c ****   else if(FSMC_Bank == FSMC_Bank3_NAND)
 1656              		.loc 1 1073 8 is_stmt 1 view .LVU613
 1657              		.loc 1 1073 10 is_stmt 0 view .LVU614
 1658 0004 B0F5807F 		cmp	r0, #256
 1659 0008 0FD0     		beq	.L112
1074:Drivers/STM32F4xx_StdPeriph_Driver/src/stm32f4xx_fsmc.c ****   {
1075:Drivers/STM32F4xx_StdPeriph_Driver/src/stm32f4xx_fsmc.c ****     FSMC_Bank3->SR3 &= ~(FSMC_IT >> 3);
1076:Drivers/STM32F4xx_StdPeriph_Driver/src/stm32f4xx_fsmc.c ****   }
1077:Drivers/STM32F4xx_StdPeriph_Driver/src/stm32f4xx_fsmc.c ****   /* FSMC_Bank4_PCCARD*/
1078:Drivers/STM32F4xx_StdPeriph_Driver/src/stm32f4xx_fsmc.c ****   else
1079:Drivers/STM32F4xx_StdPeriph_Driver/src/stm32f4xx_fsmc.c ****   {
1080:Drivers/STM32F4xx_StdPeriph_Driver/src/stm32f4xx_fsmc.c ****     FSMC_Bank4->SR4 &= ~(FSMC_IT >> 3);
 1660              		.loc 1 1080 5 is_stmt 1 view .LVU615
 1661              		.loc 1 1080 21 is_stmt 0 view .LVU616
 1662 000a 4FF02042 		mov	r2, #-1610612736
 1663 000e D2F8A430 		ldr	r3, [r2, #164]
 1664 0012 23EAD101 		bic	r1, r3, r1, lsr #3
 1665              	.LVL121:
 1666              		.loc 1 1080 21 view .LVU617
 1667 0016 C2F8A410 		str	r1, [r2, #164]
1081:Drivers/STM32F4xx_StdPeriph_Driver/src/stm32f4xx_fsmc.c ****   }
1082:Drivers/STM32F4xx_StdPeriph_Driver/src/stm32f4xx_fsmc.c **** }
 1668              		.loc 1 1082 1 view .LVU618
 1669 001a 7047     		bx	lr
 1670              	.LVL122:
 1671              	.L111:
1071:Drivers/STM32F4xx_StdPeriph_Driver/src/stm32f4xx_fsmc.c ****   }  
 1672              		.loc 1 1071 5 is_stmt 1 view .LVU619
1071:Drivers/STM32F4xx_StdPeriph_Driver/src/stm32f4xx_fsmc.c ****   }  
 1673              		.loc 1 1071 21 is_stmt 0 view .LVU620
 1674 001c 4FF02042 		mov	r2, #-1610612736
 1675 0020 536E     		ldr	r3, [r2, #100]
 1676 0022 23EAD101 		bic	r1, r3, r1, lsr #3
 1677              	.LVL123:
1071:Drivers/STM32F4xx_StdPeriph_Driver/src/stm32f4xx_fsmc.c ****   }  
 1678              		.loc 1 1071 21 view .LVU621
 1679 0026 5166     		str	r1, [r2, #100]
ARM GAS  /tmp/ccSXeS9O.s 			page 51


 1680 0028 7047     		bx	lr
 1681              	.LVL124:
 1682              	.L112:
1075:Drivers/STM32F4xx_StdPeriph_Driver/src/stm32f4xx_fsmc.c ****   }
 1683              		.loc 1 1075 5 is_stmt 1 view .LVU622
1075:Drivers/STM32F4xx_StdPeriph_Driver/src/stm32f4xx_fsmc.c ****   }
 1684              		.loc 1 1075 21 is_stmt 0 view .LVU623
 1685 002a 4FF02042 		mov	r2, #-1610612736
 1686 002e D2F88430 		ldr	r3, [r2, #132]
 1687 0032 23EAD101 		bic	r1, r3, r1, lsr #3
 1688              	.LVL125:
1075:Drivers/STM32F4xx_StdPeriph_Driver/src/stm32f4xx_fsmc.c ****   }
 1689              		.loc 1 1075 21 view .LVU624
 1690 0036 C2F88410 		str	r1, [r2, #132]
 1691 003a 7047     		bx	lr
 1692              		.cfi_endproc
 1693              	.LFE141:
 1695              		.global	FSMC_DefaultTimingStruct
 1696              		.section	.rodata.FSMC_DefaultTimingStruct,"a"
 1697              		.align	2
 1698              		.set	.LANCHOR0,. + 0
 1701              	FSMC_DefaultTimingStruct:
 1702 0000 0F000000 		.word	15
 1703 0004 0F000000 		.word	15
 1704 0008 FF000000 		.word	255
 1705 000c 0F000000 		.word	15
 1706 0010 0F000000 		.word	15
 1707 0014 0F000000 		.word	15
 1708 0018 00000000 		.word	0
 1709              		.text
 1710              	.Letext0:
 1711              		.file 2 "/usr/share/gcc-arm-none-eabi-10.3-2021.10/arm-none-eabi/include/machine/_default_types.h"
 1712              		.file 3 "/usr/share/gcc-arm-none-eabi-10.3-2021.10/arm-none-eabi/include/sys/_stdint.h"
 1713              		.file 4 "Drivers/CMSIS/Device/ST/STM32F4xx/Include/stm32f4xx.h"
 1714              		.file 5 "Drivers/STM32F4xx_StdPeriph_Driver/inc/stm32f4xx_fsmc.h"
ARM GAS  /tmp/ccSXeS9O.s 			page 52

