ARM GAS  /tmp/ccyeojYU.s 			page 1


   1              		.cpu cortex-m4
   2              		.arch armv7e-m
   3              		.fpu fpv4-sp-d16
   4              		.eabi_attribute 27, 1
   5              		.eabi_attribute 28, 1
   6              		.eabi_attribute 20, 1
   7              		.eabi_attribute 21, 1
   8              		.eabi_attribute 23, 3
   9              		.eabi_attribute 24, 1
  10              		.eabi_attribute 25, 1
  11              		.eabi_attribute 26, 1
  12              		.eabi_attribute 30, 1
  13              		.eabi_attribute 34, 1
  14              		.eabi_attribute 18, 4
  15              		.file	"stm32f4xx_hash.c"
  16              		.text
  17              	.Ltext0:
  18              		.cfi_sections	.debug_frame
  19              		.section	.text.HASH_DeInit,"ax",%progbits
  20              		.align	1
  21              		.global	HASH_DeInit
  22              		.syntax unified
  23              		.thumb
  24              		.thumb_func
  26              	HASH_DeInit:
  27              	.LFB123:
  28              		.file 1 "Drivers/STM32F4xx_StdPeriph_Driver/src/stm32f4xx_hash.c"
   1:Drivers/STM32F4xx_StdPeriph_Driver/src/stm32f4xx_hash.c **** /**
   2:Drivers/STM32F4xx_StdPeriph_Driver/src/stm32f4xx_hash.c ****   ******************************************************************************
   3:Drivers/STM32F4xx_StdPeriph_Driver/src/stm32f4xx_hash.c ****   * @file    stm32f4xx_hash.c
   4:Drivers/STM32F4xx_StdPeriph_Driver/src/stm32f4xx_hash.c ****   * @author  MCD Application Team
   5:Drivers/STM32F4xx_StdPeriph_Driver/src/stm32f4xx_hash.c ****   * @version V1.6.1
   6:Drivers/STM32F4xx_StdPeriph_Driver/src/stm32f4xx_hash.c ****   * @date    21-October-2015
   7:Drivers/STM32F4xx_StdPeriph_Driver/src/stm32f4xx_hash.c ****   * @brief   This file provides firmware functions to manage the following 
   8:Drivers/STM32F4xx_StdPeriph_Driver/src/stm32f4xx_hash.c ****   *          functionalities of the HASH / HMAC Processor (HASH) peripheral:           
   9:Drivers/STM32F4xx_StdPeriph_Driver/src/stm32f4xx_hash.c ****   *           - Initialization and Configuration functions
  10:Drivers/STM32F4xx_StdPeriph_Driver/src/stm32f4xx_hash.c ****   *           - Message Digest generation functions
  11:Drivers/STM32F4xx_StdPeriph_Driver/src/stm32f4xx_hash.c ****   *           - context swapping functions   
  12:Drivers/STM32F4xx_StdPeriph_Driver/src/stm32f4xx_hash.c ****   *           - DMA interface function       
  13:Drivers/STM32F4xx_StdPeriph_Driver/src/stm32f4xx_hash.c ****   *           - Interrupts and flags management       
  14:Drivers/STM32F4xx_StdPeriph_Driver/src/stm32f4xx_hash.c ****   *         
  15:Drivers/STM32F4xx_StdPeriph_Driver/src/stm32f4xx_hash.c **** @verbatim
  16:Drivers/STM32F4xx_StdPeriph_Driver/src/stm32f4xx_hash.c ****  ===================================================================      
  17:Drivers/STM32F4xx_StdPeriph_Driver/src/stm32f4xx_hash.c ****                  ##### How to use this driver #####
  18:Drivers/STM32F4xx_StdPeriph_Driver/src/stm32f4xx_hash.c ****  ===================================================================
  19:Drivers/STM32F4xx_StdPeriph_Driver/src/stm32f4xx_hash.c ****             
  20:Drivers/STM32F4xx_StdPeriph_Driver/src/stm32f4xx_hash.c ****  *** HASH operation : *** 
  21:Drivers/STM32F4xx_StdPeriph_Driver/src/stm32f4xx_hash.c ****  ========================                 
  22:Drivers/STM32F4xx_StdPeriph_Driver/src/stm32f4xx_hash.c ****  [..]
  23:Drivers/STM32F4xx_StdPeriph_Driver/src/stm32f4xx_hash.c ****    (#) Enable the HASH controller clock using 
  24:Drivers/STM32F4xx_StdPeriph_Driver/src/stm32f4xx_hash.c ****        RCC_AHB2PeriphClockCmd(RCC_AHB2Periph_HASH, ENABLE) function.
  25:Drivers/STM32F4xx_StdPeriph_Driver/src/stm32f4xx_hash.c ****              
  26:Drivers/STM32F4xx_StdPeriph_Driver/src/stm32f4xx_hash.c ****    (#) Initialize the HASH using HASH_Init() function. 
  27:Drivers/STM32F4xx_StdPeriph_Driver/src/stm32f4xx_hash.c ****                  
  28:Drivers/STM32F4xx_StdPeriph_Driver/src/stm32f4xx_hash.c ****    (#) Reset the HASH processor core, so that the HASH will be ready 
  29:Drivers/STM32F4xx_StdPeriph_Driver/src/stm32f4xx_hash.c ****        to compute he message digest of a new message by using HASH_Reset() function.
  30:Drivers/STM32F4xx_StdPeriph_Driver/src/stm32f4xx_hash.c ****   
ARM GAS  /tmp/ccyeojYU.s 			page 2


  31:Drivers/STM32F4xx_StdPeriph_Driver/src/stm32f4xx_hash.c ****    (#) Enable the HASH controller using the HASH_Cmd() function. 
  32:Drivers/STM32F4xx_StdPeriph_Driver/src/stm32f4xx_hash.c ****                   
  33:Drivers/STM32F4xx_StdPeriph_Driver/src/stm32f4xx_hash.c ****    (#) if using DMA for Data input transfer, Activate the DMA Request 
  34:Drivers/STM32F4xx_StdPeriph_Driver/src/stm32f4xx_hash.c ****        using HASH_DMACmd() function 
  35:Drivers/STM32F4xx_StdPeriph_Driver/src/stm32f4xx_hash.c ****                       
  36:Drivers/STM32F4xx_StdPeriph_Driver/src/stm32f4xx_hash.c ****    (#) if DMA is not used for data transfer, use HASH_DataIn() function 
  37:Drivers/STM32F4xx_StdPeriph_Driver/src/stm32f4xx_hash.c ****        to enter data to IN FIFO.
  38:Drivers/STM32F4xx_StdPeriph_Driver/src/stm32f4xx_hash.c ****                
  39:Drivers/STM32F4xx_StdPeriph_Driver/src/stm32f4xx_hash.c ****             
  40:Drivers/STM32F4xx_StdPeriph_Driver/src/stm32f4xx_hash.c ****    (#) Configure the Number of valid bits in last word of the message 
  41:Drivers/STM32F4xx_StdPeriph_Driver/src/stm32f4xx_hash.c ****        using HASH_SetLastWordValidBitsNbr() function.
  42:Drivers/STM32F4xx_StdPeriph_Driver/src/stm32f4xx_hash.c ****                
  43:Drivers/STM32F4xx_StdPeriph_Driver/src/stm32f4xx_hash.c ****    (#) if the message length is not an exact multiple of 512 bits, 
  44:Drivers/STM32F4xx_StdPeriph_Driver/src/stm32f4xx_hash.c ****        then the function HASH_StartDigest() must be called to launch the computation
  45:Drivers/STM32F4xx_StdPeriph_Driver/src/stm32f4xx_hash.c ****        of the final digest.     
  46:Drivers/STM32F4xx_StdPeriph_Driver/src/stm32f4xx_hash.c ****                
  47:Drivers/STM32F4xx_StdPeriph_Driver/src/stm32f4xx_hash.c ****    (#) Once computed, the digest can be read using HASH_GetDigest() function.         
  48:Drivers/STM32F4xx_StdPeriph_Driver/src/stm32f4xx_hash.c ****                      
  49:Drivers/STM32F4xx_StdPeriph_Driver/src/stm32f4xx_hash.c ****    (#) To control HASH events you can use one of the following wo methods:
  50:Drivers/STM32F4xx_StdPeriph_Driver/src/stm32f4xx_hash.c ****        (++) Check on HASH flags using the HASH_GetFlagStatus() function.  
  51:Drivers/STM32F4xx_StdPeriph_Driver/src/stm32f4xx_hash.c ****        (++) Use HASH interrupts through the function HASH_ITConfig() at 
  52:Drivers/STM32F4xx_StdPeriph_Driver/src/stm32f4xx_hash.c ****             initialization phase and HASH_GetITStatus() function into 
  53:Drivers/STM32F4xx_StdPeriph_Driver/src/stm32f4xx_hash.c ****             interrupt routines in hashing phase.
  54:Drivers/STM32F4xx_StdPeriph_Driver/src/stm32f4xx_hash.c ****             After checking on a flag you should clear it using HASH_ClearFlag()
  55:Drivers/STM32F4xx_StdPeriph_Driver/src/stm32f4xx_hash.c ****             function. And after checking on an interrupt event you should 
  56:Drivers/STM32F4xx_StdPeriph_Driver/src/stm32f4xx_hash.c ****             clear it using HASH_ClearITPendingBit() function.     
  57:Drivers/STM32F4xx_StdPeriph_Driver/src/stm32f4xx_hash.c ****                        
  58:Drivers/STM32F4xx_StdPeriph_Driver/src/stm32f4xx_hash.c ****    (#) Save and restore hash processor context using 
  59:Drivers/STM32F4xx_StdPeriph_Driver/src/stm32f4xx_hash.c ****        HASH_SaveContext() and HASH_RestoreContext() functions.     
  60:Drivers/STM32F4xx_StdPeriph_Driver/src/stm32f4xx_hash.c ****                 
  61:Drivers/STM32F4xx_StdPeriph_Driver/src/stm32f4xx_hash.c ****   
  62:Drivers/STM32F4xx_StdPeriph_Driver/src/stm32f4xx_hash.c ****               
  63:Drivers/STM32F4xx_StdPeriph_Driver/src/stm32f4xx_hash.c ****  *** HMAC operation : *** 
  64:Drivers/STM32F4xx_StdPeriph_Driver/src/stm32f4xx_hash.c ****  ========================
  65:Drivers/STM32F4xx_StdPeriph_Driver/src/stm32f4xx_hash.c ****  [..] The HMAC algorithm is used for message authentication, by 
  66:Drivers/STM32F4xx_StdPeriph_Driver/src/stm32f4xx_hash.c ****       irreversibly binding the message being processed to a key chosen 
  67:Drivers/STM32F4xx_StdPeriph_Driver/src/stm32f4xx_hash.c ****       by the user. 
  68:Drivers/STM32F4xx_StdPeriph_Driver/src/stm32f4xx_hash.c ****       For HMAC specifications, refer to "HMAC: keyed-hashing for message 
  69:Drivers/STM32F4xx_StdPeriph_Driver/src/stm32f4xx_hash.c ****       authentication, H. Krawczyk, M. Bellare, R. Canetti, February 1997"
  70:Drivers/STM32F4xx_StdPeriph_Driver/src/stm32f4xx_hash.c ****             
  71:Drivers/STM32F4xx_StdPeriph_Driver/src/stm32f4xx_hash.c ****  [..] Basically, the HMAC algorithm consists of two nested hash operations:
  72:Drivers/STM32F4xx_StdPeriph_Driver/src/stm32f4xx_hash.c ****       HMAC(message) = Hash[((key | pad) XOR 0x5C) | Hash(((key | pad) XOR 0x36) | message)]
  73:Drivers/STM32F4xx_StdPeriph_Driver/src/stm32f4xx_hash.c ****       where:
  74:Drivers/STM32F4xx_StdPeriph_Driver/src/stm32f4xx_hash.c ****       (+) "pad" is a sequence of zeroes needed to extend the key to the 
  75:Drivers/STM32F4xx_StdPeriph_Driver/src/stm32f4xx_hash.c ****           length of the underlying hash function data block (that is 
  76:Drivers/STM32F4xx_StdPeriph_Driver/src/stm32f4xx_hash.c ****           512 bits for both the SHA-1 and MD5 hash algorithms)
  77:Drivers/STM32F4xx_StdPeriph_Driver/src/stm32f4xx_hash.c ****       (+) "|"   represents the concatenation operator 
  78:Drivers/STM32F4xx_StdPeriph_Driver/src/stm32f4xx_hash.c ****             
  79:Drivers/STM32F4xx_StdPeriph_Driver/src/stm32f4xx_hash.c ****            
  80:Drivers/STM32F4xx_StdPeriph_Driver/src/stm32f4xx_hash.c ****  [..]To compute the HMAC, four different phases are required:                  
  81:Drivers/STM32F4xx_StdPeriph_Driver/src/stm32f4xx_hash.c ****    (#) Initialize the HASH using HASH_Init() function to do HMAC 
  82:Drivers/STM32F4xx_StdPeriph_Driver/src/stm32f4xx_hash.c ****        operation. 
  83:Drivers/STM32F4xx_StdPeriph_Driver/src/stm32f4xx_hash.c ****                   
  84:Drivers/STM32F4xx_StdPeriph_Driver/src/stm32f4xx_hash.c ****    (#) The key (to be used for the inner hash function) is then given to the core. 
  85:Drivers/STM32F4xx_StdPeriph_Driver/src/stm32f4xx_hash.c ****        This operation follows the same mechanism as the one used to send the 
  86:Drivers/STM32F4xx_StdPeriph_Driver/src/stm32f4xx_hash.c ****        message in the hash operation (that is, by HASH_DataIn() function and, 
  87:Drivers/STM32F4xx_StdPeriph_Driver/src/stm32f4xx_hash.c ****        finally, HASH_StartDigest() function.
ARM GAS  /tmp/ccyeojYU.s 			page 3


  88:Drivers/STM32F4xx_StdPeriph_Driver/src/stm32f4xx_hash.c ****             
  89:Drivers/STM32F4xx_StdPeriph_Driver/src/stm32f4xx_hash.c ****    (#) Once the last word has been entered and computation has started, 
  90:Drivers/STM32F4xx_StdPeriph_Driver/src/stm32f4xx_hash.c ****        the hash processor elaborates the key. It is then ready to accept the message
  91:Drivers/STM32F4xx_StdPeriph_Driver/src/stm32f4xx_hash.c ****        text using the same mechanism as the one used to send the message in the
  92:Drivers/STM32F4xx_StdPeriph_Driver/src/stm32f4xx_hash.c ****        hash operation.
  93:Drivers/STM32F4xx_StdPeriph_Driver/src/stm32f4xx_hash.c ****          
  94:Drivers/STM32F4xx_StdPeriph_Driver/src/stm32f4xx_hash.c ****    (#) After the first hash round, the hash processor returns "ready" to indicate 
  95:Drivers/STM32F4xx_StdPeriph_Driver/src/stm32f4xx_hash.c ****        that it is ready to receive the key to be used for the outer hash function 
  96:Drivers/STM32F4xx_StdPeriph_Driver/src/stm32f4xx_hash.c ****        (normally, this key is the same as the one used for the inner hash function). 
  97:Drivers/STM32F4xx_StdPeriph_Driver/src/stm32f4xx_hash.c ****        When the last word of the key is entered and computation starts, the HMAC 
  98:Drivers/STM32F4xx_StdPeriph_Driver/src/stm32f4xx_hash.c ****        result is made available using HASH_GetDigest() function.
  99:Drivers/STM32F4xx_StdPeriph_Driver/src/stm32f4xx_hash.c **** 
 100:Drivers/STM32F4xx_StdPeriph_Driver/src/stm32f4xx_hash.c **** @endverbatim
 101:Drivers/STM32F4xx_StdPeriph_Driver/src/stm32f4xx_hash.c ****   *         
 102:Drivers/STM32F4xx_StdPeriph_Driver/src/stm32f4xx_hash.c ****   ******************************************************************************
 103:Drivers/STM32F4xx_StdPeriph_Driver/src/stm32f4xx_hash.c ****   * @attention
 104:Drivers/STM32F4xx_StdPeriph_Driver/src/stm32f4xx_hash.c ****   *
 105:Drivers/STM32F4xx_StdPeriph_Driver/src/stm32f4xx_hash.c ****   * <h2><center>&copy; COPYRIGHT 2015 STMicroelectronics</center></h2>
 106:Drivers/STM32F4xx_StdPeriph_Driver/src/stm32f4xx_hash.c ****   *
 107:Drivers/STM32F4xx_StdPeriph_Driver/src/stm32f4xx_hash.c ****   * Licensed under MCD-ST Liberty SW License Agreement V2, (the "License");
 108:Drivers/STM32F4xx_StdPeriph_Driver/src/stm32f4xx_hash.c ****   * You may not use this file except in compliance with the License.
 109:Drivers/STM32F4xx_StdPeriph_Driver/src/stm32f4xx_hash.c ****   * You may obtain a copy of the License at:
 110:Drivers/STM32F4xx_StdPeriph_Driver/src/stm32f4xx_hash.c ****   *
 111:Drivers/STM32F4xx_StdPeriph_Driver/src/stm32f4xx_hash.c ****   *        http://www.st.com/software_license_agreement_liberty_v2
 112:Drivers/STM32F4xx_StdPeriph_Driver/src/stm32f4xx_hash.c ****   *
 113:Drivers/STM32F4xx_StdPeriph_Driver/src/stm32f4xx_hash.c ****   * Unless required by applicable law or agreed to in writing, software 
 114:Drivers/STM32F4xx_StdPeriph_Driver/src/stm32f4xx_hash.c ****   * distributed under the License is distributed on an "AS IS" BASIS, 
 115:Drivers/STM32F4xx_StdPeriph_Driver/src/stm32f4xx_hash.c ****   * WITHOUT WARRANTIES OR CONDITIONS OF ANY KIND, either express or implied.
 116:Drivers/STM32F4xx_StdPeriph_Driver/src/stm32f4xx_hash.c ****   * See the License for the specific language governing permissions and
 117:Drivers/STM32F4xx_StdPeriph_Driver/src/stm32f4xx_hash.c ****   * limitations under the License.
 118:Drivers/STM32F4xx_StdPeriph_Driver/src/stm32f4xx_hash.c ****   *
 119:Drivers/STM32F4xx_StdPeriph_Driver/src/stm32f4xx_hash.c ****   ******************************************************************************  
 120:Drivers/STM32F4xx_StdPeriph_Driver/src/stm32f4xx_hash.c ****   */
 121:Drivers/STM32F4xx_StdPeriph_Driver/src/stm32f4xx_hash.c **** 
 122:Drivers/STM32F4xx_StdPeriph_Driver/src/stm32f4xx_hash.c **** /* Includes ------------------------------------------------------------------*/
 123:Drivers/STM32F4xx_StdPeriph_Driver/src/stm32f4xx_hash.c **** #include "stm32f4xx_hash.h"
 124:Drivers/STM32F4xx_StdPeriph_Driver/src/stm32f4xx_hash.c **** #include "stm32f4xx_rcc.h"
 125:Drivers/STM32F4xx_StdPeriph_Driver/src/stm32f4xx_hash.c **** 
 126:Drivers/STM32F4xx_StdPeriph_Driver/src/stm32f4xx_hash.c **** /** @addtogroup STM32F4xx_StdPeriph_Driver
 127:Drivers/STM32F4xx_StdPeriph_Driver/src/stm32f4xx_hash.c ****   * @{
 128:Drivers/STM32F4xx_StdPeriph_Driver/src/stm32f4xx_hash.c ****   */
 129:Drivers/STM32F4xx_StdPeriph_Driver/src/stm32f4xx_hash.c **** 
 130:Drivers/STM32F4xx_StdPeriph_Driver/src/stm32f4xx_hash.c **** /** @defgroup HASH 
 131:Drivers/STM32F4xx_StdPeriph_Driver/src/stm32f4xx_hash.c ****   * @brief HASH driver modules
 132:Drivers/STM32F4xx_StdPeriph_Driver/src/stm32f4xx_hash.c ****   * @{
 133:Drivers/STM32F4xx_StdPeriph_Driver/src/stm32f4xx_hash.c ****   */ 
 134:Drivers/STM32F4xx_StdPeriph_Driver/src/stm32f4xx_hash.c **** 
 135:Drivers/STM32F4xx_StdPeriph_Driver/src/stm32f4xx_hash.c **** /* Private typedef -----------------------------------------------------------*/
 136:Drivers/STM32F4xx_StdPeriph_Driver/src/stm32f4xx_hash.c **** /* Private define ------------------------------------------------------------*/
 137:Drivers/STM32F4xx_StdPeriph_Driver/src/stm32f4xx_hash.c **** /* Private macro -------------------------------------------------------------*/
 138:Drivers/STM32F4xx_StdPeriph_Driver/src/stm32f4xx_hash.c **** /* Private variables ---------------------------------------------------------*/
 139:Drivers/STM32F4xx_StdPeriph_Driver/src/stm32f4xx_hash.c **** /* Private function prototypes -----------------------------------------------*/
 140:Drivers/STM32F4xx_StdPeriph_Driver/src/stm32f4xx_hash.c **** /* Private functions ---------------------------------------------------------*/ 
 141:Drivers/STM32F4xx_StdPeriph_Driver/src/stm32f4xx_hash.c **** 
 142:Drivers/STM32F4xx_StdPeriph_Driver/src/stm32f4xx_hash.c **** /** @defgroup HASH_Private_Functions
 143:Drivers/STM32F4xx_StdPeriph_Driver/src/stm32f4xx_hash.c ****   * @{
 144:Drivers/STM32F4xx_StdPeriph_Driver/src/stm32f4xx_hash.c ****   */ 
ARM GAS  /tmp/ccyeojYU.s 			page 4


 145:Drivers/STM32F4xx_StdPeriph_Driver/src/stm32f4xx_hash.c **** 
 146:Drivers/STM32F4xx_StdPeriph_Driver/src/stm32f4xx_hash.c **** /** @defgroup HASH_Group1 Initialization and Configuration functions
 147:Drivers/STM32F4xx_StdPeriph_Driver/src/stm32f4xx_hash.c ****  *  @brief    Initialization and Configuration functions 
 148:Drivers/STM32F4xx_StdPeriph_Driver/src/stm32f4xx_hash.c ****  *
 149:Drivers/STM32F4xx_StdPeriph_Driver/src/stm32f4xx_hash.c **** @verbatim    
 150:Drivers/STM32F4xx_StdPeriph_Driver/src/stm32f4xx_hash.c ****  ===============================================================================
 151:Drivers/STM32F4xx_StdPeriph_Driver/src/stm32f4xx_hash.c ****               ##### Initialization and Configuration functions #####
 152:Drivers/STM32F4xx_StdPeriph_Driver/src/stm32f4xx_hash.c ****  ===============================================================================  
 153:Drivers/STM32F4xx_StdPeriph_Driver/src/stm32f4xx_hash.c ****  [..] This section provides functions allowing to 
 154:Drivers/STM32F4xx_StdPeriph_Driver/src/stm32f4xx_hash.c ****    (+) Initialize the HASH peripheral
 155:Drivers/STM32F4xx_StdPeriph_Driver/src/stm32f4xx_hash.c ****    (+) Configure the HASH Processor 
 156:Drivers/STM32F4xx_StdPeriph_Driver/src/stm32f4xx_hash.c ****    (+) MD5/SHA1, 
 157:Drivers/STM32F4xx_StdPeriph_Driver/src/stm32f4xx_hash.c ****    (+) HASH/HMAC, 
 158:Drivers/STM32F4xx_StdPeriph_Driver/src/stm32f4xx_hash.c ****    (+) datatype 
 159:Drivers/STM32F4xx_StdPeriph_Driver/src/stm32f4xx_hash.c ****    (+) HMAC Key (if mode = HMAC)
 160:Drivers/STM32F4xx_StdPeriph_Driver/src/stm32f4xx_hash.c ****    (+) Reset the HASH Processor 
 161:Drivers/STM32F4xx_StdPeriph_Driver/src/stm32f4xx_hash.c ****    
 162:Drivers/STM32F4xx_StdPeriph_Driver/src/stm32f4xx_hash.c **** @endverbatim
 163:Drivers/STM32F4xx_StdPeriph_Driver/src/stm32f4xx_hash.c ****   * @{
 164:Drivers/STM32F4xx_StdPeriph_Driver/src/stm32f4xx_hash.c ****   */
 165:Drivers/STM32F4xx_StdPeriph_Driver/src/stm32f4xx_hash.c ****   
 166:Drivers/STM32F4xx_StdPeriph_Driver/src/stm32f4xx_hash.c **** /**
 167:Drivers/STM32F4xx_StdPeriph_Driver/src/stm32f4xx_hash.c ****   * @brief  De-initializes the HASH peripheral registers to their default reset values
 168:Drivers/STM32F4xx_StdPeriph_Driver/src/stm32f4xx_hash.c ****   * @param  None
 169:Drivers/STM32F4xx_StdPeriph_Driver/src/stm32f4xx_hash.c ****   * @retval None
 170:Drivers/STM32F4xx_StdPeriph_Driver/src/stm32f4xx_hash.c ****   */
 171:Drivers/STM32F4xx_StdPeriph_Driver/src/stm32f4xx_hash.c **** void HASH_DeInit(void)
 172:Drivers/STM32F4xx_StdPeriph_Driver/src/stm32f4xx_hash.c **** {
  29              		.loc 1 172 1 view -0
  30              		.cfi_startproc
  31              		@ args = 0, pretend = 0, frame = 0
  32              		@ frame_needed = 0, uses_anonymous_args = 0
  33 0000 08B5     		push	{r3, lr}
  34              		.cfi_def_cfa_offset 8
  35              		.cfi_offset 3, -8
  36              		.cfi_offset 14, -4
 173:Drivers/STM32F4xx_StdPeriph_Driver/src/stm32f4xx_hash.c ****   /* Enable HASH reset state */
 174:Drivers/STM32F4xx_StdPeriph_Driver/src/stm32f4xx_hash.c ****   RCC_AHB2PeriphResetCmd(RCC_AHB2Periph_HASH, ENABLE);
  37              		.loc 1 174 3 view .LVU1
  38 0002 0121     		movs	r1, #1
  39 0004 2020     		movs	r0, #32
  40 0006 FFF7FEFF 		bl	RCC_AHB2PeriphResetCmd
  41              	.LVL0:
 175:Drivers/STM32F4xx_StdPeriph_Driver/src/stm32f4xx_hash.c ****   /* Release HASH from reset state */
 176:Drivers/STM32F4xx_StdPeriph_Driver/src/stm32f4xx_hash.c ****   RCC_AHB2PeriphResetCmd(RCC_AHB2Periph_HASH, DISABLE);
  42              		.loc 1 176 3 view .LVU2
  43 000a 0021     		movs	r1, #0
  44 000c 2020     		movs	r0, #32
  45 000e FFF7FEFF 		bl	RCC_AHB2PeriphResetCmd
  46              	.LVL1:
 177:Drivers/STM32F4xx_StdPeriph_Driver/src/stm32f4xx_hash.c **** }
  47              		.loc 1 177 1 is_stmt 0 view .LVU3
  48 0012 08BD     		pop	{r3, pc}
  49              		.cfi_endproc
  50              	.LFE123:
  52              		.section	.text.HASH_Init,"ax",%progbits
  53              		.align	1
ARM GAS  /tmp/ccyeojYU.s 			page 5


  54              		.global	HASH_Init
  55              		.syntax unified
  56              		.thumb
  57              		.thumb_func
  59              	HASH_Init:
  60              	.LVL2:
  61              	.LFB124:
 178:Drivers/STM32F4xx_StdPeriph_Driver/src/stm32f4xx_hash.c **** 
 179:Drivers/STM32F4xx_StdPeriph_Driver/src/stm32f4xx_hash.c **** /**
 180:Drivers/STM32F4xx_StdPeriph_Driver/src/stm32f4xx_hash.c ****   * @brief  Initializes the HASH peripheral according to the specified parameters
 181:Drivers/STM32F4xx_StdPeriph_Driver/src/stm32f4xx_hash.c ****   *         in the HASH_InitStruct structure.
 182:Drivers/STM32F4xx_StdPeriph_Driver/src/stm32f4xx_hash.c ****   * @note   the hash processor is reset when calling this function so that the
 183:Drivers/STM32F4xx_StdPeriph_Driver/src/stm32f4xx_hash.c ****   *         HASH will be ready to compute the message digest of a new message.
 184:Drivers/STM32F4xx_StdPeriph_Driver/src/stm32f4xx_hash.c ****   *         There is no need to call HASH_Reset() function.           
 185:Drivers/STM32F4xx_StdPeriph_Driver/src/stm32f4xx_hash.c ****   * @param  HASH_InitStruct: pointer to a HASH_InitTypeDef structure that contains
 186:Drivers/STM32F4xx_StdPeriph_Driver/src/stm32f4xx_hash.c ****   *         the configuration information for the HASH peripheral.
 187:Drivers/STM32F4xx_StdPeriph_Driver/src/stm32f4xx_hash.c ****   * @note   The field HASH_HMACKeyType in HASH_InitTypeDef must be filled only 
 188:Drivers/STM32F4xx_StdPeriph_Driver/src/stm32f4xx_hash.c ****   *          if the algorithm mode is HMAC.       
 189:Drivers/STM32F4xx_StdPeriph_Driver/src/stm32f4xx_hash.c ****   * @retval None
 190:Drivers/STM32F4xx_StdPeriph_Driver/src/stm32f4xx_hash.c ****   */
 191:Drivers/STM32F4xx_StdPeriph_Driver/src/stm32f4xx_hash.c **** void HASH_Init(HASH_InitTypeDef* HASH_InitStruct)
 192:Drivers/STM32F4xx_StdPeriph_Driver/src/stm32f4xx_hash.c **** {
  62              		.loc 1 192 1 is_stmt 1 view -0
  63              		.cfi_startproc
  64              		@ args = 0, pretend = 0, frame = 0
  65              		@ frame_needed = 0, uses_anonymous_args = 0
  66              		@ link register save eliminated.
  67              		.loc 1 192 1 is_stmt 0 view .LVU5
  68 0000 10B4     		push	{r4}
  69              		.cfi_def_cfa_offset 4
  70              		.cfi_offset 4, -4
 193:Drivers/STM32F4xx_StdPeriph_Driver/src/stm32f4xx_hash.c ****   /* Check the parameters */
 194:Drivers/STM32F4xx_StdPeriph_Driver/src/stm32f4xx_hash.c ****   assert_param(IS_HASH_ALGOSELECTION(HASH_InitStruct->HASH_AlgoSelection));
  71              		.loc 1 194 3 is_stmt 1 view .LVU6
 195:Drivers/STM32F4xx_StdPeriph_Driver/src/stm32f4xx_hash.c ****   assert_param(IS_HASH_DATATYPE(HASH_InitStruct->HASH_DataType));
  72              		.loc 1 195 3 view .LVU7
 196:Drivers/STM32F4xx_StdPeriph_Driver/src/stm32f4xx_hash.c ****   assert_param(IS_HASH_ALGOMODE(HASH_InitStruct->HASH_AlgoMode));
  73              		.loc 1 196 3 view .LVU8
 197:Drivers/STM32F4xx_StdPeriph_Driver/src/stm32f4xx_hash.c ****   
 198:Drivers/STM32F4xx_StdPeriph_Driver/src/stm32f4xx_hash.c ****   /* Configure the Algorithm used, algorithm mode and the datatype */
 199:Drivers/STM32F4xx_StdPeriph_Driver/src/stm32f4xx_hash.c ****   HASH->CR &= ~ (HASH_CR_ALGO | HASH_CR_DATATYPE | HASH_CR_MODE);
  74              		.loc 1 199 3 view .LVU9
  75              		.loc 1 199 12 is_stmt 0 view .LVU10
  76 0002 124A     		ldr	r2, .L7
  77 0004 1368     		ldr	r3, [r2]
  78 0006 23F48023 		bic	r3, r3, #262144
  79 000a 23F0F003 		bic	r3, r3, #240
  80 000e 1360     		str	r3, [r2]
 200:Drivers/STM32F4xx_StdPeriph_Driver/src/stm32f4xx_hash.c ****   HASH->CR |= (HASH_InitStruct->HASH_AlgoSelection | \
  81              		.loc 1 200 3 is_stmt 1 view .LVU11
  82              		.loc 1 200 12 is_stmt 0 view .LVU12
  83 0010 1168     		ldr	r1, [r2]
  84              		.loc 1 200 31 view .LVU13
  85 0012 0368     		ldr	r3, [r0]
  86              		.loc 1 200 52 view .LVU14
  87 0014 8468     		ldr	r4, [r0, #8]
  88 0016 2343     		orrs	r3, r3, r4
ARM GAS  /tmp/ccyeojYU.s 			page 6


 201:Drivers/STM32F4xx_StdPeriph_Driver/src/stm32f4xx_hash.c ****                HASH_InitStruct->HASH_DataType | \
  89              		.loc 1 201 47 view .LVU15
  90 0018 4468     		ldr	r4, [r0, #4]
  91 001a 2343     		orrs	r3, r3, r4
 200:Drivers/STM32F4xx_StdPeriph_Driver/src/stm32f4xx_hash.c ****   HASH->CR |= (HASH_InitStruct->HASH_AlgoSelection | \
  92              		.loc 1 200 12 view .LVU16
  93 001c 0B43     		orrs	r3, r3, r1
  94 001e 1360     		str	r3, [r2]
 202:Drivers/STM32F4xx_StdPeriph_Driver/src/stm32f4xx_hash.c ****                HASH_InitStruct->HASH_AlgoMode);
 203:Drivers/STM32F4xx_StdPeriph_Driver/src/stm32f4xx_hash.c ****   
 204:Drivers/STM32F4xx_StdPeriph_Driver/src/stm32f4xx_hash.c ****   /* if algorithm mode is HMAC, set the Key */  
 205:Drivers/STM32F4xx_StdPeriph_Driver/src/stm32f4xx_hash.c ****   if(HASH_InitStruct->HASH_AlgoMode == HASH_AlgoMode_HMAC) 
  95              		.loc 1 205 3 is_stmt 1 view .LVU17
  96              		.loc 1 205 21 is_stmt 0 view .LVU18
  97 0020 4368     		ldr	r3, [r0, #4]
  98              		.loc 1 205 5 view .LVU19
  99 0022 402B     		cmp	r3, #64
 100 0024 07D0     		beq	.L6
 101              	.L4:
 206:Drivers/STM32F4xx_StdPeriph_Driver/src/stm32f4xx_hash.c ****   {
 207:Drivers/STM32F4xx_StdPeriph_Driver/src/stm32f4xx_hash.c ****     assert_param(IS_HASH_HMAC_KEYTYPE(HASH_InitStruct->HASH_HMACKeyType));
 208:Drivers/STM32F4xx_StdPeriph_Driver/src/stm32f4xx_hash.c ****     HASH->CR &= ~HASH_CR_LKEY;
 209:Drivers/STM32F4xx_StdPeriph_Driver/src/stm32f4xx_hash.c ****     HASH->CR |= HASH_InitStruct->HASH_HMACKeyType;
 210:Drivers/STM32F4xx_StdPeriph_Driver/src/stm32f4xx_hash.c ****   }
 211:Drivers/STM32F4xx_StdPeriph_Driver/src/stm32f4xx_hash.c **** 
 212:Drivers/STM32F4xx_StdPeriph_Driver/src/stm32f4xx_hash.c ****   /* Reset the HASH processor core, so that the HASH will be ready to compute 
 213:Drivers/STM32F4xx_StdPeriph_Driver/src/stm32f4xx_hash.c ****      the message digest of a new message */
 214:Drivers/STM32F4xx_StdPeriph_Driver/src/stm32f4xx_hash.c ****   HASH->CR |= HASH_CR_INIT;  
 102              		.loc 1 214 3 is_stmt 1 view .LVU20
 103              		.loc 1 214 12 is_stmt 0 view .LVU21
 104 0026 094A     		ldr	r2, .L7
 105 0028 1368     		ldr	r3, [r2]
 106 002a 43F00403 		orr	r3, r3, #4
 107 002e 1360     		str	r3, [r2]
 215:Drivers/STM32F4xx_StdPeriph_Driver/src/stm32f4xx_hash.c **** }
 108              		.loc 1 215 1 view .LVU22
 109 0030 5DF8044B 		ldr	r4, [sp], #4
 110              		.cfi_remember_state
 111              		.cfi_restore 4
 112              		.cfi_def_cfa_offset 0
 113 0034 7047     		bx	lr
 114              	.L6:
 115              		.cfi_restore_state
 207:Drivers/STM32F4xx_StdPeriph_Driver/src/stm32f4xx_hash.c ****     HASH->CR &= ~HASH_CR_LKEY;
 116              		.loc 1 207 5 is_stmt 1 view .LVU23
 208:Drivers/STM32F4xx_StdPeriph_Driver/src/stm32f4xx_hash.c ****     HASH->CR |= HASH_InitStruct->HASH_HMACKeyType;
 117              		.loc 1 208 5 view .LVU24
 208:Drivers/STM32F4xx_StdPeriph_Driver/src/stm32f4xx_hash.c ****     HASH->CR |= HASH_InitStruct->HASH_HMACKeyType;
 118              		.loc 1 208 14 is_stmt 0 view .LVU25
 119 0036 1346     		mov	r3, r2
 120 0038 1268     		ldr	r2, [r2]
 121 003a 22F48032 		bic	r2, r2, #65536
 122 003e 1A60     		str	r2, [r3]
 209:Drivers/STM32F4xx_StdPeriph_Driver/src/stm32f4xx_hash.c ****   }
 123              		.loc 1 209 5 is_stmt 1 view .LVU26
 209:Drivers/STM32F4xx_StdPeriph_Driver/src/stm32f4xx_hash.c ****   }
 124              		.loc 1 209 14 is_stmt 0 view .LVU27
ARM GAS  /tmp/ccyeojYU.s 			page 7


 125 0040 1A68     		ldr	r2, [r3]
 209:Drivers/STM32F4xx_StdPeriph_Driver/src/stm32f4xx_hash.c ****   }
 126              		.loc 1 209 32 view .LVU28
 127 0042 C168     		ldr	r1, [r0, #12]
 209:Drivers/STM32F4xx_StdPeriph_Driver/src/stm32f4xx_hash.c ****   }
 128              		.loc 1 209 14 view .LVU29
 129 0044 0A43     		orrs	r2, r2, r1
 130 0046 1A60     		str	r2, [r3]
 131 0048 EDE7     		b	.L4
 132              	.L8:
 133 004a 00BF     		.align	2
 134              	.L7:
 135 004c 00040650 		.word	1342571520
 136              		.cfi_endproc
 137              	.LFE124:
 139              		.section	.text.HASH_StructInit,"ax",%progbits
 140              		.align	1
 141              		.global	HASH_StructInit
 142              		.syntax unified
 143              		.thumb
 144              		.thumb_func
 146              	HASH_StructInit:
 147              	.LVL3:
 148              	.LFB125:
 216:Drivers/STM32F4xx_StdPeriph_Driver/src/stm32f4xx_hash.c **** 
 217:Drivers/STM32F4xx_StdPeriph_Driver/src/stm32f4xx_hash.c **** /**
 218:Drivers/STM32F4xx_StdPeriph_Driver/src/stm32f4xx_hash.c ****   * @brief  Fills each HASH_InitStruct member with its default value.
 219:Drivers/STM32F4xx_StdPeriph_Driver/src/stm32f4xx_hash.c ****   * @param  HASH_InitStruct : pointer to a HASH_InitTypeDef structure which will
 220:Drivers/STM32F4xx_StdPeriph_Driver/src/stm32f4xx_hash.c ****   *          be initialized.  
 221:Drivers/STM32F4xx_StdPeriph_Driver/src/stm32f4xx_hash.c ****   *  @note  The default values set are : Processor mode is HASH, Algorithm selected is SHA1,
 222:Drivers/STM32F4xx_StdPeriph_Driver/src/stm32f4xx_hash.c ****   *          Data type selected is 32b and HMAC Key Type is short key.  
 223:Drivers/STM32F4xx_StdPeriph_Driver/src/stm32f4xx_hash.c ****   * @retval None
 224:Drivers/STM32F4xx_StdPeriph_Driver/src/stm32f4xx_hash.c ****   */
 225:Drivers/STM32F4xx_StdPeriph_Driver/src/stm32f4xx_hash.c **** void HASH_StructInit(HASH_InitTypeDef* HASH_InitStruct)
 226:Drivers/STM32F4xx_StdPeriph_Driver/src/stm32f4xx_hash.c **** {
 149              		.loc 1 226 1 is_stmt 1 view -0
 150              		.cfi_startproc
 151              		@ args = 0, pretend = 0, frame = 0
 152              		@ frame_needed = 0, uses_anonymous_args = 0
 153              		@ link register save eliminated.
 227:Drivers/STM32F4xx_StdPeriph_Driver/src/stm32f4xx_hash.c ****   /* Initialize the HASH_AlgoSelection member */
 228:Drivers/STM32F4xx_StdPeriph_Driver/src/stm32f4xx_hash.c ****   HASH_InitStruct->HASH_AlgoSelection = HASH_AlgoSelection_SHA1;
 154              		.loc 1 228 3 view .LVU31
 155              		.loc 1 228 39 is_stmt 0 view .LVU32
 156 0000 0023     		movs	r3, #0
 157 0002 0360     		str	r3, [r0]
 229:Drivers/STM32F4xx_StdPeriph_Driver/src/stm32f4xx_hash.c **** 
 230:Drivers/STM32F4xx_StdPeriph_Driver/src/stm32f4xx_hash.c ****   /* Initialize the HASH_AlgoMode member */
 231:Drivers/STM32F4xx_StdPeriph_Driver/src/stm32f4xx_hash.c ****   HASH_InitStruct->HASH_AlgoMode = HASH_AlgoMode_HASH;
 158              		.loc 1 231 3 is_stmt 1 view .LVU33
 159              		.loc 1 231 34 is_stmt 0 view .LVU34
 160 0004 4360     		str	r3, [r0, #4]
 232:Drivers/STM32F4xx_StdPeriph_Driver/src/stm32f4xx_hash.c **** 
 233:Drivers/STM32F4xx_StdPeriph_Driver/src/stm32f4xx_hash.c ****   /* Initialize the HASH_DataType member */
 234:Drivers/STM32F4xx_StdPeriph_Driver/src/stm32f4xx_hash.c ****   HASH_InitStruct->HASH_DataType = HASH_DataType_32b;
 161              		.loc 1 234 3 is_stmt 1 view .LVU35
 162              		.loc 1 234 34 is_stmt 0 view .LVU36
ARM GAS  /tmp/ccyeojYU.s 			page 8


 163 0006 8360     		str	r3, [r0, #8]
 235:Drivers/STM32F4xx_StdPeriph_Driver/src/stm32f4xx_hash.c **** 
 236:Drivers/STM32F4xx_StdPeriph_Driver/src/stm32f4xx_hash.c ****   /* Initialize the HASH_HMACKeyType member */
 237:Drivers/STM32F4xx_StdPeriph_Driver/src/stm32f4xx_hash.c ****   HASH_InitStruct->HASH_HMACKeyType = HASH_HMACKeyType_ShortKey;
 164              		.loc 1 237 3 is_stmt 1 view .LVU37
 165              		.loc 1 237 37 is_stmt 0 view .LVU38
 166 0008 C360     		str	r3, [r0, #12]
 238:Drivers/STM32F4xx_StdPeriph_Driver/src/stm32f4xx_hash.c **** }
 167              		.loc 1 238 1 view .LVU39
 168 000a 7047     		bx	lr
 169              		.cfi_endproc
 170              	.LFE125:
 172              		.section	.text.HASH_Reset,"ax",%progbits
 173              		.align	1
 174              		.global	HASH_Reset
 175              		.syntax unified
 176              		.thumb
 177              		.thumb_func
 179              	HASH_Reset:
 180              	.LFB126:
 239:Drivers/STM32F4xx_StdPeriph_Driver/src/stm32f4xx_hash.c **** 
 240:Drivers/STM32F4xx_StdPeriph_Driver/src/stm32f4xx_hash.c **** /**
 241:Drivers/STM32F4xx_StdPeriph_Driver/src/stm32f4xx_hash.c ****   * @brief  Resets the HASH processor core, so that the HASH will be ready
 242:Drivers/STM32F4xx_StdPeriph_Driver/src/stm32f4xx_hash.c ****   *         to compute the message digest of a new message.
 243:Drivers/STM32F4xx_StdPeriph_Driver/src/stm32f4xx_hash.c ****   * @note   Calling this function will clear the HASH_SR_DCIS (Digest calculation 
 244:Drivers/STM32F4xx_StdPeriph_Driver/src/stm32f4xx_hash.c ****   *         completion interrupt status) bit corresponding to HASH_IT_DCI 
 245:Drivers/STM32F4xx_StdPeriph_Driver/src/stm32f4xx_hash.c ****   *         interrupt and HASH_FLAG_DCIS flag. 
 246:Drivers/STM32F4xx_StdPeriph_Driver/src/stm32f4xx_hash.c ****   * @param  None
 247:Drivers/STM32F4xx_StdPeriph_Driver/src/stm32f4xx_hash.c ****   * @retval None
 248:Drivers/STM32F4xx_StdPeriph_Driver/src/stm32f4xx_hash.c ****   */
 249:Drivers/STM32F4xx_StdPeriph_Driver/src/stm32f4xx_hash.c **** void HASH_Reset(void)
 250:Drivers/STM32F4xx_StdPeriph_Driver/src/stm32f4xx_hash.c **** {
 181              		.loc 1 250 1 is_stmt 1 view -0
 182              		.cfi_startproc
 183              		@ args = 0, pretend = 0, frame = 0
 184              		@ frame_needed = 0, uses_anonymous_args = 0
 185              		@ link register save eliminated.
 251:Drivers/STM32F4xx_StdPeriph_Driver/src/stm32f4xx_hash.c ****   /* Reset the HASH processor core */
 252:Drivers/STM32F4xx_StdPeriph_Driver/src/stm32f4xx_hash.c ****   HASH->CR |= HASH_CR_INIT;
 186              		.loc 1 252 3 view .LVU41
 187              		.loc 1 252 12 is_stmt 0 view .LVU42
 188 0000 024A     		ldr	r2, .L11
 189 0002 1368     		ldr	r3, [r2]
 190 0004 43F00403 		orr	r3, r3, #4
 191 0008 1360     		str	r3, [r2]
 253:Drivers/STM32F4xx_StdPeriph_Driver/src/stm32f4xx_hash.c **** }
 192              		.loc 1 253 1 view .LVU43
 193 000a 7047     		bx	lr
 194              	.L12:
 195              		.align	2
 196              	.L11:
 197 000c 00040650 		.word	1342571520
 198              		.cfi_endproc
 199              	.LFE126:
 201              		.section	.text.HASH_SetLastWordValidBitsNbr,"ax",%progbits
 202              		.align	1
 203              		.global	HASH_SetLastWordValidBitsNbr
ARM GAS  /tmp/ccyeojYU.s 			page 9


 204              		.syntax unified
 205              		.thumb
 206              		.thumb_func
 208              	HASH_SetLastWordValidBitsNbr:
 209              	.LVL4:
 210              	.LFB127:
 254:Drivers/STM32F4xx_StdPeriph_Driver/src/stm32f4xx_hash.c **** /**
 255:Drivers/STM32F4xx_StdPeriph_Driver/src/stm32f4xx_hash.c ****   * @}
 256:Drivers/STM32F4xx_StdPeriph_Driver/src/stm32f4xx_hash.c ****   */
 257:Drivers/STM32F4xx_StdPeriph_Driver/src/stm32f4xx_hash.c ****  
 258:Drivers/STM32F4xx_StdPeriph_Driver/src/stm32f4xx_hash.c **** /** @defgroup HASH_Group2 Message Digest generation functions
 259:Drivers/STM32F4xx_StdPeriph_Driver/src/stm32f4xx_hash.c ****  *  @brief    Message Digest generation functions
 260:Drivers/STM32F4xx_StdPeriph_Driver/src/stm32f4xx_hash.c ****  *
 261:Drivers/STM32F4xx_StdPeriph_Driver/src/stm32f4xx_hash.c **** @verbatim    
 262:Drivers/STM32F4xx_StdPeriph_Driver/src/stm32f4xx_hash.c ****  ===============================================================================
 263:Drivers/STM32F4xx_StdPeriph_Driver/src/stm32f4xx_hash.c ****                   ##### Message Digest generation functions #####
 264:Drivers/STM32F4xx_StdPeriph_Driver/src/stm32f4xx_hash.c ****  ===============================================================================  
 265:Drivers/STM32F4xx_StdPeriph_Driver/src/stm32f4xx_hash.c ****  [..] This section provides functions allowing the generation of message digest: 
 266:Drivers/STM32F4xx_StdPeriph_Driver/src/stm32f4xx_hash.c ****    (+) Push data in the IN FIFO : using HASH_DataIn()
 267:Drivers/STM32F4xx_StdPeriph_Driver/src/stm32f4xx_hash.c ****    (+) Get the number of words set in IN FIFO, use HASH_GetInFIFOWordsNbr()  
 268:Drivers/STM32F4xx_StdPeriph_Driver/src/stm32f4xx_hash.c ****    (+) set the last word valid bits number using HASH_SetLastWordValidBitsNbr() 
 269:Drivers/STM32F4xx_StdPeriph_Driver/src/stm32f4xx_hash.c ****    (+) start digest calculation : using HASH_StartDigest()
 270:Drivers/STM32F4xx_StdPeriph_Driver/src/stm32f4xx_hash.c ****    (+) Get the Digest message : using HASH_GetDigest()
 271:Drivers/STM32F4xx_StdPeriph_Driver/src/stm32f4xx_hash.c ****  
 272:Drivers/STM32F4xx_StdPeriph_Driver/src/stm32f4xx_hash.c **** @endverbatim
 273:Drivers/STM32F4xx_StdPeriph_Driver/src/stm32f4xx_hash.c ****   * @{
 274:Drivers/STM32F4xx_StdPeriph_Driver/src/stm32f4xx_hash.c ****   */
 275:Drivers/STM32F4xx_StdPeriph_Driver/src/stm32f4xx_hash.c **** 
 276:Drivers/STM32F4xx_StdPeriph_Driver/src/stm32f4xx_hash.c **** 
 277:Drivers/STM32F4xx_StdPeriph_Driver/src/stm32f4xx_hash.c **** /**
 278:Drivers/STM32F4xx_StdPeriph_Driver/src/stm32f4xx_hash.c ****   * @brief  Configure the Number of valid bits in last word of the message
 279:Drivers/STM32F4xx_StdPeriph_Driver/src/stm32f4xx_hash.c ****   * @param  ValidNumber: Number of valid bits in last word of the message.
 280:Drivers/STM32F4xx_StdPeriph_Driver/src/stm32f4xx_hash.c ****   *           This parameter must be a number between 0 and 0x1F.
 281:Drivers/STM32F4xx_StdPeriph_Driver/src/stm32f4xx_hash.c ****   *             - 0x00: All 32 bits of the last data written are valid
 282:Drivers/STM32F4xx_StdPeriph_Driver/src/stm32f4xx_hash.c ****   *             - 0x01: Only bit [0] of the last data written is valid
 283:Drivers/STM32F4xx_StdPeriph_Driver/src/stm32f4xx_hash.c ****   *             - 0x02: Only bits[1:0] of the last data written are valid
 284:Drivers/STM32F4xx_StdPeriph_Driver/src/stm32f4xx_hash.c ****   *             - 0x03: Only bits[2:0] of the last data written are valid
 285:Drivers/STM32F4xx_StdPeriph_Driver/src/stm32f4xx_hash.c ****   *             - ...
 286:Drivers/STM32F4xx_StdPeriph_Driver/src/stm32f4xx_hash.c ****   *             - 0x1F: Only bits[30:0] of the last data written are valid    
 287:Drivers/STM32F4xx_StdPeriph_Driver/src/stm32f4xx_hash.c ****   * @note   The Number of valid bits must be set before to start the message 
 288:Drivers/STM32F4xx_StdPeriph_Driver/src/stm32f4xx_hash.c ****   *         digest competition (in Hash and HMAC) and key treatment(in HMAC).    
 289:Drivers/STM32F4xx_StdPeriph_Driver/src/stm32f4xx_hash.c ****   * @retval None
 290:Drivers/STM32F4xx_StdPeriph_Driver/src/stm32f4xx_hash.c ****   */
 291:Drivers/STM32F4xx_StdPeriph_Driver/src/stm32f4xx_hash.c **** void HASH_SetLastWordValidBitsNbr(uint16_t ValidNumber)
 292:Drivers/STM32F4xx_StdPeriph_Driver/src/stm32f4xx_hash.c **** {
 211              		.loc 1 292 1 is_stmt 1 view -0
 212              		.cfi_startproc
 213              		@ args = 0, pretend = 0, frame = 0
 214              		@ frame_needed = 0, uses_anonymous_args = 0
 215              		@ link register save eliminated.
 293:Drivers/STM32F4xx_StdPeriph_Driver/src/stm32f4xx_hash.c ****   /* Check the parameters */
 294:Drivers/STM32F4xx_StdPeriph_Driver/src/stm32f4xx_hash.c ****   assert_param(IS_HASH_VALIDBITSNUMBER(ValidNumber));
 216              		.loc 1 294 3 view .LVU45
 295:Drivers/STM32F4xx_StdPeriph_Driver/src/stm32f4xx_hash.c ****   
 296:Drivers/STM32F4xx_StdPeriph_Driver/src/stm32f4xx_hash.c ****   /* Configure the Number of valid bits in last word of the message */
 297:Drivers/STM32F4xx_StdPeriph_Driver/src/stm32f4xx_hash.c ****   HASH->STR &= ~(HASH_STR_NBW);
 217              		.loc 1 297 3 view .LVU46
ARM GAS  /tmp/ccyeojYU.s 			page 10


 218              		.loc 1 297 13 is_stmt 0 view .LVU47
 219 0000 044B     		ldr	r3, .L14
 220 0002 9A68     		ldr	r2, [r3, #8]
 221 0004 22F01F02 		bic	r2, r2, #31
 222 0008 9A60     		str	r2, [r3, #8]
 298:Drivers/STM32F4xx_StdPeriph_Driver/src/stm32f4xx_hash.c ****   HASH->STR |= ValidNumber;
 223              		.loc 1 298 3 is_stmt 1 view .LVU48
 224              		.loc 1 298 13 is_stmt 0 view .LVU49
 225 000a 9A68     		ldr	r2, [r3, #8]
 226 000c 1043     		orrs	r0, r0, r2
 227              	.LVL5:
 228              		.loc 1 298 13 view .LVU50
 229 000e 9860     		str	r0, [r3, #8]
 299:Drivers/STM32F4xx_StdPeriph_Driver/src/stm32f4xx_hash.c **** }
 230              		.loc 1 299 1 view .LVU51
 231 0010 7047     		bx	lr
 232              	.L15:
 233 0012 00BF     		.align	2
 234              	.L14:
 235 0014 00040650 		.word	1342571520
 236              		.cfi_endproc
 237              	.LFE127:
 239              		.section	.text.HASH_DataIn,"ax",%progbits
 240              		.align	1
 241              		.global	HASH_DataIn
 242              		.syntax unified
 243              		.thumb
 244              		.thumb_func
 246              	HASH_DataIn:
 247              	.LVL6:
 248              	.LFB128:
 300:Drivers/STM32F4xx_StdPeriph_Driver/src/stm32f4xx_hash.c **** 
 301:Drivers/STM32F4xx_StdPeriph_Driver/src/stm32f4xx_hash.c **** /**
 302:Drivers/STM32F4xx_StdPeriph_Driver/src/stm32f4xx_hash.c ****   * @brief  Writes data in the Data Input FIFO
 303:Drivers/STM32F4xx_StdPeriph_Driver/src/stm32f4xx_hash.c ****   * @param  Data: new data of the message to be processed.
 304:Drivers/STM32F4xx_StdPeriph_Driver/src/stm32f4xx_hash.c ****   * @retval None
 305:Drivers/STM32F4xx_StdPeriph_Driver/src/stm32f4xx_hash.c ****   */
 306:Drivers/STM32F4xx_StdPeriph_Driver/src/stm32f4xx_hash.c **** void HASH_DataIn(uint32_t Data)
 307:Drivers/STM32F4xx_StdPeriph_Driver/src/stm32f4xx_hash.c **** {
 249              		.loc 1 307 1 is_stmt 1 view -0
 250              		.cfi_startproc
 251              		@ args = 0, pretend = 0, frame = 0
 252              		@ frame_needed = 0, uses_anonymous_args = 0
 253              		@ link register save eliminated.
 308:Drivers/STM32F4xx_StdPeriph_Driver/src/stm32f4xx_hash.c ****   /* Write in the DIN register a new data */
 309:Drivers/STM32F4xx_StdPeriph_Driver/src/stm32f4xx_hash.c ****   HASH->DIN = Data;
 254              		.loc 1 309 3 view .LVU53
 255              		.loc 1 309 13 is_stmt 0 view .LVU54
 256 0000 014B     		ldr	r3, .L17
 257 0002 5860     		str	r0, [r3, #4]
 310:Drivers/STM32F4xx_StdPeriph_Driver/src/stm32f4xx_hash.c **** }
 258              		.loc 1 310 1 view .LVU55
 259 0004 7047     		bx	lr
 260              	.L18:
 261 0006 00BF     		.align	2
 262              	.L17:
 263 0008 00040650 		.word	1342571520
ARM GAS  /tmp/ccyeojYU.s 			page 11


 264              		.cfi_endproc
 265              	.LFE128:
 267              		.section	.text.HASH_GetInFIFOWordsNbr,"ax",%progbits
 268              		.align	1
 269              		.global	HASH_GetInFIFOWordsNbr
 270              		.syntax unified
 271              		.thumb
 272              		.thumb_func
 274              	HASH_GetInFIFOWordsNbr:
 275              	.LFB129:
 311:Drivers/STM32F4xx_StdPeriph_Driver/src/stm32f4xx_hash.c **** 
 312:Drivers/STM32F4xx_StdPeriph_Driver/src/stm32f4xx_hash.c **** /**
 313:Drivers/STM32F4xx_StdPeriph_Driver/src/stm32f4xx_hash.c ****   * @brief  Returns the number of words already pushed into the IN FIFO.
 314:Drivers/STM32F4xx_StdPeriph_Driver/src/stm32f4xx_hash.c ****   * @param  None
 315:Drivers/STM32F4xx_StdPeriph_Driver/src/stm32f4xx_hash.c ****   * @retval The value of words already pushed into the IN FIFO.
 316:Drivers/STM32F4xx_StdPeriph_Driver/src/stm32f4xx_hash.c ****   */
 317:Drivers/STM32F4xx_StdPeriph_Driver/src/stm32f4xx_hash.c **** uint8_t HASH_GetInFIFOWordsNbr(void)
 318:Drivers/STM32F4xx_StdPeriph_Driver/src/stm32f4xx_hash.c **** {
 276              		.loc 1 318 1 is_stmt 1 view -0
 277              		.cfi_startproc
 278              		@ args = 0, pretend = 0, frame = 0
 279              		@ frame_needed = 0, uses_anonymous_args = 0
 280              		@ link register save eliminated.
 319:Drivers/STM32F4xx_StdPeriph_Driver/src/stm32f4xx_hash.c ****   /* Return the value of NBW bits */
 320:Drivers/STM32F4xx_StdPeriph_Driver/src/stm32f4xx_hash.c ****   return ((HASH->CR & HASH_CR_NBW) >> 8);
 281              		.loc 1 320 3 view .LVU57
 282              		.loc 1 320 16 is_stmt 0 view .LVU58
 283 0000 024B     		ldr	r3, .L20
 284 0002 1868     		ldr	r0, [r3]
 321:Drivers/STM32F4xx_StdPeriph_Driver/src/stm32f4xx_hash.c **** }
 285              		.loc 1 321 1 view .LVU59
 286 0004 C0F30320 		ubfx	r0, r0, #8, #4
 287 0008 7047     		bx	lr
 288              	.L21:
 289 000a 00BF     		.align	2
 290              	.L20:
 291 000c 00040650 		.word	1342571520
 292              		.cfi_endproc
 293              	.LFE129:
 295              		.section	.text.HASH_GetDigest,"ax",%progbits
 296              		.align	1
 297              		.global	HASH_GetDigest
 298              		.syntax unified
 299              		.thumb
 300              		.thumb_func
 302              	HASH_GetDigest:
 303              	.LVL7:
 304              	.LFB130:
 322:Drivers/STM32F4xx_StdPeriph_Driver/src/stm32f4xx_hash.c **** 
 323:Drivers/STM32F4xx_StdPeriph_Driver/src/stm32f4xx_hash.c **** /**
 324:Drivers/STM32F4xx_StdPeriph_Driver/src/stm32f4xx_hash.c ****   * @brief  Provides the message digest result.
 325:Drivers/STM32F4xx_StdPeriph_Driver/src/stm32f4xx_hash.c ****   * @note   In MD5 mode, Data[7] to Data[4] filed of HASH_MsgDigest structure is not used
 326:Drivers/STM32F4xx_StdPeriph_Driver/src/stm32f4xx_hash.c ****   *         and is read as zero.
 327:Drivers/STM32F4xx_StdPeriph_Driver/src/stm32f4xx_hash.c ****   *         In SHA-1 mode, Data[7] to Data[5] filed of HASH_MsgDigest structure is not used
 328:Drivers/STM32F4xx_StdPeriph_Driver/src/stm32f4xx_hash.c ****   *         and is read as zero.    
 329:Drivers/STM32F4xx_StdPeriph_Driver/src/stm32f4xx_hash.c ****   *         In SHA-224 mode, Data[7] filed of HASH_MsgDigest structure is not used
 330:Drivers/STM32F4xx_StdPeriph_Driver/src/stm32f4xx_hash.c ****   *         and is read as zero.  
ARM GAS  /tmp/ccyeojYU.s 			page 12


 331:Drivers/STM32F4xx_StdPeriph_Driver/src/stm32f4xx_hash.c ****   * @param  HASH_MessageDigest: pointer to a HASH_MsgDigest structure which will 
 332:Drivers/STM32F4xx_StdPeriph_Driver/src/stm32f4xx_hash.c ****   *         hold the message digest result 
 333:Drivers/STM32F4xx_StdPeriph_Driver/src/stm32f4xx_hash.c ****   * @retval None
 334:Drivers/STM32F4xx_StdPeriph_Driver/src/stm32f4xx_hash.c ****   */
 335:Drivers/STM32F4xx_StdPeriph_Driver/src/stm32f4xx_hash.c **** void HASH_GetDigest(HASH_MsgDigest* HASH_MessageDigest)
 336:Drivers/STM32F4xx_StdPeriph_Driver/src/stm32f4xx_hash.c **** {
 305              		.loc 1 336 1 is_stmt 1 view -0
 306              		.cfi_startproc
 307              		@ args = 0, pretend = 0, frame = 0
 308              		@ frame_needed = 0, uses_anonymous_args = 0
 309              		@ link register save eliminated.
 337:Drivers/STM32F4xx_StdPeriph_Driver/src/stm32f4xx_hash.c ****   /* Get the data field */
 338:Drivers/STM32F4xx_StdPeriph_Driver/src/stm32f4xx_hash.c ****   HASH_MessageDigest->Data[0] = HASH->HR[0];
 310              		.loc 1 338 3 view .LVU61
 311              		.loc 1 338 41 is_stmt 0 view .LVU62
 312 0000 094B     		ldr	r3, .L23
 313 0002 DA68     		ldr	r2, [r3, #12]
 314              		.loc 1 338 31 view .LVU63
 315 0004 0260     		str	r2, [r0]
 339:Drivers/STM32F4xx_StdPeriph_Driver/src/stm32f4xx_hash.c ****   HASH_MessageDigest->Data[1] = HASH->HR[1];
 316              		.loc 1 339 3 is_stmt 1 view .LVU64
 317              		.loc 1 339 41 is_stmt 0 view .LVU65
 318 0006 1A69     		ldr	r2, [r3, #16]
 319              		.loc 1 339 31 view .LVU66
 320 0008 4260     		str	r2, [r0, #4]
 340:Drivers/STM32F4xx_StdPeriph_Driver/src/stm32f4xx_hash.c ****   HASH_MessageDigest->Data[2] = HASH->HR[2];
 321              		.loc 1 340 3 is_stmt 1 view .LVU67
 322              		.loc 1 340 41 is_stmt 0 view .LVU68
 323 000a 5A69     		ldr	r2, [r3, #20]
 324              		.loc 1 340 31 view .LVU69
 325 000c 8260     		str	r2, [r0, #8]
 341:Drivers/STM32F4xx_StdPeriph_Driver/src/stm32f4xx_hash.c ****   HASH_MessageDigest->Data[3] = HASH->HR[3];
 326              		.loc 1 341 3 is_stmt 1 view .LVU70
 327              		.loc 1 341 41 is_stmt 0 view .LVU71
 328 000e 9A69     		ldr	r2, [r3, #24]
 329              		.loc 1 341 31 view .LVU72
 330 0010 C260     		str	r2, [r0, #12]
 342:Drivers/STM32F4xx_StdPeriph_Driver/src/stm32f4xx_hash.c ****   HASH_MessageDigest->Data[4] = HASH->HR[4];
 331              		.loc 1 342 3 is_stmt 1 view .LVU73
 332              		.loc 1 342 41 is_stmt 0 view .LVU74
 333 0012 DB69     		ldr	r3, [r3, #28]
 334              		.loc 1 342 31 view .LVU75
 335 0014 0361     		str	r3, [r0, #16]
 343:Drivers/STM32F4xx_StdPeriph_Driver/src/stm32f4xx_hash.c ****   HASH_MessageDigest->Data[5] = HASH_DIGEST->HR[5];
 336              		.loc 1 343 3 is_stmt 1 view .LVU76
 337              		.loc 1 343 48 is_stmt 0 view .LVU77
 338 0016 054B     		ldr	r3, .L23+4
 339 0018 5A6A     		ldr	r2, [r3, #36]
 340              		.loc 1 343 31 view .LVU78
 341 001a 4261     		str	r2, [r0, #20]
 344:Drivers/STM32F4xx_StdPeriph_Driver/src/stm32f4xx_hash.c ****   HASH_MessageDigest->Data[6] = HASH_DIGEST->HR[6];
 342              		.loc 1 344 3 is_stmt 1 view .LVU79
 343              		.loc 1 344 48 is_stmt 0 view .LVU80
 344 001c 9A6A     		ldr	r2, [r3, #40]
 345              		.loc 1 344 31 view .LVU81
 346 001e 8261     		str	r2, [r0, #24]
 345:Drivers/STM32F4xx_StdPeriph_Driver/src/stm32f4xx_hash.c ****   HASH_MessageDigest->Data[7] = HASH_DIGEST->HR[7];
ARM GAS  /tmp/ccyeojYU.s 			page 13


 347              		.loc 1 345 3 is_stmt 1 view .LVU82
 348              		.loc 1 345 48 is_stmt 0 view .LVU83
 349 0020 DB6A     		ldr	r3, [r3, #44]
 350              		.loc 1 345 31 view .LVU84
 351 0022 C361     		str	r3, [r0, #28]
 346:Drivers/STM32F4xx_StdPeriph_Driver/src/stm32f4xx_hash.c **** }
 352              		.loc 1 346 1 view .LVU85
 353 0024 7047     		bx	lr
 354              	.L24:
 355 0026 00BF     		.align	2
 356              	.L23:
 357 0028 00040650 		.word	1342571520
 358 002c 00070650 		.word	1342572288
 359              		.cfi_endproc
 360              	.LFE130:
 362              		.section	.text.HASH_StartDigest,"ax",%progbits
 363              		.align	1
 364              		.global	HASH_StartDigest
 365              		.syntax unified
 366              		.thumb
 367              		.thumb_func
 369              	HASH_StartDigest:
 370              	.LFB131:
 347:Drivers/STM32F4xx_StdPeriph_Driver/src/stm32f4xx_hash.c **** 
 348:Drivers/STM32F4xx_StdPeriph_Driver/src/stm32f4xx_hash.c **** /**
 349:Drivers/STM32F4xx_StdPeriph_Driver/src/stm32f4xx_hash.c ****   * @brief  Starts the message padding and calculation of the final message     
 350:Drivers/STM32F4xx_StdPeriph_Driver/src/stm32f4xx_hash.c ****   * @param  None
 351:Drivers/STM32F4xx_StdPeriph_Driver/src/stm32f4xx_hash.c ****   * @retval None
 352:Drivers/STM32F4xx_StdPeriph_Driver/src/stm32f4xx_hash.c ****   */
 353:Drivers/STM32F4xx_StdPeriph_Driver/src/stm32f4xx_hash.c **** void HASH_StartDigest(void)
 354:Drivers/STM32F4xx_StdPeriph_Driver/src/stm32f4xx_hash.c **** {
 371              		.loc 1 354 1 is_stmt 1 view -0
 372              		.cfi_startproc
 373              		@ args = 0, pretend = 0, frame = 0
 374              		@ frame_needed = 0, uses_anonymous_args = 0
 375              		@ link register save eliminated.
 355:Drivers/STM32F4xx_StdPeriph_Driver/src/stm32f4xx_hash.c ****   /* Start the Digest calculation */
 356:Drivers/STM32F4xx_StdPeriph_Driver/src/stm32f4xx_hash.c ****   HASH->STR |= HASH_STR_DCAL;
 376              		.loc 1 356 3 view .LVU87
 377              		.loc 1 356 13 is_stmt 0 view .LVU88
 378 0000 024A     		ldr	r2, .L26
 379 0002 9368     		ldr	r3, [r2, #8]
 380 0004 43F48073 		orr	r3, r3, #256
 381 0008 9360     		str	r3, [r2, #8]
 357:Drivers/STM32F4xx_StdPeriph_Driver/src/stm32f4xx_hash.c **** }
 382              		.loc 1 357 1 view .LVU89
 383 000a 7047     		bx	lr
 384              	.L27:
 385              		.align	2
 386              	.L26:
 387 000c 00040650 		.word	1342571520
 388              		.cfi_endproc
 389              	.LFE131:
 391              		.section	.text.HASH_SaveContext,"ax",%progbits
 392              		.align	1
 393              		.global	HASH_SaveContext
 394              		.syntax unified
ARM GAS  /tmp/ccyeojYU.s 			page 14


 395              		.thumb
 396              		.thumb_func
 398              	HASH_SaveContext:
 399              	.LVL8:
 400              	.LFB132:
 358:Drivers/STM32F4xx_StdPeriph_Driver/src/stm32f4xx_hash.c **** /**
 359:Drivers/STM32F4xx_StdPeriph_Driver/src/stm32f4xx_hash.c ****   * @}
 360:Drivers/STM32F4xx_StdPeriph_Driver/src/stm32f4xx_hash.c ****   */
 361:Drivers/STM32F4xx_StdPeriph_Driver/src/stm32f4xx_hash.c **** 
 362:Drivers/STM32F4xx_StdPeriph_Driver/src/stm32f4xx_hash.c **** /** @defgroup HASH_Group3 Context swapping functions
 363:Drivers/STM32F4xx_StdPeriph_Driver/src/stm32f4xx_hash.c ****  *  @brief   Context swapping functions
 364:Drivers/STM32F4xx_StdPeriph_Driver/src/stm32f4xx_hash.c ****  *
 365:Drivers/STM32F4xx_StdPeriph_Driver/src/stm32f4xx_hash.c **** @verbatim   
 366:Drivers/STM32F4xx_StdPeriph_Driver/src/stm32f4xx_hash.c ****  ===============================================================================
 367:Drivers/STM32F4xx_StdPeriph_Driver/src/stm32f4xx_hash.c ****                       ##### Context swapping functions #####
 368:Drivers/STM32F4xx_StdPeriph_Driver/src/stm32f4xx_hash.c ****  ===============================================================================  
 369:Drivers/STM32F4xx_StdPeriph_Driver/src/stm32f4xx_hash.c ****  
 370:Drivers/STM32F4xx_StdPeriph_Driver/src/stm32f4xx_hash.c ****  [..] This section provides functions allowing to save and store HASH Context
 371:Drivers/STM32F4xx_StdPeriph_Driver/src/stm32f4xx_hash.c ****   
 372:Drivers/STM32F4xx_StdPeriph_Driver/src/stm32f4xx_hash.c ****  [..] It is possible to interrupt a HASH/HMAC process to perform another processing 
 373:Drivers/STM32F4xx_StdPeriph_Driver/src/stm32f4xx_hash.c ****       with a higher priority, and to complete the interrupted process later on, when 
 374:Drivers/STM32F4xx_StdPeriph_Driver/src/stm32f4xx_hash.c ****       the higher priority task is complete. To do so, the context of the interrupted 
 375:Drivers/STM32F4xx_StdPeriph_Driver/src/stm32f4xx_hash.c ****       task must be saved from the HASH registers to memory, and then be restored 
 376:Drivers/STM32F4xx_StdPeriph_Driver/src/stm32f4xx_hash.c ****       from memory to the HASH registers.
 377:Drivers/STM32F4xx_StdPeriph_Driver/src/stm32f4xx_hash.c ****   
 378:Drivers/STM32F4xx_StdPeriph_Driver/src/stm32f4xx_hash.c ****    (#) To save the current context, use HASH_SaveContext() function
 379:Drivers/STM32F4xx_StdPeriph_Driver/src/stm32f4xx_hash.c ****    (#) To restore the saved context, use HASH_RestoreContext() function 
 380:Drivers/STM32F4xx_StdPeriph_Driver/src/stm32f4xx_hash.c ****   
 381:Drivers/STM32F4xx_StdPeriph_Driver/src/stm32f4xx_hash.c **** 
 382:Drivers/STM32F4xx_StdPeriph_Driver/src/stm32f4xx_hash.c **** @endverbatim
 383:Drivers/STM32F4xx_StdPeriph_Driver/src/stm32f4xx_hash.c ****   * @{
 384:Drivers/STM32F4xx_StdPeriph_Driver/src/stm32f4xx_hash.c ****   */
 385:Drivers/STM32F4xx_StdPeriph_Driver/src/stm32f4xx_hash.c ****   
 386:Drivers/STM32F4xx_StdPeriph_Driver/src/stm32f4xx_hash.c **** /**
 387:Drivers/STM32F4xx_StdPeriph_Driver/src/stm32f4xx_hash.c ****   * @brief  Save the Hash peripheral Context. 
 388:Drivers/STM32F4xx_StdPeriph_Driver/src/stm32f4xx_hash.c ****   * @note   The context can be saved only when no block is currently being 
 389:Drivers/STM32F4xx_StdPeriph_Driver/src/stm32f4xx_hash.c ****   *         processed. So user must wait for DINIS = 1 (the last block has been 
 390:Drivers/STM32F4xx_StdPeriph_Driver/src/stm32f4xx_hash.c ****   *         processed and the input FIFO is empty) or NBW != 0 (the FIFO is not 
 391:Drivers/STM32F4xx_StdPeriph_Driver/src/stm32f4xx_hash.c ****   *         full and no processing is ongoing).   
 392:Drivers/STM32F4xx_StdPeriph_Driver/src/stm32f4xx_hash.c ****   * @param  HASH_ContextSave: pointer to a HASH_Context structure that contains
 393:Drivers/STM32F4xx_StdPeriph_Driver/src/stm32f4xx_hash.c ****   *         the repository for current context.
 394:Drivers/STM32F4xx_StdPeriph_Driver/src/stm32f4xx_hash.c ****   * @retval None
 395:Drivers/STM32F4xx_StdPeriph_Driver/src/stm32f4xx_hash.c ****   */
 396:Drivers/STM32F4xx_StdPeriph_Driver/src/stm32f4xx_hash.c **** void HASH_SaveContext(HASH_Context* HASH_ContextSave)
 397:Drivers/STM32F4xx_StdPeriph_Driver/src/stm32f4xx_hash.c **** {
 401              		.loc 1 397 1 is_stmt 1 view -0
 402              		.cfi_startproc
 403              		@ args = 0, pretend = 0, frame = 0
 404              		@ frame_needed = 0, uses_anonymous_args = 0
 405              		@ link register save eliminated.
 398:Drivers/STM32F4xx_StdPeriph_Driver/src/stm32f4xx_hash.c ****   uint8_t i = 0;
 406              		.loc 1 398 3 view .LVU91
 399:Drivers/STM32F4xx_StdPeriph_Driver/src/stm32f4xx_hash.c ****   
 400:Drivers/STM32F4xx_StdPeriph_Driver/src/stm32f4xx_hash.c ****   /* save context registers */
 401:Drivers/STM32F4xx_StdPeriph_Driver/src/stm32f4xx_hash.c ****   HASH_ContextSave->HASH_IMR = HASH->IMR;  
 407              		.loc 1 401 3 view .LVU92
 408              		.loc 1 401 36 is_stmt 0 view .LVU93
ARM GAS  /tmp/ccyeojYU.s 			page 15


 409 0000 0B4B     		ldr	r3, .L31
 410 0002 1A6A     		ldr	r2, [r3, #32]
 411              		.loc 1 401 30 view .LVU94
 412 0004 0260     		str	r2, [r0]
 402:Drivers/STM32F4xx_StdPeriph_Driver/src/stm32f4xx_hash.c ****   HASH_ContextSave->HASH_STR = HASH->STR;      
 413              		.loc 1 402 3 is_stmt 1 view .LVU95
 414              		.loc 1 402 36 is_stmt 0 view .LVU96
 415 0006 9A68     		ldr	r2, [r3, #8]
 416              		.loc 1 402 30 view .LVU97
 417 0008 4260     		str	r2, [r0, #4]
 403:Drivers/STM32F4xx_StdPeriph_Driver/src/stm32f4xx_hash.c ****   HASH_ContextSave->HASH_CR  = HASH->CR;     
 418              		.loc 1 403 3 is_stmt 1 view .LVU98
 419              		.loc 1 403 36 is_stmt 0 view .LVU99
 420 000a 1B68     		ldr	r3, [r3]
 421              		.loc 1 403 30 view .LVU100
 422 000c 8360     		str	r3, [r0, #8]
 404:Drivers/STM32F4xx_StdPeriph_Driver/src/stm32f4xx_hash.c ****   for(i=0; i<=53;i++)
 423              		.loc 1 404 3 is_stmt 1 view .LVU101
 424              		.loc 1 404 8 is_stmt 0 view .LVU102
 425 000e 0023     		movs	r3, #0
 426              		.loc 1 404 3 view .LVU103
 427 0010 0AE0     		b	.L29
 428              	.LVL9:
 429              	.L30:
 405:Drivers/STM32F4xx_StdPeriph_Driver/src/stm32f4xx_hash.c ****   {
 406:Drivers/STM32F4xx_StdPeriph_Driver/src/stm32f4xx_hash.c ****      HASH_ContextSave->HASH_CSR[i] = HASH->CSR[i];
 430              		.loc 1 406 6 is_stmt 1 discriminator 3 view .LVU104
 431              		.loc 1 406 47 is_stmt 0 discriminator 3 view .LVU105
 432 0012 03F13E01 		add	r1, r3, #62
 433 0016 064A     		ldr	r2, .L31
 434 0018 52F82110 		ldr	r1, [r2, r1, lsl #2]
 435              		.loc 1 406 36 discriminator 3 view .LVU106
 436 001c 9A1C     		adds	r2, r3, #2
 437 001e 00EB8202 		add	r2, r0, r2, lsl #2
 438 0022 5160     		str	r1, [r2, #4]
 404:Drivers/STM32F4xx_StdPeriph_Driver/src/stm32f4xx_hash.c ****   for(i=0; i<=53;i++)
 439              		.loc 1 404 18 is_stmt 1 discriminator 3 view .LVU107
 404:Drivers/STM32F4xx_StdPeriph_Driver/src/stm32f4xx_hash.c ****   for(i=0; i<=53;i++)
 440              		.loc 1 404 19 is_stmt 0 discriminator 3 view .LVU108
 441 0024 0133     		adds	r3, r3, #1
 442              	.LVL10:
 404:Drivers/STM32F4xx_StdPeriph_Driver/src/stm32f4xx_hash.c ****   for(i=0; i<=53;i++)
 443              		.loc 1 404 19 discriminator 3 view .LVU109
 444 0026 DBB2     		uxtb	r3, r3
 445              	.LVL11:
 446              	.L29:
 404:Drivers/STM32F4xx_StdPeriph_Driver/src/stm32f4xx_hash.c ****   for(i=0; i<=53;i++)
 447              		.loc 1 404 12 is_stmt 1 discriminator 1 view .LVU110
 404:Drivers/STM32F4xx_StdPeriph_Driver/src/stm32f4xx_hash.c ****   for(i=0; i<=53;i++)
 448              		.loc 1 404 3 is_stmt 0 discriminator 1 view .LVU111
 449 0028 352B     		cmp	r3, #53
 450 002a F2D9     		bls	.L30
 407:Drivers/STM32F4xx_StdPeriph_Driver/src/stm32f4xx_hash.c ****   }   
 408:Drivers/STM32F4xx_StdPeriph_Driver/src/stm32f4xx_hash.c **** }
 451              		.loc 1 408 1 view .LVU112
 452 002c 7047     		bx	lr
 453              	.L32:
ARM GAS  /tmp/ccyeojYU.s 			page 16


 454 002e 00BF     		.align	2
 455              	.L31:
 456 0030 00040650 		.word	1342571520
 457              		.cfi_endproc
 458              	.LFE132:
 460              		.section	.text.HASH_RestoreContext,"ax",%progbits
 461              		.align	1
 462              		.global	HASH_RestoreContext
 463              		.syntax unified
 464              		.thumb
 465              		.thumb_func
 467              	HASH_RestoreContext:
 468              	.LVL12:
 469              	.LFB133:
 409:Drivers/STM32F4xx_StdPeriph_Driver/src/stm32f4xx_hash.c **** 
 410:Drivers/STM32F4xx_StdPeriph_Driver/src/stm32f4xx_hash.c **** /**
 411:Drivers/STM32F4xx_StdPeriph_Driver/src/stm32f4xx_hash.c ****   * @brief  Restore the Hash peripheral Context.  
 412:Drivers/STM32F4xx_StdPeriph_Driver/src/stm32f4xx_hash.c ****   * @note   After calling this function, user can restart the processing from the
 413:Drivers/STM32F4xx_StdPeriph_Driver/src/stm32f4xx_hash.c ****   *         point where it has been interrupted.  
 414:Drivers/STM32F4xx_StdPeriph_Driver/src/stm32f4xx_hash.c ****   * @param  HASH_ContextRestore: pointer to a HASH_Context structure that contains
 415:Drivers/STM32F4xx_StdPeriph_Driver/src/stm32f4xx_hash.c ****   *         the repository for saved context.
 416:Drivers/STM32F4xx_StdPeriph_Driver/src/stm32f4xx_hash.c ****   * @retval None
 417:Drivers/STM32F4xx_StdPeriph_Driver/src/stm32f4xx_hash.c ****   */
 418:Drivers/STM32F4xx_StdPeriph_Driver/src/stm32f4xx_hash.c **** void HASH_RestoreContext(HASH_Context* HASH_ContextRestore)  
 419:Drivers/STM32F4xx_StdPeriph_Driver/src/stm32f4xx_hash.c **** {
 470              		.loc 1 419 1 is_stmt 1 view -0
 471              		.cfi_startproc
 472              		@ args = 0, pretend = 0, frame = 0
 473              		@ frame_needed = 0, uses_anonymous_args = 0
 474              		@ link register save eliminated.
 475              		.loc 1 419 1 is_stmt 0 view .LVU114
 476 0000 8446     		mov	ip, r0
 420:Drivers/STM32F4xx_StdPeriph_Driver/src/stm32f4xx_hash.c ****   uint8_t i = 0;
 477              		.loc 1 420 3 is_stmt 1 view .LVU115
 478              	.LVL13:
 421:Drivers/STM32F4xx_StdPeriph_Driver/src/stm32f4xx_hash.c ****   
 422:Drivers/STM32F4xx_StdPeriph_Driver/src/stm32f4xx_hash.c ****   /* restore context registers */
 423:Drivers/STM32F4xx_StdPeriph_Driver/src/stm32f4xx_hash.c ****   HASH->IMR = HASH_ContextRestore->HASH_IMR;   
 479              		.loc 1 423 3 view .LVU116
 480              		.loc 1 423 34 is_stmt 0 view .LVU117
 481 0002 0268     		ldr	r2, [r0]
 482              		.loc 1 423 13 view .LVU118
 483 0004 0C4B     		ldr	r3, .L36
 484 0006 1A62     		str	r2, [r3, #32]
 424:Drivers/STM32F4xx_StdPeriph_Driver/src/stm32f4xx_hash.c ****   HASH->STR = HASH_ContextRestore->HASH_STR;     
 485              		.loc 1 424 3 is_stmt 1 view .LVU119
 486              		.loc 1 424 34 is_stmt 0 view .LVU120
 487 0008 4268     		ldr	r2, [r0, #4]
 488              		.loc 1 424 13 view .LVU121
 489 000a 9A60     		str	r2, [r3, #8]
 425:Drivers/STM32F4xx_StdPeriph_Driver/src/stm32f4xx_hash.c ****   HASH->CR = HASH_ContextRestore->HASH_CR;
 490              		.loc 1 425 3 is_stmt 1 view .LVU122
 491              		.loc 1 425 33 is_stmt 0 view .LVU123
 492 000c 8268     		ldr	r2, [r0, #8]
 493              		.loc 1 425 12 view .LVU124
 494 000e 1A60     		str	r2, [r3]
 426:Drivers/STM32F4xx_StdPeriph_Driver/src/stm32f4xx_hash.c ****   
ARM GAS  /tmp/ccyeojYU.s 			page 17


 427:Drivers/STM32F4xx_StdPeriph_Driver/src/stm32f4xx_hash.c ****   /* Initialize the hash processor */
 428:Drivers/STM32F4xx_StdPeriph_Driver/src/stm32f4xx_hash.c ****   HASH->CR |= HASH_CR_INIT; 
 495              		.loc 1 428 3 is_stmt 1 view .LVU125
 496              		.loc 1 428 12 is_stmt 0 view .LVU126
 497 0010 1A68     		ldr	r2, [r3]
 498 0012 42F00402 		orr	r2, r2, #4
 499 0016 1A60     		str	r2, [r3]
 429:Drivers/STM32F4xx_StdPeriph_Driver/src/stm32f4xx_hash.c ****   
 430:Drivers/STM32F4xx_StdPeriph_Driver/src/stm32f4xx_hash.c ****    /* continue restoring context registers */     
 431:Drivers/STM32F4xx_StdPeriph_Driver/src/stm32f4xx_hash.c ****   for(i=0; i<=53;i++)
 500              		.loc 1 431 3 is_stmt 1 view .LVU127
 501              		.loc 1 431 8 is_stmt 0 view .LVU128
 502 0018 0023     		movs	r3, #0
 503              		.loc 1 431 3 view .LVU129
 504 001a 0AE0     		b	.L34
 505              	.LVL14:
 506              	.L35:
 432:Drivers/STM32F4xx_StdPeriph_Driver/src/stm32f4xx_hash.c ****   {
 433:Drivers/STM32F4xx_StdPeriph_Driver/src/stm32f4xx_hash.c ****      HASH->CSR[i] = HASH_ContextRestore->HASH_CSR[i];
 507              		.loc 1 433 6 is_stmt 1 discriminator 3 view .LVU130
 508              		.loc 1 433 50 is_stmt 0 discriminator 3 view .LVU131
 509 001c 9A1C     		adds	r2, r3, #2
 510 001e 0CEB8202 		add	r2, ip, r2, lsl #2
 511 0022 5068     		ldr	r0, [r2, #4]
 512              		.loc 1 433 19 discriminator 3 view .LVU132
 513 0024 03F13E01 		add	r1, r3, #62
 514 0028 034A     		ldr	r2, .L36
 515 002a 42F82100 		str	r0, [r2, r1, lsl #2]
 431:Drivers/STM32F4xx_StdPeriph_Driver/src/stm32f4xx_hash.c ****   {
 516              		.loc 1 431 18 is_stmt 1 discriminator 3 view .LVU133
 431:Drivers/STM32F4xx_StdPeriph_Driver/src/stm32f4xx_hash.c ****   {
 517              		.loc 1 431 19 is_stmt 0 discriminator 3 view .LVU134
 518 002e 0133     		adds	r3, r3, #1
 519              	.LVL15:
 431:Drivers/STM32F4xx_StdPeriph_Driver/src/stm32f4xx_hash.c ****   {
 520              		.loc 1 431 19 discriminator 3 view .LVU135
 521 0030 DBB2     		uxtb	r3, r3
 522              	.LVL16:
 523              	.L34:
 431:Drivers/STM32F4xx_StdPeriph_Driver/src/stm32f4xx_hash.c ****   {
 524              		.loc 1 431 12 is_stmt 1 discriminator 1 view .LVU136
 431:Drivers/STM32F4xx_StdPeriph_Driver/src/stm32f4xx_hash.c ****   {
 525              		.loc 1 431 3 is_stmt 0 discriminator 1 view .LVU137
 526 0032 352B     		cmp	r3, #53
 527 0034 F2D9     		bls	.L35
 434:Drivers/STM32F4xx_StdPeriph_Driver/src/stm32f4xx_hash.c ****   }   
 435:Drivers/STM32F4xx_StdPeriph_Driver/src/stm32f4xx_hash.c **** }
 528              		.loc 1 435 1 view .LVU138
 529 0036 7047     		bx	lr
 530              	.L37:
 531              		.align	2
 532              	.L36:
 533 0038 00040650 		.word	1342571520
 534              		.cfi_endproc
 535              	.LFE133:
 537              		.section	.text.HASH_AutoStartDigest,"ax",%progbits
 538              		.align	1
ARM GAS  /tmp/ccyeojYU.s 			page 18


 539              		.global	HASH_AutoStartDigest
 540              		.syntax unified
 541              		.thumb
 542              		.thumb_func
 544              	HASH_AutoStartDigest:
 545              	.LVL17:
 546              	.LFB134:
 436:Drivers/STM32F4xx_StdPeriph_Driver/src/stm32f4xx_hash.c **** /**
 437:Drivers/STM32F4xx_StdPeriph_Driver/src/stm32f4xx_hash.c ****   * @}
 438:Drivers/STM32F4xx_StdPeriph_Driver/src/stm32f4xx_hash.c ****   */
 439:Drivers/STM32F4xx_StdPeriph_Driver/src/stm32f4xx_hash.c **** 
 440:Drivers/STM32F4xx_StdPeriph_Driver/src/stm32f4xx_hash.c **** /** @defgroup HASH_Group4 HASH's DMA interface Configuration function
 441:Drivers/STM32F4xx_StdPeriph_Driver/src/stm32f4xx_hash.c ****  *  @brief   HASH's DMA interface Configuration function 
 442:Drivers/STM32F4xx_StdPeriph_Driver/src/stm32f4xx_hash.c ****  *
 443:Drivers/STM32F4xx_StdPeriph_Driver/src/stm32f4xx_hash.c **** @verbatim   
 444:Drivers/STM32F4xx_StdPeriph_Driver/src/stm32f4xx_hash.c ****  ===============================================================================
 445:Drivers/STM32F4xx_StdPeriph_Driver/src/stm32f4xx_hash.c ****                ##### HASH's DMA interface Configuration function #####
 446:Drivers/STM32F4xx_StdPeriph_Driver/src/stm32f4xx_hash.c ****  ===============================================================================  
 447:Drivers/STM32F4xx_StdPeriph_Driver/src/stm32f4xx_hash.c **** 
 448:Drivers/STM32F4xx_StdPeriph_Driver/src/stm32f4xx_hash.c ****  [..] This section provides functions allowing to configure the DMA interface for 
 449:Drivers/STM32F4xx_StdPeriph_Driver/src/stm32f4xx_hash.c ****       HASH/ HMAC data input transfer.
 450:Drivers/STM32F4xx_StdPeriph_Driver/src/stm32f4xx_hash.c ****    
 451:Drivers/STM32F4xx_StdPeriph_Driver/src/stm32f4xx_hash.c ****  [..] When the DMA mode is enabled (using the HASH_DMACmd() function), data can be 
 452:Drivers/STM32F4xx_StdPeriph_Driver/src/stm32f4xx_hash.c ****       sent to the IN FIFO using the DMA peripheral.
 453:Drivers/STM32F4xx_StdPeriph_Driver/src/stm32f4xx_hash.c **** 
 454:Drivers/STM32F4xx_StdPeriph_Driver/src/stm32f4xx_hash.c **** @endverbatim
 455:Drivers/STM32F4xx_StdPeriph_Driver/src/stm32f4xx_hash.c ****   * @{
 456:Drivers/STM32F4xx_StdPeriph_Driver/src/stm32f4xx_hash.c ****   */
 457:Drivers/STM32F4xx_StdPeriph_Driver/src/stm32f4xx_hash.c **** 
 458:Drivers/STM32F4xx_StdPeriph_Driver/src/stm32f4xx_hash.c **** /**
 459:Drivers/STM32F4xx_StdPeriph_Driver/src/stm32f4xx_hash.c ****   * @brief  Enables or disables auto-start message padding and
 460:Drivers/STM32F4xx_StdPeriph_Driver/src/stm32f4xx_hash.c ****   *         calculation of the final message digest at the end of DMA transfer.
 461:Drivers/STM32F4xx_StdPeriph_Driver/src/stm32f4xx_hash.c ****   * @param  NewState: new state of the selected HASH DMA transfer request.
 462:Drivers/STM32F4xx_StdPeriph_Driver/src/stm32f4xx_hash.c ****   *          This parameter can be: ENABLE or DISABLE.
 463:Drivers/STM32F4xx_StdPeriph_Driver/src/stm32f4xx_hash.c ****   * @retval None
 464:Drivers/STM32F4xx_StdPeriph_Driver/src/stm32f4xx_hash.c ****   */
 465:Drivers/STM32F4xx_StdPeriph_Driver/src/stm32f4xx_hash.c **** void HASH_AutoStartDigest(FunctionalState NewState)
 466:Drivers/STM32F4xx_StdPeriph_Driver/src/stm32f4xx_hash.c **** {
 547              		.loc 1 466 1 is_stmt 1 view -0
 548              		.cfi_startproc
 549              		@ args = 0, pretend = 0, frame = 0
 550              		@ frame_needed = 0, uses_anonymous_args = 0
 551              		@ link register save eliminated.
 467:Drivers/STM32F4xx_StdPeriph_Driver/src/stm32f4xx_hash.c ****   /* Check the parameters */
 468:Drivers/STM32F4xx_StdPeriph_Driver/src/stm32f4xx_hash.c ****   assert_param(IS_FUNCTIONAL_STATE(NewState));
 552              		.loc 1 468 3 view .LVU140
 469:Drivers/STM32F4xx_StdPeriph_Driver/src/stm32f4xx_hash.c **** 
 470:Drivers/STM32F4xx_StdPeriph_Driver/src/stm32f4xx_hash.c ****   if (NewState != DISABLE)
 553              		.loc 1 470 3 view .LVU141
 554              		.loc 1 470 6 is_stmt 0 view .LVU142
 555 0000 28B1     		cbz	r0, .L39
 471:Drivers/STM32F4xx_StdPeriph_Driver/src/stm32f4xx_hash.c ****   {
 472:Drivers/STM32F4xx_StdPeriph_Driver/src/stm32f4xx_hash.c ****     /* Enable the auto start of the final message digest at the end of DMA transfer */
 473:Drivers/STM32F4xx_StdPeriph_Driver/src/stm32f4xx_hash.c ****     HASH->CR &= ~HASH_CR_MDMAT;
 556              		.loc 1 473 5 is_stmt 1 view .LVU143
 557              		.loc 1 473 14 is_stmt 0 view .LVU144
 558 0002 064A     		ldr	r2, .L41
ARM GAS  /tmp/ccyeojYU.s 			page 19


 559 0004 1368     		ldr	r3, [r2]
 560 0006 23F40053 		bic	r3, r3, #8192
 561 000a 1360     		str	r3, [r2]
 562 000c 7047     		bx	lr
 563              	.L39:
 474:Drivers/STM32F4xx_StdPeriph_Driver/src/stm32f4xx_hash.c ****   }
 475:Drivers/STM32F4xx_StdPeriph_Driver/src/stm32f4xx_hash.c ****   else
 476:Drivers/STM32F4xx_StdPeriph_Driver/src/stm32f4xx_hash.c ****   {
 477:Drivers/STM32F4xx_StdPeriph_Driver/src/stm32f4xx_hash.c ****     /* Disable the auto start of the final message digest at the end of DMA transfer */
 478:Drivers/STM32F4xx_StdPeriph_Driver/src/stm32f4xx_hash.c ****     HASH->CR |= HASH_CR_MDMAT;
 564              		.loc 1 478 5 is_stmt 1 view .LVU145
 565              		.loc 1 478 14 is_stmt 0 view .LVU146
 566 000e 034A     		ldr	r2, .L41
 567 0010 1368     		ldr	r3, [r2]
 568 0012 43F40053 		orr	r3, r3, #8192
 569 0016 1360     		str	r3, [r2]
 479:Drivers/STM32F4xx_StdPeriph_Driver/src/stm32f4xx_hash.c ****   }
 480:Drivers/STM32F4xx_StdPeriph_Driver/src/stm32f4xx_hash.c **** }
 570              		.loc 1 480 1 view .LVU147
 571 0018 7047     		bx	lr
 572              	.L42:
 573 001a 00BF     		.align	2
 574              	.L41:
 575 001c 00040650 		.word	1342571520
 576              		.cfi_endproc
 577              	.LFE134:
 579              		.section	.text.HASH_DMACmd,"ax",%progbits
 580              		.align	1
 581              		.global	HASH_DMACmd
 582              		.syntax unified
 583              		.thumb
 584              		.thumb_func
 586              	HASH_DMACmd:
 587              	.LVL18:
 588              	.LFB135:
 481:Drivers/STM32F4xx_StdPeriph_Driver/src/stm32f4xx_hash.c ****   
 482:Drivers/STM32F4xx_StdPeriph_Driver/src/stm32f4xx_hash.c **** /**
 483:Drivers/STM32F4xx_StdPeriph_Driver/src/stm32f4xx_hash.c ****   * @brief  Enables or disables the HASH DMA interface.
 484:Drivers/STM32F4xx_StdPeriph_Driver/src/stm32f4xx_hash.c ****   * @note   The DMA is disabled by hardware after the end of transfer.
 485:Drivers/STM32F4xx_StdPeriph_Driver/src/stm32f4xx_hash.c ****   * @param  NewState: new state of the selected HASH DMA transfer request.
 486:Drivers/STM32F4xx_StdPeriph_Driver/src/stm32f4xx_hash.c ****   *          This parameter can be: ENABLE or DISABLE.
 487:Drivers/STM32F4xx_StdPeriph_Driver/src/stm32f4xx_hash.c ****   * @retval None
 488:Drivers/STM32F4xx_StdPeriph_Driver/src/stm32f4xx_hash.c ****   */
 489:Drivers/STM32F4xx_StdPeriph_Driver/src/stm32f4xx_hash.c **** void HASH_DMACmd(FunctionalState NewState)
 490:Drivers/STM32F4xx_StdPeriph_Driver/src/stm32f4xx_hash.c **** {
 589              		.loc 1 490 1 is_stmt 1 view -0
 590              		.cfi_startproc
 591              		@ args = 0, pretend = 0, frame = 0
 592              		@ frame_needed = 0, uses_anonymous_args = 0
 593              		@ link register save eliminated.
 491:Drivers/STM32F4xx_StdPeriph_Driver/src/stm32f4xx_hash.c ****   /* Check the parameters */
 492:Drivers/STM32F4xx_StdPeriph_Driver/src/stm32f4xx_hash.c ****   assert_param(IS_FUNCTIONAL_STATE(NewState));
 594              		.loc 1 492 3 view .LVU149
 493:Drivers/STM32F4xx_StdPeriph_Driver/src/stm32f4xx_hash.c **** 
 494:Drivers/STM32F4xx_StdPeriph_Driver/src/stm32f4xx_hash.c ****   if (NewState != DISABLE)
 595              		.loc 1 494 3 view .LVU150
 596              		.loc 1 494 6 is_stmt 0 view .LVU151
ARM GAS  /tmp/ccyeojYU.s 			page 20


 597 0000 28B1     		cbz	r0, .L44
 495:Drivers/STM32F4xx_StdPeriph_Driver/src/stm32f4xx_hash.c ****   {
 496:Drivers/STM32F4xx_StdPeriph_Driver/src/stm32f4xx_hash.c ****     /* Enable the HASH DMA request */
 497:Drivers/STM32F4xx_StdPeriph_Driver/src/stm32f4xx_hash.c ****     HASH->CR |= HASH_CR_DMAE;
 598              		.loc 1 497 5 is_stmt 1 view .LVU152
 599              		.loc 1 497 14 is_stmt 0 view .LVU153
 600 0002 064A     		ldr	r2, .L46
 601 0004 1368     		ldr	r3, [r2]
 602 0006 43F00803 		orr	r3, r3, #8
 603 000a 1360     		str	r3, [r2]
 604 000c 7047     		bx	lr
 605              	.L44:
 498:Drivers/STM32F4xx_StdPeriph_Driver/src/stm32f4xx_hash.c ****   }
 499:Drivers/STM32F4xx_StdPeriph_Driver/src/stm32f4xx_hash.c ****   else
 500:Drivers/STM32F4xx_StdPeriph_Driver/src/stm32f4xx_hash.c ****   {
 501:Drivers/STM32F4xx_StdPeriph_Driver/src/stm32f4xx_hash.c ****     /* Disable the HASH DMA request */
 502:Drivers/STM32F4xx_StdPeriph_Driver/src/stm32f4xx_hash.c ****     HASH->CR &= ~HASH_CR_DMAE;
 606              		.loc 1 502 5 is_stmt 1 view .LVU154
 607              		.loc 1 502 14 is_stmt 0 view .LVU155
 608 000e 034A     		ldr	r2, .L46
 609 0010 1368     		ldr	r3, [r2]
 610 0012 23F00803 		bic	r3, r3, #8
 611 0016 1360     		str	r3, [r2]
 503:Drivers/STM32F4xx_StdPeriph_Driver/src/stm32f4xx_hash.c ****   }
 504:Drivers/STM32F4xx_StdPeriph_Driver/src/stm32f4xx_hash.c **** }
 612              		.loc 1 504 1 view .LVU156
 613 0018 7047     		bx	lr
 614              	.L47:
 615 001a 00BF     		.align	2
 616              	.L46:
 617 001c 00040650 		.word	1342571520
 618              		.cfi_endproc
 619              	.LFE135:
 621              		.section	.text.HASH_ITConfig,"ax",%progbits
 622              		.align	1
 623              		.global	HASH_ITConfig
 624              		.syntax unified
 625              		.thumb
 626              		.thumb_func
 628              	HASH_ITConfig:
 629              	.LVL19:
 630              	.LFB136:
 505:Drivers/STM32F4xx_StdPeriph_Driver/src/stm32f4xx_hash.c **** /**
 506:Drivers/STM32F4xx_StdPeriph_Driver/src/stm32f4xx_hash.c ****   * @}
 507:Drivers/STM32F4xx_StdPeriph_Driver/src/stm32f4xx_hash.c ****   */
 508:Drivers/STM32F4xx_StdPeriph_Driver/src/stm32f4xx_hash.c **** 
 509:Drivers/STM32F4xx_StdPeriph_Driver/src/stm32f4xx_hash.c **** /** @defgroup HASH_Group5 Interrupts and flags management functions
 510:Drivers/STM32F4xx_StdPeriph_Driver/src/stm32f4xx_hash.c ****  *  @brief   Interrupts and flags management functions
 511:Drivers/STM32F4xx_StdPeriph_Driver/src/stm32f4xx_hash.c ****  *
 512:Drivers/STM32F4xx_StdPeriph_Driver/src/stm32f4xx_hash.c **** @verbatim   
 513:Drivers/STM32F4xx_StdPeriph_Driver/src/stm32f4xx_hash.c ****  ===============================================================================
 514:Drivers/STM32F4xx_StdPeriph_Driver/src/stm32f4xx_hash.c ****                ##### Interrupts and flags management functions #####
 515:Drivers/STM32F4xx_StdPeriph_Driver/src/stm32f4xx_hash.c ****  ===============================================================================  
 516:Drivers/STM32F4xx_StdPeriph_Driver/src/stm32f4xx_hash.c **** 
 517:Drivers/STM32F4xx_StdPeriph_Driver/src/stm32f4xx_hash.c ****  [..] This section provides functions allowing to configure the HASH Interrupts and 
 518:Drivers/STM32F4xx_StdPeriph_Driver/src/stm32f4xx_hash.c ****       to get the status and clear flags and Interrupts pending bits.
 519:Drivers/STM32F4xx_StdPeriph_Driver/src/stm32f4xx_hash.c ****   
ARM GAS  /tmp/ccyeojYU.s 			page 21


 520:Drivers/STM32F4xx_StdPeriph_Driver/src/stm32f4xx_hash.c ****  [..] The HASH provides 2 Interrupts sources and 5 Flags:
 521:Drivers/STM32F4xx_StdPeriph_Driver/src/stm32f4xx_hash.c ****   
 522:Drivers/STM32F4xx_StdPeriph_Driver/src/stm32f4xx_hash.c ****  *** Flags : ***
 523:Drivers/STM32F4xx_StdPeriph_Driver/src/stm32f4xx_hash.c ****  =============== 
 524:Drivers/STM32F4xx_StdPeriph_Driver/src/stm32f4xx_hash.c ****  [..]
 525:Drivers/STM32F4xx_StdPeriph_Driver/src/stm32f4xx_hash.c ****    (#) HASH_FLAG_DINIS : set when 16 locations are free in the Data IN FIFO 
 526:Drivers/STM32F4xx_StdPeriph_Driver/src/stm32f4xx_hash.c ****       which means that a  new block (512 bit) can be entered into the input buffer.
 527:Drivers/STM32F4xx_StdPeriph_Driver/src/stm32f4xx_hash.c ****                           
 528:Drivers/STM32F4xx_StdPeriph_Driver/src/stm32f4xx_hash.c ****    (#) HASH_FLAG_DCIS :  set when Digest calculation is complete
 529:Drivers/STM32F4xx_StdPeriph_Driver/src/stm32f4xx_hash.c ****       
 530:Drivers/STM32F4xx_StdPeriph_Driver/src/stm32f4xx_hash.c ****    (#) HASH_FLAG_DMAS :  set when HASH's DMA interface is enabled (DMAE=1) or 
 531:Drivers/STM32F4xx_StdPeriph_Driver/src/stm32f4xx_hash.c ****        a transfer is ongoing. This Flag is cleared only by hardware.
 532:Drivers/STM32F4xx_StdPeriph_Driver/src/stm32f4xx_hash.c ****                            
 533:Drivers/STM32F4xx_StdPeriph_Driver/src/stm32f4xx_hash.c ****    (#) HASH_FLAG_BUSY :  set when The hash core is processing a block of data
 534:Drivers/STM32F4xx_StdPeriph_Driver/src/stm32f4xx_hash.c ****        This Flag is cleared only by hardware. 
 535:Drivers/STM32F4xx_StdPeriph_Driver/src/stm32f4xx_hash.c ****                            
 536:Drivers/STM32F4xx_StdPeriph_Driver/src/stm32f4xx_hash.c ****    (#) HASH_FLAG_DINNE : set when Data IN FIFO is not empty which means that 
 537:Drivers/STM32F4xx_StdPeriph_Driver/src/stm32f4xx_hash.c ****        the Data IN FIFO contains at least one word of data. This Flag is cleared 
 538:Drivers/STM32F4xx_StdPeriph_Driver/src/stm32f4xx_hash.c ****        only by hardware.
 539:Drivers/STM32F4xx_StdPeriph_Driver/src/stm32f4xx_hash.c ****      
 540:Drivers/STM32F4xx_StdPeriph_Driver/src/stm32f4xx_hash.c ****  *** Interrupts : ***
 541:Drivers/STM32F4xx_StdPeriph_Driver/src/stm32f4xx_hash.c ****  ====================
 542:Drivers/STM32F4xx_StdPeriph_Driver/src/stm32f4xx_hash.c ****  [..]   
 543:Drivers/STM32F4xx_StdPeriph_Driver/src/stm32f4xx_hash.c ****    (#) HASH_IT_DINI  : if enabled, this interrupt source is pending when 16 
 544:Drivers/STM32F4xx_StdPeriph_Driver/src/stm32f4xx_hash.c ****        locations are free in the Data IN FIFO  which means that a new block (512 bit)
 545:Drivers/STM32F4xx_StdPeriph_Driver/src/stm32f4xx_hash.c ****        can be entered into the input buffer. This interrupt source is cleared using 
 546:Drivers/STM32F4xx_StdPeriph_Driver/src/stm32f4xx_hash.c ****        HASH_ClearITPendingBit(HASH_IT_DINI) function.
 547:Drivers/STM32F4xx_StdPeriph_Driver/src/stm32f4xx_hash.c ****    
 548:Drivers/STM32F4xx_StdPeriph_Driver/src/stm32f4xx_hash.c ****    (#) HASH_IT_DCI   : if enabled, this interrupt source is pending when Digest 
 549:Drivers/STM32F4xx_StdPeriph_Driver/src/stm32f4xx_hash.c ****        calculation is complete. This interrupt source is cleared using 
 550:Drivers/STM32F4xx_StdPeriph_Driver/src/stm32f4xx_hash.c ****        HASH_ClearITPendingBit(HASH_IT_DCI) function.
 551:Drivers/STM32F4xx_StdPeriph_Driver/src/stm32f4xx_hash.c **** 
 552:Drivers/STM32F4xx_StdPeriph_Driver/src/stm32f4xx_hash.c ****  *** Managing the HASH controller events : ***
 553:Drivers/STM32F4xx_StdPeriph_Driver/src/stm32f4xx_hash.c ****  =============================================
 554:Drivers/STM32F4xx_StdPeriph_Driver/src/stm32f4xx_hash.c ****  [..] The user should identify which mode will be used in his application to manage 
 555:Drivers/STM32F4xx_StdPeriph_Driver/src/stm32f4xx_hash.c ****       the HASH controller events: Polling mode or Interrupt mode.
 556:Drivers/STM32F4xx_StdPeriph_Driver/src/stm32f4xx_hash.c ****   
 557:Drivers/STM32F4xx_StdPeriph_Driver/src/stm32f4xx_hash.c ****    (#) In the Polling Mode it is advised to use the following functions:
 558:Drivers/STM32F4xx_StdPeriph_Driver/src/stm32f4xx_hash.c ****        (++) HASH_GetFlagStatus() : to check if flags events occur. 
 559:Drivers/STM32F4xx_StdPeriph_Driver/src/stm32f4xx_hash.c ****        (++) HASH_ClearFlag()     : to clear the flags events.
 560:Drivers/STM32F4xx_StdPeriph_Driver/src/stm32f4xx_hash.c ****     
 561:Drivers/STM32F4xx_StdPeriph_Driver/src/stm32f4xx_hash.c ****    (#)  In the Interrupt Mode it is advised to use the following functions:
 562:Drivers/STM32F4xx_StdPeriph_Driver/src/stm32f4xx_hash.c ****        (++) HASH_ITConfig()       : to enable or disable the interrupt source.
 563:Drivers/STM32F4xx_StdPeriph_Driver/src/stm32f4xx_hash.c ****        (++) HASH_GetITStatus()    : to check if Interrupt occurs.
 564:Drivers/STM32F4xx_StdPeriph_Driver/src/stm32f4xx_hash.c ****        (++) HASH_ClearITPendingBit() : to clear the Interrupt pending Bit 
 565:Drivers/STM32F4xx_StdPeriph_Driver/src/stm32f4xx_hash.c ****             (corresponding Flag). 
 566:Drivers/STM32F4xx_StdPeriph_Driver/src/stm32f4xx_hash.c **** 
 567:Drivers/STM32F4xx_StdPeriph_Driver/src/stm32f4xx_hash.c **** @endverbatim
 568:Drivers/STM32F4xx_StdPeriph_Driver/src/stm32f4xx_hash.c ****   * @{
 569:Drivers/STM32F4xx_StdPeriph_Driver/src/stm32f4xx_hash.c ****   */ 
 570:Drivers/STM32F4xx_StdPeriph_Driver/src/stm32f4xx_hash.c ****   
 571:Drivers/STM32F4xx_StdPeriph_Driver/src/stm32f4xx_hash.c **** /**
 572:Drivers/STM32F4xx_StdPeriph_Driver/src/stm32f4xx_hash.c ****   * @brief  Enables or disables the specified HASH interrupts.
 573:Drivers/STM32F4xx_StdPeriph_Driver/src/stm32f4xx_hash.c ****   * @param  HASH_IT: specifies the HASH interrupt source to be enabled or disabled.
 574:Drivers/STM32F4xx_StdPeriph_Driver/src/stm32f4xx_hash.c ****   *          This parameter can be any combination of the following values:
 575:Drivers/STM32F4xx_StdPeriph_Driver/src/stm32f4xx_hash.c ****   *            @arg HASH_IT_DINI: Data Input interrupt
 576:Drivers/STM32F4xx_StdPeriph_Driver/src/stm32f4xx_hash.c ****   *            @arg HASH_IT_DCI: Digest Calculation Completion Interrupt
ARM GAS  /tmp/ccyeojYU.s 			page 22


 577:Drivers/STM32F4xx_StdPeriph_Driver/src/stm32f4xx_hash.c ****   * @param  NewState: new state of the specified HASH interrupt.
 578:Drivers/STM32F4xx_StdPeriph_Driver/src/stm32f4xx_hash.c ****   *           This parameter can be: ENABLE or DISABLE.
 579:Drivers/STM32F4xx_StdPeriph_Driver/src/stm32f4xx_hash.c ****   * @retval None
 580:Drivers/STM32F4xx_StdPeriph_Driver/src/stm32f4xx_hash.c ****   */
 581:Drivers/STM32F4xx_StdPeriph_Driver/src/stm32f4xx_hash.c **** void HASH_ITConfig(uint32_t HASH_IT, FunctionalState NewState)
 582:Drivers/STM32F4xx_StdPeriph_Driver/src/stm32f4xx_hash.c **** {
 631              		.loc 1 582 1 is_stmt 1 view -0
 632              		.cfi_startproc
 633              		@ args = 0, pretend = 0, frame = 0
 634              		@ frame_needed = 0, uses_anonymous_args = 0
 635              		@ link register save eliminated.
 583:Drivers/STM32F4xx_StdPeriph_Driver/src/stm32f4xx_hash.c ****   /* Check the parameters */
 584:Drivers/STM32F4xx_StdPeriph_Driver/src/stm32f4xx_hash.c ****   assert_param(IS_HASH_IT(HASH_IT));
 636              		.loc 1 584 3 view .LVU158
 585:Drivers/STM32F4xx_StdPeriph_Driver/src/stm32f4xx_hash.c ****   assert_param(IS_FUNCTIONAL_STATE(NewState));
 637              		.loc 1 585 3 view .LVU159
 586:Drivers/STM32F4xx_StdPeriph_Driver/src/stm32f4xx_hash.c **** 
 587:Drivers/STM32F4xx_StdPeriph_Driver/src/stm32f4xx_hash.c ****   if (NewState != DISABLE)
 638              		.loc 1 587 3 view .LVU160
 639              		.loc 1 587 6 is_stmt 0 view .LVU161
 640 0000 21B1     		cbz	r1, .L49
 588:Drivers/STM32F4xx_StdPeriph_Driver/src/stm32f4xx_hash.c ****   {
 589:Drivers/STM32F4xx_StdPeriph_Driver/src/stm32f4xx_hash.c ****     /* Enable the selected HASH interrupt */
 590:Drivers/STM32F4xx_StdPeriph_Driver/src/stm32f4xx_hash.c ****     HASH->IMR |= HASH_IT;
 641              		.loc 1 590 5 is_stmt 1 view .LVU162
 642              		.loc 1 590 15 is_stmt 0 view .LVU163
 643 0002 054A     		ldr	r2, .L51
 644 0004 136A     		ldr	r3, [r2, #32]
 645 0006 1843     		orrs	r0, r0, r3
 646              	.LVL20:
 647              		.loc 1 590 15 view .LVU164
 648 0008 1062     		str	r0, [r2, #32]
 649 000a 7047     		bx	lr
 650              	.LVL21:
 651              	.L49:
 591:Drivers/STM32F4xx_StdPeriph_Driver/src/stm32f4xx_hash.c ****   }
 592:Drivers/STM32F4xx_StdPeriph_Driver/src/stm32f4xx_hash.c ****   else
 593:Drivers/STM32F4xx_StdPeriph_Driver/src/stm32f4xx_hash.c ****   {
 594:Drivers/STM32F4xx_StdPeriph_Driver/src/stm32f4xx_hash.c ****     /* Disable the selected HASH interrupt */
 595:Drivers/STM32F4xx_StdPeriph_Driver/src/stm32f4xx_hash.c ****     HASH->IMR &= (uint32_t)(~HASH_IT);
 652              		.loc 1 595 5 is_stmt 1 view .LVU165
 653              		.loc 1 595 15 is_stmt 0 view .LVU166
 654 000c 024A     		ldr	r2, .L51
 655 000e 136A     		ldr	r3, [r2, #32]
 656 0010 23EA0000 		bic	r0, r3, r0
 657              	.LVL22:
 658              		.loc 1 595 15 view .LVU167
 659 0014 1062     		str	r0, [r2, #32]
 596:Drivers/STM32F4xx_StdPeriph_Driver/src/stm32f4xx_hash.c ****   }
 597:Drivers/STM32F4xx_StdPeriph_Driver/src/stm32f4xx_hash.c **** }
 660              		.loc 1 597 1 view .LVU168
 661 0016 7047     		bx	lr
 662              	.L52:
 663              		.align	2
 664              	.L51:
 665 0018 00040650 		.word	1342571520
 666              		.cfi_endproc
ARM GAS  /tmp/ccyeojYU.s 			page 23


 667              	.LFE136:
 669              		.section	.text.HASH_GetFlagStatus,"ax",%progbits
 670              		.align	1
 671              		.global	HASH_GetFlagStatus
 672              		.syntax unified
 673              		.thumb
 674              		.thumb_func
 676              	HASH_GetFlagStatus:
 677              	.LVL23:
 678              	.LFB137:
 598:Drivers/STM32F4xx_StdPeriph_Driver/src/stm32f4xx_hash.c **** 
 599:Drivers/STM32F4xx_StdPeriph_Driver/src/stm32f4xx_hash.c **** /**
 600:Drivers/STM32F4xx_StdPeriph_Driver/src/stm32f4xx_hash.c ****   * @brief  Checks whether the specified HASH flag is set or not.
 601:Drivers/STM32F4xx_StdPeriph_Driver/src/stm32f4xx_hash.c ****   * @param  HASH_FLAG: specifies the HASH flag to check.
 602:Drivers/STM32F4xx_StdPeriph_Driver/src/stm32f4xx_hash.c ****   *          This parameter can be one of the following values:
 603:Drivers/STM32F4xx_StdPeriph_Driver/src/stm32f4xx_hash.c ****   *            @arg HASH_FLAG_DINIS: Data input interrupt status flag
 604:Drivers/STM32F4xx_StdPeriph_Driver/src/stm32f4xx_hash.c ****   *            @arg HASH_FLAG_DCIS: Digest calculation completion interrupt status flag
 605:Drivers/STM32F4xx_StdPeriph_Driver/src/stm32f4xx_hash.c ****   *            @arg HASH_FLAG_BUSY: Busy flag
 606:Drivers/STM32F4xx_StdPeriph_Driver/src/stm32f4xx_hash.c ****   *            @arg HASH_FLAG_DMAS: DMAS Status flag
 607:Drivers/STM32F4xx_StdPeriph_Driver/src/stm32f4xx_hash.c ****   *            @arg HASH_FLAG_DINNE: Data Input register (DIN) not empty status flag
 608:Drivers/STM32F4xx_StdPeriph_Driver/src/stm32f4xx_hash.c ****   * @retval The new state of HASH_FLAG (SET or RESET)
 609:Drivers/STM32F4xx_StdPeriph_Driver/src/stm32f4xx_hash.c ****   */
 610:Drivers/STM32F4xx_StdPeriph_Driver/src/stm32f4xx_hash.c **** FlagStatus HASH_GetFlagStatus(uint32_t HASH_FLAG)
 611:Drivers/STM32F4xx_StdPeriph_Driver/src/stm32f4xx_hash.c **** {
 679              		.loc 1 611 1 is_stmt 1 view -0
 680              		.cfi_startproc
 681              		@ args = 0, pretend = 0, frame = 0
 682              		@ frame_needed = 0, uses_anonymous_args = 0
 683              		@ link register save eliminated.
 612:Drivers/STM32F4xx_StdPeriph_Driver/src/stm32f4xx_hash.c ****   FlagStatus bitstatus = RESET;
 684              		.loc 1 612 3 view .LVU170
 613:Drivers/STM32F4xx_StdPeriph_Driver/src/stm32f4xx_hash.c ****   uint32_t tempreg = 0;
 685              		.loc 1 613 3 view .LVU171
 614:Drivers/STM32F4xx_StdPeriph_Driver/src/stm32f4xx_hash.c **** 
 615:Drivers/STM32F4xx_StdPeriph_Driver/src/stm32f4xx_hash.c ****   /* Check the parameters */
 616:Drivers/STM32F4xx_StdPeriph_Driver/src/stm32f4xx_hash.c ****   assert_param(IS_HASH_GET_FLAG(HASH_FLAG));
 686              		.loc 1 616 3 view .LVU172
 617:Drivers/STM32F4xx_StdPeriph_Driver/src/stm32f4xx_hash.c **** 
 618:Drivers/STM32F4xx_StdPeriph_Driver/src/stm32f4xx_hash.c ****   /* check if the FLAG is in CR register */
 619:Drivers/STM32F4xx_StdPeriph_Driver/src/stm32f4xx_hash.c ****   if ((HASH_FLAG & HASH_FLAG_DINNE) != (uint32_t)RESET ) 
 687              		.loc 1 619 3 view .LVU173
 688              		.loc 1 619 6 is_stmt 0 view .LVU174
 689 0000 10F4805F 		tst	r0, #4096
 690 0004 05D0     		beq	.L54
 620:Drivers/STM32F4xx_StdPeriph_Driver/src/stm32f4xx_hash.c ****   {
 621:Drivers/STM32F4xx_StdPeriph_Driver/src/stm32f4xx_hash.c ****     tempreg = HASH->CR;
 691              		.loc 1 621 5 is_stmt 1 view .LVU175
 692              		.loc 1 621 13 is_stmt 0 view .LVU176
 693 0006 054B     		ldr	r3, .L58
 694 0008 1B68     		ldr	r3, [r3]
 695              	.LVL24:
 696              	.L55:
 622:Drivers/STM32F4xx_StdPeriph_Driver/src/stm32f4xx_hash.c ****   }
 623:Drivers/STM32F4xx_StdPeriph_Driver/src/stm32f4xx_hash.c ****   else /* The FLAG is in SR register */
 624:Drivers/STM32F4xx_StdPeriph_Driver/src/stm32f4xx_hash.c ****   {
 625:Drivers/STM32F4xx_StdPeriph_Driver/src/stm32f4xx_hash.c ****     tempreg = HASH->SR;
 626:Drivers/STM32F4xx_StdPeriph_Driver/src/stm32f4xx_hash.c ****   }
ARM GAS  /tmp/ccyeojYU.s 			page 24


 627:Drivers/STM32F4xx_StdPeriph_Driver/src/stm32f4xx_hash.c **** 
 628:Drivers/STM32F4xx_StdPeriph_Driver/src/stm32f4xx_hash.c ****   /* Check the status of the specified HASH flag */
 629:Drivers/STM32F4xx_StdPeriph_Driver/src/stm32f4xx_hash.c ****   if ((tempreg & HASH_FLAG) != (uint32_t)RESET)
 697              		.loc 1 629 3 is_stmt 1 view .LVU177
 698              		.loc 1 629 6 is_stmt 0 view .LVU178
 699 000a 0342     		tst	r3, r0
 700 000c 04D0     		beq	.L57
 630:Drivers/STM32F4xx_StdPeriph_Driver/src/stm32f4xx_hash.c ****   {
 631:Drivers/STM32F4xx_StdPeriph_Driver/src/stm32f4xx_hash.c ****     /* HASH is set */
 632:Drivers/STM32F4xx_StdPeriph_Driver/src/stm32f4xx_hash.c ****     bitstatus = SET;
 701              		.loc 1 632 15 view .LVU179
 702 000e 0120     		movs	r0, #1
 703              	.LVL25:
 704              		.loc 1 632 15 view .LVU180
 705 0010 7047     		bx	lr
 706              	.LVL26:
 707              	.L54:
 625:Drivers/STM32F4xx_StdPeriph_Driver/src/stm32f4xx_hash.c ****   }
 708              		.loc 1 625 5 is_stmt 1 view .LVU181
 625:Drivers/STM32F4xx_StdPeriph_Driver/src/stm32f4xx_hash.c ****   }
 709              		.loc 1 625 13 is_stmt 0 view .LVU182
 710 0012 024B     		ldr	r3, .L58
 711 0014 5B6A     		ldr	r3, [r3, #36]
 712              	.LVL27:
 625:Drivers/STM32F4xx_StdPeriph_Driver/src/stm32f4xx_hash.c ****   }
 713              		.loc 1 625 13 view .LVU183
 714 0016 F8E7     		b	.L55
 715              	.L57:
 633:Drivers/STM32F4xx_StdPeriph_Driver/src/stm32f4xx_hash.c ****   }
 634:Drivers/STM32F4xx_StdPeriph_Driver/src/stm32f4xx_hash.c ****   else
 635:Drivers/STM32F4xx_StdPeriph_Driver/src/stm32f4xx_hash.c ****   {
 636:Drivers/STM32F4xx_StdPeriph_Driver/src/stm32f4xx_hash.c ****     /* HASH_FLAG is reset */
 637:Drivers/STM32F4xx_StdPeriph_Driver/src/stm32f4xx_hash.c ****     bitstatus = RESET;
 716              		.loc 1 637 15 view .LVU184
 717 0018 0020     		movs	r0, #0
 718              	.LVL28:
 638:Drivers/STM32F4xx_StdPeriph_Driver/src/stm32f4xx_hash.c ****   }
 639:Drivers/STM32F4xx_StdPeriph_Driver/src/stm32f4xx_hash.c **** 
 640:Drivers/STM32F4xx_StdPeriph_Driver/src/stm32f4xx_hash.c ****   /* Return the HASH_FLAG status */
 641:Drivers/STM32F4xx_StdPeriph_Driver/src/stm32f4xx_hash.c ****   return  bitstatus;
 719              		.loc 1 641 3 is_stmt 1 view .LVU185
 642:Drivers/STM32F4xx_StdPeriph_Driver/src/stm32f4xx_hash.c **** }
 720              		.loc 1 642 1 is_stmt 0 view .LVU186
 721 001a 7047     		bx	lr
 722              	.L59:
 723              		.align	2
 724              	.L58:
 725 001c 00040650 		.word	1342571520
 726              		.cfi_endproc
 727              	.LFE137:
 729              		.section	.text.HASH_ClearFlag,"ax",%progbits
 730              		.align	1
 731              		.global	HASH_ClearFlag
 732              		.syntax unified
 733              		.thumb
 734              		.thumb_func
 736              	HASH_ClearFlag:
ARM GAS  /tmp/ccyeojYU.s 			page 25


 737              	.LVL29:
 738              	.LFB138:
 643:Drivers/STM32F4xx_StdPeriph_Driver/src/stm32f4xx_hash.c **** /**
 644:Drivers/STM32F4xx_StdPeriph_Driver/src/stm32f4xx_hash.c ****   * @brief  Clears the HASH flags.
 645:Drivers/STM32F4xx_StdPeriph_Driver/src/stm32f4xx_hash.c ****   * @param  HASH_FLAG: specifies the flag to clear. 
 646:Drivers/STM32F4xx_StdPeriph_Driver/src/stm32f4xx_hash.c ****   *          This parameter can be any combination of the following values:
 647:Drivers/STM32F4xx_StdPeriph_Driver/src/stm32f4xx_hash.c ****   *            @arg HASH_FLAG_DINIS: Data Input Flag
 648:Drivers/STM32F4xx_StdPeriph_Driver/src/stm32f4xx_hash.c ****   *            @arg HASH_FLAG_DCIS: Digest Calculation Completion Flag                       
 649:Drivers/STM32F4xx_StdPeriph_Driver/src/stm32f4xx_hash.c ****   * @retval None
 650:Drivers/STM32F4xx_StdPeriph_Driver/src/stm32f4xx_hash.c ****   */
 651:Drivers/STM32F4xx_StdPeriph_Driver/src/stm32f4xx_hash.c **** void HASH_ClearFlag(uint32_t HASH_FLAG)
 652:Drivers/STM32F4xx_StdPeriph_Driver/src/stm32f4xx_hash.c **** {
 739              		.loc 1 652 1 is_stmt 1 view -0
 740              		.cfi_startproc
 741              		@ args = 0, pretend = 0, frame = 0
 742              		@ frame_needed = 0, uses_anonymous_args = 0
 743              		@ link register save eliminated.
 653:Drivers/STM32F4xx_StdPeriph_Driver/src/stm32f4xx_hash.c ****   /* Check the parameters */
 654:Drivers/STM32F4xx_StdPeriph_Driver/src/stm32f4xx_hash.c ****   assert_param(IS_HASH_CLEAR_FLAG(HASH_FLAG));
 744              		.loc 1 654 3 view .LVU188
 655:Drivers/STM32F4xx_StdPeriph_Driver/src/stm32f4xx_hash.c ****   
 656:Drivers/STM32F4xx_StdPeriph_Driver/src/stm32f4xx_hash.c ****   /* Clear the selected HASH flags */
 657:Drivers/STM32F4xx_StdPeriph_Driver/src/stm32f4xx_hash.c ****   HASH->SR = ~(uint32_t)HASH_FLAG;
 745              		.loc 1 657 3 view .LVU189
 746              		.loc 1 657 14 is_stmt 0 view .LVU190
 747 0000 C043     		mvns	r0, r0
 748              	.LVL30:
 749              		.loc 1 657 12 view .LVU191
 750 0002 014B     		ldr	r3, .L61
 751 0004 5862     		str	r0, [r3, #36]
 658:Drivers/STM32F4xx_StdPeriph_Driver/src/stm32f4xx_hash.c **** }
 752              		.loc 1 658 1 view .LVU192
 753 0006 7047     		bx	lr
 754              	.L62:
 755              		.align	2
 756              	.L61:
 757 0008 00040650 		.word	1342571520
 758              		.cfi_endproc
 759              	.LFE138:
 761              		.section	.text.HASH_GetITStatus,"ax",%progbits
 762              		.align	1
 763              		.global	HASH_GetITStatus
 764              		.syntax unified
 765              		.thumb
 766              		.thumb_func
 768              	HASH_GetITStatus:
 769              	.LVL31:
 770              	.LFB139:
 659:Drivers/STM32F4xx_StdPeriph_Driver/src/stm32f4xx_hash.c **** /**
 660:Drivers/STM32F4xx_StdPeriph_Driver/src/stm32f4xx_hash.c ****   * @brief  Checks whether the specified HASH interrupt has occurred or not.
 661:Drivers/STM32F4xx_StdPeriph_Driver/src/stm32f4xx_hash.c ****   * @param  HASH_IT: specifies the HASH interrupt source to check.
 662:Drivers/STM32F4xx_StdPeriph_Driver/src/stm32f4xx_hash.c ****   *          This parameter can be one of the following values:
 663:Drivers/STM32F4xx_StdPeriph_Driver/src/stm32f4xx_hash.c ****   *            @arg HASH_IT_DINI: Data Input interrupt
 664:Drivers/STM32F4xx_StdPeriph_Driver/src/stm32f4xx_hash.c ****   *            @arg HASH_IT_DCI: Digest Calculation Completion Interrupt
 665:Drivers/STM32F4xx_StdPeriph_Driver/src/stm32f4xx_hash.c ****   * @retval The new state of HASH_IT (SET or RESET).
 666:Drivers/STM32F4xx_StdPeriph_Driver/src/stm32f4xx_hash.c ****   */
 667:Drivers/STM32F4xx_StdPeriph_Driver/src/stm32f4xx_hash.c **** ITStatus HASH_GetITStatus(uint32_t HASH_IT)
ARM GAS  /tmp/ccyeojYU.s 			page 26


 668:Drivers/STM32F4xx_StdPeriph_Driver/src/stm32f4xx_hash.c **** {
 771              		.loc 1 668 1 is_stmt 1 view -0
 772              		.cfi_startproc
 773              		@ args = 0, pretend = 0, frame = 0
 774              		@ frame_needed = 0, uses_anonymous_args = 0
 775              		@ link register save eliminated.
 669:Drivers/STM32F4xx_StdPeriph_Driver/src/stm32f4xx_hash.c ****   ITStatus bitstatus = RESET;
 776              		.loc 1 669 3 view .LVU194
 670:Drivers/STM32F4xx_StdPeriph_Driver/src/stm32f4xx_hash.c ****   uint32_t tmpreg = 0;
 777              		.loc 1 670 3 view .LVU195
 671:Drivers/STM32F4xx_StdPeriph_Driver/src/stm32f4xx_hash.c **** 
 672:Drivers/STM32F4xx_StdPeriph_Driver/src/stm32f4xx_hash.c ****   /* Check the parameters */
 673:Drivers/STM32F4xx_StdPeriph_Driver/src/stm32f4xx_hash.c ****   assert_param(IS_HASH_GET_IT(HASH_IT));  
 778              		.loc 1 673 3 view .LVU196
 674:Drivers/STM32F4xx_StdPeriph_Driver/src/stm32f4xx_hash.c **** 
 675:Drivers/STM32F4xx_StdPeriph_Driver/src/stm32f4xx_hash.c **** 
 676:Drivers/STM32F4xx_StdPeriph_Driver/src/stm32f4xx_hash.c ****   /* Check the status of the specified HASH interrupt */
 677:Drivers/STM32F4xx_StdPeriph_Driver/src/stm32f4xx_hash.c ****   tmpreg =  HASH->SR;
 779              		.loc 1 677 3 view .LVU197
 780              		.loc 1 677 10 is_stmt 0 view .LVU198
 781 0000 044A     		ldr	r2, .L66
 782 0002 516A     		ldr	r1, [r2, #36]
 783              	.LVL32:
 678:Drivers/STM32F4xx_StdPeriph_Driver/src/stm32f4xx_hash.c **** 
 679:Drivers/STM32F4xx_StdPeriph_Driver/src/stm32f4xx_hash.c ****   if (((HASH->IMR & tmpreg) & HASH_IT) != RESET)
 784              		.loc 1 679 3 is_stmt 1 view .LVU199
 785              		.loc 1 679 13 is_stmt 0 view .LVU200
 786 0004 136A     		ldr	r3, [r2, #32]
 787              		.loc 1 679 19 view .LVU201
 788 0006 0B40     		ands	r3, r3, r1
 789              		.loc 1 679 6 view .LVU202
 790 0008 0342     		tst	r3, r0
 791 000a 01D0     		beq	.L65
 680:Drivers/STM32F4xx_StdPeriph_Driver/src/stm32f4xx_hash.c ****   {
 681:Drivers/STM32F4xx_StdPeriph_Driver/src/stm32f4xx_hash.c ****     /* HASH_IT is set */
 682:Drivers/STM32F4xx_StdPeriph_Driver/src/stm32f4xx_hash.c ****     bitstatus = SET;
 792              		.loc 1 682 15 view .LVU203
 793 000c 0120     		movs	r0, #1
 794              	.LVL33:
 795              		.loc 1 682 15 view .LVU204
 796 000e 7047     		bx	lr
 797              	.LVL34:
 798              	.L65:
 683:Drivers/STM32F4xx_StdPeriph_Driver/src/stm32f4xx_hash.c ****   }
 684:Drivers/STM32F4xx_StdPeriph_Driver/src/stm32f4xx_hash.c ****   else
 685:Drivers/STM32F4xx_StdPeriph_Driver/src/stm32f4xx_hash.c ****   {
 686:Drivers/STM32F4xx_StdPeriph_Driver/src/stm32f4xx_hash.c ****     /* HASH_IT is reset */
 687:Drivers/STM32F4xx_StdPeriph_Driver/src/stm32f4xx_hash.c ****     bitstatus = RESET;
 799              		.loc 1 687 15 view .LVU205
 800 0010 0020     		movs	r0, #0
 801              	.LVL35:
 688:Drivers/STM32F4xx_StdPeriph_Driver/src/stm32f4xx_hash.c ****   }
 689:Drivers/STM32F4xx_StdPeriph_Driver/src/stm32f4xx_hash.c ****   /* Return the HASH_IT status */
 690:Drivers/STM32F4xx_StdPeriph_Driver/src/stm32f4xx_hash.c ****   return bitstatus;
 802              		.loc 1 690 3 is_stmt 1 view .LVU206
 691:Drivers/STM32F4xx_StdPeriph_Driver/src/stm32f4xx_hash.c **** }
 803              		.loc 1 691 1 is_stmt 0 view .LVU207
ARM GAS  /tmp/ccyeojYU.s 			page 27


 804 0012 7047     		bx	lr
 805              	.L67:
 806              		.align	2
 807              	.L66:
 808 0014 00040650 		.word	1342571520
 809              		.cfi_endproc
 810              	.LFE139:
 812              		.section	.text.HASH_ClearITPendingBit,"ax",%progbits
 813              		.align	1
 814              		.global	HASH_ClearITPendingBit
 815              		.syntax unified
 816              		.thumb
 817              		.thumb_func
 819              	HASH_ClearITPendingBit:
 820              	.LVL36:
 821              	.LFB140:
 692:Drivers/STM32F4xx_StdPeriph_Driver/src/stm32f4xx_hash.c **** 
 693:Drivers/STM32F4xx_StdPeriph_Driver/src/stm32f4xx_hash.c **** /**
 694:Drivers/STM32F4xx_StdPeriph_Driver/src/stm32f4xx_hash.c ****   * @brief  Clears the HASH interrupt pending bit(s).
 695:Drivers/STM32F4xx_StdPeriph_Driver/src/stm32f4xx_hash.c ****   * @param  HASH_IT: specifies the HASH interrupt pending bit(s) to clear.
 696:Drivers/STM32F4xx_StdPeriph_Driver/src/stm32f4xx_hash.c ****   *          This parameter can be any combination of the following values:
 697:Drivers/STM32F4xx_StdPeriph_Driver/src/stm32f4xx_hash.c ****   *            @arg HASH_IT_DINI: Data Input interrupt
 698:Drivers/STM32F4xx_StdPeriph_Driver/src/stm32f4xx_hash.c ****   *            @arg HASH_IT_DCI: Digest Calculation Completion Interrupt
 699:Drivers/STM32F4xx_StdPeriph_Driver/src/stm32f4xx_hash.c ****   * @retval None
 700:Drivers/STM32F4xx_StdPeriph_Driver/src/stm32f4xx_hash.c ****   */
 701:Drivers/STM32F4xx_StdPeriph_Driver/src/stm32f4xx_hash.c **** void HASH_ClearITPendingBit(uint32_t HASH_IT)
 702:Drivers/STM32F4xx_StdPeriph_Driver/src/stm32f4xx_hash.c **** {
 822              		.loc 1 702 1 is_stmt 1 view -0
 823              		.cfi_startproc
 824              		@ args = 0, pretend = 0, frame = 0
 825              		@ frame_needed = 0, uses_anonymous_args = 0
 826              		@ link register save eliminated.
 703:Drivers/STM32F4xx_StdPeriph_Driver/src/stm32f4xx_hash.c ****   /* Check the parameters */
 704:Drivers/STM32F4xx_StdPeriph_Driver/src/stm32f4xx_hash.c ****   assert_param(IS_HASH_IT(HASH_IT));
 827              		.loc 1 704 3 view .LVU209
 705:Drivers/STM32F4xx_StdPeriph_Driver/src/stm32f4xx_hash.c **** 
 706:Drivers/STM32F4xx_StdPeriph_Driver/src/stm32f4xx_hash.c ****   /* Clear the selected HASH interrupt pending bit */
 707:Drivers/STM32F4xx_StdPeriph_Driver/src/stm32f4xx_hash.c ****   HASH->SR = (uint32_t)(~HASH_IT);
 828              		.loc 1 707 3 view .LVU210
 829              		.loc 1 707 25 is_stmt 0 view .LVU211
 830 0000 C043     		mvns	r0, r0
 831              	.LVL37:
 832              		.loc 1 707 12 view .LVU212
 833 0002 014B     		ldr	r3, .L69
 834 0004 5862     		str	r0, [r3, #36]
 708:Drivers/STM32F4xx_StdPeriph_Driver/src/stm32f4xx_hash.c **** }
 835              		.loc 1 708 1 view .LVU213
 836 0006 7047     		bx	lr
 837              	.L70:
 838              		.align	2
 839              	.L69:
 840 0008 00040650 		.word	1342571520
 841              		.cfi_endproc
 842              	.LFE140:
 844              		.text
 845              	.Letext0:
 846              		.file 2 "/usr/share/gcc-arm-none-eabi-10.3-2021.10/arm-none-eabi/include/machine/_default_types.h"
ARM GAS  /tmp/ccyeojYU.s 			page 28


 847              		.file 3 "/usr/share/gcc-arm-none-eabi-10.3-2021.10/arm-none-eabi/include/sys/_stdint.h"
 848              		.file 4 "Drivers/CMSIS/Device/ST/STM32F4xx/Include/stm32f4xx.h"
 849              		.file 5 "Drivers/STM32F4xx_StdPeriph_Driver/inc/stm32f4xx_hash.h"
 850              		.file 6 "Drivers/STM32F4xx_StdPeriph_Driver/inc/stm32f4xx_rcc.h"
ARM GAS  /tmp/ccyeojYU.s 			page 29

