ARM GAS  /tmp/ccExwBFD.s 			page 1


   1              		.cpu cortex-m4
   2              		.arch armv7e-m
   3              		.fpu fpv4-sp-d16
   4              		.eabi_attribute 27, 1
   5              		.eabi_attribute 28, 1
   6              		.eabi_attribute 20, 1
   7              		.eabi_attribute 21, 1
   8              		.eabi_attribute 23, 3
   9              		.eabi_attribute 24, 1
  10              		.eabi_attribute 25, 1
  11              		.eabi_attribute 26, 1
  12              		.eabi_attribute 30, 1
  13              		.eabi_attribute 34, 1
  14              		.eabi_attribute 18, 4
  15              		.file	"stm32f4xx_spi.c"
  16              		.text
  17              	.Ltext0:
  18              		.cfi_sections	.debug_frame
  19              		.section	.text.SPI_I2S_DeInit,"ax",%progbits
  20              		.align	1
  21              		.global	SPI_I2S_DeInit
  22              		.syntax unified
  23              		.thumb
  24              		.thumb_func
  26              	SPI_I2S_DeInit:
  27              	.LVL0:
  28              	.LFB123:
  29              		.file 1 "Drivers/STM32F4xx_StdPeriph_Driver/src/stm32f4xx_spi.c"
   1:Drivers/STM32F4xx_StdPeriph_Driver/src/stm32f4xx_spi.c **** /**
   2:Drivers/STM32F4xx_StdPeriph_Driver/src/stm32f4xx_spi.c ****   ******************************************************************************
   3:Drivers/STM32F4xx_StdPeriph_Driver/src/stm32f4xx_spi.c ****   * @file    stm32f4xx_spi.c
   4:Drivers/STM32F4xx_StdPeriph_Driver/src/stm32f4xx_spi.c ****   * @author  MCD Application Team
   5:Drivers/STM32F4xx_StdPeriph_Driver/src/stm32f4xx_spi.c ****   * @version V1.6.1
   6:Drivers/STM32F4xx_StdPeriph_Driver/src/stm32f4xx_spi.c ****   * @date    21-October-2015
   7:Drivers/STM32F4xx_StdPeriph_Driver/src/stm32f4xx_spi.c ****   * @brief   This file provides firmware functions to manage the following 
   8:Drivers/STM32F4xx_StdPeriph_Driver/src/stm32f4xx_spi.c ****   *          functionalities of the Serial peripheral interface (SPI):
   9:Drivers/STM32F4xx_StdPeriph_Driver/src/stm32f4xx_spi.c ****   *           + Initialization and Configuration
  10:Drivers/STM32F4xx_StdPeriph_Driver/src/stm32f4xx_spi.c ****   *           + Data transfers functions
  11:Drivers/STM32F4xx_StdPeriph_Driver/src/stm32f4xx_spi.c ****   *           + Hardware CRC Calculation
  12:Drivers/STM32F4xx_StdPeriph_Driver/src/stm32f4xx_spi.c ****   *           + DMA transfers management
  13:Drivers/STM32F4xx_StdPeriph_Driver/src/stm32f4xx_spi.c ****   *           + Interrupts and flags management 
  14:Drivers/STM32F4xx_StdPeriph_Driver/src/stm32f4xx_spi.c ****   *           
  15:Drivers/STM32F4xx_StdPeriph_Driver/src/stm32f4xx_spi.c **** @verbatim
  16:Drivers/STM32F4xx_StdPeriph_Driver/src/stm32f4xx_spi.c **** 
  17:Drivers/STM32F4xx_StdPeriph_Driver/src/stm32f4xx_spi.c ****  ===================================================================
  18:Drivers/STM32F4xx_StdPeriph_Driver/src/stm32f4xx_spi.c ****                   ##### How to use this driver #####
  19:Drivers/STM32F4xx_StdPeriph_Driver/src/stm32f4xx_spi.c ****  ===================================================================
  20:Drivers/STM32F4xx_StdPeriph_Driver/src/stm32f4xx_spi.c ****  [..]
  21:Drivers/STM32F4xx_StdPeriph_Driver/src/stm32f4xx_spi.c ****    (#) Enable peripheral clock using the following functions 
  22:Drivers/STM32F4xx_StdPeriph_Driver/src/stm32f4xx_spi.c ****        RCC_APB2PeriphClockCmd(RCC_APB2Periph_SPI1, ENABLE) for SPI1
  23:Drivers/STM32F4xx_StdPeriph_Driver/src/stm32f4xx_spi.c ****        RCC_APB1PeriphClockCmd(RCC_APB1Periph_SPI2, ENABLE) for SPI2
  24:Drivers/STM32F4xx_StdPeriph_Driver/src/stm32f4xx_spi.c ****        RCC_APB1PeriphResetCmd(RCC_APB1Periph_SPI3, ENABLE) for SPI3
  25:Drivers/STM32F4xx_StdPeriph_Driver/src/stm32f4xx_spi.c ****        RCC_APB1PeriphResetCmd(RCC_APB1Periph_SPI3, ENABLE) for SPI4
  26:Drivers/STM32F4xx_StdPeriph_Driver/src/stm32f4xx_spi.c ****        RCC_APB1PeriphResetCmd(RCC_APB1Periph_SPI3, ENABLE) for SPI5
  27:Drivers/STM32F4xx_StdPeriph_Driver/src/stm32f4xx_spi.c ****        RCC_APB1PeriphResetCmd(RCC_APB1Periph_SPI3, ENABLE) for SPI6.
  28:Drivers/STM32F4xx_StdPeriph_Driver/src/stm32f4xx_spi.c ****   
  29:Drivers/STM32F4xx_StdPeriph_Driver/src/stm32f4xx_spi.c ****    (#) Enable SCK, MOSI, MISO and NSS GPIO clocks using RCC_AHB1PeriphClockCmd()
ARM GAS  /tmp/ccExwBFD.s 			page 2


  30:Drivers/STM32F4xx_StdPeriph_Driver/src/stm32f4xx_spi.c ****        function. In I2S mode, if an external clock source is used then the I2S 
  31:Drivers/STM32F4xx_StdPeriph_Driver/src/stm32f4xx_spi.c ****        CKIN pin GPIO clock should also be enabled.
  32:Drivers/STM32F4xx_StdPeriph_Driver/src/stm32f4xx_spi.c ****   
  33:Drivers/STM32F4xx_StdPeriph_Driver/src/stm32f4xx_spi.c ****    (#) Peripherals alternate function: 
  34:Drivers/STM32F4xx_StdPeriph_Driver/src/stm32f4xx_spi.c ****        (++) Connect the pin to the desired peripherals' Alternate Function (AF) 
  35:Drivers/STM32F4xx_StdPeriph_Driver/src/stm32f4xx_spi.c ****             using GPIO_PinAFConfig() function
  36:Drivers/STM32F4xx_StdPeriph_Driver/src/stm32f4xx_spi.c ****        (++) Configure the desired pin in alternate function by: 
  37:Drivers/STM32F4xx_StdPeriph_Driver/src/stm32f4xx_spi.c ****             GPIO_InitStruct->GPIO_Mode = GPIO_Mode_AF
  38:Drivers/STM32F4xx_StdPeriph_Driver/src/stm32f4xx_spi.c ****        (++) Select the type, pull-up/pull-down and output speed via GPIO_PuPd, 
  39:Drivers/STM32F4xx_StdPeriph_Driver/src/stm32f4xx_spi.c ****             GPIO_OType and GPIO_Speed members
  40:Drivers/STM32F4xx_StdPeriph_Driver/src/stm32f4xx_spi.c ****        (++) Call GPIO_Init() function In I2S mode, if an external clock source is 
  41:Drivers/STM32F4xx_StdPeriph_Driver/src/stm32f4xx_spi.c ****             used then the I2S CKIN pin should be also configured in Alternate 
  42:Drivers/STM32F4xx_StdPeriph_Driver/src/stm32f4xx_spi.c ****             function Push-pull pull-up mode. 
  43:Drivers/STM32F4xx_StdPeriph_Driver/src/stm32f4xx_spi.c ****           
  44:Drivers/STM32F4xx_StdPeriph_Driver/src/stm32f4xx_spi.c ****    (#) Program the Polarity, Phase, First Data, Baud Rate Prescaler, Slave 
  45:Drivers/STM32F4xx_StdPeriph_Driver/src/stm32f4xx_spi.c ****        Management, Peripheral Mode and CRC Polynomial values using the SPI_Init()
  46:Drivers/STM32F4xx_StdPeriph_Driver/src/stm32f4xx_spi.c ****        function.
  47:Drivers/STM32F4xx_StdPeriph_Driver/src/stm32f4xx_spi.c ****        In I2S mode, program the Mode, Standard, Data Format, MCLK Output, Audio 
  48:Drivers/STM32F4xx_StdPeriph_Driver/src/stm32f4xx_spi.c ****        frequency and Polarity using I2S_Init() function. For I2S mode, make sure 
  49:Drivers/STM32F4xx_StdPeriph_Driver/src/stm32f4xx_spi.c ****        that either:
  50:Drivers/STM32F4xx_StdPeriph_Driver/src/stm32f4xx_spi.c ****        (++) I2S PLL is configured using the functions 
  51:Drivers/STM32F4xx_StdPeriph_Driver/src/stm32f4xx_spi.c ****             RCC_I2SCLKConfig(RCC_I2S2CLKSource_PLLI2S), RCC_PLLI2SCmd(ENABLE) and 
  52:Drivers/STM32F4xx_StdPeriph_Driver/src/stm32f4xx_spi.c ****             RCC_GetFlagStatus(RCC_FLAG_PLLI2SRDY); or 
  53:Drivers/STM32F4xx_StdPeriph_Driver/src/stm32f4xx_spi.c ****        (++) External clock source is configured using the function 
  54:Drivers/STM32F4xx_StdPeriph_Driver/src/stm32f4xx_spi.c ****             RCC_I2SCLKConfig(RCC_I2S2CLKSource_Ext) and after setting correctly 
  55:Drivers/STM32F4xx_StdPeriph_Driver/src/stm32f4xx_spi.c ****             the define constant I2S_EXTERNAL_CLOCK_VAL in the stm32f4xx_conf.h file. 
  56:Drivers/STM32F4xx_StdPeriph_Driver/src/stm32f4xx_spi.c ****   
  57:Drivers/STM32F4xx_StdPeriph_Driver/src/stm32f4xx_spi.c ****    (#) Enable the NVIC and the corresponding interrupt using the function 
  58:Drivers/STM32F4xx_StdPeriph_Driver/src/stm32f4xx_spi.c ****        SPI_ITConfig() if you need to use interrupt mode. 
  59:Drivers/STM32F4xx_StdPeriph_Driver/src/stm32f4xx_spi.c ****   
  60:Drivers/STM32F4xx_StdPeriph_Driver/src/stm32f4xx_spi.c ****    (#) When using the DMA mode 
  61:Drivers/STM32F4xx_StdPeriph_Driver/src/stm32f4xx_spi.c ****        (++) Configure the DMA using DMA_Init() function
  62:Drivers/STM32F4xx_StdPeriph_Driver/src/stm32f4xx_spi.c ****        (++) Active the needed channel Request using SPI_I2S_DMACmd() function
  63:Drivers/STM32F4xx_StdPeriph_Driver/src/stm32f4xx_spi.c ****    
  64:Drivers/STM32F4xx_StdPeriph_Driver/src/stm32f4xx_spi.c ****    (#) Enable the SPI using the SPI_Cmd() function or enable the I2S using
  65:Drivers/STM32F4xx_StdPeriph_Driver/src/stm32f4xx_spi.c ****        I2S_Cmd().
  66:Drivers/STM32F4xx_StdPeriph_Driver/src/stm32f4xx_spi.c ****    
  67:Drivers/STM32F4xx_StdPeriph_Driver/src/stm32f4xx_spi.c ****    (#) Enable the DMA using the DMA_Cmd() function when using DMA mode. 
  68:Drivers/STM32F4xx_StdPeriph_Driver/src/stm32f4xx_spi.c ****   
  69:Drivers/STM32F4xx_StdPeriph_Driver/src/stm32f4xx_spi.c ****    (#) Optionally, you can enable/configure the following parameters without
  70:Drivers/STM32F4xx_StdPeriph_Driver/src/stm32f4xx_spi.c ****        re-initialization (i.e there is no need to call again SPI_Init() function):
  71:Drivers/STM32F4xx_StdPeriph_Driver/src/stm32f4xx_spi.c ****        (++) When bidirectional mode (SPI_Direction_1Line_Rx or SPI_Direction_1Line_Tx)
  72:Drivers/STM32F4xx_StdPeriph_Driver/src/stm32f4xx_spi.c ****             is programmed as Data direction parameter using the SPI_Init() function
  73:Drivers/STM32F4xx_StdPeriph_Driver/src/stm32f4xx_spi.c ****             it can be possible to switch between SPI_Direction_Tx or SPI_Direction_Rx
  74:Drivers/STM32F4xx_StdPeriph_Driver/src/stm32f4xx_spi.c ****             using the SPI_BiDirectionalLineConfig() function.
  75:Drivers/STM32F4xx_StdPeriph_Driver/src/stm32f4xx_spi.c ****        (++) When SPI_NSS_Soft is selected as Slave Select Management parameter 
  76:Drivers/STM32F4xx_StdPeriph_Driver/src/stm32f4xx_spi.c ****             using the SPI_Init() function it can be possible to manage the 
  77:Drivers/STM32F4xx_StdPeriph_Driver/src/stm32f4xx_spi.c ****             NSS internal signal using the SPI_NSSInternalSoftwareConfig() function.
  78:Drivers/STM32F4xx_StdPeriph_Driver/src/stm32f4xx_spi.c ****        (++) Reconfigure the data size using the SPI_DataSizeConfig() function  
  79:Drivers/STM32F4xx_StdPeriph_Driver/src/stm32f4xx_spi.c ****        (++) Enable or disable the SS output using the SPI_SSOutputCmd() function  
  80:Drivers/STM32F4xx_StdPeriph_Driver/src/stm32f4xx_spi.c ****             
  81:Drivers/STM32F4xx_StdPeriph_Driver/src/stm32f4xx_spi.c ****     (#) To use the CRC Hardware calculation feature refer to the Peripheral 
  82:Drivers/STM32F4xx_StdPeriph_Driver/src/stm32f4xx_spi.c ****         CRC hardware Calculation subsection.
  83:Drivers/STM32F4xx_StdPeriph_Driver/src/stm32f4xx_spi.c ****      
  84:Drivers/STM32F4xx_StdPeriph_Driver/src/stm32f4xx_spi.c ****   
  85:Drivers/STM32F4xx_StdPeriph_Driver/src/stm32f4xx_spi.c ****  [..] It is possible to use SPI in I2S full duplex mode, in this case, each SPI 
  86:Drivers/STM32F4xx_StdPeriph_Driver/src/stm32f4xx_spi.c ****       peripheral is able to manage sending and receiving data simultaneously
ARM GAS  /tmp/ccExwBFD.s 			page 3


  87:Drivers/STM32F4xx_StdPeriph_Driver/src/stm32f4xx_spi.c ****       using two data lines. Each SPI peripheral has an extended block called I2Sxext
  88:Drivers/STM32F4xx_StdPeriph_Driver/src/stm32f4xx_spi.c ****       (ie. I2S2ext for SPI2 and I2S3ext for SPI3).
  89:Drivers/STM32F4xx_StdPeriph_Driver/src/stm32f4xx_spi.c ****       The extension block is not a full SPI IP, it is used only as I2S slave to
  90:Drivers/STM32F4xx_StdPeriph_Driver/src/stm32f4xx_spi.c ****       implement full duplex mode. The extension block uses the same clock sources
  91:Drivers/STM32F4xx_StdPeriph_Driver/src/stm32f4xx_spi.c ****       as its master.          
  92:Drivers/STM32F4xx_StdPeriph_Driver/src/stm32f4xx_spi.c ****       To configure I2S full duplex you have to:
  93:Drivers/STM32F4xx_StdPeriph_Driver/src/stm32f4xx_spi.c ****               
  94:Drivers/STM32F4xx_StdPeriph_Driver/src/stm32f4xx_spi.c ****       (#) Configure SPIx in I2S mode (I2S_Init() function) as described above. 
  95:Drivers/STM32F4xx_StdPeriph_Driver/src/stm32f4xx_spi.c ****              
  96:Drivers/STM32F4xx_StdPeriph_Driver/src/stm32f4xx_spi.c ****       (#) Call the I2S_FullDuplexConfig() function using the same structure passed to  
  97:Drivers/STM32F4xx_StdPeriph_Driver/src/stm32f4xx_spi.c ****           I2S_Init() function.
  98:Drivers/STM32F4xx_StdPeriph_Driver/src/stm32f4xx_spi.c ****               
  99:Drivers/STM32F4xx_StdPeriph_Driver/src/stm32f4xx_spi.c ****       (#) Call I2S_Cmd() for SPIx then for its extended block.
 100:Drivers/STM32F4xx_StdPeriph_Driver/src/stm32f4xx_spi.c ****             
 101:Drivers/STM32F4xx_StdPeriph_Driver/src/stm32f4xx_spi.c ****       (#) To configure interrupts or DMA requests and to get/clear flag status, 
 102:Drivers/STM32F4xx_StdPeriph_Driver/src/stm32f4xx_spi.c ****           use I2Sxext instance for the extension block.
 103:Drivers/STM32F4xx_StdPeriph_Driver/src/stm32f4xx_spi.c ****                
 104:Drivers/STM32F4xx_StdPeriph_Driver/src/stm32f4xx_spi.c ****  [..] Functions that can be called with I2Sxext instances are: I2S_Cmd(), 
 105:Drivers/STM32F4xx_StdPeriph_Driver/src/stm32f4xx_spi.c ****       I2S_FullDuplexConfig(), SPI_I2S_ReceiveData(), SPI_I2S_SendData(), 
 106:Drivers/STM32F4xx_StdPeriph_Driver/src/stm32f4xx_spi.c ****       SPI_I2S_DMACmd(), SPI_I2S_ITConfig(), SPI_I2S_GetFlagStatus(), 
 107:Drivers/STM32F4xx_StdPeriph_Driver/src/stm32f4xx_spi.c ****       SPI_I2S_ClearFlag(), SPI_I2S_GetITStatus() and SPI_I2S_ClearITPendingBit().
 108:Drivers/STM32F4xx_StdPeriph_Driver/src/stm32f4xx_spi.c ****                    
 109:Drivers/STM32F4xx_StdPeriph_Driver/src/stm32f4xx_spi.c ****       Example: To use SPI3 in Full duplex mode (SPI3 is Master Tx, I2S3ext is Slave Rx):
 110:Drivers/STM32F4xx_StdPeriph_Driver/src/stm32f4xx_spi.c ****               
 111:Drivers/STM32F4xx_StdPeriph_Driver/src/stm32f4xx_spi.c ****       RCC_APB1PeriphClockCmd(RCC_APB1Periph_SPI3, ENABLE);   
 112:Drivers/STM32F4xx_StdPeriph_Driver/src/stm32f4xx_spi.c ****       I2S_StructInit(&I2SInitStruct);
 113:Drivers/STM32F4xx_StdPeriph_Driver/src/stm32f4xx_spi.c ****       I2SInitStruct.Mode = I2S_Mode_MasterTx;     
 114:Drivers/STM32F4xx_StdPeriph_Driver/src/stm32f4xx_spi.c ****       I2S_Init(SPI3, &I2SInitStruct);
 115:Drivers/STM32F4xx_StdPeriph_Driver/src/stm32f4xx_spi.c ****       I2S_FullDuplexConfig(SPI3ext, &I2SInitStruct)
 116:Drivers/STM32F4xx_StdPeriph_Driver/src/stm32f4xx_spi.c ****       I2S_Cmd(SPI3, ENABLE);
 117:Drivers/STM32F4xx_StdPeriph_Driver/src/stm32f4xx_spi.c ****       I2S_Cmd(SPI3ext, ENABLE);
 118:Drivers/STM32F4xx_StdPeriph_Driver/src/stm32f4xx_spi.c ****       ...
 119:Drivers/STM32F4xx_StdPeriph_Driver/src/stm32f4xx_spi.c ****       while (SPI_I2S_GetFlagStatus(SPI2, SPI_FLAG_TXE) == RESET)
 120:Drivers/STM32F4xx_StdPeriph_Driver/src/stm32f4xx_spi.c ****       {}
 121:Drivers/STM32F4xx_StdPeriph_Driver/src/stm32f4xx_spi.c ****       SPI_I2S_SendData(SPI3, txdata[i]);
 122:Drivers/STM32F4xx_StdPeriph_Driver/src/stm32f4xx_spi.c ****       ...  
 123:Drivers/STM32F4xx_StdPeriph_Driver/src/stm32f4xx_spi.c ****       while (SPI_I2S_GetFlagStatus(I2S3ext, SPI_FLAG_RXNE) == RESET)
 124:Drivers/STM32F4xx_StdPeriph_Driver/src/stm32f4xx_spi.c ****       {}
 125:Drivers/STM32F4xx_StdPeriph_Driver/src/stm32f4xx_spi.c ****       rxdata[i] = SPI_I2S_ReceiveData(I2S3ext);
 126:Drivers/STM32F4xx_StdPeriph_Driver/src/stm32f4xx_spi.c ****       ...          
 127:Drivers/STM32F4xx_StdPeriph_Driver/src/stm32f4xx_spi.c ****                 
 128:Drivers/STM32F4xx_StdPeriph_Driver/src/stm32f4xx_spi.c ****  [..]       
 129:Drivers/STM32F4xx_StdPeriph_Driver/src/stm32f4xx_spi.c ****    (@) In I2S mode: if an external clock is used as source clock for the I2S,  
 130:Drivers/STM32F4xx_StdPeriph_Driver/src/stm32f4xx_spi.c ****        then the define I2S_EXTERNAL_CLOCK_VAL in file stm32f4xx_conf.h should 
 131:Drivers/STM32F4xx_StdPeriph_Driver/src/stm32f4xx_spi.c ****        be enabled and set to the value of the source clock frequency (in Hz).
 132:Drivers/STM32F4xx_StdPeriph_Driver/src/stm32f4xx_spi.c ****    
 133:Drivers/STM32F4xx_StdPeriph_Driver/src/stm32f4xx_spi.c ****    (@) In SPI mode: To use the SPI TI mode, call the function SPI_TIModeCmd() 
 134:Drivers/STM32F4xx_StdPeriph_Driver/src/stm32f4xx_spi.c ****        just after calling the function SPI_Init().
 135:Drivers/STM32F4xx_StdPeriph_Driver/src/stm32f4xx_spi.c ****   
 136:Drivers/STM32F4xx_StdPeriph_Driver/src/stm32f4xx_spi.c **** @endverbatim  
 137:Drivers/STM32F4xx_StdPeriph_Driver/src/stm32f4xx_spi.c ****   *                                  
 138:Drivers/STM32F4xx_StdPeriph_Driver/src/stm32f4xx_spi.c ****   ******************************************************************************
 139:Drivers/STM32F4xx_StdPeriph_Driver/src/stm32f4xx_spi.c ****   * @attention
 140:Drivers/STM32F4xx_StdPeriph_Driver/src/stm32f4xx_spi.c ****   *
 141:Drivers/STM32F4xx_StdPeriph_Driver/src/stm32f4xx_spi.c ****   * <h2><center>&copy; COPYRIGHT 2015 STMicroelectronics</center></h2>
 142:Drivers/STM32F4xx_StdPeriph_Driver/src/stm32f4xx_spi.c ****   *
 143:Drivers/STM32F4xx_StdPeriph_Driver/src/stm32f4xx_spi.c ****   * Licensed under MCD-ST Liberty SW License Agreement V2, (the "License");
ARM GAS  /tmp/ccExwBFD.s 			page 4


 144:Drivers/STM32F4xx_StdPeriph_Driver/src/stm32f4xx_spi.c ****   * You may not use this file except in compliance with the License.
 145:Drivers/STM32F4xx_StdPeriph_Driver/src/stm32f4xx_spi.c ****   * You may obtain a copy of the License at:
 146:Drivers/STM32F4xx_StdPeriph_Driver/src/stm32f4xx_spi.c ****   *
 147:Drivers/STM32F4xx_StdPeriph_Driver/src/stm32f4xx_spi.c ****   *        http://www.st.com/software_license_agreement_liberty_v2
 148:Drivers/STM32F4xx_StdPeriph_Driver/src/stm32f4xx_spi.c ****   *
 149:Drivers/STM32F4xx_StdPeriph_Driver/src/stm32f4xx_spi.c ****   * Unless required by applicable law or agreed to in writing, software 
 150:Drivers/STM32F4xx_StdPeriph_Driver/src/stm32f4xx_spi.c ****   * distributed under the License is distributed on an "AS IS" BASIS, 
 151:Drivers/STM32F4xx_StdPeriph_Driver/src/stm32f4xx_spi.c ****   * WITHOUT WARRANTIES OR CONDITIONS OF ANY KIND, either express or implied.
 152:Drivers/STM32F4xx_StdPeriph_Driver/src/stm32f4xx_spi.c ****   * See the License for the specific language governing permissions and
 153:Drivers/STM32F4xx_StdPeriph_Driver/src/stm32f4xx_spi.c ****   * limitations under the License.
 154:Drivers/STM32F4xx_StdPeriph_Driver/src/stm32f4xx_spi.c ****   *
 155:Drivers/STM32F4xx_StdPeriph_Driver/src/stm32f4xx_spi.c ****   ******************************************************************************  
 156:Drivers/STM32F4xx_StdPeriph_Driver/src/stm32f4xx_spi.c ****   */ 
 157:Drivers/STM32F4xx_StdPeriph_Driver/src/stm32f4xx_spi.c **** 
 158:Drivers/STM32F4xx_StdPeriph_Driver/src/stm32f4xx_spi.c **** /* Includes ------------------------------------------------------------------*/
 159:Drivers/STM32F4xx_StdPeriph_Driver/src/stm32f4xx_spi.c **** #include "stm32f4xx_spi.h"
 160:Drivers/STM32F4xx_StdPeriph_Driver/src/stm32f4xx_spi.c **** #include "stm32f4xx_rcc.h"
 161:Drivers/STM32F4xx_StdPeriph_Driver/src/stm32f4xx_spi.c **** 
 162:Drivers/STM32F4xx_StdPeriph_Driver/src/stm32f4xx_spi.c **** /** @addtogroup STM32F4xx_StdPeriph_Driver
 163:Drivers/STM32F4xx_StdPeriph_Driver/src/stm32f4xx_spi.c ****   * @{
 164:Drivers/STM32F4xx_StdPeriph_Driver/src/stm32f4xx_spi.c ****   */
 165:Drivers/STM32F4xx_StdPeriph_Driver/src/stm32f4xx_spi.c **** 
 166:Drivers/STM32F4xx_StdPeriph_Driver/src/stm32f4xx_spi.c **** /** @defgroup SPI 
 167:Drivers/STM32F4xx_StdPeriph_Driver/src/stm32f4xx_spi.c ****   * @brief SPI driver modules
 168:Drivers/STM32F4xx_StdPeriph_Driver/src/stm32f4xx_spi.c ****   * @{
 169:Drivers/STM32F4xx_StdPeriph_Driver/src/stm32f4xx_spi.c ****   */ 
 170:Drivers/STM32F4xx_StdPeriph_Driver/src/stm32f4xx_spi.c **** 
 171:Drivers/STM32F4xx_StdPeriph_Driver/src/stm32f4xx_spi.c **** /* Private typedef -----------------------------------------------------------*/
 172:Drivers/STM32F4xx_StdPeriph_Driver/src/stm32f4xx_spi.c **** /* Private define ------------------------------------------------------------*/
 173:Drivers/STM32F4xx_StdPeriph_Driver/src/stm32f4xx_spi.c **** 
 174:Drivers/STM32F4xx_StdPeriph_Driver/src/stm32f4xx_spi.c **** /* SPI registers Masks */
 175:Drivers/STM32F4xx_StdPeriph_Driver/src/stm32f4xx_spi.c **** #define CR1_CLEAR_MASK            ((uint16_t)0x3040)
 176:Drivers/STM32F4xx_StdPeriph_Driver/src/stm32f4xx_spi.c **** #define I2SCFGR_CLEAR_MASK        ((uint16_t)0xF040)
 177:Drivers/STM32F4xx_StdPeriph_Driver/src/stm32f4xx_spi.c **** 
 178:Drivers/STM32F4xx_StdPeriph_Driver/src/stm32f4xx_spi.c **** /* RCC PLLs masks */
 179:Drivers/STM32F4xx_StdPeriph_Driver/src/stm32f4xx_spi.c **** #define PLLCFGR_PPLR_MASK         ((uint32_t)0x70000000)
 180:Drivers/STM32F4xx_StdPeriph_Driver/src/stm32f4xx_spi.c **** #define PLLCFGR_PPLN_MASK         ((uint32_t)0x00007FC0)
 181:Drivers/STM32F4xx_StdPeriph_Driver/src/stm32f4xx_spi.c **** 
 182:Drivers/STM32F4xx_StdPeriph_Driver/src/stm32f4xx_spi.c **** #define SPI_CR2_FRF               ((uint16_t)0x0010)
 183:Drivers/STM32F4xx_StdPeriph_Driver/src/stm32f4xx_spi.c **** #define SPI_SR_TIFRFE             ((uint16_t)0x0100)
 184:Drivers/STM32F4xx_StdPeriph_Driver/src/stm32f4xx_spi.c **** 
 185:Drivers/STM32F4xx_StdPeriph_Driver/src/stm32f4xx_spi.c **** /* Private macro -------------------------------------------------------------*/
 186:Drivers/STM32F4xx_StdPeriph_Driver/src/stm32f4xx_spi.c **** /* Private variables ---------------------------------------------------------*/
 187:Drivers/STM32F4xx_StdPeriph_Driver/src/stm32f4xx_spi.c **** /* Private function prototypes -----------------------------------------------*/
 188:Drivers/STM32F4xx_StdPeriph_Driver/src/stm32f4xx_spi.c **** /* Private functions ---------------------------------------------------------*/
 189:Drivers/STM32F4xx_StdPeriph_Driver/src/stm32f4xx_spi.c **** 
 190:Drivers/STM32F4xx_StdPeriph_Driver/src/stm32f4xx_spi.c **** /** @defgroup SPI_Private_Functions
 191:Drivers/STM32F4xx_StdPeriph_Driver/src/stm32f4xx_spi.c ****   * @{
 192:Drivers/STM32F4xx_StdPeriph_Driver/src/stm32f4xx_spi.c ****   */
 193:Drivers/STM32F4xx_StdPeriph_Driver/src/stm32f4xx_spi.c **** 
 194:Drivers/STM32F4xx_StdPeriph_Driver/src/stm32f4xx_spi.c **** /** @defgroup SPI_Group1 Initialization and Configuration functions
 195:Drivers/STM32F4xx_StdPeriph_Driver/src/stm32f4xx_spi.c ****  *  @brief   Initialization and Configuration functions 
 196:Drivers/STM32F4xx_StdPeriph_Driver/src/stm32f4xx_spi.c ****  *
 197:Drivers/STM32F4xx_StdPeriph_Driver/src/stm32f4xx_spi.c **** @verbatim   
 198:Drivers/STM32F4xx_StdPeriph_Driver/src/stm32f4xx_spi.c ****  ===============================================================================
 199:Drivers/STM32F4xx_StdPeriph_Driver/src/stm32f4xx_spi.c ****              ##### Initialization and Configuration functions ##### 
 200:Drivers/STM32F4xx_StdPeriph_Driver/src/stm32f4xx_spi.c ****  ===============================================================================  
ARM GAS  /tmp/ccExwBFD.s 			page 5


 201:Drivers/STM32F4xx_StdPeriph_Driver/src/stm32f4xx_spi.c ****  [..] This section provides a set of functions allowing to initialize the SPI 
 202:Drivers/STM32F4xx_StdPeriph_Driver/src/stm32f4xx_spi.c ****       Direction, SPI Mode, SPI Data Size, SPI Polarity, SPI Phase, SPI NSS 
 203:Drivers/STM32F4xx_StdPeriph_Driver/src/stm32f4xx_spi.c ****       Management, SPI Baud Rate Prescaler, SPI First Bit and SPI CRC Polynomial.
 204:Drivers/STM32F4xx_StdPeriph_Driver/src/stm32f4xx_spi.c ****   
 205:Drivers/STM32F4xx_StdPeriph_Driver/src/stm32f4xx_spi.c ****  [..] The SPI_Init() function follows the SPI configuration procedures for Master 
 206:Drivers/STM32F4xx_StdPeriph_Driver/src/stm32f4xx_spi.c ****       mode and Slave mode (details for these procedures are available in reference 
 207:Drivers/STM32F4xx_StdPeriph_Driver/src/stm32f4xx_spi.c ****       manual (RM0090)).
 208:Drivers/STM32F4xx_StdPeriph_Driver/src/stm32f4xx_spi.c ****   
 209:Drivers/STM32F4xx_StdPeriph_Driver/src/stm32f4xx_spi.c **** @endverbatim
 210:Drivers/STM32F4xx_StdPeriph_Driver/src/stm32f4xx_spi.c ****   * @{
 211:Drivers/STM32F4xx_StdPeriph_Driver/src/stm32f4xx_spi.c ****   */
 212:Drivers/STM32F4xx_StdPeriph_Driver/src/stm32f4xx_spi.c **** 
 213:Drivers/STM32F4xx_StdPeriph_Driver/src/stm32f4xx_spi.c **** /**
 214:Drivers/STM32F4xx_StdPeriph_Driver/src/stm32f4xx_spi.c ****   * @brief  De-initialize the SPIx peripheral registers to their default reset values.
 215:Drivers/STM32F4xx_StdPeriph_Driver/src/stm32f4xx_spi.c ****   * @param  SPIx: To select the SPIx/I2Sx peripheral, where x can be: 1, 2, 3, 4, 5 or 6 
 216:Drivers/STM32F4xx_StdPeriph_Driver/src/stm32f4xx_spi.c ****   *         in SPI mode or 2 or 3 in I2S mode.   
 217:Drivers/STM32F4xx_StdPeriph_Driver/src/stm32f4xx_spi.c ****   *         
 218:Drivers/STM32F4xx_StdPeriph_Driver/src/stm32f4xx_spi.c ****   * @note   The extended I2S blocks (ie. I2S2ext and I2S3ext blocks) are de-initialized
 219:Drivers/STM32F4xx_StdPeriph_Driver/src/stm32f4xx_spi.c ****   *         when the relative I2S peripheral is de-initialized (the extended block's clock
 220:Drivers/STM32F4xx_StdPeriph_Driver/src/stm32f4xx_spi.c ****   *         is managed by the I2S peripheral clock).
 221:Drivers/STM32F4xx_StdPeriph_Driver/src/stm32f4xx_spi.c ****   *             
 222:Drivers/STM32F4xx_StdPeriph_Driver/src/stm32f4xx_spi.c ****   * @retval None
 223:Drivers/STM32F4xx_StdPeriph_Driver/src/stm32f4xx_spi.c ****   */
 224:Drivers/STM32F4xx_StdPeriph_Driver/src/stm32f4xx_spi.c **** void SPI_I2S_DeInit(SPI_TypeDef* SPIx)
 225:Drivers/STM32F4xx_StdPeriph_Driver/src/stm32f4xx_spi.c **** {
  30              		.loc 1 225 1 view -0
  31              		.cfi_startproc
  32              		@ args = 0, pretend = 0, frame = 0
  33              		@ frame_needed = 0, uses_anonymous_args = 0
  34              		.loc 1 225 1 is_stmt 0 view .LVU1
  35 0000 08B5     		push	{r3, lr}
  36              		.cfi_def_cfa_offset 8
  37              		.cfi_offset 3, -8
  38              		.cfi_offset 14, -4
 226:Drivers/STM32F4xx_StdPeriph_Driver/src/stm32f4xx_spi.c ****   /* Check the parameters */
 227:Drivers/STM32F4xx_StdPeriph_Driver/src/stm32f4xx_spi.c ****   assert_param(IS_SPI_ALL_PERIPH(SPIx));
  39              		.loc 1 227 3 is_stmt 1 view .LVU2
 228:Drivers/STM32F4xx_StdPeriph_Driver/src/stm32f4xx_spi.c **** 
 229:Drivers/STM32F4xx_StdPeriph_Driver/src/stm32f4xx_spi.c ****   if (SPIx == SPI1)
  40              		.loc 1 229 3 view .LVU3
  41              		.loc 1 229 6 is_stmt 0 view .LVU4
  42 0002 2A4B     		ldr	r3, .L15
  43 0004 9842     		cmp	r0, r3
  44 0006 0FD0     		beq	.L9
 230:Drivers/STM32F4xx_StdPeriph_Driver/src/stm32f4xx_spi.c ****   {
 231:Drivers/STM32F4xx_StdPeriph_Driver/src/stm32f4xx_spi.c ****     /* Enable SPI1 reset state */
 232:Drivers/STM32F4xx_StdPeriph_Driver/src/stm32f4xx_spi.c ****     RCC_APB2PeriphResetCmd(RCC_APB2Periph_SPI1, ENABLE);
 233:Drivers/STM32F4xx_StdPeriph_Driver/src/stm32f4xx_spi.c ****     /* Release SPI1 from reset state */
 234:Drivers/STM32F4xx_StdPeriph_Driver/src/stm32f4xx_spi.c ****     RCC_APB2PeriphResetCmd(RCC_APB2Periph_SPI1, DISABLE);
 235:Drivers/STM32F4xx_StdPeriph_Driver/src/stm32f4xx_spi.c ****   }
 236:Drivers/STM32F4xx_StdPeriph_Driver/src/stm32f4xx_spi.c ****   else if (SPIx == SPI2)
  45              		.loc 1 236 8 is_stmt 1 view .LVU5
  46              		.loc 1 236 11 is_stmt 0 view .LVU6
  47 0008 294B     		ldr	r3, .L15+4
  48 000a 9842     		cmp	r0, r3
  49 000c 17D0     		beq	.L10
 237:Drivers/STM32F4xx_StdPeriph_Driver/src/stm32f4xx_spi.c ****   {
ARM GAS  /tmp/ccExwBFD.s 			page 6


 238:Drivers/STM32F4xx_StdPeriph_Driver/src/stm32f4xx_spi.c ****     /* Enable SPI2 reset state */
 239:Drivers/STM32F4xx_StdPeriph_Driver/src/stm32f4xx_spi.c ****     RCC_APB1PeriphResetCmd(RCC_APB1Periph_SPI2, ENABLE);
 240:Drivers/STM32F4xx_StdPeriph_Driver/src/stm32f4xx_spi.c ****     /* Release SPI2 from reset state */
 241:Drivers/STM32F4xx_StdPeriph_Driver/src/stm32f4xx_spi.c ****     RCC_APB1PeriphResetCmd(RCC_APB1Periph_SPI2, DISABLE);
 242:Drivers/STM32F4xx_StdPeriph_Driver/src/stm32f4xx_spi.c ****   }
 243:Drivers/STM32F4xx_StdPeriph_Driver/src/stm32f4xx_spi.c ****   else if (SPIx == SPI3)
  50              		.loc 1 243 8 is_stmt 1 view .LVU7
  51              		.loc 1 243 11 is_stmt 0 view .LVU8
  52 000e 294B     		ldr	r3, .L15+8
  53 0010 9842     		cmp	r0, r3
  54 0012 1FD0     		beq	.L11
 244:Drivers/STM32F4xx_StdPeriph_Driver/src/stm32f4xx_spi.c ****   {
 245:Drivers/STM32F4xx_StdPeriph_Driver/src/stm32f4xx_spi.c ****     /* Enable SPI3 reset state */
 246:Drivers/STM32F4xx_StdPeriph_Driver/src/stm32f4xx_spi.c ****     RCC_APB1PeriphResetCmd(RCC_APB1Periph_SPI3, ENABLE);
 247:Drivers/STM32F4xx_StdPeriph_Driver/src/stm32f4xx_spi.c ****     /* Release SPI3 from reset state */
 248:Drivers/STM32F4xx_StdPeriph_Driver/src/stm32f4xx_spi.c ****     RCC_APB1PeriphResetCmd(RCC_APB1Periph_SPI3, DISABLE);
 249:Drivers/STM32F4xx_StdPeriph_Driver/src/stm32f4xx_spi.c ****   }
 250:Drivers/STM32F4xx_StdPeriph_Driver/src/stm32f4xx_spi.c ****   else if (SPIx == SPI4)
  55              		.loc 1 250 8 is_stmt 1 view .LVU9
  56              		.loc 1 250 11 is_stmt 0 view .LVU10
  57 0014 284B     		ldr	r3, .L15+12
  58 0016 9842     		cmp	r0, r3
  59 0018 27D0     		beq	.L12
 251:Drivers/STM32F4xx_StdPeriph_Driver/src/stm32f4xx_spi.c ****   {
 252:Drivers/STM32F4xx_StdPeriph_Driver/src/stm32f4xx_spi.c ****     /* Enable SPI4 reset state */
 253:Drivers/STM32F4xx_StdPeriph_Driver/src/stm32f4xx_spi.c ****     RCC_APB2PeriphResetCmd(RCC_APB2Periph_SPI4, ENABLE);
 254:Drivers/STM32F4xx_StdPeriph_Driver/src/stm32f4xx_spi.c ****     /* Release SPI4 from reset state */
 255:Drivers/STM32F4xx_StdPeriph_Driver/src/stm32f4xx_spi.c ****     RCC_APB2PeriphResetCmd(RCC_APB2Periph_SPI4, DISABLE);
 256:Drivers/STM32F4xx_StdPeriph_Driver/src/stm32f4xx_spi.c ****   }
 257:Drivers/STM32F4xx_StdPeriph_Driver/src/stm32f4xx_spi.c ****   else if (SPIx == SPI5)
  60              		.loc 1 257 8 is_stmt 1 view .LVU11
  61              		.loc 1 257 11 is_stmt 0 view .LVU12
  62 001a 284B     		ldr	r3, .L15+16
  63 001c 9842     		cmp	r0, r3
  64 001e 2FD0     		beq	.L13
 258:Drivers/STM32F4xx_StdPeriph_Driver/src/stm32f4xx_spi.c ****   {
 259:Drivers/STM32F4xx_StdPeriph_Driver/src/stm32f4xx_spi.c ****     /* Enable SPI5 reset state */
 260:Drivers/STM32F4xx_StdPeriph_Driver/src/stm32f4xx_spi.c ****     RCC_APB2PeriphResetCmd(RCC_APB2Periph_SPI5, ENABLE);
 261:Drivers/STM32F4xx_StdPeriph_Driver/src/stm32f4xx_spi.c ****     /* Release SPI5 from reset state */
 262:Drivers/STM32F4xx_StdPeriph_Driver/src/stm32f4xx_spi.c ****     RCC_APB2PeriphResetCmd(RCC_APB2Periph_SPI5, DISABLE);
 263:Drivers/STM32F4xx_StdPeriph_Driver/src/stm32f4xx_spi.c ****   }
 264:Drivers/STM32F4xx_StdPeriph_Driver/src/stm32f4xx_spi.c ****   else 
 265:Drivers/STM32F4xx_StdPeriph_Driver/src/stm32f4xx_spi.c ****   {
 266:Drivers/STM32F4xx_StdPeriph_Driver/src/stm32f4xx_spi.c ****     if (SPIx == SPI6)
  65              		.loc 1 266 5 is_stmt 1 view .LVU13
  66              		.loc 1 266 8 is_stmt 0 view .LVU14
  67 0020 274B     		ldr	r3, .L15+20
  68 0022 9842     		cmp	r0, r3
  69 0024 37D0     		beq	.L14
  70              	.LVL1:
  71              	.L1:
 267:Drivers/STM32F4xx_StdPeriph_Driver/src/stm32f4xx_spi.c ****     {
 268:Drivers/STM32F4xx_StdPeriph_Driver/src/stm32f4xx_spi.c ****       /* Enable SPI6 reset state */
 269:Drivers/STM32F4xx_StdPeriph_Driver/src/stm32f4xx_spi.c ****       RCC_APB2PeriphResetCmd(RCC_APB2Periph_SPI6, ENABLE);
 270:Drivers/STM32F4xx_StdPeriph_Driver/src/stm32f4xx_spi.c ****       /* Release SPI6 from reset state */
 271:Drivers/STM32F4xx_StdPeriph_Driver/src/stm32f4xx_spi.c ****       RCC_APB2PeriphResetCmd(RCC_APB2Periph_SPI6, DISABLE);
 272:Drivers/STM32F4xx_StdPeriph_Driver/src/stm32f4xx_spi.c ****     }
ARM GAS  /tmp/ccExwBFD.s 			page 7


 273:Drivers/STM32F4xx_StdPeriph_Driver/src/stm32f4xx_spi.c ****   }
 274:Drivers/STM32F4xx_StdPeriph_Driver/src/stm32f4xx_spi.c **** }
  72              		.loc 1 274 1 view .LVU15
  73 0026 08BD     		pop	{r3, pc}
  74              	.LVL2:
  75              	.L9:
 232:Drivers/STM32F4xx_StdPeriph_Driver/src/stm32f4xx_spi.c ****     /* Release SPI1 from reset state */
  76              		.loc 1 232 5 is_stmt 1 view .LVU16
  77 0028 0121     		movs	r1, #1
  78 002a 4FF48050 		mov	r0, #4096
  79              	.LVL3:
 232:Drivers/STM32F4xx_StdPeriph_Driver/src/stm32f4xx_spi.c ****     /* Release SPI1 from reset state */
  80              		.loc 1 232 5 is_stmt 0 view .LVU17
  81 002e FFF7FEFF 		bl	RCC_APB2PeriphResetCmd
  82              	.LVL4:
 234:Drivers/STM32F4xx_StdPeriph_Driver/src/stm32f4xx_spi.c ****   }
  83              		.loc 1 234 5 is_stmt 1 view .LVU18
  84 0032 0021     		movs	r1, #0
  85 0034 4FF48050 		mov	r0, #4096
  86 0038 FFF7FEFF 		bl	RCC_APB2PeriphResetCmd
  87              	.LVL5:
  88 003c F3E7     		b	.L1
  89              	.LVL6:
  90              	.L10:
 239:Drivers/STM32F4xx_StdPeriph_Driver/src/stm32f4xx_spi.c ****     /* Release SPI2 from reset state */
  91              		.loc 1 239 5 view .LVU19
  92 003e 0121     		movs	r1, #1
  93 0040 4FF48040 		mov	r0, #16384
  94              	.LVL7:
 239:Drivers/STM32F4xx_StdPeriph_Driver/src/stm32f4xx_spi.c ****     /* Release SPI2 from reset state */
  95              		.loc 1 239 5 is_stmt 0 view .LVU20
  96 0044 FFF7FEFF 		bl	RCC_APB1PeriphResetCmd
  97              	.LVL8:
 241:Drivers/STM32F4xx_StdPeriph_Driver/src/stm32f4xx_spi.c ****   }
  98              		.loc 1 241 5 is_stmt 1 view .LVU21
  99 0048 0021     		movs	r1, #0
 100 004a 4FF48040 		mov	r0, #16384
 101 004e FFF7FEFF 		bl	RCC_APB1PeriphResetCmd
 102              	.LVL9:
 103 0052 E8E7     		b	.L1
 104              	.LVL10:
 105              	.L11:
 246:Drivers/STM32F4xx_StdPeriph_Driver/src/stm32f4xx_spi.c ****     /* Release SPI3 from reset state */
 106              		.loc 1 246 5 view .LVU22
 107 0054 0121     		movs	r1, #1
 108 0056 4FF40040 		mov	r0, #32768
 109              	.LVL11:
 246:Drivers/STM32F4xx_StdPeriph_Driver/src/stm32f4xx_spi.c ****     /* Release SPI3 from reset state */
 110              		.loc 1 246 5 is_stmt 0 view .LVU23
 111 005a FFF7FEFF 		bl	RCC_APB1PeriphResetCmd
 112              	.LVL12:
 248:Drivers/STM32F4xx_StdPeriph_Driver/src/stm32f4xx_spi.c ****   }
 113              		.loc 1 248 5 is_stmt 1 view .LVU24
 114 005e 0021     		movs	r1, #0
 115 0060 4FF40040 		mov	r0, #32768
 116 0064 FFF7FEFF 		bl	RCC_APB1PeriphResetCmd
 117              	.LVL13:
ARM GAS  /tmp/ccExwBFD.s 			page 8


 118 0068 DDE7     		b	.L1
 119              	.LVL14:
 120              	.L12:
 253:Drivers/STM32F4xx_StdPeriph_Driver/src/stm32f4xx_spi.c ****     /* Release SPI4 from reset state */
 121              		.loc 1 253 5 view .LVU25
 122 006a 0121     		movs	r1, #1
 123 006c 4FF40050 		mov	r0, #8192
 124              	.LVL15:
 253:Drivers/STM32F4xx_StdPeriph_Driver/src/stm32f4xx_spi.c ****     /* Release SPI4 from reset state */
 125              		.loc 1 253 5 is_stmt 0 view .LVU26
 126 0070 FFF7FEFF 		bl	RCC_APB2PeriphResetCmd
 127              	.LVL16:
 255:Drivers/STM32F4xx_StdPeriph_Driver/src/stm32f4xx_spi.c ****   }
 128              		.loc 1 255 5 is_stmt 1 view .LVU27
 129 0074 0021     		movs	r1, #0
 130 0076 4FF40050 		mov	r0, #8192
 131 007a FFF7FEFF 		bl	RCC_APB2PeriphResetCmd
 132              	.LVL17:
 133 007e D2E7     		b	.L1
 134              	.LVL18:
 135              	.L13:
 260:Drivers/STM32F4xx_StdPeriph_Driver/src/stm32f4xx_spi.c ****     /* Release SPI5 from reset state */
 136              		.loc 1 260 5 view .LVU28
 137 0080 0121     		movs	r1, #1
 138 0082 4FF48010 		mov	r0, #1048576
 139              	.LVL19:
 260:Drivers/STM32F4xx_StdPeriph_Driver/src/stm32f4xx_spi.c ****     /* Release SPI5 from reset state */
 140              		.loc 1 260 5 is_stmt 0 view .LVU29
 141 0086 FFF7FEFF 		bl	RCC_APB2PeriphResetCmd
 142              	.LVL20:
 262:Drivers/STM32F4xx_StdPeriph_Driver/src/stm32f4xx_spi.c ****   }
 143              		.loc 1 262 5 is_stmt 1 view .LVU30
 144 008a 0021     		movs	r1, #0
 145 008c 4FF48010 		mov	r0, #1048576
 146 0090 FFF7FEFF 		bl	RCC_APB2PeriphResetCmd
 147              	.LVL21:
 148 0094 C7E7     		b	.L1
 149              	.LVL22:
 150              	.L14:
 269:Drivers/STM32F4xx_StdPeriph_Driver/src/stm32f4xx_spi.c ****       /* Release SPI6 from reset state */
 151              		.loc 1 269 7 view .LVU31
 152 0096 0121     		movs	r1, #1
 153 0098 4FF40010 		mov	r0, #2097152
 154              	.LVL23:
 269:Drivers/STM32F4xx_StdPeriph_Driver/src/stm32f4xx_spi.c ****       /* Release SPI6 from reset state */
 155              		.loc 1 269 7 is_stmt 0 view .LVU32
 156 009c FFF7FEFF 		bl	RCC_APB2PeriphResetCmd
 157              	.LVL24:
 271:Drivers/STM32F4xx_StdPeriph_Driver/src/stm32f4xx_spi.c ****     }
 158              		.loc 1 271 7 is_stmt 1 view .LVU33
 159 00a0 0021     		movs	r1, #0
 160 00a2 4FF40010 		mov	r0, #2097152
 161 00a6 FFF7FEFF 		bl	RCC_APB2PeriphResetCmd
 162              	.LVL25:
 163              		.loc 1 274 1 is_stmt 0 view .LVU34
 164 00aa BCE7     		b	.L1
 165              	.L16:
ARM GAS  /tmp/ccExwBFD.s 			page 9


 166              		.align	2
 167              	.L15:
 168 00ac 00300140 		.word	1073819648
 169 00b0 00380040 		.word	1073756160
 170 00b4 003C0040 		.word	1073757184
 171 00b8 00340140 		.word	1073820672
 172 00bc 00500140 		.word	1073827840
 173 00c0 00540140 		.word	1073828864
 174              		.cfi_endproc
 175              	.LFE123:
 177              		.section	.text.SPI_Init,"ax",%progbits
 178              		.align	1
 179              		.global	SPI_Init
 180              		.syntax unified
 181              		.thumb
 182              		.thumb_func
 184              	SPI_Init:
 185              	.LVL26:
 186              	.LFB124:
 275:Drivers/STM32F4xx_StdPeriph_Driver/src/stm32f4xx_spi.c **** 
 276:Drivers/STM32F4xx_StdPeriph_Driver/src/stm32f4xx_spi.c **** /**
 277:Drivers/STM32F4xx_StdPeriph_Driver/src/stm32f4xx_spi.c ****   * @brief  Initializes the SPIx peripheral according to the specified 
 278:Drivers/STM32F4xx_StdPeriph_Driver/src/stm32f4xx_spi.c ****   *         parameters in the SPI_InitStruct.
 279:Drivers/STM32F4xx_StdPeriph_Driver/src/stm32f4xx_spi.c ****   * @param  SPIx: where x can be 1, 2, 3, 4, 5 or 6 to select the SPI peripheral.
 280:Drivers/STM32F4xx_StdPeriph_Driver/src/stm32f4xx_spi.c ****   * @param  SPI_InitStruct: pointer to a SPI_InitTypeDef structure that
 281:Drivers/STM32F4xx_StdPeriph_Driver/src/stm32f4xx_spi.c ****   *         contains the configuration information for the specified SPI peripheral.
 282:Drivers/STM32F4xx_StdPeriph_Driver/src/stm32f4xx_spi.c ****   * @retval None
 283:Drivers/STM32F4xx_StdPeriph_Driver/src/stm32f4xx_spi.c ****   */
 284:Drivers/STM32F4xx_StdPeriph_Driver/src/stm32f4xx_spi.c **** void SPI_Init(SPI_TypeDef* SPIx, SPI_InitTypeDef* SPI_InitStruct)
 285:Drivers/STM32F4xx_StdPeriph_Driver/src/stm32f4xx_spi.c **** {
 187              		.loc 1 285 1 is_stmt 1 view -0
 188              		.cfi_startproc
 189              		@ args = 0, pretend = 0, frame = 0
 190              		@ frame_needed = 0, uses_anonymous_args = 0
 191              		.loc 1 285 1 is_stmt 0 view .LVU36
 192 0000 2DE9F041 		push	{r4, r5, r6, r7, r8, lr}
 193              		.cfi_def_cfa_offset 24
 194              		.cfi_offset 4, -24
 195              		.cfi_offset 5, -20
 196              		.cfi_offset 6, -16
 197              		.cfi_offset 7, -12
 198              		.cfi_offset 8, -8
 199              		.cfi_offset 14, -4
 286:Drivers/STM32F4xx_StdPeriph_Driver/src/stm32f4xx_spi.c ****   uint16_t tmpreg = 0;
 200              		.loc 1 286 3 is_stmt 1 view .LVU37
 201              	.LVL27:
 287:Drivers/STM32F4xx_StdPeriph_Driver/src/stm32f4xx_spi.c ****   
 288:Drivers/STM32F4xx_StdPeriph_Driver/src/stm32f4xx_spi.c ****   /* check the parameters */
 289:Drivers/STM32F4xx_StdPeriph_Driver/src/stm32f4xx_spi.c ****   assert_param(IS_SPI_ALL_PERIPH(SPIx));
 202              		.loc 1 289 3 view .LVU38
 290:Drivers/STM32F4xx_StdPeriph_Driver/src/stm32f4xx_spi.c ****   
 291:Drivers/STM32F4xx_StdPeriph_Driver/src/stm32f4xx_spi.c ****   /* Check the SPI parameters */
 292:Drivers/STM32F4xx_StdPeriph_Driver/src/stm32f4xx_spi.c ****   assert_param(IS_SPI_DIRECTION_MODE(SPI_InitStruct->SPI_Direction));
 203              		.loc 1 292 3 view .LVU39
 293:Drivers/STM32F4xx_StdPeriph_Driver/src/stm32f4xx_spi.c ****   assert_param(IS_SPI_MODE(SPI_InitStruct->SPI_Mode));
 204              		.loc 1 293 3 view .LVU40
 294:Drivers/STM32F4xx_StdPeriph_Driver/src/stm32f4xx_spi.c ****   assert_param(IS_SPI_DATASIZE(SPI_InitStruct->SPI_DataSize));
ARM GAS  /tmp/ccExwBFD.s 			page 10


 205              		.loc 1 294 3 view .LVU41
 295:Drivers/STM32F4xx_StdPeriph_Driver/src/stm32f4xx_spi.c ****   assert_param(IS_SPI_CPOL(SPI_InitStruct->SPI_CPOL));
 206              		.loc 1 295 3 view .LVU42
 296:Drivers/STM32F4xx_StdPeriph_Driver/src/stm32f4xx_spi.c ****   assert_param(IS_SPI_CPHA(SPI_InitStruct->SPI_CPHA));
 207              		.loc 1 296 3 view .LVU43
 297:Drivers/STM32F4xx_StdPeriph_Driver/src/stm32f4xx_spi.c ****   assert_param(IS_SPI_NSS(SPI_InitStruct->SPI_NSS));
 208              		.loc 1 297 3 view .LVU44
 298:Drivers/STM32F4xx_StdPeriph_Driver/src/stm32f4xx_spi.c ****   assert_param(IS_SPI_BAUDRATE_PRESCALER(SPI_InitStruct->SPI_BaudRatePrescaler));
 209              		.loc 1 298 3 view .LVU45
 299:Drivers/STM32F4xx_StdPeriph_Driver/src/stm32f4xx_spi.c ****   assert_param(IS_SPI_FIRST_BIT(SPI_InitStruct->SPI_FirstBit));
 210              		.loc 1 299 3 view .LVU46
 300:Drivers/STM32F4xx_StdPeriph_Driver/src/stm32f4xx_spi.c ****   assert_param(IS_SPI_CRC_POLYNOMIAL(SPI_InitStruct->SPI_CRCPolynomial));
 211              		.loc 1 300 3 view .LVU47
 301:Drivers/STM32F4xx_StdPeriph_Driver/src/stm32f4xx_spi.c **** 
 302:Drivers/STM32F4xx_StdPeriph_Driver/src/stm32f4xx_spi.c **** /*---------------------------- SPIx CR1 Configuration ------------------------*/
 303:Drivers/STM32F4xx_StdPeriph_Driver/src/stm32f4xx_spi.c ****   /* Get the SPIx CR1 value */
 304:Drivers/STM32F4xx_StdPeriph_Driver/src/stm32f4xx_spi.c ****   tmpreg = SPIx->CR1;
 212              		.loc 1 304 3 view .LVU48
 213              		.loc 1 304 10 is_stmt 0 view .LVU49
 214 0004 0388     		ldrh	r3, [r0]
 215              	.LVL28:
 305:Drivers/STM32F4xx_StdPeriph_Driver/src/stm32f4xx_spi.c ****   /* Clear BIDIMode, BIDIOE, RxONLY, SSM, SSI, LSBFirst, BR, MSTR, CPOL and CPHA bits */
 306:Drivers/STM32F4xx_StdPeriph_Driver/src/stm32f4xx_spi.c ****   tmpreg &= CR1_CLEAR_MASK;
 216              		.loc 1 306 3 is_stmt 1 view .LVU50
 217              		.loc 1 306 10 is_stmt 0 view .LVU51
 218 0006 03F44152 		and	r2, r3, #12352
 219              	.LVL29:
 307:Drivers/STM32F4xx_StdPeriph_Driver/src/stm32f4xx_spi.c ****   /* Configure SPIx: direction, NSS management, first transmitted bit, BaudRate prescaler
 308:Drivers/STM32F4xx_StdPeriph_Driver/src/stm32f4xx_spi.c ****      master/salve mode, CPOL and CPHA */
 309:Drivers/STM32F4xx_StdPeriph_Driver/src/stm32f4xx_spi.c ****   /* Set BIDImode, BIDIOE and RxONLY bits according to SPI_Direction value */
 310:Drivers/STM32F4xx_StdPeriph_Driver/src/stm32f4xx_spi.c ****   /* Set SSM, SSI and MSTR bits according to SPI_Mode and SPI_NSS values */
 311:Drivers/STM32F4xx_StdPeriph_Driver/src/stm32f4xx_spi.c ****   /* Set LSBFirst bit according to SPI_FirstBit value */
 312:Drivers/STM32F4xx_StdPeriph_Driver/src/stm32f4xx_spi.c ****   /* Set BR bits according to SPI_BaudRatePrescaler value */
 313:Drivers/STM32F4xx_StdPeriph_Driver/src/stm32f4xx_spi.c ****   /* Set CPOL bit according to SPI_CPOL value */
 314:Drivers/STM32F4xx_StdPeriph_Driver/src/stm32f4xx_spi.c ****   /* Set CPHA bit according to SPI_CPHA value */
 315:Drivers/STM32F4xx_StdPeriph_Driver/src/stm32f4xx_spi.c ****   tmpreg |= (uint16_t)((uint32_t)SPI_InitStruct->SPI_Direction | SPI_InitStruct->SPI_Mode |
 220              		.loc 1 315 3 is_stmt 1 view .LVU52
 221              		.loc 1 315 48 is_stmt 0 view .LVU53
 222 000a 0F88     		ldrh	r7, [r1]
 223              		.loc 1 315 80 view .LVU54
 224 000c B1F80280 		ldrh	r8, [r1, #2]
 316:Drivers/STM32F4xx_StdPeriph_Driver/src/stm32f4xx_spi.c ****                   SPI_InitStruct->SPI_DataSize | SPI_InitStruct->SPI_CPOL |  
 225              		.loc 1 316 33 view .LVU55
 226 0010 8E88     		ldrh	r6, [r1, #4]
 227              		.loc 1 316 64 view .LVU56
 228 0012 CD88     		ldrh	r5, [r1, #6]
 317:Drivers/STM32F4xx_StdPeriph_Driver/src/stm32f4xx_spi.c ****                   SPI_InitStruct->SPI_CPHA | SPI_InitStruct->SPI_NSS |  
 229              		.loc 1 317 33 view .LVU57
 230 0014 0C89     		ldrh	r4, [r1, #8]
 231              		.loc 1 317 60 view .LVU58
 232 0016 B1F80AE0 		ldrh	lr, [r1, #10]
 318:Drivers/STM32F4xx_StdPeriph_Driver/src/stm32f4xx_spi.c ****                   SPI_InitStruct->SPI_BaudRatePrescaler | SPI_InitStruct->SPI_FirstBit);
 233              		.loc 1 318 33 view .LVU59
 234 001a B1F80CC0 		ldrh	ip, [r1, #12]
 235              		.loc 1 318 73 view .LVU60
 236 001e CB89     		ldrh	r3, [r1, #14]
 315:Drivers/STM32F4xx_StdPeriph_Driver/src/stm32f4xx_spi.c ****                   SPI_InitStruct->SPI_DataSize | SPI_InitStruct->SPI_CPOL |  
ARM GAS  /tmp/ccExwBFD.s 			page 11


 237              		.loc 1 315 13 view .LVU61
 238 0020 47EA0807 		orr	r7, r7, r8
 239 0024 3E43     		orrs	r6, r6, r7
 240 0026 3543     		orrs	r5, r5, r6
 241 0028 2C43     		orrs	r4, r4, r5
 242 002a 4EEA040E 		orr	lr, lr, r4
 243 002e 4CEA0E0C 		orr	ip, ip, lr
 244 0032 43EA0C03 		orr	r3, r3, ip
 315:Drivers/STM32F4xx_StdPeriph_Driver/src/stm32f4xx_spi.c ****                   SPI_InitStruct->SPI_DataSize | SPI_InitStruct->SPI_CPOL |  
 245              		.loc 1 315 10 view .LVU62
 246 0036 1343     		orrs	r3, r3, r2
 247              	.LVL30:
 319:Drivers/STM32F4xx_StdPeriph_Driver/src/stm32f4xx_spi.c ****   /* Write to SPIx CR1 */
 320:Drivers/STM32F4xx_StdPeriph_Driver/src/stm32f4xx_spi.c ****   SPIx->CR1 = tmpreg;
 248              		.loc 1 320 3 is_stmt 1 view .LVU63
 249              		.loc 1 320 13 is_stmt 0 view .LVU64
 250 0038 0380     		strh	r3, [r0]	@ movhi
 321:Drivers/STM32F4xx_StdPeriph_Driver/src/stm32f4xx_spi.c **** 
 322:Drivers/STM32F4xx_StdPeriph_Driver/src/stm32f4xx_spi.c ****   /* Activate the SPI mode (Reset I2SMOD bit in I2SCFGR register) */
 323:Drivers/STM32F4xx_StdPeriph_Driver/src/stm32f4xx_spi.c ****   SPIx->I2SCFGR &= (uint16_t)~((uint16_t)SPI_I2SCFGR_I2SMOD);
 251              		.loc 1 323 3 is_stmt 1 view .LVU65
 252              		.loc 1 323 17 is_stmt 0 view .LVU66
 253 003a 838B     		ldrh	r3, [r0, #28]
 254              	.LVL31:
 255              		.loc 1 323 17 view .LVU67
 256 003c 9BB2     		uxth	r3, r3
 257 003e 23F40063 		bic	r3, r3, #2048
 258 0042 9BB2     		uxth	r3, r3
 259 0044 8383     		strh	r3, [r0, #28]	@ movhi
 260              	.LVL32:
 324:Drivers/STM32F4xx_StdPeriph_Driver/src/stm32f4xx_spi.c **** /*---------------------------- SPIx CRCPOLY Configuration --------------------*/
 325:Drivers/STM32F4xx_StdPeriph_Driver/src/stm32f4xx_spi.c ****   /* Write to SPIx CRCPOLY */
 326:Drivers/STM32F4xx_StdPeriph_Driver/src/stm32f4xx_spi.c ****   SPIx->CRCPR = SPI_InitStruct->SPI_CRCPolynomial;
 261              		.loc 1 326 3 is_stmt 1 view .LVU68
 262              		.loc 1 326 31 is_stmt 0 view .LVU69
 263 0046 0B8A     		ldrh	r3, [r1, #16]
 264              		.loc 1 326 15 view .LVU70
 265 0048 0382     		strh	r3, [r0, #16]	@ movhi
 327:Drivers/STM32F4xx_StdPeriph_Driver/src/stm32f4xx_spi.c **** }
 266              		.loc 1 327 1 view .LVU71
 267 004a BDE8F081 		pop	{r4, r5, r6, r7, r8, pc}
 268              		.cfi_endproc
 269              	.LFE124:
 271              		.section	.text.I2S_Init,"ax",%progbits
 272              		.align	1
 273              		.global	I2S_Init
 274              		.syntax unified
 275              		.thumb
 276              		.thumb_func
 278              	I2S_Init:
 279              	.LVL33:
 280              	.LFB125:
 328:Drivers/STM32F4xx_StdPeriph_Driver/src/stm32f4xx_spi.c **** 
 329:Drivers/STM32F4xx_StdPeriph_Driver/src/stm32f4xx_spi.c **** /**
 330:Drivers/STM32F4xx_StdPeriph_Driver/src/stm32f4xx_spi.c ****   * @brief  Initializes the SPIx peripheral according to the specified 
 331:Drivers/STM32F4xx_StdPeriph_Driver/src/stm32f4xx_spi.c ****   *         parameters in the I2S_InitStruct.
 332:Drivers/STM32F4xx_StdPeriph_Driver/src/stm32f4xx_spi.c ****   * @param  SPIx: where x can be  2 or 3 to select the SPI peripheral (configured in I2S mode).
ARM GAS  /tmp/ccExwBFD.s 			page 12


 333:Drivers/STM32F4xx_StdPeriph_Driver/src/stm32f4xx_spi.c ****   * @param  I2S_InitStruct: pointer to an I2S_InitTypeDef structure that
 334:Drivers/STM32F4xx_StdPeriph_Driver/src/stm32f4xx_spi.c ****   *         contains the configuration information for the specified SPI peripheral
 335:Drivers/STM32F4xx_StdPeriph_Driver/src/stm32f4xx_spi.c ****   *         configured in I2S mode.
 336:Drivers/STM32F4xx_StdPeriph_Driver/src/stm32f4xx_spi.c ****   *           
 337:Drivers/STM32F4xx_StdPeriph_Driver/src/stm32f4xx_spi.c ****   * @note   The function calculates the optimal prescaler needed to obtain the most 
 338:Drivers/STM32F4xx_StdPeriph_Driver/src/stm32f4xx_spi.c ****   *         accurate audio frequency (depending on the I2S clock source, the PLL values 
 339:Drivers/STM32F4xx_StdPeriph_Driver/src/stm32f4xx_spi.c ****   *         and the product configuration). But in case the prescaler value is greater 
 340:Drivers/STM32F4xx_StdPeriph_Driver/src/stm32f4xx_spi.c ****   *         than 511, the default value (0x02) will be configured instead.    
 341:Drivers/STM32F4xx_StdPeriph_Driver/src/stm32f4xx_spi.c ****   * 
 342:Drivers/STM32F4xx_StdPeriph_Driver/src/stm32f4xx_spi.c ****   * @note   if an external clock is used as source clock for the I2S, then the define
 343:Drivers/STM32F4xx_StdPeriph_Driver/src/stm32f4xx_spi.c ****   *         I2S_EXTERNAL_CLOCK_VAL in file stm32f4xx_conf.h should be enabled and set
 344:Drivers/STM32F4xx_StdPeriph_Driver/src/stm32f4xx_spi.c ****   *         to the value of the source clock frequency (in Hz).
 345:Drivers/STM32F4xx_StdPeriph_Driver/src/stm32f4xx_spi.c ****   *  
 346:Drivers/STM32F4xx_StdPeriph_Driver/src/stm32f4xx_spi.c ****   * @retval None
 347:Drivers/STM32F4xx_StdPeriph_Driver/src/stm32f4xx_spi.c ****   */
 348:Drivers/STM32F4xx_StdPeriph_Driver/src/stm32f4xx_spi.c **** void I2S_Init(SPI_TypeDef* SPIx, I2S_InitTypeDef* I2S_InitStruct)
 349:Drivers/STM32F4xx_StdPeriph_Driver/src/stm32f4xx_spi.c **** {
 281              		.loc 1 349 1 is_stmt 1 view -0
 282              		.cfi_startproc
 283              		@ args = 0, pretend = 0, frame = 0
 284              		@ frame_needed = 0, uses_anonymous_args = 0
 285              		.loc 1 349 1 is_stmt 0 view .LVU73
 286 0000 70B5     		push	{r4, r5, r6, lr}
 287              		.cfi_def_cfa_offset 16
 288              		.cfi_offset 4, -16
 289              		.cfi_offset 5, -12
 290              		.cfi_offset 6, -8
 291              		.cfi_offset 14, -4
 350:Drivers/STM32F4xx_StdPeriph_Driver/src/stm32f4xx_spi.c ****   uint16_t tmpreg = 0, i2sdiv = 2, i2sodd = 0, packetlength = 1;
 292              		.loc 1 350 3 is_stmt 1 view .LVU74
 293              	.LVL34:
 351:Drivers/STM32F4xx_StdPeriph_Driver/src/stm32f4xx_spi.c ****   uint32_t tmp = 0, i2sclk = 0;
 294              		.loc 1 351 3 view .LVU75
 352:Drivers/STM32F4xx_StdPeriph_Driver/src/stm32f4xx_spi.c **** #ifndef I2S_EXTERNAL_CLOCK_VAL
 353:Drivers/STM32F4xx_StdPeriph_Driver/src/stm32f4xx_spi.c ****   uint32_t pllm = 0, plln = 0, pllr = 0;
 295              		.loc 1 353 3 view .LVU76
 354:Drivers/STM32F4xx_StdPeriph_Driver/src/stm32f4xx_spi.c **** #endif /* I2S_EXTERNAL_CLOCK_VAL */
 355:Drivers/STM32F4xx_StdPeriph_Driver/src/stm32f4xx_spi.c ****   
 356:Drivers/STM32F4xx_StdPeriph_Driver/src/stm32f4xx_spi.c ****   /* Check the I2S parameters */
 357:Drivers/STM32F4xx_StdPeriph_Driver/src/stm32f4xx_spi.c ****   assert_param(IS_SPI_23_PERIPH(SPIx));
 296              		.loc 1 357 3 view .LVU77
 358:Drivers/STM32F4xx_StdPeriph_Driver/src/stm32f4xx_spi.c ****   assert_param(IS_I2S_MODE(I2S_InitStruct->I2S_Mode));
 297              		.loc 1 358 3 view .LVU78
 359:Drivers/STM32F4xx_StdPeriph_Driver/src/stm32f4xx_spi.c ****   assert_param(IS_I2S_STANDARD(I2S_InitStruct->I2S_Standard));
 298              		.loc 1 359 3 view .LVU79
 360:Drivers/STM32F4xx_StdPeriph_Driver/src/stm32f4xx_spi.c ****   assert_param(IS_I2S_DATA_FORMAT(I2S_InitStruct->I2S_DataFormat));
 299              		.loc 1 360 3 view .LVU80
 361:Drivers/STM32F4xx_StdPeriph_Driver/src/stm32f4xx_spi.c ****   assert_param(IS_I2S_MCLK_OUTPUT(I2S_InitStruct->I2S_MCLKOutput));
 300              		.loc 1 361 3 view .LVU81
 362:Drivers/STM32F4xx_StdPeriph_Driver/src/stm32f4xx_spi.c ****   assert_param(IS_I2S_AUDIO_FREQ(I2S_InitStruct->I2S_AudioFreq));
 301              		.loc 1 362 3 view .LVU82
 363:Drivers/STM32F4xx_StdPeriph_Driver/src/stm32f4xx_spi.c ****   assert_param(IS_I2S_CPOL(I2S_InitStruct->I2S_CPOL));  
 302              		.loc 1 363 3 view .LVU83
 364:Drivers/STM32F4xx_StdPeriph_Driver/src/stm32f4xx_spi.c **** 
 365:Drivers/STM32F4xx_StdPeriph_Driver/src/stm32f4xx_spi.c **** /*----------------------- SPIx I2SCFGR & I2SPR Configuration -----------------*/
 366:Drivers/STM32F4xx_StdPeriph_Driver/src/stm32f4xx_spi.c ****   /* Clear I2SMOD, I2SE, I2SCFG, PCMSYNC, I2SSTD, CKPOL, DATLEN and CHLEN bits */
 367:Drivers/STM32F4xx_StdPeriph_Driver/src/stm32f4xx_spi.c ****   SPIx->I2SCFGR &= I2SCFGR_CLEAR_MASK; 
ARM GAS  /tmp/ccExwBFD.s 			page 13


 303              		.loc 1 367 3 view .LVU84
 304              		.loc 1 367 17 is_stmt 0 view .LVU85
 305 0002 838B     		ldrh	r3, [r0, #28]
 306 0004 9BB2     		uxth	r3, r3
 307 0006 23F47B63 		bic	r3, r3, #4016
 308 000a 23F00F03 		bic	r3, r3, #15
 309 000e 9BB2     		uxth	r3, r3
 310 0010 8383     		strh	r3, [r0, #28]	@ movhi
 368:Drivers/STM32F4xx_StdPeriph_Driver/src/stm32f4xx_spi.c ****   SPIx->I2SPR = 0x0002;
 311              		.loc 1 368 3 is_stmt 1 view .LVU86
 312              		.loc 1 368 15 is_stmt 0 view .LVU87
 313 0012 0223     		movs	r3, #2
 314 0014 0384     		strh	r3, [r0, #32]	@ movhi
 369:Drivers/STM32F4xx_StdPeriph_Driver/src/stm32f4xx_spi.c ****   
 370:Drivers/STM32F4xx_StdPeriph_Driver/src/stm32f4xx_spi.c ****   /* Get the I2SCFGR register value */
 371:Drivers/STM32F4xx_StdPeriph_Driver/src/stm32f4xx_spi.c ****   tmpreg = SPIx->I2SCFGR;
 315              		.loc 1 371 3 is_stmt 1 view .LVU88
 316              		.loc 1 371 10 is_stmt 0 view .LVU89
 317 0016 828B     		ldrh	r2, [r0, #28]
 318 0018 92B2     		uxth	r2, r2
 319              	.LVL35:
 372:Drivers/STM32F4xx_StdPeriph_Driver/src/stm32f4xx_spi.c ****   
 373:Drivers/STM32F4xx_StdPeriph_Driver/src/stm32f4xx_spi.c ****   /* If the default value has to be written, reinitialize i2sdiv and i2sodd*/
 374:Drivers/STM32F4xx_StdPeriph_Driver/src/stm32f4xx_spi.c ****   if(I2S_InitStruct->I2S_AudioFreq == I2S_AudioFreq_Default)
 320              		.loc 1 374 3 is_stmt 1 view .LVU90
 321              		.loc 1 374 20 is_stmt 0 view .LVU91
 322 001a 8B68     		ldr	r3, [r1, #8]
 323              		.loc 1 374 5 view .LVU92
 324 001c 022B     		cmp	r3, #2
 325 001e 73D0     		beq	.L28
 375:Drivers/STM32F4xx_StdPeriph_Driver/src/stm32f4xx_spi.c ****   {
 376:Drivers/STM32F4xx_StdPeriph_Driver/src/stm32f4xx_spi.c ****     i2sodd = (uint16_t)0;
 377:Drivers/STM32F4xx_StdPeriph_Driver/src/stm32f4xx_spi.c ****     i2sdiv = (uint16_t)2;   
 378:Drivers/STM32F4xx_StdPeriph_Driver/src/stm32f4xx_spi.c ****   }
 379:Drivers/STM32F4xx_StdPeriph_Driver/src/stm32f4xx_spi.c ****   /* If the requested audio frequency is not the default, compute the prescaler */
 380:Drivers/STM32F4xx_StdPeriph_Driver/src/stm32f4xx_spi.c ****   else
 381:Drivers/STM32F4xx_StdPeriph_Driver/src/stm32f4xx_spi.c ****   {
 382:Drivers/STM32F4xx_StdPeriph_Driver/src/stm32f4xx_spi.c ****     /* Check the frame length (For the Prescaler computing) *******************/
 383:Drivers/STM32F4xx_StdPeriph_Driver/src/stm32f4xx_spi.c ****     if(I2S_InitStruct->I2S_DataFormat == I2S_DataFormat_16b)
 326              		.loc 1 383 5 is_stmt 1 view .LVU93
 327              		.loc 1 383 22 is_stmt 0 view .LVU94
 328 0020 8B88     		ldrh	r3, [r1, #4]
 329              		.loc 1 383 7 view .LVU95
 330 0022 002B     		cmp	r3, #0
 331 0024 5CD1     		bne	.L29
 384:Drivers/STM32F4xx_StdPeriph_Driver/src/stm32f4xx_spi.c ****     {
 385:Drivers/STM32F4xx_StdPeriph_Driver/src/stm32f4xx_spi.c ****       /* Packet length is 16 bits */
 386:Drivers/STM32F4xx_StdPeriph_Driver/src/stm32f4xx_spi.c ****       packetlength = 1;
 332              		.loc 1 386 20 view .LVU96
 333 0026 0126     		movs	r6, #1
 334              	.L21:
 335              	.LVL36:
 387:Drivers/STM32F4xx_StdPeriph_Driver/src/stm32f4xx_spi.c ****     }
 388:Drivers/STM32F4xx_StdPeriph_Driver/src/stm32f4xx_spi.c ****     else
 389:Drivers/STM32F4xx_StdPeriph_Driver/src/stm32f4xx_spi.c ****     {
 390:Drivers/STM32F4xx_StdPeriph_Driver/src/stm32f4xx_spi.c ****       /* Packet length is 32 bits */
 391:Drivers/STM32F4xx_StdPeriph_Driver/src/stm32f4xx_spi.c ****       packetlength = 2;
ARM GAS  /tmp/ccExwBFD.s 			page 14


 392:Drivers/STM32F4xx_StdPeriph_Driver/src/stm32f4xx_spi.c ****     }
 393:Drivers/STM32F4xx_StdPeriph_Driver/src/stm32f4xx_spi.c **** 
 394:Drivers/STM32F4xx_StdPeriph_Driver/src/stm32f4xx_spi.c ****     /* Get I2S source Clock frequency  ****************************************/
 395:Drivers/STM32F4xx_StdPeriph_Driver/src/stm32f4xx_spi.c ****       
 396:Drivers/STM32F4xx_StdPeriph_Driver/src/stm32f4xx_spi.c ****     /* If an external I2S clock has to be used, this define should be set  
 397:Drivers/STM32F4xx_StdPeriph_Driver/src/stm32f4xx_spi.c ****        in the project configuration or in the stm32f4xx_conf.h file */
 398:Drivers/STM32F4xx_StdPeriph_Driver/src/stm32f4xx_spi.c ****   #ifdef I2S_EXTERNAL_CLOCK_VAL     
 399:Drivers/STM32F4xx_StdPeriph_Driver/src/stm32f4xx_spi.c ****     /* Set external clock as I2S clock source */
 400:Drivers/STM32F4xx_StdPeriph_Driver/src/stm32f4xx_spi.c ****     if ((RCC->CFGR & RCC_CFGR_I2SSRC) == 0)
 401:Drivers/STM32F4xx_StdPeriph_Driver/src/stm32f4xx_spi.c ****     {
 402:Drivers/STM32F4xx_StdPeriph_Driver/src/stm32f4xx_spi.c ****       RCC->CFGR |= (uint32_t)RCC_CFGR_I2SSRC;
 403:Drivers/STM32F4xx_StdPeriph_Driver/src/stm32f4xx_spi.c ****     }
 404:Drivers/STM32F4xx_StdPeriph_Driver/src/stm32f4xx_spi.c ****     
 405:Drivers/STM32F4xx_StdPeriph_Driver/src/stm32f4xx_spi.c ****     /* Set the I2S clock to the external clock  value */
 406:Drivers/STM32F4xx_StdPeriph_Driver/src/stm32f4xx_spi.c ****     i2sclk = I2S_EXTERNAL_CLOCK_VAL;
 407:Drivers/STM32F4xx_StdPeriph_Driver/src/stm32f4xx_spi.c **** 
 408:Drivers/STM32F4xx_StdPeriph_Driver/src/stm32f4xx_spi.c ****   #else /* There is no define for External I2S clock source */
 409:Drivers/STM32F4xx_StdPeriph_Driver/src/stm32f4xx_spi.c ****     /* Set PLLI2S as I2S clock source */
 410:Drivers/STM32F4xx_StdPeriph_Driver/src/stm32f4xx_spi.c ****     if ((RCC->CFGR & RCC_CFGR_I2SSRC) != 0)
 336              		.loc 1 410 5 is_stmt 1 view .LVU97
 337              		.loc 1 410 13 is_stmt 0 view .LVU98
 338 0028 394B     		ldr	r3, .L33
 339 002a 9B68     		ldr	r3, [r3, #8]
 340              		.loc 1 410 8 view .LVU99
 341 002c 13F4000F 		tst	r3, #8388608
 342 0030 04D0     		beq	.L22
 411:Drivers/STM32F4xx_StdPeriph_Driver/src/stm32f4xx_spi.c ****     {
 412:Drivers/STM32F4xx_StdPeriph_Driver/src/stm32f4xx_spi.c ****       RCC->CFGR &= ~(uint32_t)RCC_CFGR_I2SSRC;
 343              		.loc 1 412 7 is_stmt 1 view .LVU100
 344              		.loc 1 412 17 is_stmt 0 view .LVU101
 345 0032 374C     		ldr	r4, .L33
 346 0034 A368     		ldr	r3, [r4, #8]
 347 0036 23F40003 		bic	r3, r3, #8388608
 348 003a A360     		str	r3, [r4, #8]
 349              	.L22:
 413:Drivers/STM32F4xx_StdPeriph_Driver/src/stm32f4xx_spi.c ****     }    
 414:Drivers/STM32F4xx_StdPeriph_Driver/src/stm32f4xx_spi.c ****     
 415:Drivers/STM32F4xx_StdPeriph_Driver/src/stm32f4xx_spi.c ****     /* Get the PLLI2SN value */
 416:Drivers/STM32F4xx_StdPeriph_Driver/src/stm32f4xx_spi.c ****     plln = (uint32_t)(((RCC->PLLI2SCFGR & RCC_PLLI2SCFGR_PLLI2SN) >> 6) & \
 350              		.loc 1 416 5 is_stmt 1 view .LVU102
 351              		.loc 1 416 28 is_stmt 0 view .LVU103
 352 003c 344C     		ldr	r4, .L33
 353 003e D4F88430 		ldr	r3, [r4, #132]
 354              		.loc 1 416 10 view .LVU104
 355 0042 C3F3881C 		ubfx	ip, r3, #6, #9
 356              	.LVL37:
 417:Drivers/STM32F4xx_StdPeriph_Driver/src/stm32f4xx_spi.c ****                       (RCC_PLLI2SCFGR_PLLI2SN >> 6));
 418:Drivers/STM32F4xx_StdPeriph_Driver/src/stm32f4xx_spi.c ****     
 419:Drivers/STM32F4xx_StdPeriph_Driver/src/stm32f4xx_spi.c ****     /* Get the PLLI2SR value */
 420:Drivers/STM32F4xx_StdPeriph_Driver/src/stm32f4xx_spi.c ****     pllr = (uint32_t)(((RCC->PLLI2SCFGR & RCC_PLLI2SCFGR_PLLI2SR) >> 28) & \
 357              		.loc 1 420 5 is_stmt 1 view .LVU105
 358              		.loc 1 420 28 is_stmt 0 view .LVU106
 359 0046 D4F88430 		ldr	r3, [r4, #132]
 360              		.loc 1 420 10 view .LVU107
 361 004a C3F30273 		ubfx	r3, r3, #28, #3
 362              	.LVL38:
 421:Drivers/STM32F4xx_StdPeriph_Driver/src/stm32f4xx_spi.c ****                       (RCC_PLLI2SCFGR_PLLI2SR >> 28));
ARM GAS  /tmp/ccExwBFD.s 			page 15


 422:Drivers/STM32F4xx_StdPeriph_Driver/src/stm32f4xx_spi.c ****     
 423:Drivers/STM32F4xx_StdPeriph_Driver/src/stm32f4xx_spi.c ****     /* Get the PLLM value */
 424:Drivers/STM32F4xx_StdPeriph_Driver/src/stm32f4xx_spi.c ****     pllm = (uint32_t)(RCC->PLLCFGR & RCC_PLLCFGR_PLLM);
 363              		.loc 1 424 5 is_stmt 1 view .LVU108
 364              		.loc 1 424 26 is_stmt 0 view .LVU109
 365 004e 6568     		ldr	r5, [r4, #4]
 366              		.loc 1 424 10 view .LVU110
 367 0050 05F03F0E 		and	lr, r5, #63
 368              	.LVL39:
 425:Drivers/STM32F4xx_StdPeriph_Driver/src/stm32f4xx_spi.c **** 
 426:Drivers/STM32F4xx_StdPeriph_Driver/src/stm32f4xx_spi.c ****     if((RCC->PLLCFGR & RCC_PLLCFGR_PLLSRC) == RCC_PLLCFGR_PLLSRC_HSE)
 369              		.loc 1 426 5 is_stmt 1 view .LVU111
 370              		.loc 1 426 12 is_stmt 0 view .LVU112
 371 0054 6468     		ldr	r4, [r4, #4]
 372              		.loc 1 426 7 view .LVU113
 373 0056 14F4800F 		tst	r4, #4194304
 374 005a 43D0     		beq	.L23
 427:Drivers/STM32F4xx_StdPeriph_Driver/src/stm32f4xx_spi.c ****     {
 428:Drivers/STM32F4xx_StdPeriph_Driver/src/stm32f4xx_spi.c ****       /* Get the I2S source clock value */
 429:Drivers/STM32F4xx_StdPeriph_Driver/src/stm32f4xx_spi.c ****       i2sclk = (uint32_t)(((HSE_VALUE / pllm) * plln) / pllr);
 375              		.loc 1 429 7 is_stmt 1 view .LVU114
 376              		.loc 1 429 39 is_stmt 0 view .LVU115
 377 005c 2D4C     		ldr	r4, .L33+4
 378 005e B4FBFEFE 		udiv	lr, r4, lr
 379              	.LVL40:
 380              		.loc 1 429 47 view .LVU116
 381 0062 0CFB0EFC 		mul	ip, ip, lr
 382              	.LVL41:
 383              		.loc 1 429 14 view .LVU117
 384 0066 BCFBF3F3 		udiv	r3, ip, r3
 385              	.LVL42:
 386              	.L24:
 430:Drivers/STM32F4xx_StdPeriph_Driver/src/stm32f4xx_spi.c ****     }
 431:Drivers/STM32F4xx_StdPeriph_Driver/src/stm32f4xx_spi.c ****     else
 432:Drivers/STM32F4xx_StdPeriph_Driver/src/stm32f4xx_spi.c ****     { /* Get the I2S source clock value */
 433:Drivers/STM32F4xx_StdPeriph_Driver/src/stm32f4xx_spi.c ****       i2sclk = (uint32_t)(((HSI_VALUE / pllm) * plln) / pllr);
 434:Drivers/STM32F4xx_StdPeriph_Driver/src/stm32f4xx_spi.c ****     }
 435:Drivers/STM32F4xx_StdPeriph_Driver/src/stm32f4xx_spi.c ****   #endif /* I2S_EXTERNAL_CLOCK_VAL */
 436:Drivers/STM32F4xx_StdPeriph_Driver/src/stm32f4xx_spi.c ****     
 437:Drivers/STM32F4xx_StdPeriph_Driver/src/stm32f4xx_spi.c ****     /* Compute the Real divider depending on the MCLK output state, with a floating point */
 438:Drivers/STM32F4xx_StdPeriph_Driver/src/stm32f4xx_spi.c ****     if(I2S_InitStruct->I2S_MCLKOutput == I2S_MCLKOutput_Enable)
 387              		.loc 1 438 5 is_stmt 1 view .LVU118
 388              		.loc 1 438 22 is_stmt 0 view .LVU119
 389 006a CC88     		ldrh	r4, [r1, #6]
 390              		.loc 1 438 7 view .LVU120
 391 006c B4F5007F 		cmp	r4, #512
 392 0070 40D0     		beq	.L32
 439:Drivers/STM32F4xx_StdPeriph_Driver/src/stm32f4xx_spi.c ****     {
 440:Drivers/STM32F4xx_StdPeriph_Driver/src/stm32f4xx_spi.c ****       /* MCLK output is enabled */
 441:Drivers/STM32F4xx_StdPeriph_Driver/src/stm32f4xx_spi.c ****       tmp = (uint16_t)(((((i2sclk / 256) * 10) / I2S_InitStruct->I2S_AudioFreq)) + 5);
 442:Drivers/STM32F4xx_StdPeriph_Driver/src/stm32f4xx_spi.c ****     }
 443:Drivers/STM32F4xx_StdPeriph_Driver/src/stm32f4xx_spi.c ****     else
 444:Drivers/STM32F4xx_StdPeriph_Driver/src/stm32f4xx_spi.c ****     {
 445:Drivers/STM32F4xx_StdPeriph_Driver/src/stm32f4xx_spi.c ****       /* MCLK output is disabled */
 446:Drivers/STM32F4xx_StdPeriph_Driver/src/stm32f4xx_spi.c ****       tmp = (uint16_t)(((((i2sclk / (32 * packetlength)) *10 ) / I2S_InitStruct->I2S_AudioFreq)) + 
 393              		.loc 1 446 7 is_stmt 1 view .LVU121
 394              		.loc 1 446 41 is_stmt 0 view .LVU122
ARM GAS  /tmp/ccExwBFD.s 			page 16


 395 0072 7601     		lsls	r6, r6, #5
 396              	.LVL43:
 397              		.loc 1 446 35 view .LVU123
 398 0074 B3FBF6F3 		udiv	r3, r3, r6
 399              	.LVL44:
 400              		.loc 1 446 58 view .LVU124
 401 0078 03EB8303 		add	r3, r3, r3, lsl #2
 402 007c 5B00     		lsls	r3, r3, #1
 403              		.loc 1 446 80 view .LVU125
 404 007e 8C68     		ldr	r4, [r1, #8]
 405              		.loc 1 446 64 view .LVU126
 406 0080 B3FBF4F3 		udiv	r3, r3, r4
 407              		.loc 1 446 13 view .LVU127
 408 0084 0533     		adds	r3, r3, #5
 409 0086 9BB2     		uxth	r3, r3
 410              	.LVL45:
 411              	.L26:
 447:Drivers/STM32F4xx_StdPeriph_Driver/src/stm32f4xx_spi.c ****     }
 448:Drivers/STM32F4xx_StdPeriph_Driver/src/stm32f4xx_spi.c ****     
 449:Drivers/STM32F4xx_StdPeriph_Driver/src/stm32f4xx_spi.c ****     /* Remove the flatting point */
 450:Drivers/STM32F4xx_StdPeriph_Driver/src/stm32f4xx_spi.c ****     tmp = tmp / 10;  
 412              		.loc 1 450 5 is_stmt 1 view .LVU128
 413              		.loc 1 450 9 is_stmt 0 view .LVU129
 414 0088 234C     		ldr	r4, .L33+8
 415 008a A4FB0343 		umull	r4, r3, r4, r3
 416              	.LVL46:
 451:Drivers/STM32F4xx_StdPeriph_Driver/src/stm32f4xx_spi.c ****       
 452:Drivers/STM32F4xx_StdPeriph_Driver/src/stm32f4xx_spi.c ****     /* Check the parity of the divider */
 453:Drivers/STM32F4xx_StdPeriph_Driver/src/stm32f4xx_spi.c ****     i2sodd = (uint16_t)(tmp & (uint16_t)0x0001);
 417              		.loc 1 453 5 is_stmt 1 view .LVU130
 418              		.loc 1 453 12 is_stmt 0 view .LVU131
 419 008e C3F3C00C 		ubfx	ip, r3, #3, #1
 420              	.LVL47:
 454:Drivers/STM32F4xx_StdPeriph_Driver/src/stm32f4xx_spi.c ****    
 455:Drivers/STM32F4xx_StdPeriph_Driver/src/stm32f4xx_spi.c ****     /* Compute the i2sdiv prescaler */
 456:Drivers/STM32F4xx_StdPeriph_Driver/src/stm32f4xx_spi.c ****     i2sdiv = (uint16_t)((tmp - i2sodd) / 2);
 421              		.loc 1 456 5 is_stmt 1 view .LVU132
 422              		.loc 1 456 30 is_stmt 0 view .LVU133
 423 0092 CCEBD303 		rsb	r3, ip, r3, lsr #3
 424              	.LVL48:
 425              		.loc 1 456 12 view .LVU134
 426 0096 C3F34F03 		ubfx	r3, r3, #1, #16
 427              	.LVL49:
 457:Drivers/STM32F4xx_StdPeriph_Driver/src/stm32f4xx_spi.c ****    
 458:Drivers/STM32F4xx_StdPeriph_Driver/src/stm32f4xx_spi.c ****     /* Get the Mask for the Odd bit (SPI_I2SPR[8]) register */
 459:Drivers/STM32F4xx_StdPeriph_Driver/src/stm32f4xx_spi.c ****     i2sodd = (uint16_t) (i2sodd << 8);
 428              		.loc 1 459 5 is_stmt 1 view .LVU135
 429              		.loc 1 459 12 is_stmt 0 view .LVU136
 430 009a 4FEA0C2E 		lsl	lr, ip, #8
 431              	.LVL50:
 432              	.L20:
 460:Drivers/STM32F4xx_StdPeriph_Driver/src/stm32f4xx_spi.c ****   }
 461:Drivers/STM32F4xx_StdPeriph_Driver/src/stm32f4xx_spi.c **** 
 462:Drivers/STM32F4xx_StdPeriph_Driver/src/stm32f4xx_spi.c ****   /* Test if the divider is 1 or 0 or greater than 0xFF */
 463:Drivers/STM32F4xx_StdPeriph_Driver/src/stm32f4xx_spi.c ****   if ((i2sdiv < 2) || (i2sdiv > 0xFF))
 433              		.loc 1 463 3 is_stmt 1 view .LVU137
 434              		.loc 1 463 20 is_stmt 0 view .LVU138
ARM GAS  /tmp/ccExwBFD.s 			page 17


 435 009e A3F1020C 		sub	ip, r3, #2
 436 00a2 1FFA8CFC 		uxth	ip, ip
 437              		.loc 1 463 6 view .LVU139
 438 00a6 BCF1FD0F 		cmp	ip, #253
 439 00aa 02D9     		bls	.L27
 464:Drivers/STM32F4xx_StdPeriph_Driver/src/stm32f4xx_spi.c ****   {
 465:Drivers/STM32F4xx_StdPeriph_Driver/src/stm32f4xx_spi.c ****     /* Set the default values */
 466:Drivers/STM32F4xx_StdPeriph_Driver/src/stm32f4xx_spi.c ****     i2sdiv = 2;
 467:Drivers/STM32F4xx_StdPeriph_Driver/src/stm32f4xx_spi.c ****     i2sodd = 0;
 440              		.loc 1 467 12 view .LVU140
 441 00ac 4FF0000E 		mov	lr, #0
 442              	.LVL51:
 466:Drivers/STM32F4xx_StdPeriph_Driver/src/stm32f4xx_spi.c ****     i2sodd = 0;
 443              		.loc 1 466 12 view .LVU141
 444 00b0 0223     		movs	r3, #2
 445              	.LVL52:
 446              	.L27:
 468:Drivers/STM32F4xx_StdPeriph_Driver/src/stm32f4xx_spi.c ****   }
 469:Drivers/STM32F4xx_StdPeriph_Driver/src/stm32f4xx_spi.c **** 
 470:Drivers/STM32F4xx_StdPeriph_Driver/src/stm32f4xx_spi.c ****   /* Write to SPIx I2SPR register the computed value */
 471:Drivers/STM32F4xx_StdPeriph_Driver/src/stm32f4xx_spi.c ****   SPIx->I2SPR = (uint16_t)((uint16_t)i2sdiv | (uint16_t)(i2sodd | (uint16_t)I2S_InitStruct->I2S_MCL
 447              		.loc 1 471 3 is_stmt 1 view .LVU142
 448              		.loc 1 471 91 is_stmt 0 view .LVU143
 449 00b2 B1F806C0 		ldrh	ip, [r1, #6]
 450              		.loc 1 471 47 view .LVU144
 451 00b6 4CEA0E0C 		orr	ip, ip, lr
 452              		.loc 1 471 17 view .LVU145
 453 00ba 4CEA0303 		orr	r3, ip, r3
 454              	.LVL53:
 455              		.loc 1 471 15 view .LVU146
 456 00be 0384     		strh	r3, [r0, #32]	@ movhi
 472:Drivers/STM32F4xx_StdPeriph_Driver/src/stm32f4xx_spi.c ****  
 473:Drivers/STM32F4xx_StdPeriph_Driver/src/stm32f4xx_spi.c ****   /* Configure the I2S with the SPI_InitStruct values */
 474:Drivers/STM32F4xx_StdPeriph_Driver/src/stm32f4xx_spi.c ****   tmpreg |= (uint16_t)((uint16_t)SPI_I2SCFGR_I2SMOD | (uint16_t)(I2S_InitStruct->I2S_Mode | \
 457              		.loc 1 474 3 is_stmt 1 view .LVU147
 458              		.loc 1 474 80 is_stmt 0 view .LVU148
 459 00c0 0B88     		ldrh	r3, [r1]
 475:Drivers/STM32F4xx_StdPeriph_Driver/src/stm32f4xx_spi.c ****                   (uint16_t)(I2S_InitStruct->I2S_Standard | (uint16_t)(I2S_InitStruct->I2S_DataForm
 460              		.loc 1 475 44 view .LVU149
 461 00c2 B1F802C0 		ldrh	ip, [r1, #2]
 462              		.loc 1 475 86 view .LVU150
 463 00c6 B1F804E0 		ldrh	lr, [r1, #4]
 464              	.LVL54:
 476:Drivers/STM32F4xx_StdPeriph_Driver/src/stm32f4xx_spi.c ****                   (uint16_t)I2S_InitStruct->I2S_CPOL))));
 465              		.loc 1 476 43 view .LVU151
 466 00ca 8989     		ldrh	r1, [r1, #12]
 467              	.LVL55:
 475:Drivers/STM32F4xx_StdPeriph_Driver/src/stm32f4xx_spi.c ****                   (uint16_t)(I2S_InitStruct->I2S_Standard | (uint16_t)(I2S_InitStruct->I2S_DataForm
 468              		.loc 1 475 61 view .LVU152
 469 00cc 4EEA0101 		orr	r1, lr, r1
 475:Drivers/STM32F4xx_StdPeriph_Driver/src/stm32f4xx_spi.c ****                   (uint16_t)(I2S_InitStruct->I2S_Standard | (uint16_t)(I2S_InitStruct->I2S_DataForm
 470              		.loc 1 475 19 view .LVU153
 471 00d0 4CEA0101 		orr	r1, ip, r1
 474:Drivers/STM32F4xx_StdPeriph_Driver/src/stm32f4xx_spi.c ****                   (uint16_t)(I2S_InitStruct->I2S_Standard | (uint16_t)(I2S_InitStruct->I2S_DataForm
 472              		.loc 1 474 55 view .LVU154
 473 00d4 0B43     		orrs	r3, r3, r1
 474:Drivers/STM32F4xx_StdPeriph_Driver/src/stm32f4xx_spi.c ****                   (uint16_t)(I2S_InitStruct->I2S_Standard | (uint16_t)(I2S_InitStruct->I2S_DataForm
ARM GAS  /tmp/ccExwBFD.s 			page 18


 474              		.loc 1 474 10 view .LVU155
 475 00d6 1A43     		orrs	r2, r2, r3
 476              	.LVL56:
 474:Drivers/STM32F4xx_StdPeriph_Driver/src/stm32f4xx_spi.c ****                   (uint16_t)(I2S_InitStruct->I2S_Standard | (uint16_t)(I2S_InitStruct->I2S_DataForm
 477              		.loc 1 474 10 view .LVU156
 478 00d8 42F40062 		orr	r2, r2, #2048
 479              	.LVL57:
 477:Drivers/STM32F4xx_StdPeriph_Driver/src/stm32f4xx_spi.c ****  
 478:Drivers/STM32F4xx_StdPeriph_Driver/src/stm32f4xx_spi.c ****   /* Write to SPIx I2SCFGR */  
 479:Drivers/STM32F4xx_StdPeriph_Driver/src/stm32f4xx_spi.c ****   SPIx->I2SCFGR = tmpreg;
 480              		.loc 1 479 3 is_stmt 1 view .LVU157
 481              		.loc 1 479 17 is_stmt 0 view .LVU158
 482 00dc 8283     		strh	r2, [r0, #28]	@ movhi
 480:Drivers/STM32F4xx_StdPeriph_Driver/src/stm32f4xx_spi.c **** }
 483              		.loc 1 480 1 view .LVU159
 484 00de 70BD     		pop	{r4, r5, r6, pc}
 485              	.LVL58:
 486              	.L29:
 391:Drivers/STM32F4xx_StdPeriph_Driver/src/stm32f4xx_spi.c ****     }
 487              		.loc 1 391 20 view .LVU160
 488 00e0 0226     		movs	r6, #2
 489 00e2 A1E7     		b	.L21
 490              	.LVL59:
 491              	.L23:
 433:Drivers/STM32F4xx_StdPeriph_Driver/src/stm32f4xx_spi.c ****     }
 492              		.loc 1 433 7 is_stmt 1 view .LVU161
 433:Drivers/STM32F4xx_StdPeriph_Driver/src/stm32f4xx_spi.c ****     }
 493              		.loc 1 433 39 is_stmt 0 view .LVU162
 494 00e4 0D4C     		ldr	r4, .L33+12
 495 00e6 B4FBFEFE 		udiv	lr, r4, lr
 496              	.LVL60:
 433:Drivers/STM32F4xx_StdPeriph_Driver/src/stm32f4xx_spi.c ****     }
 497              		.loc 1 433 47 view .LVU163
 498 00ea 0CFB0EFC 		mul	ip, ip, lr
 499              	.LVL61:
 433:Drivers/STM32F4xx_StdPeriph_Driver/src/stm32f4xx_spi.c ****     }
 500              		.loc 1 433 14 view .LVU164
 501 00ee BCFBF3F3 		udiv	r3, ip, r3
 502              	.LVL62:
 433:Drivers/STM32F4xx_StdPeriph_Driver/src/stm32f4xx_spi.c ****     }
 503              		.loc 1 433 14 view .LVU165
 504 00f2 BAE7     		b	.L24
 505              	.L32:
 441:Drivers/STM32F4xx_StdPeriph_Driver/src/stm32f4xx_spi.c ****     }
 506              		.loc 1 441 7 is_stmt 1 view .LVU166
 441:Drivers/STM32F4xx_StdPeriph_Driver/src/stm32f4xx_spi.c ****     }
 507              		.loc 1 441 35 is_stmt 0 view .LVU167
 508 00f4 1B0A     		lsrs	r3, r3, #8
 509              	.LVL63:
 441:Drivers/STM32F4xx_StdPeriph_Driver/src/stm32f4xx_spi.c ****     }
 510              		.loc 1 441 42 view .LVU168
 511 00f6 03EB8303 		add	r3, r3, r3, lsl #2
 512 00fa 5B00     		lsls	r3, r3, #1
 441:Drivers/STM32F4xx_StdPeriph_Driver/src/stm32f4xx_spi.c ****     }
 513              		.loc 1 441 64 view .LVU169
 514 00fc 8C68     		ldr	r4, [r1, #8]
 441:Drivers/STM32F4xx_StdPeriph_Driver/src/stm32f4xx_spi.c ****     }
ARM GAS  /tmp/ccExwBFD.s 			page 19


 515              		.loc 1 441 48 view .LVU170
 516 00fe B3FBF4F3 		udiv	r3, r3, r4
 441:Drivers/STM32F4xx_StdPeriph_Driver/src/stm32f4xx_spi.c ****     }
 517              		.loc 1 441 13 view .LVU171
 518 0102 0533     		adds	r3, r3, #5
 519 0104 9BB2     		uxth	r3, r3
 520              	.LVL64:
 441:Drivers/STM32F4xx_StdPeriph_Driver/src/stm32f4xx_spi.c ****     }
 521              		.loc 1 441 13 view .LVU172
 522 0106 BFE7     		b	.L26
 523              	.LVL65:
 524              	.L28:
 376:Drivers/STM32F4xx_StdPeriph_Driver/src/stm32f4xx_spi.c ****     i2sdiv = (uint16_t)2;   
 525              		.loc 1 376 12 view .LVU173
 526 0108 4FF0000E 		mov	lr, #0
 377:Drivers/STM32F4xx_StdPeriph_Driver/src/stm32f4xx_spi.c ****   }
 527              		.loc 1 377 12 view .LVU174
 528 010c 0223     		movs	r3, #2
 529 010e C6E7     		b	.L20
 530              	.L34:
 531              		.align	2
 532              	.L33:
 533 0110 00380240 		.word	1073887232
 534 0114 00127A00 		.word	8000000
 535 0118 CDCCCCCC 		.word	-858993459
 536 011c 0024F400 		.word	16000000
 537              		.cfi_endproc
 538              	.LFE125:
 540              		.section	.text.SPI_StructInit,"ax",%progbits
 541              		.align	1
 542              		.global	SPI_StructInit
 543              		.syntax unified
 544              		.thumb
 545              		.thumb_func
 547              	SPI_StructInit:
 548              	.LVL66:
 549              	.LFB126:
 481:Drivers/STM32F4xx_StdPeriph_Driver/src/stm32f4xx_spi.c **** 
 482:Drivers/STM32F4xx_StdPeriph_Driver/src/stm32f4xx_spi.c **** /**
 483:Drivers/STM32F4xx_StdPeriph_Driver/src/stm32f4xx_spi.c ****   * @brief  Fills each SPI_InitStruct member with its default value.
 484:Drivers/STM32F4xx_StdPeriph_Driver/src/stm32f4xx_spi.c ****   * @param  SPI_InitStruct: pointer to a SPI_InitTypeDef structure which will be initialized.
 485:Drivers/STM32F4xx_StdPeriph_Driver/src/stm32f4xx_spi.c ****   * @retval None
 486:Drivers/STM32F4xx_StdPeriph_Driver/src/stm32f4xx_spi.c ****   */
 487:Drivers/STM32F4xx_StdPeriph_Driver/src/stm32f4xx_spi.c **** void SPI_StructInit(SPI_InitTypeDef* SPI_InitStruct)
 488:Drivers/STM32F4xx_StdPeriph_Driver/src/stm32f4xx_spi.c **** {
 550              		.loc 1 488 1 is_stmt 1 view -0
 551              		.cfi_startproc
 552              		@ args = 0, pretend = 0, frame = 0
 553              		@ frame_needed = 0, uses_anonymous_args = 0
 554              		@ link register save eliminated.
 489:Drivers/STM32F4xx_StdPeriph_Driver/src/stm32f4xx_spi.c **** /*--------------- Reset SPI init structure parameters values -----------------*/
 490:Drivers/STM32F4xx_StdPeriph_Driver/src/stm32f4xx_spi.c ****   /* Initialize the SPI_Direction member */
 491:Drivers/STM32F4xx_StdPeriph_Driver/src/stm32f4xx_spi.c ****   SPI_InitStruct->SPI_Direction = SPI_Direction_2Lines_FullDuplex;
 555              		.loc 1 491 3 view .LVU176
 556              		.loc 1 491 33 is_stmt 0 view .LVU177
 557 0000 0023     		movs	r3, #0
 558 0002 0380     		strh	r3, [r0]	@ movhi
ARM GAS  /tmp/ccExwBFD.s 			page 20


 492:Drivers/STM32F4xx_StdPeriph_Driver/src/stm32f4xx_spi.c ****   /* initialize the SPI_Mode member */
 493:Drivers/STM32F4xx_StdPeriph_Driver/src/stm32f4xx_spi.c ****   SPI_InitStruct->SPI_Mode = SPI_Mode_Slave;
 559              		.loc 1 493 3 is_stmt 1 view .LVU178
 560              		.loc 1 493 28 is_stmt 0 view .LVU179
 561 0004 4380     		strh	r3, [r0, #2]	@ movhi
 494:Drivers/STM32F4xx_StdPeriph_Driver/src/stm32f4xx_spi.c ****   /* initialize the SPI_DataSize member */
 495:Drivers/STM32F4xx_StdPeriph_Driver/src/stm32f4xx_spi.c ****   SPI_InitStruct->SPI_DataSize = SPI_DataSize_8b;
 562              		.loc 1 495 3 is_stmt 1 view .LVU180
 563              		.loc 1 495 32 is_stmt 0 view .LVU181
 564 0006 8380     		strh	r3, [r0, #4]	@ movhi
 496:Drivers/STM32F4xx_StdPeriph_Driver/src/stm32f4xx_spi.c ****   /* Initialize the SPI_CPOL member */
 497:Drivers/STM32F4xx_StdPeriph_Driver/src/stm32f4xx_spi.c ****   SPI_InitStruct->SPI_CPOL = SPI_CPOL_Low;
 565              		.loc 1 497 3 is_stmt 1 view .LVU182
 566              		.loc 1 497 28 is_stmt 0 view .LVU183
 567 0008 C380     		strh	r3, [r0, #6]	@ movhi
 498:Drivers/STM32F4xx_StdPeriph_Driver/src/stm32f4xx_spi.c ****   /* Initialize the SPI_CPHA member */
 499:Drivers/STM32F4xx_StdPeriph_Driver/src/stm32f4xx_spi.c ****   SPI_InitStruct->SPI_CPHA = SPI_CPHA_1Edge;
 568              		.loc 1 499 3 is_stmt 1 view .LVU184
 569              		.loc 1 499 28 is_stmt 0 view .LVU185
 570 000a 0381     		strh	r3, [r0, #8]	@ movhi
 500:Drivers/STM32F4xx_StdPeriph_Driver/src/stm32f4xx_spi.c ****   /* Initialize the SPI_NSS member */
 501:Drivers/STM32F4xx_StdPeriph_Driver/src/stm32f4xx_spi.c ****   SPI_InitStruct->SPI_NSS = SPI_NSS_Hard;
 571              		.loc 1 501 3 is_stmt 1 view .LVU186
 572              		.loc 1 501 27 is_stmt 0 view .LVU187
 573 000c 4381     		strh	r3, [r0, #10]	@ movhi
 502:Drivers/STM32F4xx_StdPeriph_Driver/src/stm32f4xx_spi.c ****   /* Initialize the SPI_BaudRatePrescaler member */
 503:Drivers/STM32F4xx_StdPeriph_Driver/src/stm32f4xx_spi.c ****   SPI_InitStruct->SPI_BaudRatePrescaler = SPI_BaudRatePrescaler_2;
 574              		.loc 1 503 3 is_stmt 1 view .LVU188
 575              		.loc 1 503 41 is_stmt 0 view .LVU189
 576 000e 8381     		strh	r3, [r0, #12]	@ movhi
 504:Drivers/STM32F4xx_StdPeriph_Driver/src/stm32f4xx_spi.c ****   /* Initialize the SPI_FirstBit member */
 505:Drivers/STM32F4xx_StdPeriph_Driver/src/stm32f4xx_spi.c ****   SPI_InitStruct->SPI_FirstBit = SPI_FirstBit_MSB;
 577              		.loc 1 505 3 is_stmt 1 view .LVU190
 578              		.loc 1 505 32 is_stmt 0 view .LVU191
 579 0010 C381     		strh	r3, [r0, #14]	@ movhi
 506:Drivers/STM32F4xx_StdPeriph_Driver/src/stm32f4xx_spi.c ****   /* Initialize the SPI_CRCPolynomial member */
 507:Drivers/STM32F4xx_StdPeriph_Driver/src/stm32f4xx_spi.c ****   SPI_InitStruct->SPI_CRCPolynomial = 7;
 580              		.loc 1 507 3 is_stmt 1 view .LVU192
 581              		.loc 1 507 37 is_stmt 0 view .LVU193
 582 0012 0723     		movs	r3, #7
 583 0014 0382     		strh	r3, [r0, #16]	@ movhi
 508:Drivers/STM32F4xx_StdPeriph_Driver/src/stm32f4xx_spi.c **** }
 584              		.loc 1 508 1 view .LVU194
 585 0016 7047     		bx	lr
 586              		.cfi_endproc
 587              	.LFE126:
 589              		.section	.text.I2S_StructInit,"ax",%progbits
 590              		.align	1
 591              		.global	I2S_StructInit
 592              		.syntax unified
 593              		.thumb
 594              		.thumb_func
 596              	I2S_StructInit:
 597              	.LVL67:
 598              	.LFB127:
 509:Drivers/STM32F4xx_StdPeriph_Driver/src/stm32f4xx_spi.c **** 
 510:Drivers/STM32F4xx_StdPeriph_Driver/src/stm32f4xx_spi.c **** /**
ARM GAS  /tmp/ccExwBFD.s 			page 21


 511:Drivers/STM32F4xx_StdPeriph_Driver/src/stm32f4xx_spi.c ****   * @brief  Fills each I2S_InitStruct member with its default value.
 512:Drivers/STM32F4xx_StdPeriph_Driver/src/stm32f4xx_spi.c ****   * @param  I2S_InitStruct: pointer to a I2S_InitTypeDef structure which will be initialized.
 513:Drivers/STM32F4xx_StdPeriph_Driver/src/stm32f4xx_spi.c ****   * @retval None
 514:Drivers/STM32F4xx_StdPeriph_Driver/src/stm32f4xx_spi.c ****   */
 515:Drivers/STM32F4xx_StdPeriph_Driver/src/stm32f4xx_spi.c **** void I2S_StructInit(I2S_InitTypeDef* I2S_InitStruct)
 516:Drivers/STM32F4xx_StdPeriph_Driver/src/stm32f4xx_spi.c **** {
 599              		.loc 1 516 1 is_stmt 1 view -0
 600              		.cfi_startproc
 601              		@ args = 0, pretend = 0, frame = 0
 602              		@ frame_needed = 0, uses_anonymous_args = 0
 603              		@ link register save eliminated.
 517:Drivers/STM32F4xx_StdPeriph_Driver/src/stm32f4xx_spi.c **** /*--------------- Reset I2S init structure parameters values -----------------*/
 518:Drivers/STM32F4xx_StdPeriph_Driver/src/stm32f4xx_spi.c ****   /* Initialize the I2S_Mode member */
 519:Drivers/STM32F4xx_StdPeriph_Driver/src/stm32f4xx_spi.c ****   I2S_InitStruct->I2S_Mode = I2S_Mode_SlaveTx;
 604              		.loc 1 519 3 view .LVU196
 605              		.loc 1 519 28 is_stmt 0 view .LVU197
 606 0000 0023     		movs	r3, #0
 607 0002 0380     		strh	r3, [r0]	@ movhi
 520:Drivers/STM32F4xx_StdPeriph_Driver/src/stm32f4xx_spi.c ****   
 521:Drivers/STM32F4xx_StdPeriph_Driver/src/stm32f4xx_spi.c ****   /* Initialize the I2S_Standard member */
 522:Drivers/STM32F4xx_StdPeriph_Driver/src/stm32f4xx_spi.c ****   I2S_InitStruct->I2S_Standard = I2S_Standard_Phillips;
 608              		.loc 1 522 3 is_stmt 1 view .LVU198
 609              		.loc 1 522 32 is_stmt 0 view .LVU199
 610 0004 4380     		strh	r3, [r0, #2]	@ movhi
 523:Drivers/STM32F4xx_StdPeriph_Driver/src/stm32f4xx_spi.c ****   
 524:Drivers/STM32F4xx_StdPeriph_Driver/src/stm32f4xx_spi.c ****   /* Initialize the I2S_DataFormat member */
 525:Drivers/STM32F4xx_StdPeriph_Driver/src/stm32f4xx_spi.c ****   I2S_InitStruct->I2S_DataFormat = I2S_DataFormat_16b;
 611              		.loc 1 525 3 is_stmt 1 view .LVU200
 612              		.loc 1 525 34 is_stmt 0 view .LVU201
 613 0006 8380     		strh	r3, [r0, #4]	@ movhi
 526:Drivers/STM32F4xx_StdPeriph_Driver/src/stm32f4xx_spi.c ****   
 527:Drivers/STM32F4xx_StdPeriph_Driver/src/stm32f4xx_spi.c ****   /* Initialize the I2S_MCLKOutput member */
 528:Drivers/STM32F4xx_StdPeriph_Driver/src/stm32f4xx_spi.c ****   I2S_InitStruct->I2S_MCLKOutput = I2S_MCLKOutput_Disable;
 614              		.loc 1 528 3 is_stmt 1 view .LVU202
 615              		.loc 1 528 34 is_stmt 0 view .LVU203
 616 0008 C380     		strh	r3, [r0, #6]	@ movhi
 529:Drivers/STM32F4xx_StdPeriph_Driver/src/stm32f4xx_spi.c ****   
 530:Drivers/STM32F4xx_StdPeriph_Driver/src/stm32f4xx_spi.c ****   /* Initialize the I2S_AudioFreq member */
 531:Drivers/STM32F4xx_StdPeriph_Driver/src/stm32f4xx_spi.c ****   I2S_InitStruct->I2S_AudioFreq = I2S_AudioFreq_Default;
 617              		.loc 1 531 3 is_stmt 1 view .LVU204
 618              		.loc 1 531 33 is_stmt 0 view .LVU205
 619 000a 0222     		movs	r2, #2
 620 000c 8260     		str	r2, [r0, #8]
 532:Drivers/STM32F4xx_StdPeriph_Driver/src/stm32f4xx_spi.c ****   
 533:Drivers/STM32F4xx_StdPeriph_Driver/src/stm32f4xx_spi.c ****   /* Initialize the I2S_CPOL member */
 534:Drivers/STM32F4xx_StdPeriph_Driver/src/stm32f4xx_spi.c ****   I2S_InitStruct->I2S_CPOL = I2S_CPOL_Low;
 621              		.loc 1 534 3 is_stmt 1 view .LVU206
 622              		.loc 1 534 28 is_stmt 0 view .LVU207
 623 000e 8381     		strh	r3, [r0, #12]	@ movhi
 535:Drivers/STM32F4xx_StdPeriph_Driver/src/stm32f4xx_spi.c **** }
 624              		.loc 1 535 1 view .LVU208
 625 0010 7047     		bx	lr
 626              		.cfi_endproc
 627              	.LFE127:
 629              		.section	.text.SPI_Cmd,"ax",%progbits
 630              		.align	1
 631              		.global	SPI_Cmd
ARM GAS  /tmp/ccExwBFD.s 			page 22


 632              		.syntax unified
 633              		.thumb
 634              		.thumb_func
 636              	SPI_Cmd:
 637              	.LVL68:
 638              	.LFB128:
 536:Drivers/STM32F4xx_StdPeriph_Driver/src/stm32f4xx_spi.c **** 
 537:Drivers/STM32F4xx_StdPeriph_Driver/src/stm32f4xx_spi.c **** /**
 538:Drivers/STM32F4xx_StdPeriph_Driver/src/stm32f4xx_spi.c ****   * @brief  Enables or disables the specified SPI peripheral.
 539:Drivers/STM32F4xx_StdPeriph_Driver/src/stm32f4xx_spi.c ****   * @param  SPIx: where x can be 1, 2, 3, 4, 5 or 6 to select the SPI peripheral.
 540:Drivers/STM32F4xx_StdPeriph_Driver/src/stm32f4xx_spi.c ****   * @param  NewState: new state of the SPIx peripheral. 
 541:Drivers/STM32F4xx_StdPeriph_Driver/src/stm32f4xx_spi.c ****   *          This parameter can be: ENABLE or DISABLE.
 542:Drivers/STM32F4xx_StdPeriph_Driver/src/stm32f4xx_spi.c ****   * @retval None
 543:Drivers/STM32F4xx_StdPeriph_Driver/src/stm32f4xx_spi.c ****   */
 544:Drivers/STM32F4xx_StdPeriph_Driver/src/stm32f4xx_spi.c **** void SPI_Cmd(SPI_TypeDef* SPIx, FunctionalState NewState)
 545:Drivers/STM32F4xx_StdPeriph_Driver/src/stm32f4xx_spi.c **** {
 639              		.loc 1 545 1 is_stmt 1 view -0
 640              		.cfi_startproc
 641              		@ args = 0, pretend = 0, frame = 0
 642              		@ frame_needed = 0, uses_anonymous_args = 0
 643              		@ link register save eliminated.
 546:Drivers/STM32F4xx_StdPeriph_Driver/src/stm32f4xx_spi.c ****   /* Check the parameters */
 547:Drivers/STM32F4xx_StdPeriph_Driver/src/stm32f4xx_spi.c ****   assert_param(IS_SPI_ALL_PERIPH(SPIx));
 644              		.loc 1 547 3 view .LVU210
 548:Drivers/STM32F4xx_StdPeriph_Driver/src/stm32f4xx_spi.c ****   assert_param(IS_FUNCTIONAL_STATE(NewState));
 645              		.loc 1 548 3 view .LVU211
 549:Drivers/STM32F4xx_StdPeriph_Driver/src/stm32f4xx_spi.c ****   if (NewState != DISABLE)
 646              		.loc 1 549 3 view .LVU212
 647              		.loc 1 549 6 is_stmt 0 view .LVU213
 648 0000 29B1     		cbz	r1, .L38
 550:Drivers/STM32F4xx_StdPeriph_Driver/src/stm32f4xx_spi.c ****   {
 551:Drivers/STM32F4xx_StdPeriph_Driver/src/stm32f4xx_spi.c ****     /* Enable the selected SPI peripheral */
 552:Drivers/STM32F4xx_StdPeriph_Driver/src/stm32f4xx_spi.c ****     SPIx->CR1 |= SPI_CR1_SPE;
 649              		.loc 1 552 5 is_stmt 1 view .LVU214
 650              		.loc 1 552 15 is_stmt 0 view .LVU215
 651 0002 0388     		ldrh	r3, [r0]
 652 0004 9BB2     		uxth	r3, r3
 653 0006 43F04003 		orr	r3, r3, #64
 654 000a 0380     		strh	r3, [r0]	@ movhi
 655 000c 7047     		bx	lr
 656              	.L38:
 553:Drivers/STM32F4xx_StdPeriph_Driver/src/stm32f4xx_spi.c ****   }
 554:Drivers/STM32F4xx_StdPeriph_Driver/src/stm32f4xx_spi.c ****   else
 555:Drivers/STM32F4xx_StdPeriph_Driver/src/stm32f4xx_spi.c ****   {
 556:Drivers/STM32F4xx_StdPeriph_Driver/src/stm32f4xx_spi.c ****     /* Disable the selected SPI peripheral */
 557:Drivers/STM32F4xx_StdPeriph_Driver/src/stm32f4xx_spi.c ****     SPIx->CR1 &= (uint16_t)~((uint16_t)SPI_CR1_SPE);
 657              		.loc 1 557 5 is_stmt 1 view .LVU216
 658              		.loc 1 557 15 is_stmt 0 view .LVU217
 659 000e 0388     		ldrh	r3, [r0]
 660 0010 9BB2     		uxth	r3, r3
 661 0012 23F04003 		bic	r3, r3, #64
 662 0016 9BB2     		uxth	r3, r3
 663 0018 0380     		strh	r3, [r0]	@ movhi
 558:Drivers/STM32F4xx_StdPeriph_Driver/src/stm32f4xx_spi.c ****   }
 559:Drivers/STM32F4xx_StdPeriph_Driver/src/stm32f4xx_spi.c **** }
 664              		.loc 1 559 1 view .LVU218
 665 001a 7047     		bx	lr
ARM GAS  /tmp/ccExwBFD.s 			page 23


 666              		.cfi_endproc
 667              	.LFE128:
 669              		.section	.text.I2S_Cmd,"ax",%progbits
 670              		.align	1
 671              		.global	I2S_Cmd
 672              		.syntax unified
 673              		.thumb
 674              		.thumb_func
 676              	I2S_Cmd:
 677              	.LVL69:
 678              	.LFB129:
 560:Drivers/STM32F4xx_StdPeriph_Driver/src/stm32f4xx_spi.c **** 
 561:Drivers/STM32F4xx_StdPeriph_Driver/src/stm32f4xx_spi.c **** /**
 562:Drivers/STM32F4xx_StdPeriph_Driver/src/stm32f4xx_spi.c ****   * @brief  Enables or disables the specified SPI peripheral (in I2S mode).
 563:Drivers/STM32F4xx_StdPeriph_Driver/src/stm32f4xx_spi.c ****   * @param  SPIx: where x can be 2 or 3 to select the SPI peripheral (or I2Sxext 
 564:Drivers/STM32F4xx_StdPeriph_Driver/src/stm32f4xx_spi.c ****   *         for full duplex mode).
 565:Drivers/STM32F4xx_StdPeriph_Driver/src/stm32f4xx_spi.c ****   * @param  NewState: new state of the SPIx peripheral. 
 566:Drivers/STM32F4xx_StdPeriph_Driver/src/stm32f4xx_spi.c ****   *         This parameter can be: ENABLE or DISABLE.
 567:Drivers/STM32F4xx_StdPeriph_Driver/src/stm32f4xx_spi.c ****   * @retval None
 568:Drivers/STM32F4xx_StdPeriph_Driver/src/stm32f4xx_spi.c ****   */
 569:Drivers/STM32F4xx_StdPeriph_Driver/src/stm32f4xx_spi.c **** void I2S_Cmd(SPI_TypeDef* SPIx, FunctionalState NewState)
 570:Drivers/STM32F4xx_StdPeriph_Driver/src/stm32f4xx_spi.c **** {
 679              		.loc 1 570 1 is_stmt 1 view -0
 680              		.cfi_startproc
 681              		@ args = 0, pretend = 0, frame = 0
 682              		@ frame_needed = 0, uses_anonymous_args = 0
 683              		@ link register save eliminated.
 571:Drivers/STM32F4xx_StdPeriph_Driver/src/stm32f4xx_spi.c ****   /* Check the parameters */
 572:Drivers/STM32F4xx_StdPeriph_Driver/src/stm32f4xx_spi.c ****   assert_param(IS_SPI_23_PERIPH_EXT(SPIx));
 684              		.loc 1 572 3 view .LVU220
 573:Drivers/STM32F4xx_StdPeriph_Driver/src/stm32f4xx_spi.c ****   assert_param(IS_FUNCTIONAL_STATE(NewState));
 685              		.loc 1 573 3 view .LVU221
 574:Drivers/STM32F4xx_StdPeriph_Driver/src/stm32f4xx_spi.c ****   
 575:Drivers/STM32F4xx_StdPeriph_Driver/src/stm32f4xx_spi.c ****   if (NewState != DISABLE)
 686              		.loc 1 575 3 view .LVU222
 687              		.loc 1 575 6 is_stmt 0 view .LVU223
 688 0000 29B1     		cbz	r1, .L41
 576:Drivers/STM32F4xx_StdPeriph_Driver/src/stm32f4xx_spi.c ****   {
 577:Drivers/STM32F4xx_StdPeriph_Driver/src/stm32f4xx_spi.c ****     /* Enable the selected SPI peripheral (in I2S mode) */
 578:Drivers/STM32F4xx_StdPeriph_Driver/src/stm32f4xx_spi.c ****     SPIx->I2SCFGR |= SPI_I2SCFGR_I2SE;
 689              		.loc 1 578 5 is_stmt 1 view .LVU224
 690              		.loc 1 578 19 is_stmt 0 view .LVU225
 691 0002 838B     		ldrh	r3, [r0, #28]
 692 0004 9BB2     		uxth	r3, r3
 693 0006 43F48063 		orr	r3, r3, #1024
 694 000a 8383     		strh	r3, [r0, #28]	@ movhi
 695 000c 7047     		bx	lr
 696              	.L41:
 579:Drivers/STM32F4xx_StdPeriph_Driver/src/stm32f4xx_spi.c ****   }
 580:Drivers/STM32F4xx_StdPeriph_Driver/src/stm32f4xx_spi.c ****   else
 581:Drivers/STM32F4xx_StdPeriph_Driver/src/stm32f4xx_spi.c ****   {
 582:Drivers/STM32F4xx_StdPeriph_Driver/src/stm32f4xx_spi.c ****     /* Disable the selected SPI peripheral in I2S mode */
 583:Drivers/STM32F4xx_StdPeriph_Driver/src/stm32f4xx_spi.c ****     SPIx->I2SCFGR &= (uint16_t)~((uint16_t)SPI_I2SCFGR_I2SE);
 697              		.loc 1 583 5 is_stmt 1 view .LVU226
 698              		.loc 1 583 19 is_stmt 0 view .LVU227
 699 000e 838B     		ldrh	r3, [r0, #28]
 700 0010 9BB2     		uxth	r3, r3
ARM GAS  /tmp/ccExwBFD.s 			page 24


 701 0012 23F48063 		bic	r3, r3, #1024
 702 0016 9BB2     		uxth	r3, r3
 703 0018 8383     		strh	r3, [r0, #28]	@ movhi
 584:Drivers/STM32F4xx_StdPeriph_Driver/src/stm32f4xx_spi.c ****   }
 585:Drivers/STM32F4xx_StdPeriph_Driver/src/stm32f4xx_spi.c **** }
 704              		.loc 1 585 1 view .LVU228
 705 001a 7047     		bx	lr
 706              		.cfi_endproc
 707              	.LFE129:
 709              		.section	.text.SPI_DataSizeConfig,"ax",%progbits
 710              		.align	1
 711              		.global	SPI_DataSizeConfig
 712              		.syntax unified
 713              		.thumb
 714              		.thumb_func
 716              	SPI_DataSizeConfig:
 717              	.LVL70:
 718              	.LFB130:
 586:Drivers/STM32F4xx_StdPeriph_Driver/src/stm32f4xx_spi.c **** 
 587:Drivers/STM32F4xx_StdPeriph_Driver/src/stm32f4xx_spi.c **** /**
 588:Drivers/STM32F4xx_StdPeriph_Driver/src/stm32f4xx_spi.c ****   * @brief  Configures the data size for the selected SPI.
 589:Drivers/STM32F4xx_StdPeriph_Driver/src/stm32f4xx_spi.c ****   * @param  SPIx: where x can be 1, 2, 3, 4, 5 or 6 to select the SPI peripheral.
 590:Drivers/STM32F4xx_StdPeriph_Driver/src/stm32f4xx_spi.c ****   * @param  SPI_DataSize: specifies the SPI data size.
 591:Drivers/STM32F4xx_StdPeriph_Driver/src/stm32f4xx_spi.c ****   *          This parameter can be one of the following values:
 592:Drivers/STM32F4xx_StdPeriph_Driver/src/stm32f4xx_spi.c ****   *            @arg SPI_DataSize_16b: Set data frame format to 16bit
 593:Drivers/STM32F4xx_StdPeriph_Driver/src/stm32f4xx_spi.c ****   *            @arg SPI_DataSize_8b: Set data frame format to 8bit
 594:Drivers/STM32F4xx_StdPeriph_Driver/src/stm32f4xx_spi.c ****   * @retval None
 595:Drivers/STM32F4xx_StdPeriph_Driver/src/stm32f4xx_spi.c ****   */
 596:Drivers/STM32F4xx_StdPeriph_Driver/src/stm32f4xx_spi.c **** void SPI_DataSizeConfig(SPI_TypeDef* SPIx, uint16_t SPI_DataSize)
 597:Drivers/STM32F4xx_StdPeriph_Driver/src/stm32f4xx_spi.c **** {
 719              		.loc 1 597 1 is_stmt 1 view -0
 720              		.cfi_startproc
 721              		@ args = 0, pretend = 0, frame = 0
 722              		@ frame_needed = 0, uses_anonymous_args = 0
 723              		@ link register save eliminated.
 598:Drivers/STM32F4xx_StdPeriph_Driver/src/stm32f4xx_spi.c ****   /* Check the parameters */
 599:Drivers/STM32F4xx_StdPeriph_Driver/src/stm32f4xx_spi.c ****   assert_param(IS_SPI_ALL_PERIPH(SPIx));
 724              		.loc 1 599 3 view .LVU230
 600:Drivers/STM32F4xx_StdPeriph_Driver/src/stm32f4xx_spi.c ****   assert_param(IS_SPI_DATASIZE(SPI_DataSize));
 725              		.loc 1 600 3 view .LVU231
 601:Drivers/STM32F4xx_StdPeriph_Driver/src/stm32f4xx_spi.c ****   /* Clear DFF bit */
 602:Drivers/STM32F4xx_StdPeriph_Driver/src/stm32f4xx_spi.c ****   SPIx->CR1 &= (uint16_t)~SPI_DataSize_16b;
 726              		.loc 1 602 3 view .LVU232
 727              		.loc 1 602 13 is_stmt 0 view .LVU233
 728 0000 0388     		ldrh	r3, [r0]
 729 0002 9BB2     		uxth	r3, r3
 730 0004 23F40063 		bic	r3, r3, #2048
 731 0008 9BB2     		uxth	r3, r3
 732 000a 0380     		strh	r3, [r0]	@ movhi
 603:Drivers/STM32F4xx_StdPeriph_Driver/src/stm32f4xx_spi.c ****   /* Set new DFF bit value */
 604:Drivers/STM32F4xx_StdPeriph_Driver/src/stm32f4xx_spi.c ****   SPIx->CR1 |= SPI_DataSize;
 733              		.loc 1 604 3 is_stmt 1 view .LVU234
 734              		.loc 1 604 13 is_stmt 0 view .LVU235
 735 000c 0388     		ldrh	r3, [r0]
 736 000e 9BB2     		uxth	r3, r3
 737 0010 0B43     		orrs	r3, r3, r1
 738 0012 0380     		strh	r3, [r0]	@ movhi
ARM GAS  /tmp/ccExwBFD.s 			page 25


 605:Drivers/STM32F4xx_StdPeriph_Driver/src/stm32f4xx_spi.c **** }
 739              		.loc 1 605 1 view .LVU236
 740 0014 7047     		bx	lr
 741              		.cfi_endproc
 742              	.LFE130:
 744              		.section	.text.SPI_BiDirectionalLineConfig,"ax",%progbits
 745              		.align	1
 746              		.global	SPI_BiDirectionalLineConfig
 747              		.syntax unified
 748              		.thumb
 749              		.thumb_func
 751              	SPI_BiDirectionalLineConfig:
 752              	.LVL71:
 753              	.LFB131:
 606:Drivers/STM32F4xx_StdPeriph_Driver/src/stm32f4xx_spi.c **** 
 607:Drivers/STM32F4xx_StdPeriph_Driver/src/stm32f4xx_spi.c **** /**
 608:Drivers/STM32F4xx_StdPeriph_Driver/src/stm32f4xx_spi.c ****   * @brief  Selects the data transfer direction in bidirectional mode for the specified SPI.
 609:Drivers/STM32F4xx_StdPeriph_Driver/src/stm32f4xx_spi.c ****   * @param  SPIx: where x can be 1, 2, 3, 4, 5 or 6 to select the SPI peripheral.
 610:Drivers/STM32F4xx_StdPeriph_Driver/src/stm32f4xx_spi.c ****   * @param  SPI_Direction: specifies the data transfer direction in bidirectional mode. 
 611:Drivers/STM32F4xx_StdPeriph_Driver/src/stm32f4xx_spi.c ****   *          This parameter can be one of the following values:
 612:Drivers/STM32F4xx_StdPeriph_Driver/src/stm32f4xx_spi.c ****   *            @arg SPI_Direction_Tx: Selects Tx transmission direction
 613:Drivers/STM32F4xx_StdPeriph_Driver/src/stm32f4xx_spi.c ****   *            @arg SPI_Direction_Rx: Selects Rx receive direction
 614:Drivers/STM32F4xx_StdPeriph_Driver/src/stm32f4xx_spi.c ****   * @retval None
 615:Drivers/STM32F4xx_StdPeriph_Driver/src/stm32f4xx_spi.c ****   */
 616:Drivers/STM32F4xx_StdPeriph_Driver/src/stm32f4xx_spi.c **** void SPI_BiDirectionalLineConfig(SPI_TypeDef* SPIx, uint16_t SPI_Direction)
 617:Drivers/STM32F4xx_StdPeriph_Driver/src/stm32f4xx_spi.c **** {
 754              		.loc 1 617 1 is_stmt 1 view -0
 755              		.cfi_startproc
 756              		@ args = 0, pretend = 0, frame = 0
 757              		@ frame_needed = 0, uses_anonymous_args = 0
 758              		@ link register save eliminated.
 618:Drivers/STM32F4xx_StdPeriph_Driver/src/stm32f4xx_spi.c ****   /* Check the parameters */
 619:Drivers/STM32F4xx_StdPeriph_Driver/src/stm32f4xx_spi.c ****   assert_param(IS_SPI_ALL_PERIPH(SPIx));
 759              		.loc 1 619 3 view .LVU238
 620:Drivers/STM32F4xx_StdPeriph_Driver/src/stm32f4xx_spi.c ****   assert_param(IS_SPI_DIRECTION(SPI_Direction));
 760              		.loc 1 620 3 view .LVU239
 621:Drivers/STM32F4xx_StdPeriph_Driver/src/stm32f4xx_spi.c ****   if (SPI_Direction == SPI_Direction_Tx)
 761              		.loc 1 621 3 view .LVU240
 762              		.loc 1 621 6 is_stmt 0 view .LVU241
 763 0000 B1F5804F 		cmp	r1, #16384
 764 0004 06D0     		beq	.L47
 622:Drivers/STM32F4xx_StdPeriph_Driver/src/stm32f4xx_spi.c ****   {
 623:Drivers/STM32F4xx_StdPeriph_Driver/src/stm32f4xx_spi.c ****     /* Set the Tx only mode */
 624:Drivers/STM32F4xx_StdPeriph_Driver/src/stm32f4xx_spi.c ****     SPIx->CR1 |= SPI_Direction_Tx;
 625:Drivers/STM32F4xx_StdPeriph_Driver/src/stm32f4xx_spi.c ****   }
 626:Drivers/STM32F4xx_StdPeriph_Driver/src/stm32f4xx_spi.c ****   else
 627:Drivers/STM32F4xx_StdPeriph_Driver/src/stm32f4xx_spi.c ****   {
 628:Drivers/STM32F4xx_StdPeriph_Driver/src/stm32f4xx_spi.c ****     /* Set the Rx only mode */
 629:Drivers/STM32F4xx_StdPeriph_Driver/src/stm32f4xx_spi.c ****     SPIx->CR1 &= SPI_Direction_Rx;
 765              		.loc 1 629 5 is_stmt 1 view .LVU242
 766              		.loc 1 629 15 is_stmt 0 view .LVU243
 767 0006 0388     		ldrh	r3, [r0]
 768 0008 9BB2     		uxth	r3, r3
 769 000a 23F48043 		bic	r3, r3, #16384
 770 000e 9BB2     		uxth	r3, r3
 771 0010 0380     		strh	r3, [r0]	@ movhi
 630:Drivers/STM32F4xx_StdPeriph_Driver/src/stm32f4xx_spi.c ****   }
ARM GAS  /tmp/ccExwBFD.s 			page 26


 631:Drivers/STM32F4xx_StdPeriph_Driver/src/stm32f4xx_spi.c **** }
 772              		.loc 1 631 1 view .LVU244
 773 0012 7047     		bx	lr
 774              	.L47:
 624:Drivers/STM32F4xx_StdPeriph_Driver/src/stm32f4xx_spi.c ****   }
 775              		.loc 1 624 5 is_stmt 1 view .LVU245
 624:Drivers/STM32F4xx_StdPeriph_Driver/src/stm32f4xx_spi.c ****   }
 776              		.loc 1 624 15 is_stmt 0 view .LVU246
 777 0014 0388     		ldrh	r3, [r0]
 778 0016 9BB2     		uxth	r3, r3
 779 0018 43F48043 		orr	r3, r3, #16384
 780 001c 0380     		strh	r3, [r0]	@ movhi
 781 001e 7047     		bx	lr
 782              		.cfi_endproc
 783              	.LFE131:
 785              		.section	.text.SPI_NSSInternalSoftwareConfig,"ax",%progbits
 786              		.align	1
 787              		.global	SPI_NSSInternalSoftwareConfig
 788              		.syntax unified
 789              		.thumb
 790              		.thumb_func
 792              	SPI_NSSInternalSoftwareConfig:
 793              	.LVL72:
 794              	.LFB132:
 632:Drivers/STM32F4xx_StdPeriph_Driver/src/stm32f4xx_spi.c **** 
 633:Drivers/STM32F4xx_StdPeriph_Driver/src/stm32f4xx_spi.c **** /**
 634:Drivers/STM32F4xx_StdPeriph_Driver/src/stm32f4xx_spi.c ****   * @brief  Configures internally by software the NSS pin for the selected SPI.
 635:Drivers/STM32F4xx_StdPeriph_Driver/src/stm32f4xx_spi.c ****   * @param  SPIx: where x can be 1, 2, 3, 4, 5 or 6 to select the SPI peripheral.
 636:Drivers/STM32F4xx_StdPeriph_Driver/src/stm32f4xx_spi.c ****   * @param  SPI_NSSInternalSoft: specifies the SPI NSS internal state.
 637:Drivers/STM32F4xx_StdPeriph_Driver/src/stm32f4xx_spi.c ****   *          This parameter can be one of the following values:
 638:Drivers/STM32F4xx_StdPeriph_Driver/src/stm32f4xx_spi.c ****   *            @arg SPI_NSSInternalSoft_Set: Set NSS pin internally
 639:Drivers/STM32F4xx_StdPeriph_Driver/src/stm32f4xx_spi.c ****   *            @arg SPI_NSSInternalSoft_Reset: Reset NSS pin internally
 640:Drivers/STM32F4xx_StdPeriph_Driver/src/stm32f4xx_spi.c ****   * @retval None
 641:Drivers/STM32F4xx_StdPeriph_Driver/src/stm32f4xx_spi.c ****   */
 642:Drivers/STM32F4xx_StdPeriph_Driver/src/stm32f4xx_spi.c **** void SPI_NSSInternalSoftwareConfig(SPI_TypeDef* SPIx, uint16_t SPI_NSSInternalSoft)
 643:Drivers/STM32F4xx_StdPeriph_Driver/src/stm32f4xx_spi.c **** {
 795              		.loc 1 643 1 is_stmt 1 view -0
 796              		.cfi_startproc
 797              		@ args = 0, pretend = 0, frame = 0
 798              		@ frame_needed = 0, uses_anonymous_args = 0
 799              		@ link register save eliminated.
 644:Drivers/STM32F4xx_StdPeriph_Driver/src/stm32f4xx_spi.c ****   /* Check the parameters */
 645:Drivers/STM32F4xx_StdPeriph_Driver/src/stm32f4xx_spi.c ****   assert_param(IS_SPI_ALL_PERIPH(SPIx));
 800              		.loc 1 645 3 view .LVU248
 646:Drivers/STM32F4xx_StdPeriph_Driver/src/stm32f4xx_spi.c ****   assert_param(IS_SPI_NSS_INTERNAL(SPI_NSSInternalSoft));
 801              		.loc 1 646 3 view .LVU249
 647:Drivers/STM32F4xx_StdPeriph_Driver/src/stm32f4xx_spi.c ****   if (SPI_NSSInternalSoft != SPI_NSSInternalSoft_Reset)
 802              		.loc 1 647 3 view .LVU250
 803              		.loc 1 647 6 is_stmt 0 view .LVU251
 804 0000 4FF6FF63 		movw	r3, #65279
 805 0004 9942     		cmp	r1, r3
 806 0006 05D0     		beq	.L49
 648:Drivers/STM32F4xx_StdPeriph_Driver/src/stm32f4xx_spi.c ****   {
 649:Drivers/STM32F4xx_StdPeriph_Driver/src/stm32f4xx_spi.c ****     /* Set NSS pin internally by software */
 650:Drivers/STM32F4xx_StdPeriph_Driver/src/stm32f4xx_spi.c ****     SPIx->CR1 |= SPI_NSSInternalSoft_Set;
 807              		.loc 1 650 5 is_stmt 1 view .LVU252
 808              		.loc 1 650 15 is_stmt 0 view .LVU253
ARM GAS  /tmp/ccExwBFD.s 			page 27


 809 0008 0388     		ldrh	r3, [r0]
 810 000a 9BB2     		uxth	r3, r3
 811 000c 43F48073 		orr	r3, r3, #256
 812 0010 0380     		strh	r3, [r0]	@ movhi
 813 0012 7047     		bx	lr
 814              	.L49:
 651:Drivers/STM32F4xx_StdPeriph_Driver/src/stm32f4xx_spi.c ****   }
 652:Drivers/STM32F4xx_StdPeriph_Driver/src/stm32f4xx_spi.c ****   else
 653:Drivers/STM32F4xx_StdPeriph_Driver/src/stm32f4xx_spi.c ****   {
 654:Drivers/STM32F4xx_StdPeriph_Driver/src/stm32f4xx_spi.c ****     /* Reset NSS pin internally by software */
 655:Drivers/STM32F4xx_StdPeriph_Driver/src/stm32f4xx_spi.c ****     SPIx->CR1 &= SPI_NSSInternalSoft_Reset;
 815              		.loc 1 655 5 is_stmt 1 view .LVU254
 816              		.loc 1 655 15 is_stmt 0 view .LVU255
 817 0014 0388     		ldrh	r3, [r0]
 818 0016 9BB2     		uxth	r3, r3
 819 0018 23F48073 		bic	r3, r3, #256
 820 001c 9BB2     		uxth	r3, r3
 821 001e 0380     		strh	r3, [r0]	@ movhi
 656:Drivers/STM32F4xx_StdPeriph_Driver/src/stm32f4xx_spi.c ****   }
 657:Drivers/STM32F4xx_StdPeriph_Driver/src/stm32f4xx_spi.c **** }
 822              		.loc 1 657 1 view .LVU256
 823 0020 7047     		bx	lr
 824              		.cfi_endproc
 825              	.LFE132:
 827              		.section	.text.SPI_SSOutputCmd,"ax",%progbits
 828              		.align	1
 829              		.global	SPI_SSOutputCmd
 830              		.syntax unified
 831              		.thumb
 832              		.thumb_func
 834              	SPI_SSOutputCmd:
 835              	.LVL73:
 836              	.LFB133:
 658:Drivers/STM32F4xx_StdPeriph_Driver/src/stm32f4xx_spi.c **** 
 659:Drivers/STM32F4xx_StdPeriph_Driver/src/stm32f4xx_spi.c **** /**
 660:Drivers/STM32F4xx_StdPeriph_Driver/src/stm32f4xx_spi.c ****   * @brief  Enables or disables the SS output for the selected SPI.
 661:Drivers/STM32F4xx_StdPeriph_Driver/src/stm32f4xx_spi.c ****   * @param  SPIx: where x can be 1, 2, 3, 4, 5 or 6 to select the SPI peripheral.
 662:Drivers/STM32F4xx_StdPeriph_Driver/src/stm32f4xx_spi.c ****   * @param  NewState: new state of the SPIx SS output. 
 663:Drivers/STM32F4xx_StdPeriph_Driver/src/stm32f4xx_spi.c ****   *          This parameter can be: ENABLE or DISABLE.
 664:Drivers/STM32F4xx_StdPeriph_Driver/src/stm32f4xx_spi.c ****   * @retval None
 665:Drivers/STM32F4xx_StdPeriph_Driver/src/stm32f4xx_spi.c ****   */
 666:Drivers/STM32F4xx_StdPeriph_Driver/src/stm32f4xx_spi.c **** void SPI_SSOutputCmd(SPI_TypeDef* SPIx, FunctionalState NewState)
 667:Drivers/STM32F4xx_StdPeriph_Driver/src/stm32f4xx_spi.c **** {
 837              		.loc 1 667 1 is_stmt 1 view -0
 838              		.cfi_startproc
 839              		@ args = 0, pretend = 0, frame = 0
 840              		@ frame_needed = 0, uses_anonymous_args = 0
 841              		@ link register save eliminated.
 668:Drivers/STM32F4xx_StdPeriph_Driver/src/stm32f4xx_spi.c ****   /* Check the parameters */
 669:Drivers/STM32F4xx_StdPeriph_Driver/src/stm32f4xx_spi.c ****   assert_param(IS_SPI_ALL_PERIPH(SPIx));
 842              		.loc 1 669 3 view .LVU258
 670:Drivers/STM32F4xx_StdPeriph_Driver/src/stm32f4xx_spi.c ****   assert_param(IS_FUNCTIONAL_STATE(NewState));
 843              		.loc 1 670 3 view .LVU259
 671:Drivers/STM32F4xx_StdPeriph_Driver/src/stm32f4xx_spi.c ****   if (NewState != DISABLE)
 844              		.loc 1 671 3 view .LVU260
 845              		.loc 1 671 6 is_stmt 0 view .LVU261
 846 0000 29B1     		cbz	r1, .L52
ARM GAS  /tmp/ccExwBFD.s 			page 28


 672:Drivers/STM32F4xx_StdPeriph_Driver/src/stm32f4xx_spi.c ****   {
 673:Drivers/STM32F4xx_StdPeriph_Driver/src/stm32f4xx_spi.c ****     /* Enable the selected SPI SS output */
 674:Drivers/STM32F4xx_StdPeriph_Driver/src/stm32f4xx_spi.c ****     SPIx->CR2 |= (uint16_t)SPI_CR2_SSOE;
 847              		.loc 1 674 5 is_stmt 1 view .LVU262
 848              		.loc 1 674 15 is_stmt 0 view .LVU263
 849 0002 8388     		ldrh	r3, [r0, #4]
 850 0004 9BB2     		uxth	r3, r3
 851 0006 43F00403 		orr	r3, r3, #4
 852 000a 8380     		strh	r3, [r0, #4]	@ movhi
 853 000c 7047     		bx	lr
 854              	.L52:
 675:Drivers/STM32F4xx_StdPeriph_Driver/src/stm32f4xx_spi.c ****   }
 676:Drivers/STM32F4xx_StdPeriph_Driver/src/stm32f4xx_spi.c ****   else
 677:Drivers/STM32F4xx_StdPeriph_Driver/src/stm32f4xx_spi.c ****   {
 678:Drivers/STM32F4xx_StdPeriph_Driver/src/stm32f4xx_spi.c ****     /* Disable the selected SPI SS output */
 679:Drivers/STM32F4xx_StdPeriph_Driver/src/stm32f4xx_spi.c ****     SPIx->CR2 &= (uint16_t)~((uint16_t)SPI_CR2_SSOE);
 855              		.loc 1 679 5 is_stmt 1 view .LVU264
 856              		.loc 1 679 15 is_stmt 0 view .LVU265
 857 000e 8388     		ldrh	r3, [r0, #4]
 858 0010 9BB2     		uxth	r3, r3
 859 0012 23F00403 		bic	r3, r3, #4
 860 0016 9BB2     		uxth	r3, r3
 861 0018 8380     		strh	r3, [r0, #4]	@ movhi
 680:Drivers/STM32F4xx_StdPeriph_Driver/src/stm32f4xx_spi.c ****   }
 681:Drivers/STM32F4xx_StdPeriph_Driver/src/stm32f4xx_spi.c **** }
 862              		.loc 1 681 1 view .LVU266
 863 001a 7047     		bx	lr
 864              		.cfi_endproc
 865              	.LFE133:
 867              		.section	.text.SPI_TIModeCmd,"ax",%progbits
 868              		.align	1
 869              		.global	SPI_TIModeCmd
 870              		.syntax unified
 871              		.thumb
 872              		.thumb_func
 874              	SPI_TIModeCmd:
 875              	.LVL74:
 876              	.LFB134:
 682:Drivers/STM32F4xx_StdPeriph_Driver/src/stm32f4xx_spi.c **** 
 683:Drivers/STM32F4xx_StdPeriph_Driver/src/stm32f4xx_spi.c **** /**
 684:Drivers/STM32F4xx_StdPeriph_Driver/src/stm32f4xx_spi.c ****   * @brief  Enables or disables the SPIx/I2Sx DMA interface.
 685:Drivers/STM32F4xx_StdPeriph_Driver/src/stm32f4xx_spi.c ****   *   
 686:Drivers/STM32F4xx_StdPeriph_Driver/src/stm32f4xx_spi.c ****   * @note   This function can be called only after the SPI_Init() function has 
 687:Drivers/STM32F4xx_StdPeriph_Driver/src/stm32f4xx_spi.c ****   *         been called. 
 688:Drivers/STM32F4xx_StdPeriph_Driver/src/stm32f4xx_spi.c ****   * @note   When TI mode is selected, the control bits SSM, SSI, CPOL and CPHA 
 689:Drivers/STM32F4xx_StdPeriph_Driver/src/stm32f4xx_spi.c ****   *         are not taken into consideration and are configured by hardware
 690:Drivers/STM32F4xx_StdPeriph_Driver/src/stm32f4xx_spi.c ****   *         respectively to the TI mode requirements.  
 691:Drivers/STM32F4xx_StdPeriph_Driver/src/stm32f4xx_spi.c ****   * 
 692:Drivers/STM32F4xx_StdPeriph_Driver/src/stm32f4xx_spi.c ****   * @param  SPIx: where x can be 1, 2, 3, 4, 5 or 6 
 693:Drivers/STM32F4xx_StdPeriph_Driver/src/stm32f4xx_spi.c ****   * @param  NewState: new state of the selected SPI TI communication mode.
 694:Drivers/STM32F4xx_StdPeriph_Driver/src/stm32f4xx_spi.c ****   *          This parameter can be: ENABLE or DISABLE.
 695:Drivers/STM32F4xx_StdPeriph_Driver/src/stm32f4xx_spi.c ****   * @retval None
 696:Drivers/STM32F4xx_StdPeriph_Driver/src/stm32f4xx_spi.c ****   */
 697:Drivers/STM32F4xx_StdPeriph_Driver/src/stm32f4xx_spi.c **** void SPI_TIModeCmd(SPI_TypeDef* SPIx, FunctionalState NewState)
 698:Drivers/STM32F4xx_StdPeriph_Driver/src/stm32f4xx_spi.c **** {
 877              		.loc 1 698 1 is_stmt 1 view -0
 878              		.cfi_startproc
ARM GAS  /tmp/ccExwBFD.s 			page 29


 879              		@ args = 0, pretend = 0, frame = 0
 880              		@ frame_needed = 0, uses_anonymous_args = 0
 881              		@ link register save eliminated.
 699:Drivers/STM32F4xx_StdPeriph_Driver/src/stm32f4xx_spi.c ****   /* Check the parameters */
 700:Drivers/STM32F4xx_StdPeriph_Driver/src/stm32f4xx_spi.c ****   assert_param(IS_SPI_ALL_PERIPH(SPIx));
 882              		.loc 1 700 3 view .LVU268
 701:Drivers/STM32F4xx_StdPeriph_Driver/src/stm32f4xx_spi.c ****   assert_param(IS_FUNCTIONAL_STATE(NewState));
 883              		.loc 1 701 3 view .LVU269
 702:Drivers/STM32F4xx_StdPeriph_Driver/src/stm32f4xx_spi.c **** 
 703:Drivers/STM32F4xx_StdPeriph_Driver/src/stm32f4xx_spi.c ****   if (NewState != DISABLE)
 884              		.loc 1 703 3 view .LVU270
 885              		.loc 1 703 6 is_stmt 0 view .LVU271
 886 0000 29B1     		cbz	r1, .L55
 704:Drivers/STM32F4xx_StdPeriph_Driver/src/stm32f4xx_spi.c ****   {
 705:Drivers/STM32F4xx_StdPeriph_Driver/src/stm32f4xx_spi.c ****     /* Enable the TI mode for the selected SPI peripheral */
 706:Drivers/STM32F4xx_StdPeriph_Driver/src/stm32f4xx_spi.c ****     SPIx->CR2 |= SPI_CR2_FRF;
 887              		.loc 1 706 5 is_stmt 1 view .LVU272
 888              		.loc 1 706 15 is_stmt 0 view .LVU273
 889 0002 8388     		ldrh	r3, [r0, #4]
 890 0004 9BB2     		uxth	r3, r3
 891 0006 43F01003 		orr	r3, r3, #16
 892 000a 8380     		strh	r3, [r0, #4]	@ movhi
 893 000c 7047     		bx	lr
 894              	.L55:
 707:Drivers/STM32F4xx_StdPeriph_Driver/src/stm32f4xx_spi.c ****   }
 708:Drivers/STM32F4xx_StdPeriph_Driver/src/stm32f4xx_spi.c ****   else
 709:Drivers/STM32F4xx_StdPeriph_Driver/src/stm32f4xx_spi.c ****   {
 710:Drivers/STM32F4xx_StdPeriph_Driver/src/stm32f4xx_spi.c ****     /* Disable the TI mode for the selected SPI peripheral */
 711:Drivers/STM32F4xx_StdPeriph_Driver/src/stm32f4xx_spi.c ****     SPIx->CR2 &= (uint16_t)~SPI_CR2_FRF;
 895              		.loc 1 711 5 is_stmt 1 view .LVU274
 896              		.loc 1 711 15 is_stmt 0 view .LVU275
 897 000e 8388     		ldrh	r3, [r0, #4]
 898 0010 9BB2     		uxth	r3, r3
 899 0012 23F01003 		bic	r3, r3, #16
 900 0016 9BB2     		uxth	r3, r3
 901 0018 8380     		strh	r3, [r0, #4]	@ movhi
 712:Drivers/STM32F4xx_StdPeriph_Driver/src/stm32f4xx_spi.c ****   }
 713:Drivers/STM32F4xx_StdPeriph_Driver/src/stm32f4xx_spi.c **** }
 902              		.loc 1 713 1 view .LVU276
 903 001a 7047     		bx	lr
 904              		.cfi_endproc
 905              	.LFE134:
 907              		.section	.text.I2S_FullDuplexConfig,"ax",%progbits
 908              		.align	1
 909              		.global	I2S_FullDuplexConfig
 910              		.syntax unified
 911              		.thumb
 912              		.thumb_func
 914              	I2S_FullDuplexConfig:
 915              	.LVL75:
 916              	.LFB135:
 714:Drivers/STM32F4xx_StdPeriph_Driver/src/stm32f4xx_spi.c **** 
 715:Drivers/STM32F4xx_StdPeriph_Driver/src/stm32f4xx_spi.c **** /**
 716:Drivers/STM32F4xx_StdPeriph_Driver/src/stm32f4xx_spi.c ****   * @brief  Configures the full duplex mode for the I2Sx peripheral using its
 717:Drivers/STM32F4xx_StdPeriph_Driver/src/stm32f4xx_spi.c ****   *         extension I2Sxext according to the specified parameters in the 
 718:Drivers/STM32F4xx_StdPeriph_Driver/src/stm32f4xx_spi.c ****   *         I2S_InitStruct.
 719:Drivers/STM32F4xx_StdPeriph_Driver/src/stm32f4xx_spi.c ****   * @param  I2Sxext: where x can be  2 or 3 to select the I2S peripheral extension block.
ARM GAS  /tmp/ccExwBFD.s 			page 30


 720:Drivers/STM32F4xx_StdPeriph_Driver/src/stm32f4xx_spi.c ****   * @param  I2S_InitStruct: pointer to an I2S_InitTypeDef structure that
 721:Drivers/STM32F4xx_StdPeriph_Driver/src/stm32f4xx_spi.c ****   *         contains the configuration information for the specified I2S peripheral
 722:Drivers/STM32F4xx_StdPeriph_Driver/src/stm32f4xx_spi.c ****   *         extension.
 723:Drivers/STM32F4xx_StdPeriph_Driver/src/stm32f4xx_spi.c ****   * 
 724:Drivers/STM32F4xx_StdPeriph_Driver/src/stm32f4xx_spi.c ****   * @note   The structure pointed by I2S_InitStruct parameter should be the same
 725:Drivers/STM32F4xx_StdPeriph_Driver/src/stm32f4xx_spi.c ****   *         used for the master I2S peripheral. In this case, if the master is 
 726:Drivers/STM32F4xx_StdPeriph_Driver/src/stm32f4xx_spi.c ****   *         configured as transmitter, the slave will be receiver and vice versa.
 727:Drivers/STM32F4xx_StdPeriph_Driver/src/stm32f4xx_spi.c ****   *         Or you can force a different mode by modifying the field I2S_Mode to the
 728:Drivers/STM32F4xx_StdPeriph_Driver/src/stm32f4xx_spi.c ****   *         value I2S_SlaveRx or I2S_SlaveTx independently of the master configuration.    
 729:Drivers/STM32F4xx_StdPeriph_Driver/src/stm32f4xx_spi.c ****   *         
 730:Drivers/STM32F4xx_StdPeriph_Driver/src/stm32f4xx_spi.c ****   * @note   The I2S full duplex extension can be configured in slave mode only.    
 731:Drivers/STM32F4xx_StdPeriph_Driver/src/stm32f4xx_spi.c ****   *  
 732:Drivers/STM32F4xx_StdPeriph_Driver/src/stm32f4xx_spi.c ****   * @retval None
 733:Drivers/STM32F4xx_StdPeriph_Driver/src/stm32f4xx_spi.c ****   */
 734:Drivers/STM32F4xx_StdPeriph_Driver/src/stm32f4xx_spi.c **** void I2S_FullDuplexConfig(SPI_TypeDef* I2Sxext, I2S_InitTypeDef* I2S_InitStruct)
 735:Drivers/STM32F4xx_StdPeriph_Driver/src/stm32f4xx_spi.c **** {
 917              		.loc 1 735 1 is_stmt 1 view -0
 918              		.cfi_startproc
 919              		@ args = 0, pretend = 0, frame = 0
 920              		@ frame_needed = 0, uses_anonymous_args = 0
 921              		.loc 1 735 1 is_stmt 0 view .LVU278
 922 0000 00B5     		push	{lr}
 923              		.cfi_def_cfa_offset 4
 924              		.cfi_offset 14, -4
 736:Drivers/STM32F4xx_StdPeriph_Driver/src/stm32f4xx_spi.c ****   uint16_t tmpreg = 0, tmp = 0;
 925              		.loc 1 736 3 is_stmt 1 view .LVU279
 926              	.LVL76:
 737:Drivers/STM32F4xx_StdPeriph_Driver/src/stm32f4xx_spi.c ****   
 738:Drivers/STM32F4xx_StdPeriph_Driver/src/stm32f4xx_spi.c ****   /* Check the I2S parameters */
 739:Drivers/STM32F4xx_StdPeriph_Driver/src/stm32f4xx_spi.c ****   assert_param(IS_I2S_EXT_PERIPH(I2Sxext));
 927              		.loc 1 739 3 view .LVU280
 740:Drivers/STM32F4xx_StdPeriph_Driver/src/stm32f4xx_spi.c ****   assert_param(IS_I2S_MODE(I2S_InitStruct->I2S_Mode));
 928              		.loc 1 740 3 view .LVU281
 741:Drivers/STM32F4xx_StdPeriph_Driver/src/stm32f4xx_spi.c ****   assert_param(IS_I2S_STANDARD(I2S_InitStruct->I2S_Standard));
 929              		.loc 1 741 3 view .LVU282
 742:Drivers/STM32F4xx_StdPeriph_Driver/src/stm32f4xx_spi.c ****   assert_param(IS_I2S_DATA_FORMAT(I2S_InitStruct->I2S_DataFormat));
 930              		.loc 1 742 3 view .LVU283
 743:Drivers/STM32F4xx_StdPeriph_Driver/src/stm32f4xx_spi.c ****   assert_param(IS_I2S_CPOL(I2S_InitStruct->I2S_CPOL));  
 931              		.loc 1 743 3 view .LVU284
 744:Drivers/STM32F4xx_StdPeriph_Driver/src/stm32f4xx_spi.c **** 
 745:Drivers/STM32F4xx_StdPeriph_Driver/src/stm32f4xx_spi.c **** /*----------------------- SPIx I2SCFGR & I2SPR Configuration -----------------*/
 746:Drivers/STM32F4xx_StdPeriph_Driver/src/stm32f4xx_spi.c ****   /* Clear I2SMOD, I2SE, I2SCFG, PCMSYNC, I2SSTD, CKPOL, DATLEN and CHLEN bits */
 747:Drivers/STM32F4xx_StdPeriph_Driver/src/stm32f4xx_spi.c ****   I2Sxext->I2SCFGR &= I2SCFGR_CLEAR_MASK; 
 932              		.loc 1 747 3 view .LVU285
 933              		.loc 1 747 20 is_stmt 0 view .LVU286
 934 0002 838B     		ldrh	r3, [r0, #28]
 935 0004 9BB2     		uxth	r3, r3
 936 0006 23F47B63 		bic	r3, r3, #4016
 937 000a 23F00F03 		bic	r3, r3, #15
 938 000e 9BB2     		uxth	r3, r3
 939 0010 8383     		strh	r3, [r0, #28]	@ movhi
 748:Drivers/STM32F4xx_StdPeriph_Driver/src/stm32f4xx_spi.c ****   I2Sxext->I2SPR = 0x0002;
 940              		.loc 1 748 3 is_stmt 1 view .LVU287
 941              		.loc 1 748 18 is_stmt 0 view .LVU288
 942 0012 0223     		movs	r3, #2
 943 0014 0384     		strh	r3, [r0, #32]	@ movhi
 749:Drivers/STM32F4xx_StdPeriph_Driver/src/stm32f4xx_spi.c ****   
ARM GAS  /tmp/ccExwBFD.s 			page 31


 750:Drivers/STM32F4xx_StdPeriph_Driver/src/stm32f4xx_spi.c ****   /* Get the I2SCFGR register value */
 751:Drivers/STM32F4xx_StdPeriph_Driver/src/stm32f4xx_spi.c ****   tmpreg = I2Sxext->I2SCFGR;
 944              		.loc 1 751 3 is_stmt 1 view .LVU289
 945              		.loc 1 751 10 is_stmt 0 view .LVU290
 946 0016 838B     		ldrh	r3, [r0, #28]
 947 0018 9AB2     		uxth	r2, r3
 948              	.LVL77:
 752:Drivers/STM32F4xx_StdPeriph_Driver/src/stm32f4xx_spi.c ****   
 753:Drivers/STM32F4xx_StdPeriph_Driver/src/stm32f4xx_spi.c ****   /* Get the mode to be configured for the extended I2S */
 754:Drivers/STM32F4xx_StdPeriph_Driver/src/stm32f4xx_spi.c ****   if ((I2S_InitStruct->I2S_Mode == I2S_Mode_MasterTx) || (I2S_InitStruct->I2S_Mode == I2S_Mode_Slav
 949              		.loc 1 754 3 is_stmt 1 view .LVU291
 950              		.loc 1 754 22 is_stmt 0 view .LVU292
 951 001a 0B88     		ldrh	r3, [r1]
 952              		.loc 1 754 6 view .LVU293
 953 001c B3F5007F 		cmp	r3, #512
 954 0020 03D0     		beq	.L59
 955              		.loc 1 754 55 discriminator 1 view .LVU294
 956 0022 9BB9     		cbnz	r3, .L60
 755:Drivers/STM32F4xx_StdPeriph_Driver/src/stm32f4xx_spi.c ****   {
 756:Drivers/STM32F4xx_StdPeriph_Driver/src/stm32f4xx_spi.c ****     tmp = I2S_Mode_SlaveRx;
 957              		.loc 1 756 9 view .LVU295
 958 0024 4FF4807E 		mov	lr, #256
 959 0028 01E0     		b	.L58
 960              	.L59:
 961 002a 4FF4807E 		mov	lr, #256
 962              	.L58:
 963              	.LVL78:
 757:Drivers/STM32F4xx_StdPeriph_Driver/src/stm32f4xx_spi.c ****   }
 758:Drivers/STM32F4xx_StdPeriph_Driver/src/stm32f4xx_spi.c ****   else
 759:Drivers/STM32F4xx_StdPeriph_Driver/src/stm32f4xx_spi.c ****   {
 760:Drivers/STM32F4xx_StdPeriph_Driver/src/stm32f4xx_spi.c ****     if ((I2S_InitStruct->I2S_Mode == I2S_Mode_MasterRx) || (I2S_InitStruct->I2S_Mode == I2S_Mode_Sl
 761:Drivers/STM32F4xx_StdPeriph_Driver/src/stm32f4xx_spi.c ****     {
 762:Drivers/STM32F4xx_StdPeriph_Driver/src/stm32f4xx_spi.c ****       tmp = I2S_Mode_SlaveTx;
 763:Drivers/STM32F4xx_StdPeriph_Driver/src/stm32f4xx_spi.c ****     }
 764:Drivers/STM32F4xx_StdPeriph_Driver/src/stm32f4xx_spi.c ****   }
 765:Drivers/STM32F4xx_StdPeriph_Driver/src/stm32f4xx_spi.c **** 
 766:Drivers/STM32F4xx_StdPeriph_Driver/src/stm32f4xx_spi.c ****  
 767:Drivers/STM32F4xx_StdPeriph_Driver/src/stm32f4xx_spi.c ****   /* Configure the I2S with the SPI_InitStruct values */
 768:Drivers/STM32F4xx_StdPeriph_Driver/src/stm32f4xx_spi.c ****   tmpreg |= (uint16_t)((uint16_t)SPI_I2SCFGR_I2SMOD | (uint16_t)(tmp | \
 964              		.loc 1 768 3 is_stmt 1 view .LVU296
 769:Drivers/STM32F4xx_StdPeriph_Driver/src/stm32f4xx_spi.c ****                   (uint16_t)(I2S_InitStruct->I2S_Standard | (uint16_t)(I2S_InitStruct->I2S_DataForm
 965              		.loc 1 769 44 is_stmt 0 view .LVU297
 966 002e 4B88     		ldrh	r3, [r1, #2]
 967              		.loc 1 769 86 view .LVU298
 968 0030 B1F804C0 		ldrh	ip, [r1, #4]
 770:Drivers/STM32F4xx_StdPeriph_Driver/src/stm32f4xx_spi.c ****                   (uint16_t)I2S_InitStruct->I2S_CPOL))));
 969              		.loc 1 770 43 view .LVU299
 970 0034 8989     		ldrh	r1, [r1, #12]
 971              	.LVL79:
 769:Drivers/STM32F4xx_StdPeriph_Driver/src/stm32f4xx_spi.c ****                   (uint16_t)(I2S_InitStruct->I2S_Standard | (uint16_t)(I2S_InitStruct->I2S_DataForm
 972              		.loc 1 769 61 view .LVU300
 973 0036 4CEA0101 		orr	r1, ip, r1
 769:Drivers/STM32F4xx_StdPeriph_Driver/src/stm32f4xx_spi.c ****                   (uint16_t)(I2S_InitStruct->I2S_Standard | (uint16_t)(I2S_InitStruct->I2S_DataForm
 974              		.loc 1 769 19 view .LVU301
 975 003a 0B43     		orrs	r3, r3, r1
 768:Drivers/STM32F4xx_StdPeriph_Driver/src/stm32f4xx_spi.c ****                   (uint16_t)(I2S_InitStruct->I2S_Standard | (uint16_t)(I2S_InitStruct->I2S_DataForm
 976              		.loc 1 768 55 view .LVU302
ARM GAS  /tmp/ccExwBFD.s 			page 32


 977 003c 43EA0E03 		orr	r3, r3, lr
 768:Drivers/STM32F4xx_StdPeriph_Driver/src/stm32f4xx_spi.c ****                   (uint16_t)(I2S_InitStruct->I2S_Standard | (uint16_t)(I2S_InitStruct->I2S_DataForm
 978              		.loc 1 768 10 view .LVU303
 979 0040 1343     		orrs	r3, r3, r2
 980 0042 43F40063 		orr	r3, r3, #2048
 981              	.LVL80:
 771:Drivers/STM32F4xx_StdPeriph_Driver/src/stm32f4xx_spi.c ****  
 772:Drivers/STM32F4xx_StdPeriph_Driver/src/stm32f4xx_spi.c ****   /* Write to SPIx I2SCFGR */  
 773:Drivers/STM32F4xx_StdPeriph_Driver/src/stm32f4xx_spi.c ****   I2Sxext->I2SCFGR = tmpreg;
 982              		.loc 1 773 3 is_stmt 1 view .LVU304
 983              		.loc 1 773 20 is_stmt 0 view .LVU305
 984 0046 8383     		strh	r3, [r0, #28]	@ movhi
 774:Drivers/STM32F4xx_StdPeriph_Driver/src/stm32f4xx_spi.c **** }
 985              		.loc 1 774 1 view .LVU306
 986 0048 5DF804FB 		ldr	pc, [sp], #4
 987              	.LVL81:
 988              	.L60:
 762:Drivers/STM32F4xx_StdPeriph_Driver/src/stm32f4xx_spi.c ****     }
 989              		.loc 1 762 11 view .LVU307
 990 004c 4FF0000E 		mov	lr, #0
 991 0050 EDE7     		b	.L58
 992              		.cfi_endproc
 993              	.LFE135:
 995              		.section	.text.SPI_I2S_ReceiveData,"ax",%progbits
 996              		.align	1
 997              		.global	SPI_I2S_ReceiveData
 998              		.syntax unified
 999              		.thumb
 1000              		.thumb_func
 1002              	SPI_I2S_ReceiveData:
 1003              	.LVL82:
 1004              	.LFB136:
 775:Drivers/STM32F4xx_StdPeriph_Driver/src/stm32f4xx_spi.c **** 
 776:Drivers/STM32F4xx_StdPeriph_Driver/src/stm32f4xx_spi.c **** /**
 777:Drivers/STM32F4xx_StdPeriph_Driver/src/stm32f4xx_spi.c ****   * @}
 778:Drivers/STM32F4xx_StdPeriph_Driver/src/stm32f4xx_spi.c ****   */
 779:Drivers/STM32F4xx_StdPeriph_Driver/src/stm32f4xx_spi.c **** 
 780:Drivers/STM32F4xx_StdPeriph_Driver/src/stm32f4xx_spi.c **** /** @defgroup SPI_Group2 Data transfers functions
 781:Drivers/STM32F4xx_StdPeriph_Driver/src/stm32f4xx_spi.c ****  *  @brief   Data transfers functions
 782:Drivers/STM32F4xx_StdPeriph_Driver/src/stm32f4xx_spi.c ****  *
 783:Drivers/STM32F4xx_StdPeriph_Driver/src/stm32f4xx_spi.c **** @verbatim   
 784:Drivers/STM32F4xx_StdPeriph_Driver/src/stm32f4xx_spi.c ****  ===============================================================================
 785:Drivers/STM32F4xx_StdPeriph_Driver/src/stm32f4xx_spi.c ****                       ##### Data transfers functions #####
 786:Drivers/STM32F4xx_StdPeriph_Driver/src/stm32f4xx_spi.c ****  ===============================================================================  
 787:Drivers/STM32F4xx_StdPeriph_Driver/src/stm32f4xx_spi.c **** 
 788:Drivers/STM32F4xx_StdPeriph_Driver/src/stm32f4xx_spi.c ****  [..] This section provides a set of functions allowing to manage the SPI data 
 789:Drivers/STM32F4xx_StdPeriph_Driver/src/stm32f4xx_spi.c ****       transfers. In reception, data are received and then stored into an internal 
 790:Drivers/STM32F4xx_StdPeriph_Driver/src/stm32f4xx_spi.c ****       Rx buffer while. In transmission, data are first stored into an internal Tx 
 791:Drivers/STM32F4xx_StdPeriph_Driver/src/stm32f4xx_spi.c ****       buffer before being transmitted.
 792:Drivers/STM32F4xx_StdPeriph_Driver/src/stm32f4xx_spi.c **** 
 793:Drivers/STM32F4xx_StdPeriph_Driver/src/stm32f4xx_spi.c ****  [..] The read access of the SPI_DR register can be done using the SPI_I2S_ReceiveData()
 794:Drivers/STM32F4xx_StdPeriph_Driver/src/stm32f4xx_spi.c ****       function and returns the Rx buffered value. Whereas a write access to the SPI_DR 
 795:Drivers/STM32F4xx_StdPeriph_Driver/src/stm32f4xx_spi.c ****       can be done using SPI_I2S_SendData() function and stores the written data into 
 796:Drivers/STM32F4xx_StdPeriph_Driver/src/stm32f4xx_spi.c ****       Tx buffer.
 797:Drivers/STM32F4xx_StdPeriph_Driver/src/stm32f4xx_spi.c **** 
 798:Drivers/STM32F4xx_StdPeriph_Driver/src/stm32f4xx_spi.c **** @endverbatim
 799:Drivers/STM32F4xx_StdPeriph_Driver/src/stm32f4xx_spi.c ****   * @{
ARM GAS  /tmp/ccExwBFD.s 			page 33


 800:Drivers/STM32F4xx_StdPeriph_Driver/src/stm32f4xx_spi.c ****   */
 801:Drivers/STM32F4xx_StdPeriph_Driver/src/stm32f4xx_spi.c **** 
 802:Drivers/STM32F4xx_StdPeriph_Driver/src/stm32f4xx_spi.c **** /**
 803:Drivers/STM32F4xx_StdPeriph_Driver/src/stm32f4xx_spi.c ****   * @brief  Returns the most recent received data by the SPIx/I2Sx peripheral. 
 804:Drivers/STM32F4xx_StdPeriph_Driver/src/stm32f4xx_spi.c ****   * @param  SPIx: To select the SPIx/I2Sx peripheral, where x can be: 1, 2, 3, 4, 5 or 6 
 805:Drivers/STM32F4xx_StdPeriph_Driver/src/stm32f4xx_spi.c ****   *         in SPI mode or 2 or 3 in I2S mode or I2Sxext for I2S full duplex mode. 
 806:Drivers/STM32F4xx_StdPeriph_Driver/src/stm32f4xx_spi.c ****   * @retval The value of the received data.
 807:Drivers/STM32F4xx_StdPeriph_Driver/src/stm32f4xx_spi.c ****   */
 808:Drivers/STM32F4xx_StdPeriph_Driver/src/stm32f4xx_spi.c **** uint16_t SPI_I2S_ReceiveData(SPI_TypeDef* SPIx)
 809:Drivers/STM32F4xx_StdPeriph_Driver/src/stm32f4xx_spi.c **** {
 1005              		.loc 1 809 1 is_stmt 1 view -0
 1006              		.cfi_startproc
 1007              		@ args = 0, pretend = 0, frame = 0
 1008              		@ frame_needed = 0, uses_anonymous_args = 0
 1009              		@ link register save eliminated.
 810:Drivers/STM32F4xx_StdPeriph_Driver/src/stm32f4xx_spi.c ****   /* Check the parameters */
 811:Drivers/STM32F4xx_StdPeriph_Driver/src/stm32f4xx_spi.c ****   assert_param(IS_SPI_ALL_PERIPH_EXT(SPIx));
 1010              		.loc 1 811 3 view .LVU309
 812:Drivers/STM32F4xx_StdPeriph_Driver/src/stm32f4xx_spi.c ****   
 813:Drivers/STM32F4xx_StdPeriph_Driver/src/stm32f4xx_spi.c ****   /* Return the data in the DR register */
 814:Drivers/STM32F4xx_StdPeriph_Driver/src/stm32f4xx_spi.c ****   return SPIx->DR;
 1011              		.loc 1 814 3 view .LVU310
 1012              		.loc 1 814 14 is_stmt 0 view .LVU311
 1013 0000 8089     		ldrh	r0, [r0, #12]
 1014              	.LVL83:
 815:Drivers/STM32F4xx_StdPeriph_Driver/src/stm32f4xx_spi.c **** }
 1015              		.loc 1 815 1 view .LVU312
 1016 0002 80B2     		uxth	r0, r0
 1017 0004 7047     		bx	lr
 1018              		.cfi_endproc
 1019              	.LFE136:
 1021              		.section	.text.SPI_I2S_SendData,"ax",%progbits
 1022              		.align	1
 1023              		.global	SPI_I2S_SendData
 1024              		.syntax unified
 1025              		.thumb
 1026              		.thumb_func
 1028              	SPI_I2S_SendData:
 1029              	.LVL84:
 1030              	.LFB137:
 816:Drivers/STM32F4xx_StdPeriph_Driver/src/stm32f4xx_spi.c **** 
 817:Drivers/STM32F4xx_StdPeriph_Driver/src/stm32f4xx_spi.c **** /**
 818:Drivers/STM32F4xx_StdPeriph_Driver/src/stm32f4xx_spi.c ****   * @brief  Transmits a Data through the SPIx/I2Sx peripheral.
 819:Drivers/STM32F4xx_StdPeriph_Driver/src/stm32f4xx_spi.c ****   * @param  SPIx: To select the SPIx/I2Sx peripheral, where x can be: 1, 2, 3, 4, 5 or 6 
 820:Drivers/STM32F4xx_StdPeriph_Driver/src/stm32f4xx_spi.c ****   *         in SPI mode or 2 or 3 in I2S mode or I2Sxext for I2S full duplex mode.     
 821:Drivers/STM32F4xx_StdPeriph_Driver/src/stm32f4xx_spi.c ****   * @param  Data: Data to be transmitted.
 822:Drivers/STM32F4xx_StdPeriph_Driver/src/stm32f4xx_spi.c ****   * @retval None
 823:Drivers/STM32F4xx_StdPeriph_Driver/src/stm32f4xx_spi.c ****   */
 824:Drivers/STM32F4xx_StdPeriph_Driver/src/stm32f4xx_spi.c **** void SPI_I2S_SendData(SPI_TypeDef* SPIx, uint16_t Data)
 825:Drivers/STM32F4xx_StdPeriph_Driver/src/stm32f4xx_spi.c **** {
 1031              		.loc 1 825 1 is_stmt 1 view -0
 1032              		.cfi_startproc
 1033              		@ args = 0, pretend = 0, frame = 0
 1034              		@ frame_needed = 0, uses_anonymous_args = 0
 1035              		@ link register save eliminated.
 826:Drivers/STM32F4xx_StdPeriph_Driver/src/stm32f4xx_spi.c ****   /* Check the parameters */
 827:Drivers/STM32F4xx_StdPeriph_Driver/src/stm32f4xx_spi.c ****   assert_param(IS_SPI_ALL_PERIPH_EXT(SPIx));
ARM GAS  /tmp/ccExwBFD.s 			page 34


 1036              		.loc 1 827 3 view .LVU314
 828:Drivers/STM32F4xx_StdPeriph_Driver/src/stm32f4xx_spi.c ****   
 829:Drivers/STM32F4xx_StdPeriph_Driver/src/stm32f4xx_spi.c ****   /* Write in the DR register the data to be sent */
 830:Drivers/STM32F4xx_StdPeriph_Driver/src/stm32f4xx_spi.c ****   SPIx->DR = Data;
 1037              		.loc 1 830 3 view .LVU315
 1038              		.loc 1 830 12 is_stmt 0 view .LVU316
 1039 0000 8181     		strh	r1, [r0, #12]	@ movhi
 831:Drivers/STM32F4xx_StdPeriph_Driver/src/stm32f4xx_spi.c **** }
 1040              		.loc 1 831 1 view .LVU317
 1041 0002 7047     		bx	lr
 1042              		.cfi_endproc
 1043              	.LFE137:
 1045              		.section	.text.SPI_CalculateCRC,"ax",%progbits
 1046              		.align	1
 1047              		.global	SPI_CalculateCRC
 1048              		.syntax unified
 1049              		.thumb
 1050              		.thumb_func
 1052              	SPI_CalculateCRC:
 1053              	.LVL85:
 1054              	.LFB138:
 832:Drivers/STM32F4xx_StdPeriph_Driver/src/stm32f4xx_spi.c **** 
 833:Drivers/STM32F4xx_StdPeriph_Driver/src/stm32f4xx_spi.c **** /**
 834:Drivers/STM32F4xx_StdPeriph_Driver/src/stm32f4xx_spi.c ****   * @}
 835:Drivers/STM32F4xx_StdPeriph_Driver/src/stm32f4xx_spi.c ****   */
 836:Drivers/STM32F4xx_StdPeriph_Driver/src/stm32f4xx_spi.c **** 
 837:Drivers/STM32F4xx_StdPeriph_Driver/src/stm32f4xx_spi.c **** /** @defgroup SPI_Group3 Hardware CRC Calculation functions
 838:Drivers/STM32F4xx_StdPeriph_Driver/src/stm32f4xx_spi.c ****  *  @brief   Hardware CRC Calculation functions
 839:Drivers/STM32F4xx_StdPeriph_Driver/src/stm32f4xx_spi.c ****  *
 840:Drivers/STM32F4xx_StdPeriph_Driver/src/stm32f4xx_spi.c **** @verbatim   
 841:Drivers/STM32F4xx_StdPeriph_Driver/src/stm32f4xx_spi.c ****  ===============================================================================
 842:Drivers/STM32F4xx_StdPeriph_Driver/src/stm32f4xx_spi.c ****                  ##### Hardware CRC Calculation functions #####
 843:Drivers/STM32F4xx_StdPeriph_Driver/src/stm32f4xx_spi.c ****  ===============================================================================  
 844:Drivers/STM32F4xx_StdPeriph_Driver/src/stm32f4xx_spi.c **** 
 845:Drivers/STM32F4xx_StdPeriph_Driver/src/stm32f4xx_spi.c ****  [..] This section provides a set of functions allowing to manage the SPI CRC hardware 
 846:Drivers/STM32F4xx_StdPeriph_Driver/src/stm32f4xx_spi.c ****       calculation
 847:Drivers/STM32F4xx_StdPeriph_Driver/src/stm32f4xx_spi.c **** 
 848:Drivers/STM32F4xx_StdPeriph_Driver/src/stm32f4xx_spi.c ****  [..] SPI communication using CRC is possible through the following procedure:
 849:Drivers/STM32F4xx_StdPeriph_Driver/src/stm32f4xx_spi.c ****    (#) Program the Data direction, Polarity, Phase, First Data, Baud Rate Prescaler, 
 850:Drivers/STM32F4xx_StdPeriph_Driver/src/stm32f4xx_spi.c ****        Slave Management, Peripheral Mode and CRC Polynomial values using the SPI_Init()
 851:Drivers/STM32F4xx_StdPeriph_Driver/src/stm32f4xx_spi.c ****        function.
 852:Drivers/STM32F4xx_StdPeriph_Driver/src/stm32f4xx_spi.c ****    (#) Enable the CRC calculation using the SPI_CalculateCRC() function.
 853:Drivers/STM32F4xx_StdPeriph_Driver/src/stm32f4xx_spi.c ****    (#) Enable the SPI using the SPI_Cmd() function
 854:Drivers/STM32F4xx_StdPeriph_Driver/src/stm32f4xx_spi.c ****    (#) Before writing the last data to the TX buffer, set the CRCNext bit using the 
 855:Drivers/STM32F4xx_StdPeriph_Driver/src/stm32f4xx_spi.c ****        SPI_TransmitCRC() function to indicate that after transmission of the last 
 856:Drivers/STM32F4xx_StdPeriph_Driver/src/stm32f4xx_spi.c ****        data, the CRC should be transmitted.
 857:Drivers/STM32F4xx_StdPeriph_Driver/src/stm32f4xx_spi.c ****    (#) After transmitting the last data, the SPI transmits the CRC. The SPI_CR1_CRCNEXT
 858:Drivers/STM32F4xx_StdPeriph_Driver/src/stm32f4xx_spi.c ****         bit is reset. The CRC is also received and compared against the SPI_RXCRCR 
 859:Drivers/STM32F4xx_StdPeriph_Driver/src/stm32f4xx_spi.c ****         value. 
 860:Drivers/STM32F4xx_StdPeriph_Driver/src/stm32f4xx_spi.c ****         If the value does not match, the SPI_FLAG_CRCERR flag is set and an interrupt
 861:Drivers/STM32F4xx_StdPeriph_Driver/src/stm32f4xx_spi.c ****         can be generated when the SPI_I2S_IT_ERR interrupt is enabled.
 862:Drivers/STM32F4xx_StdPeriph_Driver/src/stm32f4xx_spi.c **** 
 863:Drivers/STM32F4xx_StdPeriph_Driver/src/stm32f4xx_spi.c ****  [..]
 864:Drivers/STM32F4xx_StdPeriph_Driver/src/stm32f4xx_spi.c ****    (@) It is advised not to read the calculated CRC values during the communication.
 865:Drivers/STM32F4xx_StdPeriph_Driver/src/stm32f4xx_spi.c **** 
 866:Drivers/STM32F4xx_StdPeriph_Driver/src/stm32f4xx_spi.c ****    (@) When the SPI is in slave mode, be careful to enable CRC calculation only 
 867:Drivers/STM32F4xx_StdPeriph_Driver/src/stm32f4xx_spi.c ****        when the clock is stable, that is, when the clock is in the steady state. 
ARM GAS  /tmp/ccExwBFD.s 			page 35


 868:Drivers/STM32F4xx_StdPeriph_Driver/src/stm32f4xx_spi.c ****        If not, a wrong CRC calculation may be done. In fact, the CRC is sensitive 
 869:Drivers/STM32F4xx_StdPeriph_Driver/src/stm32f4xx_spi.c ****        to the SCK slave input clock as soon as CRCEN is set, and this, whatever 
 870:Drivers/STM32F4xx_StdPeriph_Driver/src/stm32f4xx_spi.c ****        the value of the SPE bit.
 871:Drivers/STM32F4xx_StdPeriph_Driver/src/stm32f4xx_spi.c **** 
 872:Drivers/STM32F4xx_StdPeriph_Driver/src/stm32f4xx_spi.c ****    (@) With high bitrate frequencies, be careful when transmitting the CRC.
 873:Drivers/STM32F4xx_StdPeriph_Driver/src/stm32f4xx_spi.c ****        As the number of used CPU cycles has to be as low as possible in the CRC 
 874:Drivers/STM32F4xx_StdPeriph_Driver/src/stm32f4xx_spi.c ****        transfer phase, it is forbidden to call software functions in the CRC 
 875:Drivers/STM32F4xx_StdPeriph_Driver/src/stm32f4xx_spi.c ****        transmission sequence to avoid errors in the last data and CRC reception. 
 876:Drivers/STM32F4xx_StdPeriph_Driver/src/stm32f4xx_spi.c ****        In fact, CRCNEXT bit has to be written before the end of the transmission/reception 
 877:Drivers/STM32F4xx_StdPeriph_Driver/src/stm32f4xx_spi.c ****        of the last data.
 878:Drivers/STM32F4xx_StdPeriph_Driver/src/stm32f4xx_spi.c **** 
 879:Drivers/STM32F4xx_StdPeriph_Driver/src/stm32f4xx_spi.c ****    (@) For high bit rate frequencies, it is advised to use the DMA mode to avoid the
 880:Drivers/STM32F4xx_StdPeriph_Driver/src/stm32f4xx_spi.c ****        degradation of the SPI speed performance due to CPU accesses impacting the 
 881:Drivers/STM32F4xx_StdPeriph_Driver/src/stm32f4xx_spi.c ****        SPI bandwidth.
 882:Drivers/STM32F4xx_StdPeriph_Driver/src/stm32f4xx_spi.c **** 
 883:Drivers/STM32F4xx_StdPeriph_Driver/src/stm32f4xx_spi.c ****    (@) When the STM32F4xx is configured as slave and the NSS hardware mode is 
 884:Drivers/STM32F4xx_StdPeriph_Driver/src/stm32f4xx_spi.c ****        used, the NSS pin needs to be kept low between the data phase and the CRC 
 885:Drivers/STM32F4xx_StdPeriph_Driver/src/stm32f4xx_spi.c ****        phase.
 886:Drivers/STM32F4xx_StdPeriph_Driver/src/stm32f4xx_spi.c **** 
 887:Drivers/STM32F4xx_StdPeriph_Driver/src/stm32f4xx_spi.c ****    (@) When the SPI is configured in slave mode with the CRC feature enabled, CRC
 888:Drivers/STM32F4xx_StdPeriph_Driver/src/stm32f4xx_spi.c ****        calculation takes place even if a high level is applied on the NSS pin. 
 889:Drivers/STM32F4xx_StdPeriph_Driver/src/stm32f4xx_spi.c ****        This may happen for example in case of a multi-slave environment where the 
 890:Drivers/STM32F4xx_StdPeriph_Driver/src/stm32f4xx_spi.c ****        communication master addresses slaves alternately.
 891:Drivers/STM32F4xx_StdPeriph_Driver/src/stm32f4xx_spi.c **** 
 892:Drivers/STM32F4xx_StdPeriph_Driver/src/stm32f4xx_spi.c ****    (@) Between a slave de-selection (high level on NSS) and a new slave selection 
 893:Drivers/STM32F4xx_StdPeriph_Driver/src/stm32f4xx_spi.c ****        (low level on NSS), the CRC value should be cleared on both master and slave
 894:Drivers/STM32F4xx_StdPeriph_Driver/src/stm32f4xx_spi.c ****        sides in order to resynchronize the master and slave for their respective 
 895:Drivers/STM32F4xx_StdPeriph_Driver/src/stm32f4xx_spi.c ****        CRC calculation.
 896:Drivers/STM32F4xx_StdPeriph_Driver/src/stm32f4xx_spi.c **** 
 897:Drivers/STM32F4xx_StdPeriph_Driver/src/stm32f4xx_spi.c ****    (@) To clear the CRC, follow the procedure below:
 898:Drivers/STM32F4xx_StdPeriph_Driver/src/stm32f4xx_spi.c ****        (#@) Disable SPI using the SPI_Cmd() function
 899:Drivers/STM32F4xx_StdPeriph_Driver/src/stm32f4xx_spi.c ****        (#@) Disable the CRC calculation using the SPI_CalculateCRC() function.
 900:Drivers/STM32F4xx_StdPeriph_Driver/src/stm32f4xx_spi.c ****        (#@) Enable the CRC calculation using the SPI_CalculateCRC() function.
 901:Drivers/STM32F4xx_StdPeriph_Driver/src/stm32f4xx_spi.c ****        (#@) Enable SPI using the SPI_Cmd() function.
 902:Drivers/STM32F4xx_StdPeriph_Driver/src/stm32f4xx_spi.c **** 
 903:Drivers/STM32F4xx_StdPeriph_Driver/src/stm32f4xx_spi.c **** @endverbatim
 904:Drivers/STM32F4xx_StdPeriph_Driver/src/stm32f4xx_spi.c ****   * @{
 905:Drivers/STM32F4xx_StdPeriph_Driver/src/stm32f4xx_spi.c ****   */
 906:Drivers/STM32F4xx_StdPeriph_Driver/src/stm32f4xx_spi.c **** 
 907:Drivers/STM32F4xx_StdPeriph_Driver/src/stm32f4xx_spi.c **** /**
 908:Drivers/STM32F4xx_StdPeriph_Driver/src/stm32f4xx_spi.c ****   * @brief  Enables or disables the CRC value calculation of the transferred bytes.
 909:Drivers/STM32F4xx_StdPeriph_Driver/src/stm32f4xx_spi.c ****   * @param  SPIx: where x can be 1, 2, 3, 4, 5 or 6 to select the SPI peripheral.
 910:Drivers/STM32F4xx_StdPeriph_Driver/src/stm32f4xx_spi.c ****   * @param  NewState: new state of the SPIx CRC value calculation.
 911:Drivers/STM32F4xx_StdPeriph_Driver/src/stm32f4xx_spi.c ****   *          This parameter can be: ENABLE or DISABLE.
 912:Drivers/STM32F4xx_StdPeriph_Driver/src/stm32f4xx_spi.c ****   * @retval None
 913:Drivers/STM32F4xx_StdPeriph_Driver/src/stm32f4xx_spi.c ****   */
 914:Drivers/STM32F4xx_StdPeriph_Driver/src/stm32f4xx_spi.c **** void SPI_CalculateCRC(SPI_TypeDef* SPIx, FunctionalState NewState)
 915:Drivers/STM32F4xx_StdPeriph_Driver/src/stm32f4xx_spi.c **** {
 1055              		.loc 1 915 1 is_stmt 1 view -0
 1056              		.cfi_startproc
 1057              		@ args = 0, pretend = 0, frame = 0
 1058              		@ frame_needed = 0, uses_anonymous_args = 0
 1059              		@ link register save eliminated.
 916:Drivers/STM32F4xx_StdPeriph_Driver/src/stm32f4xx_spi.c ****   /* Check the parameters */
 917:Drivers/STM32F4xx_StdPeriph_Driver/src/stm32f4xx_spi.c ****   assert_param(IS_SPI_ALL_PERIPH(SPIx));
 1060              		.loc 1 917 3 view .LVU319
 918:Drivers/STM32F4xx_StdPeriph_Driver/src/stm32f4xx_spi.c ****   assert_param(IS_FUNCTIONAL_STATE(NewState));
ARM GAS  /tmp/ccExwBFD.s 			page 36


 1061              		.loc 1 918 3 view .LVU320
 919:Drivers/STM32F4xx_StdPeriph_Driver/src/stm32f4xx_spi.c ****   if (NewState != DISABLE)
 1062              		.loc 1 919 3 view .LVU321
 1063              		.loc 1 919 6 is_stmt 0 view .LVU322
 1064 0000 29B1     		cbz	r1, .L65
 920:Drivers/STM32F4xx_StdPeriph_Driver/src/stm32f4xx_spi.c ****   {
 921:Drivers/STM32F4xx_StdPeriph_Driver/src/stm32f4xx_spi.c ****     /* Enable the selected SPI CRC calculation */
 922:Drivers/STM32F4xx_StdPeriph_Driver/src/stm32f4xx_spi.c ****     SPIx->CR1 |= SPI_CR1_CRCEN;
 1065              		.loc 1 922 5 is_stmt 1 view .LVU323
 1066              		.loc 1 922 15 is_stmt 0 view .LVU324
 1067 0002 0388     		ldrh	r3, [r0]
 1068 0004 9BB2     		uxth	r3, r3
 1069 0006 43F40053 		orr	r3, r3, #8192
 1070 000a 0380     		strh	r3, [r0]	@ movhi
 1071 000c 7047     		bx	lr
 1072              	.L65:
 923:Drivers/STM32F4xx_StdPeriph_Driver/src/stm32f4xx_spi.c ****   }
 924:Drivers/STM32F4xx_StdPeriph_Driver/src/stm32f4xx_spi.c ****   else
 925:Drivers/STM32F4xx_StdPeriph_Driver/src/stm32f4xx_spi.c ****   {
 926:Drivers/STM32F4xx_StdPeriph_Driver/src/stm32f4xx_spi.c ****     /* Disable the selected SPI CRC calculation */
 927:Drivers/STM32F4xx_StdPeriph_Driver/src/stm32f4xx_spi.c ****     SPIx->CR1 &= (uint16_t)~((uint16_t)SPI_CR1_CRCEN);
 1073              		.loc 1 927 5 is_stmt 1 view .LVU325
 1074              		.loc 1 927 15 is_stmt 0 view .LVU326
 1075 000e 0388     		ldrh	r3, [r0]
 1076 0010 9BB2     		uxth	r3, r3
 1077 0012 23F40053 		bic	r3, r3, #8192
 1078 0016 9BB2     		uxth	r3, r3
 1079 0018 0380     		strh	r3, [r0]	@ movhi
 928:Drivers/STM32F4xx_StdPeriph_Driver/src/stm32f4xx_spi.c ****   }
 929:Drivers/STM32F4xx_StdPeriph_Driver/src/stm32f4xx_spi.c **** }
 1080              		.loc 1 929 1 view .LVU327
 1081 001a 7047     		bx	lr
 1082              		.cfi_endproc
 1083              	.LFE138:
 1085              		.section	.text.SPI_TransmitCRC,"ax",%progbits
 1086              		.align	1
 1087              		.global	SPI_TransmitCRC
 1088              		.syntax unified
 1089              		.thumb
 1090              		.thumb_func
 1092              	SPI_TransmitCRC:
 1093              	.LVL86:
 1094              	.LFB139:
 930:Drivers/STM32F4xx_StdPeriph_Driver/src/stm32f4xx_spi.c **** 
 931:Drivers/STM32F4xx_StdPeriph_Driver/src/stm32f4xx_spi.c **** /**
 932:Drivers/STM32F4xx_StdPeriph_Driver/src/stm32f4xx_spi.c ****   * @brief  Transmit the SPIx CRC value.
 933:Drivers/STM32F4xx_StdPeriph_Driver/src/stm32f4xx_spi.c ****   * @param  SPIx: where x can be 1, 2, 3, 4, 5 or 6 to select the SPI peripheral.
 934:Drivers/STM32F4xx_StdPeriph_Driver/src/stm32f4xx_spi.c ****   * @retval None
 935:Drivers/STM32F4xx_StdPeriph_Driver/src/stm32f4xx_spi.c ****   */
 936:Drivers/STM32F4xx_StdPeriph_Driver/src/stm32f4xx_spi.c **** void SPI_TransmitCRC(SPI_TypeDef* SPIx)
 937:Drivers/STM32F4xx_StdPeriph_Driver/src/stm32f4xx_spi.c **** {
 1095              		.loc 1 937 1 is_stmt 1 view -0
 1096              		.cfi_startproc
 1097              		@ args = 0, pretend = 0, frame = 0
 1098              		@ frame_needed = 0, uses_anonymous_args = 0
 1099              		@ link register save eliminated.
 938:Drivers/STM32F4xx_StdPeriph_Driver/src/stm32f4xx_spi.c ****   /* Check the parameters */
ARM GAS  /tmp/ccExwBFD.s 			page 37


 939:Drivers/STM32F4xx_StdPeriph_Driver/src/stm32f4xx_spi.c ****   assert_param(IS_SPI_ALL_PERIPH(SPIx));
 1100              		.loc 1 939 3 view .LVU329
 940:Drivers/STM32F4xx_StdPeriph_Driver/src/stm32f4xx_spi.c ****   
 941:Drivers/STM32F4xx_StdPeriph_Driver/src/stm32f4xx_spi.c ****   /* Enable the selected SPI CRC transmission */
 942:Drivers/STM32F4xx_StdPeriph_Driver/src/stm32f4xx_spi.c ****   SPIx->CR1 |= SPI_CR1_CRCNEXT;
 1101              		.loc 1 942 3 view .LVU330
 1102              		.loc 1 942 13 is_stmt 0 view .LVU331
 1103 0000 0388     		ldrh	r3, [r0]
 1104 0002 9BB2     		uxth	r3, r3
 1105 0004 43F48053 		orr	r3, r3, #4096
 1106 0008 0380     		strh	r3, [r0]	@ movhi
 943:Drivers/STM32F4xx_StdPeriph_Driver/src/stm32f4xx_spi.c **** }
 1107              		.loc 1 943 1 view .LVU332
 1108 000a 7047     		bx	lr
 1109              		.cfi_endproc
 1110              	.LFE139:
 1112              		.section	.text.SPI_GetCRC,"ax",%progbits
 1113              		.align	1
 1114              		.global	SPI_GetCRC
 1115              		.syntax unified
 1116              		.thumb
 1117              		.thumb_func
 1119              	SPI_GetCRC:
 1120              	.LVL87:
 1121              	.LFB140:
 944:Drivers/STM32F4xx_StdPeriph_Driver/src/stm32f4xx_spi.c **** 
 945:Drivers/STM32F4xx_StdPeriph_Driver/src/stm32f4xx_spi.c **** /**
 946:Drivers/STM32F4xx_StdPeriph_Driver/src/stm32f4xx_spi.c ****   * @brief  Returns the transmit or the receive CRC register value for the specified SPI.
 947:Drivers/STM32F4xx_StdPeriph_Driver/src/stm32f4xx_spi.c ****   * @param  SPIx: where x can be 1, 2, 3, 4, 5 or 6 to select the SPI peripheral.
 948:Drivers/STM32F4xx_StdPeriph_Driver/src/stm32f4xx_spi.c ****   * @param  SPI_CRC: specifies the CRC register to be read.
 949:Drivers/STM32F4xx_StdPeriph_Driver/src/stm32f4xx_spi.c ****   *          This parameter can be one of the following values:
 950:Drivers/STM32F4xx_StdPeriph_Driver/src/stm32f4xx_spi.c ****   *            @arg SPI_CRC_Tx: Selects Tx CRC register
 951:Drivers/STM32F4xx_StdPeriph_Driver/src/stm32f4xx_spi.c ****   *            @arg SPI_CRC_Rx: Selects Rx CRC register
 952:Drivers/STM32F4xx_StdPeriph_Driver/src/stm32f4xx_spi.c ****   * @retval The selected CRC register value..
 953:Drivers/STM32F4xx_StdPeriph_Driver/src/stm32f4xx_spi.c ****   */
 954:Drivers/STM32F4xx_StdPeriph_Driver/src/stm32f4xx_spi.c **** uint16_t SPI_GetCRC(SPI_TypeDef* SPIx, uint8_t SPI_CRC)
 955:Drivers/STM32F4xx_StdPeriph_Driver/src/stm32f4xx_spi.c **** {
 1122              		.loc 1 955 1 is_stmt 1 view -0
 1123              		.cfi_startproc
 1124              		@ args = 0, pretend = 0, frame = 0
 1125              		@ frame_needed = 0, uses_anonymous_args = 0
 1126              		@ link register save eliminated.
 956:Drivers/STM32F4xx_StdPeriph_Driver/src/stm32f4xx_spi.c ****   uint16_t crcreg = 0;
 1127              		.loc 1 956 3 view .LVU334
 957:Drivers/STM32F4xx_StdPeriph_Driver/src/stm32f4xx_spi.c ****   /* Check the parameters */
 958:Drivers/STM32F4xx_StdPeriph_Driver/src/stm32f4xx_spi.c ****   assert_param(IS_SPI_ALL_PERIPH(SPIx));
 1128              		.loc 1 958 3 view .LVU335
 959:Drivers/STM32F4xx_StdPeriph_Driver/src/stm32f4xx_spi.c ****   assert_param(IS_SPI_CRC(SPI_CRC));
 1129              		.loc 1 959 3 view .LVU336
 960:Drivers/STM32F4xx_StdPeriph_Driver/src/stm32f4xx_spi.c ****   if (SPI_CRC != SPI_CRC_Rx)
 1130              		.loc 1 960 3 view .LVU337
 1131              		.loc 1 960 6 is_stmt 0 view .LVU338
 1132 0000 0129     		cmp	r1, #1
 1133 0002 02D0     		beq	.L69
 961:Drivers/STM32F4xx_StdPeriph_Driver/src/stm32f4xx_spi.c ****   {
 962:Drivers/STM32F4xx_StdPeriph_Driver/src/stm32f4xx_spi.c ****     /* Get the Tx CRC register */
 963:Drivers/STM32F4xx_StdPeriph_Driver/src/stm32f4xx_spi.c ****     crcreg = SPIx->TXCRCR;
ARM GAS  /tmp/ccExwBFD.s 			page 38


 1134              		.loc 1 963 5 is_stmt 1 view .LVU339
 1135              		.loc 1 963 12 is_stmt 0 view .LVU340
 1136 0004 008B     		ldrh	r0, [r0, #24]
 1137              	.LVL88:
 1138              		.loc 1 963 12 view .LVU341
 1139 0006 80B2     		uxth	r0, r0
 1140              	.LVL89:
 1141              		.loc 1 963 12 view .LVU342
 1142 0008 7047     		bx	lr
 1143              	.LVL90:
 1144              	.L69:
 964:Drivers/STM32F4xx_StdPeriph_Driver/src/stm32f4xx_spi.c ****   }
 965:Drivers/STM32F4xx_StdPeriph_Driver/src/stm32f4xx_spi.c ****   else
 966:Drivers/STM32F4xx_StdPeriph_Driver/src/stm32f4xx_spi.c ****   {
 967:Drivers/STM32F4xx_StdPeriph_Driver/src/stm32f4xx_spi.c ****     /* Get the Rx CRC register */
 968:Drivers/STM32F4xx_StdPeriph_Driver/src/stm32f4xx_spi.c ****     crcreg = SPIx->RXCRCR;
 1145              		.loc 1 968 5 is_stmt 1 view .LVU343
 1146              		.loc 1 968 12 is_stmt 0 view .LVU344
 1147 000a 808A     		ldrh	r0, [r0, #20]
 1148              	.LVL91:
 1149              		.loc 1 968 12 view .LVU345
 1150 000c 80B2     		uxth	r0, r0
 1151              	.LVL92:
 969:Drivers/STM32F4xx_StdPeriph_Driver/src/stm32f4xx_spi.c ****   }
 970:Drivers/STM32F4xx_StdPeriph_Driver/src/stm32f4xx_spi.c ****   /* Return the selected CRC register */
 971:Drivers/STM32F4xx_StdPeriph_Driver/src/stm32f4xx_spi.c ****   return crcreg;
 1152              		.loc 1 971 3 is_stmt 1 view .LVU346
 972:Drivers/STM32F4xx_StdPeriph_Driver/src/stm32f4xx_spi.c **** }
 1153              		.loc 1 972 1 is_stmt 0 view .LVU347
 1154 000e 7047     		bx	lr
 1155              		.cfi_endproc
 1156              	.LFE140:
 1158              		.section	.text.SPI_GetCRCPolynomial,"ax",%progbits
 1159              		.align	1
 1160              		.global	SPI_GetCRCPolynomial
 1161              		.syntax unified
 1162              		.thumb
 1163              		.thumb_func
 1165              	SPI_GetCRCPolynomial:
 1166              	.LVL93:
 1167              	.LFB141:
 973:Drivers/STM32F4xx_StdPeriph_Driver/src/stm32f4xx_spi.c **** 
 974:Drivers/STM32F4xx_StdPeriph_Driver/src/stm32f4xx_spi.c **** /**
 975:Drivers/STM32F4xx_StdPeriph_Driver/src/stm32f4xx_spi.c ****   * @brief  Returns the CRC Polynomial register value for the specified SPI.
 976:Drivers/STM32F4xx_StdPeriph_Driver/src/stm32f4xx_spi.c ****   * @param  SPIx: where x can be 1, 2, 3, 4, 5 or 6 to select the SPI peripheral.
 977:Drivers/STM32F4xx_StdPeriph_Driver/src/stm32f4xx_spi.c ****   * @retval The CRC Polynomial register value.
 978:Drivers/STM32F4xx_StdPeriph_Driver/src/stm32f4xx_spi.c ****   */
 979:Drivers/STM32F4xx_StdPeriph_Driver/src/stm32f4xx_spi.c **** uint16_t SPI_GetCRCPolynomial(SPI_TypeDef* SPIx)
 980:Drivers/STM32F4xx_StdPeriph_Driver/src/stm32f4xx_spi.c **** {
 1168              		.loc 1 980 1 is_stmt 1 view -0
 1169              		.cfi_startproc
 1170              		@ args = 0, pretend = 0, frame = 0
 1171              		@ frame_needed = 0, uses_anonymous_args = 0
 1172              		@ link register save eliminated.
 981:Drivers/STM32F4xx_StdPeriph_Driver/src/stm32f4xx_spi.c ****   /* Check the parameters */
 982:Drivers/STM32F4xx_StdPeriph_Driver/src/stm32f4xx_spi.c ****   assert_param(IS_SPI_ALL_PERIPH(SPIx));
 1173              		.loc 1 982 3 view .LVU349
ARM GAS  /tmp/ccExwBFD.s 			page 39


 983:Drivers/STM32F4xx_StdPeriph_Driver/src/stm32f4xx_spi.c ****   
 984:Drivers/STM32F4xx_StdPeriph_Driver/src/stm32f4xx_spi.c ****   /* Return the CRC polynomial register */
 985:Drivers/STM32F4xx_StdPeriph_Driver/src/stm32f4xx_spi.c ****   return SPIx->CRCPR;
 1174              		.loc 1 985 3 view .LVU350
 1175              		.loc 1 985 14 is_stmt 0 view .LVU351
 1176 0000 008A     		ldrh	r0, [r0, #16]
 1177              	.LVL94:
 986:Drivers/STM32F4xx_StdPeriph_Driver/src/stm32f4xx_spi.c **** }
 1178              		.loc 1 986 1 view .LVU352
 1179 0002 80B2     		uxth	r0, r0
 1180 0004 7047     		bx	lr
 1181              		.cfi_endproc
 1182              	.LFE141:
 1184              		.section	.text.SPI_I2S_DMACmd,"ax",%progbits
 1185              		.align	1
 1186              		.global	SPI_I2S_DMACmd
 1187              		.syntax unified
 1188              		.thumb
 1189              		.thumb_func
 1191              	SPI_I2S_DMACmd:
 1192              	.LVL95:
 1193              	.LFB142:
 987:Drivers/STM32F4xx_StdPeriph_Driver/src/stm32f4xx_spi.c **** 
 988:Drivers/STM32F4xx_StdPeriph_Driver/src/stm32f4xx_spi.c **** /**
 989:Drivers/STM32F4xx_StdPeriph_Driver/src/stm32f4xx_spi.c ****   * @}
 990:Drivers/STM32F4xx_StdPeriph_Driver/src/stm32f4xx_spi.c ****   */
 991:Drivers/STM32F4xx_StdPeriph_Driver/src/stm32f4xx_spi.c **** 
 992:Drivers/STM32F4xx_StdPeriph_Driver/src/stm32f4xx_spi.c **** /** @defgroup SPI_Group4 DMA transfers management functions
 993:Drivers/STM32F4xx_StdPeriph_Driver/src/stm32f4xx_spi.c ****  *  @brief   DMA transfers management functions
 994:Drivers/STM32F4xx_StdPeriph_Driver/src/stm32f4xx_spi.c ****   *
 995:Drivers/STM32F4xx_StdPeriph_Driver/src/stm32f4xx_spi.c **** @verbatim   
 996:Drivers/STM32F4xx_StdPeriph_Driver/src/stm32f4xx_spi.c ****  ===============================================================================
 997:Drivers/STM32F4xx_StdPeriph_Driver/src/stm32f4xx_spi.c ****                    ##### DMA transfers management functions #####
 998:Drivers/STM32F4xx_StdPeriph_Driver/src/stm32f4xx_spi.c ****  ===============================================================================  
 999:Drivers/STM32F4xx_StdPeriph_Driver/src/stm32f4xx_spi.c **** 
1000:Drivers/STM32F4xx_StdPeriph_Driver/src/stm32f4xx_spi.c **** @endverbatim
1001:Drivers/STM32F4xx_StdPeriph_Driver/src/stm32f4xx_spi.c ****   * @{
1002:Drivers/STM32F4xx_StdPeriph_Driver/src/stm32f4xx_spi.c ****   */
1003:Drivers/STM32F4xx_StdPeriph_Driver/src/stm32f4xx_spi.c **** 
1004:Drivers/STM32F4xx_StdPeriph_Driver/src/stm32f4xx_spi.c **** /**
1005:Drivers/STM32F4xx_StdPeriph_Driver/src/stm32f4xx_spi.c ****   * @brief  Enables or disables the SPIx/I2Sx DMA interface.
1006:Drivers/STM32F4xx_StdPeriph_Driver/src/stm32f4xx_spi.c ****   * @param  SPIx: To select the SPIx/I2Sx peripheral, where x can be: 1, 2, 3, 4, 5 or 6 
1007:Drivers/STM32F4xx_StdPeriph_Driver/src/stm32f4xx_spi.c ****   *         in SPI mode or 2 or 3 in I2S mode or I2Sxext for I2S full duplex mode. 
1008:Drivers/STM32F4xx_StdPeriph_Driver/src/stm32f4xx_spi.c ****   * @param  SPI_I2S_DMAReq: specifies the SPI DMA transfer request to be enabled or disabled. 
1009:Drivers/STM32F4xx_StdPeriph_Driver/src/stm32f4xx_spi.c ****   *          This parameter can be any combination of the following values:
1010:Drivers/STM32F4xx_StdPeriph_Driver/src/stm32f4xx_spi.c ****   *            @arg SPI_I2S_DMAReq_Tx: Tx buffer DMA transfer request
1011:Drivers/STM32F4xx_StdPeriph_Driver/src/stm32f4xx_spi.c ****   *            @arg SPI_I2S_DMAReq_Rx: Rx buffer DMA transfer request
1012:Drivers/STM32F4xx_StdPeriph_Driver/src/stm32f4xx_spi.c ****   * @param  NewState: new state of the selected SPI DMA transfer request.
1013:Drivers/STM32F4xx_StdPeriph_Driver/src/stm32f4xx_spi.c ****   *          This parameter can be: ENABLE or DISABLE.
1014:Drivers/STM32F4xx_StdPeriph_Driver/src/stm32f4xx_spi.c ****   * @retval None
1015:Drivers/STM32F4xx_StdPeriph_Driver/src/stm32f4xx_spi.c ****   */
1016:Drivers/STM32F4xx_StdPeriph_Driver/src/stm32f4xx_spi.c **** void SPI_I2S_DMACmd(SPI_TypeDef* SPIx, uint16_t SPI_I2S_DMAReq, FunctionalState NewState)
1017:Drivers/STM32F4xx_StdPeriph_Driver/src/stm32f4xx_spi.c **** {
 1194              		.loc 1 1017 1 is_stmt 1 view -0
 1195              		.cfi_startproc
 1196              		@ args = 0, pretend = 0, frame = 0
 1197              		@ frame_needed = 0, uses_anonymous_args = 0
ARM GAS  /tmp/ccExwBFD.s 			page 40


 1198              		@ link register save eliminated.
1018:Drivers/STM32F4xx_StdPeriph_Driver/src/stm32f4xx_spi.c ****   /* Check the parameters */
1019:Drivers/STM32F4xx_StdPeriph_Driver/src/stm32f4xx_spi.c ****   assert_param(IS_SPI_ALL_PERIPH_EXT(SPIx));
 1199              		.loc 1 1019 3 view .LVU354
1020:Drivers/STM32F4xx_StdPeriph_Driver/src/stm32f4xx_spi.c ****   assert_param(IS_FUNCTIONAL_STATE(NewState));
 1200              		.loc 1 1020 3 view .LVU355
1021:Drivers/STM32F4xx_StdPeriph_Driver/src/stm32f4xx_spi.c ****   assert_param(IS_SPI_I2S_DMAREQ(SPI_I2S_DMAReq));
 1201              		.loc 1 1021 3 view .LVU356
1022:Drivers/STM32F4xx_StdPeriph_Driver/src/stm32f4xx_spi.c **** 
1023:Drivers/STM32F4xx_StdPeriph_Driver/src/stm32f4xx_spi.c ****   if (NewState != DISABLE)
 1202              		.loc 1 1023 3 view .LVU357
 1203              		.loc 1 1023 6 is_stmt 0 view .LVU358
 1204 0000 22B1     		cbz	r2, .L73
1024:Drivers/STM32F4xx_StdPeriph_Driver/src/stm32f4xx_spi.c ****   {
1025:Drivers/STM32F4xx_StdPeriph_Driver/src/stm32f4xx_spi.c ****     /* Enable the selected SPI DMA requests */
1026:Drivers/STM32F4xx_StdPeriph_Driver/src/stm32f4xx_spi.c ****     SPIx->CR2 |= SPI_I2S_DMAReq;
 1205              		.loc 1 1026 5 is_stmt 1 view .LVU359
 1206              		.loc 1 1026 15 is_stmt 0 view .LVU360
 1207 0002 8388     		ldrh	r3, [r0, #4]
 1208 0004 9BB2     		uxth	r3, r3
 1209 0006 1943     		orrs	r1, r1, r3
 1210              	.LVL96:
 1211              		.loc 1 1026 15 view .LVU361
 1212 0008 8180     		strh	r1, [r0, #4]	@ movhi
 1213 000a 7047     		bx	lr
 1214              	.LVL97:
 1215              	.L73:
1027:Drivers/STM32F4xx_StdPeriph_Driver/src/stm32f4xx_spi.c ****   }
1028:Drivers/STM32F4xx_StdPeriph_Driver/src/stm32f4xx_spi.c ****   else
1029:Drivers/STM32F4xx_StdPeriph_Driver/src/stm32f4xx_spi.c ****   {
1030:Drivers/STM32F4xx_StdPeriph_Driver/src/stm32f4xx_spi.c ****     /* Disable the selected SPI DMA requests */
1031:Drivers/STM32F4xx_StdPeriph_Driver/src/stm32f4xx_spi.c ****     SPIx->CR2 &= (uint16_t)~SPI_I2S_DMAReq;
 1216              		.loc 1 1031 5 is_stmt 1 view .LVU362
 1217              		.loc 1 1031 15 is_stmt 0 view .LVU363
 1218 000c 8388     		ldrh	r3, [r0, #4]
 1219              		.loc 1 1031 18 view .LVU364
 1220 000e C943     		mvns	r1, r1
 1221              	.LVL98:
 1222              		.loc 1 1031 18 view .LVU365
 1223 0010 89B2     		uxth	r1, r1
 1224              		.loc 1 1031 15 view .LVU366
 1225 0012 1940     		ands	r1, r1, r3
 1226 0014 8180     		strh	r1, [r0, #4]	@ movhi
1032:Drivers/STM32F4xx_StdPeriph_Driver/src/stm32f4xx_spi.c ****   }
1033:Drivers/STM32F4xx_StdPeriph_Driver/src/stm32f4xx_spi.c **** }
 1227              		.loc 1 1033 1 view .LVU367
 1228 0016 7047     		bx	lr
 1229              		.cfi_endproc
 1230              	.LFE142:
 1232              		.section	.text.SPI_I2S_ITConfig,"ax",%progbits
 1233              		.align	1
 1234              		.global	SPI_I2S_ITConfig
 1235              		.syntax unified
 1236              		.thumb
 1237              		.thumb_func
 1239              	SPI_I2S_ITConfig:
 1240              	.LVL99:
ARM GAS  /tmp/ccExwBFD.s 			page 41


 1241              	.LFB143:
1034:Drivers/STM32F4xx_StdPeriph_Driver/src/stm32f4xx_spi.c **** 
1035:Drivers/STM32F4xx_StdPeriph_Driver/src/stm32f4xx_spi.c **** /**
1036:Drivers/STM32F4xx_StdPeriph_Driver/src/stm32f4xx_spi.c ****   * @}
1037:Drivers/STM32F4xx_StdPeriph_Driver/src/stm32f4xx_spi.c ****   */
1038:Drivers/STM32F4xx_StdPeriph_Driver/src/stm32f4xx_spi.c **** 
1039:Drivers/STM32F4xx_StdPeriph_Driver/src/stm32f4xx_spi.c **** /** @defgroup SPI_Group5 Interrupts and flags management functions
1040:Drivers/STM32F4xx_StdPeriph_Driver/src/stm32f4xx_spi.c ****  *  @brief   Interrupts and flags management functions
1041:Drivers/STM32F4xx_StdPeriph_Driver/src/stm32f4xx_spi.c ****   *
1042:Drivers/STM32F4xx_StdPeriph_Driver/src/stm32f4xx_spi.c **** @verbatim   
1043:Drivers/STM32F4xx_StdPeriph_Driver/src/stm32f4xx_spi.c ****  ===============================================================================
1044:Drivers/STM32F4xx_StdPeriph_Driver/src/stm32f4xx_spi.c ****             ##### Interrupts and flags management functions #####
1045:Drivers/STM32F4xx_StdPeriph_Driver/src/stm32f4xx_spi.c ****  ===============================================================================  
1046:Drivers/STM32F4xx_StdPeriph_Driver/src/stm32f4xx_spi.c ****  
1047:Drivers/STM32F4xx_StdPeriph_Driver/src/stm32f4xx_spi.c ****  [..] This section provides a set of functions allowing to configure the SPI Interrupts 
1048:Drivers/STM32F4xx_StdPeriph_Driver/src/stm32f4xx_spi.c ****       sources and check or clear the flags or pending bits status.
1049:Drivers/STM32F4xx_StdPeriph_Driver/src/stm32f4xx_spi.c ****       The user should identify which mode will be used in his application to manage 
1050:Drivers/STM32F4xx_StdPeriph_Driver/src/stm32f4xx_spi.c ****       the communication: Polling mode, Interrupt mode or DMA mode. 
1051:Drivers/STM32F4xx_StdPeriph_Driver/src/stm32f4xx_spi.c ****     
1052:Drivers/STM32F4xx_StdPeriph_Driver/src/stm32f4xx_spi.c ****  *** Polling Mode ***
1053:Drivers/STM32F4xx_StdPeriph_Driver/src/stm32f4xx_spi.c ****  ====================
1054:Drivers/STM32F4xx_StdPeriph_Driver/src/stm32f4xx_spi.c **** [..] In Polling Mode, the SPI/I2S communication can be managed by 9 flags:
1055:Drivers/STM32F4xx_StdPeriph_Driver/src/stm32f4xx_spi.c ****   (#) SPI_I2S_FLAG_TXE : to indicate the status of the transmit buffer register
1056:Drivers/STM32F4xx_StdPeriph_Driver/src/stm32f4xx_spi.c ****   (#) SPI_I2S_FLAG_RXNE : to indicate the status of the receive buffer register
1057:Drivers/STM32F4xx_StdPeriph_Driver/src/stm32f4xx_spi.c ****   (#) SPI_I2S_FLAG_BSY : to indicate the state of the communication layer of the SPI.
1058:Drivers/STM32F4xx_StdPeriph_Driver/src/stm32f4xx_spi.c ****   (#) SPI_FLAG_CRCERR : to indicate if a CRC Calculation error occur              
1059:Drivers/STM32F4xx_StdPeriph_Driver/src/stm32f4xx_spi.c ****   (#) SPI_FLAG_MODF : to indicate if a Mode Fault error occur
1060:Drivers/STM32F4xx_StdPeriph_Driver/src/stm32f4xx_spi.c ****   (#) SPI_I2S_FLAG_OVR : to indicate if an Overrun error occur
1061:Drivers/STM32F4xx_StdPeriph_Driver/src/stm32f4xx_spi.c ****   (#) I2S_FLAG_TIFRFE: to indicate a Frame Format error occurs.
1062:Drivers/STM32F4xx_StdPeriph_Driver/src/stm32f4xx_spi.c ****   (#) I2S_FLAG_UDR: to indicate an Underrun error occurs.
1063:Drivers/STM32F4xx_StdPeriph_Driver/src/stm32f4xx_spi.c ****   (#) I2S_FLAG_CHSIDE: to indicate Channel Side.
1064:Drivers/STM32F4xx_StdPeriph_Driver/src/stm32f4xx_spi.c **** 
1065:Drivers/STM32F4xx_StdPeriph_Driver/src/stm32f4xx_spi.c ****   (@) Do not use the BSY flag to handle each data transmission or reception. It is
1066:Drivers/STM32F4xx_StdPeriph_Driver/src/stm32f4xx_spi.c ****       better to use the TXE and RXNE flags instead.
1067:Drivers/STM32F4xx_StdPeriph_Driver/src/stm32f4xx_spi.c **** 
1068:Drivers/STM32F4xx_StdPeriph_Driver/src/stm32f4xx_spi.c ****  [..] In this Mode it is advised to use the following functions:
1069:Drivers/STM32F4xx_StdPeriph_Driver/src/stm32f4xx_spi.c ****    (+) FlagStatus SPI_I2S_GetFlagStatus(SPI_TypeDef* SPIx, uint16_t SPI_I2S_FLAG);
1070:Drivers/STM32F4xx_StdPeriph_Driver/src/stm32f4xx_spi.c ****    (+) void SPI_I2S_ClearFlag(SPI_TypeDef* SPIx, uint16_t SPI_I2S_FLAG);
1071:Drivers/STM32F4xx_StdPeriph_Driver/src/stm32f4xx_spi.c **** 
1072:Drivers/STM32F4xx_StdPeriph_Driver/src/stm32f4xx_spi.c ****  *** Interrupt Mode ***
1073:Drivers/STM32F4xx_StdPeriph_Driver/src/stm32f4xx_spi.c ****  ======================
1074:Drivers/STM32F4xx_StdPeriph_Driver/src/stm32f4xx_spi.c ****  [..] In Interrupt Mode, the SPI communication can be managed by 3 interrupt sources
1075:Drivers/STM32F4xx_StdPeriph_Driver/src/stm32f4xx_spi.c ****       and 7 pending bits: 
1076:Drivers/STM32F4xx_StdPeriph_Driver/src/stm32f4xx_spi.c ****    (+) Pending Bits:
1077:Drivers/STM32F4xx_StdPeriph_Driver/src/stm32f4xx_spi.c ****        (##) SPI_I2S_IT_TXE : to indicate the status of the transmit buffer register
1078:Drivers/STM32F4xx_StdPeriph_Driver/src/stm32f4xx_spi.c ****        (##) SPI_I2S_IT_RXNE : to indicate the status of the receive buffer register
1079:Drivers/STM32F4xx_StdPeriph_Driver/src/stm32f4xx_spi.c ****        (##) SPI_IT_CRCERR : to indicate if a CRC Calculation error occur (available in SPI mode onl
1080:Drivers/STM32F4xx_StdPeriph_Driver/src/stm32f4xx_spi.c ****        (##) SPI_IT_MODF : to indicate if a Mode Fault error occur (available in SPI mode only)
1081:Drivers/STM32F4xx_StdPeriph_Driver/src/stm32f4xx_spi.c ****        (##) SPI_I2S_IT_OVR : to indicate if an Overrun error occur
1082:Drivers/STM32F4xx_StdPeriph_Driver/src/stm32f4xx_spi.c ****        (##) I2S_IT_UDR : to indicate an Underrun Error occurs (available in I2S mode only).
1083:Drivers/STM32F4xx_StdPeriph_Driver/src/stm32f4xx_spi.c ****        (##) I2S_FLAG_TIFRFE : to indicate a Frame Format error occurs (available in TI mode only).
1084:Drivers/STM32F4xx_StdPeriph_Driver/src/stm32f4xx_spi.c **** 
1085:Drivers/STM32F4xx_StdPeriph_Driver/src/stm32f4xx_spi.c ****    (+) Interrupt Source:
1086:Drivers/STM32F4xx_StdPeriph_Driver/src/stm32f4xx_spi.c ****        (##) SPI_I2S_IT_TXE: specifies the interrupt source for the Tx buffer empty 
1087:Drivers/STM32F4xx_StdPeriph_Driver/src/stm32f4xx_spi.c ****             interrupt.  
1088:Drivers/STM32F4xx_StdPeriph_Driver/src/stm32f4xx_spi.c ****        (##) SPI_I2S_IT_RXNE : specifies the interrupt source for the Rx buffer not 
1089:Drivers/STM32F4xx_StdPeriph_Driver/src/stm32f4xx_spi.c ****             empty interrupt.
ARM GAS  /tmp/ccExwBFD.s 			page 42


1090:Drivers/STM32F4xx_StdPeriph_Driver/src/stm32f4xx_spi.c ****        (##) SPI_I2S_IT_ERR : specifies the interrupt source for the errors interrupt.
1091:Drivers/STM32F4xx_StdPeriph_Driver/src/stm32f4xx_spi.c **** 
1092:Drivers/STM32F4xx_StdPeriph_Driver/src/stm32f4xx_spi.c ****  [..] In this Mode it is advised to use the following functions:
1093:Drivers/STM32F4xx_StdPeriph_Driver/src/stm32f4xx_spi.c ****    (+) void SPI_I2S_ITConfig(SPI_TypeDef* SPIx, uint8_t SPI_I2S_IT, FunctionalState NewState);
1094:Drivers/STM32F4xx_StdPeriph_Driver/src/stm32f4xx_spi.c ****    (+) ITStatus SPI_I2S_GetITStatus(SPI_TypeDef* SPIx, uint8_t SPI_I2S_IT);
1095:Drivers/STM32F4xx_StdPeriph_Driver/src/stm32f4xx_spi.c ****    (+) void SPI_I2S_ClearITPendingBit(SPI_TypeDef* SPIx, uint8_t SPI_I2S_IT);
1096:Drivers/STM32F4xx_StdPeriph_Driver/src/stm32f4xx_spi.c **** 
1097:Drivers/STM32F4xx_StdPeriph_Driver/src/stm32f4xx_spi.c ****  *** DMA Mode ***
1098:Drivers/STM32F4xx_StdPeriph_Driver/src/stm32f4xx_spi.c ****  ================
1099:Drivers/STM32F4xx_StdPeriph_Driver/src/stm32f4xx_spi.c ****  [..] In DMA Mode, the SPI communication can be managed by 2 DMA Channel requests:
1100:Drivers/STM32F4xx_StdPeriph_Driver/src/stm32f4xx_spi.c ****    (#) SPI_I2S_DMAReq_Tx: specifies the Tx buffer DMA transfer request
1101:Drivers/STM32F4xx_StdPeriph_Driver/src/stm32f4xx_spi.c ****    (#) SPI_I2S_DMAReq_Rx: specifies the Rx buffer DMA transfer request
1102:Drivers/STM32F4xx_StdPeriph_Driver/src/stm32f4xx_spi.c **** 
1103:Drivers/STM32F4xx_StdPeriph_Driver/src/stm32f4xx_spi.c ****  [..] In this Mode it is advised to use the following function:
1104:Drivers/STM32F4xx_StdPeriph_Driver/src/stm32f4xx_spi.c ****    (+) void SPI_I2S_DMACmd(SPI_TypeDef* SPIx, uint16_t SPI_I2S_DMAReq, FunctionalState 
1105:Drivers/STM32F4xx_StdPeriph_Driver/src/stm32f4xx_spi.c ****        NewState);
1106:Drivers/STM32F4xx_StdPeriph_Driver/src/stm32f4xx_spi.c **** 
1107:Drivers/STM32F4xx_StdPeriph_Driver/src/stm32f4xx_spi.c **** @endverbatim
1108:Drivers/STM32F4xx_StdPeriph_Driver/src/stm32f4xx_spi.c ****   * @{
1109:Drivers/STM32F4xx_StdPeriph_Driver/src/stm32f4xx_spi.c ****   */
1110:Drivers/STM32F4xx_StdPeriph_Driver/src/stm32f4xx_spi.c **** 
1111:Drivers/STM32F4xx_StdPeriph_Driver/src/stm32f4xx_spi.c **** /**
1112:Drivers/STM32F4xx_StdPeriph_Driver/src/stm32f4xx_spi.c ****   * @brief  Enables or disables the specified SPI/I2S interrupts.
1113:Drivers/STM32F4xx_StdPeriph_Driver/src/stm32f4xx_spi.c ****   * @param  SPIx: To select the SPIx/I2Sx peripheral, where x can be: 1, 2, 3, 4, 5 or 6 
1114:Drivers/STM32F4xx_StdPeriph_Driver/src/stm32f4xx_spi.c ****   *         in SPI mode or 2 or 3 in I2S mode or I2Sxext for I2S full duplex mode. 
1115:Drivers/STM32F4xx_StdPeriph_Driver/src/stm32f4xx_spi.c ****   * @param  SPI_I2S_IT: specifies the SPI interrupt source to be enabled or disabled. 
1116:Drivers/STM32F4xx_StdPeriph_Driver/src/stm32f4xx_spi.c ****   *          This parameter can be one of the following values:
1117:Drivers/STM32F4xx_StdPeriph_Driver/src/stm32f4xx_spi.c ****   *            @arg SPI_I2S_IT_TXE: Tx buffer empty interrupt mask
1118:Drivers/STM32F4xx_StdPeriph_Driver/src/stm32f4xx_spi.c ****   *            @arg SPI_I2S_IT_RXNE: Rx buffer not empty interrupt mask
1119:Drivers/STM32F4xx_StdPeriph_Driver/src/stm32f4xx_spi.c ****   *            @arg SPI_I2S_IT_ERR: Error interrupt mask
1120:Drivers/STM32F4xx_StdPeriph_Driver/src/stm32f4xx_spi.c ****   * @param  NewState: new state of the specified SPI interrupt.
1121:Drivers/STM32F4xx_StdPeriph_Driver/src/stm32f4xx_spi.c ****   *          This parameter can be: ENABLE or DISABLE.
1122:Drivers/STM32F4xx_StdPeriph_Driver/src/stm32f4xx_spi.c ****   * @retval None
1123:Drivers/STM32F4xx_StdPeriph_Driver/src/stm32f4xx_spi.c ****   */
1124:Drivers/STM32F4xx_StdPeriph_Driver/src/stm32f4xx_spi.c **** void SPI_I2S_ITConfig(SPI_TypeDef* SPIx, uint8_t SPI_I2S_IT, FunctionalState NewState)
1125:Drivers/STM32F4xx_StdPeriph_Driver/src/stm32f4xx_spi.c **** {
 1242              		.loc 1 1125 1 is_stmt 1 view -0
 1243              		.cfi_startproc
 1244              		@ args = 0, pretend = 0, frame = 0
 1245              		@ frame_needed = 0, uses_anonymous_args = 0
 1246              		@ link register save eliminated.
1126:Drivers/STM32F4xx_StdPeriph_Driver/src/stm32f4xx_spi.c ****   uint16_t itpos = 0, itmask = 0 ;
 1247              		.loc 1 1126 3 view .LVU369
1127:Drivers/STM32F4xx_StdPeriph_Driver/src/stm32f4xx_spi.c ****   
1128:Drivers/STM32F4xx_StdPeriph_Driver/src/stm32f4xx_spi.c ****   /* Check the parameters */
1129:Drivers/STM32F4xx_StdPeriph_Driver/src/stm32f4xx_spi.c ****   assert_param(IS_SPI_ALL_PERIPH_EXT(SPIx));
 1248              		.loc 1 1129 3 view .LVU370
1130:Drivers/STM32F4xx_StdPeriph_Driver/src/stm32f4xx_spi.c ****   assert_param(IS_FUNCTIONAL_STATE(NewState));
 1249              		.loc 1 1130 3 view .LVU371
1131:Drivers/STM32F4xx_StdPeriph_Driver/src/stm32f4xx_spi.c ****   assert_param(IS_SPI_I2S_CONFIG_IT(SPI_I2S_IT));
 1250              		.loc 1 1131 3 view .LVU372
1132:Drivers/STM32F4xx_StdPeriph_Driver/src/stm32f4xx_spi.c **** 
1133:Drivers/STM32F4xx_StdPeriph_Driver/src/stm32f4xx_spi.c ****   /* Get the SPI IT index */
1134:Drivers/STM32F4xx_StdPeriph_Driver/src/stm32f4xx_spi.c ****   itpos = SPI_I2S_IT >> 4;
 1251              		.loc 1 1134 3 view .LVU373
 1252              		.loc 1 1134 9 is_stmt 0 view .LVU374
 1253 0000 0B09     		lsrs	r3, r1, #4
ARM GAS  /tmp/ccExwBFD.s 			page 43


 1254              	.LVL100:
1135:Drivers/STM32F4xx_StdPeriph_Driver/src/stm32f4xx_spi.c **** 
1136:Drivers/STM32F4xx_StdPeriph_Driver/src/stm32f4xx_spi.c ****   /* Set the IT mask */
1137:Drivers/STM32F4xx_StdPeriph_Driver/src/stm32f4xx_spi.c ****   itmask = (uint16_t)1 << (uint16_t)itpos;
 1255              		.loc 1 1137 3 is_stmt 1 view .LVU375
 1256              		.loc 1 1137 24 is_stmt 0 view .LVU376
 1257 0002 0121     		movs	r1, #1
 1258              	.LVL101:
 1259              		.loc 1 1137 24 view .LVU377
 1260 0004 9940     		lsls	r1, r1, r3
 1261              		.loc 1 1137 10 view .LVU378
 1262 0006 89B2     		uxth	r1, r1
 1263              	.LVL102:
1138:Drivers/STM32F4xx_StdPeriph_Driver/src/stm32f4xx_spi.c **** 
1139:Drivers/STM32F4xx_StdPeriph_Driver/src/stm32f4xx_spi.c ****   if (NewState != DISABLE)
 1264              		.loc 1 1139 3 is_stmt 1 view .LVU379
 1265              		.loc 1 1139 6 is_stmt 0 view .LVU380
 1266 0008 22B1     		cbz	r2, .L76
1140:Drivers/STM32F4xx_StdPeriph_Driver/src/stm32f4xx_spi.c ****   {
1141:Drivers/STM32F4xx_StdPeriph_Driver/src/stm32f4xx_spi.c ****     /* Enable the selected SPI interrupt */
1142:Drivers/STM32F4xx_StdPeriph_Driver/src/stm32f4xx_spi.c ****     SPIx->CR2 |= itmask;
 1267              		.loc 1 1142 5 is_stmt 1 view .LVU381
 1268              		.loc 1 1142 15 is_stmt 0 view .LVU382
 1269 000a 8388     		ldrh	r3, [r0, #4]
 1270              	.LVL103:
 1271              		.loc 1 1142 15 view .LVU383
 1272 000c 9BB2     		uxth	r3, r3
 1273 000e 1943     		orrs	r1, r1, r3
 1274              	.LVL104:
 1275              		.loc 1 1142 15 view .LVU384
 1276 0010 8180     		strh	r1, [r0, #4]	@ movhi
 1277 0012 7047     		bx	lr
 1278              	.LVL105:
 1279              	.L76:
1143:Drivers/STM32F4xx_StdPeriph_Driver/src/stm32f4xx_spi.c ****   }
1144:Drivers/STM32F4xx_StdPeriph_Driver/src/stm32f4xx_spi.c ****   else
1145:Drivers/STM32F4xx_StdPeriph_Driver/src/stm32f4xx_spi.c ****   {
1146:Drivers/STM32F4xx_StdPeriph_Driver/src/stm32f4xx_spi.c ****     /* Disable the selected SPI interrupt */
1147:Drivers/STM32F4xx_StdPeriph_Driver/src/stm32f4xx_spi.c ****     SPIx->CR2 &= (uint16_t)~itmask;
 1280              		.loc 1 1147 5 is_stmt 1 view .LVU385
 1281              		.loc 1 1147 15 is_stmt 0 view .LVU386
 1282 0014 8388     		ldrh	r3, [r0, #4]
 1283              	.LVL106:
 1284              		.loc 1 1147 18 view .LVU387
 1285 0016 C943     		mvns	r1, r1
 1286              	.LVL107:
 1287              		.loc 1 1147 18 view .LVU388
 1288 0018 89B2     		uxth	r1, r1
 1289              	.LVL108:
 1290              		.loc 1 1147 15 view .LVU389
 1291 001a 1940     		ands	r1, r1, r3
 1292 001c 8180     		strh	r1, [r0, #4]	@ movhi
1148:Drivers/STM32F4xx_StdPeriph_Driver/src/stm32f4xx_spi.c ****   }
1149:Drivers/STM32F4xx_StdPeriph_Driver/src/stm32f4xx_spi.c **** }
 1293              		.loc 1 1149 1 view .LVU390
 1294 001e 7047     		bx	lr
 1295              		.cfi_endproc
ARM GAS  /tmp/ccExwBFD.s 			page 44


 1296              	.LFE143:
 1298              		.section	.text.SPI_I2S_GetFlagStatus,"ax",%progbits
 1299              		.align	1
 1300              		.global	SPI_I2S_GetFlagStatus
 1301              		.syntax unified
 1302              		.thumb
 1303              		.thumb_func
 1305              	SPI_I2S_GetFlagStatus:
 1306              	.LVL109:
 1307              	.LFB144:
1150:Drivers/STM32F4xx_StdPeriph_Driver/src/stm32f4xx_spi.c **** 
1151:Drivers/STM32F4xx_StdPeriph_Driver/src/stm32f4xx_spi.c **** /**
1152:Drivers/STM32F4xx_StdPeriph_Driver/src/stm32f4xx_spi.c ****   * @brief  Checks whether the specified SPIx/I2Sx flag is set or not.
1153:Drivers/STM32F4xx_StdPeriph_Driver/src/stm32f4xx_spi.c ****   * @param  SPIx: To select the SPIx/I2Sx peripheral, where x can be: 1, 2, 3, 4, 5 or 6 
1154:Drivers/STM32F4xx_StdPeriph_Driver/src/stm32f4xx_spi.c ****   *         in SPI mode or 2 or 3 in I2S mode or I2Sxext for I2S full duplex mode. 
1155:Drivers/STM32F4xx_StdPeriph_Driver/src/stm32f4xx_spi.c ****   * @param  SPI_I2S_FLAG: specifies the SPI flag to check. 
1156:Drivers/STM32F4xx_StdPeriph_Driver/src/stm32f4xx_spi.c ****   *          This parameter can be one of the following values:
1157:Drivers/STM32F4xx_StdPeriph_Driver/src/stm32f4xx_spi.c ****   *            @arg SPI_I2S_FLAG_TXE: Transmit buffer empty flag.
1158:Drivers/STM32F4xx_StdPeriph_Driver/src/stm32f4xx_spi.c ****   *            @arg SPI_I2S_FLAG_RXNE: Receive buffer not empty flag.
1159:Drivers/STM32F4xx_StdPeriph_Driver/src/stm32f4xx_spi.c ****   *            @arg SPI_I2S_FLAG_BSY: Busy flag.
1160:Drivers/STM32F4xx_StdPeriph_Driver/src/stm32f4xx_spi.c ****   *            @arg SPI_I2S_FLAG_OVR: Overrun flag.
1161:Drivers/STM32F4xx_StdPeriph_Driver/src/stm32f4xx_spi.c ****   *            @arg SPI_FLAG_MODF: Mode Fault flag.
1162:Drivers/STM32F4xx_StdPeriph_Driver/src/stm32f4xx_spi.c ****   *            @arg SPI_FLAG_CRCERR: CRC Error flag.
1163:Drivers/STM32F4xx_StdPeriph_Driver/src/stm32f4xx_spi.c ****   *            @arg SPI_I2S_FLAG_TIFRFE: Format Error.
1164:Drivers/STM32F4xx_StdPeriph_Driver/src/stm32f4xx_spi.c ****   *            @arg I2S_FLAG_UDR: Underrun Error flag.
1165:Drivers/STM32F4xx_StdPeriph_Driver/src/stm32f4xx_spi.c ****   *            @arg I2S_FLAG_CHSIDE: Channel Side flag.  
1166:Drivers/STM32F4xx_StdPeriph_Driver/src/stm32f4xx_spi.c ****   * @retval The new state of SPI_I2S_FLAG (SET or RESET).
1167:Drivers/STM32F4xx_StdPeriph_Driver/src/stm32f4xx_spi.c ****   */
1168:Drivers/STM32F4xx_StdPeriph_Driver/src/stm32f4xx_spi.c **** FlagStatus SPI_I2S_GetFlagStatus(SPI_TypeDef* SPIx, uint16_t SPI_I2S_FLAG)
1169:Drivers/STM32F4xx_StdPeriph_Driver/src/stm32f4xx_spi.c **** {
 1308              		.loc 1 1169 1 is_stmt 1 view -0
 1309              		.cfi_startproc
 1310              		@ args = 0, pretend = 0, frame = 0
 1311              		@ frame_needed = 0, uses_anonymous_args = 0
 1312              		@ link register save eliminated.
1170:Drivers/STM32F4xx_StdPeriph_Driver/src/stm32f4xx_spi.c ****   FlagStatus bitstatus = RESET;
 1313              		.loc 1 1170 3 view .LVU392
1171:Drivers/STM32F4xx_StdPeriph_Driver/src/stm32f4xx_spi.c ****   /* Check the parameters */
1172:Drivers/STM32F4xx_StdPeriph_Driver/src/stm32f4xx_spi.c ****   assert_param(IS_SPI_ALL_PERIPH_EXT(SPIx));
 1314              		.loc 1 1172 3 view .LVU393
1173:Drivers/STM32F4xx_StdPeriph_Driver/src/stm32f4xx_spi.c ****   assert_param(IS_SPI_I2S_GET_FLAG(SPI_I2S_FLAG));
 1315              		.loc 1 1173 3 view .LVU394
1174:Drivers/STM32F4xx_StdPeriph_Driver/src/stm32f4xx_spi.c ****   
1175:Drivers/STM32F4xx_StdPeriph_Driver/src/stm32f4xx_spi.c ****   /* Check the status of the specified SPI flag */
1176:Drivers/STM32F4xx_StdPeriph_Driver/src/stm32f4xx_spi.c ****   if ((SPIx->SR & SPI_I2S_FLAG) != (uint16_t)RESET)
 1316              		.loc 1 1176 3 view .LVU395
 1317              		.loc 1 1176 12 is_stmt 0 view .LVU396
 1318 0000 0389     		ldrh	r3, [r0, #8]
 1319              		.loc 1 1176 6 view .LVU397
 1320 0002 1942     		tst	r1, r3
 1321 0004 01D0     		beq	.L80
1177:Drivers/STM32F4xx_StdPeriph_Driver/src/stm32f4xx_spi.c ****   {
1178:Drivers/STM32F4xx_StdPeriph_Driver/src/stm32f4xx_spi.c ****     /* SPI_I2S_FLAG is set */
1179:Drivers/STM32F4xx_StdPeriph_Driver/src/stm32f4xx_spi.c ****     bitstatus = SET;
 1322              		.loc 1 1179 15 view .LVU398
 1323 0006 0120     		movs	r0, #1
 1324              	.LVL110:
ARM GAS  /tmp/ccExwBFD.s 			page 45


 1325              		.loc 1 1179 15 view .LVU399
 1326 0008 7047     		bx	lr
 1327              	.LVL111:
 1328              	.L80:
1180:Drivers/STM32F4xx_StdPeriph_Driver/src/stm32f4xx_spi.c ****   }
1181:Drivers/STM32F4xx_StdPeriph_Driver/src/stm32f4xx_spi.c ****   else
1182:Drivers/STM32F4xx_StdPeriph_Driver/src/stm32f4xx_spi.c ****   {
1183:Drivers/STM32F4xx_StdPeriph_Driver/src/stm32f4xx_spi.c ****     /* SPI_I2S_FLAG is reset */
1184:Drivers/STM32F4xx_StdPeriph_Driver/src/stm32f4xx_spi.c ****     bitstatus = RESET;
 1329              		.loc 1 1184 15 view .LVU400
 1330 000a 0020     		movs	r0, #0
 1331              	.LVL112:
1185:Drivers/STM32F4xx_StdPeriph_Driver/src/stm32f4xx_spi.c ****   }
1186:Drivers/STM32F4xx_StdPeriph_Driver/src/stm32f4xx_spi.c ****   /* Return the SPI_I2S_FLAG status */
1187:Drivers/STM32F4xx_StdPeriph_Driver/src/stm32f4xx_spi.c ****   return  bitstatus;
 1332              		.loc 1 1187 3 is_stmt 1 view .LVU401
1188:Drivers/STM32F4xx_StdPeriph_Driver/src/stm32f4xx_spi.c **** }
 1333              		.loc 1 1188 1 is_stmt 0 view .LVU402
 1334 000c 7047     		bx	lr
 1335              		.cfi_endproc
 1336              	.LFE144:
 1338              		.section	.text.SPI_I2S_ClearFlag,"ax",%progbits
 1339              		.align	1
 1340              		.global	SPI_I2S_ClearFlag
 1341              		.syntax unified
 1342              		.thumb
 1343              		.thumb_func
 1345              	SPI_I2S_ClearFlag:
 1346              	.LVL113:
 1347              	.LFB145:
1189:Drivers/STM32F4xx_StdPeriph_Driver/src/stm32f4xx_spi.c **** 
1190:Drivers/STM32F4xx_StdPeriph_Driver/src/stm32f4xx_spi.c **** /**
1191:Drivers/STM32F4xx_StdPeriph_Driver/src/stm32f4xx_spi.c ****   * @brief  Clears the SPIx CRC Error (CRCERR) flag.
1192:Drivers/STM32F4xx_StdPeriph_Driver/src/stm32f4xx_spi.c ****   * @param  SPIx: To select the SPIx/I2Sx peripheral, where x can be: 1, 2, 3, 4, 5 or 6 
1193:Drivers/STM32F4xx_StdPeriph_Driver/src/stm32f4xx_spi.c ****   *         in SPI mode or 2 or 3 in I2S mode or I2Sxext for I2S full duplex mode. 
1194:Drivers/STM32F4xx_StdPeriph_Driver/src/stm32f4xx_spi.c ****   * @param  SPI_I2S_FLAG: specifies the SPI flag to clear. 
1195:Drivers/STM32F4xx_StdPeriph_Driver/src/stm32f4xx_spi.c ****   *          This function clears only CRCERR flag.
1196:Drivers/STM32F4xx_StdPeriph_Driver/src/stm32f4xx_spi.c ****   *            @arg SPI_FLAG_CRCERR: CRC Error flag.  
1197:Drivers/STM32F4xx_StdPeriph_Driver/src/stm32f4xx_spi.c ****   *  
1198:Drivers/STM32F4xx_StdPeriph_Driver/src/stm32f4xx_spi.c ****   * @note   OVR (OverRun error) flag is cleared by software sequence: a read 
1199:Drivers/STM32F4xx_StdPeriph_Driver/src/stm32f4xx_spi.c ****   *          operation to SPI_DR register (SPI_I2S_ReceiveData()) followed by a read 
1200:Drivers/STM32F4xx_StdPeriph_Driver/src/stm32f4xx_spi.c ****   *          operation to SPI_SR register (SPI_I2S_GetFlagStatus()).
1201:Drivers/STM32F4xx_StdPeriph_Driver/src/stm32f4xx_spi.c ****   * @note   UDR (UnderRun error) flag is cleared by a read operation to 
1202:Drivers/STM32F4xx_StdPeriph_Driver/src/stm32f4xx_spi.c ****   *          SPI_SR register (SPI_I2S_GetFlagStatus()).   
1203:Drivers/STM32F4xx_StdPeriph_Driver/src/stm32f4xx_spi.c ****   * @note   MODF (Mode Fault) flag is cleared by software sequence: a read/write 
1204:Drivers/STM32F4xx_StdPeriph_Driver/src/stm32f4xx_spi.c ****   *          operation to SPI_SR register (SPI_I2S_GetFlagStatus()) followed by a 
1205:Drivers/STM32F4xx_StdPeriph_Driver/src/stm32f4xx_spi.c ****   *          write operation to SPI_CR1 register (SPI_Cmd() to enable the SPI).
1206:Drivers/STM32F4xx_StdPeriph_Driver/src/stm32f4xx_spi.c ****   *  
1207:Drivers/STM32F4xx_StdPeriph_Driver/src/stm32f4xx_spi.c ****   * @retval None
1208:Drivers/STM32F4xx_StdPeriph_Driver/src/stm32f4xx_spi.c ****   */
1209:Drivers/STM32F4xx_StdPeriph_Driver/src/stm32f4xx_spi.c **** void SPI_I2S_ClearFlag(SPI_TypeDef* SPIx, uint16_t SPI_I2S_FLAG)
1210:Drivers/STM32F4xx_StdPeriph_Driver/src/stm32f4xx_spi.c **** {
 1348              		.loc 1 1210 1 is_stmt 1 view -0
 1349              		.cfi_startproc
 1350              		@ args = 0, pretend = 0, frame = 0
 1351              		@ frame_needed = 0, uses_anonymous_args = 0
 1352              		@ link register save eliminated.
ARM GAS  /tmp/ccExwBFD.s 			page 46


1211:Drivers/STM32F4xx_StdPeriph_Driver/src/stm32f4xx_spi.c ****   /* Check the parameters */
1212:Drivers/STM32F4xx_StdPeriph_Driver/src/stm32f4xx_spi.c ****   assert_param(IS_SPI_ALL_PERIPH_EXT(SPIx));
 1353              		.loc 1 1212 3 view .LVU404
1213:Drivers/STM32F4xx_StdPeriph_Driver/src/stm32f4xx_spi.c ****   assert_param(IS_SPI_I2S_CLEAR_FLAG(SPI_I2S_FLAG));
 1354              		.loc 1 1213 3 view .LVU405
1214:Drivers/STM32F4xx_StdPeriph_Driver/src/stm32f4xx_spi.c ****     
1215:Drivers/STM32F4xx_StdPeriph_Driver/src/stm32f4xx_spi.c ****   /* Clear the selected SPI CRC Error (CRCERR) flag */
1216:Drivers/STM32F4xx_StdPeriph_Driver/src/stm32f4xx_spi.c ****   SPIx->SR = (uint16_t)~SPI_I2S_FLAG;
 1355              		.loc 1 1216 3 view .LVU406
 1356              		.loc 1 1216 14 is_stmt 0 view .LVU407
 1357 0000 C943     		mvns	r1, r1
 1358              	.LVL114:
 1359              		.loc 1 1216 14 view .LVU408
 1360 0002 89B2     		uxth	r1, r1
 1361              		.loc 1 1216 12 view .LVU409
 1362 0004 0181     		strh	r1, [r0, #8]	@ movhi
1217:Drivers/STM32F4xx_StdPeriph_Driver/src/stm32f4xx_spi.c **** }
 1363              		.loc 1 1217 1 view .LVU410
 1364 0006 7047     		bx	lr
 1365              		.cfi_endproc
 1366              	.LFE145:
 1368              		.section	.text.SPI_I2S_GetITStatus,"ax",%progbits
 1369              		.align	1
 1370              		.global	SPI_I2S_GetITStatus
 1371              		.syntax unified
 1372              		.thumb
 1373              		.thumb_func
 1375              	SPI_I2S_GetITStatus:
 1376              	.LVL115:
 1377              	.LFB146:
1218:Drivers/STM32F4xx_StdPeriph_Driver/src/stm32f4xx_spi.c **** 
1219:Drivers/STM32F4xx_StdPeriph_Driver/src/stm32f4xx_spi.c **** /**
1220:Drivers/STM32F4xx_StdPeriph_Driver/src/stm32f4xx_spi.c ****   * @brief  Checks whether the specified SPIx/I2Sx interrupt has occurred or not.
1221:Drivers/STM32F4xx_StdPeriph_Driver/src/stm32f4xx_spi.c ****   * @param  SPIx: To select the SPIx/I2Sx peripheral, where x can be: 1, 2, 3, 4, 5 or 6 
1222:Drivers/STM32F4xx_StdPeriph_Driver/src/stm32f4xx_spi.c ****   *         in SPI mode or 2 or 3 in I2S mode or I2Sxext for I2S full duplex mode.  
1223:Drivers/STM32F4xx_StdPeriph_Driver/src/stm32f4xx_spi.c ****   * @param  SPI_I2S_IT: specifies the SPI interrupt source to check. 
1224:Drivers/STM32F4xx_StdPeriph_Driver/src/stm32f4xx_spi.c ****   *          This parameter can be one of the following values:
1225:Drivers/STM32F4xx_StdPeriph_Driver/src/stm32f4xx_spi.c ****   *            @arg SPI_I2S_IT_TXE: Transmit buffer empty interrupt.
1226:Drivers/STM32F4xx_StdPeriph_Driver/src/stm32f4xx_spi.c ****   *            @arg SPI_I2S_IT_RXNE: Receive buffer not empty interrupt.
1227:Drivers/STM32F4xx_StdPeriph_Driver/src/stm32f4xx_spi.c ****   *            @arg SPI_I2S_IT_OVR: Overrun interrupt.
1228:Drivers/STM32F4xx_StdPeriph_Driver/src/stm32f4xx_spi.c ****   *            @arg SPI_IT_MODF: Mode Fault interrupt.
1229:Drivers/STM32F4xx_StdPeriph_Driver/src/stm32f4xx_spi.c ****   *            @arg SPI_IT_CRCERR: CRC Error interrupt.
1230:Drivers/STM32F4xx_StdPeriph_Driver/src/stm32f4xx_spi.c ****   *            @arg I2S_IT_UDR: Underrun interrupt.  
1231:Drivers/STM32F4xx_StdPeriph_Driver/src/stm32f4xx_spi.c ****   *            @arg SPI_I2S_IT_TIFRFE: Format Error interrupt.  
1232:Drivers/STM32F4xx_StdPeriph_Driver/src/stm32f4xx_spi.c ****   * @retval The new state of SPI_I2S_IT (SET or RESET).
1233:Drivers/STM32F4xx_StdPeriph_Driver/src/stm32f4xx_spi.c ****   */
1234:Drivers/STM32F4xx_StdPeriph_Driver/src/stm32f4xx_spi.c **** ITStatus SPI_I2S_GetITStatus(SPI_TypeDef* SPIx, uint8_t SPI_I2S_IT)
1235:Drivers/STM32F4xx_StdPeriph_Driver/src/stm32f4xx_spi.c **** {
 1378              		.loc 1 1235 1 is_stmt 1 view -0
 1379              		.cfi_startproc
 1380              		@ args = 0, pretend = 0, frame = 0
 1381              		@ frame_needed = 0, uses_anonymous_args = 0
 1382              		@ link register save eliminated.
1236:Drivers/STM32F4xx_StdPeriph_Driver/src/stm32f4xx_spi.c ****   ITStatus bitstatus = RESET;
 1383              		.loc 1 1236 3 view .LVU412
1237:Drivers/STM32F4xx_StdPeriph_Driver/src/stm32f4xx_spi.c ****   uint16_t itpos = 0, itmask = 0, enablestatus = 0;
 1384              		.loc 1 1237 3 view .LVU413
ARM GAS  /tmp/ccExwBFD.s 			page 47


1238:Drivers/STM32F4xx_StdPeriph_Driver/src/stm32f4xx_spi.c **** 
1239:Drivers/STM32F4xx_StdPeriph_Driver/src/stm32f4xx_spi.c ****   /* Check the parameters */
1240:Drivers/STM32F4xx_StdPeriph_Driver/src/stm32f4xx_spi.c ****   assert_param(IS_SPI_ALL_PERIPH_EXT(SPIx));
 1385              		.loc 1 1240 3 view .LVU414
1241:Drivers/STM32F4xx_StdPeriph_Driver/src/stm32f4xx_spi.c ****   assert_param(IS_SPI_I2S_GET_IT(SPI_I2S_IT));
 1386              		.loc 1 1241 3 view .LVU415
1242:Drivers/STM32F4xx_StdPeriph_Driver/src/stm32f4xx_spi.c **** 
1243:Drivers/STM32F4xx_StdPeriph_Driver/src/stm32f4xx_spi.c ****   /* Get the SPI_I2S_IT index */
1244:Drivers/STM32F4xx_StdPeriph_Driver/src/stm32f4xx_spi.c ****   itpos = 0x01 << (SPI_I2S_IT & 0x0F);
 1387              		.loc 1 1244 3 view .LVU416
 1388              		.loc 1 1244 31 is_stmt 0 view .LVU417
 1389 0000 01F00F02 		and	r2, r1, #15
 1390              		.loc 1 1244 16 view .LVU418
 1391 0004 0123     		movs	r3, #1
 1392 0006 03FA02F2 		lsl	r2, r3, r2
 1393              	.LVL116:
1245:Drivers/STM32F4xx_StdPeriph_Driver/src/stm32f4xx_spi.c **** 
1246:Drivers/STM32F4xx_StdPeriph_Driver/src/stm32f4xx_spi.c ****   /* Get the SPI_I2S_IT IT mask */
1247:Drivers/STM32F4xx_StdPeriph_Driver/src/stm32f4xx_spi.c ****   itmask = SPI_I2S_IT >> 4;
 1394              		.loc 1 1247 3 is_stmt 1 view .LVU419
 1395              		.loc 1 1247 10 is_stmt 0 view .LVU420
 1396 000a 0909     		lsrs	r1, r1, #4
 1397              	.LVL117:
1248:Drivers/STM32F4xx_StdPeriph_Driver/src/stm32f4xx_spi.c **** 
1249:Drivers/STM32F4xx_StdPeriph_Driver/src/stm32f4xx_spi.c ****   /* Set the IT mask */
1250:Drivers/STM32F4xx_StdPeriph_Driver/src/stm32f4xx_spi.c ****   itmask = 0x01 << itmask;
 1398              		.loc 1 1250 3 is_stmt 1 view .LVU421
 1399              		.loc 1 1250 17 is_stmt 0 view .LVU422
 1400 000c 03FA01F1 		lsl	r1, r3, r1
 1401              	.LVL118:
1251:Drivers/STM32F4xx_StdPeriph_Driver/src/stm32f4xx_spi.c **** 
1252:Drivers/STM32F4xx_StdPeriph_Driver/src/stm32f4xx_spi.c ****   /* Get the SPI_I2S_IT enable bit status */
1253:Drivers/STM32F4xx_StdPeriph_Driver/src/stm32f4xx_spi.c ****   enablestatus = (SPIx->CR2 & itmask) ;
 1402              		.loc 1 1253 3 is_stmt 1 view .LVU423
 1403              		.loc 1 1253 23 is_stmt 0 view .LVU424
 1404 0010 8388     		ldrh	r3, [r0, #4]
 1405 0012 9BB2     		uxth	r3, r3
 1406              		.loc 1 1253 16 view .LVU425
 1407 0014 1940     		ands	r1, r1, r3
 1408              	.LVL119:
1254:Drivers/STM32F4xx_StdPeriph_Driver/src/stm32f4xx_spi.c **** 
1255:Drivers/STM32F4xx_StdPeriph_Driver/src/stm32f4xx_spi.c ****   /* Check the status of the specified SPI interrupt */
1256:Drivers/STM32F4xx_StdPeriph_Driver/src/stm32f4xx_spi.c ****   if (((SPIx->SR & itpos) != (uint16_t)RESET) && enablestatus)
 1409              		.loc 1 1256 3 is_stmt 1 view .LVU426
 1410              		.loc 1 1256 13 is_stmt 0 view .LVU427
 1411 0016 0389     		ldrh	r3, [r0, #8]
 1412 0018 9BB2     		uxth	r3, r3
 1413              		.loc 1 1256 6 view .LVU428
 1414 001a 1A42     		tst	r2, r3
 1415 001c 02D0     		beq	.L84
 1416              		.loc 1 1256 47 discriminator 1 view .LVU429
 1417 001e 19B9     		cbnz	r1, .L85
1257:Drivers/STM32F4xx_StdPeriph_Driver/src/stm32f4xx_spi.c ****   {
1258:Drivers/STM32F4xx_StdPeriph_Driver/src/stm32f4xx_spi.c ****     /* SPI_I2S_IT is set */
1259:Drivers/STM32F4xx_StdPeriph_Driver/src/stm32f4xx_spi.c ****     bitstatus = SET;
1260:Drivers/STM32F4xx_StdPeriph_Driver/src/stm32f4xx_spi.c ****   }
1261:Drivers/STM32F4xx_StdPeriph_Driver/src/stm32f4xx_spi.c ****   else
ARM GAS  /tmp/ccExwBFD.s 			page 48


1262:Drivers/STM32F4xx_StdPeriph_Driver/src/stm32f4xx_spi.c ****   {
1263:Drivers/STM32F4xx_StdPeriph_Driver/src/stm32f4xx_spi.c ****     /* SPI_I2S_IT is reset */
1264:Drivers/STM32F4xx_StdPeriph_Driver/src/stm32f4xx_spi.c ****     bitstatus = RESET;
 1418              		.loc 1 1264 15 view .LVU430
 1419 0020 0020     		movs	r0, #0
 1420              	.LVL120:
 1421              		.loc 1 1264 15 view .LVU431
 1422 0022 7047     		bx	lr
 1423              	.LVL121:
 1424              	.L84:
 1425              		.loc 1 1264 15 view .LVU432
 1426 0024 0020     		movs	r0, #0
 1427              	.LVL122:
 1428              		.loc 1 1264 15 view .LVU433
 1429 0026 7047     		bx	lr
 1430              	.LVL123:
 1431              	.L85:
1259:Drivers/STM32F4xx_StdPeriph_Driver/src/stm32f4xx_spi.c ****   }
 1432              		.loc 1 1259 15 view .LVU434
 1433 0028 0120     		movs	r0, #1
 1434              	.LVL124:
1265:Drivers/STM32F4xx_StdPeriph_Driver/src/stm32f4xx_spi.c ****   }
1266:Drivers/STM32F4xx_StdPeriph_Driver/src/stm32f4xx_spi.c ****   /* Return the SPI_I2S_IT status */
1267:Drivers/STM32F4xx_StdPeriph_Driver/src/stm32f4xx_spi.c ****   return bitstatus;
 1435              		.loc 1 1267 3 is_stmt 1 view .LVU435
1268:Drivers/STM32F4xx_StdPeriph_Driver/src/stm32f4xx_spi.c **** }
 1436              		.loc 1 1268 1 is_stmt 0 view .LVU436
 1437 002a 7047     		bx	lr
 1438              		.cfi_endproc
 1439              	.LFE146:
 1441              		.section	.text.SPI_I2S_ClearITPendingBit,"ax",%progbits
 1442              		.align	1
 1443              		.global	SPI_I2S_ClearITPendingBit
 1444              		.syntax unified
 1445              		.thumb
 1446              		.thumb_func
 1448              	SPI_I2S_ClearITPendingBit:
 1449              	.LVL125:
 1450              	.LFB147:
1269:Drivers/STM32F4xx_StdPeriph_Driver/src/stm32f4xx_spi.c **** 
1270:Drivers/STM32F4xx_StdPeriph_Driver/src/stm32f4xx_spi.c **** /**
1271:Drivers/STM32F4xx_StdPeriph_Driver/src/stm32f4xx_spi.c ****   * @brief  Clears the SPIx CRC Error (CRCERR) interrupt pending bit.
1272:Drivers/STM32F4xx_StdPeriph_Driver/src/stm32f4xx_spi.c ****   * @param  SPIx: To select the SPIx/I2Sx peripheral, where x can be: 1, 2, 3, 4, 5 or 6 
1273:Drivers/STM32F4xx_StdPeriph_Driver/src/stm32f4xx_spi.c ****   *         in SPI mode or 2 or 3 in I2S mode or I2Sxext for I2S full duplex mode.  
1274:Drivers/STM32F4xx_StdPeriph_Driver/src/stm32f4xx_spi.c ****   * @param  SPI_I2S_IT: specifies the SPI interrupt pending bit to clear.
1275:Drivers/STM32F4xx_StdPeriph_Driver/src/stm32f4xx_spi.c ****   *         This function clears only CRCERR interrupt pending bit.   
1276:Drivers/STM32F4xx_StdPeriph_Driver/src/stm32f4xx_spi.c ****   *            @arg SPI_IT_CRCERR: CRC Error interrupt.
1277:Drivers/STM32F4xx_StdPeriph_Driver/src/stm32f4xx_spi.c ****   *   
1278:Drivers/STM32F4xx_StdPeriph_Driver/src/stm32f4xx_spi.c ****   * @note   OVR (OverRun Error) interrupt pending bit is cleared by software 
1279:Drivers/STM32F4xx_StdPeriph_Driver/src/stm32f4xx_spi.c ****   *          sequence: a read operation to SPI_DR register (SPI_I2S_ReceiveData()) 
1280:Drivers/STM32F4xx_StdPeriph_Driver/src/stm32f4xx_spi.c ****   *          followed by a read operation to SPI_SR register (SPI_I2S_GetITStatus()).
1281:Drivers/STM32F4xx_StdPeriph_Driver/src/stm32f4xx_spi.c ****   * @note   UDR (UnderRun Error) interrupt pending bit is cleared by a read 
1282:Drivers/STM32F4xx_StdPeriph_Driver/src/stm32f4xx_spi.c ****   *          operation to SPI_SR register (SPI_I2S_GetITStatus()).   
1283:Drivers/STM32F4xx_StdPeriph_Driver/src/stm32f4xx_spi.c ****   * @note   MODF (Mode Fault) interrupt pending bit is cleared by software sequence:
1284:Drivers/STM32F4xx_StdPeriph_Driver/src/stm32f4xx_spi.c ****   *          a read/write operation to SPI_SR register (SPI_I2S_GetITStatus()) 
1285:Drivers/STM32F4xx_StdPeriph_Driver/src/stm32f4xx_spi.c ****   *          followed by a write operation to SPI_CR1 register (SPI_Cmd() to enable 
1286:Drivers/STM32F4xx_StdPeriph_Driver/src/stm32f4xx_spi.c ****   *          the SPI).
ARM GAS  /tmp/ccExwBFD.s 			page 49


1287:Drivers/STM32F4xx_StdPeriph_Driver/src/stm32f4xx_spi.c ****   * @retval None
1288:Drivers/STM32F4xx_StdPeriph_Driver/src/stm32f4xx_spi.c ****   */
1289:Drivers/STM32F4xx_StdPeriph_Driver/src/stm32f4xx_spi.c **** void SPI_I2S_ClearITPendingBit(SPI_TypeDef* SPIx, uint8_t SPI_I2S_IT)
1290:Drivers/STM32F4xx_StdPeriph_Driver/src/stm32f4xx_spi.c **** {
 1451              		.loc 1 1290 1 is_stmt 1 view -0
 1452              		.cfi_startproc
 1453              		@ args = 0, pretend = 0, frame = 0
 1454              		@ frame_needed = 0, uses_anonymous_args = 0
 1455              		@ link register save eliminated.
1291:Drivers/STM32F4xx_StdPeriph_Driver/src/stm32f4xx_spi.c ****   uint16_t itpos = 0;
 1456              		.loc 1 1291 3 view .LVU438
1292:Drivers/STM32F4xx_StdPeriph_Driver/src/stm32f4xx_spi.c ****   /* Check the parameters */
1293:Drivers/STM32F4xx_StdPeriph_Driver/src/stm32f4xx_spi.c ****   assert_param(IS_SPI_ALL_PERIPH_EXT(SPIx));
 1457              		.loc 1 1293 3 view .LVU439
1294:Drivers/STM32F4xx_StdPeriph_Driver/src/stm32f4xx_spi.c ****   assert_param(IS_SPI_I2S_CLEAR_IT(SPI_I2S_IT));
 1458              		.loc 1 1294 3 view .LVU440
1295:Drivers/STM32F4xx_StdPeriph_Driver/src/stm32f4xx_spi.c **** 
1296:Drivers/STM32F4xx_StdPeriph_Driver/src/stm32f4xx_spi.c ****   /* Get the SPI_I2S IT index */
1297:Drivers/STM32F4xx_StdPeriph_Driver/src/stm32f4xx_spi.c ****   itpos = 0x01 << (SPI_I2S_IT & 0x0F);
 1459              		.loc 1 1297 3 view .LVU441
 1460              		.loc 1 1297 31 is_stmt 0 view .LVU442
 1461 0000 01F00F01 		and	r1, r1, #15
 1462              	.LVL126:
 1463              		.loc 1 1297 16 view .LVU443
 1464 0004 0123     		movs	r3, #1
 1465 0006 8B40     		lsls	r3, r3, r1
 1466              		.loc 1 1297 9 view .LVU444
 1467 0008 9BB2     		uxth	r3, r3
 1468              	.LVL127:
1298:Drivers/STM32F4xx_StdPeriph_Driver/src/stm32f4xx_spi.c **** 
1299:Drivers/STM32F4xx_StdPeriph_Driver/src/stm32f4xx_spi.c ****   /* Clear the selected SPI CRC Error (CRCERR) interrupt pending bit */
1300:Drivers/STM32F4xx_StdPeriph_Driver/src/stm32f4xx_spi.c ****   SPIx->SR = (uint16_t)~itpos;
 1469              		.loc 1 1300 3 is_stmt 1 view .LVU445
 1470              		.loc 1 1300 14 is_stmt 0 view .LVU446
 1471 000a DB43     		mvns	r3, r3
 1472              	.LVL128:
 1473              		.loc 1 1300 14 view .LVU447
 1474 000c 9BB2     		uxth	r3, r3
 1475              	.LVL129:
 1476              		.loc 1 1300 12 view .LVU448
 1477 000e 0381     		strh	r3, [r0, #8]	@ movhi
1301:Drivers/STM32F4xx_StdPeriph_Driver/src/stm32f4xx_spi.c **** }
 1478              		.loc 1 1301 1 view .LVU449
 1479 0010 7047     		bx	lr
 1480              		.cfi_endproc
 1481              	.LFE147:
 1483              		.text
 1484              	.Letext0:
 1485              		.file 2 "/usr/share/gcc-arm-none-eabi-10.3-2021.10/arm-none-eabi/include/machine/_default_types.h"
 1486              		.file 3 "/usr/share/gcc-arm-none-eabi-10.3-2021.10/arm-none-eabi/include/sys/_stdint.h"
 1487              		.file 4 "Drivers/CMSIS/Device/ST/STM32F4xx/Include/stm32f4xx.h"
 1488              		.file 5 "Drivers/STM32F4xx_StdPeriph_Driver/inc/stm32f4xx_spi.h"
 1489              		.file 6 "Drivers/STM32F4xx_StdPeriph_Driver/inc/stm32f4xx_rcc.h"
ARM GAS  /tmp/ccExwBFD.s 			page 50


DEFINED SYMBOLS
                            *ABS*:0000000000000000 stm32f4xx_spi.c
     /tmp/ccExwBFD.s:20     .text.SPI_I2S_DeInit:0000000000000000 $t
     /tmp/ccExwBFD.s:26     .text.SPI_I2S_DeInit:0000000000000000 SPI_I2S_DeInit
     /tmp/ccExwBFD.s:168    .text.SPI_I2S_DeInit:00000000000000ac $d
     /tmp/ccExwBFD.s:178    .text.SPI_Init:0000000000000000 $t
     /tmp/ccExwBFD.s:184    .text.SPI_Init:0000000000000000 SPI_Init
     /tmp/ccExwBFD.s:272    .text.I2S_Init:0000000000000000 $t
     /tmp/ccExwBFD.s:278    .text.I2S_Init:0000000000000000 I2S_Init
     /tmp/ccExwBFD.s:533    .text.I2S_Init:0000000000000110 $d
     /tmp/ccExwBFD.s:541    .text.SPI_StructInit:0000000000000000 $t
     /tmp/ccExwBFD.s:547    .text.SPI_StructInit:0000000000000000 SPI_StructInit
     /tmp/ccExwBFD.s:590    .text.I2S_StructInit:0000000000000000 $t
     /tmp/ccExwBFD.s:596    .text.I2S_StructInit:0000000000000000 I2S_StructInit
     /tmp/ccExwBFD.s:630    .text.SPI_Cmd:0000000000000000 $t
     /tmp/ccExwBFD.s:636    .text.SPI_Cmd:0000000000000000 SPI_Cmd
     /tmp/ccExwBFD.s:670    .text.I2S_Cmd:0000000000000000 $t
     /tmp/ccExwBFD.s:676    .text.I2S_Cmd:0000000000000000 I2S_Cmd
     /tmp/ccExwBFD.s:710    .text.SPI_DataSizeConfig:0000000000000000 $t
     /tmp/ccExwBFD.s:716    .text.SPI_DataSizeConfig:0000000000000000 SPI_DataSizeConfig
     /tmp/ccExwBFD.s:745    .text.SPI_BiDirectionalLineConfig:0000000000000000 $t
     /tmp/ccExwBFD.s:751    .text.SPI_BiDirectionalLineConfig:0000000000000000 SPI_BiDirectionalLineConfig
     /tmp/ccExwBFD.s:786    .text.SPI_NSSInternalSoftwareConfig:0000000000000000 $t
     /tmp/ccExwBFD.s:792    .text.SPI_NSSInternalSoftwareConfig:0000000000000000 SPI_NSSInternalSoftwareConfig
     /tmp/ccExwBFD.s:828    .text.SPI_SSOutputCmd:0000000000000000 $t
     /tmp/ccExwBFD.s:834    .text.SPI_SSOutputCmd:0000000000000000 SPI_SSOutputCmd
     /tmp/ccExwBFD.s:868    .text.SPI_TIModeCmd:0000000000000000 $t
     /tmp/ccExwBFD.s:874    .text.SPI_TIModeCmd:0000000000000000 SPI_TIModeCmd
     /tmp/ccExwBFD.s:908    .text.I2S_FullDuplexConfig:0000000000000000 $t
     /tmp/ccExwBFD.s:914    .text.I2S_FullDuplexConfig:0000000000000000 I2S_FullDuplexConfig
     /tmp/ccExwBFD.s:996    .text.SPI_I2S_ReceiveData:0000000000000000 $t
     /tmp/ccExwBFD.s:1002   .text.SPI_I2S_ReceiveData:0000000000000000 SPI_I2S_ReceiveData
     /tmp/ccExwBFD.s:1022   .text.SPI_I2S_SendData:0000000000000000 $t
     /tmp/ccExwBFD.s:1028   .text.SPI_I2S_SendData:0000000000000000 SPI_I2S_SendData
     /tmp/ccExwBFD.s:1046   .text.SPI_CalculateCRC:0000000000000000 $t
     /tmp/ccExwBFD.s:1052   .text.SPI_CalculateCRC:0000000000000000 SPI_CalculateCRC
     /tmp/ccExwBFD.s:1086   .text.SPI_TransmitCRC:0000000000000000 $t
     /tmp/ccExwBFD.s:1092   .text.SPI_TransmitCRC:0000000000000000 SPI_TransmitCRC
     /tmp/ccExwBFD.s:1113   .text.SPI_GetCRC:0000000000000000 $t
     /tmp/ccExwBFD.s:1119   .text.SPI_GetCRC:0000000000000000 SPI_GetCRC
     /tmp/ccExwBFD.s:1159   .text.SPI_GetCRCPolynomial:0000000000000000 $t
     /tmp/ccExwBFD.s:1165   .text.SPI_GetCRCPolynomial:0000000000000000 SPI_GetCRCPolynomial
     /tmp/ccExwBFD.s:1185   .text.SPI_I2S_DMACmd:0000000000000000 $t
     /tmp/ccExwBFD.s:1191   .text.SPI_I2S_DMACmd:0000000000000000 SPI_I2S_DMACmd
     /tmp/ccExwBFD.s:1233   .text.SPI_I2S_ITConfig:0000000000000000 $t
     /tmp/ccExwBFD.s:1239   .text.SPI_I2S_ITConfig:0000000000000000 SPI_I2S_ITConfig
     /tmp/ccExwBFD.s:1299   .text.SPI_I2S_GetFlagStatus:0000000000000000 $t
     /tmp/ccExwBFD.s:1305   .text.SPI_I2S_GetFlagStatus:0000000000000000 SPI_I2S_GetFlagStatus
     /tmp/ccExwBFD.s:1339   .text.SPI_I2S_ClearFlag:0000000000000000 $t
     /tmp/ccExwBFD.s:1345   .text.SPI_I2S_ClearFlag:0000000000000000 SPI_I2S_ClearFlag
     /tmp/ccExwBFD.s:1369   .text.SPI_I2S_GetITStatus:0000000000000000 $t
     /tmp/ccExwBFD.s:1375   .text.SPI_I2S_GetITStatus:0000000000000000 SPI_I2S_GetITStatus
     /tmp/ccExwBFD.s:1442   .text.SPI_I2S_ClearITPendingBit:0000000000000000 $t
     /tmp/ccExwBFD.s:1448   .text.SPI_I2S_ClearITPendingBit:0000000000000000 SPI_I2S_ClearITPendingBit

UNDEFINED SYMBOLS
RCC_APB2PeriphResetCmd
ARM GAS  /tmp/ccExwBFD.s 			page 51


RCC_APB1PeriphResetCmd
