ARM GAS  /tmp/ccjGnpiF.s 			page 1


   1              		.cpu cortex-m4
   2              		.eabi_attribute 27, 1
   3              		.eabi_attribute 28, 1
   4              		.eabi_attribute 20, 1
   5              		.eabi_attribute 21, 1
   6              		.eabi_attribute 23, 3
   7              		.eabi_attribute 24, 1
   8              		.eabi_attribute 25, 1
   9              		.eabi_attribute 26, 1
  10              		.eabi_attribute 30, 1
  11              		.eabi_attribute 34, 1
  12              		.eabi_attribute 18, 4
  13              		.file	"stm32f4xx_cryp_aes.c"
  14              		.text
  15              	.Ltext0:
  16              		.cfi_sections	.debug_frame
  17              		.section	.text.CRYP_AES_ECB,"ax",%progbits
  18              		.align	1
  19              		.global	CRYP_AES_ECB
  20              		.arch armv7e-m
  21              		.syntax unified
  22              		.thumb
  23              		.thumb_func
  24              		.fpu fpv4-sp-d16
  26              	CRYP_AES_ECB:
  27              	.LVL0:
  28              	.LFB123:
  29              		.file 1 "Drivers/STM32F4xx_StdPeriph_Driver/src/stm32f4xx_cryp_aes.c"
   1:Drivers/STM32F4xx_StdPeriph_Driver/src/stm32f4xx_cryp_aes.c **** /**
   2:Drivers/STM32F4xx_StdPeriph_Driver/src/stm32f4xx_cryp_aes.c ****   ******************************************************************************
   3:Drivers/STM32F4xx_StdPeriph_Driver/src/stm32f4xx_cryp_aes.c ****   * @file    stm32f4xx_cryp_aes.c
   4:Drivers/STM32F4xx_StdPeriph_Driver/src/stm32f4xx_cryp_aes.c ****   * @author  MCD Application Team
   5:Drivers/STM32F4xx_StdPeriph_Driver/src/stm32f4xx_cryp_aes.c ****   * @version V1.6.1
   6:Drivers/STM32F4xx_StdPeriph_Driver/src/stm32f4xx_cryp_aes.c ****   * @date    21-October-2015
   7:Drivers/STM32F4xx_StdPeriph_Driver/src/stm32f4xx_cryp_aes.c ****   * @brief   This file provides high level functions to encrypt and decrypt an 
   8:Drivers/STM32F4xx_StdPeriph_Driver/src/stm32f4xx_cryp_aes.c ****   *          input message using AES in ECB/CBC/CTR/GCM/CCM modes.
   9:Drivers/STM32F4xx_StdPeriph_Driver/src/stm32f4xx_cryp_aes.c ****   *          It uses the stm32f4xx_cryp.c/.h drivers to access the STM32F4xx CRYP
  10:Drivers/STM32F4xx_StdPeriph_Driver/src/stm32f4xx_cryp_aes.c ****   *          peripheral.
  11:Drivers/STM32F4xx_StdPeriph_Driver/src/stm32f4xx_cryp_aes.c ****   *          AES-ECB/CBC/CTR/GCM/CCM modes are available on STM32F437x Devices.
  12:Drivers/STM32F4xx_StdPeriph_Driver/src/stm32f4xx_cryp_aes.c ****   *          For STM32F41xx Devices, only AES-ECB/CBC/CTR modes are available.
  13:Drivers/STM32F4xx_StdPeriph_Driver/src/stm32f4xx_cryp_aes.c ****   *
  14:Drivers/STM32F4xx_StdPeriph_Driver/src/stm32f4xx_cryp_aes.c **** @verbatim
  15:Drivers/STM32F4xx_StdPeriph_Driver/src/stm32f4xx_cryp_aes.c ****  ===================================================================
  16:Drivers/STM32F4xx_StdPeriph_Driver/src/stm32f4xx_cryp_aes.c ****                   ##### How to use this driver #####
  17:Drivers/STM32F4xx_StdPeriph_Driver/src/stm32f4xx_cryp_aes.c ****  ===================================================================
  18:Drivers/STM32F4xx_StdPeriph_Driver/src/stm32f4xx_cryp_aes.c ****  [..]
  19:Drivers/STM32F4xx_StdPeriph_Driver/src/stm32f4xx_cryp_aes.c ****    (#) Enable The CRYP controller clock using 
  20:Drivers/STM32F4xx_StdPeriph_Driver/src/stm32f4xx_cryp_aes.c ****       RCC_AHB2PeriphClockCmd(RCC_AHB2Periph_CRYP, ENABLE); function.
  21:Drivers/STM32F4xx_StdPeriph_Driver/src/stm32f4xx_cryp_aes.c ****   
  22:Drivers/STM32F4xx_StdPeriph_Driver/src/stm32f4xx_cryp_aes.c ****    (#) Encrypt and decrypt using AES in ECB Mode using CRYP_AES_ECB() function.
  23:Drivers/STM32F4xx_StdPeriph_Driver/src/stm32f4xx_cryp_aes.c ****   
  24:Drivers/STM32F4xx_StdPeriph_Driver/src/stm32f4xx_cryp_aes.c ****    (#) Encrypt and decrypt using AES in CBC Mode using CRYP_AES_CBC() function.
  25:Drivers/STM32F4xx_StdPeriph_Driver/src/stm32f4xx_cryp_aes.c ****   
  26:Drivers/STM32F4xx_StdPeriph_Driver/src/stm32f4xx_cryp_aes.c ****    (#) Encrypt and decrypt using AES in CTR Mode using CRYP_AES_CTR() function.
  27:Drivers/STM32F4xx_StdPeriph_Driver/src/stm32f4xx_cryp_aes.c **** 
  28:Drivers/STM32F4xx_StdPeriph_Driver/src/stm32f4xx_cryp_aes.c ****    (#) Encrypt and decrypt using AES in GCM Mode using CRYP_AES_GCM() function.
  29:Drivers/STM32F4xx_StdPeriph_Driver/src/stm32f4xx_cryp_aes.c ****    
ARM GAS  /tmp/ccjGnpiF.s 			page 2


  30:Drivers/STM32F4xx_StdPeriph_Driver/src/stm32f4xx_cryp_aes.c ****    (#) Encrypt and decrypt using AES in CCM Mode using CRYP_AES_CCM() function.
  31:Drivers/STM32F4xx_StdPeriph_Driver/src/stm32f4xx_cryp_aes.c ****      
  32:Drivers/STM32F4xx_StdPeriph_Driver/src/stm32f4xx_cryp_aes.c **** @endverbatim
  33:Drivers/STM32F4xx_StdPeriph_Driver/src/stm32f4xx_cryp_aes.c ****   *
  34:Drivers/STM32F4xx_StdPeriph_Driver/src/stm32f4xx_cryp_aes.c ****   ******************************************************************************
  35:Drivers/STM32F4xx_StdPeriph_Driver/src/stm32f4xx_cryp_aes.c ****   * @attention
  36:Drivers/STM32F4xx_StdPeriph_Driver/src/stm32f4xx_cryp_aes.c ****   *
  37:Drivers/STM32F4xx_StdPeriph_Driver/src/stm32f4xx_cryp_aes.c ****   * <h2><center>&copy; COPYRIGHT 2015 STMicroelectronics</center></h2>
  38:Drivers/STM32F4xx_StdPeriph_Driver/src/stm32f4xx_cryp_aes.c ****   *
  39:Drivers/STM32F4xx_StdPeriph_Driver/src/stm32f4xx_cryp_aes.c ****   * Licensed under MCD-ST Liberty SW License Agreement V2, (the "License");
  40:Drivers/STM32F4xx_StdPeriph_Driver/src/stm32f4xx_cryp_aes.c ****   * You may not use this file except in compliance with the License.
  41:Drivers/STM32F4xx_StdPeriph_Driver/src/stm32f4xx_cryp_aes.c ****   * You may obtain a copy of the License at:
  42:Drivers/STM32F4xx_StdPeriph_Driver/src/stm32f4xx_cryp_aes.c ****   *
  43:Drivers/STM32F4xx_StdPeriph_Driver/src/stm32f4xx_cryp_aes.c ****   *        http://www.st.com/software_license_agreement_liberty_v2
  44:Drivers/STM32F4xx_StdPeriph_Driver/src/stm32f4xx_cryp_aes.c ****   *
  45:Drivers/STM32F4xx_StdPeriph_Driver/src/stm32f4xx_cryp_aes.c ****   * Unless required by applicable law or agreed to in writing, software 
  46:Drivers/STM32F4xx_StdPeriph_Driver/src/stm32f4xx_cryp_aes.c ****   * distributed under the License is distributed on an "AS IS" BASIS, 
  47:Drivers/STM32F4xx_StdPeriph_Driver/src/stm32f4xx_cryp_aes.c ****   * WITHOUT WARRANTIES OR CONDITIONS OF ANY KIND, either express or implied.
  48:Drivers/STM32F4xx_StdPeriph_Driver/src/stm32f4xx_cryp_aes.c ****   * See the License for the specific language governing permissions and
  49:Drivers/STM32F4xx_StdPeriph_Driver/src/stm32f4xx_cryp_aes.c ****   * limitations under the License.
  50:Drivers/STM32F4xx_StdPeriph_Driver/src/stm32f4xx_cryp_aes.c ****   *
  51:Drivers/STM32F4xx_StdPeriph_Driver/src/stm32f4xx_cryp_aes.c ****   ******************************************************************************  
  52:Drivers/STM32F4xx_StdPeriph_Driver/src/stm32f4xx_cryp_aes.c ****   */
  53:Drivers/STM32F4xx_StdPeriph_Driver/src/stm32f4xx_cryp_aes.c **** 
  54:Drivers/STM32F4xx_StdPeriph_Driver/src/stm32f4xx_cryp_aes.c **** /* Includes ------------------------------------------------------------------*/
  55:Drivers/STM32F4xx_StdPeriph_Driver/src/stm32f4xx_cryp_aes.c **** #include "stm32f4xx_cryp.h"
  56:Drivers/STM32F4xx_StdPeriph_Driver/src/stm32f4xx_cryp_aes.c **** 
  57:Drivers/STM32F4xx_StdPeriph_Driver/src/stm32f4xx_cryp_aes.c **** /** @addtogroup STM32F4xx_StdPeriph_Driver
  58:Drivers/STM32F4xx_StdPeriph_Driver/src/stm32f4xx_cryp_aes.c ****   * @{
  59:Drivers/STM32F4xx_StdPeriph_Driver/src/stm32f4xx_cryp_aes.c ****   */
  60:Drivers/STM32F4xx_StdPeriph_Driver/src/stm32f4xx_cryp_aes.c **** 
  61:Drivers/STM32F4xx_StdPeriph_Driver/src/stm32f4xx_cryp_aes.c **** /** @defgroup CRYP 
  62:Drivers/STM32F4xx_StdPeriph_Driver/src/stm32f4xx_cryp_aes.c ****   * @brief CRYP driver modules
  63:Drivers/STM32F4xx_StdPeriph_Driver/src/stm32f4xx_cryp_aes.c ****   * @{
  64:Drivers/STM32F4xx_StdPeriph_Driver/src/stm32f4xx_cryp_aes.c ****   */
  65:Drivers/STM32F4xx_StdPeriph_Driver/src/stm32f4xx_cryp_aes.c **** 
  66:Drivers/STM32F4xx_StdPeriph_Driver/src/stm32f4xx_cryp_aes.c **** /* Private typedef -----------------------------------------------------------*/
  67:Drivers/STM32F4xx_StdPeriph_Driver/src/stm32f4xx_cryp_aes.c **** /* Private define ------------------------------------------------------------*/
  68:Drivers/STM32F4xx_StdPeriph_Driver/src/stm32f4xx_cryp_aes.c **** #define AESBUSY_TIMEOUT    ((uint32_t) 0x00010000)
  69:Drivers/STM32F4xx_StdPeriph_Driver/src/stm32f4xx_cryp_aes.c **** 
  70:Drivers/STM32F4xx_StdPeriph_Driver/src/stm32f4xx_cryp_aes.c **** /* Private macro -------------------------------------------------------------*/
  71:Drivers/STM32F4xx_StdPeriph_Driver/src/stm32f4xx_cryp_aes.c **** /* Private variables ---------------------------------------------------------*/
  72:Drivers/STM32F4xx_StdPeriph_Driver/src/stm32f4xx_cryp_aes.c **** /* Private function prototypes -----------------------------------------------*/
  73:Drivers/STM32F4xx_StdPeriph_Driver/src/stm32f4xx_cryp_aes.c **** /* Private functions ---------------------------------------------------------*/
  74:Drivers/STM32F4xx_StdPeriph_Driver/src/stm32f4xx_cryp_aes.c **** 
  75:Drivers/STM32F4xx_StdPeriph_Driver/src/stm32f4xx_cryp_aes.c **** /** @defgroup CRYP_Private_Functions
  76:Drivers/STM32F4xx_StdPeriph_Driver/src/stm32f4xx_cryp_aes.c ****   * @{
  77:Drivers/STM32F4xx_StdPeriph_Driver/src/stm32f4xx_cryp_aes.c ****   */ 
  78:Drivers/STM32F4xx_StdPeriph_Driver/src/stm32f4xx_cryp_aes.c **** 
  79:Drivers/STM32F4xx_StdPeriph_Driver/src/stm32f4xx_cryp_aes.c **** /** @defgroup CRYP_Group6 High Level AES functions
  80:Drivers/STM32F4xx_StdPeriph_Driver/src/stm32f4xx_cryp_aes.c ****  *  @brief   High Level AES functions 
  81:Drivers/STM32F4xx_StdPeriph_Driver/src/stm32f4xx_cryp_aes.c ****  *
  82:Drivers/STM32F4xx_StdPeriph_Driver/src/stm32f4xx_cryp_aes.c **** @verbatim   
  83:Drivers/STM32F4xx_StdPeriph_Driver/src/stm32f4xx_cryp_aes.c ****  ===============================================================================
  84:Drivers/STM32F4xx_StdPeriph_Driver/src/stm32f4xx_cryp_aes.c ****                        ##### High Level AES functions #####
  85:Drivers/STM32F4xx_StdPeriph_Driver/src/stm32f4xx_cryp_aes.c ****  ===============================================================================
  86:Drivers/STM32F4xx_StdPeriph_Driver/src/stm32f4xx_cryp_aes.c **** 
ARM GAS  /tmp/ccjGnpiF.s 			page 3


  87:Drivers/STM32F4xx_StdPeriph_Driver/src/stm32f4xx_cryp_aes.c **** @endverbatim
  88:Drivers/STM32F4xx_StdPeriph_Driver/src/stm32f4xx_cryp_aes.c ****   * @{
  89:Drivers/STM32F4xx_StdPeriph_Driver/src/stm32f4xx_cryp_aes.c ****   */
  90:Drivers/STM32F4xx_StdPeriph_Driver/src/stm32f4xx_cryp_aes.c **** 
  91:Drivers/STM32F4xx_StdPeriph_Driver/src/stm32f4xx_cryp_aes.c **** /**
  92:Drivers/STM32F4xx_StdPeriph_Driver/src/stm32f4xx_cryp_aes.c ****   * @brief  Encrypt and decrypt using AES in ECB Mode
  93:Drivers/STM32F4xx_StdPeriph_Driver/src/stm32f4xx_cryp_aes.c ****   * @param  Mode: encryption or decryption Mode.
  94:Drivers/STM32F4xx_StdPeriph_Driver/src/stm32f4xx_cryp_aes.c ****   *          This parameter can be one of the following values:
  95:Drivers/STM32F4xx_StdPeriph_Driver/src/stm32f4xx_cryp_aes.c ****   *            @arg MODE_ENCRYPT: Encryption
  96:Drivers/STM32F4xx_StdPeriph_Driver/src/stm32f4xx_cryp_aes.c ****   *            @arg MODE_DECRYPT: Decryption
  97:Drivers/STM32F4xx_StdPeriph_Driver/src/stm32f4xx_cryp_aes.c ****   * @param  Key: Key used for AES algorithm.
  98:Drivers/STM32F4xx_StdPeriph_Driver/src/stm32f4xx_cryp_aes.c ****   * @param  Keysize: length of the Key, must be a 128, 192 or 256.
  99:Drivers/STM32F4xx_StdPeriph_Driver/src/stm32f4xx_cryp_aes.c ****   * @param  Input: pointer to the Input buffer.
 100:Drivers/STM32F4xx_StdPeriph_Driver/src/stm32f4xx_cryp_aes.c ****   * @param  Ilength: length of the Input buffer, must be a multiple of 16.
 101:Drivers/STM32F4xx_StdPeriph_Driver/src/stm32f4xx_cryp_aes.c ****   * @param  Output: pointer to the returned buffer.
 102:Drivers/STM32F4xx_StdPeriph_Driver/src/stm32f4xx_cryp_aes.c ****   * @retval An ErrorStatus enumeration value:
 103:Drivers/STM32F4xx_StdPeriph_Driver/src/stm32f4xx_cryp_aes.c ****   *          - SUCCESS: Operation done
 104:Drivers/STM32F4xx_StdPeriph_Driver/src/stm32f4xx_cryp_aes.c ****   *          - ERROR: Operation failed
 105:Drivers/STM32F4xx_StdPeriph_Driver/src/stm32f4xx_cryp_aes.c ****   */
 106:Drivers/STM32F4xx_StdPeriph_Driver/src/stm32f4xx_cryp_aes.c **** ErrorStatus CRYP_AES_ECB(uint8_t Mode, uint8_t* Key, uint16_t Keysize,
 107:Drivers/STM32F4xx_StdPeriph_Driver/src/stm32f4xx_cryp_aes.c ****                          uint8_t* Input, uint32_t Ilength, uint8_t* Output)
 108:Drivers/STM32F4xx_StdPeriph_Driver/src/stm32f4xx_cryp_aes.c **** {
  30              		.loc 1 108 1 view -0
  31              		.cfi_startproc
  32              		@ args = 8, pretend = 0, frame = 56
  33              		@ frame_needed = 0, uses_anonymous_args = 0
  34              		.loc 1 108 1 is_stmt 0 view .LVU1
  35 0000 2DE9F043 		push	{r4, r5, r6, r7, r8, r9, lr}
  36              		.cfi_def_cfa_offset 28
  37              		.cfi_offset 4, -28
  38              		.cfi_offset 5, -24
  39              		.cfi_offset 6, -20
  40              		.cfi_offset 7, -16
  41              		.cfi_offset 8, -12
  42              		.cfi_offset 9, -8
  43              		.cfi_offset 14, -4
  44 0004 8FB0     		sub	sp, sp, #60
  45              		.cfi_def_cfa_offset 88
  46 0006 0646     		mov	r6, r0
  47 0008 0D46     		mov	r5, r1
  48 000a 9146     		mov	r9, r2
  49 000c DDF85880 		ldr	r8, [sp, #88]
 109:Drivers/STM32F4xx_StdPeriph_Driver/src/stm32f4xx_cryp_aes.c ****   CRYP_InitTypeDef AES_CRYP_InitStructure;
  50              		.loc 1 109 3 is_stmt 1 view .LVU2
 110:Drivers/STM32F4xx_StdPeriph_Driver/src/stm32f4xx_cryp_aes.c ****   CRYP_KeyInitTypeDef AES_CRYP_KeyInitStructure;
  51              		.loc 1 110 3 view .LVU3
 111:Drivers/STM32F4xx_StdPeriph_Driver/src/stm32f4xx_cryp_aes.c ****   __IO uint32_t counter = 0;
  52              		.loc 1 111 3 view .LVU4
  53              		.loc 1 111 17 is_stmt 0 view .LVU5
  54 0010 0022     		movs	r2, #0
  55              	.LVL1:
  56              		.loc 1 111 17 view .LVU6
  57 0012 0192     		str	r2, [sp, #4]
 112:Drivers/STM32F4xx_StdPeriph_Driver/src/stm32f4xx_cryp_aes.c ****   uint32_t busystatus = 0;
  58              		.loc 1 112 3 is_stmt 1 view .LVU7
  59              	.LVL2:
 113:Drivers/STM32F4xx_StdPeriph_Driver/src/stm32f4xx_cryp_aes.c ****   ErrorStatus status = SUCCESS;
ARM GAS  /tmp/ccjGnpiF.s 			page 4


  60              		.loc 1 113 3 view .LVU8
 114:Drivers/STM32F4xx_StdPeriph_Driver/src/stm32f4xx_cryp_aes.c ****   uint32_t keyaddr    = (uint32_t)Key;
  61              		.loc 1 114 3 view .LVU9
 115:Drivers/STM32F4xx_StdPeriph_Driver/src/stm32f4xx_cryp_aes.c ****   uint32_t inputaddr  = (uint32_t)Input;
  62              		.loc 1 115 3 view .LVU10
  63              		.loc 1 115 12 is_stmt 0 view .LVU11
  64 0014 1C46     		mov	r4, r3
  65              	.LVL3:
 116:Drivers/STM32F4xx_StdPeriph_Driver/src/stm32f4xx_cryp_aes.c ****   uint32_t outputaddr = (uint32_t)Output;
  66              		.loc 1 116 3 is_stmt 1 view .LVU12
  67              		.loc 1 116 12 is_stmt 0 view .LVU13
  68 0016 179F     		ldr	r7, [sp, #92]
  69              	.LVL4:
 117:Drivers/STM32F4xx_StdPeriph_Driver/src/stm32f4xx_cryp_aes.c ****   uint32_t i = 0;
  70              		.loc 1 117 3 is_stmt 1 view .LVU14
 118:Drivers/STM32F4xx_StdPeriph_Driver/src/stm32f4xx_cryp_aes.c **** 
 119:Drivers/STM32F4xx_StdPeriph_Driver/src/stm32f4xx_cryp_aes.c ****   /* Crypto structures initialisation*/
 120:Drivers/STM32F4xx_StdPeriph_Driver/src/stm32f4xx_cryp_aes.c ****   CRYP_KeyStructInit(&AES_CRYP_KeyInitStructure);
  71              		.loc 1 120 3 view .LVU15
  72 0018 02A8     		add	r0, sp, #8
  73              	.LVL5:
  74              		.loc 1 120 3 is_stmt 0 view .LVU16
  75 001a FFF7FEFF 		bl	CRYP_KeyStructInit
  76              	.LVL6:
 121:Drivers/STM32F4xx_StdPeriph_Driver/src/stm32f4xx_cryp_aes.c **** 
 122:Drivers/STM32F4xx_StdPeriph_Driver/src/stm32f4xx_cryp_aes.c ****   switch(Keysize)
  77              		.loc 1 122 3 is_stmt 1 view .LVU17
  78 001e B9F1C00F 		cmp	r9, #192
  79 0022 39D0     		beq	.L2
  80 0024 B9F5807F 		cmp	r9, #256
  81 0028 4CD0     		beq	.L3
  82 002a B9F1800F 		cmp	r9, #128
  83 002e 24D0     		beq	.L18
  84              	.LVL7:
  85              	.L4:
 123:Drivers/STM32F4xx_StdPeriph_Driver/src/stm32f4xx_cryp_aes.c ****   {
 124:Drivers/STM32F4xx_StdPeriph_Driver/src/stm32f4xx_cryp_aes.c ****     case 128:
 125:Drivers/STM32F4xx_StdPeriph_Driver/src/stm32f4xx_cryp_aes.c ****     AES_CRYP_InitStructure.CRYP_KeySize = CRYP_KeySize_128b;
 126:Drivers/STM32F4xx_StdPeriph_Driver/src/stm32f4xx_cryp_aes.c ****     AES_CRYP_KeyInitStructure.CRYP_Key2Left = __REV(*(uint32_t*)(keyaddr));
 127:Drivers/STM32F4xx_StdPeriph_Driver/src/stm32f4xx_cryp_aes.c ****     keyaddr+=4;
 128:Drivers/STM32F4xx_StdPeriph_Driver/src/stm32f4xx_cryp_aes.c ****     AES_CRYP_KeyInitStructure.CRYP_Key2Right= __REV(*(uint32_t*)(keyaddr));
 129:Drivers/STM32F4xx_StdPeriph_Driver/src/stm32f4xx_cryp_aes.c ****     keyaddr+=4;
 130:Drivers/STM32F4xx_StdPeriph_Driver/src/stm32f4xx_cryp_aes.c ****     AES_CRYP_KeyInitStructure.CRYP_Key3Left = __REV(*(uint32_t*)(keyaddr));
 131:Drivers/STM32F4xx_StdPeriph_Driver/src/stm32f4xx_cryp_aes.c ****     keyaddr+=4;
 132:Drivers/STM32F4xx_StdPeriph_Driver/src/stm32f4xx_cryp_aes.c ****     AES_CRYP_KeyInitStructure.CRYP_Key3Right= __REV(*(uint32_t*)(keyaddr));
 133:Drivers/STM32F4xx_StdPeriph_Driver/src/stm32f4xx_cryp_aes.c ****     break;
 134:Drivers/STM32F4xx_StdPeriph_Driver/src/stm32f4xx_cryp_aes.c ****     case 192:
 135:Drivers/STM32F4xx_StdPeriph_Driver/src/stm32f4xx_cryp_aes.c ****     AES_CRYP_InitStructure.CRYP_KeySize  = CRYP_KeySize_192b;
 136:Drivers/STM32F4xx_StdPeriph_Driver/src/stm32f4xx_cryp_aes.c ****     AES_CRYP_KeyInitStructure.CRYP_Key1Left = __REV(*(uint32_t*)(keyaddr));
 137:Drivers/STM32F4xx_StdPeriph_Driver/src/stm32f4xx_cryp_aes.c ****     keyaddr+=4;
 138:Drivers/STM32F4xx_StdPeriph_Driver/src/stm32f4xx_cryp_aes.c ****     AES_CRYP_KeyInitStructure.CRYP_Key1Right= __REV(*(uint32_t*)(keyaddr));
 139:Drivers/STM32F4xx_StdPeriph_Driver/src/stm32f4xx_cryp_aes.c ****     keyaddr+=4;
 140:Drivers/STM32F4xx_StdPeriph_Driver/src/stm32f4xx_cryp_aes.c ****     AES_CRYP_KeyInitStructure.CRYP_Key2Left = __REV(*(uint32_t*)(keyaddr));
 141:Drivers/STM32F4xx_StdPeriph_Driver/src/stm32f4xx_cryp_aes.c ****     keyaddr+=4;
 142:Drivers/STM32F4xx_StdPeriph_Driver/src/stm32f4xx_cryp_aes.c ****     AES_CRYP_KeyInitStructure.CRYP_Key2Right= __REV(*(uint32_t*)(keyaddr));
 143:Drivers/STM32F4xx_StdPeriph_Driver/src/stm32f4xx_cryp_aes.c ****     keyaddr+=4;
 144:Drivers/STM32F4xx_StdPeriph_Driver/src/stm32f4xx_cryp_aes.c ****     AES_CRYP_KeyInitStructure.CRYP_Key3Left = __REV(*(uint32_t*)(keyaddr));
ARM GAS  /tmp/ccjGnpiF.s 			page 5


 145:Drivers/STM32F4xx_StdPeriph_Driver/src/stm32f4xx_cryp_aes.c ****     keyaddr+=4;
 146:Drivers/STM32F4xx_StdPeriph_Driver/src/stm32f4xx_cryp_aes.c ****     AES_CRYP_KeyInitStructure.CRYP_Key3Right= __REV(*(uint32_t*)(keyaddr));
 147:Drivers/STM32F4xx_StdPeriph_Driver/src/stm32f4xx_cryp_aes.c ****     break;
 148:Drivers/STM32F4xx_StdPeriph_Driver/src/stm32f4xx_cryp_aes.c ****     case 256:
 149:Drivers/STM32F4xx_StdPeriph_Driver/src/stm32f4xx_cryp_aes.c ****     AES_CRYP_InitStructure.CRYP_KeySize  = CRYP_KeySize_256b;
 150:Drivers/STM32F4xx_StdPeriph_Driver/src/stm32f4xx_cryp_aes.c ****     AES_CRYP_KeyInitStructure.CRYP_Key0Left = __REV(*(uint32_t*)(keyaddr));
 151:Drivers/STM32F4xx_StdPeriph_Driver/src/stm32f4xx_cryp_aes.c ****     keyaddr+=4;
 152:Drivers/STM32F4xx_StdPeriph_Driver/src/stm32f4xx_cryp_aes.c ****     AES_CRYP_KeyInitStructure.CRYP_Key0Right= __REV(*(uint32_t*)(keyaddr));
 153:Drivers/STM32F4xx_StdPeriph_Driver/src/stm32f4xx_cryp_aes.c ****     keyaddr+=4;
 154:Drivers/STM32F4xx_StdPeriph_Driver/src/stm32f4xx_cryp_aes.c ****     AES_CRYP_KeyInitStructure.CRYP_Key1Left = __REV(*(uint32_t*)(keyaddr));
 155:Drivers/STM32F4xx_StdPeriph_Driver/src/stm32f4xx_cryp_aes.c ****     keyaddr+=4;
 156:Drivers/STM32F4xx_StdPeriph_Driver/src/stm32f4xx_cryp_aes.c ****     AES_CRYP_KeyInitStructure.CRYP_Key1Right= __REV(*(uint32_t*)(keyaddr));
 157:Drivers/STM32F4xx_StdPeriph_Driver/src/stm32f4xx_cryp_aes.c ****     keyaddr+=4;
 158:Drivers/STM32F4xx_StdPeriph_Driver/src/stm32f4xx_cryp_aes.c ****     AES_CRYP_KeyInitStructure.CRYP_Key2Left = __REV(*(uint32_t*)(keyaddr));
 159:Drivers/STM32F4xx_StdPeriph_Driver/src/stm32f4xx_cryp_aes.c ****     keyaddr+=4;
 160:Drivers/STM32F4xx_StdPeriph_Driver/src/stm32f4xx_cryp_aes.c ****     AES_CRYP_KeyInitStructure.CRYP_Key2Right= __REV(*(uint32_t*)(keyaddr));
 161:Drivers/STM32F4xx_StdPeriph_Driver/src/stm32f4xx_cryp_aes.c ****     keyaddr+=4;
 162:Drivers/STM32F4xx_StdPeriph_Driver/src/stm32f4xx_cryp_aes.c ****     AES_CRYP_KeyInitStructure.CRYP_Key3Left = __REV(*(uint32_t*)(keyaddr));
 163:Drivers/STM32F4xx_StdPeriph_Driver/src/stm32f4xx_cryp_aes.c ****     keyaddr+=4;
 164:Drivers/STM32F4xx_StdPeriph_Driver/src/stm32f4xx_cryp_aes.c ****     AES_CRYP_KeyInitStructure.CRYP_Key3Right= __REV(*(uint32_t*)(keyaddr));
 165:Drivers/STM32F4xx_StdPeriph_Driver/src/stm32f4xx_cryp_aes.c ****     break;
 166:Drivers/STM32F4xx_StdPeriph_Driver/src/stm32f4xx_cryp_aes.c ****     default:
 167:Drivers/STM32F4xx_StdPeriph_Driver/src/stm32f4xx_cryp_aes.c ****     break;
 168:Drivers/STM32F4xx_StdPeriph_Driver/src/stm32f4xx_cryp_aes.c ****   }
 169:Drivers/STM32F4xx_StdPeriph_Driver/src/stm32f4xx_cryp_aes.c **** 
 170:Drivers/STM32F4xx_StdPeriph_Driver/src/stm32f4xx_cryp_aes.c ****   /*------------------ AES Decryption ------------------*/
 171:Drivers/STM32F4xx_StdPeriph_Driver/src/stm32f4xx_cryp_aes.c ****   if(Mode == MODE_DECRYPT) /* AES decryption */
  86              		.loc 1 171 3 view .LVU18
  87              		.loc 1 171 5 is_stmt 0 view .LVU19
  88 0030 002E     		cmp	r6, #0
  89 0032 63D1     		bne	.L5
 172:Drivers/STM32F4xx_StdPeriph_Driver/src/stm32f4xx_cryp_aes.c ****   {
 173:Drivers/STM32F4xx_StdPeriph_Driver/src/stm32f4xx_cryp_aes.c ****     /* Flush IN/OUT FIFOs */
 174:Drivers/STM32F4xx_StdPeriph_Driver/src/stm32f4xx_cryp_aes.c ****     CRYP_FIFOFlush();
  90              		.loc 1 174 5 is_stmt 1 view .LVU20
  91 0034 FFF7FEFF 		bl	CRYP_FIFOFlush
  92              	.LVL8:
 175:Drivers/STM32F4xx_StdPeriph_Driver/src/stm32f4xx_cryp_aes.c **** 
 176:Drivers/STM32F4xx_StdPeriph_Driver/src/stm32f4xx_cryp_aes.c ****     /* Crypto Init for Key preparation for decryption process */
 177:Drivers/STM32F4xx_StdPeriph_Driver/src/stm32f4xx_cryp_aes.c ****     AES_CRYP_InitStructure.CRYP_AlgoDir = CRYP_AlgoDir_Decrypt;
  93              		.loc 1 177 5 view .LVU21
  94              		.loc 1 177 41 is_stmt 0 view .LVU22
  95 0038 0423     		movs	r3, #4
  96 003a 0A93     		str	r3, [sp, #40]
 178:Drivers/STM32F4xx_StdPeriph_Driver/src/stm32f4xx_cryp_aes.c ****     AES_CRYP_InitStructure.CRYP_AlgoMode = CRYP_AlgoMode_AES_Key;
  97              		.loc 1 178 5 is_stmt 1 view .LVU23
  98              		.loc 1 178 42 is_stmt 0 view .LVU24
  99 003c 3823     		movs	r3, #56
 100 003e 0B93     		str	r3, [sp, #44]
 179:Drivers/STM32F4xx_StdPeriph_Driver/src/stm32f4xx_cryp_aes.c ****     AES_CRYP_InitStructure.CRYP_DataType = CRYP_DataType_32b;
 101              		.loc 1 179 5 is_stmt 1 view .LVU25
 102              		.loc 1 179 42 is_stmt 0 view .LVU26
 103 0040 0023     		movs	r3, #0
 104 0042 0C93     		str	r3, [sp, #48]
 180:Drivers/STM32F4xx_StdPeriph_Driver/src/stm32f4xx_cryp_aes.c ****     CRYP_Init(&AES_CRYP_InitStructure);
 105              		.loc 1 180 5 is_stmt 1 view .LVU27
 106 0044 0AA8     		add	r0, sp, #40
ARM GAS  /tmp/ccjGnpiF.s 			page 6


 107 0046 FFF7FEFF 		bl	CRYP_Init
 108              	.LVL9:
 181:Drivers/STM32F4xx_StdPeriph_Driver/src/stm32f4xx_cryp_aes.c **** 
 182:Drivers/STM32F4xx_StdPeriph_Driver/src/stm32f4xx_cryp_aes.c ****     /* Key Initialisation */
 183:Drivers/STM32F4xx_StdPeriph_Driver/src/stm32f4xx_cryp_aes.c ****     CRYP_KeyInit(&AES_CRYP_KeyInitStructure);
 109              		.loc 1 183 5 view .LVU28
 110 004a 02A8     		add	r0, sp, #8
 111 004c FFF7FEFF 		bl	CRYP_KeyInit
 112              	.LVL10:
 184:Drivers/STM32F4xx_StdPeriph_Driver/src/stm32f4xx_cryp_aes.c **** 
 185:Drivers/STM32F4xx_StdPeriph_Driver/src/stm32f4xx_cryp_aes.c ****     /* Enable Crypto processor */
 186:Drivers/STM32F4xx_StdPeriph_Driver/src/stm32f4xx_cryp_aes.c ****     CRYP_Cmd(ENABLE);
 113              		.loc 1 186 5 view .LVU29
 114 0050 0120     		movs	r0, #1
 115 0052 FFF7FEFF 		bl	CRYP_Cmd
 116              	.LVL11:
 117              	.L7:
 187:Drivers/STM32F4xx_StdPeriph_Driver/src/stm32f4xx_cryp_aes.c **** 
 188:Drivers/STM32F4xx_StdPeriph_Driver/src/stm32f4xx_cryp_aes.c ****     /* wait until the Busy flag is RESET */
 189:Drivers/STM32F4xx_StdPeriph_Driver/src/stm32f4xx_cryp_aes.c ****     do
 118              		.loc 1 189 5 discriminator 2 view .LVU30
 190:Drivers/STM32F4xx_StdPeriph_Driver/src/stm32f4xx_cryp_aes.c ****     {
 191:Drivers/STM32F4xx_StdPeriph_Driver/src/stm32f4xx_cryp_aes.c ****       busystatus = CRYP_GetFlagStatus(CRYP_FLAG_BUSY);
 119              		.loc 1 191 7 discriminator 2 view .LVU31
 120              		.loc 1 191 20 is_stmt 0 discriminator 2 view .LVU32
 121 0056 1020     		movs	r0, #16
 122 0058 FFF7FEFF 		bl	CRYP_GetFlagStatus
 123              	.LVL12:
 192:Drivers/STM32F4xx_StdPeriph_Driver/src/stm32f4xx_cryp_aes.c ****       counter++;
 124              		.loc 1 192 7 is_stmt 1 discriminator 2 view .LVU33
 125              		.loc 1 192 14 is_stmt 0 discriminator 2 view .LVU34
 126 005c 019B     		ldr	r3, [sp, #4]
 127 005e 0133     		adds	r3, r3, #1
 128 0060 0193     		str	r3, [sp, #4]
 193:Drivers/STM32F4xx_StdPeriph_Driver/src/stm32f4xx_cryp_aes.c ****     }while ((counter != AESBUSY_TIMEOUT) && (busystatus != RESET));
 129              		.loc 1 193 12 is_stmt 1 discriminator 2 view .LVU35
 130              		.loc 1 193 22 is_stmt 0 discriminator 2 view .LVU36
 131 0062 019B     		ldr	r3, [sp, #4]
 132              		.loc 1 193 5 discriminator 2 view .LVU37
 133 0064 B3F5803F 		cmp	r3, #65536
 134 0068 01D0     		beq	.L6
 135              		.loc 1 193 42 discriminator 1 view .LVU38
 136 006a 0028     		cmp	r0, #0
 137 006c F3D1     		bne	.L7
 138              	.L6:
 194:Drivers/STM32F4xx_StdPeriph_Driver/src/stm32f4xx_cryp_aes.c **** 
 195:Drivers/STM32F4xx_StdPeriph_Driver/src/stm32f4xx_cryp_aes.c ****     if (busystatus != RESET)
 139              		.loc 1 195 5 is_stmt 1 view .LVU39
 140              		.loc 1 195 8 is_stmt 0 view .LVU40
 141 006e 0028     		cmp	r0, #0
 142 0070 4AD1     		bne	.L8
 196:Drivers/STM32F4xx_StdPeriph_Driver/src/stm32f4xx_cryp_aes.c ****    {
 197:Drivers/STM32F4xx_StdPeriph_Driver/src/stm32f4xx_cryp_aes.c ****        status = ERROR;
 198:Drivers/STM32F4xx_StdPeriph_Driver/src/stm32f4xx_cryp_aes.c ****     }
 199:Drivers/STM32F4xx_StdPeriph_Driver/src/stm32f4xx_cryp_aes.c ****     else
 200:Drivers/STM32F4xx_StdPeriph_Driver/src/stm32f4xx_cryp_aes.c ****     {
 201:Drivers/STM32F4xx_StdPeriph_Driver/src/stm32f4xx_cryp_aes.c ****       /* Crypto Init for decryption process */  
ARM GAS  /tmp/ccjGnpiF.s 			page 7


 202:Drivers/STM32F4xx_StdPeriph_Driver/src/stm32f4xx_cryp_aes.c ****       AES_CRYP_InitStructure.CRYP_AlgoDir = CRYP_AlgoDir_Decrypt;
 143              		.loc 1 202 7 is_stmt 1 view .LVU41
 144              		.loc 1 202 43 is_stmt 0 view .LVU42
 145 0072 0423     		movs	r3, #4
 146 0074 0A93     		str	r3, [sp, #40]
 113:Drivers/STM32F4xx_StdPeriph_Driver/src/stm32f4xx_cryp_aes.c ****   uint32_t keyaddr    = (uint32_t)Key;
 147              		.loc 1 113 15 view .LVU43
 148 0076 0126     		movs	r6, #1
 149 0078 46E0     		b	.L8
 150              	.LVL13:
 151              	.L18:
 125:Drivers/STM32F4xx_StdPeriph_Driver/src/stm32f4xx_cryp_aes.c ****     AES_CRYP_KeyInitStructure.CRYP_Key2Left = __REV(*(uint32_t*)(keyaddr));
 152              		.loc 1 125 5 is_stmt 1 view .LVU44
 125:Drivers/STM32F4xx_StdPeriph_Driver/src/stm32f4xx_cryp_aes.c ****     AES_CRYP_KeyInitStructure.CRYP_Key2Left = __REV(*(uint32_t*)(keyaddr));
 153              		.loc 1 125 41 is_stmt 0 view .LVU45
 154 007a 0023     		movs	r3, #0
 155 007c 0D93     		str	r3, [sp, #52]
 126:Drivers/STM32F4xx_StdPeriph_Driver/src/stm32f4xx_cryp_aes.c ****     keyaddr+=4;
 156              		.loc 1 126 5 is_stmt 1 view .LVU46
 126:Drivers/STM32F4xx_StdPeriph_Driver/src/stm32f4xx_cryp_aes.c ****     keyaddr+=4;
 157              		.loc 1 126 47 is_stmt 0 view .LVU47
 158 007e 2B68     		ldr	r3, [r5]
 159              	.LVL14:
 160              	.LBB230:
 161              	.LBI230:
 162              		.file 2 "Drivers/CMSIS/Include/core_cmInstr.h"
   1:Drivers/CMSIS/Include/core_cmInstr.h **** /**************************************************************************//**
   2:Drivers/CMSIS/Include/core_cmInstr.h ****  * @file     core_cmInstr.h
   3:Drivers/CMSIS/Include/core_cmInstr.h ****  * @brief    CMSIS Cortex-M Core Instruction Access Header File
   4:Drivers/CMSIS/Include/core_cmInstr.h ****  * @version  V4.10
   5:Drivers/CMSIS/Include/core_cmInstr.h ****  * @date     18. March 2015
   6:Drivers/CMSIS/Include/core_cmInstr.h ****  *
   7:Drivers/CMSIS/Include/core_cmInstr.h ****  * @note
   8:Drivers/CMSIS/Include/core_cmInstr.h ****  *
   9:Drivers/CMSIS/Include/core_cmInstr.h ****  ******************************************************************************/
  10:Drivers/CMSIS/Include/core_cmInstr.h **** /* Copyright (c) 2009 - 2014 ARM LIMITED
  11:Drivers/CMSIS/Include/core_cmInstr.h **** 
  12:Drivers/CMSIS/Include/core_cmInstr.h ****    All rights reserved.
  13:Drivers/CMSIS/Include/core_cmInstr.h ****    Redistribution and use in source and binary forms, with or without
  14:Drivers/CMSIS/Include/core_cmInstr.h ****    modification, are permitted provided that the following conditions are met:
  15:Drivers/CMSIS/Include/core_cmInstr.h ****    - Redistributions of source code must retain the above copyright
  16:Drivers/CMSIS/Include/core_cmInstr.h ****      notice, this list of conditions and the following disclaimer.
  17:Drivers/CMSIS/Include/core_cmInstr.h ****    - Redistributions in binary form must reproduce the above copyright
  18:Drivers/CMSIS/Include/core_cmInstr.h ****      notice, this list of conditions and the following disclaimer in the
  19:Drivers/CMSIS/Include/core_cmInstr.h ****      documentation and/or other materials provided with the distribution.
  20:Drivers/CMSIS/Include/core_cmInstr.h ****    - Neither the name of ARM nor the names of its contributors may be used
  21:Drivers/CMSIS/Include/core_cmInstr.h ****      to endorse or promote products derived from this software without
  22:Drivers/CMSIS/Include/core_cmInstr.h ****      specific prior written permission.
  23:Drivers/CMSIS/Include/core_cmInstr.h ****    *
  24:Drivers/CMSIS/Include/core_cmInstr.h ****    THIS SOFTWARE IS PROVIDED BY THE COPYRIGHT HOLDERS AND CONTRIBUTORS "AS IS"
  25:Drivers/CMSIS/Include/core_cmInstr.h ****    AND ANY EXPRESS OR IMPLIED WARRANTIES, INCLUDING, BUT NOT LIMITED TO, THE
  26:Drivers/CMSIS/Include/core_cmInstr.h ****    IMPLIED WARRANTIES OF MERCHANTABILITY AND FITNESS FOR A PARTICULAR PURPOSE
  27:Drivers/CMSIS/Include/core_cmInstr.h ****    ARE DISCLAIMED. IN NO EVENT SHALL COPYRIGHT HOLDERS AND CONTRIBUTORS BE
  28:Drivers/CMSIS/Include/core_cmInstr.h ****    LIABLE FOR ANY DIRECT, INDIRECT, INCIDENTAL, SPECIAL, EXEMPLARY, OR
  29:Drivers/CMSIS/Include/core_cmInstr.h ****    CONSEQUENTIAL DAMAGES (INCLUDING, BUT NOT LIMITED TO, PROCUREMENT OF
  30:Drivers/CMSIS/Include/core_cmInstr.h ****    SUBSTITUTE GOODS OR SERVICES; LOSS OF USE, DATA, OR PROFITS; OR BUSINESS
  31:Drivers/CMSIS/Include/core_cmInstr.h ****    INTERRUPTION) HOWEVER CAUSED AND ON ANY THEORY OF LIABILITY, WHETHER IN
ARM GAS  /tmp/ccjGnpiF.s 			page 8


  32:Drivers/CMSIS/Include/core_cmInstr.h ****    CONTRACT, STRICT LIABILITY, OR TORT (INCLUDING NEGLIGENCE OR OTHERWISE)
  33:Drivers/CMSIS/Include/core_cmInstr.h ****    ARISING IN ANY WAY OUT OF THE USE OF THIS SOFTWARE, EVEN IF ADVISED OF THE
  34:Drivers/CMSIS/Include/core_cmInstr.h ****    POSSIBILITY OF SUCH DAMAGE.
  35:Drivers/CMSIS/Include/core_cmInstr.h ****    ---------------------------------------------------------------------------*/
  36:Drivers/CMSIS/Include/core_cmInstr.h **** 
  37:Drivers/CMSIS/Include/core_cmInstr.h **** 
  38:Drivers/CMSIS/Include/core_cmInstr.h **** #ifndef __CORE_CMINSTR_H
  39:Drivers/CMSIS/Include/core_cmInstr.h **** #define __CORE_CMINSTR_H
  40:Drivers/CMSIS/Include/core_cmInstr.h **** 
  41:Drivers/CMSIS/Include/core_cmInstr.h **** 
  42:Drivers/CMSIS/Include/core_cmInstr.h **** /* ##########################  Core Instruction Access  ######################### */
  43:Drivers/CMSIS/Include/core_cmInstr.h **** /** \defgroup CMSIS_Core_InstructionInterface CMSIS Core Instruction Interface
  44:Drivers/CMSIS/Include/core_cmInstr.h ****   Access to dedicated instructions
  45:Drivers/CMSIS/Include/core_cmInstr.h ****   @{
  46:Drivers/CMSIS/Include/core_cmInstr.h **** */
  47:Drivers/CMSIS/Include/core_cmInstr.h **** 
  48:Drivers/CMSIS/Include/core_cmInstr.h **** #if   defined ( __CC_ARM ) /*------------------RealView Compiler -----------------*/
  49:Drivers/CMSIS/Include/core_cmInstr.h **** /* ARM armcc specific functions */
  50:Drivers/CMSIS/Include/core_cmInstr.h **** 
  51:Drivers/CMSIS/Include/core_cmInstr.h **** #if (__ARMCC_VERSION < 400677)
  52:Drivers/CMSIS/Include/core_cmInstr.h ****   #error "Please use ARM Compiler Toolchain V4.0.677 or later!"
  53:Drivers/CMSIS/Include/core_cmInstr.h **** #endif
  54:Drivers/CMSIS/Include/core_cmInstr.h **** 
  55:Drivers/CMSIS/Include/core_cmInstr.h **** 
  56:Drivers/CMSIS/Include/core_cmInstr.h **** /** \brief  No Operation
  57:Drivers/CMSIS/Include/core_cmInstr.h **** 
  58:Drivers/CMSIS/Include/core_cmInstr.h ****     No Operation does nothing. This instruction can be used for code alignment purposes.
  59:Drivers/CMSIS/Include/core_cmInstr.h ****  */
  60:Drivers/CMSIS/Include/core_cmInstr.h **** #define __NOP                             __nop
  61:Drivers/CMSIS/Include/core_cmInstr.h **** 
  62:Drivers/CMSIS/Include/core_cmInstr.h **** 
  63:Drivers/CMSIS/Include/core_cmInstr.h **** /** \brief  Wait For Interrupt
  64:Drivers/CMSIS/Include/core_cmInstr.h **** 
  65:Drivers/CMSIS/Include/core_cmInstr.h ****     Wait For Interrupt is a hint instruction that suspends execution
  66:Drivers/CMSIS/Include/core_cmInstr.h ****     until one of a number of events occurs.
  67:Drivers/CMSIS/Include/core_cmInstr.h ****  */
  68:Drivers/CMSIS/Include/core_cmInstr.h **** #define __WFI                             __wfi
  69:Drivers/CMSIS/Include/core_cmInstr.h **** 
  70:Drivers/CMSIS/Include/core_cmInstr.h **** 
  71:Drivers/CMSIS/Include/core_cmInstr.h **** /** \brief  Wait For Event
  72:Drivers/CMSIS/Include/core_cmInstr.h **** 
  73:Drivers/CMSIS/Include/core_cmInstr.h ****     Wait For Event is a hint instruction that permits the processor to enter
  74:Drivers/CMSIS/Include/core_cmInstr.h ****     a low-power state until one of a number of events occurs.
  75:Drivers/CMSIS/Include/core_cmInstr.h ****  */
  76:Drivers/CMSIS/Include/core_cmInstr.h **** #define __WFE                             __wfe
  77:Drivers/CMSIS/Include/core_cmInstr.h **** 
  78:Drivers/CMSIS/Include/core_cmInstr.h **** 
  79:Drivers/CMSIS/Include/core_cmInstr.h **** /** \brief  Send Event
  80:Drivers/CMSIS/Include/core_cmInstr.h **** 
  81:Drivers/CMSIS/Include/core_cmInstr.h ****     Send Event is a hint instruction. It causes an event to be signaled to the CPU.
  82:Drivers/CMSIS/Include/core_cmInstr.h ****  */
  83:Drivers/CMSIS/Include/core_cmInstr.h **** #define __SEV                             __sev
  84:Drivers/CMSIS/Include/core_cmInstr.h **** 
  85:Drivers/CMSIS/Include/core_cmInstr.h **** 
  86:Drivers/CMSIS/Include/core_cmInstr.h **** /** \brief  Instruction Synchronization Barrier
  87:Drivers/CMSIS/Include/core_cmInstr.h **** 
  88:Drivers/CMSIS/Include/core_cmInstr.h ****     Instruction Synchronization Barrier flushes the pipeline in the processor,
ARM GAS  /tmp/ccjGnpiF.s 			page 9


  89:Drivers/CMSIS/Include/core_cmInstr.h ****     so that all instructions following the ISB are fetched from cache or
  90:Drivers/CMSIS/Include/core_cmInstr.h ****     memory, after the instruction has been completed.
  91:Drivers/CMSIS/Include/core_cmInstr.h ****  */
  92:Drivers/CMSIS/Include/core_cmInstr.h **** #define __ISB() do {\
  93:Drivers/CMSIS/Include/core_cmInstr.h ****                    __schedule_barrier();\
  94:Drivers/CMSIS/Include/core_cmInstr.h ****                    __isb(0xF);\
  95:Drivers/CMSIS/Include/core_cmInstr.h ****                    __schedule_barrier();\
  96:Drivers/CMSIS/Include/core_cmInstr.h ****                 } while (0)
  97:Drivers/CMSIS/Include/core_cmInstr.h **** 
  98:Drivers/CMSIS/Include/core_cmInstr.h **** /** \brief  Data Synchronization Barrier
  99:Drivers/CMSIS/Include/core_cmInstr.h **** 
 100:Drivers/CMSIS/Include/core_cmInstr.h ****     This function acts as a special kind of Data Memory Barrier.
 101:Drivers/CMSIS/Include/core_cmInstr.h ****     It completes when all explicit memory accesses before this instruction complete.
 102:Drivers/CMSIS/Include/core_cmInstr.h ****  */
 103:Drivers/CMSIS/Include/core_cmInstr.h **** #define __DSB() do {\
 104:Drivers/CMSIS/Include/core_cmInstr.h ****                    __schedule_barrier();\
 105:Drivers/CMSIS/Include/core_cmInstr.h ****                    __dsb(0xF);\
 106:Drivers/CMSIS/Include/core_cmInstr.h ****                    __schedule_barrier();\
 107:Drivers/CMSIS/Include/core_cmInstr.h ****                 } while (0)
 108:Drivers/CMSIS/Include/core_cmInstr.h **** 
 109:Drivers/CMSIS/Include/core_cmInstr.h **** /** \brief  Data Memory Barrier
 110:Drivers/CMSIS/Include/core_cmInstr.h **** 
 111:Drivers/CMSIS/Include/core_cmInstr.h ****     This function ensures the apparent order of the explicit memory operations before
 112:Drivers/CMSIS/Include/core_cmInstr.h ****     and after the instruction, without ensuring their completion.
 113:Drivers/CMSIS/Include/core_cmInstr.h ****  */
 114:Drivers/CMSIS/Include/core_cmInstr.h **** #define __DMB() do {\
 115:Drivers/CMSIS/Include/core_cmInstr.h ****                    __schedule_barrier();\
 116:Drivers/CMSIS/Include/core_cmInstr.h ****                    __dmb(0xF);\
 117:Drivers/CMSIS/Include/core_cmInstr.h ****                    __schedule_barrier();\
 118:Drivers/CMSIS/Include/core_cmInstr.h ****                 } while (0)
 119:Drivers/CMSIS/Include/core_cmInstr.h **** 
 120:Drivers/CMSIS/Include/core_cmInstr.h **** /** \brief  Reverse byte order (32 bit)
 121:Drivers/CMSIS/Include/core_cmInstr.h **** 
 122:Drivers/CMSIS/Include/core_cmInstr.h ****     This function reverses the byte order in integer value.
 123:Drivers/CMSIS/Include/core_cmInstr.h **** 
 124:Drivers/CMSIS/Include/core_cmInstr.h ****     \param [in]    value  Value to reverse
 125:Drivers/CMSIS/Include/core_cmInstr.h ****     \return               Reversed value
 126:Drivers/CMSIS/Include/core_cmInstr.h ****  */
 127:Drivers/CMSIS/Include/core_cmInstr.h **** #define __REV                             __rev
 128:Drivers/CMSIS/Include/core_cmInstr.h **** 
 129:Drivers/CMSIS/Include/core_cmInstr.h **** 
 130:Drivers/CMSIS/Include/core_cmInstr.h **** /** \brief  Reverse byte order (16 bit)
 131:Drivers/CMSIS/Include/core_cmInstr.h **** 
 132:Drivers/CMSIS/Include/core_cmInstr.h ****     This function reverses the byte order in two unsigned short values.
 133:Drivers/CMSIS/Include/core_cmInstr.h **** 
 134:Drivers/CMSIS/Include/core_cmInstr.h ****     \param [in]    value  Value to reverse
 135:Drivers/CMSIS/Include/core_cmInstr.h ****     \return               Reversed value
 136:Drivers/CMSIS/Include/core_cmInstr.h ****  */
 137:Drivers/CMSIS/Include/core_cmInstr.h **** #ifndef __NO_EMBEDDED_ASM
 138:Drivers/CMSIS/Include/core_cmInstr.h **** __attribute__((section(".rev16_text"))) __STATIC_INLINE __ASM uint32_t __REV16(uint32_t value)
 139:Drivers/CMSIS/Include/core_cmInstr.h **** {
 140:Drivers/CMSIS/Include/core_cmInstr.h ****   rev16 r0, r0
 141:Drivers/CMSIS/Include/core_cmInstr.h ****   bx lr
 142:Drivers/CMSIS/Include/core_cmInstr.h **** }
 143:Drivers/CMSIS/Include/core_cmInstr.h **** #endif
 144:Drivers/CMSIS/Include/core_cmInstr.h **** 
 145:Drivers/CMSIS/Include/core_cmInstr.h **** /** \brief  Reverse byte order in signed short value
ARM GAS  /tmp/ccjGnpiF.s 			page 10


 146:Drivers/CMSIS/Include/core_cmInstr.h **** 
 147:Drivers/CMSIS/Include/core_cmInstr.h ****     This function reverses the byte order in a signed short value with sign extension to integer.
 148:Drivers/CMSIS/Include/core_cmInstr.h **** 
 149:Drivers/CMSIS/Include/core_cmInstr.h ****     \param [in]    value  Value to reverse
 150:Drivers/CMSIS/Include/core_cmInstr.h ****     \return               Reversed value
 151:Drivers/CMSIS/Include/core_cmInstr.h ****  */
 152:Drivers/CMSIS/Include/core_cmInstr.h **** #ifndef __NO_EMBEDDED_ASM
 153:Drivers/CMSIS/Include/core_cmInstr.h **** __attribute__((section(".revsh_text"))) __STATIC_INLINE __ASM int32_t __REVSH(int32_t value)
 154:Drivers/CMSIS/Include/core_cmInstr.h **** {
 155:Drivers/CMSIS/Include/core_cmInstr.h ****   revsh r0, r0
 156:Drivers/CMSIS/Include/core_cmInstr.h ****   bx lr
 157:Drivers/CMSIS/Include/core_cmInstr.h **** }
 158:Drivers/CMSIS/Include/core_cmInstr.h **** #endif
 159:Drivers/CMSIS/Include/core_cmInstr.h **** 
 160:Drivers/CMSIS/Include/core_cmInstr.h **** 
 161:Drivers/CMSIS/Include/core_cmInstr.h **** /** \brief  Rotate Right in unsigned value (32 bit)
 162:Drivers/CMSIS/Include/core_cmInstr.h **** 
 163:Drivers/CMSIS/Include/core_cmInstr.h ****     This function Rotate Right (immediate) provides the value of the contents of a register rotated
 164:Drivers/CMSIS/Include/core_cmInstr.h **** 
 165:Drivers/CMSIS/Include/core_cmInstr.h ****     \param [in]    value  Value to rotate
 166:Drivers/CMSIS/Include/core_cmInstr.h ****     \param [in]    value  Number of Bits to rotate
 167:Drivers/CMSIS/Include/core_cmInstr.h ****     \return               Rotated value
 168:Drivers/CMSIS/Include/core_cmInstr.h ****  */
 169:Drivers/CMSIS/Include/core_cmInstr.h **** #define __ROR                             __ror
 170:Drivers/CMSIS/Include/core_cmInstr.h **** 
 171:Drivers/CMSIS/Include/core_cmInstr.h **** 
 172:Drivers/CMSIS/Include/core_cmInstr.h **** /** \brief  Breakpoint
 173:Drivers/CMSIS/Include/core_cmInstr.h **** 
 174:Drivers/CMSIS/Include/core_cmInstr.h ****     This function causes the processor to enter Debug state.
 175:Drivers/CMSIS/Include/core_cmInstr.h ****     Debug tools can use this to investigate system state when the instruction at a particular addre
 176:Drivers/CMSIS/Include/core_cmInstr.h **** 
 177:Drivers/CMSIS/Include/core_cmInstr.h ****     \param [in]    value  is ignored by the processor.
 178:Drivers/CMSIS/Include/core_cmInstr.h ****                    If required, a debugger can use it to store additional information about the bre
 179:Drivers/CMSIS/Include/core_cmInstr.h ****  */
 180:Drivers/CMSIS/Include/core_cmInstr.h **** #define __BKPT(value)                       __breakpoint(value)
 181:Drivers/CMSIS/Include/core_cmInstr.h **** 
 182:Drivers/CMSIS/Include/core_cmInstr.h **** 
 183:Drivers/CMSIS/Include/core_cmInstr.h **** /** \brief  Reverse bit order of value
 184:Drivers/CMSIS/Include/core_cmInstr.h **** 
 185:Drivers/CMSIS/Include/core_cmInstr.h ****     This function reverses the bit order of the given value.
 186:Drivers/CMSIS/Include/core_cmInstr.h **** 
 187:Drivers/CMSIS/Include/core_cmInstr.h ****     \param [in]    value  Value to reverse
 188:Drivers/CMSIS/Include/core_cmInstr.h ****     \return               Reversed value
 189:Drivers/CMSIS/Include/core_cmInstr.h ****  */
 190:Drivers/CMSIS/Include/core_cmInstr.h **** #if       (__CORTEX_M >= 0x03) || (__CORTEX_SC >= 300)
 191:Drivers/CMSIS/Include/core_cmInstr.h ****   #define __RBIT                          __rbit
 192:Drivers/CMSIS/Include/core_cmInstr.h **** #else
 193:Drivers/CMSIS/Include/core_cmInstr.h **** __attribute__((always_inline)) __STATIC_INLINE uint32_t __RBIT(uint32_t value)
 194:Drivers/CMSIS/Include/core_cmInstr.h **** {
 195:Drivers/CMSIS/Include/core_cmInstr.h ****   uint32_t result;
 196:Drivers/CMSIS/Include/core_cmInstr.h ****   int32_t s = 4 /*sizeof(v)*/ * 8 - 1; // extra shift needed at end
 197:Drivers/CMSIS/Include/core_cmInstr.h **** 
 198:Drivers/CMSIS/Include/core_cmInstr.h ****   result = value;                      // r will be reversed bits of v; first get LSB of v
 199:Drivers/CMSIS/Include/core_cmInstr.h ****   for (value >>= 1; value; value >>= 1)
 200:Drivers/CMSIS/Include/core_cmInstr.h ****   {
 201:Drivers/CMSIS/Include/core_cmInstr.h ****     result <<= 1;
 202:Drivers/CMSIS/Include/core_cmInstr.h ****     result |= value & 1;
ARM GAS  /tmp/ccjGnpiF.s 			page 11


 203:Drivers/CMSIS/Include/core_cmInstr.h ****     s--;
 204:Drivers/CMSIS/Include/core_cmInstr.h ****   }
 205:Drivers/CMSIS/Include/core_cmInstr.h ****   result <<= s;                       // shift when v's highest bits are zero
 206:Drivers/CMSIS/Include/core_cmInstr.h ****   return(result);
 207:Drivers/CMSIS/Include/core_cmInstr.h **** }
 208:Drivers/CMSIS/Include/core_cmInstr.h **** #endif
 209:Drivers/CMSIS/Include/core_cmInstr.h **** 
 210:Drivers/CMSIS/Include/core_cmInstr.h **** 
 211:Drivers/CMSIS/Include/core_cmInstr.h **** /** \brief  Count leading zeros
 212:Drivers/CMSIS/Include/core_cmInstr.h **** 
 213:Drivers/CMSIS/Include/core_cmInstr.h ****     This function counts the number of leading zeros of a data value.
 214:Drivers/CMSIS/Include/core_cmInstr.h **** 
 215:Drivers/CMSIS/Include/core_cmInstr.h ****     \param [in]  value  Value to count the leading zeros
 216:Drivers/CMSIS/Include/core_cmInstr.h ****     \return             number of leading zeros in value
 217:Drivers/CMSIS/Include/core_cmInstr.h ****  */
 218:Drivers/CMSIS/Include/core_cmInstr.h **** #define __CLZ                             __clz
 219:Drivers/CMSIS/Include/core_cmInstr.h **** 
 220:Drivers/CMSIS/Include/core_cmInstr.h **** 
 221:Drivers/CMSIS/Include/core_cmInstr.h **** #if       (__CORTEX_M >= 0x03) || (__CORTEX_SC >= 300)
 222:Drivers/CMSIS/Include/core_cmInstr.h **** 
 223:Drivers/CMSIS/Include/core_cmInstr.h **** /** \brief  LDR Exclusive (8 bit)
 224:Drivers/CMSIS/Include/core_cmInstr.h **** 
 225:Drivers/CMSIS/Include/core_cmInstr.h ****     This function executes a exclusive LDR instruction for 8 bit value.
 226:Drivers/CMSIS/Include/core_cmInstr.h **** 
 227:Drivers/CMSIS/Include/core_cmInstr.h ****     \param [in]    ptr  Pointer to data
 228:Drivers/CMSIS/Include/core_cmInstr.h ****     \return             value of type uint8_t at (*ptr)
 229:Drivers/CMSIS/Include/core_cmInstr.h ****  */
 230:Drivers/CMSIS/Include/core_cmInstr.h **** #define __LDREXB(ptr)                     ((uint8_t ) __ldrex(ptr))
 231:Drivers/CMSIS/Include/core_cmInstr.h **** 
 232:Drivers/CMSIS/Include/core_cmInstr.h **** 
 233:Drivers/CMSIS/Include/core_cmInstr.h **** /** \brief  LDR Exclusive (16 bit)
 234:Drivers/CMSIS/Include/core_cmInstr.h **** 
 235:Drivers/CMSIS/Include/core_cmInstr.h ****     This function executes a exclusive LDR instruction for 16 bit values.
 236:Drivers/CMSIS/Include/core_cmInstr.h **** 
 237:Drivers/CMSIS/Include/core_cmInstr.h ****     \param [in]    ptr  Pointer to data
 238:Drivers/CMSIS/Include/core_cmInstr.h ****     \return        value of type uint16_t at (*ptr)
 239:Drivers/CMSIS/Include/core_cmInstr.h ****  */
 240:Drivers/CMSIS/Include/core_cmInstr.h **** #define __LDREXH(ptr)                     ((uint16_t) __ldrex(ptr))
 241:Drivers/CMSIS/Include/core_cmInstr.h **** 
 242:Drivers/CMSIS/Include/core_cmInstr.h **** 
 243:Drivers/CMSIS/Include/core_cmInstr.h **** /** \brief  LDR Exclusive (32 bit)
 244:Drivers/CMSIS/Include/core_cmInstr.h **** 
 245:Drivers/CMSIS/Include/core_cmInstr.h ****     This function executes a exclusive LDR instruction for 32 bit values.
 246:Drivers/CMSIS/Include/core_cmInstr.h **** 
 247:Drivers/CMSIS/Include/core_cmInstr.h ****     \param [in]    ptr  Pointer to data
 248:Drivers/CMSIS/Include/core_cmInstr.h ****     \return        value of type uint32_t at (*ptr)
 249:Drivers/CMSIS/Include/core_cmInstr.h ****  */
 250:Drivers/CMSIS/Include/core_cmInstr.h **** #define __LDREXW(ptr)                     ((uint32_t ) __ldrex(ptr))
 251:Drivers/CMSIS/Include/core_cmInstr.h **** 
 252:Drivers/CMSIS/Include/core_cmInstr.h **** 
 253:Drivers/CMSIS/Include/core_cmInstr.h **** /** \brief  STR Exclusive (8 bit)
 254:Drivers/CMSIS/Include/core_cmInstr.h **** 
 255:Drivers/CMSIS/Include/core_cmInstr.h ****     This function executes a exclusive STR instruction for 8 bit values.
 256:Drivers/CMSIS/Include/core_cmInstr.h **** 
 257:Drivers/CMSIS/Include/core_cmInstr.h ****     \param [in]  value  Value to store
 258:Drivers/CMSIS/Include/core_cmInstr.h ****     \param [in]    ptr  Pointer to location
 259:Drivers/CMSIS/Include/core_cmInstr.h ****     \return          0  Function succeeded
ARM GAS  /tmp/ccjGnpiF.s 			page 12


 260:Drivers/CMSIS/Include/core_cmInstr.h ****     \return          1  Function failed
 261:Drivers/CMSIS/Include/core_cmInstr.h ****  */
 262:Drivers/CMSIS/Include/core_cmInstr.h **** #define __STREXB(value, ptr)              __strex(value, ptr)
 263:Drivers/CMSIS/Include/core_cmInstr.h **** 
 264:Drivers/CMSIS/Include/core_cmInstr.h **** 
 265:Drivers/CMSIS/Include/core_cmInstr.h **** /** \brief  STR Exclusive (16 bit)
 266:Drivers/CMSIS/Include/core_cmInstr.h **** 
 267:Drivers/CMSIS/Include/core_cmInstr.h ****     This function executes a exclusive STR instruction for 16 bit values.
 268:Drivers/CMSIS/Include/core_cmInstr.h **** 
 269:Drivers/CMSIS/Include/core_cmInstr.h ****     \param [in]  value  Value to store
 270:Drivers/CMSIS/Include/core_cmInstr.h ****     \param [in]    ptr  Pointer to location
 271:Drivers/CMSIS/Include/core_cmInstr.h ****     \return          0  Function succeeded
 272:Drivers/CMSIS/Include/core_cmInstr.h ****     \return          1  Function failed
 273:Drivers/CMSIS/Include/core_cmInstr.h ****  */
 274:Drivers/CMSIS/Include/core_cmInstr.h **** #define __STREXH(value, ptr)              __strex(value, ptr)
 275:Drivers/CMSIS/Include/core_cmInstr.h **** 
 276:Drivers/CMSIS/Include/core_cmInstr.h **** 
 277:Drivers/CMSIS/Include/core_cmInstr.h **** /** \brief  STR Exclusive (32 bit)
 278:Drivers/CMSIS/Include/core_cmInstr.h **** 
 279:Drivers/CMSIS/Include/core_cmInstr.h ****     This function executes a exclusive STR instruction for 32 bit values.
 280:Drivers/CMSIS/Include/core_cmInstr.h **** 
 281:Drivers/CMSIS/Include/core_cmInstr.h ****     \param [in]  value  Value to store
 282:Drivers/CMSIS/Include/core_cmInstr.h ****     \param [in]    ptr  Pointer to location
 283:Drivers/CMSIS/Include/core_cmInstr.h ****     \return          0  Function succeeded
 284:Drivers/CMSIS/Include/core_cmInstr.h ****     \return          1  Function failed
 285:Drivers/CMSIS/Include/core_cmInstr.h ****  */
 286:Drivers/CMSIS/Include/core_cmInstr.h **** #define __STREXW(value, ptr)              __strex(value, ptr)
 287:Drivers/CMSIS/Include/core_cmInstr.h **** 
 288:Drivers/CMSIS/Include/core_cmInstr.h **** 
 289:Drivers/CMSIS/Include/core_cmInstr.h **** /** \brief  Remove the exclusive lock
 290:Drivers/CMSIS/Include/core_cmInstr.h **** 
 291:Drivers/CMSIS/Include/core_cmInstr.h ****     This function removes the exclusive lock which is created by LDREX.
 292:Drivers/CMSIS/Include/core_cmInstr.h **** 
 293:Drivers/CMSIS/Include/core_cmInstr.h ****  */
 294:Drivers/CMSIS/Include/core_cmInstr.h **** #define __CLREX                           __clrex
 295:Drivers/CMSIS/Include/core_cmInstr.h **** 
 296:Drivers/CMSIS/Include/core_cmInstr.h **** 
 297:Drivers/CMSIS/Include/core_cmInstr.h **** /** \brief  Signed Saturate
 298:Drivers/CMSIS/Include/core_cmInstr.h **** 
 299:Drivers/CMSIS/Include/core_cmInstr.h ****     This function saturates a signed value.
 300:Drivers/CMSIS/Include/core_cmInstr.h **** 
 301:Drivers/CMSIS/Include/core_cmInstr.h ****     \param [in]  value  Value to be saturated
 302:Drivers/CMSIS/Include/core_cmInstr.h ****     \param [in]    sat  Bit position to saturate to (1..32)
 303:Drivers/CMSIS/Include/core_cmInstr.h ****     \return             Saturated value
 304:Drivers/CMSIS/Include/core_cmInstr.h ****  */
 305:Drivers/CMSIS/Include/core_cmInstr.h **** #define __SSAT                            __ssat
 306:Drivers/CMSIS/Include/core_cmInstr.h **** 
 307:Drivers/CMSIS/Include/core_cmInstr.h **** 
 308:Drivers/CMSIS/Include/core_cmInstr.h **** /** \brief  Unsigned Saturate
 309:Drivers/CMSIS/Include/core_cmInstr.h **** 
 310:Drivers/CMSIS/Include/core_cmInstr.h ****     This function saturates an unsigned value.
 311:Drivers/CMSIS/Include/core_cmInstr.h **** 
 312:Drivers/CMSIS/Include/core_cmInstr.h ****     \param [in]  value  Value to be saturated
 313:Drivers/CMSIS/Include/core_cmInstr.h ****     \param [in]    sat  Bit position to saturate to (0..31)
 314:Drivers/CMSIS/Include/core_cmInstr.h ****     \return             Saturated value
 315:Drivers/CMSIS/Include/core_cmInstr.h ****  */
 316:Drivers/CMSIS/Include/core_cmInstr.h **** #define __USAT                            __usat
ARM GAS  /tmp/ccjGnpiF.s 			page 13


 317:Drivers/CMSIS/Include/core_cmInstr.h **** 
 318:Drivers/CMSIS/Include/core_cmInstr.h **** 
 319:Drivers/CMSIS/Include/core_cmInstr.h **** /** \brief  Rotate Right with Extend (32 bit)
 320:Drivers/CMSIS/Include/core_cmInstr.h **** 
 321:Drivers/CMSIS/Include/core_cmInstr.h ****     This function moves each bit of a bitstring right by one bit.
 322:Drivers/CMSIS/Include/core_cmInstr.h ****     The carry input is shifted in at the left end of the bitstring.
 323:Drivers/CMSIS/Include/core_cmInstr.h **** 
 324:Drivers/CMSIS/Include/core_cmInstr.h ****     \param [in]    value  Value to rotate
 325:Drivers/CMSIS/Include/core_cmInstr.h ****     \return               Rotated value
 326:Drivers/CMSIS/Include/core_cmInstr.h ****  */
 327:Drivers/CMSIS/Include/core_cmInstr.h **** #ifndef __NO_EMBEDDED_ASM
 328:Drivers/CMSIS/Include/core_cmInstr.h **** __attribute__((section(".rrx_text"))) __STATIC_INLINE __ASM uint32_t __RRX(uint32_t value)
 329:Drivers/CMSIS/Include/core_cmInstr.h **** {
 330:Drivers/CMSIS/Include/core_cmInstr.h ****   rrx r0, r0
 331:Drivers/CMSIS/Include/core_cmInstr.h ****   bx lr
 332:Drivers/CMSIS/Include/core_cmInstr.h **** }
 333:Drivers/CMSIS/Include/core_cmInstr.h **** #endif
 334:Drivers/CMSIS/Include/core_cmInstr.h **** 
 335:Drivers/CMSIS/Include/core_cmInstr.h **** 
 336:Drivers/CMSIS/Include/core_cmInstr.h **** /** \brief  LDRT Unprivileged (8 bit)
 337:Drivers/CMSIS/Include/core_cmInstr.h **** 
 338:Drivers/CMSIS/Include/core_cmInstr.h ****     This function executes a Unprivileged LDRT instruction for 8 bit value.
 339:Drivers/CMSIS/Include/core_cmInstr.h **** 
 340:Drivers/CMSIS/Include/core_cmInstr.h ****     \param [in]    ptr  Pointer to data
 341:Drivers/CMSIS/Include/core_cmInstr.h ****     \return             value of type uint8_t at (*ptr)
 342:Drivers/CMSIS/Include/core_cmInstr.h ****  */
 343:Drivers/CMSIS/Include/core_cmInstr.h **** #define __LDRBT(ptr)                      ((uint8_t )  __ldrt(ptr))
 344:Drivers/CMSIS/Include/core_cmInstr.h **** 
 345:Drivers/CMSIS/Include/core_cmInstr.h **** 
 346:Drivers/CMSIS/Include/core_cmInstr.h **** /** \brief  LDRT Unprivileged (16 bit)
 347:Drivers/CMSIS/Include/core_cmInstr.h **** 
 348:Drivers/CMSIS/Include/core_cmInstr.h ****     This function executes a Unprivileged LDRT instruction for 16 bit values.
 349:Drivers/CMSIS/Include/core_cmInstr.h **** 
 350:Drivers/CMSIS/Include/core_cmInstr.h ****     \param [in]    ptr  Pointer to data
 351:Drivers/CMSIS/Include/core_cmInstr.h ****     \return        value of type uint16_t at (*ptr)
 352:Drivers/CMSIS/Include/core_cmInstr.h ****  */
 353:Drivers/CMSIS/Include/core_cmInstr.h **** #define __LDRHT(ptr)                      ((uint16_t)  __ldrt(ptr))
 354:Drivers/CMSIS/Include/core_cmInstr.h **** 
 355:Drivers/CMSIS/Include/core_cmInstr.h **** 
 356:Drivers/CMSIS/Include/core_cmInstr.h **** /** \brief  LDRT Unprivileged (32 bit)
 357:Drivers/CMSIS/Include/core_cmInstr.h **** 
 358:Drivers/CMSIS/Include/core_cmInstr.h ****     This function executes a Unprivileged LDRT instruction for 32 bit values.
 359:Drivers/CMSIS/Include/core_cmInstr.h **** 
 360:Drivers/CMSIS/Include/core_cmInstr.h ****     \param [in]    ptr  Pointer to data
 361:Drivers/CMSIS/Include/core_cmInstr.h ****     \return        value of type uint32_t at (*ptr)
 362:Drivers/CMSIS/Include/core_cmInstr.h ****  */
 363:Drivers/CMSIS/Include/core_cmInstr.h **** #define __LDRT(ptr)                       ((uint32_t ) __ldrt(ptr))
 364:Drivers/CMSIS/Include/core_cmInstr.h **** 
 365:Drivers/CMSIS/Include/core_cmInstr.h **** 
 366:Drivers/CMSIS/Include/core_cmInstr.h **** /** \brief  STRT Unprivileged (8 bit)
 367:Drivers/CMSIS/Include/core_cmInstr.h **** 
 368:Drivers/CMSIS/Include/core_cmInstr.h ****     This function executes a Unprivileged STRT instruction for 8 bit values.
 369:Drivers/CMSIS/Include/core_cmInstr.h **** 
 370:Drivers/CMSIS/Include/core_cmInstr.h ****     \param [in]  value  Value to store
 371:Drivers/CMSIS/Include/core_cmInstr.h ****     \param [in]    ptr  Pointer to location
 372:Drivers/CMSIS/Include/core_cmInstr.h ****  */
 373:Drivers/CMSIS/Include/core_cmInstr.h **** #define __STRBT(value, ptr)               __strt(value, ptr)
ARM GAS  /tmp/ccjGnpiF.s 			page 14


 374:Drivers/CMSIS/Include/core_cmInstr.h **** 
 375:Drivers/CMSIS/Include/core_cmInstr.h **** 
 376:Drivers/CMSIS/Include/core_cmInstr.h **** /** \brief  STRT Unprivileged (16 bit)
 377:Drivers/CMSIS/Include/core_cmInstr.h **** 
 378:Drivers/CMSIS/Include/core_cmInstr.h ****     This function executes a Unprivileged STRT instruction for 16 bit values.
 379:Drivers/CMSIS/Include/core_cmInstr.h **** 
 380:Drivers/CMSIS/Include/core_cmInstr.h ****     \param [in]  value  Value to store
 381:Drivers/CMSIS/Include/core_cmInstr.h ****     \param [in]    ptr  Pointer to location
 382:Drivers/CMSIS/Include/core_cmInstr.h ****  */
 383:Drivers/CMSIS/Include/core_cmInstr.h **** #define __STRHT(value, ptr)               __strt(value, ptr)
 384:Drivers/CMSIS/Include/core_cmInstr.h **** 
 385:Drivers/CMSIS/Include/core_cmInstr.h **** 
 386:Drivers/CMSIS/Include/core_cmInstr.h **** /** \brief  STRT Unprivileged (32 bit)
 387:Drivers/CMSIS/Include/core_cmInstr.h **** 
 388:Drivers/CMSIS/Include/core_cmInstr.h ****     This function executes a Unprivileged STRT instruction for 32 bit values.
 389:Drivers/CMSIS/Include/core_cmInstr.h **** 
 390:Drivers/CMSIS/Include/core_cmInstr.h ****     \param [in]  value  Value to store
 391:Drivers/CMSIS/Include/core_cmInstr.h ****     \param [in]    ptr  Pointer to location
 392:Drivers/CMSIS/Include/core_cmInstr.h ****  */
 393:Drivers/CMSIS/Include/core_cmInstr.h **** #define __STRT(value, ptr)                __strt(value, ptr)
 394:Drivers/CMSIS/Include/core_cmInstr.h **** 
 395:Drivers/CMSIS/Include/core_cmInstr.h **** #endif /* (__CORTEX_M >= 0x03) || (__CORTEX_SC >= 300) */
 396:Drivers/CMSIS/Include/core_cmInstr.h **** 
 397:Drivers/CMSIS/Include/core_cmInstr.h **** 
 398:Drivers/CMSIS/Include/core_cmInstr.h **** #elif defined ( __GNUC__ ) /*------------------ GNU Compiler ---------------------*/
 399:Drivers/CMSIS/Include/core_cmInstr.h **** /* GNU gcc specific functions */
 400:Drivers/CMSIS/Include/core_cmInstr.h **** 
 401:Drivers/CMSIS/Include/core_cmInstr.h **** /* Define macros for porting to both thumb1 and thumb2.
 402:Drivers/CMSIS/Include/core_cmInstr.h ****  * For thumb1, use low register (r0-r7), specified by constrant "l"
 403:Drivers/CMSIS/Include/core_cmInstr.h ****  * Otherwise, use general registers, specified by constrant "r" */
 404:Drivers/CMSIS/Include/core_cmInstr.h **** #if defined (__thumb__) && !defined (__thumb2__)
 405:Drivers/CMSIS/Include/core_cmInstr.h **** #define __CMSIS_GCC_OUT_REG(r) "=l" (r)
 406:Drivers/CMSIS/Include/core_cmInstr.h **** #define __CMSIS_GCC_USE_REG(r) "l" (r)
 407:Drivers/CMSIS/Include/core_cmInstr.h **** #else
 408:Drivers/CMSIS/Include/core_cmInstr.h **** #define __CMSIS_GCC_OUT_REG(r) "=r" (r)
 409:Drivers/CMSIS/Include/core_cmInstr.h **** #define __CMSIS_GCC_USE_REG(r) "r" (r)
 410:Drivers/CMSIS/Include/core_cmInstr.h **** #endif
 411:Drivers/CMSIS/Include/core_cmInstr.h **** 
 412:Drivers/CMSIS/Include/core_cmInstr.h **** /** \brief  No Operation
 413:Drivers/CMSIS/Include/core_cmInstr.h **** 
 414:Drivers/CMSIS/Include/core_cmInstr.h ****     No Operation does nothing. This instruction can be used for code alignment purposes.
 415:Drivers/CMSIS/Include/core_cmInstr.h ****  */
 416:Drivers/CMSIS/Include/core_cmInstr.h **** __attribute__((always_inline)) __STATIC_INLINE void __NOP(void)
 417:Drivers/CMSIS/Include/core_cmInstr.h **** {
 418:Drivers/CMSIS/Include/core_cmInstr.h ****   __ASM volatile ("nop");
 419:Drivers/CMSIS/Include/core_cmInstr.h **** }
 420:Drivers/CMSIS/Include/core_cmInstr.h **** 
 421:Drivers/CMSIS/Include/core_cmInstr.h **** 
 422:Drivers/CMSIS/Include/core_cmInstr.h **** /** \brief  Wait For Interrupt
 423:Drivers/CMSIS/Include/core_cmInstr.h **** 
 424:Drivers/CMSIS/Include/core_cmInstr.h ****     Wait For Interrupt is a hint instruction that suspends execution
 425:Drivers/CMSIS/Include/core_cmInstr.h ****     until one of a number of events occurs.
 426:Drivers/CMSIS/Include/core_cmInstr.h ****  */
 427:Drivers/CMSIS/Include/core_cmInstr.h **** __attribute__((always_inline)) __STATIC_INLINE void __WFI(void)
 428:Drivers/CMSIS/Include/core_cmInstr.h **** {
 429:Drivers/CMSIS/Include/core_cmInstr.h ****   __ASM volatile ("wfi");
 430:Drivers/CMSIS/Include/core_cmInstr.h **** }
ARM GAS  /tmp/ccjGnpiF.s 			page 15


 431:Drivers/CMSIS/Include/core_cmInstr.h **** 
 432:Drivers/CMSIS/Include/core_cmInstr.h **** 
 433:Drivers/CMSIS/Include/core_cmInstr.h **** /** \brief  Wait For Event
 434:Drivers/CMSIS/Include/core_cmInstr.h **** 
 435:Drivers/CMSIS/Include/core_cmInstr.h ****     Wait For Event is a hint instruction that permits the processor to enter
 436:Drivers/CMSIS/Include/core_cmInstr.h ****     a low-power state until one of a number of events occurs.
 437:Drivers/CMSIS/Include/core_cmInstr.h ****  */
 438:Drivers/CMSIS/Include/core_cmInstr.h **** __attribute__((always_inline)) __STATIC_INLINE void __WFE(void)
 439:Drivers/CMSIS/Include/core_cmInstr.h **** {
 440:Drivers/CMSIS/Include/core_cmInstr.h ****   __ASM volatile ("wfe");
 441:Drivers/CMSIS/Include/core_cmInstr.h **** }
 442:Drivers/CMSIS/Include/core_cmInstr.h **** 
 443:Drivers/CMSIS/Include/core_cmInstr.h **** 
 444:Drivers/CMSIS/Include/core_cmInstr.h **** /** \brief  Send Event
 445:Drivers/CMSIS/Include/core_cmInstr.h **** 
 446:Drivers/CMSIS/Include/core_cmInstr.h ****     Send Event is a hint instruction. It causes an event to be signaled to the CPU.
 447:Drivers/CMSIS/Include/core_cmInstr.h ****  */
 448:Drivers/CMSIS/Include/core_cmInstr.h **** __attribute__((always_inline)) __STATIC_INLINE void __SEV(void)
 449:Drivers/CMSIS/Include/core_cmInstr.h **** {
 450:Drivers/CMSIS/Include/core_cmInstr.h ****   __ASM volatile ("sev");
 451:Drivers/CMSIS/Include/core_cmInstr.h **** }
 452:Drivers/CMSIS/Include/core_cmInstr.h **** 
 453:Drivers/CMSIS/Include/core_cmInstr.h **** 
 454:Drivers/CMSIS/Include/core_cmInstr.h **** /** \brief  Instruction Synchronization Barrier
 455:Drivers/CMSIS/Include/core_cmInstr.h **** 
 456:Drivers/CMSIS/Include/core_cmInstr.h ****     Instruction Synchronization Barrier flushes the pipeline in the processor,
 457:Drivers/CMSIS/Include/core_cmInstr.h ****     so that all instructions following the ISB are fetched from cache or
 458:Drivers/CMSIS/Include/core_cmInstr.h ****     memory, after the instruction has been completed.
 459:Drivers/CMSIS/Include/core_cmInstr.h ****  */
 460:Drivers/CMSIS/Include/core_cmInstr.h **** __attribute__((always_inline)) __STATIC_INLINE void __ISB(void)
 461:Drivers/CMSIS/Include/core_cmInstr.h **** {
 462:Drivers/CMSIS/Include/core_cmInstr.h ****   __ASM volatile ("isb 0xF":::"memory");
 463:Drivers/CMSIS/Include/core_cmInstr.h **** }
 464:Drivers/CMSIS/Include/core_cmInstr.h **** 
 465:Drivers/CMSIS/Include/core_cmInstr.h **** 
 466:Drivers/CMSIS/Include/core_cmInstr.h **** /** \brief  Data Synchronization Barrier
 467:Drivers/CMSIS/Include/core_cmInstr.h **** 
 468:Drivers/CMSIS/Include/core_cmInstr.h ****     This function acts as a special kind of Data Memory Barrier.
 469:Drivers/CMSIS/Include/core_cmInstr.h ****     It completes when all explicit memory accesses before this instruction complete.
 470:Drivers/CMSIS/Include/core_cmInstr.h ****  */
 471:Drivers/CMSIS/Include/core_cmInstr.h **** __attribute__((always_inline)) __STATIC_INLINE void __DSB(void)
 472:Drivers/CMSIS/Include/core_cmInstr.h **** {
 473:Drivers/CMSIS/Include/core_cmInstr.h ****   __ASM volatile ("dsb 0xF":::"memory");
 474:Drivers/CMSIS/Include/core_cmInstr.h **** }
 475:Drivers/CMSIS/Include/core_cmInstr.h **** 
 476:Drivers/CMSIS/Include/core_cmInstr.h **** 
 477:Drivers/CMSIS/Include/core_cmInstr.h **** /** \brief  Data Memory Barrier
 478:Drivers/CMSIS/Include/core_cmInstr.h **** 
 479:Drivers/CMSIS/Include/core_cmInstr.h ****     This function ensures the apparent order of the explicit memory operations before
 480:Drivers/CMSIS/Include/core_cmInstr.h ****     and after the instruction, without ensuring their completion.
 481:Drivers/CMSIS/Include/core_cmInstr.h ****  */
 482:Drivers/CMSIS/Include/core_cmInstr.h **** __attribute__((always_inline)) __STATIC_INLINE void __DMB(void)
 483:Drivers/CMSIS/Include/core_cmInstr.h **** {
 484:Drivers/CMSIS/Include/core_cmInstr.h ****   __ASM volatile ("dmb 0xF":::"memory");
 485:Drivers/CMSIS/Include/core_cmInstr.h **** }
 486:Drivers/CMSIS/Include/core_cmInstr.h **** 
 487:Drivers/CMSIS/Include/core_cmInstr.h **** 
ARM GAS  /tmp/ccjGnpiF.s 			page 16


 488:Drivers/CMSIS/Include/core_cmInstr.h **** /** \brief  Reverse byte order (32 bit)
 489:Drivers/CMSIS/Include/core_cmInstr.h **** 
 490:Drivers/CMSIS/Include/core_cmInstr.h ****     This function reverses the byte order in integer value.
 491:Drivers/CMSIS/Include/core_cmInstr.h **** 
 492:Drivers/CMSIS/Include/core_cmInstr.h ****     \param [in]    value  Value to reverse
 493:Drivers/CMSIS/Include/core_cmInstr.h ****     \return               Reversed value
 494:Drivers/CMSIS/Include/core_cmInstr.h ****  */
 495:Drivers/CMSIS/Include/core_cmInstr.h **** __attribute__((always_inline)) __STATIC_INLINE uint32_t __REV(uint32_t value)
 163              		.loc 2 495 57 is_stmt 1 view .LVU48
 164              	.LBB231:
 496:Drivers/CMSIS/Include/core_cmInstr.h **** {
 497:Drivers/CMSIS/Include/core_cmInstr.h **** #if (__GNUC__ > 4) || (__GNUC__ == 4 && __GNUC_MINOR__ >= 5)
 498:Drivers/CMSIS/Include/core_cmInstr.h ****   return __builtin_bswap32(value);
 165              		.loc 2 498 3 view .LVU49
 166              		.loc 2 498 10 is_stmt 0 view .LVU50
 167 0080 1BBA     		rev	r3, r3
 168              	.LVL15:
 169              		.loc 2 498 10 view .LVU51
 170              	.LBE231:
 171              	.LBE230:
 126:Drivers/STM32F4xx_StdPeriph_Driver/src/stm32f4xx_cryp_aes.c ****     keyaddr+=4;
 172              		.loc 1 126 45 view .LVU52
 173 0082 0693     		str	r3, [sp, #24]
 127:Drivers/STM32F4xx_StdPeriph_Driver/src/stm32f4xx_cryp_aes.c ****     AES_CRYP_KeyInitStructure.CRYP_Key2Right= __REV(*(uint32_t*)(keyaddr));
 174              		.loc 1 127 5 is_stmt 1 view .LVU53
 175              	.LVL16:
 128:Drivers/STM32F4xx_StdPeriph_Driver/src/stm32f4xx_cryp_aes.c ****     keyaddr+=4;
 176              		.loc 1 128 5 view .LVU54
 128:Drivers/STM32F4xx_StdPeriph_Driver/src/stm32f4xx_cryp_aes.c ****     keyaddr+=4;
 177              		.loc 1 128 47 is_stmt 0 view .LVU55
 178 0084 6B68     		ldr	r3, [r5, #4]
 179              	.LVL17:
 180              	.LBB232:
 181              	.LBI232:
 495:Drivers/CMSIS/Include/core_cmInstr.h **** {
 182              		.loc 2 495 57 is_stmt 1 view .LVU56
 183              	.LBB233:
 184              		.loc 2 498 3 view .LVU57
 185              		.loc 2 498 10 is_stmt 0 view .LVU58
 186 0086 1BBA     		rev	r3, r3
 187              	.LVL18:
 188              		.loc 2 498 10 view .LVU59
 189              	.LBE233:
 190              	.LBE232:
 128:Drivers/STM32F4xx_StdPeriph_Driver/src/stm32f4xx_cryp_aes.c ****     keyaddr+=4;
 191              		.loc 1 128 45 view .LVU60
 192 0088 0793     		str	r3, [sp, #28]
 129:Drivers/STM32F4xx_StdPeriph_Driver/src/stm32f4xx_cryp_aes.c ****     AES_CRYP_KeyInitStructure.CRYP_Key3Left = __REV(*(uint32_t*)(keyaddr));
 193              		.loc 1 129 5 is_stmt 1 view .LVU61
 194              	.LVL19:
 130:Drivers/STM32F4xx_StdPeriph_Driver/src/stm32f4xx_cryp_aes.c ****     keyaddr+=4;
 195              		.loc 1 130 5 view .LVU62
 130:Drivers/STM32F4xx_StdPeriph_Driver/src/stm32f4xx_cryp_aes.c ****     keyaddr+=4;
 196              		.loc 1 130 47 is_stmt 0 view .LVU63
 197 008a AB68     		ldr	r3, [r5, #8]
 198              	.LVL20:
 199              	.LBB234:
ARM GAS  /tmp/ccjGnpiF.s 			page 17


 200              	.LBI234:
 495:Drivers/CMSIS/Include/core_cmInstr.h **** {
 201              		.loc 2 495 57 is_stmt 1 view .LVU64
 202              	.LBB235:
 203              		.loc 2 498 3 view .LVU65
 204              		.loc 2 498 10 is_stmt 0 view .LVU66
 205 008c 1BBA     		rev	r3, r3
 206              	.LVL21:
 207              		.loc 2 498 10 view .LVU67
 208              	.LBE235:
 209              	.LBE234:
 130:Drivers/STM32F4xx_StdPeriph_Driver/src/stm32f4xx_cryp_aes.c ****     keyaddr+=4;
 210              		.loc 1 130 45 view .LVU68
 211 008e 0893     		str	r3, [sp, #32]
 131:Drivers/STM32F4xx_StdPeriph_Driver/src/stm32f4xx_cryp_aes.c ****     AES_CRYP_KeyInitStructure.CRYP_Key3Right= __REV(*(uint32_t*)(keyaddr));
 212              		.loc 1 131 5 is_stmt 1 view .LVU69
 213              	.LVL22:
 132:Drivers/STM32F4xx_StdPeriph_Driver/src/stm32f4xx_cryp_aes.c ****     break;
 214              		.loc 1 132 5 view .LVU70
 132:Drivers/STM32F4xx_StdPeriph_Driver/src/stm32f4xx_cryp_aes.c ****     break;
 215              		.loc 1 132 47 is_stmt 0 view .LVU71
 216 0090 EB68     		ldr	r3, [r5, #12]
 217              	.LVL23:
 218              	.LBB236:
 219              	.LBI236:
 495:Drivers/CMSIS/Include/core_cmInstr.h **** {
 220              		.loc 2 495 57 is_stmt 1 view .LVU72
 221              	.LBB237:
 222              		.loc 2 498 3 view .LVU73
 223              		.loc 2 498 10 is_stmt 0 view .LVU74
 224 0092 1BBA     		rev	r3, r3
 225              	.LVL24:
 226              		.loc 2 498 10 view .LVU75
 227              	.LBE237:
 228              	.LBE236:
 132:Drivers/STM32F4xx_StdPeriph_Driver/src/stm32f4xx_cryp_aes.c ****     break;
 229              		.loc 1 132 45 view .LVU76
 230 0094 0993     		str	r3, [sp, #36]
 133:Drivers/STM32F4xx_StdPeriph_Driver/src/stm32f4xx_cryp_aes.c ****     case 192:
 231              		.loc 1 133 5 is_stmt 1 view .LVU77
 232 0096 CBE7     		b	.L4
 233              	.LVL25:
 234              	.L2:
 135:Drivers/STM32F4xx_StdPeriph_Driver/src/stm32f4xx_cryp_aes.c ****     AES_CRYP_KeyInitStructure.CRYP_Key1Left = __REV(*(uint32_t*)(keyaddr));
 235              		.loc 1 135 5 view .LVU78
 135:Drivers/STM32F4xx_StdPeriph_Driver/src/stm32f4xx_cryp_aes.c ****     AES_CRYP_KeyInitStructure.CRYP_Key1Left = __REV(*(uint32_t*)(keyaddr));
 236              		.loc 1 135 42 is_stmt 0 view .LVU79
 237 0098 4FF48073 		mov	r3, #256
 238 009c 0D93     		str	r3, [sp, #52]
 136:Drivers/STM32F4xx_StdPeriph_Driver/src/stm32f4xx_cryp_aes.c ****     keyaddr+=4;
 239              		.loc 1 136 5 is_stmt 1 view .LVU80
 136:Drivers/STM32F4xx_StdPeriph_Driver/src/stm32f4xx_cryp_aes.c ****     keyaddr+=4;
 240              		.loc 1 136 47 is_stmt 0 view .LVU81
 241 009e 2B68     		ldr	r3, [r5]
 242              	.LVL26:
 243              	.LBB238:
 244              	.LBI238:
ARM GAS  /tmp/ccjGnpiF.s 			page 18


 495:Drivers/CMSIS/Include/core_cmInstr.h **** {
 245              		.loc 2 495 57 is_stmt 1 view .LVU82
 246              	.LBB239:
 247              		.loc 2 498 3 view .LVU83
 248              		.loc 2 498 10 is_stmt 0 view .LVU84
 249 00a0 1BBA     		rev	r3, r3
 250              	.LVL27:
 251              		.loc 2 498 10 view .LVU85
 252              	.LBE239:
 253              	.LBE238:
 136:Drivers/STM32F4xx_StdPeriph_Driver/src/stm32f4xx_cryp_aes.c ****     keyaddr+=4;
 254              		.loc 1 136 45 view .LVU86
 255 00a2 0493     		str	r3, [sp, #16]
 137:Drivers/STM32F4xx_StdPeriph_Driver/src/stm32f4xx_cryp_aes.c ****     AES_CRYP_KeyInitStructure.CRYP_Key1Right= __REV(*(uint32_t*)(keyaddr));
 256              		.loc 1 137 5 is_stmt 1 view .LVU87
 257              	.LVL28:
 138:Drivers/STM32F4xx_StdPeriph_Driver/src/stm32f4xx_cryp_aes.c ****     keyaddr+=4;
 258              		.loc 1 138 5 view .LVU88
 138:Drivers/STM32F4xx_StdPeriph_Driver/src/stm32f4xx_cryp_aes.c ****     keyaddr+=4;
 259              		.loc 1 138 47 is_stmt 0 view .LVU89
 260 00a4 6B68     		ldr	r3, [r5, #4]
 261              	.LVL29:
 262              	.LBB240:
 263              	.LBI240:
 495:Drivers/CMSIS/Include/core_cmInstr.h **** {
 264              		.loc 2 495 57 is_stmt 1 view .LVU90
 265              	.LBB241:
 266              		.loc 2 498 3 view .LVU91
 267              		.loc 2 498 10 is_stmt 0 view .LVU92
 268 00a6 1BBA     		rev	r3, r3
 269              	.LVL30:
 270              		.loc 2 498 10 view .LVU93
 271              	.LBE241:
 272              	.LBE240:
 138:Drivers/STM32F4xx_StdPeriph_Driver/src/stm32f4xx_cryp_aes.c ****     keyaddr+=4;
 273              		.loc 1 138 45 view .LVU94
 274 00a8 0593     		str	r3, [sp, #20]
 139:Drivers/STM32F4xx_StdPeriph_Driver/src/stm32f4xx_cryp_aes.c ****     AES_CRYP_KeyInitStructure.CRYP_Key2Left = __REV(*(uint32_t*)(keyaddr));
 275              		.loc 1 139 5 is_stmt 1 view .LVU95
 276              	.LVL31:
 140:Drivers/STM32F4xx_StdPeriph_Driver/src/stm32f4xx_cryp_aes.c ****     keyaddr+=4;
 277              		.loc 1 140 5 view .LVU96
 140:Drivers/STM32F4xx_StdPeriph_Driver/src/stm32f4xx_cryp_aes.c ****     keyaddr+=4;
 278              		.loc 1 140 47 is_stmt 0 view .LVU97
 279 00aa AB68     		ldr	r3, [r5, #8]
 280              	.LVL32:
 281              	.LBB242:
 282              	.LBI242:
 495:Drivers/CMSIS/Include/core_cmInstr.h **** {
 283              		.loc 2 495 57 is_stmt 1 view .LVU98
 284              	.LBB243:
 285              		.loc 2 498 3 view .LVU99
 286              		.loc 2 498 10 is_stmt 0 view .LVU100
 287 00ac 1BBA     		rev	r3, r3
 288              	.LVL33:
 289              		.loc 2 498 10 view .LVU101
 290              	.LBE243:
ARM GAS  /tmp/ccjGnpiF.s 			page 19


 291              	.LBE242:
 140:Drivers/STM32F4xx_StdPeriph_Driver/src/stm32f4xx_cryp_aes.c ****     keyaddr+=4;
 292              		.loc 1 140 45 view .LVU102
 293 00ae 0693     		str	r3, [sp, #24]
 141:Drivers/STM32F4xx_StdPeriph_Driver/src/stm32f4xx_cryp_aes.c ****     AES_CRYP_KeyInitStructure.CRYP_Key2Right= __REV(*(uint32_t*)(keyaddr));
 294              		.loc 1 141 5 is_stmt 1 view .LVU103
 295              	.LVL34:
 142:Drivers/STM32F4xx_StdPeriph_Driver/src/stm32f4xx_cryp_aes.c ****     keyaddr+=4;
 296              		.loc 1 142 5 view .LVU104
 142:Drivers/STM32F4xx_StdPeriph_Driver/src/stm32f4xx_cryp_aes.c ****     keyaddr+=4;
 297              		.loc 1 142 47 is_stmt 0 view .LVU105
 298 00b0 EB68     		ldr	r3, [r5, #12]
 299              	.LVL35:
 300              	.LBB244:
 301              	.LBI244:
 495:Drivers/CMSIS/Include/core_cmInstr.h **** {
 302              		.loc 2 495 57 is_stmt 1 view .LVU106
 303              	.LBB245:
 304              		.loc 2 498 3 view .LVU107
 305              		.loc 2 498 10 is_stmt 0 view .LVU108
 306 00b2 1BBA     		rev	r3, r3
 307              	.LVL36:
 308              		.loc 2 498 10 view .LVU109
 309              	.LBE245:
 310              	.LBE244:
 142:Drivers/STM32F4xx_StdPeriph_Driver/src/stm32f4xx_cryp_aes.c ****     keyaddr+=4;
 311              		.loc 1 142 45 view .LVU110
 312 00b4 0793     		str	r3, [sp, #28]
 143:Drivers/STM32F4xx_StdPeriph_Driver/src/stm32f4xx_cryp_aes.c ****     AES_CRYP_KeyInitStructure.CRYP_Key3Left = __REV(*(uint32_t*)(keyaddr));
 313              		.loc 1 143 5 is_stmt 1 view .LVU111
 314              	.LVL37:
 144:Drivers/STM32F4xx_StdPeriph_Driver/src/stm32f4xx_cryp_aes.c ****     keyaddr+=4;
 315              		.loc 1 144 5 view .LVU112
 144:Drivers/STM32F4xx_StdPeriph_Driver/src/stm32f4xx_cryp_aes.c ****     keyaddr+=4;
 316              		.loc 1 144 47 is_stmt 0 view .LVU113
 317 00b6 2B69     		ldr	r3, [r5, #16]
 318              	.LVL38:
 319              	.LBB246:
 320              	.LBI246:
 495:Drivers/CMSIS/Include/core_cmInstr.h **** {
 321              		.loc 2 495 57 is_stmt 1 view .LVU114
 322              	.LBB247:
 323              		.loc 2 498 3 view .LVU115
 324              		.loc 2 498 10 is_stmt 0 view .LVU116
 325 00b8 1BBA     		rev	r3, r3
 326              	.LVL39:
 327              		.loc 2 498 10 view .LVU117
 328              	.LBE247:
 329              	.LBE246:
 144:Drivers/STM32F4xx_StdPeriph_Driver/src/stm32f4xx_cryp_aes.c ****     keyaddr+=4;
 330              		.loc 1 144 45 view .LVU118
 331 00ba 0893     		str	r3, [sp, #32]
 145:Drivers/STM32F4xx_StdPeriph_Driver/src/stm32f4xx_cryp_aes.c ****     AES_CRYP_KeyInitStructure.CRYP_Key3Right= __REV(*(uint32_t*)(keyaddr));
 332              		.loc 1 145 5 is_stmt 1 view .LVU119
 333              	.LVL40:
 146:Drivers/STM32F4xx_StdPeriph_Driver/src/stm32f4xx_cryp_aes.c ****     break;
 334              		.loc 1 146 5 view .LVU120
ARM GAS  /tmp/ccjGnpiF.s 			page 20


 146:Drivers/STM32F4xx_StdPeriph_Driver/src/stm32f4xx_cryp_aes.c ****     break;
 335              		.loc 1 146 47 is_stmt 0 view .LVU121
 336 00bc 6B69     		ldr	r3, [r5, #20]
 337              	.LVL41:
 338              	.LBB248:
 339              	.LBI248:
 495:Drivers/CMSIS/Include/core_cmInstr.h **** {
 340              		.loc 2 495 57 is_stmt 1 view .LVU122
 341              	.LBB249:
 342              		.loc 2 498 3 view .LVU123
 343              		.loc 2 498 10 is_stmt 0 view .LVU124
 344 00be 1BBA     		rev	r3, r3
 345              	.LVL42:
 346              		.loc 2 498 10 view .LVU125
 347              	.LBE249:
 348              	.LBE248:
 146:Drivers/STM32F4xx_StdPeriph_Driver/src/stm32f4xx_cryp_aes.c ****     break;
 349              		.loc 1 146 45 view .LVU126
 350 00c0 0993     		str	r3, [sp, #36]
 147:Drivers/STM32F4xx_StdPeriph_Driver/src/stm32f4xx_cryp_aes.c ****     case 256:
 351              		.loc 1 147 5 is_stmt 1 view .LVU127
 352 00c2 B5E7     		b	.L4
 353              	.LVL43:
 354              	.L3:
 149:Drivers/STM32F4xx_StdPeriph_Driver/src/stm32f4xx_cryp_aes.c ****     AES_CRYP_KeyInitStructure.CRYP_Key0Left = __REV(*(uint32_t*)(keyaddr));
 355              		.loc 1 149 5 view .LVU128
 149:Drivers/STM32F4xx_StdPeriph_Driver/src/stm32f4xx_cryp_aes.c ****     AES_CRYP_KeyInitStructure.CRYP_Key0Left = __REV(*(uint32_t*)(keyaddr));
 356              		.loc 1 149 42 is_stmt 0 view .LVU129
 357 00c4 4FF40073 		mov	r3, #512
 358 00c8 0D93     		str	r3, [sp, #52]
 150:Drivers/STM32F4xx_StdPeriph_Driver/src/stm32f4xx_cryp_aes.c ****     keyaddr+=4;
 359              		.loc 1 150 5 is_stmt 1 view .LVU130
 150:Drivers/STM32F4xx_StdPeriph_Driver/src/stm32f4xx_cryp_aes.c ****     keyaddr+=4;
 360              		.loc 1 150 47 is_stmt 0 view .LVU131
 361 00ca 2B68     		ldr	r3, [r5]
 362              	.LVL44:
 363              	.LBB250:
 364              	.LBI250:
 495:Drivers/CMSIS/Include/core_cmInstr.h **** {
 365              		.loc 2 495 57 is_stmt 1 view .LVU132
 366              	.LBB251:
 367              		.loc 2 498 3 view .LVU133
 368              		.loc 2 498 10 is_stmt 0 view .LVU134
 369 00cc 1BBA     		rev	r3, r3
 370              	.LVL45:
 371              		.loc 2 498 10 view .LVU135
 372              	.LBE251:
 373              	.LBE250:
 150:Drivers/STM32F4xx_StdPeriph_Driver/src/stm32f4xx_cryp_aes.c ****     keyaddr+=4;
 374              		.loc 1 150 45 view .LVU136
 375 00ce 0293     		str	r3, [sp, #8]
 151:Drivers/STM32F4xx_StdPeriph_Driver/src/stm32f4xx_cryp_aes.c ****     AES_CRYP_KeyInitStructure.CRYP_Key0Right= __REV(*(uint32_t*)(keyaddr));
 376              		.loc 1 151 5 is_stmt 1 view .LVU137
 377              	.LVL46:
 152:Drivers/STM32F4xx_StdPeriph_Driver/src/stm32f4xx_cryp_aes.c ****     keyaddr+=4;
 378              		.loc 1 152 5 view .LVU138
 152:Drivers/STM32F4xx_StdPeriph_Driver/src/stm32f4xx_cryp_aes.c ****     keyaddr+=4;
ARM GAS  /tmp/ccjGnpiF.s 			page 21


 379              		.loc 1 152 47 is_stmt 0 view .LVU139
 380 00d0 6B68     		ldr	r3, [r5, #4]
 381              	.LVL47:
 382              	.LBB252:
 383              	.LBI252:
 495:Drivers/CMSIS/Include/core_cmInstr.h **** {
 384              		.loc 2 495 57 is_stmt 1 view .LVU140
 385              	.LBB253:
 386              		.loc 2 498 3 view .LVU141
 387              		.loc 2 498 10 is_stmt 0 view .LVU142
 388 00d2 1BBA     		rev	r3, r3
 389              	.LVL48:
 390              		.loc 2 498 10 view .LVU143
 391              	.LBE253:
 392              	.LBE252:
 152:Drivers/STM32F4xx_StdPeriph_Driver/src/stm32f4xx_cryp_aes.c ****     keyaddr+=4;
 393              		.loc 1 152 45 view .LVU144
 394 00d4 0393     		str	r3, [sp, #12]
 153:Drivers/STM32F4xx_StdPeriph_Driver/src/stm32f4xx_cryp_aes.c ****     AES_CRYP_KeyInitStructure.CRYP_Key1Left = __REV(*(uint32_t*)(keyaddr));
 395              		.loc 1 153 5 is_stmt 1 view .LVU145
 396              	.LVL49:
 154:Drivers/STM32F4xx_StdPeriph_Driver/src/stm32f4xx_cryp_aes.c ****     keyaddr+=4;
 397              		.loc 1 154 5 view .LVU146
 154:Drivers/STM32F4xx_StdPeriph_Driver/src/stm32f4xx_cryp_aes.c ****     keyaddr+=4;
 398              		.loc 1 154 47 is_stmt 0 view .LVU147
 399 00d6 AB68     		ldr	r3, [r5, #8]
 400              	.LVL50:
 401              	.LBB254:
 402              	.LBI254:
 495:Drivers/CMSIS/Include/core_cmInstr.h **** {
 403              		.loc 2 495 57 is_stmt 1 view .LVU148
 404              	.LBB255:
 405              		.loc 2 498 3 view .LVU149
 406              		.loc 2 498 10 is_stmt 0 view .LVU150
 407 00d8 1BBA     		rev	r3, r3
 408              	.LVL51:
 409              		.loc 2 498 10 view .LVU151
 410              	.LBE255:
 411              	.LBE254:
 154:Drivers/STM32F4xx_StdPeriph_Driver/src/stm32f4xx_cryp_aes.c ****     keyaddr+=4;
 412              		.loc 1 154 45 view .LVU152
 413 00da 0493     		str	r3, [sp, #16]
 155:Drivers/STM32F4xx_StdPeriph_Driver/src/stm32f4xx_cryp_aes.c ****     AES_CRYP_KeyInitStructure.CRYP_Key1Right= __REV(*(uint32_t*)(keyaddr));
 414              		.loc 1 155 5 is_stmt 1 view .LVU153
 415              	.LVL52:
 156:Drivers/STM32F4xx_StdPeriph_Driver/src/stm32f4xx_cryp_aes.c ****     keyaddr+=4;
 416              		.loc 1 156 5 view .LVU154
 156:Drivers/STM32F4xx_StdPeriph_Driver/src/stm32f4xx_cryp_aes.c ****     keyaddr+=4;
 417              		.loc 1 156 47 is_stmt 0 view .LVU155
 418 00dc EB68     		ldr	r3, [r5, #12]
 419              	.LVL53:
 420              	.LBB256:
 421              	.LBI256:
 495:Drivers/CMSIS/Include/core_cmInstr.h **** {
 422              		.loc 2 495 57 is_stmt 1 view .LVU156
 423              	.LBB257:
 424              		.loc 2 498 3 view .LVU157
ARM GAS  /tmp/ccjGnpiF.s 			page 22


 425              		.loc 2 498 10 is_stmt 0 view .LVU158
 426 00de 1BBA     		rev	r3, r3
 427              	.LVL54:
 428              		.loc 2 498 10 view .LVU159
 429              	.LBE257:
 430              	.LBE256:
 156:Drivers/STM32F4xx_StdPeriph_Driver/src/stm32f4xx_cryp_aes.c ****     keyaddr+=4;
 431              		.loc 1 156 45 view .LVU160
 432 00e0 0593     		str	r3, [sp, #20]
 157:Drivers/STM32F4xx_StdPeriph_Driver/src/stm32f4xx_cryp_aes.c ****     AES_CRYP_KeyInitStructure.CRYP_Key2Left = __REV(*(uint32_t*)(keyaddr));
 433              		.loc 1 157 5 is_stmt 1 view .LVU161
 434              	.LVL55:
 158:Drivers/STM32F4xx_StdPeriph_Driver/src/stm32f4xx_cryp_aes.c ****     keyaddr+=4;
 435              		.loc 1 158 5 view .LVU162
 158:Drivers/STM32F4xx_StdPeriph_Driver/src/stm32f4xx_cryp_aes.c ****     keyaddr+=4;
 436              		.loc 1 158 47 is_stmt 0 view .LVU163
 437 00e2 2B69     		ldr	r3, [r5, #16]
 438              	.LVL56:
 439              	.LBB258:
 440              	.LBI258:
 495:Drivers/CMSIS/Include/core_cmInstr.h **** {
 441              		.loc 2 495 57 is_stmt 1 view .LVU164
 442              	.LBB259:
 443              		.loc 2 498 3 view .LVU165
 444              		.loc 2 498 10 is_stmt 0 view .LVU166
 445 00e4 1BBA     		rev	r3, r3
 446              	.LVL57:
 447              		.loc 2 498 10 view .LVU167
 448              	.LBE259:
 449              	.LBE258:
 158:Drivers/STM32F4xx_StdPeriph_Driver/src/stm32f4xx_cryp_aes.c ****     keyaddr+=4;
 450              		.loc 1 158 45 view .LVU168
 451 00e6 0693     		str	r3, [sp, #24]
 159:Drivers/STM32F4xx_StdPeriph_Driver/src/stm32f4xx_cryp_aes.c ****     AES_CRYP_KeyInitStructure.CRYP_Key2Right= __REV(*(uint32_t*)(keyaddr));
 452              		.loc 1 159 5 is_stmt 1 view .LVU169
 453              	.LVL58:
 160:Drivers/STM32F4xx_StdPeriph_Driver/src/stm32f4xx_cryp_aes.c ****     keyaddr+=4;
 454              		.loc 1 160 5 view .LVU170
 160:Drivers/STM32F4xx_StdPeriph_Driver/src/stm32f4xx_cryp_aes.c ****     keyaddr+=4;
 455              		.loc 1 160 47 is_stmt 0 view .LVU171
 456 00e8 6B69     		ldr	r3, [r5, #20]
 457              	.LVL59:
 458              	.LBB260:
 459              	.LBI260:
 495:Drivers/CMSIS/Include/core_cmInstr.h **** {
 460              		.loc 2 495 57 is_stmt 1 view .LVU172
 461              	.LBB261:
 462              		.loc 2 498 3 view .LVU173
 463              		.loc 2 498 10 is_stmt 0 view .LVU174
 464 00ea 1BBA     		rev	r3, r3
 465              	.LVL60:
 466              		.loc 2 498 10 view .LVU175
 467              	.LBE261:
 468              	.LBE260:
 160:Drivers/STM32F4xx_StdPeriph_Driver/src/stm32f4xx_cryp_aes.c ****     keyaddr+=4;
 469              		.loc 1 160 45 view .LVU176
 470 00ec 0793     		str	r3, [sp, #28]
ARM GAS  /tmp/ccjGnpiF.s 			page 23


 161:Drivers/STM32F4xx_StdPeriph_Driver/src/stm32f4xx_cryp_aes.c ****     AES_CRYP_KeyInitStructure.CRYP_Key3Left = __REV(*(uint32_t*)(keyaddr));
 471              		.loc 1 161 5 is_stmt 1 view .LVU177
 472              	.LVL61:
 162:Drivers/STM32F4xx_StdPeriph_Driver/src/stm32f4xx_cryp_aes.c ****     keyaddr+=4;
 473              		.loc 1 162 5 view .LVU178
 162:Drivers/STM32F4xx_StdPeriph_Driver/src/stm32f4xx_cryp_aes.c ****     keyaddr+=4;
 474              		.loc 1 162 47 is_stmt 0 view .LVU179
 475 00ee AB69     		ldr	r3, [r5, #24]
 476              	.LVL62:
 477              	.LBB262:
 478              	.LBI262:
 495:Drivers/CMSIS/Include/core_cmInstr.h **** {
 479              		.loc 2 495 57 is_stmt 1 view .LVU180
 480              	.LBB263:
 481              		.loc 2 498 3 view .LVU181
 482              		.loc 2 498 10 is_stmt 0 view .LVU182
 483 00f0 1BBA     		rev	r3, r3
 484              	.LVL63:
 485              		.loc 2 498 10 view .LVU183
 486              	.LBE263:
 487              	.LBE262:
 162:Drivers/STM32F4xx_StdPeriph_Driver/src/stm32f4xx_cryp_aes.c ****     keyaddr+=4;
 488              		.loc 1 162 45 view .LVU184
 489 00f2 0893     		str	r3, [sp, #32]
 163:Drivers/STM32F4xx_StdPeriph_Driver/src/stm32f4xx_cryp_aes.c ****     AES_CRYP_KeyInitStructure.CRYP_Key3Right= __REV(*(uint32_t*)(keyaddr));
 490              		.loc 1 163 5 is_stmt 1 view .LVU185
 491              	.LVL64:
 164:Drivers/STM32F4xx_StdPeriph_Driver/src/stm32f4xx_cryp_aes.c ****     break;
 492              		.loc 1 164 5 view .LVU186
 164:Drivers/STM32F4xx_StdPeriph_Driver/src/stm32f4xx_cryp_aes.c ****     break;
 493              		.loc 1 164 47 is_stmt 0 view .LVU187
 494 00f4 EB69     		ldr	r3, [r5, #28]
 495              	.LVL65:
 496              	.LBB264:
 497              	.LBI264:
 495:Drivers/CMSIS/Include/core_cmInstr.h **** {
 498              		.loc 2 495 57 is_stmt 1 view .LVU188
 499              	.LBB265:
 500              		.loc 2 498 3 view .LVU189
 501              		.loc 2 498 10 is_stmt 0 view .LVU190
 502 00f6 1BBA     		rev	r3, r3
 503              	.LVL66:
 504              		.loc 2 498 10 view .LVU191
 505              	.LBE265:
 506              	.LBE264:
 164:Drivers/STM32F4xx_StdPeriph_Driver/src/stm32f4xx_cryp_aes.c ****     break;
 507              		.loc 1 164 45 view .LVU192
 508 00f8 0993     		str	r3, [sp, #36]
 165:Drivers/STM32F4xx_StdPeriph_Driver/src/stm32f4xx_cryp_aes.c ****     default:
 509              		.loc 1 165 5 is_stmt 1 view .LVU193
 510 00fa 99E7     		b	.L4
 511              	.LVL67:
 512              	.L5:
 203:Drivers/STM32F4xx_StdPeriph_Driver/src/stm32f4xx_cryp_aes.c ****     }
 204:Drivers/STM32F4xx_StdPeriph_Driver/src/stm32f4xx_cryp_aes.c ****   }
 205:Drivers/STM32F4xx_StdPeriph_Driver/src/stm32f4xx_cryp_aes.c ****   /*------------------ AES Encryption ------------------*/
 206:Drivers/STM32F4xx_StdPeriph_Driver/src/stm32f4xx_cryp_aes.c ****   else /* AES encryption */
ARM GAS  /tmp/ccjGnpiF.s 			page 24


 207:Drivers/STM32F4xx_StdPeriph_Driver/src/stm32f4xx_cryp_aes.c ****   {
 208:Drivers/STM32F4xx_StdPeriph_Driver/src/stm32f4xx_cryp_aes.c **** 
 209:Drivers/STM32F4xx_StdPeriph_Driver/src/stm32f4xx_cryp_aes.c ****     CRYP_KeyInit(&AES_CRYP_KeyInitStructure);
 513              		.loc 1 209 5 view .LVU194
 514 00fc 02A8     		add	r0, sp, #8
 515 00fe FFF7FEFF 		bl	CRYP_KeyInit
 516              	.LVL68:
 210:Drivers/STM32F4xx_StdPeriph_Driver/src/stm32f4xx_cryp_aes.c **** 
 211:Drivers/STM32F4xx_StdPeriph_Driver/src/stm32f4xx_cryp_aes.c ****     /* Crypto Init for Encryption process */
 212:Drivers/STM32F4xx_StdPeriph_Driver/src/stm32f4xx_cryp_aes.c ****     AES_CRYP_InitStructure.CRYP_AlgoDir  = CRYP_AlgoDir_Encrypt;
 517              		.loc 1 212 5 view .LVU195
 518              		.loc 1 212 42 is_stmt 0 view .LVU196
 519 0102 0023     		movs	r3, #0
 520 0104 0A93     		str	r3, [sp, #40]
 113:Drivers/STM32F4xx_StdPeriph_Driver/src/stm32f4xx_cryp_aes.c ****   uint32_t keyaddr    = (uint32_t)Key;
 521              		.loc 1 113 15 view .LVU197
 522 0106 0126     		movs	r6, #1
 523              	.LVL69:
 524              	.L8:
 213:Drivers/STM32F4xx_StdPeriph_Driver/src/stm32f4xx_cryp_aes.c ****   }
 214:Drivers/STM32F4xx_StdPeriph_Driver/src/stm32f4xx_cryp_aes.c **** 
 215:Drivers/STM32F4xx_StdPeriph_Driver/src/stm32f4xx_cryp_aes.c ****   AES_CRYP_InitStructure.CRYP_AlgoMode = CRYP_AlgoMode_AES_ECB;
 525              		.loc 1 215 3 is_stmt 1 view .LVU198
 526              		.loc 1 215 40 is_stmt 0 view .LVU199
 527 0108 2023     		movs	r3, #32
 528 010a 0B93     		str	r3, [sp, #44]
 216:Drivers/STM32F4xx_StdPeriph_Driver/src/stm32f4xx_cryp_aes.c ****   AES_CRYP_InitStructure.CRYP_DataType = CRYP_DataType_8b;
 529              		.loc 1 216 3 is_stmt 1 view .LVU200
 530              		.loc 1 216 40 is_stmt 0 view .LVU201
 531 010c 8023     		movs	r3, #128
 532 010e 0C93     		str	r3, [sp, #48]
 217:Drivers/STM32F4xx_StdPeriph_Driver/src/stm32f4xx_cryp_aes.c ****   CRYP_Init(&AES_CRYP_InitStructure);
 533              		.loc 1 217 3 is_stmt 1 view .LVU202
 534 0110 0AA8     		add	r0, sp, #40
 535 0112 FFF7FEFF 		bl	CRYP_Init
 536              	.LVL70:
 218:Drivers/STM32F4xx_StdPeriph_Driver/src/stm32f4xx_cryp_aes.c **** 
 219:Drivers/STM32F4xx_StdPeriph_Driver/src/stm32f4xx_cryp_aes.c ****   /* Flush IN/OUT FIFOs */
 220:Drivers/STM32F4xx_StdPeriph_Driver/src/stm32f4xx_cryp_aes.c ****   CRYP_FIFOFlush();
 537              		.loc 1 220 3 view .LVU203
 538 0116 FFF7FEFF 		bl	CRYP_FIFOFlush
 539              	.LVL71:
 221:Drivers/STM32F4xx_StdPeriph_Driver/src/stm32f4xx_cryp_aes.c **** 
 222:Drivers/STM32F4xx_StdPeriph_Driver/src/stm32f4xx_cryp_aes.c ****   /* Enable Crypto processor */
 223:Drivers/STM32F4xx_StdPeriph_Driver/src/stm32f4xx_cryp_aes.c ****   CRYP_Cmd(ENABLE);
 540              		.loc 1 223 3 view .LVU204
 541 011a 0120     		movs	r0, #1
 542 011c FFF7FEFF 		bl	CRYP_Cmd
 543              	.LVL72:
 224:Drivers/STM32F4xx_StdPeriph_Driver/src/stm32f4xx_cryp_aes.c **** 
 225:Drivers/STM32F4xx_StdPeriph_Driver/src/stm32f4xx_cryp_aes.c ****   if(CRYP_GetCmdStatus() == DISABLE)
 544              		.loc 1 225 3 view .LVU205
 545              		.loc 1 225 6 is_stmt 0 view .LVU206
 546 0120 FFF7FEFF 		bl	CRYP_GetCmdStatus
 547              	.LVL73:
 548              		.loc 1 225 5 view .LVU207
 549 0124 0028     		cmp	r0, #0
ARM GAS  /tmp/ccjGnpiF.s 			page 25


 550 0126 35D0     		beq	.L9
 226:Drivers/STM32F4xx_StdPeriph_Driver/src/stm32f4xx_cryp_aes.c ****   {
 227:Drivers/STM32F4xx_StdPeriph_Driver/src/stm32f4xx_cryp_aes.c ****     /* The CRYP peripheral clock is not enabled or the device doesn't embed 
 228:Drivers/STM32F4xx_StdPeriph_Driver/src/stm32f4xx_cryp_aes.c ****        the CRYP peripheral (please check the device sales type. */
 229:Drivers/STM32F4xx_StdPeriph_Driver/src/stm32f4xx_cryp_aes.c ****     return(ERROR);
 230:Drivers/STM32F4xx_StdPeriph_Driver/src/stm32f4xx_cryp_aes.c ****   }
 231:Drivers/STM32F4xx_StdPeriph_Driver/src/stm32f4xx_cryp_aes.c ****   
 232:Drivers/STM32F4xx_StdPeriph_Driver/src/stm32f4xx_cryp_aes.c ****   for(i=0; ((i<Ilength) && (status != ERROR)); i+=16)
 551              		.loc 1 232 8 view .LVU208
 552 0128 0025     		movs	r5, #0
 553              	.LVL74:
 554              		.loc 1 232 8 view .LVU209
 555 012a 02E0     		b	.L10
 556              	.LVL75:
 557              	.L11:
 233:Drivers/STM32F4xx_StdPeriph_Driver/src/stm32f4xx_cryp_aes.c ****   {
 234:Drivers/STM32F4xx_StdPeriph_Driver/src/stm32f4xx_cryp_aes.c **** 
 235:Drivers/STM32F4xx_StdPeriph_Driver/src/stm32f4xx_cryp_aes.c ****     /* Write the Input block in the IN FIFO */
 236:Drivers/STM32F4xx_StdPeriph_Driver/src/stm32f4xx_cryp_aes.c ****     CRYP_DataIn(*(uint32_t*)(inputaddr));
 237:Drivers/STM32F4xx_StdPeriph_Driver/src/stm32f4xx_cryp_aes.c ****     inputaddr+=4;
 238:Drivers/STM32F4xx_StdPeriph_Driver/src/stm32f4xx_cryp_aes.c ****     CRYP_DataIn(*(uint32_t*)(inputaddr));
 239:Drivers/STM32F4xx_StdPeriph_Driver/src/stm32f4xx_cryp_aes.c ****     inputaddr+=4;
 240:Drivers/STM32F4xx_StdPeriph_Driver/src/stm32f4xx_cryp_aes.c ****     CRYP_DataIn(*(uint32_t*)(inputaddr));
 241:Drivers/STM32F4xx_StdPeriph_Driver/src/stm32f4xx_cryp_aes.c ****     inputaddr+=4;
 242:Drivers/STM32F4xx_StdPeriph_Driver/src/stm32f4xx_cryp_aes.c ****     CRYP_DataIn(*(uint32_t*)(inputaddr));
 243:Drivers/STM32F4xx_StdPeriph_Driver/src/stm32f4xx_cryp_aes.c ****     inputaddr+=4;
 244:Drivers/STM32F4xx_StdPeriph_Driver/src/stm32f4xx_cryp_aes.c **** 
 245:Drivers/STM32F4xx_StdPeriph_Driver/src/stm32f4xx_cryp_aes.c ****     /* Wait until the complete message has been processed */
 246:Drivers/STM32F4xx_StdPeriph_Driver/src/stm32f4xx_cryp_aes.c ****     counter = 0;
 247:Drivers/STM32F4xx_StdPeriph_Driver/src/stm32f4xx_cryp_aes.c ****     do
 248:Drivers/STM32F4xx_StdPeriph_Driver/src/stm32f4xx_cryp_aes.c ****     {
 249:Drivers/STM32F4xx_StdPeriph_Driver/src/stm32f4xx_cryp_aes.c ****       busystatus = CRYP_GetFlagStatus(CRYP_FLAG_BUSY);
 250:Drivers/STM32F4xx_StdPeriph_Driver/src/stm32f4xx_cryp_aes.c ****       counter++;
 251:Drivers/STM32F4xx_StdPeriph_Driver/src/stm32f4xx_cryp_aes.c ****     }while ((counter != AESBUSY_TIMEOUT) && (busystatus != RESET));
 252:Drivers/STM32F4xx_StdPeriph_Driver/src/stm32f4xx_cryp_aes.c **** 
 253:Drivers/STM32F4xx_StdPeriph_Driver/src/stm32f4xx_cryp_aes.c ****     if (busystatus != RESET)
 558              		.loc 1 253 5 is_stmt 1 view .LVU210
 559              		.loc 1 253 8 is_stmt 0 view .LVU211
 560 012c 00B3     		cbz	r0, .L19
 254:Drivers/STM32F4xx_StdPeriph_Driver/src/stm32f4xx_cryp_aes.c ****    {
 255:Drivers/STM32F4xx_StdPeriph_Driver/src/stm32f4xx_cryp_aes.c ****        status = ERROR;
 561              		.loc 1 255 15 view .LVU212
 562 012e 0026     		movs	r6, #0
 563              	.LVL76:
 564              	.L13:
 232:Drivers/STM32F4xx_StdPeriph_Driver/src/stm32f4xx_cryp_aes.c ****   {
 565              		.loc 1 232 48 is_stmt 1 discriminator 2 view .LVU213
 232:Drivers/STM32F4xx_StdPeriph_Driver/src/stm32f4xx_cryp_aes.c ****   {
 566              		.loc 1 232 49 is_stmt 0 discriminator 2 view .LVU214
 567 0130 1035     		adds	r5, r5, #16
 568              	.LVL77:
 569              	.L10:
 232:Drivers/STM32F4xx_StdPeriph_Driver/src/stm32f4xx_cryp_aes.c ****   {
 570              		.loc 1 232 12 is_stmt 1 discriminator 1 view .LVU215
 232:Drivers/STM32F4xx_StdPeriph_Driver/src/stm32f4xx_cryp_aes.c ****   {
 571              		.loc 1 232 3 is_stmt 0 discriminator 1 view .LVU216
 572 0132 4545     		cmp	r5, r8
ARM GAS  /tmp/ccjGnpiF.s 			page 26


 573 0134 2AD2     		bcs	.L14
 232:Drivers/STM32F4xx_StdPeriph_Driver/src/stm32f4xx_cryp_aes.c ****   {
 574              		.loc 1 232 25 discriminator 3 view .LVU217
 575 0136 4EB3     		cbz	r6, .L14
 236:Drivers/STM32F4xx_StdPeriph_Driver/src/stm32f4xx_cryp_aes.c ****     inputaddr+=4;
 576              		.loc 1 236 5 is_stmt 1 view .LVU218
 577 0138 2068     		ldr	r0, [r4]
 578 013a FFF7FEFF 		bl	CRYP_DataIn
 579              	.LVL78:
 237:Drivers/STM32F4xx_StdPeriph_Driver/src/stm32f4xx_cryp_aes.c ****     CRYP_DataIn(*(uint32_t*)(inputaddr));
 580              		.loc 1 237 5 view .LVU219
 238:Drivers/STM32F4xx_StdPeriph_Driver/src/stm32f4xx_cryp_aes.c ****     inputaddr+=4;
 581              		.loc 1 238 5 view .LVU220
 582 013e 6068     		ldr	r0, [r4, #4]
 583 0140 FFF7FEFF 		bl	CRYP_DataIn
 584              	.LVL79:
 239:Drivers/STM32F4xx_StdPeriph_Driver/src/stm32f4xx_cryp_aes.c ****     CRYP_DataIn(*(uint32_t*)(inputaddr));
 585              		.loc 1 239 5 view .LVU221
 240:Drivers/STM32F4xx_StdPeriph_Driver/src/stm32f4xx_cryp_aes.c ****     inputaddr+=4;
 586              		.loc 1 240 5 view .LVU222
 587 0144 A068     		ldr	r0, [r4, #8]
 588 0146 FFF7FEFF 		bl	CRYP_DataIn
 589              	.LVL80:
 241:Drivers/STM32F4xx_StdPeriph_Driver/src/stm32f4xx_cryp_aes.c ****     CRYP_DataIn(*(uint32_t*)(inputaddr));
 590              		.loc 1 241 5 view .LVU223
 242:Drivers/STM32F4xx_StdPeriph_Driver/src/stm32f4xx_cryp_aes.c ****     inputaddr+=4;
 591              		.loc 1 242 5 view .LVU224
 592 014a E068     		ldr	r0, [r4, #12]
 593 014c FFF7FEFF 		bl	CRYP_DataIn
 594              	.LVL81:
 243:Drivers/STM32F4xx_StdPeriph_Driver/src/stm32f4xx_cryp_aes.c **** 
 595              		.loc 1 243 5 view .LVU225
 243:Drivers/STM32F4xx_StdPeriph_Driver/src/stm32f4xx_cryp_aes.c **** 
 596              		.loc 1 243 14 is_stmt 0 view .LVU226
 597 0150 1034     		adds	r4, r4, #16
 598              	.LVL82:
 246:Drivers/STM32F4xx_StdPeriph_Driver/src/stm32f4xx_cryp_aes.c ****     do
 599              		.loc 1 246 5 is_stmt 1 view .LVU227
 246:Drivers/STM32F4xx_StdPeriph_Driver/src/stm32f4xx_cryp_aes.c ****     do
 600              		.loc 1 246 13 is_stmt 0 view .LVU228
 601 0152 0023     		movs	r3, #0
 602 0154 0193     		str	r3, [sp, #4]
 603              	.L12:
 247:Drivers/STM32F4xx_StdPeriph_Driver/src/stm32f4xx_cryp_aes.c ****     {
 604              		.loc 1 247 5 is_stmt 1 discriminator 2 view .LVU229
 249:Drivers/STM32F4xx_StdPeriph_Driver/src/stm32f4xx_cryp_aes.c ****       counter++;
 605              		.loc 1 249 7 discriminator 2 view .LVU230
 249:Drivers/STM32F4xx_StdPeriph_Driver/src/stm32f4xx_cryp_aes.c ****       counter++;
 606              		.loc 1 249 20 is_stmt 0 discriminator 2 view .LVU231
 607 0156 1020     		movs	r0, #16
 608 0158 FFF7FEFF 		bl	CRYP_GetFlagStatus
 609              	.LVL83:
 250:Drivers/STM32F4xx_StdPeriph_Driver/src/stm32f4xx_cryp_aes.c ****     }while ((counter != AESBUSY_TIMEOUT) && (busystatus != RESET));
 610              		.loc 1 250 7 is_stmt 1 discriminator 2 view .LVU232
 250:Drivers/STM32F4xx_StdPeriph_Driver/src/stm32f4xx_cryp_aes.c ****     }while ((counter != AESBUSY_TIMEOUT) && (busystatus != RESET));
 611              		.loc 1 250 14 is_stmt 0 discriminator 2 view .LVU233
 612 015c 019A     		ldr	r2, [sp, #4]
ARM GAS  /tmp/ccjGnpiF.s 			page 27


 613 015e 0132     		adds	r2, r2, #1
 614 0160 0192     		str	r2, [sp, #4]
 251:Drivers/STM32F4xx_StdPeriph_Driver/src/stm32f4xx_cryp_aes.c **** 
 615              		.loc 1 251 12 is_stmt 1 discriminator 2 view .LVU234
 251:Drivers/STM32F4xx_StdPeriph_Driver/src/stm32f4xx_cryp_aes.c **** 
 616              		.loc 1 251 22 is_stmt 0 discriminator 2 view .LVU235
 617 0162 019B     		ldr	r3, [sp, #4]
 251:Drivers/STM32F4xx_StdPeriph_Driver/src/stm32f4xx_cryp_aes.c **** 
 618              		.loc 1 251 5 discriminator 2 view .LVU236
 619 0164 B3F5803F 		cmp	r3, #65536
 620 0168 E0D0     		beq	.L11
 251:Drivers/STM32F4xx_StdPeriph_Driver/src/stm32f4xx_cryp_aes.c **** 
 621              		.loc 1 251 42 discriminator 1 view .LVU237
 622 016a 0028     		cmp	r0, #0
 623 016c F3D1     		bne	.L12
 624 016e DDE7     		b	.L11
 625              	.L19:
 256:Drivers/STM32F4xx_StdPeriph_Driver/src/stm32f4xx_cryp_aes.c ****     }
 257:Drivers/STM32F4xx_StdPeriph_Driver/src/stm32f4xx_cryp_aes.c ****     else
 258:Drivers/STM32F4xx_StdPeriph_Driver/src/stm32f4xx_cryp_aes.c ****     {
 259:Drivers/STM32F4xx_StdPeriph_Driver/src/stm32f4xx_cryp_aes.c **** 
 260:Drivers/STM32F4xx_StdPeriph_Driver/src/stm32f4xx_cryp_aes.c ****       /* Read the Output block from the Output FIFO */
 261:Drivers/STM32F4xx_StdPeriph_Driver/src/stm32f4xx_cryp_aes.c ****       *(uint32_t*)(outputaddr) = CRYP_DataOut();
 626              		.loc 1 261 7 is_stmt 1 view .LVU238
 627              		.loc 1 261 34 is_stmt 0 view .LVU239
 628 0170 FFF7FEFF 		bl	CRYP_DataOut
 629              	.LVL84:
 630              		.loc 1 261 32 view .LVU240
 631 0174 3860     		str	r0, [r7]
 262:Drivers/STM32F4xx_StdPeriph_Driver/src/stm32f4xx_cryp_aes.c ****       outputaddr+=4;
 632              		.loc 1 262 7 is_stmt 1 view .LVU241
 633              	.LVL85:
 263:Drivers/STM32F4xx_StdPeriph_Driver/src/stm32f4xx_cryp_aes.c ****       *(uint32_t*)(outputaddr) = CRYP_DataOut();
 634              		.loc 1 263 7 view .LVU242
 635              		.loc 1 263 34 is_stmt 0 view .LVU243
 636 0176 FFF7FEFF 		bl	CRYP_DataOut
 637              	.LVL86:
 638              		.loc 1 263 32 view .LVU244
 639 017a 7860     		str	r0, [r7, #4]
 264:Drivers/STM32F4xx_StdPeriph_Driver/src/stm32f4xx_cryp_aes.c ****       outputaddr+=4;
 640              		.loc 1 264 7 is_stmt 1 view .LVU245
 641              	.LVL87:
 265:Drivers/STM32F4xx_StdPeriph_Driver/src/stm32f4xx_cryp_aes.c ****       *(uint32_t*)(outputaddr) = CRYP_DataOut();
 642              		.loc 1 265 7 view .LVU246
 643              		.loc 1 265 34 is_stmt 0 view .LVU247
 644 017c FFF7FEFF 		bl	CRYP_DataOut
 645              	.LVL88:
 646              		.loc 1 265 32 view .LVU248
 647 0180 B860     		str	r0, [r7, #8]
 266:Drivers/STM32F4xx_StdPeriph_Driver/src/stm32f4xx_cryp_aes.c ****       outputaddr+=4;
 648              		.loc 1 266 7 is_stmt 1 view .LVU249
 649              	.LVL89:
 267:Drivers/STM32F4xx_StdPeriph_Driver/src/stm32f4xx_cryp_aes.c ****       *(uint32_t*)(outputaddr) = CRYP_DataOut(); 
 650              		.loc 1 267 7 view .LVU250
 651              		.loc 1 267 34 is_stmt 0 view .LVU251
 652 0182 FFF7FEFF 		bl	CRYP_DataOut
 653              	.LVL90:
ARM GAS  /tmp/ccjGnpiF.s 			page 28


 654              		.loc 1 267 32 view .LVU252
 655 0186 F860     		str	r0, [r7, #12]
 268:Drivers/STM32F4xx_StdPeriph_Driver/src/stm32f4xx_cryp_aes.c ****       outputaddr+=4;
 656              		.loc 1 268 7 is_stmt 1 view .LVU253
 657              		.loc 1 268 17 is_stmt 0 view .LVU254
 658 0188 1037     		adds	r7, r7, #16
 659              	.LVL91:
 660              		.loc 1 268 17 view .LVU255
 661 018a D1E7     		b	.L13
 662              	.L14:
 269:Drivers/STM32F4xx_StdPeriph_Driver/src/stm32f4xx_cryp_aes.c ****     }
 270:Drivers/STM32F4xx_StdPeriph_Driver/src/stm32f4xx_cryp_aes.c ****   }
 271:Drivers/STM32F4xx_StdPeriph_Driver/src/stm32f4xx_cryp_aes.c **** 
 272:Drivers/STM32F4xx_StdPeriph_Driver/src/stm32f4xx_cryp_aes.c ****   /* Disable Crypto */
 273:Drivers/STM32F4xx_StdPeriph_Driver/src/stm32f4xx_cryp_aes.c ****   CRYP_Cmd(DISABLE);
 663              		.loc 1 273 3 is_stmt 1 view .LVU256
 664 018c 0020     		movs	r0, #0
 665 018e FFF7FEFF 		bl	CRYP_Cmd
 666              	.LVL92:
 274:Drivers/STM32F4xx_StdPeriph_Driver/src/stm32f4xx_cryp_aes.c **** 
 275:Drivers/STM32F4xx_StdPeriph_Driver/src/stm32f4xx_cryp_aes.c ****   return status; 
 667              		.loc 1 275 3 view .LVU257
 668              		.loc 1 275 10 is_stmt 0 view .LVU258
 669 0192 3046     		mov	r0, r6
 670              	.LVL93:
 671              	.L9:
 276:Drivers/STM32F4xx_StdPeriph_Driver/src/stm32f4xx_cryp_aes.c **** }
 672              		.loc 1 276 1 view .LVU259
 673 0194 0FB0     		add	sp, sp, #60
 674              		.cfi_def_cfa_offset 28
 675              		@ sp needed
 676 0196 BDE8F083 		pop	{r4, r5, r6, r7, r8, r9, pc}
 677              		.loc 1 276 1 view .LVU260
 678              		.cfi_endproc
 679              	.LFE123:
 681              		.section	.text.CRYP_AES_CBC,"ax",%progbits
 682              		.align	1
 683              		.global	CRYP_AES_CBC
 684              		.syntax unified
 685              		.thumb
 686              		.thumb_func
 687              		.fpu fpv4-sp-d16
 689              	CRYP_AES_CBC:
 690              	.LVL94:
 691              	.LFB124:
 277:Drivers/STM32F4xx_StdPeriph_Driver/src/stm32f4xx_cryp_aes.c **** 
 278:Drivers/STM32F4xx_StdPeriph_Driver/src/stm32f4xx_cryp_aes.c **** /**
 279:Drivers/STM32F4xx_StdPeriph_Driver/src/stm32f4xx_cryp_aes.c ****   * @brief  Encrypt and decrypt using AES in CBC Mode
 280:Drivers/STM32F4xx_StdPeriph_Driver/src/stm32f4xx_cryp_aes.c ****   * @param  Mode: encryption or decryption Mode.
 281:Drivers/STM32F4xx_StdPeriph_Driver/src/stm32f4xx_cryp_aes.c ****   *          This parameter can be one of the following values:
 282:Drivers/STM32F4xx_StdPeriph_Driver/src/stm32f4xx_cryp_aes.c ****   *            @arg MODE_ENCRYPT: Encryption
 283:Drivers/STM32F4xx_StdPeriph_Driver/src/stm32f4xx_cryp_aes.c ****   *            @arg MODE_DECRYPT: Decryption
 284:Drivers/STM32F4xx_StdPeriph_Driver/src/stm32f4xx_cryp_aes.c ****   * @param  InitVectors: Initialisation Vectors used for AES algorithm.
 285:Drivers/STM32F4xx_StdPeriph_Driver/src/stm32f4xx_cryp_aes.c ****   * @param  Key: Key used for AES algorithm.
 286:Drivers/STM32F4xx_StdPeriph_Driver/src/stm32f4xx_cryp_aes.c ****   * @param  Keysize: length of the Key, must be a 128, 192 or 256.
 287:Drivers/STM32F4xx_StdPeriph_Driver/src/stm32f4xx_cryp_aes.c ****   * @param  Input: pointer to the Input buffer.
 288:Drivers/STM32F4xx_StdPeriph_Driver/src/stm32f4xx_cryp_aes.c ****   * @param  Ilength: length of the Input buffer, must be a multiple of 16.
ARM GAS  /tmp/ccjGnpiF.s 			page 29


 289:Drivers/STM32F4xx_StdPeriph_Driver/src/stm32f4xx_cryp_aes.c ****   * @param  Output: pointer to the returned buffer.
 290:Drivers/STM32F4xx_StdPeriph_Driver/src/stm32f4xx_cryp_aes.c ****   * @retval An ErrorStatus enumeration value:
 291:Drivers/STM32F4xx_StdPeriph_Driver/src/stm32f4xx_cryp_aes.c ****   *          - SUCCESS: Operation done
 292:Drivers/STM32F4xx_StdPeriph_Driver/src/stm32f4xx_cryp_aes.c ****   *          - ERROR: Operation failed
 293:Drivers/STM32F4xx_StdPeriph_Driver/src/stm32f4xx_cryp_aes.c ****   */
 294:Drivers/STM32F4xx_StdPeriph_Driver/src/stm32f4xx_cryp_aes.c **** ErrorStatus CRYP_AES_CBC(uint8_t Mode, uint8_t InitVectors[16], uint8_t *Key,
 295:Drivers/STM32F4xx_StdPeriph_Driver/src/stm32f4xx_cryp_aes.c ****                          uint16_t Keysize, uint8_t *Input, uint32_t Ilength,
 296:Drivers/STM32F4xx_StdPeriph_Driver/src/stm32f4xx_cryp_aes.c ****                          uint8_t *Output)
 297:Drivers/STM32F4xx_StdPeriph_Driver/src/stm32f4xx_cryp_aes.c **** {
 692              		.loc 1 297 1 is_stmt 1 view -0
 693              		.cfi_startproc
 694              		@ args = 12, pretend = 0, frame = 72
 695              		@ frame_needed = 0, uses_anonymous_args = 0
 696              		.loc 1 297 1 is_stmt 0 view .LVU262
 697 0000 2DE9F047 		push	{r4, r5, r6, r7, r8, r9, r10, lr}
 698              		.cfi_def_cfa_offset 32
 699              		.cfi_offset 4, -32
 700              		.cfi_offset 5, -28
 701              		.cfi_offset 6, -24
 702              		.cfi_offset 7, -20
 703              		.cfi_offset 8, -16
 704              		.cfi_offset 9, -12
 705              		.cfi_offset 10, -8
 706              		.cfi_offset 14, -4
 707 0004 92B0     		sub	sp, sp, #72
 708              		.cfi_def_cfa_offset 104
 709 0006 0646     		mov	r6, r0
 710 0008 0D46     		mov	r5, r1
 711 000a 9146     		mov	r9, r2
 712 000c 9A46     		mov	r10, r3
 713 000e DDF86C80 		ldr	r8, [sp, #108]
 298:Drivers/STM32F4xx_StdPeriph_Driver/src/stm32f4xx_cryp_aes.c ****   CRYP_InitTypeDef AES_CRYP_InitStructure;
 714              		.loc 1 298 3 is_stmt 1 view .LVU263
 299:Drivers/STM32F4xx_StdPeriph_Driver/src/stm32f4xx_cryp_aes.c ****   CRYP_KeyInitTypeDef AES_CRYP_KeyInitStructure;
 715              		.loc 1 299 3 view .LVU264
 300:Drivers/STM32F4xx_StdPeriph_Driver/src/stm32f4xx_cryp_aes.c ****   CRYP_IVInitTypeDef AES_CRYP_IVInitStructure;
 716              		.loc 1 300 3 view .LVU265
 301:Drivers/STM32F4xx_StdPeriph_Driver/src/stm32f4xx_cryp_aes.c ****   __IO uint32_t counter = 0;
 717              		.loc 1 301 3 view .LVU266
 718              		.loc 1 301 17 is_stmt 0 view .LVU267
 719 0012 0023     		movs	r3, #0
 720              	.LVL95:
 721              		.loc 1 301 17 view .LVU268
 722 0014 0193     		str	r3, [sp, #4]
 302:Drivers/STM32F4xx_StdPeriph_Driver/src/stm32f4xx_cryp_aes.c ****   uint32_t busystatus = 0;
 723              		.loc 1 302 3 is_stmt 1 view .LVU269
 724              	.LVL96:
 303:Drivers/STM32F4xx_StdPeriph_Driver/src/stm32f4xx_cryp_aes.c ****   ErrorStatus status = SUCCESS;
 725              		.loc 1 303 3 view .LVU270
 304:Drivers/STM32F4xx_StdPeriph_Driver/src/stm32f4xx_cryp_aes.c ****   uint32_t keyaddr    = (uint32_t)Key;
 726              		.loc 1 304 3 view .LVU271
 305:Drivers/STM32F4xx_StdPeriph_Driver/src/stm32f4xx_cryp_aes.c ****   uint32_t inputaddr  = (uint32_t)Input;
 727              		.loc 1 305 3 view .LVU272
 728              		.loc 1 305 12 is_stmt 0 view .LVU273
 729 0016 1A9C     		ldr	r4, [sp, #104]
 730              	.LVL97:
 306:Drivers/STM32F4xx_StdPeriph_Driver/src/stm32f4xx_cryp_aes.c ****   uint32_t outputaddr = (uint32_t)Output;
ARM GAS  /tmp/ccjGnpiF.s 			page 30


 731              		.loc 1 306 3 is_stmt 1 view .LVU274
 732              		.loc 1 306 12 is_stmt 0 view .LVU275
 733 0018 1C9F     		ldr	r7, [sp, #112]
 734              	.LVL98:
 307:Drivers/STM32F4xx_StdPeriph_Driver/src/stm32f4xx_cryp_aes.c ****   uint32_t ivaddr = (uint32_t)InitVectors;
 735              		.loc 1 307 3 is_stmt 1 view .LVU276
 308:Drivers/STM32F4xx_StdPeriph_Driver/src/stm32f4xx_cryp_aes.c ****   uint32_t i = 0;
 736              		.loc 1 308 3 view .LVU277
 309:Drivers/STM32F4xx_StdPeriph_Driver/src/stm32f4xx_cryp_aes.c **** 
 310:Drivers/STM32F4xx_StdPeriph_Driver/src/stm32f4xx_cryp_aes.c ****   /* Crypto structures initialisation*/
 311:Drivers/STM32F4xx_StdPeriph_Driver/src/stm32f4xx_cryp_aes.c ****   CRYP_KeyStructInit(&AES_CRYP_KeyInitStructure);
 737              		.loc 1 311 3 view .LVU278
 738 001a 06A8     		add	r0, sp, #24
 739              	.LVL99:
 740              		.loc 1 311 3 is_stmt 0 view .LVU279
 741 001c FFF7FEFF 		bl	CRYP_KeyStructInit
 742              	.LVL100:
 312:Drivers/STM32F4xx_StdPeriph_Driver/src/stm32f4xx_cryp_aes.c **** 
 313:Drivers/STM32F4xx_StdPeriph_Driver/src/stm32f4xx_cryp_aes.c ****   switch(Keysize)
 743              		.loc 1 313 3 is_stmt 1 view .LVU280
 744 0020 BAF1C00F 		cmp	r10, #192
 745 0024 49D0     		beq	.L21
 746 0026 BAF5807F 		cmp	r10, #256
 747 002a 62D0     		beq	.L22
 748 002c BAF1800F 		cmp	r10, #128
 749 0030 30D0     		beq	.L37
 750              	.LVL101:
 751              	.L23:
 314:Drivers/STM32F4xx_StdPeriph_Driver/src/stm32f4xx_cryp_aes.c ****   {
 315:Drivers/STM32F4xx_StdPeriph_Driver/src/stm32f4xx_cryp_aes.c ****     case 128:
 316:Drivers/STM32F4xx_StdPeriph_Driver/src/stm32f4xx_cryp_aes.c ****     AES_CRYP_InitStructure.CRYP_KeySize = CRYP_KeySize_128b;
 317:Drivers/STM32F4xx_StdPeriph_Driver/src/stm32f4xx_cryp_aes.c ****     AES_CRYP_KeyInitStructure.CRYP_Key2Left = __REV(*(uint32_t*)(keyaddr));
 318:Drivers/STM32F4xx_StdPeriph_Driver/src/stm32f4xx_cryp_aes.c ****     keyaddr+=4;
 319:Drivers/STM32F4xx_StdPeriph_Driver/src/stm32f4xx_cryp_aes.c ****     AES_CRYP_KeyInitStructure.CRYP_Key2Right= __REV(*(uint32_t*)(keyaddr));
 320:Drivers/STM32F4xx_StdPeriph_Driver/src/stm32f4xx_cryp_aes.c ****     keyaddr+=4;
 321:Drivers/STM32F4xx_StdPeriph_Driver/src/stm32f4xx_cryp_aes.c ****     AES_CRYP_KeyInitStructure.CRYP_Key3Left = __REV(*(uint32_t*)(keyaddr));
 322:Drivers/STM32F4xx_StdPeriph_Driver/src/stm32f4xx_cryp_aes.c ****     keyaddr+=4;
 323:Drivers/STM32F4xx_StdPeriph_Driver/src/stm32f4xx_cryp_aes.c ****     AES_CRYP_KeyInitStructure.CRYP_Key3Right= __REV(*(uint32_t*)(keyaddr));
 324:Drivers/STM32F4xx_StdPeriph_Driver/src/stm32f4xx_cryp_aes.c ****     break;
 325:Drivers/STM32F4xx_StdPeriph_Driver/src/stm32f4xx_cryp_aes.c ****     case 192:
 326:Drivers/STM32F4xx_StdPeriph_Driver/src/stm32f4xx_cryp_aes.c ****     AES_CRYP_InitStructure.CRYP_KeySize  = CRYP_KeySize_192b;
 327:Drivers/STM32F4xx_StdPeriph_Driver/src/stm32f4xx_cryp_aes.c ****     AES_CRYP_KeyInitStructure.CRYP_Key1Left = __REV(*(uint32_t*)(keyaddr));
 328:Drivers/STM32F4xx_StdPeriph_Driver/src/stm32f4xx_cryp_aes.c ****     keyaddr+=4;
 329:Drivers/STM32F4xx_StdPeriph_Driver/src/stm32f4xx_cryp_aes.c ****     AES_CRYP_KeyInitStructure.CRYP_Key1Right= __REV(*(uint32_t*)(keyaddr));
 330:Drivers/STM32F4xx_StdPeriph_Driver/src/stm32f4xx_cryp_aes.c ****     keyaddr+=4;
 331:Drivers/STM32F4xx_StdPeriph_Driver/src/stm32f4xx_cryp_aes.c ****     AES_CRYP_KeyInitStructure.CRYP_Key2Left = __REV(*(uint32_t*)(keyaddr));
 332:Drivers/STM32F4xx_StdPeriph_Driver/src/stm32f4xx_cryp_aes.c ****     keyaddr+=4;
 333:Drivers/STM32F4xx_StdPeriph_Driver/src/stm32f4xx_cryp_aes.c ****     AES_CRYP_KeyInitStructure.CRYP_Key2Right= __REV(*(uint32_t*)(keyaddr));
 334:Drivers/STM32F4xx_StdPeriph_Driver/src/stm32f4xx_cryp_aes.c ****     keyaddr+=4;
 335:Drivers/STM32F4xx_StdPeriph_Driver/src/stm32f4xx_cryp_aes.c ****     AES_CRYP_KeyInitStructure.CRYP_Key3Left = __REV(*(uint32_t*)(keyaddr));
 336:Drivers/STM32F4xx_StdPeriph_Driver/src/stm32f4xx_cryp_aes.c ****     keyaddr+=4;
 337:Drivers/STM32F4xx_StdPeriph_Driver/src/stm32f4xx_cryp_aes.c ****     AES_CRYP_KeyInitStructure.CRYP_Key3Right= __REV(*(uint32_t*)(keyaddr));
 338:Drivers/STM32F4xx_StdPeriph_Driver/src/stm32f4xx_cryp_aes.c ****     break;
 339:Drivers/STM32F4xx_StdPeriph_Driver/src/stm32f4xx_cryp_aes.c ****     case 256:
 340:Drivers/STM32F4xx_StdPeriph_Driver/src/stm32f4xx_cryp_aes.c ****     AES_CRYP_InitStructure.CRYP_KeySize  = CRYP_KeySize_256b;
 341:Drivers/STM32F4xx_StdPeriph_Driver/src/stm32f4xx_cryp_aes.c ****     AES_CRYP_KeyInitStructure.CRYP_Key0Left = __REV(*(uint32_t*)(keyaddr));
 342:Drivers/STM32F4xx_StdPeriph_Driver/src/stm32f4xx_cryp_aes.c ****     keyaddr+=4;
ARM GAS  /tmp/ccjGnpiF.s 			page 31


 343:Drivers/STM32F4xx_StdPeriph_Driver/src/stm32f4xx_cryp_aes.c ****     AES_CRYP_KeyInitStructure.CRYP_Key0Right= __REV(*(uint32_t*)(keyaddr));
 344:Drivers/STM32F4xx_StdPeriph_Driver/src/stm32f4xx_cryp_aes.c ****     keyaddr+=4;
 345:Drivers/STM32F4xx_StdPeriph_Driver/src/stm32f4xx_cryp_aes.c ****     AES_CRYP_KeyInitStructure.CRYP_Key1Left = __REV(*(uint32_t*)(keyaddr));
 346:Drivers/STM32F4xx_StdPeriph_Driver/src/stm32f4xx_cryp_aes.c ****     keyaddr+=4;
 347:Drivers/STM32F4xx_StdPeriph_Driver/src/stm32f4xx_cryp_aes.c ****     AES_CRYP_KeyInitStructure.CRYP_Key1Right= __REV(*(uint32_t*)(keyaddr));
 348:Drivers/STM32F4xx_StdPeriph_Driver/src/stm32f4xx_cryp_aes.c ****     keyaddr+=4;
 349:Drivers/STM32F4xx_StdPeriph_Driver/src/stm32f4xx_cryp_aes.c ****     AES_CRYP_KeyInitStructure.CRYP_Key2Left = __REV(*(uint32_t*)(keyaddr));
 350:Drivers/STM32F4xx_StdPeriph_Driver/src/stm32f4xx_cryp_aes.c ****     keyaddr+=4;
 351:Drivers/STM32F4xx_StdPeriph_Driver/src/stm32f4xx_cryp_aes.c ****     AES_CRYP_KeyInitStructure.CRYP_Key2Right= __REV(*(uint32_t*)(keyaddr));
 352:Drivers/STM32F4xx_StdPeriph_Driver/src/stm32f4xx_cryp_aes.c ****     keyaddr+=4;
 353:Drivers/STM32F4xx_StdPeriph_Driver/src/stm32f4xx_cryp_aes.c ****     AES_CRYP_KeyInitStructure.CRYP_Key3Left = __REV(*(uint32_t*)(keyaddr));
 354:Drivers/STM32F4xx_StdPeriph_Driver/src/stm32f4xx_cryp_aes.c ****     keyaddr+=4;
 355:Drivers/STM32F4xx_StdPeriph_Driver/src/stm32f4xx_cryp_aes.c ****     AES_CRYP_KeyInitStructure.CRYP_Key3Right= __REV(*(uint32_t*)(keyaddr));
 356:Drivers/STM32F4xx_StdPeriph_Driver/src/stm32f4xx_cryp_aes.c ****     break;
 357:Drivers/STM32F4xx_StdPeriph_Driver/src/stm32f4xx_cryp_aes.c ****     default:
 358:Drivers/STM32F4xx_StdPeriph_Driver/src/stm32f4xx_cryp_aes.c ****     break;
 359:Drivers/STM32F4xx_StdPeriph_Driver/src/stm32f4xx_cryp_aes.c ****   }
 360:Drivers/STM32F4xx_StdPeriph_Driver/src/stm32f4xx_cryp_aes.c **** 
 361:Drivers/STM32F4xx_StdPeriph_Driver/src/stm32f4xx_cryp_aes.c ****   /* CRYP Initialization Vectors */
 362:Drivers/STM32F4xx_StdPeriph_Driver/src/stm32f4xx_cryp_aes.c ****   AES_CRYP_IVInitStructure.CRYP_IV0Left = __REV(*(uint32_t*)(ivaddr));
 752              		.loc 1 362 3 view .LVU281
 753              		.loc 1 362 43 is_stmt 0 view .LVU282
 754 0032 2B68     		ldr	r3, [r5]
 755              	.LVL102:
 756              	.LBB266:
 757              	.LBI266:
 495:Drivers/CMSIS/Include/core_cmInstr.h **** {
 758              		.loc 2 495 57 is_stmt 1 view .LVU283
 759              	.LBB267:
 760              		.loc 2 498 3 view .LVU284
 761              		.loc 2 498 10 is_stmt 0 view .LVU285
 762 0034 1BBA     		rev	r3, r3
 763              	.LVL103:
 764              		.loc 2 498 10 view .LVU286
 765              	.LBE267:
 766              	.LBE266:
 767              		.loc 1 362 41 view .LVU287
 768 0036 0293     		str	r3, [sp, #8]
 363:Drivers/STM32F4xx_StdPeriph_Driver/src/stm32f4xx_cryp_aes.c ****   ivaddr+=4;
 769              		.loc 1 363 3 is_stmt 1 view .LVU288
 770              	.LVL104:
 364:Drivers/STM32F4xx_StdPeriph_Driver/src/stm32f4xx_cryp_aes.c ****   AES_CRYP_IVInitStructure.CRYP_IV0Right= __REV(*(uint32_t*)(ivaddr));
 771              		.loc 1 364 3 view .LVU289
 772              		.loc 1 364 43 is_stmt 0 view .LVU290
 773 0038 6B68     		ldr	r3, [r5, #4]
 774              	.LVL105:
 775              	.LBB268:
 776              	.LBI268:
 495:Drivers/CMSIS/Include/core_cmInstr.h **** {
 777              		.loc 2 495 57 is_stmt 1 view .LVU291
 778              	.LBB269:
 779              		.loc 2 498 3 view .LVU292
 780              		.loc 2 498 10 is_stmt 0 view .LVU293
 781 003a 1BBA     		rev	r3, r3
 782              	.LVL106:
 783              		.loc 2 498 10 view .LVU294
 784              	.LBE269:
ARM GAS  /tmp/ccjGnpiF.s 			page 32


 785              	.LBE268:
 786              		.loc 1 364 41 view .LVU295
 787 003c 0393     		str	r3, [sp, #12]
 365:Drivers/STM32F4xx_StdPeriph_Driver/src/stm32f4xx_cryp_aes.c ****   ivaddr+=4;
 788              		.loc 1 365 3 is_stmt 1 view .LVU296
 789              	.LVL107:
 366:Drivers/STM32F4xx_StdPeriph_Driver/src/stm32f4xx_cryp_aes.c ****   AES_CRYP_IVInitStructure.CRYP_IV1Left = __REV(*(uint32_t*)(ivaddr));
 790              		.loc 1 366 3 view .LVU297
 791              		.loc 1 366 43 is_stmt 0 view .LVU298
 792 003e AB68     		ldr	r3, [r5, #8]
 793              	.LVL108:
 794              	.LBB270:
 795              	.LBI270:
 495:Drivers/CMSIS/Include/core_cmInstr.h **** {
 796              		.loc 2 495 57 is_stmt 1 view .LVU299
 797              	.LBB271:
 798              		.loc 2 498 3 view .LVU300
 799              		.loc 2 498 10 is_stmt 0 view .LVU301
 800 0040 1BBA     		rev	r3, r3
 801              	.LVL109:
 802              		.loc 2 498 10 view .LVU302
 803              	.LBE271:
 804              	.LBE270:
 805              		.loc 1 366 41 view .LVU303
 806 0042 0493     		str	r3, [sp, #16]
 367:Drivers/STM32F4xx_StdPeriph_Driver/src/stm32f4xx_cryp_aes.c ****   ivaddr+=4;
 807              		.loc 1 367 3 is_stmt 1 view .LVU304
 808              	.LVL110:
 368:Drivers/STM32F4xx_StdPeriph_Driver/src/stm32f4xx_cryp_aes.c ****   AES_CRYP_IVInitStructure.CRYP_IV1Right= __REV(*(uint32_t*)(ivaddr));
 809              		.loc 1 368 3 view .LVU305
 810              		.loc 1 368 43 is_stmt 0 view .LVU306
 811 0044 EB68     		ldr	r3, [r5, #12]
 812              	.LVL111:
 813              	.LBB272:
 814              	.LBI272:
 495:Drivers/CMSIS/Include/core_cmInstr.h **** {
 815              		.loc 2 495 57 is_stmt 1 view .LVU307
 816              	.LBB273:
 817              		.loc 2 498 3 view .LVU308
 818              		.loc 2 498 10 is_stmt 0 view .LVU309
 819 0046 1BBA     		rev	r3, r3
 820              	.LVL112:
 821              		.loc 2 498 10 view .LVU310
 822              	.LBE273:
 823              	.LBE272:
 824              		.loc 1 368 41 view .LVU311
 825 0048 0593     		str	r3, [sp, #20]
 369:Drivers/STM32F4xx_StdPeriph_Driver/src/stm32f4xx_cryp_aes.c **** 
 370:Drivers/STM32F4xx_StdPeriph_Driver/src/stm32f4xx_cryp_aes.c **** 
 371:Drivers/STM32F4xx_StdPeriph_Driver/src/stm32f4xx_cryp_aes.c ****   /*------------------ AES Decryption ------------------*/
 372:Drivers/STM32F4xx_StdPeriph_Driver/src/stm32f4xx_cryp_aes.c ****   if(Mode == MODE_DECRYPT) /* AES decryption */
 826              		.loc 1 372 3 is_stmt 1 view .LVU312
 827              		.loc 1 372 5 is_stmt 0 view .LVU313
 828 004a 002E     		cmp	r6, #0
 829 004c 75D1     		bne	.L24
 373:Drivers/STM32F4xx_StdPeriph_Driver/src/stm32f4xx_cryp_aes.c ****   {
 374:Drivers/STM32F4xx_StdPeriph_Driver/src/stm32f4xx_cryp_aes.c ****     /* Flush IN/OUT FIFOs */
ARM GAS  /tmp/ccjGnpiF.s 			page 33


 375:Drivers/STM32F4xx_StdPeriph_Driver/src/stm32f4xx_cryp_aes.c ****     CRYP_FIFOFlush();
 830              		.loc 1 375 5 is_stmt 1 view .LVU314
 831 004e FFF7FEFF 		bl	CRYP_FIFOFlush
 832              	.LVL113:
 376:Drivers/STM32F4xx_StdPeriph_Driver/src/stm32f4xx_cryp_aes.c **** 
 377:Drivers/STM32F4xx_StdPeriph_Driver/src/stm32f4xx_cryp_aes.c ****     /* Crypto Init for Key preparation for decryption process */
 378:Drivers/STM32F4xx_StdPeriph_Driver/src/stm32f4xx_cryp_aes.c ****     AES_CRYP_InitStructure.CRYP_AlgoDir = CRYP_AlgoDir_Decrypt;
 833              		.loc 1 378 5 view .LVU315
 834              		.loc 1 378 41 is_stmt 0 view .LVU316
 835 0052 0423     		movs	r3, #4
 836 0054 0E93     		str	r3, [sp, #56]
 379:Drivers/STM32F4xx_StdPeriph_Driver/src/stm32f4xx_cryp_aes.c ****     AES_CRYP_InitStructure.CRYP_AlgoMode = CRYP_AlgoMode_AES_Key;
 837              		.loc 1 379 5 is_stmt 1 view .LVU317
 838              		.loc 1 379 42 is_stmt 0 view .LVU318
 839 0056 3823     		movs	r3, #56
 840 0058 0F93     		str	r3, [sp, #60]
 380:Drivers/STM32F4xx_StdPeriph_Driver/src/stm32f4xx_cryp_aes.c ****     AES_CRYP_InitStructure.CRYP_DataType = CRYP_DataType_32b;
 841              		.loc 1 380 5 is_stmt 1 view .LVU319
 842              		.loc 1 380 42 is_stmt 0 view .LVU320
 843 005a 0023     		movs	r3, #0
 844 005c 1093     		str	r3, [sp, #64]
 381:Drivers/STM32F4xx_StdPeriph_Driver/src/stm32f4xx_cryp_aes.c **** 
 382:Drivers/STM32F4xx_StdPeriph_Driver/src/stm32f4xx_cryp_aes.c ****     CRYP_Init(&AES_CRYP_InitStructure);
 845              		.loc 1 382 5 is_stmt 1 view .LVU321
 846 005e 0EA8     		add	r0, sp, #56
 847 0060 FFF7FEFF 		bl	CRYP_Init
 848              	.LVL114:
 383:Drivers/STM32F4xx_StdPeriph_Driver/src/stm32f4xx_cryp_aes.c **** 
 384:Drivers/STM32F4xx_StdPeriph_Driver/src/stm32f4xx_cryp_aes.c ****     /* Key Initialisation */
 385:Drivers/STM32F4xx_StdPeriph_Driver/src/stm32f4xx_cryp_aes.c ****     CRYP_KeyInit(&AES_CRYP_KeyInitStructure);
 849              		.loc 1 385 5 view .LVU322
 850 0064 06A8     		add	r0, sp, #24
 851 0066 FFF7FEFF 		bl	CRYP_KeyInit
 852              	.LVL115:
 386:Drivers/STM32F4xx_StdPeriph_Driver/src/stm32f4xx_cryp_aes.c **** 
 387:Drivers/STM32F4xx_StdPeriph_Driver/src/stm32f4xx_cryp_aes.c ****     /* Enable Crypto processor */
 388:Drivers/STM32F4xx_StdPeriph_Driver/src/stm32f4xx_cryp_aes.c ****     CRYP_Cmd(ENABLE);
 853              		.loc 1 388 5 view .LVU323
 854 006a 0120     		movs	r0, #1
 855 006c FFF7FEFF 		bl	CRYP_Cmd
 856              	.LVL116:
 857              	.L26:
 389:Drivers/STM32F4xx_StdPeriph_Driver/src/stm32f4xx_cryp_aes.c **** 
 390:Drivers/STM32F4xx_StdPeriph_Driver/src/stm32f4xx_cryp_aes.c ****     /* wait until the Busy flag is RESET */
 391:Drivers/STM32F4xx_StdPeriph_Driver/src/stm32f4xx_cryp_aes.c ****     do
 858              		.loc 1 391 5 discriminator 2 view .LVU324
 392:Drivers/STM32F4xx_StdPeriph_Driver/src/stm32f4xx_cryp_aes.c ****     {
 393:Drivers/STM32F4xx_StdPeriph_Driver/src/stm32f4xx_cryp_aes.c ****       busystatus = CRYP_GetFlagStatus(CRYP_FLAG_BUSY);
 859              		.loc 1 393 7 discriminator 2 view .LVU325
 860              		.loc 1 393 20 is_stmt 0 discriminator 2 view .LVU326
 861 0070 1020     		movs	r0, #16
 862 0072 FFF7FEFF 		bl	CRYP_GetFlagStatus
 863              	.LVL117:
 394:Drivers/STM32F4xx_StdPeriph_Driver/src/stm32f4xx_cryp_aes.c ****       counter++;
 864              		.loc 1 394 7 is_stmt 1 discriminator 2 view .LVU327
 865              		.loc 1 394 14 is_stmt 0 discriminator 2 view .LVU328
 866 0076 019B     		ldr	r3, [sp, #4]
ARM GAS  /tmp/ccjGnpiF.s 			page 34


 867 0078 0133     		adds	r3, r3, #1
 868 007a 0193     		str	r3, [sp, #4]
 395:Drivers/STM32F4xx_StdPeriph_Driver/src/stm32f4xx_cryp_aes.c ****     }while ((counter != AESBUSY_TIMEOUT) && (busystatus != RESET));
 869              		.loc 1 395 12 is_stmt 1 discriminator 2 view .LVU329
 870              		.loc 1 395 22 is_stmt 0 discriminator 2 view .LVU330
 871 007c 019B     		ldr	r3, [sp, #4]
 872              		.loc 1 395 5 discriminator 2 view .LVU331
 873 007e B3F5803F 		cmp	r3, #65536
 874 0082 01D0     		beq	.L25
 875              		.loc 1 395 42 discriminator 1 view .LVU332
 876 0084 0028     		cmp	r0, #0
 877 0086 F3D1     		bne	.L26
 878              	.L25:
 396:Drivers/STM32F4xx_StdPeriph_Driver/src/stm32f4xx_cryp_aes.c **** 
 397:Drivers/STM32F4xx_StdPeriph_Driver/src/stm32f4xx_cryp_aes.c ****     if (busystatus != RESET)
 879              		.loc 1 397 5 is_stmt 1 view .LVU333
 880              		.loc 1 397 8 is_stmt 0 view .LVU334
 881 0088 0028     		cmp	r0, #0
 882 008a 5CD1     		bne	.L27
 398:Drivers/STM32F4xx_StdPeriph_Driver/src/stm32f4xx_cryp_aes.c ****    {
 399:Drivers/STM32F4xx_StdPeriph_Driver/src/stm32f4xx_cryp_aes.c ****        status = ERROR;
 400:Drivers/STM32F4xx_StdPeriph_Driver/src/stm32f4xx_cryp_aes.c ****     }
 401:Drivers/STM32F4xx_StdPeriph_Driver/src/stm32f4xx_cryp_aes.c ****     else
 402:Drivers/STM32F4xx_StdPeriph_Driver/src/stm32f4xx_cryp_aes.c ****     {
 403:Drivers/STM32F4xx_StdPeriph_Driver/src/stm32f4xx_cryp_aes.c ****       /* Crypto Init for decryption process */  
 404:Drivers/STM32F4xx_StdPeriph_Driver/src/stm32f4xx_cryp_aes.c ****       AES_CRYP_InitStructure.CRYP_AlgoDir = CRYP_AlgoDir_Decrypt;
 883              		.loc 1 404 7 is_stmt 1 view .LVU335
 884              		.loc 1 404 43 is_stmt 0 view .LVU336
 885 008c 0423     		movs	r3, #4
 886 008e 0E93     		str	r3, [sp, #56]
 303:Drivers/STM32F4xx_StdPeriph_Driver/src/stm32f4xx_cryp_aes.c ****   uint32_t keyaddr    = (uint32_t)Key;
 887              		.loc 1 303 15 view .LVU337
 888 0090 0126     		movs	r6, #1
 889 0092 58E0     		b	.L27
 890              	.LVL118:
 891              	.L37:
 316:Drivers/STM32F4xx_StdPeriph_Driver/src/stm32f4xx_cryp_aes.c ****     AES_CRYP_KeyInitStructure.CRYP_Key2Left = __REV(*(uint32_t*)(keyaddr));
 892              		.loc 1 316 5 is_stmt 1 view .LVU338
 316:Drivers/STM32F4xx_StdPeriph_Driver/src/stm32f4xx_cryp_aes.c ****     AES_CRYP_KeyInitStructure.CRYP_Key2Left = __REV(*(uint32_t*)(keyaddr));
 893              		.loc 1 316 41 is_stmt 0 view .LVU339
 894 0094 0023     		movs	r3, #0
 895 0096 1193     		str	r3, [sp, #68]
 317:Drivers/STM32F4xx_StdPeriph_Driver/src/stm32f4xx_cryp_aes.c ****     keyaddr+=4;
 896              		.loc 1 317 5 is_stmt 1 view .LVU340
 317:Drivers/STM32F4xx_StdPeriph_Driver/src/stm32f4xx_cryp_aes.c ****     keyaddr+=4;
 897              		.loc 1 317 47 is_stmt 0 view .LVU341
 898 0098 D9F80030 		ldr	r3, [r9]
 899              	.LVL119:
 900              	.LBB274:
 901              	.LBI274:
 495:Drivers/CMSIS/Include/core_cmInstr.h **** {
 902              		.loc 2 495 57 is_stmt 1 view .LVU342
 903              	.LBB275:
 904              		.loc 2 498 3 view .LVU343
 905              		.loc 2 498 10 is_stmt 0 view .LVU344
 906 009c 1BBA     		rev	r3, r3
 907              	.LVL120:
ARM GAS  /tmp/ccjGnpiF.s 			page 35


 908              		.loc 2 498 10 view .LVU345
 909              	.LBE275:
 910              	.LBE274:
 317:Drivers/STM32F4xx_StdPeriph_Driver/src/stm32f4xx_cryp_aes.c ****     keyaddr+=4;
 911              		.loc 1 317 45 view .LVU346
 912 009e 0A93     		str	r3, [sp, #40]
 318:Drivers/STM32F4xx_StdPeriph_Driver/src/stm32f4xx_cryp_aes.c ****     AES_CRYP_KeyInitStructure.CRYP_Key2Right= __REV(*(uint32_t*)(keyaddr));
 913              		.loc 1 318 5 is_stmt 1 view .LVU347
 914              	.LVL121:
 319:Drivers/STM32F4xx_StdPeriph_Driver/src/stm32f4xx_cryp_aes.c ****     keyaddr+=4;
 915              		.loc 1 319 5 view .LVU348
 319:Drivers/STM32F4xx_StdPeriph_Driver/src/stm32f4xx_cryp_aes.c ****     keyaddr+=4;
 916              		.loc 1 319 47 is_stmt 0 view .LVU349
 917 00a0 D9F80430 		ldr	r3, [r9, #4]
 918              	.LVL122:
 919              	.LBB276:
 920              	.LBI276:
 495:Drivers/CMSIS/Include/core_cmInstr.h **** {
 921              		.loc 2 495 57 is_stmt 1 view .LVU350
 922              	.LBB277:
 923              		.loc 2 498 3 view .LVU351
 924              		.loc 2 498 10 is_stmt 0 view .LVU352
 925 00a4 1BBA     		rev	r3, r3
 926              	.LVL123:
 927              		.loc 2 498 10 view .LVU353
 928              	.LBE277:
 929              	.LBE276:
 319:Drivers/STM32F4xx_StdPeriph_Driver/src/stm32f4xx_cryp_aes.c ****     keyaddr+=4;
 930              		.loc 1 319 45 view .LVU354
 931 00a6 0B93     		str	r3, [sp, #44]
 320:Drivers/STM32F4xx_StdPeriph_Driver/src/stm32f4xx_cryp_aes.c ****     AES_CRYP_KeyInitStructure.CRYP_Key3Left = __REV(*(uint32_t*)(keyaddr));
 932              		.loc 1 320 5 is_stmt 1 view .LVU355
 933              	.LVL124:
 321:Drivers/STM32F4xx_StdPeriph_Driver/src/stm32f4xx_cryp_aes.c ****     keyaddr+=4;
 934              		.loc 1 321 5 view .LVU356
 321:Drivers/STM32F4xx_StdPeriph_Driver/src/stm32f4xx_cryp_aes.c ****     keyaddr+=4;
 935              		.loc 1 321 47 is_stmt 0 view .LVU357
 936 00a8 D9F80830 		ldr	r3, [r9, #8]
 937              	.LVL125:
 938              	.LBB278:
 939              	.LBI278:
 495:Drivers/CMSIS/Include/core_cmInstr.h **** {
 940              		.loc 2 495 57 is_stmt 1 view .LVU358
 941              	.LBB279:
 942              		.loc 2 498 3 view .LVU359
 943              		.loc 2 498 10 is_stmt 0 view .LVU360
 944 00ac 1BBA     		rev	r3, r3
 945              	.LVL126:
 946              		.loc 2 498 10 view .LVU361
 947              	.LBE279:
 948              	.LBE278:
 321:Drivers/STM32F4xx_StdPeriph_Driver/src/stm32f4xx_cryp_aes.c ****     keyaddr+=4;
 949              		.loc 1 321 45 view .LVU362
 950 00ae 0C93     		str	r3, [sp, #48]
 322:Drivers/STM32F4xx_StdPeriph_Driver/src/stm32f4xx_cryp_aes.c ****     AES_CRYP_KeyInitStructure.CRYP_Key3Right= __REV(*(uint32_t*)(keyaddr));
 951              		.loc 1 322 5 is_stmt 1 view .LVU363
 952              	.LVL127:
ARM GAS  /tmp/ccjGnpiF.s 			page 36


 323:Drivers/STM32F4xx_StdPeriph_Driver/src/stm32f4xx_cryp_aes.c ****     break;
 953              		.loc 1 323 5 view .LVU364
 323:Drivers/STM32F4xx_StdPeriph_Driver/src/stm32f4xx_cryp_aes.c ****     break;
 954              		.loc 1 323 47 is_stmt 0 view .LVU365
 955 00b0 D9F80C30 		ldr	r3, [r9, #12]
 956              	.LVL128:
 957              	.LBB280:
 958              	.LBI280:
 495:Drivers/CMSIS/Include/core_cmInstr.h **** {
 959              		.loc 2 495 57 is_stmt 1 view .LVU366
 960              	.LBB281:
 961              		.loc 2 498 3 view .LVU367
 962              		.loc 2 498 10 is_stmt 0 view .LVU368
 963 00b4 1BBA     		rev	r3, r3
 964              	.LVL129:
 965              		.loc 2 498 10 view .LVU369
 966              	.LBE281:
 967              	.LBE280:
 323:Drivers/STM32F4xx_StdPeriph_Driver/src/stm32f4xx_cryp_aes.c ****     break;
 968              		.loc 1 323 45 view .LVU370
 969 00b6 0D93     		str	r3, [sp, #52]
 324:Drivers/STM32F4xx_StdPeriph_Driver/src/stm32f4xx_cryp_aes.c ****     case 192:
 970              		.loc 1 324 5 is_stmt 1 view .LVU371
 971 00b8 BBE7     		b	.L23
 972              	.LVL130:
 973              	.L21:
 326:Drivers/STM32F4xx_StdPeriph_Driver/src/stm32f4xx_cryp_aes.c ****     AES_CRYP_KeyInitStructure.CRYP_Key1Left = __REV(*(uint32_t*)(keyaddr));
 974              		.loc 1 326 5 view .LVU372
 326:Drivers/STM32F4xx_StdPeriph_Driver/src/stm32f4xx_cryp_aes.c ****     AES_CRYP_KeyInitStructure.CRYP_Key1Left = __REV(*(uint32_t*)(keyaddr));
 975              		.loc 1 326 42 is_stmt 0 view .LVU373
 976 00ba 4FF48073 		mov	r3, #256
 977 00be 1193     		str	r3, [sp, #68]
 327:Drivers/STM32F4xx_StdPeriph_Driver/src/stm32f4xx_cryp_aes.c ****     keyaddr+=4;
 978              		.loc 1 327 5 is_stmt 1 view .LVU374
 327:Drivers/STM32F4xx_StdPeriph_Driver/src/stm32f4xx_cryp_aes.c ****     keyaddr+=4;
 979              		.loc 1 327 47 is_stmt 0 view .LVU375
 980 00c0 D9F80030 		ldr	r3, [r9]
 981              	.LVL131:
 982              	.LBB282:
 983              	.LBI282:
 495:Drivers/CMSIS/Include/core_cmInstr.h **** {
 984              		.loc 2 495 57 is_stmt 1 view .LVU376
 985              	.LBB283:
 986              		.loc 2 498 3 view .LVU377
 987              		.loc 2 498 10 is_stmt 0 view .LVU378
 988 00c4 1BBA     		rev	r3, r3
 989              	.LVL132:
 990              		.loc 2 498 10 view .LVU379
 991              	.LBE283:
 992              	.LBE282:
 327:Drivers/STM32F4xx_StdPeriph_Driver/src/stm32f4xx_cryp_aes.c ****     keyaddr+=4;
 993              		.loc 1 327 45 view .LVU380
 994 00c6 0893     		str	r3, [sp, #32]
 328:Drivers/STM32F4xx_StdPeriph_Driver/src/stm32f4xx_cryp_aes.c ****     AES_CRYP_KeyInitStructure.CRYP_Key1Right= __REV(*(uint32_t*)(keyaddr));
 995              		.loc 1 328 5 is_stmt 1 view .LVU381
 996              	.LVL133:
 329:Drivers/STM32F4xx_StdPeriph_Driver/src/stm32f4xx_cryp_aes.c ****     keyaddr+=4;
ARM GAS  /tmp/ccjGnpiF.s 			page 37


 997              		.loc 1 329 5 view .LVU382
 329:Drivers/STM32F4xx_StdPeriph_Driver/src/stm32f4xx_cryp_aes.c ****     keyaddr+=4;
 998              		.loc 1 329 47 is_stmt 0 view .LVU383
 999 00c8 D9F80430 		ldr	r3, [r9, #4]
 1000              	.LVL134:
 1001              	.LBB284:
 1002              	.LBI284:
 495:Drivers/CMSIS/Include/core_cmInstr.h **** {
 1003              		.loc 2 495 57 is_stmt 1 view .LVU384
 1004              	.LBB285:
 1005              		.loc 2 498 3 view .LVU385
 1006              		.loc 2 498 10 is_stmt 0 view .LVU386
 1007 00cc 1BBA     		rev	r3, r3
 1008              	.LVL135:
 1009              		.loc 2 498 10 view .LVU387
 1010              	.LBE285:
 1011              	.LBE284:
 329:Drivers/STM32F4xx_StdPeriph_Driver/src/stm32f4xx_cryp_aes.c ****     keyaddr+=4;
 1012              		.loc 1 329 45 view .LVU388
 1013 00ce 0993     		str	r3, [sp, #36]
 330:Drivers/STM32F4xx_StdPeriph_Driver/src/stm32f4xx_cryp_aes.c ****     AES_CRYP_KeyInitStructure.CRYP_Key2Left = __REV(*(uint32_t*)(keyaddr));
 1014              		.loc 1 330 5 is_stmt 1 view .LVU389
 1015              	.LVL136:
 331:Drivers/STM32F4xx_StdPeriph_Driver/src/stm32f4xx_cryp_aes.c ****     keyaddr+=4;
 1016              		.loc 1 331 5 view .LVU390
 331:Drivers/STM32F4xx_StdPeriph_Driver/src/stm32f4xx_cryp_aes.c ****     keyaddr+=4;
 1017              		.loc 1 331 47 is_stmt 0 view .LVU391
 1018 00d0 D9F80830 		ldr	r3, [r9, #8]
 1019              	.LVL137:
 1020              	.LBB286:
 1021              	.LBI286:
 495:Drivers/CMSIS/Include/core_cmInstr.h **** {
 1022              		.loc 2 495 57 is_stmt 1 view .LVU392
 1023              	.LBB287:
 1024              		.loc 2 498 3 view .LVU393
 1025              		.loc 2 498 10 is_stmt 0 view .LVU394
 1026 00d4 1BBA     		rev	r3, r3
 1027              	.LVL138:
 1028              		.loc 2 498 10 view .LVU395
 1029              	.LBE287:
 1030              	.LBE286:
 331:Drivers/STM32F4xx_StdPeriph_Driver/src/stm32f4xx_cryp_aes.c ****     keyaddr+=4;
 1031              		.loc 1 331 45 view .LVU396
 1032 00d6 0A93     		str	r3, [sp, #40]
 332:Drivers/STM32F4xx_StdPeriph_Driver/src/stm32f4xx_cryp_aes.c ****     AES_CRYP_KeyInitStructure.CRYP_Key2Right= __REV(*(uint32_t*)(keyaddr));
 1033              		.loc 1 332 5 is_stmt 1 view .LVU397
 1034              	.LVL139:
 333:Drivers/STM32F4xx_StdPeriph_Driver/src/stm32f4xx_cryp_aes.c ****     keyaddr+=4;
 1035              		.loc 1 333 5 view .LVU398
 333:Drivers/STM32F4xx_StdPeriph_Driver/src/stm32f4xx_cryp_aes.c ****     keyaddr+=4;
 1036              		.loc 1 333 47 is_stmt 0 view .LVU399
 1037 00d8 D9F80C30 		ldr	r3, [r9, #12]
 1038              	.LVL140:
 1039              	.LBB288:
 1040              	.LBI288:
 495:Drivers/CMSIS/Include/core_cmInstr.h **** {
 1041              		.loc 2 495 57 is_stmt 1 view .LVU400
ARM GAS  /tmp/ccjGnpiF.s 			page 38


 1042              	.LBB289:
 1043              		.loc 2 498 3 view .LVU401
 1044              		.loc 2 498 10 is_stmt 0 view .LVU402
 1045 00dc 1BBA     		rev	r3, r3
 1046              	.LVL141:
 1047              		.loc 2 498 10 view .LVU403
 1048              	.LBE289:
 1049              	.LBE288:
 333:Drivers/STM32F4xx_StdPeriph_Driver/src/stm32f4xx_cryp_aes.c ****     keyaddr+=4;
 1050              		.loc 1 333 45 view .LVU404
 1051 00de 0B93     		str	r3, [sp, #44]
 334:Drivers/STM32F4xx_StdPeriph_Driver/src/stm32f4xx_cryp_aes.c ****     AES_CRYP_KeyInitStructure.CRYP_Key3Left = __REV(*(uint32_t*)(keyaddr));
 1052              		.loc 1 334 5 is_stmt 1 view .LVU405
 1053              	.LVL142:
 335:Drivers/STM32F4xx_StdPeriph_Driver/src/stm32f4xx_cryp_aes.c ****     keyaddr+=4;
 1054              		.loc 1 335 5 view .LVU406
 335:Drivers/STM32F4xx_StdPeriph_Driver/src/stm32f4xx_cryp_aes.c ****     keyaddr+=4;
 1055              		.loc 1 335 47 is_stmt 0 view .LVU407
 1056 00e0 D9F81030 		ldr	r3, [r9, #16]
 1057              	.LVL143:
 1058              	.LBB290:
 1059              	.LBI290:
 495:Drivers/CMSIS/Include/core_cmInstr.h **** {
 1060              		.loc 2 495 57 is_stmt 1 view .LVU408
 1061              	.LBB291:
 1062              		.loc 2 498 3 view .LVU409
 1063              		.loc 2 498 10 is_stmt 0 view .LVU410
 1064 00e4 1BBA     		rev	r3, r3
 1065              	.LVL144:
 1066              		.loc 2 498 10 view .LVU411
 1067              	.LBE291:
 1068              	.LBE290:
 335:Drivers/STM32F4xx_StdPeriph_Driver/src/stm32f4xx_cryp_aes.c ****     keyaddr+=4;
 1069              		.loc 1 335 45 view .LVU412
 1070 00e6 0C93     		str	r3, [sp, #48]
 336:Drivers/STM32F4xx_StdPeriph_Driver/src/stm32f4xx_cryp_aes.c ****     AES_CRYP_KeyInitStructure.CRYP_Key3Right= __REV(*(uint32_t*)(keyaddr));
 1071              		.loc 1 336 5 is_stmt 1 view .LVU413
 1072              	.LVL145:
 337:Drivers/STM32F4xx_StdPeriph_Driver/src/stm32f4xx_cryp_aes.c ****     break;
 1073              		.loc 1 337 5 view .LVU414
 337:Drivers/STM32F4xx_StdPeriph_Driver/src/stm32f4xx_cryp_aes.c ****     break;
 1074              		.loc 1 337 47 is_stmt 0 view .LVU415
 1075 00e8 D9F81430 		ldr	r3, [r9, #20]
 1076              	.LVL146:
 1077              	.LBB292:
 1078              	.LBI292:
 495:Drivers/CMSIS/Include/core_cmInstr.h **** {
 1079              		.loc 2 495 57 is_stmt 1 view .LVU416
 1080              	.LBB293:
 1081              		.loc 2 498 3 view .LVU417
 1082              		.loc 2 498 10 is_stmt 0 view .LVU418
 1083 00ec 1BBA     		rev	r3, r3
 1084              	.LVL147:
 1085              		.loc 2 498 10 view .LVU419
 1086              	.LBE293:
 1087              	.LBE292:
 337:Drivers/STM32F4xx_StdPeriph_Driver/src/stm32f4xx_cryp_aes.c ****     break;
ARM GAS  /tmp/ccjGnpiF.s 			page 39


 1088              		.loc 1 337 45 view .LVU420
 1089 00ee 0D93     		str	r3, [sp, #52]
 338:Drivers/STM32F4xx_StdPeriph_Driver/src/stm32f4xx_cryp_aes.c ****     case 256:
 1090              		.loc 1 338 5 is_stmt 1 view .LVU421
 1091 00f0 9FE7     		b	.L23
 1092              	.LVL148:
 1093              	.L22:
 340:Drivers/STM32F4xx_StdPeriph_Driver/src/stm32f4xx_cryp_aes.c ****     AES_CRYP_KeyInitStructure.CRYP_Key0Left = __REV(*(uint32_t*)(keyaddr));
 1094              		.loc 1 340 5 view .LVU422
 340:Drivers/STM32F4xx_StdPeriph_Driver/src/stm32f4xx_cryp_aes.c ****     AES_CRYP_KeyInitStructure.CRYP_Key0Left = __REV(*(uint32_t*)(keyaddr));
 1095              		.loc 1 340 42 is_stmt 0 view .LVU423
 1096 00f2 4FF40073 		mov	r3, #512
 1097 00f6 1193     		str	r3, [sp, #68]
 341:Drivers/STM32F4xx_StdPeriph_Driver/src/stm32f4xx_cryp_aes.c ****     keyaddr+=4;
 1098              		.loc 1 341 5 is_stmt 1 view .LVU424
 341:Drivers/STM32F4xx_StdPeriph_Driver/src/stm32f4xx_cryp_aes.c ****     keyaddr+=4;
 1099              		.loc 1 341 47 is_stmt 0 view .LVU425
 1100 00f8 D9F80030 		ldr	r3, [r9]
 1101              	.LVL149:
 1102              	.LBB294:
 1103              	.LBI294:
 495:Drivers/CMSIS/Include/core_cmInstr.h **** {
 1104              		.loc 2 495 57 is_stmt 1 view .LVU426
 1105              	.LBB295:
 1106              		.loc 2 498 3 view .LVU427
 1107              		.loc 2 498 10 is_stmt 0 view .LVU428
 1108 00fc 1BBA     		rev	r3, r3
 1109              	.LVL150:
 1110              		.loc 2 498 10 view .LVU429
 1111              	.LBE295:
 1112              	.LBE294:
 341:Drivers/STM32F4xx_StdPeriph_Driver/src/stm32f4xx_cryp_aes.c ****     keyaddr+=4;
 1113              		.loc 1 341 45 view .LVU430
 1114 00fe 0693     		str	r3, [sp, #24]
 342:Drivers/STM32F4xx_StdPeriph_Driver/src/stm32f4xx_cryp_aes.c ****     AES_CRYP_KeyInitStructure.CRYP_Key0Right= __REV(*(uint32_t*)(keyaddr));
 1115              		.loc 1 342 5 is_stmt 1 view .LVU431
 1116              	.LVL151:
 343:Drivers/STM32F4xx_StdPeriph_Driver/src/stm32f4xx_cryp_aes.c ****     keyaddr+=4;
 1117              		.loc 1 343 5 view .LVU432
 343:Drivers/STM32F4xx_StdPeriph_Driver/src/stm32f4xx_cryp_aes.c ****     keyaddr+=4;
 1118              		.loc 1 343 47 is_stmt 0 view .LVU433
 1119 0100 D9F80430 		ldr	r3, [r9, #4]
 1120              	.LVL152:
 1121              	.LBB296:
 1122              	.LBI296:
 495:Drivers/CMSIS/Include/core_cmInstr.h **** {
 1123              		.loc 2 495 57 is_stmt 1 view .LVU434
 1124              	.LBB297:
 1125              		.loc 2 498 3 view .LVU435
 1126              		.loc 2 498 10 is_stmt 0 view .LVU436
 1127 0104 1BBA     		rev	r3, r3
 1128              	.LVL153:
 1129              		.loc 2 498 10 view .LVU437
 1130              	.LBE297:
 1131              	.LBE296:
 343:Drivers/STM32F4xx_StdPeriph_Driver/src/stm32f4xx_cryp_aes.c ****     keyaddr+=4;
 1132              		.loc 1 343 45 view .LVU438
ARM GAS  /tmp/ccjGnpiF.s 			page 40


 1133 0106 0793     		str	r3, [sp, #28]
 344:Drivers/STM32F4xx_StdPeriph_Driver/src/stm32f4xx_cryp_aes.c ****     AES_CRYP_KeyInitStructure.CRYP_Key1Left = __REV(*(uint32_t*)(keyaddr));
 1134              		.loc 1 344 5 is_stmt 1 view .LVU439
 1135              	.LVL154:
 345:Drivers/STM32F4xx_StdPeriph_Driver/src/stm32f4xx_cryp_aes.c ****     keyaddr+=4;
 1136              		.loc 1 345 5 view .LVU440
 345:Drivers/STM32F4xx_StdPeriph_Driver/src/stm32f4xx_cryp_aes.c ****     keyaddr+=4;
 1137              		.loc 1 345 47 is_stmt 0 view .LVU441
 1138 0108 D9F80830 		ldr	r3, [r9, #8]
 1139              	.LVL155:
 1140              	.LBB298:
 1141              	.LBI298:
 495:Drivers/CMSIS/Include/core_cmInstr.h **** {
 1142              		.loc 2 495 57 is_stmt 1 view .LVU442
 1143              	.LBB299:
 1144              		.loc 2 498 3 view .LVU443
 1145              		.loc 2 498 10 is_stmt 0 view .LVU444
 1146 010c 1BBA     		rev	r3, r3
 1147              	.LVL156:
 1148              		.loc 2 498 10 view .LVU445
 1149              	.LBE299:
 1150              	.LBE298:
 345:Drivers/STM32F4xx_StdPeriph_Driver/src/stm32f4xx_cryp_aes.c ****     keyaddr+=4;
 1151              		.loc 1 345 45 view .LVU446
 1152 010e 0893     		str	r3, [sp, #32]
 346:Drivers/STM32F4xx_StdPeriph_Driver/src/stm32f4xx_cryp_aes.c ****     AES_CRYP_KeyInitStructure.CRYP_Key1Right= __REV(*(uint32_t*)(keyaddr));
 1153              		.loc 1 346 5 is_stmt 1 view .LVU447
 1154              	.LVL157:
 347:Drivers/STM32F4xx_StdPeriph_Driver/src/stm32f4xx_cryp_aes.c ****     keyaddr+=4;
 1155              		.loc 1 347 5 view .LVU448
 347:Drivers/STM32F4xx_StdPeriph_Driver/src/stm32f4xx_cryp_aes.c ****     keyaddr+=4;
 1156              		.loc 1 347 47 is_stmt 0 view .LVU449
 1157 0110 D9F80C30 		ldr	r3, [r9, #12]
 1158              	.LVL158:
 1159              	.LBB300:
 1160              	.LBI300:
 495:Drivers/CMSIS/Include/core_cmInstr.h **** {
 1161              		.loc 2 495 57 is_stmt 1 view .LVU450
 1162              	.LBB301:
 1163              		.loc 2 498 3 view .LVU451
 1164              		.loc 2 498 10 is_stmt 0 view .LVU452
 1165 0114 1BBA     		rev	r3, r3
 1166              	.LVL159:
 1167              		.loc 2 498 10 view .LVU453
 1168              	.LBE301:
 1169              	.LBE300:
 347:Drivers/STM32F4xx_StdPeriph_Driver/src/stm32f4xx_cryp_aes.c ****     keyaddr+=4;
 1170              		.loc 1 347 45 view .LVU454
 1171 0116 0993     		str	r3, [sp, #36]
 348:Drivers/STM32F4xx_StdPeriph_Driver/src/stm32f4xx_cryp_aes.c ****     AES_CRYP_KeyInitStructure.CRYP_Key2Left = __REV(*(uint32_t*)(keyaddr));
 1172              		.loc 1 348 5 is_stmt 1 view .LVU455
 1173              	.LVL160:
 349:Drivers/STM32F4xx_StdPeriph_Driver/src/stm32f4xx_cryp_aes.c ****     keyaddr+=4;
 1174              		.loc 1 349 5 view .LVU456
 349:Drivers/STM32F4xx_StdPeriph_Driver/src/stm32f4xx_cryp_aes.c ****     keyaddr+=4;
 1175              		.loc 1 349 47 is_stmt 0 view .LVU457
 1176 0118 D9F81030 		ldr	r3, [r9, #16]
ARM GAS  /tmp/ccjGnpiF.s 			page 41


 1177              	.LVL161:
 1178              	.LBB302:
 1179              	.LBI302:
 495:Drivers/CMSIS/Include/core_cmInstr.h **** {
 1180              		.loc 2 495 57 is_stmt 1 view .LVU458
 1181              	.LBB303:
 1182              		.loc 2 498 3 view .LVU459
 1183              		.loc 2 498 10 is_stmt 0 view .LVU460
 1184 011c 1BBA     		rev	r3, r3
 1185              	.LVL162:
 1186              		.loc 2 498 10 view .LVU461
 1187              	.LBE303:
 1188              	.LBE302:
 349:Drivers/STM32F4xx_StdPeriph_Driver/src/stm32f4xx_cryp_aes.c ****     keyaddr+=4;
 1189              		.loc 1 349 45 view .LVU462
 1190 011e 0A93     		str	r3, [sp, #40]
 350:Drivers/STM32F4xx_StdPeriph_Driver/src/stm32f4xx_cryp_aes.c ****     AES_CRYP_KeyInitStructure.CRYP_Key2Right= __REV(*(uint32_t*)(keyaddr));
 1191              		.loc 1 350 5 is_stmt 1 view .LVU463
 1192              	.LVL163:
 351:Drivers/STM32F4xx_StdPeriph_Driver/src/stm32f4xx_cryp_aes.c ****     keyaddr+=4;
 1193              		.loc 1 351 5 view .LVU464
 351:Drivers/STM32F4xx_StdPeriph_Driver/src/stm32f4xx_cryp_aes.c ****     keyaddr+=4;
 1194              		.loc 1 351 47 is_stmt 0 view .LVU465
 1195 0120 D9F81430 		ldr	r3, [r9, #20]
 1196              	.LVL164:
 1197              	.LBB304:
 1198              	.LBI304:
 495:Drivers/CMSIS/Include/core_cmInstr.h **** {
 1199              		.loc 2 495 57 is_stmt 1 view .LVU466
 1200              	.LBB305:
 1201              		.loc 2 498 3 view .LVU467
 1202              		.loc 2 498 10 is_stmt 0 view .LVU468
 1203 0124 1BBA     		rev	r3, r3
 1204              	.LVL165:
 1205              		.loc 2 498 10 view .LVU469
 1206              	.LBE305:
 1207              	.LBE304:
 351:Drivers/STM32F4xx_StdPeriph_Driver/src/stm32f4xx_cryp_aes.c ****     keyaddr+=4;
 1208              		.loc 1 351 45 view .LVU470
 1209 0126 0B93     		str	r3, [sp, #44]
 352:Drivers/STM32F4xx_StdPeriph_Driver/src/stm32f4xx_cryp_aes.c ****     AES_CRYP_KeyInitStructure.CRYP_Key3Left = __REV(*(uint32_t*)(keyaddr));
 1210              		.loc 1 352 5 is_stmt 1 view .LVU471
 1211              	.LVL166:
 353:Drivers/STM32F4xx_StdPeriph_Driver/src/stm32f4xx_cryp_aes.c ****     keyaddr+=4;
 1212              		.loc 1 353 5 view .LVU472
 353:Drivers/STM32F4xx_StdPeriph_Driver/src/stm32f4xx_cryp_aes.c ****     keyaddr+=4;
 1213              		.loc 1 353 47 is_stmt 0 view .LVU473
 1214 0128 D9F81830 		ldr	r3, [r9, #24]
 1215              	.LVL167:
 1216              	.LBB306:
 1217              	.LBI306:
 495:Drivers/CMSIS/Include/core_cmInstr.h **** {
 1218              		.loc 2 495 57 is_stmt 1 view .LVU474
 1219              	.LBB307:
 1220              		.loc 2 498 3 view .LVU475
 1221              		.loc 2 498 10 is_stmt 0 view .LVU476
 1222 012c 1BBA     		rev	r3, r3
ARM GAS  /tmp/ccjGnpiF.s 			page 42


 1223              	.LVL168:
 1224              		.loc 2 498 10 view .LVU477
 1225              	.LBE307:
 1226              	.LBE306:
 353:Drivers/STM32F4xx_StdPeriph_Driver/src/stm32f4xx_cryp_aes.c ****     keyaddr+=4;
 1227              		.loc 1 353 45 view .LVU478
 1228 012e 0C93     		str	r3, [sp, #48]
 354:Drivers/STM32F4xx_StdPeriph_Driver/src/stm32f4xx_cryp_aes.c ****     AES_CRYP_KeyInitStructure.CRYP_Key3Right= __REV(*(uint32_t*)(keyaddr));
 1229              		.loc 1 354 5 is_stmt 1 view .LVU479
 1230              	.LVL169:
 355:Drivers/STM32F4xx_StdPeriph_Driver/src/stm32f4xx_cryp_aes.c ****     break;
 1231              		.loc 1 355 5 view .LVU480
 355:Drivers/STM32F4xx_StdPeriph_Driver/src/stm32f4xx_cryp_aes.c ****     break;
 1232              		.loc 1 355 47 is_stmt 0 view .LVU481
 1233 0130 D9F81C30 		ldr	r3, [r9, #28]
 1234              	.LVL170:
 1235              	.LBB308:
 1236              	.LBI308:
 495:Drivers/CMSIS/Include/core_cmInstr.h **** {
 1237              		.loc 2 495 57 is_stmt 1 view .LVU482
 1238              	.LBB309:
 1239              		.loc 2 498 3 view .LVU483
 1240              		.loc 2 498 10 is_stmt 0 view .LVU484
 1241 0134 1BBA     		rev	r3, r3
 1242              	.LVL171:
 1243              		.loc 2 498 10 view .LVU485
 1244              	.LBE309:
 1245              	.LBE308:
 355:Drivers/STM32F4xx_StdPeriph_Driver/src/stm32f4xx_cryp_aes.c ****     break;
 1246              		.loc 1 355 45 view .LVU486
 1247 0136 0D93     		str	r3, [sp, #52]
 356:Drivers/STM32F4xx_StdPeriph_Driver/src/stm32f4xx_cryp_aes.c ****     default:
 1248              		.loc 1 356 5 is_stmt 1 view .LVU487
 1249 0138 7BE7     		b	.L23
 1250              	.LVL172:
 1251              	.L24:
 405:Drivers/STM32F4xx_StdPeriph_Driver/src/stm32f4xx_cryp_aes.c ****     }
 406:Drivers/STM32F4xx_StdPeriph_Driver/src/stm32f4xx_cryp_aes.c ****   }
 407:Drivers/STM32F4xx_StdPeriph_Driver/src/stm32f4xx_cryp_aes.c ****   /*------------------ AES Encryption ------------------*/
 408:Drivers/STM32F4xx_StdPeriph_Driver/src/stm32f4xx_cryp_aes.c ****   else /* AES encryption */
 409:Drivers/STM32F4xx_StdPeriph_Driver/src/stm32f4xx_cryp_aes.c ****   {
 410:Drivers/STM32F4xx_StdPeriph_Driver/src/stm32f4xx_cryp_aes.c ****     CRYP_KeyInit(&AES_CRYP_KeyInitStructure);
 1252              		.loc 1 410 5 view .LVU488
 1253 013a 06A8     		add	r0, sp, #24
 1254 013c FFF7FEFF 		bl	CRYP_KeyInit
 1255              	.LVL173:
 411:Drivers/STM32F4xx_StdPeriph_Driver/src/stm32f4xx_cryp_aes.c **** 
 412:Drivers/STM32F4xx_StdPeriph_Driver/src/stm32f4xx_cryp_aes.c ****     /* Crypto Init for Encryption process */
 413:Drivers/STM32F4xx_StdPeriph_Driver/src/stm32f4xx_cryp_aes.c ****     AES_CRYP_InitStructure.CRYP_AlgoDir  = CRYP_AlgoDir_Encrypt;
 1256              		.loc 1 413 5 view .LVU489
 1257              		.loc 1 413 42 is_stmt 0 view .LVU490
 1258 0140 0023     		movs	r3, #0
 1259 0142 0E93     		str	r3, [sp, #56]
 303:Drivers/STM32F4xx_StdPeriph_Driver/src/stm32f4xx_cryp_aes.c ****   uint32_t keyaddr    = (uint32_t)Key;
 1260              		.loc 1 303 15 view .LVU491
 1261 0144 0126     		movs	r6, #1
 1262              	.LVL174:
ARM GAS  /tmp/ccjGnpiF.s 			page 43


 1263              	.L27:
 414:Drivers/STM32F4xx_StdPeriph_Driver/src/stm32f4xx_cryp_aes.c ****   }
 415:Drivers/STM32F4xx_StdPeriph_Driver/src/stm32f4xx_cryp_aes.c ****   AES_CRYP_InitStructure.CRYP_AlgoMode = CRYP_AlgoMode_AES_CBC;
 1264              		.loc 1 415 3 is_stmt 1 view .LVU492
 1265              		.loc 1 415 40 is_stmt 0 view .LVU493
 1266 0146 2823     		movs	r3, #40
 1267 0148 0F93     		str	r3, [sp, #60]
 416:Drivers/STM32F4xx_StdPeriph_Driver/src/stm32f4xx_cryp_aes.c ****   AES_CRYP_InitStructure.CRYP_DataType = CRYP_DataType_8b;
 1268              		.loc 1 416 3 is_stmt 1 view .LVU494
 1269              		.loc 1 416 40 is_stmt 0 view .LVU495
 1270 014a 8023     		movs	r3, #128
 1271 014c 1093     		str	r3, [sp, #64]
 417:Drivers/STM32F4xx_StdPeriph_Driver/src/stm32f4xx_cryp_aes.c ****   CRYP_Init(&AES_CRYP_InitStructure);
 1272              		.loc 1 417 3 is_stmt 1 view .LVU496
 1273 014e 0EA8     		add	r0, sp, #56
 1274 0150 FFF7FEFF 		bl	CRYP_Init
 1275              	.LVL175:
 418:Drivers/STM32F4xx_StdPeriph_Driver/src/stm32f4xx_cryp_aes.c **** 
 419:Drivers/STM32F4xx_StdPeriph_Driver/src/stm32f4xx_cryp_aes.c ****   /* CRYP Initialization Vectors */
 420:Drivers/STM32F4xx_StdPeriph_Driver/src/stm32f4xx_cryp_aes.c ****   CRYP_IVInit(&AES_CRYP_IVInitStructure);
 1276              		.loc 1 420 3 view .LVU497
 1277 0154 02A8     		add	r0, sp, #8
 1278 0156 FFF7FEFF 		bl	CRYP_IVInit
 1279              	.LVL176:
 421:Drivers/STM32F4xx_StdPeriph_Driver/src/stm32f4xx_cryp_aes.c **** 
 422:Drivers/STM32F4xx_StdPeriph_Driver/src/stm32f4xx_cryp_aes.c ****   /* Flush IN/OUT FIFOs */
 423:Drivers/STM32F4xx_StdPeriph_Driver/src/stm32f4xx_cryp_aes.c ****   CRYP_FIFOFlush();
 1280              		.loc 1 423 3 view .LVU498
 1281 015a FFF7FEFF 		bl	CRYP_FIFOFlush
 1282              	.LVL177:
 424:Drivers/STM32F4xx_StdPeriph_Driver/src/stm32f4xx_cryp_aes.c **** 
 425:Drivers/STM32F4xx_StdPeriph_Driver/src/stm32f4xx_cryp_aes.c ****   /* Enable Crypto processor */
 426:Drivers/STM32F4xx_StdPeriph_Driver/src/stm32f4xx_cryp_aes.c ****   CRYP_Cmd(ENABLE);
 1283              		.loc 1 426 3 view .LVU499
 1284 015e 0120     		movs	r0, #1
 1285 0160 FFF7FEFF 		bl	CRYP_Cmd
 1286              	.LVL178:
 427:Drivers/STM32F4xx_StdPeriph_Driver/src/stm32f4xx_cryp_aes.c **** 
 428:Drivers/STM32F4xx_StdPeriph_Driver/src/stm32f4xx_cryp_aes.c ****   if(CRYP_GetCmdStatus() == DISABLE)
 1287              		.loc 1 428 3 view .LVU500
 1288              		.loc 1 428 6 is_stmt 0 view .LVU501
 1289 0164 FFF7FEFF 		bl	CRYP_GetCmdStatus
 1290              	.LVL179:
 1291              		.loc 1 428 5 view .LVU502
 1292 0168 0028     		cmp	r0, #0
 1293 016a 35D0     		beq	.L28
 429:Drivers/STM32F4xx_StdPeriph_Driver/src/stm32f4xx_cryp_aes.c ****   {
 430:Drivers/STM32F4xx_StdPeriph_Driver/src/stm32f4xx_cryp_aes.c ****     /* The CRYP peripheral clock is not enabled or the device doesn't embed 
 431:Drivers/STM32F4xx_StdPeriph_Driver/src/stm32f4xx_cryp_aes.c ****        the CRYP peripheral (please check the device sales type. */
 432:Drivers/STM32F4xx_StdPeriph_Driver/src/stm32f4xx_cryp_aes.c ****     return(ERROR);
 433:Drivers/STM32F4xx_StdPeriph_Driver/src/stm32f4xx_cryp_aes.c ****   }
 434:Drivers/STM32F4xx_StdPeriph_Driver/src/stm32f4xx_cryp_aes.c ****   
 435:Drivers/STM32F4xx_StdPeriph_Driver/src/stm32f4xx_cryp_aes.c ****   for(i=0; ((i<Ilength) && (status != ERROR)); i+=16)
 1294              		.loc 1 435 8 view .LVU503
 1295 016c 0025     		movs	r5, #0
 1296              	.LVL180:
 1297              		.loc 1 435 8 view .LVU504
ARM GAS  /tmp/ccjGnpiF.s 			page 44


 1298 016e 02E0     		b	.L29
 1299              	.LVL181:
 1300              	.L30:
 436:Drivers/STM32F4xx_StdPeriph_Driver/src/stm32f4xx_cryp_aes.c ****   {
 437:Drivers/STM32F4xx_StdPeriph_Driver/src/stm32f4xx_cryp_aes.c **** 
 438:Drivers/STM32F4xx_StdPeriph_Driver/src/stm32f4xx_cryp_aes.c ****     /* Write the Input block in the IN FIFO */
 439:Drivers/STM32F4xx_StdPeriph_Driver/src/stm32f4xx_cryp_aes.c ****     CRYP_DataIn(*(uint32_t*)(inputaddr));
 440:Drivers/STM32F4xx_StdPeriph_Driver/src/stm32f4xx_cryp_aes.c ****     inputaddr+=4;
 441:Drivers/STM32F4xx_StdPeriph_Driver/src/stm32f4xx_cryp_aes.c ****     CRYP_DataIn(*(uint32_t*)(inputaddr));
 442:Drivers/STM32F4xx_StdPeriph_Driver/src/stm32f4xx_cryp_aes.c ****     inputaddr+=4;
 443:Drivers/STM32F4xx_StdPeriph_Driver/src/stm32f4xx_cryp_aes.c ****     CRYP_DataIn(*(uint32_t*)(inputaddr));
 444:Drivers/STM32F4xx_StdPeriph_Driver/src/stm32f4xx_cryp_aes.c ****     inputaddr+=4;
 445:Drivers/STM32F4xx_StdPeriph_Driver/src/stm32f4xx_cryp_aes.c ****     CRYP_DataIn(*(uint32_t*)(inputaddr));
 446:Drivers/STM32F4xx_StdPeriph_Driver/src/stm32f4xx_cryp_aes.c ****     inputaddr+=4;
 447:Drivers/STM32F4xx_StdPeriph_Driver/src/stm32f4xx_cryp_aes.c ****     /* Wait until the complete message has been processed */
 448:Drivers/STM32F4xx_StdPeriph_Driver/src/stm32f4xx_cryp_aes.c ****     counter = 0;
 449:Drivers/STM32F4xx_StdPeriph_Driver/src/stm32f4xx_cryp_aes.c ****     do
 450:Drivers/STM32F4xx_StdPeriph_Driver/src/stm32f4xx_cryp_aes.c ****     {
 451:Drivers/STM32F4xx_StdPeriph_Driver/src/stm32f4xx_cryp_aes.c ****       busystatus = CRYP_GetFlagStatus(CRYP_FLAG_BUSY);
 452:Drivers/STM32F4xx_StdPeriph_Driver/src/stm32f4xx_cryp_aes.c ****       counter++;
 453:Drivers/STM32F4xx_StdPeriph_Driver/src/stm32f4xx_cryp_aes.c ****     }while ((counter != AESBUSY_TIMEOUT) && (busystatus != RESET));
 454:Drivers/STM32F4xx_StdPeriph_Driver/src/stm32f4xx_cryp_aes.c **** 
 455:Drivers/STM32F4xx_StdPeriph_Driver/src/stm32f4xx_cryp_aes.c ****     if (busystatus != RESET)
 1301              		.loc 1 455 5 is_stmt 1 view .LVU505
 1302              		.loc 1 455 8 is_stmt 0 view .LVU506
 1303 0170 00B3     		cbz	r0, .L38
 456:Drivers/STM32F4xx_StdPeriph_Driver/src/stm32f4xx_cryp_aes.c ****    {
 457:Drivers/STM32F4xx_StdPeriph_Driver/src/stm32f4xx_cryp_aes.c ****        status = ERROR;
 1304              		.loc 1 457 15 view .LVU507
 1305 0172 0026     		movs	r6, #0
 1306              	.LVL182:
 1307              	.L32:
 435:Drivers/STM32F4xx_StdPeriph_Driver/src/stm32f4xx_cryp_aes.c ****   {
 1308              		.loc 1 435 48 is_stmt 1 discriminator 2 view .LVU508
 435:Drivers/STM32F4xx_StdPeriph_Driver/src/stm32f4xx_cryp_aes.c ****   {
 1309              		.loc 1 435 49 is_stmt 0 discriminator 2 view .LVU509
 1310 0174 1035     		adds	r5, r5, #16
 1311              	.LVL183:
 1312              	.L29:
 435:Drivers/STM32F4xx_StdPeriph_Driver/src/stm32f4xx_cryp_aes.c ****   {
 1313              		.loc 1 435 12 is_stmt 1 discriminator 1 view .LVU510
 435:Drivers/STM32F4xx_StdPeriph_Driver/src/stm32f4xx_cryp_aes.c ****   {
 1314              		.loc 1 435 3 is_stmt 0 discriminator 1 view .LVU511
 1315 0176 4545     		cmp	r5, r8
 1316 0178 2AD2     		bcs	.L33
 435:Drivers/STM32F4xx_StdPeriph_Driver/src/stm32f4xx_cryp_aes.c ****   {
 1317              		.loc 1 435 25 discriminator 3 view .LVU512
 1318 017a 4EB3     		cbz	r6, .L33
 439:Drivers/STM32F4xx_StdPeriph_Driver/src/stm32f4xx_cryp_aes.c ****     inputaddr+=4;
 1319              		.loc 1 439 5 is_stmt 1 view .LVU513
 1320 017c 2068     		ldr	r0, [r4]
 1321 017e FFF7FEFF 		bl	CRYP_DataIn
 1322              	.LVL184:
 440:Drivers/STM32F4xx_StdPeriph_Driver/src/stm32f4xx_cryp_aes.c ****     CRYP_DataIn(*(uint32_t*)(inputaddr));
 1323              		.loc 1 440 5 view .LVU514
 441:Drivers/STM32F4xx_StdPeriph_Driver/src/stm32f4xx_cryp_aes.c ****     inputaddr+=4;
 1324              		.loc 1 441 5 view .LVU515
ARM GAS  /tmp/ccjGnpiF.s 			page 45


 1325 0182 6068     		ldr	r0, [r4, #4]
 1326 0184 FFF7FEFF 		bl	CRYP_DataIn
 1327              	.LVL185:
 442:Drivers/STM32F4xx_StdPeriph_Driver/src/stm32f4xx_cryp_aes.c ****     CRYP_DataIn(*(uint32_t*)(inputaddr));
 1328              		.loc 1 442 5 view .LVU516
 443:Drivers/STM32F4xx_StdPeriph_Driver/src/stm32f4xx_cryp_aes.c ****     inputaddr+=4;
 1329              		.loc 1 443 5 view .LVU517
 1330 0188 A068     		ldr	r0, [r4, #8]
 1331 018a FFF7FEFF 		bl	CRYP_DataIn
 1332              	.LVL186:
 444:Drivers/STM32F4xx_StdPeriph_Driver/src/stm32f4xx_cryp_aes.c ****     CRYP_DataIn(*(uint32_t*)(inputaddr));
 1333              		.loc 1 444 5 view .LVU518
 445:Drivers/STM32F4xx_StdPeriph_Driver/src/stm32f4xx_cryp_aes.c ****     inputaddr+=4;
 1334              		.loc 1 445 5 view .LVU519
 1335 018e E068     		ldr	r0, [r4, #12]
 1336 0190 FFF7FEFF 		bl	CRYP_DataIn
 1337              	.LVL187:
 446:Drivers/STM32F4xx_StdPeriph_Driver/src/stm32f4xx_cryp_aes.c ****     /* Wait until the complete message has been processed */
 1338              		.loc 1 446 5 view .LVU520
 446:Drivers/STM32F4xx_StdPeriph_Driver/src/stm32f4xx_cryp_aes.c ****     /* Wait until the complete message has been processed */
 1339              		.loc 1 446 14 is_stmt 0 view .LVU521
 1340 0194 1034     		adds	r4, r4, #16
 1341              	.LVL188:
 448:Drivers/STM32F4xx_StdPeriph_Driver/src/stm32f4xx_cryp_aes.c ****     do
 1342              		.loc 1 448 5 is_stmt 1 view .LVU522
 448:Drivers/STM32F4xx_StdPeriph_Driver/src/stm32f4xx_cryp_aes.c ****     do
 1343              		.loc 1 448 13 is_stmt 0 view .LVU523
 1344 0196 0023     		movs	r3, #0
 1345 0198 0193     		str	r3, [sp, #4]
 1346              	.L31:
 449:Drivers/STM32F4xx_StdPeriph_Driver/src/stm32f4xx_cryp_aes.c ****     {
 1347              		.loc 1 449 5 is_stmt 1 discriminator 2 view .LVU524
 451:Drivers/STM32F4xx_StdPeriph_Driver/src/stm32f4xx_cryp_aes.c ****       counter++;
 1348              		.loc 1 451 7 discriminator 2 view .LVU525
 451:Drivers/STM32F4xx_StdPeriph_Driver/src/stm32f4xx_cryp_aes.c ****       counter++;
 1349              		.loc 1 451 20 is_stmt 0 discriminator 2 view .LVU526
 1350 019a 1020     		movs	r0, #16
 1351 019c FFF7FEFF 		bl	CRYP_GetFlagStatus
 1352              	.LVL189:
 452:Drivers/STM32F4xx_StdPeriph_Driver/src/stm32f4xx_cryp_aes.c ****     }while ((counter != AESBUSY_TIMEOUT) && (busystatus != RESET));
 1353              		.loc 1 452 7 is_stmt 1 discriminator 2 view .LVU527
 452:Drivers/STM32F4xx_StdPeriph_Driver/src/stm32f4xx_cryp_aes.c ****     }while ((counter != AESBUSY_TIMEOUT) && (busystatus != RESET));
 1354              		.loc 1 452 14 is_stmt 0 discriminator 2 view .LVU528
 1355 01a0 019B     		ldr	r3, [sp, #4]
 1356 01a2 0133     		adds	r3, r3, #1
 1357 01a4 0193     		str	r3, [sp, #4]
 453:Drivers/STM32F4xx_StdPeriph_Driver/src/stm32f4xx_cryp_aes.c **** 
 1358              		.loc 1 453 12 is_stmt 1 discriminator 2 view .LVU529
 453:Drivers/STM32F4xx_StdPeriph_Driver/src/stm32f4xx_cryp_aes.c **** 
 1359              		.loc 1 453 22 is_stmt 0 discriminator 2 view .LVU530
 1360 01a6 019B     		ldr	r3, [sp, #4]
 453:Drivers/STM32F4xx_StdPeriph_Driver/src/stm32f4xx_cryp_aes.c **** 
 1361              		.loc 1 453 5 discriminator 2 view .LVU531
 1362 01a8 B3F5803F 		cmp	r3, #65536
 1363 01ac E0D0     		beq	.L30
 453:Drivers/STM32F4xx_StdPeriph_Driver/src/stm32f4xx_cryp_aes.c **** 
 1364              		.loc 1 453 42 discriminator 1 view .LVU532
ARM GAS  /tmp/ccjGnpiF.s 			page 46


 1365 01ae 0028     		cmp	r0, #0
 1366 01b0 F3D1     		bne	.L31
 1367 01b2 DDE7     		b	.L30
 1368              	.L38:
 458:Drivers/STM32F4xx_StdPeriph_Driver/src/stm32f4xx_cryp_aes.c ****     }
 459:Drivers/STM32F4xx_StdPeriph_Driver/src/stm32f4xx_cryp_aes.c ****     else
 460:Drivers/STM32F4xx_StdPeriph_Driver/src/stm32f4xx_cryp_aes.c ****     {
 461:Drivers/STM32F4xx_StdPeriph_Driver/src/stm32f4xx_cryp_aes.c **** 
 462:Drivers/STM32F4xx_StdPeriph_Driver/src/stm32f4xx_cryp_aes.c ****       /* Read the Output block from the Output FIFO */
 463:Drivers/STM32F4xx_StdPeriph_Driver/src/stm32f4xx_cryp_aes.c ****       *(uint32_t*)(outputaddr) = CRYP_DataOut();
 1369              		.loc 1 463 7 is_stmt 1 view .LVU533
 1370              		.loc 1 463 34 is_stmt 0 view .LVU534
 1371 01b4 FFF7FEFF 		bl	CRYP_DataOut
 1372              	.LVL190:
 1373              		.loc 1 463 32 view .LVU535
 1374 01b8 3860     		str	r0, [r7]
 464:Drivers/STM32F4xx_StdPeriph_Driver/src/stm32f4xx_cryp_aes.c ****       outputaddr+=4;
 1375              		.loc 1 464 7 is_stmt 1 view .LVU536
 1376              	.LVL191:
 465:Drivers/STM32F4xx_StdPeriph_Driver/src/stm32f4xx_cryp_aes.c ****       *(uint32_t*)(outputaddr) = CRYP_DataOut();
 1377              		.loc 1 465 7 view .LVU537
 1378              		.loc 1 465 34 is_stmt 0 view .LVU538
 1379 01ba FFF7FEFF 		bl	CRYP_DataOut
 1380              	.LVL192:
 1381              		.loc 1 465 32 view .LVU539
 1382 01be 7860     		str	r0, [r7, #4]
 466:Drivers/STM32F4xx_StdPeriph_Driver/src/stm32f4xx_cryp_aes.c ****       outputaddr+=4;
 1383              		.loc 1 466 7 is_stmt 1 view .LVU540
 1384              	.LVL193:
 467:Drivers/STM32F4xx_StdPeriph_Driver/src/stm32f4xx_cryp_aes.c ****       *(uint32_t*)(outputaddr) = CRYP_DataOut();
 1385              		.loc 1 467 7 view .LVU541
 1386              		.loc 1 467 34 is_stmt 0 view .LVU542
 1387 01c0 FFF7FEFF 		bl	CRYP_DataOut
 1388              	.LVL194:
 1389              		.loc 1 467 32 view .LVU543
 1390 01c4 B860     		str	r0, [r7, #8]
 468:Drivers/STM32F4xx_StdPeriph_Driver/src/stm32f4xx_cryp_aes.c ****       outputaddr+=4;
 1391              		.loc 1 468 7 is_stmt 1 view .LVU544
 1392              	.LVL195:
 469:Drivers/STM32F4xx_StdPeriph_Driver/src/stm32f4xx_cryp_aes.c ****       *(uint32_t*)(outputaddr) = CRYP_DataOut();
 1393              		.loc 1 469 7 view .LVU545
 1394              		.loc 1 469 34 is_stmt 0 view .LVU546
 1395 01c6 FFF7FEFF 		bl	CRYP_DataOut
 1396              	.LVL196:
 1397              		.loc 1 469 32 view .LVU547
 1398 01ca F860     		str	r0, [r7, #12]
 470:Drivers/STM32F4xx_StdPeriph_Driver/src/stm32f4xx_cryp_aes.c ****       outputaddr+=4;
 1399              		.loc 1 470 7 is_stmt 1 view .LVU548
 1400              		.loc 1 470 17 is_stmt 0 view .LVU549
 1401 01cc 1037     		adds	r7, r7, #16
 1402              	.LVL197:
 1403              		.loc 1 470 17 view .LVU550
 1404 01ce D1E7     		b	.L32
 1405              	.L33:
 471:Drivers/STM32F4xx_StdPeriph_Driver/src/stm32f4xx_cryp_aes.c ****     }
 472:Drivers/STM32F4xx_StdPeriph_Driver/src/stm32f4xx_cryp_aes.c ****   }
 473:Drivers/STM32F4xx_StdPeriph_Driver/src/stm32f4xx_cryp_aes.c **** 
ARM GAS  /tmp/ccjGnpiF.s 			page 47


 474:Drivers/STM32F4xx_StdPeriph_Driver/src/stm32f4xx_cryp_aes.c ****   /* Disable Crypto */
 475:Drivers/STM32F4xx_StdPeriph_Driver/src/stm32f4xx_cryp_aes.c ****   CRYP_Cmd(DISABLE);
 1406              		.loc 1 475 3 is_stmt 1 view .LVU551
 1407 01d0 0020     		movs	r0, #0
 1408 01d2 FFF7FEFF 		bl	CRYP_Cmd
 1409              	.LVL198:
 476:Drivers/STM32F4xx_StdPeriph_Driver/src/stm32f4xx_cryp_aes.c **** 
 477:Drivers/STM32F4xx_StdPeriph_Driver/src/stm32f4xx_cryp_aes.c ****   return status;
 1410              		.loc 1 477 3 view .LVU552
 1411              		.loc 1 477 10 is_stmt 0 view .LVU553
 1412 01d6 3046     		mov	r0, r6
 1413              	.LVL199:
 1414              	.L28:
 478:Drivers/STM32F4xx_StdPeriph_Driver/src/stm32f4xx_cryp_aes.c **** }
 1415              		.loc 1 478 1 view .LVU554
 1416 01d8 12B0     		add	sp, sp, #72
 1417              		.cfi_def_cfa_offset 32
 1418              		@ sp needed
 1419 01da BDE8F087 		pop	{r4, r5, r6, r7, r8, r9, r10, pc}
 1420              		.loc 1 478 1 view .LVU555
 1421              		.cfi_endproc
 1422              	.LFE124:
 1424              		.section	.text.CRYP_AES_CTR,"ax",%progbits
 1425              		.align	1
 1426              		.global	CRYP_AES_CTR
 1427              		.syntax unified
 1428              		.thumb
 1429              		.thumb_func
 1430              		.fpu fpv4-sp-d16
 1432              	CRYP_AES_CTR:
 1433              	.LVL200:
 1434              	.LFB125:
 479:Drivers/STM32F4xx_StdPeriph_Driver/src/stm32f4xx_cryp_aes.c **** 
 480:Drivers/STM32F4xx_StdPeriph_Driver/src/stm32f4xx_cryp_aes.c **** /**
 481:Drivers/STM32F4xx_StdPeriph_Driver/src/stm32f4xx_cryp_aes.c ****   * @brief  Encrypt and decrypt using AES in CTR Mode
 482:Drivers/STM32F4xx_StdPeriph_Driver/src/stm32f4xx_cryp_aes.c ****   * @param  Mode: encryption or decryption Mode.
 483:Drivers/STM32F4xx_StdPeriph_Driver/src/stm32f4xx_cryp_aes.c ****   *           This parameter can be one of the following values:
 484:Drivers/STM32F4xx_StdPeriph_Driver/src/stm32f4xx_cryp_aes.c ****   *            @arg MODE_ENCRYPT: Encryption
 485:Drivers/STM32F4xx_StdPeriph_Driver/src/stm32f4xx_cryp_aes.c ****   *            @arg MODE_DECRYPT: Decryption
 486:Drivers/STM32F4xx_StdPeriph_Driver/src/stm32f4xx_cryp_aes.c ****   * @param  InitVectors: Initialisation Vectors used for AES algorithm.
 487:Drivers/STM32F4xx_StdPeriph_Driver/src/stm32f4xx_cryp_aes.c ****   * @param  Key: Key used for AES algorithm.
 488:Drivers/STM32F4xx_StdPeriph_Driver/src/stm32f4xx_cryp_aes.c ****   * @param  Keysize: length of the Key, must be a 128, 192 or 256.
 489:Drivers/STM32F4xx_StdPeriph_Driver/src/stm32f4xx_cryp_aes.c ****   * @param  Input: pointer to the Input buffer.
 490:Drivers/STM32F4xx_StdPeriph_Driver/src/stm32f4xx_cryp_aes.c ****   * @param  Ilength: length of the Input buffer, must be a multiple of 16.
 491:Drivers/STM32F4xx_StdPeriph_Driver/src/stm32f4xx_cryp_aes.c ****   * @param  Output: pointer to the returned buffer.
 492:Drivers/STM32F4xx_StdPeriph_Driver/src/stm32f4xx_cryp_aes.c ****   * @retval An ErrorStatus enumeration value:
 493:Drivers/STM32F4xx_StdPeriph_Driver/src/stm32f4xx_cryp_aes.c ****   *          - SUCCESS: Operation done
 494:Drivers/STM32F4xx_StdPeriph_Driver/src/stm32f4xx_cryp_aes.c ****   *          - ERROR: Operation failed
 495:Drivers/STM32F4xx_StdPeriph_Driver/src/stm32f4xx_cryp_aes.c ****   */
 496:Drivers/STM32F4xx_StdPeriph_Driver/src/stm32f4xx_cryp_aes.c **** ErrorStatus CRYP_AES_CTR(uint8_t Mode, uint8_t InitVectors[16], uint8_t *Key, 
 497:Drivers/STM32F4xx_StdPeriph_Driver/src/stm32f4xx_cryp_aes.c ****                          uint16_t Keysize, uint8_t *Input, uint32_t Ilength,
 498:Drivers/STM32F4xx_StdPeriph_Driver/src/stm32f4xx_cryp_aes.c ****                          uint8_t *Output)
 499:Drivers/STM32F4xx_StdPeriph_Driver/src/stm32f4xx_cryp_aes.c **** {
 1435              		.loc 1 499 1 is_stmt 1 view -0
 1436              		.cfi_startproc
 1437              		@ args = 12, pretend = 0, frame = 72
 1438              		@ frame_needed = 0, uses_anonymous_args = 0
ARM GAS  /tmp/ccjGnpiF.s 			page 48


 1439              		.loc 1 499 1 is_stmt 0 view .LVU557
 1440 0000 2DE9F047 		push	{r4, r5, r6, r7, r8, r9, r10, lr}
 1441              		.cfi_def_cfa_offset 32
 1442              		.cfi_offset 4, -32
 1443              		.cfi_offset 5, -28
 1444              		.cfi_offset 6, -24
 1445              		.cfi_offset 7, -20
 1446              		.cfi_offset 8, -16
 1447              		.cfi_offset 9, -12
 1448              		.cfi_offset 10, -8
 1449              		.cfi_offset 14, -4
 1450 0004 92B0     		sub	sp, sp, #72
 1451              		.cfi_def_cfa_offset 104
 1452 0006 8246     		mov	r10, r0
 1453 0008 0D46     		mov	r5, r1
 1454 000a 1646     		mov	r6, r2
 1455 000c 9946     		mov	r9, r3
 1456 000e DDF86C80 		ldr	r8, [sp, #108]
 500:Drivers/STM32F4xx_StdPeriph_Driver/src/stm32f4xx_cryp_aes.c ****   CRYP_InitTypeDef AES_CRYP_InitStructure;
 1457              		.loc 1 500 3 is_stmt 1 view .LVU558
 501:Drivers/STM32F4xx_StdPeriph_Driver/src/stm32f4xx_cryp_aes.c ****   CRYP_KeyInitTypeDef AES_CRYP_KeyInitStructure;
 1458              		.loc 1 501 3 view .LVU559
 502:Drivers/STM32F4xx_StdPeriph_Driver/src/stm32f4xx_cryp_aes.c ****   CRYP_IVInitTypeDef AES_CRYP_IVInitStructure;
 1459              		.loc 1 502 3 view .LVU560
 503:Drivers/STM32F4xx_StdPeriph_Driver/src/stm32f4xx_cryp_aes.c ****   __IO uint32_t counter = 0;
 1460              		.loc 1 503 3 view .LVU561
 1461              		.loc 1 503 17 is_stmt 0 view .LVU562
 1462 0012 0023     		movs	r3, #0
 1463              	.LVL201:
 1464              		.loc 1 503 17 view .LVU563
 1465 0014 0193     		str	r3, [sp, #4]
 504:Drivers/STM32F4xx_StdPeriph_Driver/src/stm32f4xx_cryp_aes.c ****   uint32_t busystatus = 0;
 1466              		.loc 1 504 3 is_stmt 1 view .LVU564
 1467              	.LVL202:
 505:Drivers/STM32F4xx_StdPeriph_Driver/src/stm32f4xx_cryp_aes.c ****   ErrorStatus status = SUCCESS;
 1468              		.loc 1 505 3 view .LVU565
 506:Drivers/STM32F4xx_StdPeriph_Driver/src/stm32f4xx_cryp_aes.c ****   uint32_t keyaddr    = (uint32_t)Key;
 1469              		.loc 1 506 3 view .LVU566
 507:Drivers/STM32F4xx_StdPeriph_Driver/src/stm32f4xx_cryp_aes.c ****   uint32_t inputaddr  = (uint32_t)Input;
 1470              		.loc 1 507 3 view .LVU567
 1471              		.loc 1 507 12 is_stmt 0 view .LVU568
 1472 0016 1A9C     		ldr	r4, [sp, #104]
 1473              	.LVL203:
 508:Drivers/STM32F4xx_StdPeriph_Driver/src/stm32f4xx_cryp_aes.c ****   uint32_t outputaddr = (uint32_t)Output;
 1474              		.loc 1 508 3 is_stmt 1 view .LVU569
 1475              		.loc 1 508 12 is_stmt 0 view .LVU570
 1476 0018 1C9F     		ldr	r7, [sp, #112]
 1477              	.LVL204:
 509:Drivers/STM32F4xx_StdPeriph_Driver/src/stm32f4xx_cryp_aes.c ****   uint32_t ivaddr     = (uint32_t)InitVectors;
 1478              		.loc 1 509 3 is_stmt 1 view .LVU571
 510:Drivers/STM32F4xx_StdPeriph_Driver/src/stm32f4xx_cryp_aes.c ****   uint32_t i = 0;
 1479              		.loc 1 510 3 view .LVU572
 511:Drivers/STM32F4xx_StdPeriph_Driver/src/stm32f4xx_cryp_aes.c **** 
 512:Drivers/STM32F4xx_StdPeriph_Driver/src/stm32f4xx_cryp_aes.c ****   /* Crypto structures initialisation*/
 513:Drivers/STM32F4xx_StdPeriph_Driver/src/stm32f4xx_cryp_aes.c ****   CRYP_KeyStructInit(&AES_CRYP_KeyInitStructure);
 1480              		.loc 1 513 3 view .LVU573
 1481 001a 06A8     		add	r0, sp, #24
ARM GAS  /tmp/ccjGnpiF.s 			page 49


 1482              	.LVL205:
 1483              		.loc 1 513 3 is_stmt 0 view .LVU574
 1484 001c FFF7FEFF 		bl	CRYP_KeyStructInit
 1485              	.LVL206:
 514:Drivers/STM32F4xx_StdPeriph_Driver/src/stm32f4xx_cryp_aes.c **** 
 515:Drivers/STM32F4xx_StdPeriph_Driver/src/stm32f4xx_cryp_aes.c ****   switch(Keysize)
 1486              		.loc 1 515 3 is_stmt 1 view .LVU575
 1487 0020 B9F1C00F 		cmp	r9, #192
 1488 0024 3FD0     		beq	.L40
 1489 0026 B9F5807F 		cmp	r9, #256
 1490 002a 52D0     		beq	.L41
 1491 002c B9F1800F 		cmp	r9, #128
 1492 0030 2AD0     		beq	.L54
 1493              	.LVL207:
 1494              	.L42:
 516:Drivers/STM32F4xx_StdPeriph_Driver/src/stm32f4xx_cryp_aes.c ****   {
 517:Drivers/STM32F4xx_StdPeriph_Driver/src/stm32f4xx_cryp_aes.c ****     case 128:
 518:Drivers/STM32F4xx_StdPeriph_Driver/src/stm32f4xx_cryp_aes.c ****     AES_CRYP_InitStructure.CRYP_KeySize = CRYP_KeySize_128b;
 519:Drivers/STM32F4xx_StdPeriph_Driver/src/stm32f4xx_cryp_aes.c ****     AES_CRYP_KeyInitStructure.CRYP_Key2Left = __REV(*(uint32_t*)(keyaddr));
 520:Drivers/STM32F4xx_StdPeriph_Driver/src/stm32f4xx_cryp_aes.c ****     keyaddr+=4;
 521:Drivers/STM32F4xx_StdPeriph_Driver/src/stm32f4xx_cryp_aes.c ****     AES_CRYP_KeyInitStructure.CRYP_Key2Right= __REV(*(uint32_t*)(keyaddr));
 522:Drivers/STM32F4xx_StdPeriph_Driver/src/stm32f4xx_cryp_aes.c ****     keyaddr+=4;
 523:Drivers/STM32F4xx_StdPeriph_Driver/src/stm32f4xx_cryp_aes.c ****     AES_CRYP_KeyInitStructure.CRYP_Key3Left = __REV(*(uint32_t*)(keyaddr));
 524:Drivers/STM32F4xx_StdPeriph_Driver/src/stm32f4xx_cryp_aes.c ****     keyaddr+=4;
 525:Drivers/STM32F4xx_StdPeriph_Driver/src/stm32f4xx_cryp_aes.c ****     AES_CRYP_KeyInitStructure.CRYP_Key3Right= __REV(*(uint32_t*)(keyaddr));
 526:Drivers/STM32F4xx_StdPeriph_Driver/src/stm32f4xx_cryp_aes.c ****     break;
 527:Drivers/STM32F4xx_StdPeriph_Driver/src/stm32f4xx_cryp_aes.c ****     case 192:
 528:Drivers/STM32F4xx_StdPeriph_Driver/src/stm32f4xx_cryp_aes.c ****     AES_CRYP_InitStructure.CRYP_KeySize  = CRYP_KeySize_192b;
 529:Drivers/STM32F4xx_StdPeriph_Driver/src/stm32f4xx_cryp_aes.c ****     AES_CRYP_KeyInitStructure.CRYP_Key1Left = __REV(*(uint32_t*)(keyaddr));
 530:Drivers/STM32F4xx_StdPeriph_Driver/src/stm32f4xx_cryp_aes.c ****     keyaddr+=4;
 531:Drivers/STM32F4xx_StdPeriph_Driver/src/stm32f4xx_cryp_aes.c ****     AES_CRYP_KeyInitStructure.CRYP_Key1Right= __REV(*(uint32_t*)(keyaddr));
 532:Drivers/STM32F4xx_StdPeriph_Driver/src/stm32f4xx_cryp_aes.c ****     keyaddr+=4;
 533:Drivers/STM32F4xx_StdPeriph_Driver/src/stm32f4xx_cryp_aes.c ****     AES_CRYP_KeyInitStructure.CRYP_Key2Left = __REV(*(uint32_t*)(keyaddr));
 534:Drivers/STM32F4xx_StdPeriph_Driver/src/stm32f4xx_cryp_aes.c ****     keyaddr+=4;
 535:Drivers/STM32F4xx_StdPeriph_Driver/src/stm32f4xx_cryp_aes.c ****     AES_CRYP_KeyInitStructure.CRYP_Key2Right= __REV(*(uint32_t*)(keyaddr));
 536:Drivers/STM32F4xx_StdPeriph_Driver/src/stm32f4xx_cryp_aes.c ****     keyaddr+=4;
 537:Drivers/STM32F4xx_StdPeriph_Driver/src/stm32f4xx_cryp_aes.c ****     AES_CRYP_KeyInitStructure.CRYP_Key3Left = __REV(*(uint32_t*)(keyaddr));
 538:Drivers/STM32F4xx_StdPeriph_Driver/src/stm32f4xx_cryp_aes.c ****     keyaddr+=4;
 539:Drivers/STM32F4xx_StdPeriph_Driver/src/stm32f4xx_cryp_aes.c ****     AES_CRYP_KeyInitStructure.CRYP_Key3Right= __REV(*(uint32_t*)(keyaddr));
 540:Drivers/STM32F4xx_StdPeriph_Driver/src/stm32f4xx_cryp_aes.c ****     break;
 541:Drivers/STM32F4xx_StdPeriph_Driver/src/stm32f4xx_cryp_aes.c ****     case 256:
 542:Drivers/STM32F4xx_StdPeriph_Driver/src/stm32f4xx_cryp_aes.c ****     AES_CRYP_InitStructure.CRYP_KeySize  = CRYP_KeySize_256b;
 543:Drivers/STM32F4xx_StdPeriph_Driver/src/stm32f4xx_cryp_aes.c ****     AES_CRYP_KeyInitStructure.CRYP_Key0Left = __REV(*(uint32_t*)(keyaddr));
 544:Drivers/STM32F4xx_StdPeriph_Driver/src/stm32f4xx_cryp_aes.c ****     keyaddr+=4;
 545:Drivers/STM32F4xx_StdPeriph_Driver/src/stm32f4xx_cryp_aes.c ****     AES_CRYP_KeyInitStructure.CRYP_Key0Right= __REV(*(uint32_t*)(keyaddr));
 546:Drivers/STM32F4xx_StdPeriph_Driver/src/stm32f4xx_cryp_aes.c ****     keyaddr+=4;
 547:Drivers/STM32F4xx_StdPeriph_Driver/src/stm32f4xx_cryp_aes.c ****     AES_CRYP_KeyInitStructure.CRYP_Key1Left = __REV(*(uint32_t*)(keyaddr));
 548:Drivers/STM32F4xx_StdPeriph_Driver/src/stm32f4xx_cryp_aes.c ****     keyaddr+=4;
 549:Drivers/STM32F4xx_StdPeriph_Driver/src/stm32f4xx_cryp_aes.c ****     AES_CRYP_KeyInitStructure.CRYP_Key1Right= __REV(*(uint32_t*)(keyaddr));
 550:Drivers/STM32F4xx_StdPeriph_Driver/src/stm32f4xx_cryp_aes.c ****     keyaddr+=4;
 551:Drivers/STM32F4xx_StdPeriph_Driver/src/stm32f4xx_cryp_aes.c ****     AES_CRYP_KeyInitStructure.CRYP_Key2Left = __REV(*(uint32_t*)(keyaddr));
 552:Drivers/STM32F4xx_StdPeriph_Driver/src/stm32f4xx_cryp_aes.c ****     keyaddr+=4;
 553:Drivers/STM32F4xx_StdPeriph_Driver/src/stm32f4xx_cryp_aes.c ****     AES_CRYP_KeyInitStructure.CRYP_Key2Right= __REV(*(uint32_t*)(keyaddr));
 554:Drivers/STM32F4xx_StdPeriph_Driver/src/stm32f4xx_cryp_aes.c ****     keyaddr+=4;
 555:Drivers/STM32F4xx_StdPeriph_Driver/src/stm32f4xx_cryp_aes.c ****     AES_CRYP_KeyInitStructure.CRYP_Key3Left = __REV(*(uint32_t*)(keyaddr));
 556:Drivers/STM32F4xx_StdPeriph_Driver/src/stm32f4xx_cryp_aes.c ****     keyaddr+=4;
 557:Drivers/STM32F4xx_StdPeriph_Driver/src/stm32f4xx_cryp_aes.c ****     AES_CRYP_KeyInitStructure.CRYP_Key3Right= __REV(*(uint32_t*)(keyaddr));
ARM GAS  /tmp/ccjGnpiF.s 			page 50


 558:Drivers/STM32F4xx_StdPeriph_Driver/src/stm32f4xx_cryp_aes.c ****     break;
 559:Drivers/STM32F4xx_StdPeriph_Driver/src/stm32f4xx_cryp_aes.c ****     default:
 560:Drivers/STM32F4xx_StdPeriph_Driver/src/stm32f4xx_cryp_aes.c ****     break;
 561:Drivers/STM32F4xx_StdPeriph_Driver/src/stm32f4xx_cryp_aes.c ****   }
 562:Drivers/STM32F4xx_StdPeriph_Driver/src/stm32f4xx_cryp_aes.c ****   /* CRYP Initialization Vectors */
 563:Drivers/STM32F4xx_StdPeriph_Driver/src/stm32f4xx_cryp_aes.c ****   AES_CRYP_IVInitStructure.CRYP_IV0Left = __REV(*(uint32_t*)(ivaddr));
 1495              		.loc 1 563 3 view .LVU576
 1496              		.loc 1 563 43 is_stmt 0 view .LVU577
 1497 0032 2B68     		ldr	r3, [r5]
 1498              	.LVL208:
 1499              	.LBB310:
 1500              	.LBI310:
 495:Drivers/CMSIS/Include/core_cmInstr.h **** {
 1501              		.loc 2 495 57 is_stmt 1 view .LVU578
 1502              	.LBB311:
 1503              		.loc 2 498 3 view .LVU579
 1504              		.loc 2 498 10 is_stmt 0 view .LVU580
 1505 0034 1BBA     		rev	r3, r3
 1506              	.LVL209:
 1507              		.loc 2 498 10 view .LVU581
 1508              	.LBE311:
 1509              	.LBE310:
 1510              		.loc 1 563 41 view .LVU582
 1511 0036 0293     		str	r3, [sp, #8]
 564:Drivers/STM32F4xx_StdPeriph_Driver/src/stm32f4xx_cryp_aes.c ****   ivaddr+=4;
 1512              		.loc 1 564 3 is_stmt 1 view .LVU583
 1513              	.LVL210:
 565:Drivers/STM32F4xx_StdPeriph_Driver/src/stm32f4xx_cryp_aes.c ****   AES_CRYP_IVInitStructure.CRYP_IV0Right= __REV(*(uint32_t*)(ivaddr));
 1514              		.loc 1 565 3 view .LVU584
 1515              		.loc 1 565 43 is_stmt 0 view .LVU585
 1516 0038 6B68     		ldr	r3, [r5, #4]
 1517              	.LVL211:
 1518              	.LBB312:
 1519              	.LBI312:
 495:Drivers/CMSIS/Include/core_cmInstr.h **** {
 1520              		.loc 2 495 57 is_stmt 1 view .LVU586
 1521              	.LBB313:
 1522              		.loc 2 498 3 view .LVU587
 1523              		.loc 2 498 10 is_stmt 0 view .LVU588
 1524 003a 1BBA     		rev	r3, r3
 1525              	.LVL212:
 1526              		.loc 2 498 10 view .LVU589
 1527              	.LBE313:
 1528              	.LBE312:
 1529              		.loc 1 565 41 view .LVU590
 1530 003c 0393     		str	r3, [sp, #12]
 566:Drivers/STM32F4xx_StdPeriph_Driver/src/stm32f4xx_cryp_aes.c ****   ivaddr+=4;
 1531              		.loc 1 566 3 is_stmt 1 view .LVU591
 1532              	.LVL213:
 567:Drivers/STM32F4xx_StdPeriph_Driver/src/stm32f4xx_cryp_aes.c ****   AES_CRYP_IVInitStructure.CRYP_IV1Left = __REV(*(uint32_t*)(ivaddr));
 1533              		.loc 1 567 3 view .LVU592
 1534              		.loc 1 567 43 is_stmt 0 view .LVU593
 1535 003e AB68     		ldr	r3, [r5, #8]
 1536              	.LVL214:
 1537              	.LBB314:
 1538              	.LBI314:
 495:Drivers/CMSIS/Include/core_cmInstr.h **** {
ARM GAS  /tmp/ccjGnpiF.s 			page 51


 1539              		.loc 2 495 57 is_stmt 1 view .LVU594
 1540              	.LBB315:
 1541              		.loc 2 498 3 view .LVU595
 1542              		.loc 2 498 10 is_stmt 0 view .LVU596
 1543 0040 1BBA     		rev	r3, r3
 1544              	.LVL215:
 1545              		.loc 2 498 10 view .LVU597
 1546              	.LBE315:
 1547              	.LBE314:
 1548              		.loc 1 567 41 view .LVU598
 1549 0042 0493     		str	r3, [sp, #16]
 568:Drivers/STM32F4xx_StdPeriph_Driver/src/stm32f4xx_cryp_aes.c ****   ivaddr+=4;
 1550              		.loc 1 568 3 is_stmt 1 view .LVU599
 1551              	.LVL216:
 569:Drivers/STM32F4xx_StdPeriph_Driver/src/stm32f4xx_cryp_aes.c ****   AES_CRYP_IVInitStructure.CRYP_IV1Right= __REV(*(uint32_t*)(ivaddr));
 1552              		.loc 1 569 3 view .LVU600
 1553              		.loc 1 569 43 is_stmt 0 view .LVU601
 1554 0044 EB68     		ldr	r3, [r5, #12]
 1555              	.LVL217:
 1556              	.LBB316:
 1557              	.LBI316:
 495:Drivers/CMSIS/Include/core_cmInstr.h **** {
 1558              		.loc 2 495 57 is_stmt 1 view .LVU602
 1559              	.LBB317:
 1560              		.loc 2 498 3 view .LVU603
 1561              		.loc 2 498 10 is_stmt 0 view .LVU604
 1562 0046 1BBA     		rev	r3, r3
 1563              	.LVL218:
 1564              		.loc 2 498 10 view .LVU605
 1565              	.LBE317:
 1566              	.LBE316:
 1567              		.loc 1 569 41 view .LVU606
 1568 0048 0593     		str	r3, [sp, #20]
 570:Drivers/STM32F4xx_StdPeriph_Driver/src/stm32f4xx_cryp_aes.c **** 
 571:Drivers/STM32F4xx_StdPeriph_Driver/src/stm32f4xx_cryp_aes.c ****   /* Key Initialisation */
 572:Drivers/STM32F4xx_StdPeriph_Driver/src/stm32f4xx_cryp_aes.c ****   CRYP_KeyInit(&AES_CRYP_KeyInitStructure);
 1569              		.loc 1 572 3 is_stmt 1 view .LVU607
 1570 004a 06A8     		add	r0, sp, #24
 1571 004c FFF7FEFF 		bl	CRYP_KeyInit
 1572              	.LVL219:
 573:Drivers/STM32F4xx_StdPeriph_Driver/src/stm32f4xx_cryp_aes.c **** 
 574:Drivers/STM32F4xx_StdPeriph_Driver/src/stm32f4xx_cryp_aes.c ****   /*------------------ AES Decryption ------------------*/
 575:Drivers/STM32F4xx_StdPeriph_Driver/src/stm32f4xx_cryp_aes.c ****   if(Mode == MODE_DECRYPT) /* AES decryption */
 1573              		.loc 1 575 3 view .LVU608
 1574              		.loc 1 575 5 is_stmt 0 view .LVU609
 1575 0050 BAF1000F 		cmp	r10, #0
 1576 0054 59D1     		bne	.L43
 576:Drivers/STM32F4xx_StdPeriph_Driver/src/stm32f4xx_cryp_aes.c ****   {
 577:Drivers/STM32F4xx_StdPeriph_Driver/src/stm32f4xx_cryp_aes.c ****     /* Crypto Init for decryption process */
 578:Drivers/STM32F4xx_StdPeriph_Driver/src/stm32f4xx_cryp_aes.c ****     AES_CRYP_InitStructure.CRYP_AlgoDir = CRYP_AlgoDir_Decrypt;
 1577              		.loc 1 578 5 is_stmt 1 view .LVU610
 1578              		.loc 1 578 41 is_stmt 0 view .LVU611
 1579 0056 0423     		movs	r3, #4
 1580 0058 0E93     		str	r3, [sp, #56]
 1581              	.L44:
 579:Drivers/STM32F4xx_StdPeriph_Driver/src/stm32f4xx_cryp_aes.c ****   }
 580:Drivers/STM32F4xx_StdPeriph_Driver/src/stm32f4xx_cryp_aes.c ****   /*------------------ AES Encryption ------------------*/
ARM GAS  /tmp/ccjGnpiF.s 			page 52


 581:Drivers/STM32F4xx_StdPeriph_Driver/src/stm32f4xx_cryp_aes.c ****   else /* AES encryption */
 582:Drivers/STM32F4xx_StdPeriph_Driver/src/stm32f4xx_cryp_aes.c ****   {
 583:Drivers/STM32F4xx_StdPeriph_Driver/src/stm32f4xx_cryp_aes.c ****     /* Crypto Init for Encryption process */
 584:Drivers/STM32F4xx_StdPeriph_Driver/src/stm32f4xx_cryp_aes.c ****     AES_CRYP_InitStructure.CRYP_AlgoDir = CRYP_AlgoDir_Encrypt;
 585:Drivers/STM32F4xx_StdPeriph_Driver/src/stm32f4xx_cryp_aes.c ****   }
 586:Drivers/STM32F4xx_StdPeriph_Driver/src/stm32f4xx_cryp_aes.c ****   AES_CRYP_InitStructure.CRYP_AlgoMode = CRYP_AlgoMode_AES_CTR;
 1582              		.loc 1 586 3 is_stmt 1 view .LVU612
 1583              		.loc 1 586 40 is_stmt 0 view .LVU613
 1584 005a 3023     		movs	r3, #48
 1585 005c 0F93     		str	r3, [sp, #60]
 587:Drivers/STM32F4xx_StdPeriph_Driver/src/stm32f4xx_cryp_aes.c ****   AES_CRYP_InitStructure.CRYP_DataType = CRYP_DataType_8b;
 1586              		.loc 1 587 3 is_stmt 1 view .LVU614
 1587              		.loc 1 587 40 is_stmt 0 view .LVU615
 1588 005e 8023     		movs	r3, #128
 1589 0060 1093     		str	r3, [sp, #64]
 588:Drivers/STM32F4xx_StdPeriph_Driver/src/stm32f4xx_cryp_aes.c ****   CRYP_Init(&AES_CRYP_InitStructure);
 1590              		.loc 1 588 3 is_stmt 1 view .LVU616
 1591 0062 0EA8     		add	r0, sp, #56
 1592 0064 FFF7FEFF 		bl	CRYP_Init
 1593              	.LVL220:
 589:Drivers/STM32F4xx_StdPeriph_Driver/src/stm32f4xx_cryp_aes.c **** 
 590:Drivers/STM32F4xx_StdPeriph_Driver/src/stm32f4xx_cryp_aes.c ****   /* CRYP Initialization Vectors */
 591:Drivers/STM32F4xx_StdPeriph_Driver/src/stm32f4xx_cryp_aes.c ****   CRYP_IVInit(&AES_CRYP_IVInitStructure);
 1594              		.loc 1 591 3 view .LVU617
 1595 0068 02A8     		add	r0, sp, #8
 1596 006a FFF7FEFF 		bl	CRYP_IVInit
 1597              	.LVL221:
 592:Drivers/STM32F4xx_StdPeriph_Driver/src/stm32f4xx_cryp_aes.c **** 
 593:Drivers/STM32F4xx_StdPeriph_Driver/src/stm32f4xx_cryp_aes.c ****   /* Flush IN/OUT FIFOs */
 594:Drivers/STM32F4xx_StdPeriph_Driver/src/stm32f4xx_cryp_aes.c ****   CRYP_FIFOFlush();
 1598              		.loc 1 594 3 view .LVU618
 1599 006e FFF7FEFF 		bl	CRYP_FIFOFlush
 1600              	.LVL222:
 595:Drivers/STM32F4xx_StdPeriph_Driver/src/stm32f4xx_cryp_aes.c **** 
 596:Drivers/STM32F4xx_StdPeriph_Driver/src/stm32f4xx_cryp_aes.c ****   /* Enable Crypto processor */
 597:Drivers/STM32F4xx_StdPeriph_Driver/src/stm32f4xx_cryp_aes.c ****   CRYP_Cmd(ENABLE);
 1601              		.loc 1 597 3 view .LVU619
 1602 0072 0120     		movs	r0, #1
 1603 0074 FFF7FEFF 		bl	CRYP_Cmd
 1604              	.LVL223:
 598:Drivers/STM32F4xx_StdPeriph_Driver/src/stm32f4xx_cryp_aes.c **** 
 599:Drivers/STM32F4xx_StdPeriph_Driver/src/stm32f4xx_cryp_aes.c ****   if(CRYP_GetCmdStatus() == DISABLE)
 1605              		.loc 1 599 3 view .LVU620
 1606              		.loc 1 599 6 is_stmt 0 view .LVU621
 1607 0078 FFF7FEFF 		bl	CRYP_GetCmdStatus
 1608              	.LVL224:
 1609              		.loc 1 599 5 view .LVU622
 1610 007c 0646     		mov	r6, r0
 1611              	.LVL225:
 1612              		.loc 1 599 5 view .LVU623
 1613 007e 0028     		cmp	r0, #0
 1614 0080 79D0     		beq	.L45
 600:Drivers/STM32F4xx_StdPeriph_Driver/src/stm32f4xx_cryp_aes.c ****   {
 601:Drivers/STM32F4xx_StdPeriph_Driver/src/stm32f4xx_cryp_aes.c ****     /* The CRYP peripheral clock is not enabled or the device doesn't embed 
 602:Drivers/STM32F4xx_StdPeriph_Driver/src/stm32f4xx_cryp_aes.c ****        the CRYP peripheral (please check the device sales type. */
 603:Drivers/STM32F4xx_StdPeriph_Driver/src/stm32f4xx_cryp_aes.c ****     return(ERROR);
 604:Drivers/STM32F4xx_StdPeriph_Driver/src/stm32f4xx_cryp_aes.c ****   }
ARM GAS  /tmp/ccjGnpiF.s 			page 53


 605:Drivers/STM32F4xx_StdPeriph_Driver/src/stm32f4xx_cryp_aes.c ****   
 606:Drivers/STM32F4xx_StdPeriph_Driver/src/stm32f4xx_cryp_aes.c ****   for(i=0; ((i<Ilength) && (status != ERROR)); i+=16)
 1615              		.loc 1 606 8 view .LVU624
 1616 0082 0025     		movs	r5, #0
 1617              	.LVL226:
 505:Drivers/STM32F4xx_StdPeriph_Driver/src/stm32f4xx_cryp_aes.c ****   uint32_t keyaddr    = (uint32_t)Key;
 1618              		.loc 1 505 15 view .LVU625
 1619 0084 0126     		movs	r6, #1
 1620 0086 46E0     		b	.L46
 1621              	.LVL227:
 1622              	.L54:
 518:Drivers/STM32F4xx_StdPeriph_Driver/src/stm32f4xx_cryp_aes.c ****     AES_CRYP_KeyInitStructure.CRYP_Key2Left = __REV(*(uint32_t*)(keyaddr));
 1623              		.loc 1 518 5 is_stmt 1 view .LVU626
 518:Drivers/STM32F4xx_StdPeriph_Driver/src/stm32f4xx_cryp_aes.c ****     AES_CRYP_KeyInitStructure.CRYP_Key2Left = __REV(*(uint32_t*)(keyaddr));
 1624              		.loc 1 518 41 is_stmt 0 view .LVU627
 1625 0088 0023     		movs	r3, #0
 1626 008a 1193     		str	r3, [sp, #68]
 519:Drivers/STM32F4xx_StdPeriph_Driver/src/stm32f4xx_cryp_aes.c ****     keyaddr+=4;
 1627              		.loc 1 519 5 is_stmt 1 view .LVU628
 519:Drivers/STM32F4xx_StdPeriph_Driver/src/stm32f4xx_cryp_aes.c ****     keyaddr+=4;
 1628              		.loc 1 519 47 is_stmt 0 view .LVU629
 1629 008c 3368     		ldr	r3, [r6]
 1630              	.LVL228:
 1631              	.LBB318:
 1632              	.LBI318:
 495:Drivers/CMSIS/Include/core_cmInstr.h **** {
 1633              		.loc 2 495 57 is_stmt 1 view .LVU630
 1634              	.LBB319:
 1635              		.loc 2 498 3 view .LVU631
 1636              		.loc 2 498 10 is_stmt 0 view .LVU632
 1637 008e 1BBA     		rev	r3, r3
 1638              	.LVL229:
 1639              		.loc 2 498 10 view .LVU633
 1640              	.LBE319:
 1641              	.LBE318:
 519:Drivers/STM32F4xx_StdPeriph_Driver/src/stm32f4xx_cryp_aes.c ****     keyaddr+=4;
 1642              		.loc 1 519 45 view .LVU634
 1643 0090 0A93     		str	r3, [sp, #40]
 520:Drivers/STM32F4xx_StdPeriph_Driver/src/stm32f4xx_cryp_aes.c ****     AES_CRYP_KeyInitStructure.CRYP_Key2Right= __REV(*(uint32_t*)(keyaddr));
 1644              		.loc 1 520 5 is_stmt 1 view .LVU635
 1645              	.LVL230:
 521:Drivers/STM32F4xx_StdPeriph_Driver/src/stm32f4xx_cryp_aes.c ****     keyaddr+=4;
 1646              		.loc 1 521 5 view .LVU636
 521:Drivers/STM32F4xx_StdPeriph_Driver/src/stm32f4xx_cryp_aes.c ****     keyaddr+=4;
 1647              		.loc 1 521 47 is_stmt 0 view .LVU637
 1648 0092 7368     		ldr	r3, [r6, #4]
 1649              	.LVL231:
 1650              	.LBB320:
 1651              	.LBI320:
 495:Drivers/CMSIS/Include/core_cmInstr.h **** {
 1652              		.loc 2 495 57 is_stmt 1 view .LVU638
 1653              	.LBB321:
 1654              		.loc 2 498 3 view .LVU639
 1655              		.loc 2 498 10 is_stmt 0 view .LVU640
 1656 0094 1BBA     		rev	r3, r3
 1657              	.LVL232:
 1658              		.loc 2 498 10 view .LVU641
ARM GAS  /tmp/ccjGnpiF.s 			page 54


 1659              	.LBE321:
 1660              	.LBE320:
 521:Drivers/STM32F4xx_StdPeriph_Driver/src/stm32f4xx_cryp_aes.c ****     keyaddr+=4;
 1661              		.loc 1 521 45 view .LVU642
 1662 0096 0B93     		str	r3, [sp, #44]
 522:Drivers/STM32F4xx_StdPeriph_Driver/src/stm32f4xx_cryp_aes.c ****     AES_CRYP_KeyInitStructure.CRYP_Key3Left = __REV(*(uint32_t*)(keyaddr));
 1663              		.loc 1 522 5 is_stmt 1 view .LVU643
 1664              	.LVL233:
 523:Drivers/STM32F4xx_StdPeriph_Driver/src/stm32f4xx_cryp_aes.c ****     keyaddr+=4;
 1665              		.loc 1 523 5 view .LVU644
 523:Drivers/STM32F4xx_StdPeriph_Driver/src/stm32f4xx_cryp_aes.c ****     keyaddr+=4;
 1666              		.loc 1 523 47 is_stmt 0 view .LVU645
 1667 0098 B368     		ldr	r3, [r6, #8]
 1668              	.LVL234:
 1669              	.LBB322:
 1670              	.LBI322:
 495:Drivers/CMSIS/Include/core_cmInstr.h **** {
 1671              		.loc 2 495 57 is_stmt 1 view .LVU646
 1672              	.LBB323:
 1673              		.loc 2 498 3 view .LVU647
 1674              		.loc 2 498 10 is_stmt 0 view .LVU648
 1675 009a 1BBA     		rev	r3, r3
 1676              	.LVL235:
 1677              		.loc 2 498 10 view .LVU649
 1678              	.LBE323:
 1679              	.LBE322:
 523:Drivers/STM32F4xx_StdPeriph_Driver/src/stm32f4xx_cryp_aes.c ****     keyaddr+=4;
 1680              		.loc 1 523 45 view .LVU650
 1681 009c 0C93     		str	r3, [sp, #48]
 524:Drivers/STM32F4xx_StdPeriph_Driver/src/stm32f4xx_cryp_aes.c ****     AES_CRYP_KeyInitStructure.CRYP_Key3Right= __REV(*(uint32_t*)(keyaddr));
 1682              		.loc 1 524 5 is_stmt 1 view .LVU651
 1683              	.LVL236:
 525:Drivers/STM32F4xx_StdPeriph_Driver/src/stm32f4xx_cryp_aes.c ****     break;
 1684              		.loc 1 525 5 view .LVU652
 525:Drivers/STM32F4xx_StdPeriph_Driver/src/stm32f4xx_cryp_aes.c ****     break;
 1685              		.loc 1 525 47 is_stmt 0 view .LVU653
 1686 009e F368     		ldr	r3, [r6, #12]
 1687              	.LVL237:
 1688              	.LBB324:
 1689              	.LBI324:
 495:Drivers/CMSIS/Include/core_cmInstr.h **** {
 1690              		.loc 2 495 57 is_stmt 1 view .LVU654
 1691              	.LBB325:
 1692              		.loc 2 498 3 view .LVU655
 1693              		.loc 2 498 10 is_stmt 0 view .LVU656
 1694 00a0 1BBA     		rev	r3, r3
 1695              	.LVL238:
 1696              		.loc 2 498 10 view .LVU657
 1697              	.LBE325:
 1698              	.LBE324:
 525:Drivers/STM32F4xx_StdPeriph_Driver/src/stm32f4xx_cryp_aes.c ****     break;
 1699              		.loc 1 525 45 view .LVU658
 1700 00a2 0D93     		str	r3, [sp, #52]
 526:Drivers/STM32F4xx_StdPeriph_Driver/src/stm32f4xx_cryp_aes.c ****     case 192:
 1701              		.loc 1 526 5 is_stmt 1 view .LVU659
 1702 00a4 C5E7     		b	.L42
 1703              	.LVL239:
ARM GAS  /tmp/ccjGnpiF.s 			page 55


 1704              	.L40:
 528:Drivers/STM32F4xx_StdPeriph_Driver/src/stm32f4xx_cryp_aes.c ****     AES_CRYP_KeyInitStructure.CRYP_Key1Left = __REV(*(uint32_t*)(keyaddr));
 1705              		.loc 1 528 5 view .LVU660
 528:Drivers/STM32F4xx_StdPeriph_Driver/src/stm32f4xx_cryp_aes.c ****     AES_CRYP_KeyInitStructure.CRYP_Key1Left = __REV(*(uint32_t*)(keyaddr));
 1706              		.loc 1 528 42 is_stmt 0 view .LVU661
 1707 00a6 4FF48073 		mov	r3, #256
 1708 00aa 1193     		str	r3, [sp, #68]
 529:Drivers/STM32F4xx_StdPeriph_Driver/src/stm32f4xx_cryp_aes.c ****     keyaddr+=4;
 1709              		.loc 1 529 5 is_stmt 1 view .LVU662
 529:Drivers/STM32F4xx_StdPeriph_Driver/src/stm32f4xx_cryp_aes.c ****     keyaddr+=4;
 1710              		.loc 1 529 47 is_stmt 0 view .LVU663
 1711 00ac 3368     		ldr	r3, [r6]
 1712              	.LVL240:
 1713              	.LBB326:
 1714              	.LBI326:
 495:Drivers/CMSIS/Include/core_cmInstr.h **** {
 1715              		.loc 2 495 57 is_stmt 1 view .LVU664
 1716              	.LBB327:
 1717              		.loc 2 498 3 view .LVU665
 1718              		.loc 2 498 10 is_stmt 0 view .LVU666
 1719 00ae 1BBA     		rev	r3, r3
 1720              	.LVL241:
 1721              		.loc 2 498 10 view .LVU667
 1722              	.LBE327:
 1723              	.LBE326:
 529:Drivers/STM32F4xx_StdPeriph_Driver/src/stm32f4xx_cryp_aes.c ****     keyaddr+=4;
 1724              		.loc 1 529 45 view .LVU668
 1725 00b0 0893     		str	r3, [sp, #32]
 530:Drivers/STM32F4xx_StdPeriph_Driver/src/stm32f4xx_cryp_aes.c ****     AES_CRYP_KeyInitStructure.CRYP_Key1Right= __REV(*(uint32_t*)(keyaddr));
 1726              		.loc 1 530 5 is_stmt 1 view .LVU669
 1727              	.LVL242:
 531:Drivers/STM32F4xx_StdPeriph_Driver/src/stm32f4xx_cryp_aes.c ****     keyaddr+=4;
 1728              		.loc 1 531 5 view .LVU670
 531:Drivers/STM32F4xx_StdPeriph_Driver/src/stm32f4xx_cryp_aes.c ****     keyaddr+=4;
 1729              		.loc 1 531 47 is_stmt 0 view .LVU671
 1730 00b2 7368     		ldr	r3, [r6, #4]
 1731              	.LVL243:
 1732              	.LBB328:
 1733              	.LBI328:
 495:Drivers/CMSIS/Include/core_cmInstr.h **** {
 1734              		.loc 2 495 57 is_stmt 1 view .LVU672
 1735              	.LBB329:
 1736              		.loc 2 498 3 view .LVU673
 1737              		.loc 2 498 10 is_stmt 0 view .LVU674
 1738 00b4 1BBA     		rev	r3, r3
 1739              	.LVL244:
 1740              		.loc 2 498 10 view .LVU675
 1741              	.LBE329:
 1742              	.LBE328:
 531:Drivers/STM32F4xx_StdPeriph_Driver/src/stm32f4xx_cryp_aes.c ****     keyaddr+=4;
 1743              		.loc 1 531 45 view .LVU676
 1744 00b6 0993     		str	r3, [sp, #36]
 532:Drivers/STM32F4xx_StdPeriph_Driver/src/stm32f4xx_cryp_aes.c ****     AES_CRYP_KeyInitStructure.CRYP_Key2Left = __REV(*(uint32_t*)(keyaddr));
 1745              		.loc 1 532 5 is_stmt 1 view .LVU677
 1746              	.LVL245:
 533:Drivers/STM32F4xx_StdPeriph_Driver/src/stm32f4xx_cryp_aes.c ****     keyaddr+=4;
 1747              		.loc 1 533 5 view .LVU678
ARM GAS  /tmp/ccjGnpiF.s 			page 56


 533:Drivers/STM32F4xx_StdPeriph_Driver/src/stm32f4xx_cryp_aes.c ****     keyaddr+=4;
 1748              		.loc 1 533 47 is_stmt 0 view .LVU679
 1749 00b8 B368     		ldr	r3, [r6, #8]
 1750              	.LVL246:
 1751              	.LBB330:
 1752              	.LBI330:
 495:Drivers/CMSIS/Include/core_cmInstr.h **** {
 1753              		.loc 2 495 57 is_stmt 1 view .LVU680
 1754              	.LBB331:
 1755              		.loc 2 498 3 view .LVU681
 1756              		.loc 2 498 10 is_stmt 0 view .LVU682
 1757 00ba 1BBA     		rev	r3, r3
 1758              	.LVL247:
 1759              		.loc 2 498 10 view .LVU683
 1760              	.LBE331:
 1761              	.LBE330:
 533:Drivers/STM32F4xx_StdPeriph_Driver/src/stm32f4xx_cryp_aes.c ****     keyaddr+=4;
 1762              		.loc 1 533 45 view .LVU684
 1763 00bc 0A93     		str	r3, [sp, #40]
 534:Drivers/STM32F4xx_StdPeriph_Driver/src/stm32f4xx_cryp_aes.c ****     AES_CRYP_KeyInitStructure.CRYP_Key2Right= __REV(*(uint32_t*)(keyaddr));
 1764              		.loc 1 534 5 is_stmt 1 view .LVU685
 1765              	.LVL248:
 535:Drivers/STM32F4xx_StdPeriph_Driver/src/stm32f4xx_cryp_aes.c ****     keyaddr+=4;
 1766              		.loc 1 535 5 view .LVU686
 535:Drivers/STM32F4xx_StdPeriph_Driver/src/stm32f4xx_cryp_aes.c ****     keyaddr+=4;
 1767              		.loc 1 535 47 is_stmt 0 view .LVU687
 1768 00be F368     		ldr	r3, [r6, #12]
 1769              	.LVL249:
 1770              	.LBB332:
 1771              	.LBI332:
 495:Drivers/CMSIS/Include/core_cmInstr.h **** {
 1772              		.loc 2 495 57 is_stmt 1 view .LVU688
 1773              	.LBB333:
 1774              		.loc 2 498 3 view .LVU689
 1775              		.loc 2 498 10 is_stmt 0 view .LVU690
 1776 00c0 1BBA     		rev	r3, r3
 1777              	.LVL250:
 1778              		.loc 2 498 10 view .LVU691
 1779              	.LBE333:
 1780              	.LBE332:
 535:Drivers/STM32F4xx_StdPeriph_Driver/src/stm32f4xx_cryp_aes.c ****     keyaddr+=4;
 1781              		.loc 1 535 45 view .LVU692
 1782 00c2 0B93     		str	r3, [sp, #44]
 536:Drivers/STM32F4xx_StdPeriph_Driver/src/stm32f4xx_cryp_aes.c ****     AES_CRYP_KeyInitStructure.CRYP_Key3Left = __REV(*(uint32_t*)(keyaddr));
 1783              		.loc 1 536 5 is_stmt 1 view .LVU693
 1784              	.LVL251:
 537:Drivers/STM32F4xx_StdPeriph_Driver/src/stm32f4xx_cryp_aes.c ****     keyaddr+=4;
 1785              		.loc 1 537 5 view .LVU694
 537:Drivers/STM32F4xx_StdPeriph_Driver/src/stm32f4xx_cryp_aes.c ****     keyaddr+=4;
 1786              		.loc 1 537 47 is_stmt 0 view .LVU695
 1787 00c4 3369     		ldr	r3, [r6, #16]
 1788              	.LVL252:
 1789              	.LBB334:
 1790              	.LBI334:
 495:Drivers/CMSIS/Include/core_cmInstr.h **** {
 1791              		.loc 2 495 57 is_stmt 1 view .LVU696
 1792              	.LBB335:
ARM GAS  /tmp/ccjGnpiF.s 			page 57


 1793              		.loc 2 498 3 view .LVU697
 1794              		.loc 2 498 10 is_stmt 0 view .LVU698
 1795 00c6 1BBA     		rev	r3, r3
 1796              	.LVL253:
 1797              		.loc 2 498 10 view .LVU699
 1798              	.LBE335:
 1799              	.LBE334:
 537:Drivers/STM32F4xx_StdPeriph_Driver/src/stm32f4xx_cryp_aes.c ****     keyaddr+=4;
 1800              		.loc 1 537 45 view .LVU700
 1801 00c8 0C93     		str	r3, [sp, #48]
 538:Drivers/STM32F4xx_StdPeriph_Driver/src/stm32f4xx_cryp_aes.c ****     AES_CRYP_KeyInitStructure.CRYP_Key3Right= __REV(*(uint32_t*)(keyaddr));
 1802              		.loc 1 538 5 is_stmt 1 view .LVU701
 1803              	.LVL254:
 539:Drivers/STM32F4xx_StdPeriph_Driver/src/stm32f4xx_cryp_aes.c ****     break;
 1804              		.loc 1 539 5 view .LVU702
 539:Drivers/STM32F4xx_StdPeriph_Driver/src/stm32f4xx_cryp_aes.c ****     break;
 1805              		.loc 1 539 47 is_stmt 0 view .LVU703
 1806 00ca 7369     		ldr	r3, [r6, #20]
 1807              	.LVL255:
 1808              	.LBB336:
 1809              	.LBI336:
 495:Drivers/CMSIS/Include/core_cmInstr.h **** {
 1810              		.loc 2 495 57 is_stmt 1 view .LVU704
 1811              	.LBB337:
 1812              		.loc 2 498 3 view .LVU705
 1813              		.loc 2 498 10 is_stmt 0 view .LVU706
 1814 00cc 1BBA     		rev	r3, r3
 1815              	.LVL256:
 1816              		.loc 2 498 10 view .LVU707
 1817              	.LBE337:
 1818              	.LBE336:
 539:Drivers/STM32F4xx_StdPeriph_Driver/src/stm32f4xx_cryp_aes.c ****     break;
 1819              		.loc 1 539 45 view .LVU708
 1820 00ce 0D93     		str	r3, [sp, #52]
 540:Drivers/STM32F4xx_StdPeriph_Driver/src/stm32f4xx_cryp_aes.c ****     case 256:
 1821              		.loc 1 540 5 is_stmt 1 view .LVU709
 1822 00d0 AFE7     		b	.L42
 1823              	.LVL257:
 1824              	.L41:
 542:Drivers/STM32F4xx_StdPeriph_Driver/src/stm32f4xx_cryp_aes.c ****     AES_CRYP_KeyInitStructure.CRYP_Key0Left = __REV(*(uint32_t*)(keyaddr));
 1825              		.loc 1 542 5 view .LVU710
 542:Drivers/STM32F4xx_StdPeriph_Driver/src/stm32f4xx_cryp_aes.c ****     AES_CRYP_KeyInitStructure.CRYP_Key0Left = __REV(*(uint32_t*)(keyaddr));
 1826              		.loc 1 542 42 is_stmt 0 view .LVU711
 1827 00d2 4FF40073 		mov	r3, #512
 1828 00d6 1193     		str	r3, [sp, #68]
 543:Drivers/STM32F4xx_StdPeriph_Driver/src/stm32f4xx_cryp_aes.c ****     keyaddr+=4;
 1829              		.loc 1 543 5 is_stmt 1 view .LVU712
 543:Drivers/STM32F4xx_StdPeriph_Driver/src/stm32f4xx_cryp_aes.c ****     keyaddr+=4;
 1830              		.loc 1 543 47 is_stmt 0 view .LVU713
 1831 00d8 3368     		ldr	r3, [r6]
 1832              	.LVL258:
 1833              	.LBB338:
 1834              	.LBI338:
 495:Drivers/CMSIS/Include/core_cmInstr.h **** {
 1835              		.loc 2 495 57 is_stmt 1 view .LVU714
 1836              	.LBB339:
 1837              		.loc 2 498 3 view .LVU715
ARM GAS  /tmp/ccjGnpiF.s 			page 58


 1838              		.loc 2 498 10 is_stmt 0 view .LVU716
 1839 00da 1BBA     		rev	r3, r3
 1840              	.LVL259:
 1841              		.loc 2 498 10 view .LVU717
 1842              	.LBE339:
 1843              	.LBE338:
 543:Drivers/STM32F4xx_StdPeriph_Driver/src/stm32f4xx_cryp_aes.c ****     keyaddr+=4;
 1844              		.loc 1 543 45 view .LVU718
 1845 00dc 0693     		str	r3, [sp, #24]
 544:Drivers/STM32F4xx_StdPeriph_Driver/src/stm32f4xx_cryp_aes.c ****     AES_CRYP_KeyInitStructure.CRYP_Key0Right= __REV(*(uint32_t*)(keyaddr));
 1846              		.loc 1 544 5 is_stmt 1 view .LVU719
 1847              	.LVL260:
 545:Drivers/STM32F4xx_StdPeriph_Driver/src/stm32f4xx_cryp_aes.c ****     keyaddr+=4;
 1848              		.loc 1 545 5 view .LVU720
 545:Drivers/STM32F4xx_StdPeriph_Driver/src/stm32f4xx_cryp_aes.c ****     keyaddr+=4;
 1849              		.loc 1 545 47 is_stmt 0 view .LVU721
 1850 00de 7368     		ldr	r3, [r6, #4]
 1851              	.LVL261:
 1852              	.LBB340:
 1853              	.LBI340:
 495:Drivers/CMSIS/Include/core_cmInstr.h **** {
 1854              		.loc 2 495 57 is_stmt 1 view .LVU722
 1855              	.LBB341:
 1856              		.loc 2 498 3 view .LVU723
 1857              		.loc 2 498 10 is_stmt 0 view .LVU724
 1858 00e0 1BBA     		rev	r3, r3
 1859              	.LVL262:
 1860              		.loc 2 498 10 view .LVU725
 1861              	.LBE341:
 1862              	.LBE340:
 545:Drivers/STM32F4xx_StdPeriph_Driver/src/stm32f4xx_cryp_aes.c ****     keyaddr+=4;
 1863              		.loc 1 545 45 view .LVU726
 1864 00e2 0793     		str	r3, [sp, #28]
 546:Drivers/STM32F4xx_StdPeriph_Driver/src/stm32f4xx_cryp_aes.c ****     AES_CRYP_KeyInitStructure.CRYP_Key1Left = __REV(*(uint32_t*)(keyaddr));
 1865              		.loc 1 546 5 is_stmt 1 view .LVU727
 1866              	.LVL263:
 547:Drivers/STM32F4xx_StdPeriph_Driver/src/stm32f4xx_cryp_aes.c ****     keyaddr+=4;
 1867              		.loc 1 547 5 view .LVU728
 547:Drivers/STM32F4xx_StdPeriph_Driver/src/stm32f4xx_cryp_aes.c ****     keyaddr+=4;
 1868              		.loc 1 547 47 is_stmt 0 view .LVU729
 1869 00e4 B368     		ldr	r3, [r6, #8]
 1870              	.LVL264:
 1871              	.LBB342:
 1872              	.LBI342:
 495:Drivers/CMSIS/Include/core_cmInstr.h **** {
 1873              		.loc 2 495 57 is_stmt 1 view .LVU730
 1874              	.LBB343:
 1875              		.loc 2 498 3 view .LVU731
 1876              		.loc 2 498 10 is_stmt 0 view .LVU732
 1877 00e6 1BBA     		rev	r3, r3
 1878              	.LVL265:
 1879              		.loc 2 498 10 view .LVU733
 1880              	.LBE343:
 1881              	.LBE342:
 547:Drivers/STM32F4xx_StdPeriph_Driver/src/stm32f4xx_cryp_aes.c ****     keyaddr+=4;
 1882              		.loc 1 547 45 view .LVU734
 1883 00e8 0893     		str	r3, [sp, #32]
ARM GAS  /tmp/ccjGnpiF.s 			page 59


 548:Drivers/STM32F4xx_StdPeriph_Driver/src/stm32f4xx_cryp_aes.c ****     AES_CRYP_KeyInitStructure.CRYP_Key1Right= __REV(*(uint32_t*)(keyaddr));
 1884              		.loc 1 548 5 is_stmt 1 view .LVU735
 1885              	.LVL266:
 549:Drivers/STM32F4xx_StdPeriph_Driver/src/stm32f4xx_cryp_aes.c ****     keyaddr+=4;
 1886              		.loc 1 549 5 view .LVU736
 549:Drivers/STM32F4xx_StdPeriph_Driver/src/stm32f4xx_cryp_aes.c ****     keyaddr+=4;
 1887              		.loc 1 549 47 is_stmt 0 view .LVU737
 1888 00ea F368     		ldr	r3, [r6, #12]
 1889              	.LVL267:
 1890              	.LBB344:
 1891              	.LBI344:
 495:Drivers/CMSIS/Include/core_cmInstr.h **** {
 1892              		.loc 2 495 57 is_stmt 1 view .LVU738
 1893              	.LBB345:
 1894              		.loc 2 498 3 view .LVU739
 1895              		.loc 2 498 10 is_stmt 0 view .LVU740
 1896 00ec 1BBA     		rev	r3, r3
 1897              	.LVL268:
 1898              		.loc 2 498 10 view .LVU741
 1899              	.LBE345:
 1900              	.LBE344:
 549:Drivers/STM32F4xx_StdPeriph_Driver/src/stm32f4xx_cryp_aes.c ****     keyaddr+=4;
 1901              		.loc 1 549 45 view .LVU742
 1902 00ee 0993     		str	r3, [sp, #36]
 550:Drivers/STM32F4xx_StdPeriph_Driver/src/stm32f4xx_cryp_aes.c ****     AES_CRYP_KeyInitStructure.CRYP_Key2Left = __REV(*(uint32_t*)(keyaddr));
 1903              		.loc 1 550 5 is_stmt 1 view .LVU743
 1904              	.LVL269:
 551:Drivers/STM32F4xx_StdPeriph_Driver/src/stm32f4xx_cryp_aes.c ****     keyaddr+=4;
 1905              		.loc 1 551 5 view .LVU744
 551:Drivers/STM32F4xx_StdPeriph_Driver/src/stm32f4xx_cryp_aes.c ****     keyaddr+=4;
 1906              		.loc 1 551 47 is_stmt 0 view .LVU745
 1907 00f0 3369     		ldr	r3, [r6, #16]
 1908              	.LVL270:
 1909              	.LBB346:
 1910              	.LBI346:
 495:Drivers/CMSIS/Include/core_cmInstr.h **** {
 1911              		.loc 2 495 57 is_stmt 1 view .LVU746
 1912              	.LBB347:
 1913              		.loc 2 498 3 view .LVU747
 1914              		.loc 2 498 10 is_stmt 0 view .LVU748
 1915 00f2 1BBA     		rev	r3, r3
 1916              	.LVL271:
 1917              		.loc 2 498 10 view .LVU749
 1918              	.LBE347:
 1919              	.LBE346:
 551:Drivers/STM32F4xx_StdPeriph_Driver/src/stm32f4xx_cryp_aes.c ****     keyaddr+=4;
 1920              		.loc 1 551 45 view .LVU750
 1921 00f4 0A93     		str	r3, [sp, #40]
 552:Drivers/STM32F4xx_StdPeriph_Driver/src/stm32f4xx_cryp_aes.c ****     AES_CRYP_KeyInitStructure.CRYP_Key2Right= __REV(*(uint32_t*)(keyaddr));
 1922              		.loc 1 552 5 is_stmt 1 view .LVU751
 1923              	.LVL272:
 553:Drivers/STM32F4xx_StdPeriph_Driver/src/stm32f4xx_cryp_aes.c ****     keyaddr+=4;
 1924              		.loc 1 553 5 view .LVU752
 553:Drivers/STM32F4xx_StdPeriph_Driver/src/stm32f4xx_cryp_aes.c ****     keyaddr+=4;
 1925              		.loc 1 553 47 is_stmt 0 view .LVU753
 1926 00f6 7369     		ldr	r3, [r6, #20]
 1927              	.LVL273:
ARM GAS  /tmp/ccjGnpiF.s 			page 60


 1928              	.LBB348:
 1929              	.LBI348:
 495:Drivers/CMSIS/Include/core_cmInstr.h **** {
 1930              		.loc 2 495 57 is_stmt 1 view .LVU754
 1931              	.LBB349:
 1932              		.loc 2 498 3 view .LVU755
 1933              		.loc 2 498 10 is_stmt 0 view .LVU756
 1934 00f8 1BBA     		rev	r3, r3
 1935              	.LVL274:
 1936              		.loc 2 498 10 view .LVU757
 1937              	.LBE349:
 1938              	.LBE348:
 553:Drivers/STM32F4xx_StdPeriph_Driver/src/stm32f4xx_cryp_aes.c ****     keyaddr+=4;
 1939              		.loc 1 553 45 view .LVU758
 1940 00fa 0B93     		str	r3, [sp, #44]
 554:Drivers/STM32F4xx_StdPeriph_Driver/src/stm32f4xx_cryp_aes.c ****     AES_CRYP_KeyInitStructure.CRYP_Key3Left = __REV(*(uint32_t*)(keyaddr));
 1941              		.loc 1 554 5 is_stmt 1 view .LVU759
 1942              	.LVL275:
 555:Drivers/STM32F4xx_StdPeriph_Driver/src/stm32f4xx_cryp_aes.c ****     keyaddr+=4;
 1943              		.loc 1 555 5 view .LVU760
 555:Drivers/STM32F4xx_StdPeriph_Driver/src/stm32f4xx_cryp_aes.c ****     keyaddr+=4;
 1944              		.loc 1 555 47 is_stmt 0 view .LVU761
 1945 00fc B369     		ldr	r3, [r6, #24]
 1946              	.LVL276:
 1947              	.LBB350:
 1948              	.LBI350:
 495:Drivers/CMSIS/Include/core_cmInstr.h **** {
 1949              		.loc 2 495 57 is_stmt 1 view .LVU762
 1950              	.LBB351:
 1951              		.loc 2 498 3 view .LVU763
 1952              		.loc 2 498 10 is_stmt 0 view .LVU764
 1953 00fe 1BBA     		rev	r3, r3
 1954              	.LVL277:
 1955              		.loc 2 498 10 view .LVU765
 1956              	.LBE351:
 1957              	.LBE350:
 555:Drivers/STM32F4xx_StdPeriph_Driver/src/stm32f4xx_cryp_aes.c ****     keyaddr+=4;
 1958              		.loc 1 555 45 view .LVU766
 1959 0100 0C93     		str	r3, [sp, #48]
 556:Drivers/STM32F4xx_StdPeriph_Driver/src/stm32f4xx_cryp_aes.c ****     AES_CRYP_KeyInitStructure.CRYP_Key3Right= __REV(*(uint32_t*)(keyaddr));
 1960              		.loc 1 556 5 is_stmt 1 view .LVU767
 1961              	.LVL278:
 557:Drivers/STM32F4xx_StdPeriph_Driver/src/stm32f4xx_cryp_aes.c ****     break;
 1962              		.loc 1 557 5 view .LVU768
 557:Drivers/STM32F4xx_StdPeriph_Driver/src/stm32f4xx_cryp_aes.c ****     break;
 1963              		.loc 1 557 47 is_stmt 0 view .LVU769
 1964 0102 F369     		ldr	r3, [r6, #28]
 1965              	.LVL279:
 1966              	.LBB352:
 1967              	.LBI352:
 495:Drivers/CMSIS/Include/core_cmInstr.h **** {
 1968              		.loc 2 495 57 is_stmt 1 view .LVU770
 1969              	.LBB353:
 1970              		.loc 2 498 3 view .LVU771
 1971              		.loc 2 498 10 is_stmt 0 view .LVU772
 1972 0104 1BBA     		rev	r3, r3
 1973              	.LVL280:
ARM GAS  /tmp/ccjGnpiF.s 			page 61


 1974              		.loc 2 498 10 view .LVU773
 1975              	.LBE353:
 1976              	.LBE352:
 557:Drivers/STM32F4xx_StdPeriph_Driver/src/stm32f4xx_cryp_aes.c ****     break;
 1977              		.loc 1 557 45 view .LVU774
 1978 0106 0D93     		str	r3, [sp, #52]
 558:Drivers/STM32F4xx_StdPeriph_Driver/src/stm32f4xx_cryp_aes.c ****     default:
 1979              		.loc 1 558 5 is_stmt 1 view .LVU775
 1980 0108 93E7     		b	.L42
 1981              	.LVL281:
 1982              	.L43:
 584:Drivers/STM32F4xx_StdPeriph_Driver/src/stm32f4xx_cryp_aes.c ****   }
 1983              		.loc 1 584 5 view .LVU776
 584:Drivers/STM32F4xx_StdPeriph_Driver/src/stm32f4xx_cryp_aes.c ****   }
 1984              		.loc 1 584 41 is_stmt 0 view .LVU777
 1985 010a 0023     		movs	r3, #0
 1986 010c 0E93     		str	r3, [sp, #56]
 1987 010e A4E7     		b	.L44
 1988              	.LVL282:
 1989              	.L47:
 607:Drivers/STM32F4xx_StdPeriph_Driver/src/stm32f4xx_cryp_aes.c ****   {
 608:Drivers/STM32F4xx_StdPeriph_Driver/src/stm32f4xx_cryp_aes.c **** 
 609:Drivers/STM32F4xx_StdPeriph_Driver/src/stm32f4xx_cryp_aes.c ****     /* Write the Input block in the IN FIFO */
 610:Drivers/STM32F4xx_StdPeriph_Driver/src/stm32f4xx_cryp_aes.c ****     CRYP_DataIn(*(uint32_t*)(inputaddr));
 611:Drivers/STM32F4xx_StdPeriph_Driver/src/stm32f4xx_cryp_aes.c ****     inputaddr+=4;
 612:Drivers/STM32F4xx_StdPeriph_Driver/src/stm32f4xx_cryp_aes.c ****     CRYP_DataIn(*(uint32_t*)(inputaddr));
 613:Drivers/STM32F4xx_StdPeriph_Driver/src/stm32f4xx_cryp_aes.c ****     inputaddr+=4;
 614:Drivers/STM32F4xx_StdPeriph_Driver/src/stm32f4xx_cryp_aes.c ****     CRYP_DataIn(*(uint32_t*)(inputaddr));
 615:Drivers/STM32F4xx_StdPeriph_Driver/src/stm32f4xx_cryp_aes.c ****     inputaddr+=4;
 616:Drivers/STM32F4xx_StdPeriph_Driver/src/stm32f4xx_cryp_aes.c ****     CRYP_DataIn(*(uint32_t*)(inputaddr));
 617:Drivers/STM32F4xx_StdPeriph_Driver/src/stm32f4xx_cryp_aes.c ****     inputaddr+=4;
 618:Drivers/STM32F4xx_StdPeriph_Driver/src/stm32f4xx_cryp_aes.c ****     /* Wait until the complete message has been processed */
 619:Drivers/STM32F4xx_StdPeriph_Driver/src/stm32f4xx_cryp_aes.c ****     counter = 0;
 620:Drivers/STM32F4xx_StdPeriph_Driver/src/stm32f4xx_cryp_aes.c ****     do
 621:Drivers/STM32F4xx_StdPeriph_Driver/src/stm32f4xx_cryp_aes.c ****     {
 622:Drivers/STM32F4xx_StdPeriph_Driver/src/stm32f4xx_cryp_aes.c ****       busystatus = CRYP_GetFlagStatus(CRYP_FLAG_BUSY);
 623:Drivers/STM32F4xx_StdPeriph_Driver/src/stm32f4xx_cryp_aes.c ****       counter++;
 624:Drivers/STM32F4xx_StdPeriph_Driver/src/stm32f4xx_cryp_aes.c ****     }while ((counter != AESBUSY_TIMEOUT) && (busystatus != RESET));
 625:Drivers/STM32F4xx_StdPeriph_Driver/src/stm32f4xx_cryp_aes.c **** 
 626:Drivers/STM32F4xx_StdPeriph_Driver/src/stm32f4xx_cryp_aes.c ****     if (busystatus != RESET)
 1990              		.loc 1 626 5 is_stmt 1 view .LVU778
 1991              		.loc 1 626 8 is_stmt 0 view .LVU779
 1992 0110 00B3     		cbz	r0, .L55
 627:Drivers/STM32F4xx_StdPeriph_Driver/src/stm32f4xx_cryp_aes.c ****    {
 628:Drivers/STM32F4xx_StdPeriph_Driver/src/stm32f4xx_cryp_aes.c ****        status = ERROR;
 1993              		.loc 1 628 15 view .LVU780
 1994 0112 0026     		movs	r6, #0
 1995              	.LVL283:
 1996              	.L49:
 606:Drivers/STM32F4xx_StdPeriph_Driver/src/stm32f4xx_cryp_aes.c ****   {
 1997              		.loc 1 606 48 is_stmt 1 discriminator 2 view .LVU781
 606:Drivers/STM32F4xx_StdPeriph_Driver/src/stm32f4xx_cryp_aes.c ****   {
 1998              		.loc 1 606 49 is_stmt 0 discriminator 2 view .LVU782
 1999 0114 1035     		adds	r5, r5, #16
 2000              	.LVL284:
 2001              	.L46:
 606:Drivers/STM32F4xx_StdPeriph_Driver/src/stm32f4xx_cryp_aes.c ****   {
ARM GAS  /tmp/ccjGnpiF.s 			page 62


 2002              		.loc 1 606 12 is_stmt 1 discriminator 1 view .LVU783
 606:Drivers/STM32F4xx_StdPeriph_Driver/src/stm32f4xx_cryp_aes.c ****   {
 2003              		.loc 1 606 3 is_stmt 0 discriminator 1 view .LVU784
 2004 0116 4545     		cmp	r5, r8
 2005 0118 2AD2     		bcs	.L50
 606:Drivers/STM32F4xx_StdPeriph_Driver/src/stm32f4xx_cryp_aes.c ****   {
 2006              		.loc 1 606 25 discriminator 3 view .LVU785
 2007 011a 4EB3     		cbz	r6, .L50
 610:Drivers/STM32F4xx_StdPeriph_Driver/src/stm32f4xx_cryp_aes.c ****     inputaddr+=4;
 2008              		.loc 1 610 5 is_stmt 1 view .LVU786
 2009 011c 2068     		ldr	r0, [r4]
 2010 011e FFF7FEFF 		bl	CRYP_DataIn
 2011              	.LVL285:
 611:Drivers/STM32F4xx_StdPeriph_Driver/src/stm32f4xx_cryp_aes.c ****     CRYP_DataIn(*(uint32_t*)(inputaddr));
 2012              		.loc 1 611 5 view .LVU787
 612:Drivers/STM32F4xx_StdPeriph_Driver/src/stm32f4xx_cryp_aes.c ****     inputaddr+=4;
 2013              		.loc 1 612 5 view .LVU788
 2014 0122 6068     		ldr	r0, [r4, #4]
 2015 0124 FFF7FEFF 		bl	CRYP_DataIn
 2016              	.LVL286:
 613:Drivers/STM32F4xx_StdPeriph_Driver/src/stm32f4xx_cryp_aes.c ****     CRYP_DataIn(*(uint32_t*)(inputaddr));
 2017              		.loc 1 613 5 view .LVU789
 614:Drivers/STM32F4xx_StdPeriph_Driver/src/stm32f4xx_cryp_aes.c ****     inputaddr+=4;
 2018              		.loc 1 614 5 view .LVU790
 2019 0128 A068     		ldr	r0, [r4, #8]
 2020 012a FFF7FEFF 		bl	CRYP_DataIn
 2021              	.LVL287:
 615:Drivers/STM32F4xx_StdPeriph_Driver/src/stm32f4xx_cryp_aes.c ****     CRYP_DataIn(*(uint32_t*)(inputaddr));
 2022              		.loc 1 615 5 view .LVU791
 616:Drivers/STM32F4xx_StdPeriph_Driver/src/stm32f4xx_cryp_aes.c ****     inputaddr+=4;
 2023              		.loc 1 616 5 view .LVU792
 2024 012e E068     		ldr	r0, [r4, #12]
 2025 0130 FFF7FEFF 		bl	CRYP_DataIn
 2026              	.LVL288:
 617:Drivers/STM32F4xx_StdPeriph_Driver/src/stm32f4xx_cryp_aes.c ****     /* Wait until the complete message has been processed */
 2027              		.loc 1 617 5 view .LVU793
 617:Drivers/STM32F4xx_StdPeriph_Driver/src/stm32f4xx_cryp_aes.c ****     /* Wait until the complete message has been processed */
 2028              		.loc 1 617 14 is_stmt 0 view .LVU794
 2029 0134 1034     		adds	r4, r4, #16
 2030              	.LVL289:
 619:Drivers/STM32F4xx_StdPeriph_Driver/src/stm32f4xx_cryp_aes.c ****     do
 2031              		.loc 1 619 5 is_stmt 1 view .LVU795
 619:Drivers/STM32F4xx_StdPeriph_Driver/src/stm32f4xx_cryp_aes.c ****     do
 2032              		.loc 1 619 13 is_stmt 0 view .LVU796
 2033 0136 0023     		movs	r3, #0
 2034 0138 0193     		str	r3, [sp, #4]
 2035              	.L48:
 620:Drivers/STM32F4xx_StdPeriph_Driver/src/stm32f4xx_cryp_aes.c ****     {
 2036              		.loc 1 620 5 is_stmt 1 discriminator 2 view .LVU797
 622:Drivers/STM32F4xx_StdPeriph_Driver/src/stm32f4xx_cryp_aes.c ****       counter++;
 2037              		.loc 1 622 7 discriminator 2 view .LVU798
 622:Drivers/STM32F4xx_StdPeriph_Driver/src/stm32f4xx_cryp_aes.c ****       counter++;
 2038              		.loc 1 622 20 is_stmt 0 discriminator 2 view .LVU799
 2039 013a 1020     		movs	r0, #16
 2040 013c FFF7FEFF 		bl	CRYP_GetFlagStatus
 2041              	.LVL290:
 623:Drivers/STM32F4xx_StdPeriph_Driver/src/stm32f4xx_cryp_aes.c ****     }while ((counter != AESBUSY_TIMEOUT) && (busystatus != RESET));
ARM GAS  /tmp/ccjGnpiF.s 			page 63


 2042              		.loc 1 623 7 is_stmt 1 discriminator 2 view .LVU800
 623:Drivers/STM32F4xx_StdPeriph_Driver/src/stm32f4xx_cryp_aes.c ****     }while ((counter != AESBUSY_TIMEOUT) && (busystatus != RESET));
 2043              		.loc 1 623 14 is_stmt 0 discriminator 2 view .LVU801
 2044 0140 019B     		ldr	r3, [sp, #4]
 2045 0142 0133     		adds	r3, r3, #1
 2046 0144 0193     		str	r3, [sp, #4]
 624:Drivers/STM32F4xx_StdPeriph_Driver/src/stm32f4xx_cryp_aes.c **** 
 2047              		.loc 1 624 12 is_stmt 1 discriminator 2 view .LVU802
 624:Drivers/STM32F4xx_StdPeriph_Driver/src/stm32f4xx_cryp_aes.c **** 
 2048              		.loc 1 624 22 is_stmt 0 discriminator 2 view .LVU803
 2049 0146 019B     		ldr	r3, [sp, #4]
 624:Drivers/STM32F4xx_StdPeriph_Driver/src/stm32f4xx_cryp_aes.c **** 
 2050              		.loc 1 624 5 discriminator 2 view .LVU804
 2051 0148 B3F5803F 		cmp	r3, #65536
 2052 014c E0D0     		beq	.L47
 624:Drivers/STM32F4xx_StdPeriph_Driver/src/stm32f4xx_cryp_aes.c **** 
 2053              		.loc 1 624 42 discriminator 1 view .LVU805
 2054 014e 0028     		cmp	r0, #0
 2055 0150 F3D1     		bne	.L48
 2056 0152 DDE7     		b	.L47
 2057              	.L55:
 629:Drivers/STM32F4xx_StdPeriph_Driver/src/stm32f4xx_cryp_aes.c ****     }
 630:Drivers/STM32F4xx_StdPeriph_Driver/src/stm32f4xx_cryp_aes.c ****     else
 631:Drivers/STM32F4xx_StdPeriph_Driver/src/stm32f4xx_cryp_aes.c ****     {
 632:Drivers/STM32F4xx_StdPeriph_Driver/src/stm32f4xx_cryp_aes.c **** 
 633:Drivers/STM32F4xx_StdPeriph_Driver/src/stm32f4xx_cryp_aes.c ****       /* Read the Output block from the Output FIFO */
 634:Drivers/STM32F4xx_StdPeriph_Driver/src/stm32f4xx_cryp_aes.c ****       *(uint32_t*)(outputaddr) = CRYP_DataOut();
 2058              		.loc 1 634 7 is_stmt 1 view .LVU806
 2059              		.loc 1 634 34 is_stmt 0 view .LVU807
 2060 0154 FFF7FEFF 		bl	CRYP_DataOut
 2061              	.LVL291:
 2062              		.loc 1 634 32 view .LVU808
 2063 0158 3860     		str	r0, [r7]
 635:Drivers/STM32F4xx_StdPeriph_Driver/src/stm32f4xx_cryp_aes.c ****       outputaddr+=4;
 2064              		.loc 1 635 7 is_stmt 1 view .LVU809
 2065              	.LVL292:
 636:Drivers/STM32F4xx_StdPeriph_Driver/src/stm32f4xx_cryp_aes.c ****       *(uint32_t*)(outputaddr) = CRYP_DataOut();
 2066              		.loc 1 636 7 view .LVU810
 2067              		.loc 1 636 34 is_stmt 0 view .LVU811
 2068 015a FFF7FEFF 		bl	CRYP_DataOut
 2069              	.LVL293:
 2070              		.loc 1 636 32 view .LVU812
 2071 015e 7860     		str	r0, [r7, #4]
 637:Drivers/STM32F4xx_StdPeriph_Driver/src/stm32f4xx_cryp_aes.c ****       outputaddr+=4;
 2072              		.loc 1 637 7 is_stmt 1 view .LVU813
 2073              	.LVL294:
 638:Drivers/STM32F4xx_StdPeriph_Driver/src/stm32f4xx_cryp_aes.c ****       *(uint32_t*)(outputaddr) = CRYP_DataOut();
 2074              		.loc 1 638 7 view .LVU814
 2075              		.loc 1 638 34 is_stmt 0 view .LVU815
 2076 0160 FFF7FEFF 		bl	CRYP_DataOut
 2077              	.LVL295:
 2078              		.loc 1 638 32 view .LVU816
 2079 0164 B860     		str	r0, [r7, #8]
 639:Drivers/STM32F4xx_StdPeriph_Driver/src/stm32f4xx_cryp_aes.c ****       outputaddr+=4;
 2080              		.loc 1 639 7 is_stmt 1 view .LVU817
 2081              	.LVL296:
 640:Drivers/STM32F4xx_StdPeriph_Driver/src/stm32f4xx_cryp_aes.c ****       *(uint32_t*)(outputaddr) = CRYP_DataOut();
ARM GAS  /tmp/ccjGnpiF.s 			page 64


 2082              		.loc 1 640 7 view .LVU818
 2083              		.loc 1 640 34 is_stmt 0 view .LVU819
 2084 0166 FFF7FEFF 		bl	CRYP_DataOut
 2085              	.LVL297:
 2086              		.loc 1 640 32 view .LVU820
 2087 016a F860     		str	r0, [r7, #12]
 641:Drivers/STM32F4xx_StdPeriph_Driver/src/stm32f4xx_cryp_aes.c ****       outputaddr+=4;
 2088              		.loc 1 641 7 is_stmt 1 view .LVU821
 2089              		.loc 1 641 17 is_stmt 0 view .LVU822
 2090 016c 1037     		adds	r7, r7, #16
 2091              	.LVL298:
 2092              		.loc 1 641 17 view .LVU823
 2093 016e D1E7     		b	.L49
 2094              	.L50:
 642:Drivers/STM32F4xx_StdPeriph_Driver/src/stm32f4xx_cryp_aes.c ****     }
 643:Drivers/STM32F4xx_StdPeriph_Driver/src/stm32f4xx_cryp_aes.c ****   }
 644:Drivers/STM32F4xx_StdPeriph_Driver/src/stm32f4xx_cryp_aes.c ****   /* Disable Crypto */
 645:Drivers/STM32F4xx_StdPeriph_Driver/src/stm32f4xx_cryp_aes.c ****   CRYP_Cmd(DISABLE);
 2095              		.loc 1 645 3 is_stmt 1 view .LVU824
 2096 0170 0020     		movs	r0, #0
 2097 0172 FFF7FEFF 		bl	CRYP_Cmd
 2098              	.LVL299:
 646:Drivers/STM32F4xx_StdPeriph_Driver/src/stm32f4xx_cryp_aes.c **** 
 647:Drivers/STM32F4xx_StdPeriph_Driver/src/stm32f4xx_cryp_aes.c ****   return status;
 2099              		.loc 1 647 3 view .LVU825
 2100              	.L45:
 648:Drivers/STM32F4xx_StdPeriph_Driver/src/stm32f4xx_cryp_aes.c **** }
 2101              		.loc 1 648 1 is_stmt 0 view .LVU826
 2102 0176 3046     		mov	r0, r6
 2103 0178 12B0     		add	sp, sp, #72
 2104              		.cfi_def_cfa_offset 32
 2105              		@ sp needed
 2106 017a BDE8F087 		pop	{r4, r5, r6, r7, r8, r9, r10, pc}
 2107              		.loc 1 648 1 view .LVU827
 2108              		.cfi_endproc
 2109              	.LFE125:
 2111              		.section	.text.CRYP_AES_GCM,"ax",%progbits
 2112              		.align	1
 2113              		.global	CRYP_AES_GCM
 2114              		.syntax unified
 2115              		.thumb
 2116              		.thumb_func
 2117              		.fpu fpv4-sp-d16
 2119              	CRYP_AES_GCM:
 2120              	.LVL300:
 2121              	.LFB126:
 649:Drivers/STM32F4xx_StdPeriph_Driver/src/stm32f4xx_cryp_aes.c **** 
 650:Drivers/STM32F4xx_StdPeriph_Driver/src/stm32f4xx_cryp_aes.c **** /**
 651:Drivers/STM32F4xx_StdPeriph_Driver/src/stm32f4xx_cryp_aes.c ****   * @brief  Encrypt and decrypt using AES in GCM Mode. The GCM and CCM modes
 652:Drivers/STM32F4xx_StdPeriph_Driver/src/stm32f4xx_cryp_aes.c ****   *         are available only on STM32F437x Devices.
 653:Drivers/STM32F4xx_StdPeriph_Driver/src/stm32f4xx_cryp_aes.c ****   * @param  Mode: encryption or decryption Mode.
 654:Drivers/STM32F4xx_StdPeriph_Driver/src/stm32f4xx_cryp_aes.c ****   *          This parameter can be one of the following values:
 655:Drivers/STM32F4xx_StdPeriph_Driver/src/stm32f4xx_cryp_aes.c ****   *            @arg MODE_ENCRYPT: Encryption
 656:Drivers/STM32F4xx_StdPeriph_Driver/src/stm32f4xx_cryp_aes.c ****   *            @arg MODE_DECRYPT: Decryption
 657:Drivers/STM32F4xx_StdPeriph_Driver/src/stm32f4xx_cryp_aes.c ****   * @param  InitVectors: Initialisation Vectors used for AES algorithm.
 658:Drivers/STM32F4xx_StdPeriph_Driver/src/stm32f4xx_cryp_aes.c ****   * @param  Key: Key used for AES algorithm.
 659:Drivers/STM32F4xx_StdPeriph_Driver/src/stm32f4xx_cryp_aes.c ****   * @param  Keysize: length of the Key, must be a 128, 192 or 256.
ARM GAS  /tmp/ccjGnpiF.s 			page 65


 660:Drivers/STM32F4xx_StdPeriph_Driver/src/stm32f4xx_cryp_aes.c ****   * @param  Input: pointer to the Input buffer.
 661:Drivers/STM32F4xx_StdPeriph_Driver/src/stm32f4xx_cryp_aes.c ****   * @param  Ilength: length of the Input buffer in bytes, must be a multiple of 16.
 662:Drivers/STM32F4xx_StdPeriph_Driver/src/stm32f4xx_cryp_aes.c ****   * @param  Header: pointer to the header buffer.
 663:Drivers/STM32F4xx_StdPeriph_Driver/src/stm32f4xx_cryp_aes.c ****   * @param  Hlength: length of the header buffer in bytes, must be a multiple of 16.  
 664:Drivers/STM32F4xx_StdPeriph_Driver/src/stm32f4xx_cryp_aes.c ****   * @param  Output: pointer to the returned buffer.
 665:Drivers/STM32F4xx_StdPeriph_Driver/src/stm32f4xx_cryp_aes.c ****   * @param  AuthTAG: pointer to the authentication TAG buffer.
 666:Drivers/STM32F4xx_StdPeriph_Driver/src/stm32f4xx_cryp_aes.c ****   * @retval An ErrorStatus enumeration value:
 667:Drivers/STM32F4xx_StdPeriph_Driver/src/stm32f4xx_cryp_aes.c ****   *          - SUCCESS: Operation done
 668:Drivers/STM32F4xx_StdPeriph_Driver/src/stm32f4xx_cryp_aes.c ****   *          - ERROR: Operation failed
 669:Drivers/STM32F4xx_StdPeriph_Driver/src/stm32f4xx_cryp_aes.c ****   */
 670:Drivers/STM32F4xx_StdPeriph_Driver/src/stm32f4xx_cryp_aes.c **** ErrorStatus CRYP_AES_GCM(uint8_t Mode, uint8_t InitVectors[16],
 671:Drivers/STM32F4xx_StdPeriph_Driver/src/stm32f4xx_cryp_aes.c ****                          uint8_t *Key, uint16_t Keysize,
 672:Drivers/STM32F4xx_StdPeriph_Driver/src/stm32f4xx_cryp_aes.c ****                          uint8_t *Input, uint32_t ILength,
 673:Drivers/STM32F4xx_StdPeriph_Driver/src/stm32f4xx_cryp_aes.c ****                          uint8_t *Header, uint32_t HLength,
 674:Drivers/STM32F4xx_StdPeriph_Driver/src/stm32f4xx_cryp_aes.c ****                          uint8_t *Output, uint8_t *AuthTAG)
 675:Drivers/STM32F4xx_StdPeriph_Driver/src/stm32f4xx_cryp_aes.c **** {
 2122              		.loc 1 675 1 is_stmt 1 view -0
 2123              		.cfi_startproc
 2124              		@ args = 24, pretend = 0, frame = 88
 2125              		@ frame_needed = 0, uses_anonymous_args = 0
 2126              		.loc 1 675 1 is_stmt 0 view .LVU829
 2127 0000 2DE9F04F 		push	{r4, r5, r6, r7, r8, r9, r10, fp, lr}
 2128              		.cfi_def_cfa_offset 36
 2129              		.cfi_offset 4, -36
 2130              		.cfi_offset 5, -32
 2131              		.cfi_offset 6, -28
 2132              		.cfi_offset 7, -24
 2133              		.cfi_offset 8, -20
 2134              		.cfi_offset 9, -16
 2135              		.cfi_offset 10, -12
 2136              		.cfi_offset 11, -8
 2137              		.cfi_offset 14, -4
 2138 0004 97B0     		sub	sp, sp, #92
 2139              		.cfi_def_cfa_offset 128
 2140 0006 0190     		str	r0, [sp, #4]
 2141 0008 0F46     		mov	r7, r1
 2142 000a 1646     		mov	r6, r2
 2143 000c 9846     		mov	r8, r3
 2144 000e DDF88490 		ldr	r9, [sp, #132]
 2145 0012 DDF88CA0 		ldr	r10, [sp, #140]
 676:Drivers/STM32F4xx_StdPeriph_Driver/src/stm32f4xx_cryp_aes.c ****   CRYP_InitTypeDef AES_CRYP_InitStructure;
 2146              		.loc 1 676 3 is_stmt 1 view .LVU830
 677:Drivers/STM32F4xx_StdPeriph_Driver/src/stm32f4xx_cryp_aes.c ****   CRYP_KeyInitTypeDef AES_CRYP_KeyInitStructure;
 2147              		.loc 1 677 3 view .LVU831
 678:Drivers/STM32F4xx_StdPeriph_Driver/src/stm32f4xx_cryp_aes.c ****   CRYP_IVInitTypeDef AES_CRYP_IVInitStructure;
 2148              		.loc 1 678 3 view .LVU832
 679:Drivers/STM32F4xx_StdPeriph_Driver/src/stm32f4xx_cryp_aes.c ****   __IO uint32_t counter = 0;
 2149              		.loc 1 679 3 view .LVU833
 2150              		.loc 1 679 17 is_stmt 0 view .LVU834
 2151 0016 0023     		movs	r3, #0
 2152              	.LVL301:
 2153              		.loc 1 679 17 view .LVU835
 2154 0018 0593     		str	r3, [sp, #20]
 680:Drivers/STM32F4xx_StdPeriph_Driver/src/stm32f4xx_cryp_aes.c ****   uint32_t busystatus = 0;
 2155              		.loc 1 680 3 is_stmt 1 view .LVU836
 2156              	.LVL302:
 681:Drivers/STM32F4xx_StdPeriph_Driver/src/stm32f4xx_cryp_aes.c ****   ErrorStatus status = SUCCESS;
ARM GAS  /tmp/ccjGnpiF.s 			page 66


 2157              		.loc 1 681 3 view .LVU837
 682:Drivers/STM32F4xx_StdPeriph_Driver/src/stm32f4xx_cryp_aes.c ****   uint32_t keyaddr    = (uint32_t)Key;
 2158              		.loc 1 682 3 view .LVU838
 683:Drivers/STM32F4xx_StdPeriph_Driver/src/stm32f4xx_cryp_aes.c ****   uint32_t inputaddr  = (uint32_t)Input;
 2159              		.loc 1 683 3 view .LVU839
 2160              		.loc 1 683 12 is_stmt 0 view .LVU840
 2161 001a 209C     		ldr	r4, [sp, #128]
 2162              	.LVL303:
 684:Drivers/STM32F4xx_StdPeriph_Driver/src/stm32f4xx_cryp_aes.c ****   uint32_t outputaddr = (uint32_t)Output;
 2163              		.loc 1 684 3 is_stmt 1 view .LVU841
 2164              		.loc 1 684 12 is_stmt 0 view .LVU842
 2165 001c DDF890B0 		ldr	fp, [sp, #144]
 2166              	.LVL304:
 685:Drivers/STM32F4xx_StdPeriph_Driver/src/stm32f4xx_cryp_aes.c ****   uint32_t ivaddr     = (uint32_t)InitVectors;
 2167              		.loc 1 685 3 is_stmt 1 view .LVU843
 686:Drivers/STM32F4xx_StdPeriph_Driver/src/stm32f4xx_cryp_aes.c ****   uint32_t headeraddr = (uint32_t)Header;
 2168              		.loc 1 686 3 view .LVU844
 2169              		.loc 1 686 12 is_stmt 0 view .LVU845
 2170 0020 229D     		ldr	r5, [sp, #136]
 2171              	.LVL305:
 687:Drivers/STM32F4xx_StdPeriph_Driver/src/stm32f4xx_cryp_aes.c ****   uint32_t tagaddr = (uint32_t)AuthTAG;
 2172              		.loc 1 687 3 is_stmt 1 view .LVU846
 688:Drivers/STM32F4xx_StdPeriph_Driver/src/stm32f4xx_cryp_aes.c ****   uint64_t headerlength = HLength * 8;/* header length in bits */
 2173              		.loc 1 688 3 view .LVU847
 2174              		.loc 1 688 35 is_stmt 0 view .LVU848
 2175 0022 4FEACA03 		lsl	r3, r10, #3
 2176 0026 0293     		str	r3, [sp, #8]
 2177              	.LVL306:
 689:Drivers/STM32F4xx_StdPeriph_Driver/src/stm32f4xx_cryp_aes.c ****   uint64_t inputlength = ILength * 8;/* input length in bits */
 2178              		.loc 1 689 3 is_stmt 1 view .LVU849
 2179              		.loc 1 689 34 is_stmt 0 view .LVU850
 2180 0028 4FEAC903 		lsl	r3, r9, #3
 2181              	.LVL307:
 2182              		.loc 1 689 34 view .LVU851
 2183 002c 0393     		str	r3, [sp, #12]
 2184              	.LVL308:
 690:Drivers/STM32F4xx_StdPeriph_Driver/src/stm32f4xx_cryp_aes.c ****   uint32_t loopcounter = 0;
 2185              		.loc 1 690 3 is_stmt 1 view .LVU852
 691:Drivers/STM32F4xx_StdPeriph_Driver/src/stm32f4xx_cryp_aes.c **** 
 692:Drivers/STM32F4xx_StdPeriph_Driver/src/stm32f4xx_cryp_aes.c ****   /* Crypto structures initialisation*/
 693:Drivers/STM32F4xx_StdPeriph_Driver/src/stm32f4xx_cryp_aes.c ****   CRYP_KeyStructInit(&AES_CRYP_KeyInitStructure);
 2186              		.loc 1 693 3 view .LVU853
 2187 002e 0AA8     		add	r0, sp, #40
 2188              	.LVL309:
 2189              		.loc 1 693 3 is_stmt 0 view .LVU854
 2190 0030 FFF7FEFF 		bl	CRYP_KeyStructInit
 2191              	.LVL310:
 694:Drivers/STM32F4xx_StdPeriph_Driver/src/stm32f4xx_cryp_aes.c **** 
 695:Drivers/STM32F4xx_StdPeriph_Driver/src/stm32f4xx_cryp_aes.c ****   switch(Keysize)
 2192              		.loc 1 695 3 is_stmt 1 view .LVU855
 2193 0034 B8F1C00F 		cmp	r8, #192
 2194 0038 57D0     		beq	.L57
 2195 003a B8F5807F 		cmp	r8, #256
 2196 003e 6AD0     		beq	.L58
 2197 0040 B8F1800F 		cmp	r8, #128
 2198 0044 42D0     		beq	.L99
 2199              	.LVL311:
ARM GAS  /tmp/ccjGnpiF.s 			page 67


 2200              	.L59:
 696:Drivers/STM32F4xx_StdPeriph_Driver/src/stm32f4xx_cryp_aes.c ****   {
 697:Drivers/STM32F4xx_StdPeriph_Driver/src/stm32f4xx_cryp_aes.c ****     case 128:
 698:Drivers/STM32F4xx_StdPeriph_Driver/src/stm32f4xx_cryp_aes.c ****     AES_CRYP_InitStructure.CRYP_KeySize = CRYP_KeySize_128b;
 699:Drivers/STM32F4xx_StdPeriph_Driver/src/stm32f4xx_cryp_aes.c ****     AES_CRYP_KeyInitStructure.CRYP_Key2Left = __REV(*(uint32_t*)(keyaddr));
 700:Drivers/STM32F4xx_StdPeriph_Driver/src/stm32f4xx_cryp_aes.c ****     keyaddr+=4;
 701:Drivers/STM32F4xx_StdPeriph_Driver/src/stm32f4xx_cryp_aes.c ****     AES_CRYP_KeyInitStructure.CRYP_Key2Right= __REV(*(uint32_t*)(keyaddr));
 702:Drivers/STM32F4xx_StdPeriph_Driver/src/stm32f4xx_cryp_aes.c ****     keyaddr+=4;
 703:Drivers/STM32F4xx_StdPeriph_Driver/src/stm32f4xx_cryp_aes.c ****     AES_CRYP_KeyInitStructure.CRYP_Key3Left = __REV(*(uint32_t*)(keyaddr));
 704:Drivers/STM32F4xx_StdPeriph_Driver/src/stm32f4xx_cryp_aes.c ****     keyaddr+=4;
 705:Drivers/STM32F4xx_StdPeriph_Driver/src/stm32f4xx_cryp_aes.c ****     AES_CRYP_KeyInitStructure.CRYP_Key3Right= __REV(*(uint32_t*)(keyaddr));
 706:Drivers/STM32F4xx_StdPeriph_Driver/src/stm32f4xx_cryp_aes.c ****     break;
 707:Drivers/STM32F4xx_StdPeriph_Driver/src/stm32f4xx_cryp_aes.c ****     case 192:
 708:Drivers/STM32F4xx_StdPeriph_Driver/src/stm32f4xx_cryp_aes.c ****     AES_CRYP_InitStructure.CRYP_KeySize  = CRYP_KeySize_192b;
 709:Drivers/STM32F4xx_StdPeriph_Driver/src/stm32f4xx_cryp_aes.c ****     AES_CRYP_KeyInitStructure.CRYP_Key1Left = __REV(*(uint32_t*)(keyaddr));
 710:Drivers/STM32F4xx_StdPeriph_Driver/src/stm32f4xx_cryp_aes.c ****     keyaddr+=4;
 711:Drivers/STM32F4xx_StdPeriph_Driver/src/stm32f4xx_cryp_aes.c ****     AES_CRYP_KeyInitStructure.CRYP_Key1Right= __REV(*(uint32_t*)(keyaddr));
 712:Drivers/STM32F4xx_StdPeriph_Driver/src/stm32f4xx_cryp_aes.c ****     keyaddr+=4;
 713:Drivers/STM32F4xx_StdPeriph_Driver/src/stm32f4xx_cryp_aes.c ****     AES_CRYP_KeyInitStructure.CRYP_Key2Left = __REV(*(uint32_t*)(keyaddr));
 714:Drivers/STM32F4xx_StdPeriph_Driver/src/stm32f4xx_cryp_aes.c ****     keyaddr+=4;
 715:Drivers/STM32F4xx_StdPeriph_Driver/src/stm32f4xx_cryp_aes.c ****     AES_CRYP_KeyInitStructure.CRYP_Key2Right= __REV(*(uint32_t*)(keyaddr));
 716:Drivers/STM32F4xx_StdPeriph_Driver/src/stm32f4xx_cryp_aes.c ****     keyaddr+=4;
 717:Drivers/STM32F4xx_StdPeriph_Driver/src/stm32f4xx_cryp_aes.c ****     AES_CRYP_KeyInitStructure.CRYP_Key3Left = __REV(*(uint32_t*)(keyaddr));
 718:Drivers/STM32F4xx_StdPeriph_Driver/src/stm32f4xx_cryp_aes.c ****     keyaddr+=4;
 719:Drivers/STM32F4xx_StdPeriph_Driver/src/stm32f4xx_cryp_aes.c ****     AES_CRYP_KeyInitStructure.CRYP_Key3Right= __REV(*(uint32_t*)(keyaddr));
 720:Drivers/STM32F4xx_StdPeriph_Driver/src/stm32f4xx_cryp_aes.c ****     break;
 721:Drivers/STM32F4xx_StdPeriph_Driver/src/stm32f4xx_cryp_aes.c ****     case 256:
 722:Drivers/STM32F4xx_StdPeriph_Driver/src/stm32f4xx_cryp_aes.c ****     AES_CRYP_InitStructure.CRYP_KeySize  = CRYP_KeySize_256b;
 723:Drivers/STM32F4xx_StdPeriph_Driver/src/stm32f4xx_cryp_aes.c ****     AES_CRYP_KeyInitStructure.CRYP_Key0Left = __REV(*(uint32_t*)(keyaddr));
 724:Drivers/STM32F4xx_StdPeriph_Driver/src/stm32f4xx_cryp_aes.c ****     keyaddr+=4;
 725:Drivers/STM32F4xx_StdPeriph_Driver/src/stm32f4xx_cryp_aes.c ****     AES_CRYP_KeyInitStructure.CRYP_Key0Right= __REV(*(uint32_t*)(keyaddr));
 726:Drivers/STM32F4xx_StdPeriph_Driver/src/stm32f4xx_cryp_aes.c ****     keyaddr+=4;
 727:Drivers/STM32F4xx_StdPeriph_Driver/src/stm32f4xx_cryp_aes.c ****     AES_CRYP_KeyInitStructure.CRYP_Key1Left = __REV(*(uint32_t*)(keyaddr));
 728:Drivers/STM32F4xx_StdPeriph_Driver/src/stm32f4xx_cryp_aes.c ****     keyaddr+=4;
 729:Drivers/STM32F4xx_StdPeriph_Driver/src/stm32f4xx_cryp_aes.c ****     AES_CRYP_KeyInitStructure.CRYP_Key1Right= __REV(*(uint32_t*)(keyaddr));
 730:Drivers/STM32F4xx_StdPeriph_Driver/src/stm32f4xx_cryp_aes.c ****     keyaddr+=4;
 731:Drivers/STM32F4xx_StdPeriph_Driver/src/stm32f4xx_cryp_aes.c ****     AES_CRYP_KeyInitStructure.CRYP_Key2Left = __REV(*(uint32_t*)(keyaddr));
 732:Drivers/STM32F4xx_StdPeriph_Driver/src/stm32f4xx_cryp_aes.c ****     keyaddr+=4;
 733:Drivers/STM32F4xx_StdPeriph_Driver/src/stm32f4xx_cryp_aes.c ****     AES_CRYP_KeyInitStructure.CRYP_Key2Right= __REV(*(uint32_t*)(keyaddr));
 734:Drivers/STM32F4xx_StdPeriph_Driver/src/stm32f4xx_cryp_aes.c ****     keyaddr+=4;
 735:Drivers/STM32F4xx_StdPeriph_Driver/src/stm32f4xx_cryp_aes.c ****     AES_CRYP_KeyInitStructure.CRYP_Key3Left = __REV(*(uint32_t*)(keyaddr));
 736:Drivers/STM32F4xx_StdPeriph_Driver/src/stm32f4xx_cryp_aes.c ****     keyaddr+=4;
 737:Drivers/STM32F4xx_StdPeriph_Driver/src/stm32f4xx_cryp_aes.c ****     AES_CRYP_KeyInitStructure.CRYP_Key3Right= __REV(*(uint32_t*)(keyaddr));
 738:Drivers/STM32F4xx_StdPeriph_Driver/src/stm32f4xx_cryp_aes.c ****     break;
 739:Drivers/STM32F4xx_StdPeriph_Driver/src/stm32f4xx_cryp_aes.c ****     default:
 740:Drivers/STM32F4xx_StdPeriph_Driver/src/stm32f4xx_cryp_aes.c ****     break;
 741:Drivers/STM32F4xx_StdPeriph_Driver/src/stm32f4xx_cryp_aes.c ****   }
 742:Drivers/STM32F4xx_StdPeriph_Driver/src/stm32f4xx_cryp_aes.c ****   
 743:Drivers/STM32F4xx_StdPeriph_Driver/src/stm32f4xx_cryp_aes.c ****   /* CRYP Initialization Vectors */
 744:Drivers/STM32F4xx_StdPeriph_Driver/src/stm32f4xx_cryp_aes.c ****   AES_CRYP_IVInitStructure.CRYP_IV0Left = __REV(*(uint32_t*)(ivaddr));
 2201              		.loc 1 744 3 view .LVU856
 2202              		.loc 1 744 43 is_stmt 0 view .LVU857
 2203 0046 3B68     		ldr	r3, [r7]
 2204              	.LVL312:
 2205              	.LBB354:
 2206              	.LBI354:
 495:Drivers/CMSIS/Include/core_cmInstr.h **** {
ARM GAS  /tmp/ccjGnpiF.s 			page 68


 2207              		.loc 2 495 57 is_stmt 1 view .LVU858
 2208              	.LBB355:
 2209              		.loc 2 498 3 view .LVU859
 2210              		.loc 2 498 10 is_stmt 0 view .LVU860
 2211 0048 1BBA     		rev	r3, r3
 2212              	.LVL313:
 2213              		.loc 2 498 10 view .LVU861
 2214              	.LBE355:
 2215              	.LBE354:
 2216              		.loc 1 744 41 view .LVU862
 2217 004a 0693     		str	r3, [sp, #24]
 745:Drivers/STM32F4xx_StdPeriph_Driver/src/stm32f4xx_cryp_aes.c ****   ivaddr+=4;
 2218              		.loc 1 745 3 is_stmt 1 view .LVU863
 2219              	.LVL314:
 746:Drivers/STM32F4xx_StdPeriph_Driver/src/stm32f4xx_cryp_aes.c ****   AES_CRYP_IVInitStructure.CRYP_IV0Right= __REV(*(uint32_t*)(ivaddr));
 2220              		.loc 1 746 3 view .LVU864
 2221              		.loc 1 746 43 is_stmt 0 view .LVU865
 2222 004c 7B68     		ldr	r3, [r7, #4]
 2223              	.LVL315:
 2224              	.LBB356:
 2225              	.LBI356:
 495:Drivers/CMSIS/Include/core_cmInstr.h **** {
 2226              		.loc 2 495 57 is_stmt 1 view .LVU866
 2227              	.LBB357:
 2228              		.loc 2 498 3 view .LVU867
 2229              		.loc 2 498 10 is_stmt 0 view .LVU868
 2230 004e 1BBA     		rev	r3, r3
 2231              	.LVL316:
 2232              		.loc 2 498 10 view .LVU869
 2233              	.LBE357:
 2234              	.LBE356:
 2235              		.loc 1 746 41 view .LVU870
 2236 0050 0793     		str	r3, [sp, #28]
 747:Drivers/STM32F4xx_StdPeriph_Driver/src/stm32f4xx_cryp_aes.c ****   ivaddr+=4;
 2237              		.loc 1 747 3 is_stmt 1 view .LVU871
 2238              	.LVL317:
 748:Drivers/STM32F4xx_StdPeriph_Driver/src/stm32f4xx_cryp_aes.c ****   AES_CRYP_IVInitStructure.CRYP_IV1Left = __REV(*(uint32_t*)(ivaddr));
 2239              		.loc 1 748 3 view .LVU872
 2240              		.loc 1 748 43 is_stmt 0 view .LVU873
 2241 0052 BB68     		ldr	r3, [r7, #8]
 2242              	.LVL318:
 2243              	.LBB358:
 2244              	.LBI358:
 495:Drivers/CMSIS/Include/core_cmInstr.h **** {
 2245              		.loc 2 495 57 is_stmt 1 view .LVU874
 2246              	.LBB359:
 2247              		.loc 2 498 3 view .LVU875
 2248              		.loc 2 498 10 is_stmt 0 view .LVU876
 2249 0054 1BBA     		rev	r3, r3
 2250              	.LVL319:
 2251              		.loc 2 498 10 view .LVU877
 2252              	.LBE359:
 2253              	.LBE358:
 2254              		.loc 1 748 41 view .LVU878
 2255 0056 0893     		str	r3, [sp, #32]
 749:Drivers/STM32F4xx_StdPeriph_Driver/src/stm32f4xx_cryp_aes.c ****   ivaddr+=4;
 2256              		.loc 1 749 3 is_stmt 1 view .LVU879
ARM GAS  /tmp/ccjGnpiF.s 			page 69


 2257              	.LVL320:
 750:Drivers/STM32F4xx_StdPeriph_Driver/src/stm32f4xx_cryp_aes.c ****   AES_CRYP_IVInitStructure.CRYP_IV1Right= __REV(*(uint32_t*)(ivaddr));
 2258              		.loc 1 750 3 view .LVU880
 2259              		.loc 1 750 43 is_stmt 0 view .LVU881
 2260 0058 FB68     		ldr	r3, [r7, #12]
 2261              	.LVL321:
 2262              	.LBB360:
 2263              	.LBI360:
 495:Drivers/CMSIS/Include/core_cmInstr.h **** {
 2264              		.loc 2 495 57 is_stmt 1 view .LVU882
 2265              	.LBB361:
 2266              		.loc 2 498 3 view .LVU883
 2267              		.loc 2 498 10 is_stmt 0 view .LVU884
 2268 005a 1BBA     		rev	r3, r3
 2269              	.LVL322:
 2270              		.loc 2 498 10 view .LVU885
 2271              	.LBE361:
 2272              	.LBE360:
 2273              		.loc 1 750 41 view .LVU886
 2274 005c 0993     		str	r3, [sp, #36]
 751:Drivers/STM32F4xx_StdPeriph_Driver/src/stm32f4xx_cryp_aes.c ****   
 752:Drivers/STM32F4xx_StdPeriph_Driver/src/stm32f4xx_cryp_aes.c ****   /*------------------ AES Encryption ------------------*/
 753:Drivers/STM32F4xx_StdPeriph_Driver/src/stm32f4xx_cryp_aes.c ****   if(Mode == MODE_ENCRYPT) /* AES encryption */
 2275              		.loc 1 753 3 is_stmt 1 view .LVU887
 2276              		.loc 1 753 5 is_stmt 0 view .LVU888
 2277 005e 019B     		ldr	r3, [sp, #4]
 2278 0060 012B     		cmp	r3, #1
 2279 0062 74D0     		beq	.L100
 754:Drivers/STM32F4xx_StdPeriph_Driver/src/stm32f4xx_cryp_aes.c ****   {
 755:Drivers/STM32F4xx_StdPeriph_Driver/src/stm32f4xx_cryp_aes.c ****     /* Flush IN/OUT FIFOs */
 756:Drivers/STM32F4xx_StdPeriph_Driver/src/stm32f4xx_cryp_aes.c ****     CRYP_FIFOFlush();
 757:Drivers/STM32F4xx_StdPeriph_Driver/src/stm32f4xx_cryp_aes.c ****     
 758:Drivers/STM32F4xx_StdPeriph_Driver/src/stm32f4xx_cryp_aes.c ****     /* Key Initialisation */
 759:Drivers/STM32F4xx_StdPeriph_Driver/src/stm32f4xx_cryp_aes.c ****     CRYP_KeyInit(&AES_CRYP_KeyInitStructure);
 760:Drivers/STM32F4xx_StdPeriph_Driver/src/stm32f4xx_cryp_aes.c ****     
 761:Drivers/STM32F4xx_StdPeriph_Driver/src/stm32f4xx_cryp_aes.c ****     /* CRYP Initialization Vectors */
 762:Drivers/STM32F4xx_StdPeriph_Driver/src/stm32f4xx_cryp_aes.c ****     CRYP_IVInit(&AES_CRYP_IVInitStructure);
 763:Drivers/STM32F4xx_StdPeriph_Driver/src/stm32f4xx_cryp_aes.c ****     
 764:Drivers/STM32F4xx_StdPeriph_Driver/src/stm32f4xx_cryp_aes.c ****     /* Crypto Init for Key preparation for decryption process */
 765:Drivers/STM32F4xx_StdPeriph_Driver/src/stm32f4xx_cryp_aes.c ****     AES_CRYP_InitStructure.CRYP_AlgoDir = CRYP_AlgoDir_Encrypt;
 766:Drivers/STM32F4xx_StdPeriph_Driver/src/stm32f4xx_cryp_aes.c ****     AES_CRYP_InitStructure.CRYP_AlgoMode = CRYP_AlgoMode_AES_GCM;
 767:Drivers/STM32F4xx_StdPeriph_Driver/src/stm32f4xx_cryp_aes.c ****     AES_CRYP_InitStructure.CRYP_DataType = CRYP_DataType_8b;
 768:Drivers/STM32F4xx_StdPeriph_Driver/src/stm32f4xx_cryp_aes.c ****     CRYP_Init(&AES_CRYP_InitStructure);
 769:Drivers/STM32F4xx_StdPeriph_Driver/src/stm32f4xx_cryp_aes.c ****     
 770:Drivers/STM32F4xx_StdPeriph_Driver/src/stm32f4xx_cryp_aes.c ****     /***************************** Init phase *********************************/
 771:Drivers/STM32F4xx_StdPeriph_Driver/src/stm32f4xx_cryp_aes.c ****     /* Select init phase */
 772:Drivers/STM32F4xx_StdPeriph_Driver/src/stm32f4xx_cryp_aes.c ****     CRYP_PhaseConfig(CRYP_Phase_Init);
 773:Drivers/STM32F4xx_StdPeriph_Driver/src/stm32f4xx_cryp_aes.c ****     
 774:Drivers/STM32F4xx_StdPeriph_Driver/src/stm32f4xx_cryp_aes.c ****     /* Enable Crypto processor */
 775:Drivers/STM32F4xx_StdPeriph_Driver/src/stm32f4xx_cryp_aes.c ****     CRYP_Cmd(ENABLE);
 776:Drivers/STM32F4xx_StdPeriph_Driver/src/stm32f4xx_cryp_aes.c ****     
 777:Drivers/STM32F4xx_StdPeriph_Driver/src/stm32f4xx_cryp_aes.c ****     /* Wait for CRYPEN bit to be 0 */
 778:Drivers/STM32F4xx_StdPeriph_Driver/src/stm32f4xx_cryp_aes.c ****     while(CRYP_GetCmdStatus() == ENABLE)
 779:Drivers/STM32F4xx_StdPeriph_Driver/src/stm32f4xx_cryp_aes.c ****     {
 780:Drivers/STM32F4xx_StdPeriph_Driver/src/stm32f4xx_cryp_aes.c ****     }
 781:Drivers/STM32F4xx_StdPeriph_Driver/src/stm32f4xx_cryp_aes.c ****     
 782:Drivers/STM32F4xx_StdPeriph_Driver/src/stm32f4xx_cryp_aes.c ****     /***************************** header phase *******************************/
ARM GAS  /tmp/ccjGnpiF.s 			page 70


 783:Drivers/STM32F4xx_StdPeriph_Driver/src/stm32f4xx_cryp_aes.c ****     if(HLength != 0)
 784:Drivers/STM32F4xx_StdPeriph_Driver/src/stm32f4xx_cryp_aes.c ****     {
 785:Drivers/STM32F4xx_StdPeriph_Driver/src/stm32f4xx_cryp_aes.c ****       /* Select header phase */
 786:Drivers/STM32F4xx_StdPeriph_Driver/src/stm32f4xx_cryp_aes.c ****       CRYP_PhaseConfig(CRYP_Phase_Header);
 787:Drivers/STM32F4xx_StdPeriph_Driver/src/stm32f4xx_cryp_aes.c ****       
 788:Drivers/STM32F4xx_StdPeriph_Driver/src/stm32f4xx_cryp_aes.c ****       /* Enable Crypto processor */
 789:Drivers/STM32F4xx_StdPeriph_Driver/src/stm32f4xx_cryp_aes.c ****       CRYP_Cmd(ENABLE);
 790:Drivers/STM32F4xx_StdPeriph_Driver/src/stm32f4xx_cryp_aes.c ****       
 791:Drivers/STM32F4xx_StdPeriph_Driver/src/stm32f4xx_cryp_aes.c ****       if(CRYP_GetCmdStatus() == DISABLE)
 792:Drivers/STM32F4xx_StdPeriph_Driver/src/stm32f4xx_cryp_aes.c ****       {
 793:Drivers/STM32F4xx_StdPeriph_Driver/src/stm32f4xx_cryp_aes.c ****          /* The CRYP peripheral clock is not enabled or the device doesn't embed 
 794:Drivers/STM32F4xx_StdPeriph_Driver/src/stm32f4xx_cryp_aes.c ****             the CRYP peripheral (please check the device sales type. */
 795:Drivers/STM32F4xx_StdPeriph_Driver/src/stm32f4xx_cryp_aes.c ****          return(ERROR);
 796:Drivers/STM32F4xx_StdPeriph_Driver/src/stm32f4xx_cryp_aes.c ****       }
 797:Drivers/STM32F4xx_StdPeriph_Driver/src/stm32f4xx_cryp_aes.c ****       
 798:Drivers/STM32F4xx_StdPeriph_Driver/src/stm32f4xx_cryp_aes.c ****       for(loopcounter = 0; (loopcounter < HLength); loopcounter+=16)
 799:Drivers/STM32F4xx_StdPeriph_Driver/src/stm32f4xx_cryp_aes.c ****       {
 800:Drivers/STM32F4xx_StdPeriph_Driver/src/stm32f4xx_cryp_aes.c ****         /* Wait until the IFEM flag is reset */
 801:Drivers/STM32F4xx_StdPeriph_Driver/src/stm32f4xx_cryp_aes.c ****         while(CRYP_GetFlagStatus(CRYP_FLAG_IFEM) == RESET)
 802:Drivers/STM32F4xx_StdPeriph_Driver/src/stm32f4xx_cryp_aes.c ****         {
 803:Drivers/STM32F4xx_StdPeriph_Driver/src/stm32f4xx_cryp_aes.c ****         }
 804:Drivers/STM32F4xx_StdPeriph_Driver/src/stm32f4xx_cryp_aes.c ****         
 805:Drivers/STM32F4xx_StdPeriph_Driver/src/stm32f4xx_cryp_aes.c ****         /* Write the Input block in the IN FIFO */
 806:Drivers/STM32F4xx_StdPeriph_Driver/src/stm32f4xx_cryp_aes.c ****         CRYP_DataIn(*(uint32_t*)(headeraddr));
 807:Drivers/STM32F4xx_StdPeriph_Driver/src/stm32f4xx_cryp_aes.c ****         headeraddr+=4;
 808:Drivers/STM32F4xx_StdPeriph_Driver/src/stm32f4xx_cryp_aes.c ****         CRYP_DataIn(*(uint32_t*)(headeraddr));
 809:Drivers/STM32F4xx_StdPeriph_Driver/src/stm32f4xx_cryp_aes.c ****         headeraddr+=4;
 810:Drivers/STM32F4xx_StdPeriph_Driver/src/stm32f4xx_cryp_aes.c ****         CRYP_DataIn(*(uint32_t*)(headeraddr));
 811:Drivers/STM32F4xx_StdPeriph_Driver/src/stm32f4xx_cryp_aes.c ****         headeraddr+=4;
 812:Drivers/STM32F4xx_StdPeriph_Driver/src/stm32f4xx_cryp_aes.c ****         CRYP_DataIn(*(uint32_t*)(headeraddr));
 813:Drivers/STM32F4xx_StdPeriph_Driver/src/stm32f4xx_cryp_aes.c ****         headeraddr+=4;
 814:Drivers/STM32F4xx_StdPeriph_Driver/src/stm32f4xx_cryp_aes.c ****       }
 815:Drivers/STM32F4xx_StdPeriph_Driver/src/stm32f4xx_cryp_aes.c ****       
 816:Drivers/STM32F4xx_StdPeriph_Driver/src/stm32f4xx_cryp_aes.c ****       /* Wait until the complete message has been processed */
 817:Drivers/STM32F4xx_StdPeriph_Driver/src/stm32f4xx_cryp_aes.c ****       counter = 0;
 818:Drivers/STM32F4xx_StdPeriph_Driver/src/stm32f4xx_cryp_aes.c ****       do
 819:Drivers/STM32F4xx_StdPeriph_Driver/src/stm32f4xx_cryp_aes.c ****       {
 820:Drivers/STM32F4xx_StdPeriph_Driver/src/stm32f4xx_cryp_aes.c ****         busystatus = CRYP_GetFlagStatus(CRYP_FLAG_BUSY);
 821:Drivers/STM32F4xx_StdPeriph_Driver/src/stm32f4xx_cryp_aes.c ****         counter++;
 822:Drivers/STM32F4xx_StdPeriph_Driver/src/stm32f4xx_cryp_aes.c ****       }while ((counter != AESBUSY_TIMEOUT) && (busystatus != RESET));
 823:Drivers/STM32F4xx_StdPeriph_Driver/src/stm32f4xx_cryp_aes.c **** 
 824:Drivers/STM32F4xx_StdPeriph_Driver/src/stm32f4xx_cryp_aes.c ****       if (busystatus != RESET)
 825:Drivers/STM32F4xx_StdPeriph_Driver/src/stm32f4xx_cryp_aes.c ****       {
 826:Drivers/STM32F4xx_StdPeriph_Driver/src/stm32f4xx_cryp_aes.c ****         status = ERROR;
 827:Drivers/STM32F4xx_StdPeriph_Driver/src/stm32f4xx_cryp_aes.c ****       }
 828:Drivers/STM32F4xx_StdPeriph_Driver/src/stm32f4xx_cryp_aes.c ****     }
 829:Drivers/STM32F4xx_StdPeriph_Driver/src/stm32f4xx_cryp_aes.c ****     
 830:Drivers/STM32F4xx_StdPeriph_Driver/src/stm32f4xx_cryp_aes.c ****     /**************************** payload phase *******************************/
 831:Drivers/STM32F4xx_StdPeriph_Driver/src/stm32f4xx_cryp_aes.c ****     if(ILength != 0)
 832:Drivers/STM32F4xx_StdPeriph_Driver/src/stm32f4xx_cryp_aes.c ****     {
 833:Drivers/STM32F4xx_StdPeriph_Driver/src/stm32f4xx_cryp_aes.c ****       /* Select payload phase */
 834:Drivers/STM32F4xx_StdPeriph_Driver/src/stm32f4xx_cryp_aes.c ****       CRYP_PhaseConfig(CRYP_Phase_Payload);
 835:Drivers/STM32F4xx_StdPeriph_Driver/src/stm32f4xx_cryp_aes.c ****       
 836:Drivers/STM32F4xx_StdPeriph_Driver/src/stm32f4xx_cryp_aes.c ****       /* Enable Crypto processor */
 837:Drivers/STM32F4xx_StdPeriph_Driver/src/stm32f4xx_cryp_aes.c ****       CRYP_Cmd(ENABLE);
 838:Drivers/STM32F4xx_StdPeriph_Driver/src/stm32f4xx_cryp_aes.c ****       
 839:Drivers/STM32F4xx_StdPeriph_Driver/src/stm32f4xx_cryp_aes.c ****       if(CRYP_GetCmdStatus() == DISABLE)
ARM GAS  /tmp/ccjGnpiF.s 			page 71


 840:Drivers/STM32F4xx_StdPeriph_Driver/src/stm32f4xx_cryp_aes.c ****       {
 841:Drivers/STM32F4xx_StdPeriph_Driver/src/stm32f4xx_cryp_aes.c ****         /* The CRYP peripheral clock is not enabled or the device doesn't embed 
 842:Drivers/STM32F4xx_StdPeriph_Driver/src/stm32f4xx_cryp_aes.c ****            the CRYP peripheral (please check the device sales type. */
 843:Drivers/STM32F4xx_StdPeriph_Driver/src/stm32f4xx_cryp_aes.c ****         return(ERROR);
 844:Drivers/STM32F4xx_StdPeriph_Driver/src/stm32f4xx_cryp_aes.c ****       }
 845:Drivers/STM32F4xx_StdPeriph_Driver/src/stm32f4xx_cryp_aes.c ****       
 846:Drivers/STM32F4xx_StdPeriph_Driver/src/stm32f4xx_cryp_aes.c ****       for(loopcounter = 0; ((loopcounter < ILength) && (status != ERROR)); loopcounter+=16)
 847:Drivers/STM32F4xx_StdPeriph_Driver/src/stm32f4xx_cryp_aes.c ****       {
 848:Drivers/STM32F4xx_StdPeriph_Driver/src/stm32f4xx_cryp_aes.c ****         /* Wait until the IFEM flag is reset */
 849:Drivers/STM32F4xx_StdPeriph_Driver/src/stm32f4xx_cryp_aes.c ****         while(CRYP_GetFlagStatus(CRYP_FLAG_IFEM) == RESET)
 850:Drivers/STM32F4xx_StdPeriph_Driver/src/stm32f4xx_cryp_aes.c ****         {
 851:Drivers/STM32F4xx_StdPeriph_Driver/src/stm32f4xx_cryp_aes.c ****         }
 852:Drivers/STM32F4xx_StdPeriph_Driver/src/stm32f4xx_cryp_aes.c ****         /* Write the Input block in the IN FIFO */
 853:Drivers/STM32F4xx_StdPeriph_Driver/src/stm32f4xx_cryp_aes.c ****         CRYP_DataIn(*(uint32_t*)(inputaddr));
 854:Drivers/STM32F4xx_StdPeriph_Driver/src/stm32f4xx_cryp_aes.c ****         inputaddr+=4;
 855:Drivers/STM32F4xx_StdPeriph_Driver/src/stm32f4xx_cryp_aes.c ****         CRYP_DataIn(*(uint32_t*)(inputaddr));
 856:Drivers/STM32F4xx_StdPeriph_Driver/src/stm32f4xx_cryp_aes.c ****         inputaddr+=4;
 857:Drivers/STM32F4xx_StdPeriph_Driver/src/stm32f4xx_cryp_aes.c ****         CRYP_DataIn(*(uint32_t*)(inputaddr));
 858:Drivers/STM32F4xx_StdPeriph_Driver/src/stm32f4xx_cryp_aes.c ****         inputaddr+=4;
 859:Drivers/STM32F4xx_StdPeriph_Driver/src/stm32f4xx_cryp_aes.c ****         CRYP_DataIn(*(uint32_t*)(inputaddr));
 860:Drivers/STM32F4xx_StdPeriph_Driver/src/stm32f4xx_cryp_aes.c ****         inputaddr+=4;
 861:Drivers/STM32F4xx_StdPeriph_Driver/src/stm32f4xx_cryp_aes.c ****         
 862:Drivers/STM32F4xx_StdPeriph_Driver/src/stm32f4xx_cryp_aes.c ****         /* Wait until the complete message has been processed */
 863:Drivers/STM32F4xx_StdPeriph_Driver/src/stm32f4xx_cryp_aes.c ****         counter = 0;
 864:Drivers/STM32F4xx_StdPeriph_Driver/src/stm32f4xx_cryp_aes.c ****         do
 865:Drivers/STM32F4xx_StdPeriph_Driver/src/stm32f4xx_cryp_aes.c ****         {
 866:Drivers/STM32F4xx_StdPeriph_Driver/src/stm32f4xx_cryp_aes.c ****           busystatus = CRYP_GetFlagStatus(CRYP_FLAG_BUSY);
 867:Drivers/STM32F4xx_StdPeriph_Driver/src/stm32f4xx_cryp_aes.c ****           counter++;
 868:Drivers/STM32F4xx_StdPeriph_Driver/src/stm32f4xx_cryp_aes.c ****         }while ((counter != AESBUSY_TIMEOUT) && (busystatus != RESET));
 869:Drivers/STM32F4xx_StdPeriph_Driver/src/stm32f4xx_cryp_aes.c **** 
 870:Drivers/STM32F4xx_StdPeriph_Driver/src/stm32f4xx_cryp_aes.c ****         if (busystatus != RESET)
 871:Drivers/STM32F4xx_StdPeriph_Driver/src/stm32f4xx_cryp_aes.c ****         {
 872:Drivers/STM32F4xx_StdPeriph_Driver/src/stm32f4xx_cryp_aes.c ****           status = ERROR;
 873:Drivers/STM32F4xx_StdPeriph_Driver/src/stm32f4xx_cryp_aes.c ****         }
 874:Drivers/STM32F4xx_StdPeriph_Driver/src/stm32f4xx_cryp_aes.c ****         else
 875:Drivers/STM32F4xx_StdPeriph_Driver/src/stm32f4xx_cryp_aes.c ****         {
 876:Drivers/STM32F4xx_StdPeriph_Driver/src/stm32f4xx_cryp_aes.c ****           /* Wait until the OFNE flag is reset */
 877:Drivers/STM32F4xx_StdPeriph_Driver/src/stm32f4xx_cryp_aes.c ****           while(CRYP_GetFlagStatus(CRYP_FLAG_OFNE) == RESET)
 878:Drivers/STM32F4xx_StdPeriph_Driver/src/stm32f4xx_cryp_aes.c ****           {
 879:Drivers/STM32F4xx_StdPeriph_Driver/src/stm32f4xx_cryp_aes.c ****           }
 880:Drivers/STM32F4xx_StdPeriph_Driver/src/stm32f4xx_cryp_aes.c ****           
 881:Drivers/STM32F4xx_StdPeriph_Driver/src/stm32f4xx_cryp_aes.c ****           /* Read the Output block from the Output FIFO */
 882:Drivers/STM32F4xx_StdPeriph_Driver/src/stm32f4xx_cryp_aes.c ****           *(uint32_t*)(outputaddr) = CRYP_DataOut();
 883:Drivers/STM32F4xx_StdPeriph_Driver/src/stm32f4xx_cryp_aes.c ****           outputaddr+=4;
 884:Drivers/STM32F4xx_StdPeriph_Driver/src/stm32f4xx_cryp_aes.c ****           *(uint32_t*)(outputaddr) = CRYP_DataOut();
 885:Drivers/STM32F4xx_StdPeriph_Driver/src/stm32f4xx_cryp_aes.c ****           outputaddr+=4;
 886:Drivers/STM32F4xx_StdPeriph_Driver/src/stm32f4xx_cryp_aes.c ****           *(uint32_t*)(outputaddr) = CRYP_DataOut();
 887:Drivers/STM32F4xx_StdPeriph_Driver/src/stm32f4xx_cryp_aes.c ****           outputaddr+=4;
 888:Drivers/STM32F4xx_StdPeriph_Driver/src/stm32f4xx_cryp_aes.c ****           *(uint32_t*)(outputaddr) = CRYP_DataOut();
 889:Drivers/STM32F4xx_StdPeriph_Driver/src/stm32f4xx_cryp_aes.c ****           outputaddr+=4;
 890:Drivers/STM32F4xx_StdPeriph_Driver/src/stm32f4xx_cryp_aes.c ****         }
 891:Drivers/STM32F4xx_StdPeriph_Driver/src/stm32f4xx_cryp_aes.c ****       }
 892:Drivers/STM32F4xx_StdPeriph_Driver/src/stm32f4xx_cryp_aes.c ****     }
 893:Drivers/STM32F4xx_StdPeriph_Driver/src/stm32f4xx_cryp_aes.c ****     
 894:Drivers/STM32F4xx_StdPeriph_Driver/src/stm32f4xx_cryp_aes.c ****     /***************************** final phase ********************************/
 895:Drivers/STM32F4xx_StdPeriph_Driver/src/stm32f4xx_cryp_aes.c ****     /* Select final phase */
 896:Drivers/STM32F4xx_StdPeriph_Driver/src/stm32f4xx_cryp_aes.c ****     CRYP_PhaseConfig(CRYP_Phase_Final);
ARM GAS  /tmp/ccjGnpiF.s 			page 72


 897:Drivers/STM32F4xx_StdPeriph_Driver/src/stm32f4xx_cryp_aes.c ****     
 898:Drivers/STM32F4xx_StdPeriph_Driver/src/stm32f4xx_cryp_aes.c ****     /* Enable Crypto processor */
 899:Drivers/STM32F4xx_StdPeriph_Driver/src/stm32f4xx_cryp_aes.c ****     CRYP_Cmd(ENABLE);
 900:Drivers/STM32F4xx_StdPeriph_Driver/src/stm32f4xx_cryp_aes.c ****     
 901:Drivers/STM32F4xx_StdPeriph_Driver/src/stm32f4xx_cryp_aes.c ****     if(CRYP_GetCmdStatus() == DISABLE)
 902:Drivers/STM32F4xx_StdPeriph_Driver/src/stm32f4xx_cryp_aes.c ****     {
 903:Drivers/STM32F4xx_StdPeriph_Driver/src/stm32f4xx_cryp_aes.c ****       /* The CRYP peripheral clock is not enabled or the device doesn't embed 
 904:Drivers/STM32F4xx_StdPeriph_Driver/src/stm32f4xx_cryp_aes.c ****          the CRYP peripheral (please check the device sales type. */
 905:Drivers/STM32F4xx_StdPeriph_Driver/src/stm32f4xx_cryp_aes.c ****       return(ERROR);
 906:Drivers/STM32F4xx_StdPeriph_Driver/src/stm32f4xx_cryp_aes.c ****     }
 907:Drivers/STM32F4xx_StdPeriph_Driver/src/stm32f4xx_cryp_aes.c ****     
 908:Drivers/STM32F4xx_StdPeriph_Driver/src/stm32f4xx_cryp_aes.c ****     /* Write number of bits concatenated with header in the IN FIFO */
 909:Drivers/STM32F4xx_StdPeriph_Driver/src/stm32f4xx_cryp_aes.c ****     CRYP_DataIn(__REV(headerlength>>32));
 910:Drivers/STM32F4xx_StdPeriph_Driver/src/stm32f4xx_cryp_aes.c ****     CRYP_DataIn(__REV(headerlength));
 911:Drivers/STM32F4xx_StdPeriph_Driver/src/stm32f4xx_cryp_aes.c ****     CRYP_DataIn(__REV(inputlength>>32));
 912:Drivers/STM32F4xx_StdPeriph_Driver/src/stm32f4xx_cryp_aes.c ****     CRYP_DataIn(__REV(inputlength));
 913:Drivers/STM32F4xx_StdPeriph_Driver/src/stm32f4xx_cryp_aes.c ****     /* Wait until the OFNE flag is reset */
 914:Drivers/STM32F4xx_StdPeriph_Driver/src/stm32f4xx_cryp_aes.c ****     while(CRYP_GetFlagStatus(CRYP_FLAG_OFNE) == RESET)
 915:Drivers/STM32F4xx_StdPeriph_Driver/src/stm32f4xx_cryp_aes.c ****     {
 916:Drivers/STM32F4xx_StdPeriph_Driver/src/stm32f4xx_cryp_aes.c ****     }
 917:Drivers/STM32F4xx_StdPeriph_Driver/src/stm32f4xx_cryp_aes.c ****     
 918:Drivers/STM32F4xx_StdPeriph_Driver/src/stm32f4xx_cryp_aes.c ****     tagaddr = (uint32_t)AuthTAG;
 919:Drivers/STM32F4xx_StdPeriph_Driver/src/stm32f4xx_cryp_aes.c ****     /* Read the Auth TAG in the IN FIFO */
 920:Drivers/STM32F4xx_StdPeriph_Driver/src/stm32f4xx_cryp_aes.c ****     *(uint32_t*)(tagaddr) = CRYP_DataOut();
 921:Drivers/STM32F4xx_StdPeriph_Driver/src/stm32f4xx_cryp_aes.c ****     tagaddr+=4;
 922:Drivers/STM32F4xx_StdPeriph_Driver/src/stm32f4xx_cryp_aes.c ****     *(uint32_t*)(tagaddr) = CRYP_DataOut();
 923:Drivers/STM32F4xx_StdPeriph_Driver/src/stm32f4xx_cryp_aes.c ****     tagaddr+=4;
 924:Drivers/STM32F4xx_StdPeriph_Driver/src/stm32f4xx_cryp_aes.c ****     *(uint32_t*)(tagaddr) = CRYP_DataOut();
 925:Drivers/STM32F4xx_StdPeriph_Driver/src/stm32f4xx_cryp_aes.c ****     tagaddr+=4;
 926:Drivers/STM32F4xx_StdPeriph_Driver/src/stm32f4xx_cryp_aes.c ****     *(uint32_t*)(tagaddr) = CRYP_DataOut();
 927:Drivers/STM32F4xx_StdPeriph_Driver/src/stm32f4xx_cryp_aes.c ****     tagaddr+=4;
 928:Drivers/STM32F4xx_StdPeriph_Driver/src/stm32f4xx_cryp_aes.c ****   }
 929:Drivers/STM32F4xx_StdPeriph_Driver/src/stm32f4xx_cryp_aes.c ****   /*------------------ AES Decryption ------------------*/
 930:Drivers/STM32F4xx_StdPeriph_Driver/src/stm32f4xx_cryp_aes.c ****   else /* AES decryption */
 931:Drivers/STM32F4xx_StdPeriph_Driver/src/stm32f4xx_cryp_aes.c ****   {
 932:Drivers/STM32F4xx_StdPeriph_Driver/src/stm32f4xx_cryp_aes.c ****     /* Flush IN/OUT FIFOs */
 933:Drivers/STM32F4xx_StdPeriph_Driver/src/stm32f4xx_cryp_aes.c ****     CRYP_FIFOFlush();
 2280              		.loc 1 933 5 is_stmt 1 view .LVU889
 2281 0064 FFF7FEFF 		bl	CRYP_FIFOFlush
 2282              	.LVL323:
 934:Drivers/STM32F4xx_StdPeriph_Driver/src/stm32f4xx_cryp_aes.c ****     
 935:Drivers/STM32F4xx_StdPeriph_Driver/src/stm32f4xx_cryp_aes.c ****     /* Key Initialisation */
 936:Drivers/STM32F4xx_StdPeriph_Driver/src/stm32f4xx_cryp_aes.c ****     CRYP_KeyInit(&AES_CRYP_KeyInitStructure);
 2283              		.loc 1 936 5 view .LVU890
 2284 0068 0AA8     		add	r0, sp, #40
 2285 006a FFF7FEFF 		bl	CRYP_KeyInit
 2286              	.LVL324:
 937:Drivers/STM32F4xx_StdPeriph_Driver/src/stm32f4xx_cryp_aes.c ****     
 938:Drivers/STM32F4xx_StdPeriph_Driver/src/stm32f4xx_cryp_aes.c ****     /* CRYP Initialization Vectors */
 939:Drivers/STM32F4xx_StdPeriph_Driver/src/stm32f4xx_cryp_aes.c ****     CRYP_IVInit(&AES_CRYP_IVInitStructure);
 2287              		.loc 1 939 5 view .LVU891
 2288 006e 06A8     		add	r0, sp, #24
 2289 0070 FFF7FEFF 		bl	CRYP_IVInit
 2290              	.LVL325:
 940:Drivers/STM32F4xx_StdPeriph_Driver/src/stm32f4xx_cryp_aes.c ****     
 941:Drivers/STM32F4xx_StdPeriph_Driver/src/stm32f4xx_cryp_aes.c ****     /* Crypto Init for Key preparation for decryption process */
 942:Drivers/STM32F4xx_StdPeriph_Driver/src/stm32f4xx_cryp_aes.c ****     AES_CRYP_InitStructure.CRYP_AlgoDir = CRYP_AlgoDir_Decrypt;
ARM GAS  /tmp/ccjGnpiF.s 			page 73


 2291              		.loc 1 942 5 view .LVU892
 2292              		.loc 1 942 41 is_stmt 0 view .LVU893
 2293 0074 0423     		movs	r3, #4
 2294 0076 1293     		str	r3, [sp, #72]
 943:Drivers/STM32F4xx_StdPeriph_Driver/src/stm32f4xx_cryp_aes.c ****     AES_CRYP_InitStructure.CRYP_AlgoMode = CRYP_AlgoMode_AES_GCM;
 2295              		.loc 1 943 5 is_stmt 1 view .LVU894
 2296              		.loc 1 943 42 is_stmt 0 view .LVU895
 2297 0078 4FF40023 		mov	r3, #524288
 2298 007c 1393     		str	r3, [sp, #76]
 944:Drivers/STM32F4xx_StdPeriph_Driver/src/stm32f4xx_cryp_aes.c ****     AES_CRYP_InitStructure.CRYP_DataType = CRYP_DataType_8b;
 2299              		.loc 1 944 5 is_stmt 1 view .LVU896
 2300              		.loc 1 944 42 is_stmt 0 view .LVU897
 2301 007e 8023     		movs	r3, #128
 2302 0080 1493     		str	r3, [sp, #80]
 945:Drivers/STM32F4xx_StdPeriph_Driver/src/stm32f4xx_cryp_aes.c ****     CRYP_Init(&AES_CRYP_InitStructure);
 2303              		.loc 1 945 5 is_stmt 1 view .LVU898
 2304 0082 12A8     		add	r0, sp, #72
 2305 0084 FFF7FEFF 		bl	CRYP_Init
 2306              	.LVL326:
 946:Drivers/STM32F4xx_StdPeriph_Driver/src/stm32f4xx_cryp_aes.c ****     
 947:Drivers/STM32F4xx_StdPeriph_Driver/src/stm32f4xx_cryp_aes.c ****     /***************************** Init phase *********************************/
 948:Drivers/STM32F4xx_StdPeriph_Driver/src/stm32f4xx_cryp_aes.c ****     /* Select init phase */
 949:Drivers/STM32F4xx_StdPeriph_Driver/src/stm32f4xx_cryp_aes.c ****     CRYP_PhaseConfig(CRYP_Phase_Init);
 2307              		.loc 1 949 5 view .LVU899
 2308 0088 0020     		movs	r0, #0
 2309 008a FFF7FEFF 		bl	CRYP_PhaseConfig
 2310              	.LVL327:
 950:Drivers/STM32F4xx_StdPeriph_Driver/src/stm32f4xx_cryp_aes.c ****     
 951:Drivers/STM32F4xx_StdPeriph_Driver/src/stm32f4xx_cryp_aes.c ****     /* Enable Crypto processor */
 952:Drivers/STM32F4xx_StdPeriph_Driver/src/stm32f4xx_cryp_aes.c ****     CRYP_Cmd(ENABLE);
 2311              		.loc 1 952 5 view .LVU900
 2312 008e 0120     		movs	r0, #1
 2313 0090 FFF7FEFF 		bl	CRYP_Cmd
 2314              	.LVL328:
 953:Drivers/STM32F4xx_StdPeriph_Driver/src/stm32f4xx_cryp_aes.c ****     
 954:Drivers/STM32F4xx_StdPeriph_Driver/src/stm32f4xx_cryp_aes.c ****     /* Wait for CRYPEN bit to be 0 */
 955:Drivers/STM32F4xx_StdPeriph_Driver/src/stm32f4xx_cryp_aes.c ****     while(CRYP_GetCmdStatus() == ENABLE)
 2315              		.loc 1 955 5 view .LVU901
 2316              	.L77:
 956:Drivers/STM32F4xx_StdPeriph_Driver/src/stm32f4xx_cryp_aes.c ****     {
 957:Drivers/STM32F4xx_StdPeriph_Driver/src/stm32f4xx_cryp_aes.c ****     }
 2317              		.loc 1 957 5 discriminator 1 view .LVU902
 955:Drivers/STM32F4xx_StdPeriph_Driver/src/stm32f4xx_cryp_aes.c ****     {
 2318              		.loc 1 955 10 discriminator 1 view .LVU903
 955:Drivers/STM32F4xx_StdPeriph_Driver/src/stm32f4xx_cryp_aes.c ****     {
 2319              		.loc 1 955 11 is_stmt 0 discriminator 1 view .LVU904
 2320 0094 FFF7FEFF 		bl	CRYP_GetCmdStatus
 2321              	.LVL329:
 955:Drivers/STM32F4xx_StdPeriph_Driver/src/stm32f4xx_cryp_aes.c ****     {
 2322              		.loc 1 955 10 discriminator 1 view .LVU905
 2323 0098 0128     		cmp	r0, #1
 2324 009a FBD0     		beq	.L77
 958:Drivers/STM32F4xx_StdPeriph_Driver/src/stm32f4xx_cryp_aes.c ****     
 959:Drivers/STM32F4xx_StdPeriph_Driver/src/stm32f4xx_cryp_aes.c ****     /***************************** header phase *******************************/
 960:Drivers/STM32F4xx_StdPeriph_Driver/src/stm32f4xx_cryp_aes.c ****     if(HLength != 0)
 2325              		.loc 1 960 5 is_stmt 1 view .LVU906
 2326              		.loc 1 960 7 is_stmt 0 view .LVU907
ARM GAS  /tmp/ccjGnpiF.s 			page 74


 2327 009c BAF1000F 		cmp	r10, #0
 2328 00a0 40F03481 		bne	.L101
 681:Drivers/STM32F4xx_StdPeriph_Driver/src/stm32f4xx_cryp_aes.c ****   uint32_t keyaddr    = (uint32_t)Key;
 2329              		.loc 1 681 15 view .LVU908
 2330 00a4 0125     		movs	r5, #1
 2331              	.LVL330:
 2332              	.L78:
 961:Drivers/STM32F4xx_StdPeriph_Driver/src/stm32f4xx_cryp_aes.c ****     {
 962:Drivers/STM32F4xx_StdPeriph_Driver/src/stm32f4xx_cryp_aes.c ****       /* Select header phase */
 963:Drivers/STM32F4xx_StdPeriph_Driver/src/stm32f4xx_cryp_aes.c ****       CRYP_PhaseConfig(CRYP_Phase_Header);
 964:Drivers/STM32F4xx_StdPeriph_Driver/src/stm32f4xx_cryp_aes.c ****       
 965:Drivers/STM32F4xx_StdPeriph_Driver/src/stm32f4xx_cryp_aes.c ****       /* Enable Crypto processor */
 966:Drivers/STM32F4xx_StdPeriph_Driver/src/stm32f4xx_cryp_aes.c ****       CRYP_Cmd(ENABLE);
 967:Drivers/STM32F4xx_StdPeriph_Driver/src/stm32f4xx_cryp_aes.c ****       
 968:Drivers/STM32F4xx_StdPeriph_Driver/src/stm32f4xx_cryp_aes.c ****       if(CRYP_GetCmdStatus() == DISABLE)
 969:Drivers/STM32F4xx_StdPeriph_Driver/src/stm32f4xx_cryp_aes.c ****       {
 970:Drivers/STM32F4xx_StdPeriph_Driver/src/stm32f4xx_cryp_aes.c ****         /* The CRYP peripheral clock is not enabled or the device doesn't embed 
 971:Drivers/STM32F4xx_StdPeriph_Driver/src/stm32f4xx_cryp_aes.c ****            the CRYP peripheral (please check the device sales type. */
 972:Drivers/STM32F4xx_StdPeriph_Driver/src/stm32f4xx_cryp_aes.c ****         return(ERROR);
 973:Drivers/STM32F4xx_StdPeriph_Driver/src/stm32f4xx_cryp_aes.c ****       }
 974:Drivers/STM32F4xx_StdPeriph_Driver/src/stm32f4xx_cryp_aes.c ****       
 975:Drivers/STM32F4xx_StdPeriph_Driver/src/stm32f4xx_cryp_aes.c ****       for(loopcounter = 0; (loopcounter < HLength); loopcounter+=16)
 976:Drivers/STM32F4xx_StdPeriph_Driver/src/stm32f4xx_cryp_aes.c ****       {
 977:Drivers/STM32F4xx_StdPeriph_Driver/src/stm32f4xx_cryp_aes.c ****         /* Wait until the IFEM flag is reset */
 978:Drivers/STM32F4xx_StdPeriph_Driver/src/stm32f4xx_cryp_aes.c ****         while(CRYP_GetFlagStatus(CRYP_FLAG_IFEM) == RESET)
 979:Drivers/STM32F4xx_StdPeriph_Driver/src/stm32f4xx_cryp_aes.c ****         {
 980:Drivers/STM32F4xx_StdPeriph_Driver/src/stm32f4xx_cryp_aes.c ****         }
 981:Drivers/STM32F4xx_StdPeriph_Driver/src/stm32f4xx_cryp_aes.c ****         
 982:Drivers/STM32F4xx_StdPeriph_Driver/src/stm32f4xx_cryp_aes.c ****         /* Write the Input block in the IN FIFO */
 983:Drivers/STM32F4xx_StdPeriph_Driver/src/stm32f4xx_cryp_aes.c ****         CRYP_DataIn(*(uint32_t*)(headeraddr));
 984:Drivers/STM32F4xx_StdPeriph_Driver/src/stm32f4xx_cryp_aes.c ****         headeraddr+=4;
 985:Drivers/STM32F4xx_StdPeriph_Driver/src/stm32f4xx_cryp_aes.c ****         CRYP_DataIn(*(uint32_t*)(headeraddr));
 986:Drivers/STM32F4xx_StdPeriph_Driver/src/stm32f4xx_cryp_aes.c ****         headeraddr+=4;
 987:Drivers/STM32F4xx_StdPeriph_Driver/src/stm32f4xx_cryp_aes.c ****         CRYP_DataIn(*(uint32_t*)(headeraddr));
 988:Drivers/STM32F4xx_StdPeriph_Driver/src/stm32f4xx_cryp_aes.c ****         headeraddr+=4;
 989:Drivers/STM32F4xx_StdPeriph_Driver/src/stm32f4xx_cryp_aes.c ****         CRYP_DataIn(*(uint32_t*)(headeraddr));
 990:Drivers/STM32F4xx_StdPeriph_Driver/src/stm32f4xx_cryp_aes.c ****         headeraddr+=4;
 991:Drivers/STM32F4xx_StdPeriph_Driver/src/stm32f4xx_cryp_aes.c ****       }
 992:Drivers/STM32F4xx_StdPeriph_Driver/src/stm32f4xx_cryp_aes.c ****       
 993:Drivers/STM32F4xx_StdPeriph_Driver/src/stm32f4xx_cryp_aes.c ****       /* Wait until the complete message has been processed */
 994:Drivers/STM32F4xx_StdPeriph_Driver/src/stm32f4xx_cryp_aes.c ****       counter = 0;
 995:Drivers/STM32F4xx_StdPeriph_Driver/src/stm32f4xx_cryp_aes.c ****       do
 996:Drivers/STM32F4xx_StdPeriph_Driver/src/stm32f4xx_cryp_aes.c ****       {
 997:Drivers/STM32F4xx_StdPeriph_Driver/src/stm32f4xx_cryp_aes.c ****         busystatus = CRYP_GetFlagStatus(CRYP_FLAG_BUSY);
 998:Drivers/STM32F4xx_StdPeriph_Driver/src/stm32f4xx_cryp_aes.c ****         counter++;
 999:Drivers/STM32F4xx_StdPeriph_Driver/src/stm32f4xx_cryp_aes.c ****       }while ((counter != AESBUSY_TIMEOUT) && (busystatus != RESET));
1000:Drivers/STM32F4xx_StdPeriph_Driver/src/stm32f4xx_cryp_aes.c **** 
1001:Drivers/STM32F4xx_StdPeriph_Driver/src/stm32f4xx_cryp_aes.c ****       if (busystatus != RESET)
1002:Drivers/STM32F4xx_StdPeriph_Driver/src/stm32f4xx_cryp_aes.c ****       {
1003:Drivers/STM32F4xx_StdPeriph_Driver/src/stm32f4xx_cryp_aes.c ****         status = ERROR;
1004:Drivers/STM32F4xx_StdPeriph_Driver/src/stm32f4xx_cryp_aes.c ****       }
1005:Drivers/STM32F4xx_StdPeriph_Driver/src/stm32f4xx_cryp_aes.c ****     }
1006:Drivers/STM32F4xx_StdPeriph_Driver/src/stm32f4xx_cryp_aes.c ****     
1007:Drivers/STM32F4xx_StdPeriph_Driver/src/stm32f4xx_cryp_aes.c ****     /**************************** payload phase *******************************/
1008:Drivers/STM32F4xx_StdPeriph_Driver/src/stm32f4xx_cryp_aes.c ****     if(ILength != 0)
 2333              		.loc 1 1008 5 is_stmt 1 view .LVU909
 2334              		.loc 1 1008 7 is_stmt 0 view .LVU910
ARM GAS  /tmp/ccjGnpiF.s 			page 75


 2335 00a6 B9F1000F 		cmp	r9, #0
 2336 00aa 00F0A681 		beq	.L83
1009:Drivers/STM32F4xx_StdPeriph_Driver/src/stm32f4xx_cryp_aes.c ****     {
1010:Drivers/STM32F4xx_StdPeriph_Driver/src/stm32f4xx_cryp_aes.c ****       /* Select payload phase */
1011:Drivers/STM32F4xx_StdPeriph_Driver/src/stm32f4xx_cryp_aes.c ****       CRYP_PhaseConfig(CRYP_Phase_Payload);
 2337              		.loc 1 1011 7 is_stmt 1 view .LVU911
 2338 00ae 4FF40030 		mov	r0, #131072
 2339 00b2 FFF7FEFF 		bl	CRYP_PhaseConfig
 2340              	.LVL331:
1012:Drivers/STM32F4xx_StdPeriph_Driver/src/stm32f4xx_cryp_aes.c **** 
1013:Drivers/STM32F4xx_StdPeriph_Driver/src/stm32f4xx_cryp_aes.c ****       /* Enable Crypto processor */
1014:Drivers/STM32F4xx_StdPeriph_Driver/src/stm32f4xx_cryp_aes.c ****       CRYP_Cmd(ENABLE);
 2341              		.loc 1 1014 7 view .LVU912
 2342 00b6 0120     		movs	r0, #1
 2343 00b8 FFF7FEFF 		bl	CRYP_Cmd
 2344              	.LVL332:
1015:Drivers/STM32F4xx_StdPeriph_Driver/src/stm32f4xx_cryp_aes.c ****       
1016:Drivers/STM32F4xx_StdPeriph_Driver/src/stm32f4xx_cryp_aes.c ****       if(CRYP_GetCmdStatus() == DISABLE)
 2345              		.loc 1 1016 7 view .LVU913
 2346              		.loc 1 1016 10 is_stmt 0 view .LVU914
 2347 00bc FFF7FEFF 		bl	CRYP_GetCmdStatus
 2348              	.LVL333:
 2349              		.loc 1 1016 9 view .LVU915
 2350 00c0 0646     		mov	r6, r0
 2351 00c2 0028     		cmp	r0, #0
 2352 00c4 00F0CB81 		beq	.L63
1017:Drivers/STM32F4xx_StdPeriph_Driver/src/stm32f4xx_cryp_aes.c ****       {
1018:Drivers/STM32F4xx_StdPeriph_Driver/src/stm32f4xx_cryp_aes.c ****         /* The CRYP peripheral clock is not enabled or the device doesn't embed 
1019:Drivers/STM32F4xx_StdPeriph_Driver/src/stm32f4xx_cryp_aes.c ****            the CRYP peripheral (please check the device sales type. */
1020:Drivers/STM32F4xx_StdPeriph_Driver/src/stm32f4xx_cryp_aes.c ****         return(ERROR);
1021:Drivers/STM32F4xx_StdPeriph_Driver/src/stm32f4xx_cryp_aes.c ****       }
1022:Drivers/STM32F4xx_StdPeriph_Driver/src/stm32f4xx_cryp_aes.c ****       
1023:Drivers/STM32F4xx_StdPeriph_Driver/src/stm32f4xx_cryp_aes.c ****       for(loopcounter = 0; ((loopcounter < ILength) && (status != ERROR)); loopcounter+=16)
 2353              		.loc 1 1023 23 view .LVU916
 2354 00c8 0026     		movs	r6, #0
 2355              	.LVL334:
 2356              		.loc 1 1023 23 view .LVU917
 2357 00ca 59E1     		b	.L84
 2358              	.LVL335:
 2359              	.L99:
 698:Drivers/STM32F4xx_StdPeriph_Driver/src/stm32f4xx_cryp_aes.c ****     AES_CRYP_KeyInitStructure.CRYP_Key2Left = __REV(*(uint32_t*)(keyaddr));
 2360              		.loc 1 698 5 is_stmt 1 view .LVU918
 698:Drivers/STM32F4xx_StdPeriph_Driver/src/stm32f4xx_cryp_aes.c ****     AES_CRYP_KeyInitStructure.CRYP_Key2Left = __REV(*(uint32_t*)(keyaddr));
 2361              		.loc 1 698 41 is_stmt 0 view .LVU919
 2362 00cc 0023     		movs	r3, #0
 2363 00ce 1593     		str	r3, [sp, #84]
 699:Drivers/STM32F4xx_StdPeriph_Driver/src/stm32f4xx_cryp_aes.c ****     keyaddr+=4;
 2364              		.loc 1 699 5 is_stmt 1 view .LVU920
 699:Drivers/STM32F4xx_StdPeriph_Driver/src/stm32f4xx_cryp_aes.c ****     keyaddr+=4;
 2365              		.loc 1 699 47 is_stmt 0 view .LVU921
 2366 00d0 3368     		ldr	r3, [r6]
 2367              	.LVL336:
 2368              	.LBB362:
 2369              	.LBI362:
 495:Drivers/CMSIS/Include/core_cmInstr.h **** {
 2370              		.loc 2 495 57 is_stmt 1 view .LVU922
 2371              	.LBB363:
ARM GAS  /tmp/ccjGnpiF.s 			page 76


 2372              		.loc 2 498 3 view .LVU923
 2373              		.loc 2 498 10 is_stmt 0 view .LVU924
 2374 00d2 1BBA     		rev	r3, r3
 2375              	.LVL337:
 2376              		.loc 2 498 10 view .LVU925
 2377              	.LBE363:
 2378              	.LBE362:
 699:Drivers/STM32F4xx_StdPeriph_Driver/src/stm32f4xx_cryp_aes.c ****     keyaddr+=4;
 2379              		.loc 1 699 45 view .LVU926
 2380 00d4 0E93     		str	r3, [sp, #56]
 700:Drivers/STM32F4xx_StdPeriph_Driver/src/stm32f4xx_cryp_aes.c ****     AES_CRYP_KeyInitStructure.CRYP_Key2Right= __REV(*(uint32_t*)(keyaddr));
 2381              		.loc 1 700 5 is_stmt 1 view .LVU927
 2382              	.LVL338:
 701:Drivers/STM32F4xx_StdPeriph_Driver/src/stm32f4xx_cryp_aes.c ****     keyaddr+=4;
 2383              		.loc 1 701 5 view .LVU928
 701:Drivers/STM32F4xx_StdPeriph_Driver/src/stm32f4xx_cryp_aes.c ****     keyaddr+=4;
 2384              		.loc 1 701 47 is_stmt 0 view .LVU929
 2385 00d6 7368     		ldr	r3, [r6, #4]
 2386              	.LVL339:
 2387              	.LBB364:
 2388              	.LBI364:
 495:Drivers/CMSIS/Include/core_cmInstr.h **** {
 2389              		.loc 2 495 57 is_stmt 1 view .LVU930
 2390              	.LBB365:
 2391              		.loc 2 498 3 view .LVU931
 2392              		.loc 2 498 10 is_stmt 0 view .LVU932
 2393 00d8 1BBA     		rev	r3, r3
 2394              	.LVL340:
 2395              		.loc 2 498 10 view .LVU933
 2396              	.LBE365:
 2397              	.LBE364:
 701:Drivers/STM32F4xx_StdPeriph_Driver/src/stm32f4xx_cryp_aes.c ****     keyaddr+=4;
 2398              		.loc 1 701 45 view .LVU934
 2399 00da 0F93     		str	r3, [sp, #60]
 702:Drivers/STM32F4xx_StdPeriph_Driver/src/stm32f4xx_cryp_aes.c ****     AES_CRYP_KeyInitStructure.CRYP_Key3Left = __REV(*(uint32_t*)(keyaddr));
 2400              		.loc 1 702 5 is_stmt 1 view .LVU935
 2401              	.LVL341:
 703:Drivers/STM32F4xx_StdPeriph_Driver/src/stm32f4xx_cryp_aes.c ****     keyaddr+=4;
 2402              		.loc 1 703 5 view .LVU936
 703:Drivers/STM32F4xx_StdPeriph_Driver/src/stm32f4xx_cryp_aes.c ****     keyaddr+=4;
 2403              		.loc 1 703 47 is_stmt 0 view .LVU937
 2404 00dc B368     		ldr	r3, [r6, #8]
 2405              	.LVL342:
 2406              	.LBB366:
 2407              	.LBI366:
 495:Drivers/CMSIS/Include/core_cmInstr.h **** {
 2408              		.loc 2 495 57 is_stmt 1 view .LVU938
 2409              	.LBB367:
 2410              		.loc 2 498 3 view .LVU939
 2411              		.loc 2 498 10 is_stmt 0 view .LVU940
 2412 00de 1BBA     		rev	r3, r3
 2413              	.LVL343:
 2414              		.loc 2 498 10 view .LVU941
 2415              	.LBE367:
 2416              	.LBE366:
 703:Drivers/STM32F4xx_StdPeriph_Driver/src/stm32f4xx_cryp_aes.c ****     keyaddr+=4;
 2417              		.loc 1 703 45 view .LVU942
ARM GAS  /tmp/ccjGnpiF.s 			page 77


 2418 00e0 1093     		str	r3, [sp, #64]
 704:Drivers/STM32F4xx_StdPeriph_Driver/src/stm32f4xx_cryp_aes.c ****     AES_CRYP_KeyInitStructure.CRYP_Key3Right= __REV(*(uint32_t*)(keyaddr));
 2419              		.loc 1 704 5 is_stmt 1 view .LVU943
 2420              	.LVL344:
 705:Drivers/STM32F4xx_StdPeriph_Driver/src/stm32f4xx_cryp_aes.c ****     break;
 2421              		.loc 1 705 5 view .LVU944
 705:Drivers/STM32F4xx_StdPeriph_Driver/src/stm32f4xx_cryp_aes.c ****     break;
 2422              		.loc 1 705 47 is_stmt 0 view .LVU945
 2423 00e2 F368     		ldr	r3, [r6, #12]
 2424              	.LVL345:
 2425              	.LBB368:
 2426              	.LBI368:
 495:Drivers/CMSIS/Include/core_cmInstr.h **** {
 2427              		.loc 2 495 57 is_stmt 1 view .LVU946
 2428              	.LBB369:
 2429              		.loc 2 498 3 view .LVU947
 2430              		.loc 2 498 10 is_stmt 0 view .LVU948
 2431 00e4 1BBA     		rev	r3, r3
 2432              	.LVL346:
 2433              		.loc 2 498 10 view .LVU949
 2434              	.LBE369:
 2435              	.LBE368:
 705:Drivers/STM32F4xx_StdPeriph_Driver/src/stm32f4xx_cryp_aes.c ****     break;
 2436              		.loc 1 705 45 view .LVU950
 2437 00e6 1193     		str	r3, [sp, #68]
 706:Drivers/STM32F4xx_StdPeriph_Driver/src/stm32f4xx_cryp_aes.c ****     case 192:
 2438              		.loc 1 706 5 is_stmt 1 view .LVU951
 2439 00e8 ADE7     		b	.L59
 2440              	.LVL347:
 2441              	.L57:
 708:Drivers/STM32F4xx_StdPeriph_Driver/src/stm32f4xx_cryp_aes.c ****     AES_CRYP_KeyInitStructure.CRYP_Key1Left = __REV(*(uint32_t*)(keyaddr));
 2442              		.loc 1 708 5 view .LVU952
 708:Drivers/STM32F4xx_StdPeriph_Driver/src/stm32f4xx_cryp_aes.c ****     AES_CRYP_KeyInitStructure.CRYP_Key1Left = __REV(*(uint32_t*)(keyaddr));
 2443              		.loc 1 708 42 is_stmt 0 view .LVU953
 2444 00ea 4FF48073 		mov	r3, #256
 2445 00ee 1593     		str	r3, [sp, #84]
 709:Drivers/STM32F4xx_StdPeriph_Driver/src/stm32f4xx_cryp_aes.c ****     keyaddr+=4;
 2446              		.loc 1 709 5 is_stmt 1 view .LVU954
 709:Drivers/STM32F4xx_StdPeriph_Driver/src/stm32f4xx_cryp_aes.c ****     keyaddr+=4;
 2447              		.loc 1 709 47 is_stmt 0 view .LVU955
 2448 00f0 3368     		ldr	r3, [r6]
 2449              	.LVL348:
 2450              	.LBB370:
 2451              	.LBI370:
 495:Drivers/CMSIS/Include/core_cmInstr.h **** {
 2452              		.loc 2 495 57 is_stmt 1 view .LVU956
 2453              	.LBB371:
 2454              		.loc 2 498 3 view .LVU957
 2455              		.loc 2 498 10 is_stmt 0 view .LVU958
 2456 00f2 1BBA     		rev	r3, r3
 2457              	.LVL349:
 2458              		.loc 2 498 10 view .LVU959
 2459              	.LBE371:
 2460              	.LBE370:
 709:Drivers/STM32F4xx_StdPeriph_Driver/src/stm32f4xx_cryp_aes.c ****     keyaddr+=4;
 2461              		.loc 1 709 45 view .LVU960
 2462 00f4 0C93     		str	r3, [sp, #48]
ARM GAS  /tmp/ccjGnpiF.s 			page 78


 710:Drivers/STM32F4xx_StdPeriph_Driver/src/stm32f4xx_cryp_aes.c ****     AES_CRYP_KeyInitStructure.CRYP_Key1Right= __REV(*(uint32_t*)(keyaddr));
 2463              		.loc 1 710 5 is_stmt 1 view .LVU961
 2464              	.LVL350:
 711:Drivers/STM32F4xx_StdPeriph_Driver/src/stm32f4xx_cryp_aes.c ****     keyaddr+=4;
 2465              		.loc 1 711 5 view .LVU962
 711:Drivers/STM32F4xx_StdPeriph_Driver/src/stm32f4xx_cryp_aes.c ****     keyaddr+=4;
 2466              		.loc 1 711 47 is_stmt 0 view .LVU963
 2467 00f6 7368     		ldr	r3, [r6, #4]
 2468              	.LVL351:
 2469              	.LBB372:
 2470              	.LBI372:
 495:Drivers/CMSIS/Include/core_cmInstr.h **** {
 2471              		.loc 2 495 57 is_stmt 1 view .LVU964
 2472              	.LBB373:
 2473              		.loc 2 498 3 view .LVU965
 2474              		.loc 2 498 10 is_stmt 0 view .LVU966
 2475 00f8 1BBA     		rev	r3, r3
 2476              	.LVL352:
 2477              		.loc 2 498 10 view .LVU967
 2478              	.LBE373:
 2479              	.LBE372:
 711:Drivers/STM32F4xx_StdPeriph_Driver/src/stm32f4xx_cryp_aes.c ****     keyaddr+=4;
 2480              		.loc 1 711 45 view .LVU968
 2481 00fa 0D93     		str	r3, [sp, #52]
 712:Drivers/STM32F4xx_StdPeriph_Driver/src/stm32f4xx_cryp_aes.c ****     AES_CRYP_KeyInitStructure.CRYP_Key2Left = __REV(*(uint32_t*)(keyaddr));
 2482              		.loc 1 712 5 is_stmt 1 view .LVU969
 2483              	.LVL353:
 713:Drivers/STM32F4xx_StdPeriph_Driver/src/stm32f4xx_cryp_aes.c ****     keyaddr+=4;
 2484              		.loc 1 713 5 view .LVU970
 713:Drivers/STM32F4xx_StdPeriph_Driver/src/stm32f4xx_cryp_aes.c ****     keyaddr+=4;
 2485              		.loc 1 713 47 is_stmt 0 view .LVU971
 2486 00fc B368     		ldr	r3, [r6, #8]
 2487              	.LVL354:
 2488              	.LBB374:
 2489              	.LBI374:
 495:Drivers/CMSIS/Include/core_cmInstr.h **** {
 2490              		.loc 2 495 57 is_stmt 1 view .LVU972
 2491              	.LBB375:
 2492              		.loc 2 498 3 view .LVU973
 2493              		.loc 2 498 10 is_stmt 0 view .LVU974
 2494 00fe 1BBA     		rev	r3, r3
 2495              	.LVL355:
 2496              		.loc 2 498 10 view .LVU975
 2497              	.LBE375:
 2498              	.LBE374:
 713:Drivers/STM32F4xx_StdPeriph_Driver/src/stm32f4xx_cryp_aes.c ****     keyaddr+=4;
 2499              		.loc 1 713 45 view .LVU976
 2500 0100 0E93     		str	r3, [sp, #56]
 714:Drivers/STM32F4xx_StdPeriph_Driver/src/stm32f4xx_cryp_aes.c ****     AES_CRYP_KeyInitStructure.CRYP_Key2Right= __REV(*(uint32_t*)(keyaddr));
 2501              		.loc 1 714 5 is_stmt 1 view .LVU977
 2502              	.LVL356:
 715:Drivers/STM32F4xx_StdPeriph_Driver/src/stm32f4xx_cryp_aes.c ****     keyaddr+=4;
 2503              		.loc 1 715 5 view .LVU978
 715:Drivers/STM32F4xx_StdPeriph_Driver/src/stm32f4xx_cryp_aes.c ****     keyaddr+=4;
 2504              		.loc 1 715 47 is_stmt 0 view .LVU979
 2505 0102 F368     		ldr	r3, [r6, #12]
 2506              	.LVL357:
ARM GAS  /tmp/ccjGnpiF.s 			page 79


 2507              	.LBB376:
 2508              	.LBI376:
 495:Drivers/CMSIS/Include/core_cmInstr.h **** {
 2509              		.loc 2 495 57 is_stmt 1 view .LVU980
 2510              	.LBB377:
 2511              		.loc 2 498 3 view .LVU981
 2512              		.loc 2 498 10 is_stmt 0 view .LVU982
 2513 0104 1BBA     		rev	r3, r3
 2514              	.LVL358:
 2515              		.loc 2 498 10 view .LVU983
 2516              	.LBE377:
 2517              	.LBE376:
 715:Drivers/STM32F4xx_StdPeriph_Driver/src/stm32f4xx_cryp_aes.c ****     keyaddr+=4;
 2518              		.loc 1 715 45 view .LVU984
 2519 0106 0F93     		str	r3, [sp, #60]
 716:Drivers/STM32F4xx_StdPeriph_Driver/src/stm32f4xx_cryp_aes.c ****     AES_CRYP_KeyInitStructure.CRYP_Key3Left = __REV(*(uint32_t*)(keyaddr));
 2520              		.loc 1 716 5 is_stmt 1 view .LVU985
 2521              	.LVL359:
 717:Drivers/STM32F4xx_StdPeriph_Driver/src/stm32f4xx_cryp_aes.c ****     keyaddr+=4;
 2522              		.loc 1 717 5 view .LVU986
 717:Drivers/STM32F4xx_StdPeriph_Driver/src/stm32f4xx_cryp_aes.c ****     keyaddr+=4;
 2523              		.loc 1 717 47 is_stmt 0 view .LVU987
 2524 0108 3369     		ldr	r3, [r6, #16]
 2525              	.LVL360:
 2526              	.LBB378:
 2527              	.LBI378:
 495:Drivers/CMSIS/Include/core_cmInstr.h **** {
 2528              		.loc 2 495 57 is_stmt 1 view .LVU988
 2529              	.LBB379:
 2530              		.loc 2 498 3 view .LVU989
 2531              		.loc 2 498 10 is_stmt 0 view .LVU990
 2532 010a 1BBA     		rev	r3, r3
 2533              	.LVL361:
 2534              		.loc 2 498 10 view .LVU991
 2535              	.LBE379:
 2536              	.LBE378:
 717:Drivers/STM32F4xx_StdPeriph_Driver/src/stm32f4xx_cryp_aes.c ****     keyaddr+=4;
 2537              		.loc 1 717 45 view .LVU992
 2538 010c 1093     		str	r3, [sp, #64]
 718:Drivers/STM32F4xx_StdPeriph_Driver/src/stm32f4xx_cryp_aes.c ****     AES_CRYP_KeyInitStructure.CRYP_Key3Right= __REV(*(uint32_t*)(keyaddr));
 2539              		.loc 1 718 5 is_stmt 1 view .LVU993
 2540              	.LVL362:
 719:Drivers/STM32F4xx_StdPeriph_Driver/src/stm32f4xx_cryp_aes.c ****     break;
 2541              		.loc 1 719 5 view .LVU994
 719:Drivers/STM32F4xx_StdPeriph_Driver/src/stm32f4xx_cryp_aes.c ****     break;
 2542              		.loc 1 719 47 is_stmt 0 view .LVU995
 2543 010e 7369     		ldr	r3, [r6, #20]
 2544              	.LVL363:
 2545              	.LBB380:
 2546              	.LBI380:
 495:Drivers/CMSIS/Include/core_cmInstr.h **** {
 2547              		.loc 2 495 57 is_stmt 1 view .LVU996
 2548              	.LBB381:
 2549              		.loc 2 498 3 view .LVU997
 2550              		.loc 2 498 10 is_stmt 0 view .LVU998
 2551 0110 1BBA     		rev	r3, r3
 2552              	.LVL364:
ARM GAS  /tmp/ccjGnpiF.s 			page 80


 2553              		.loc 2 498 10 view .LVU999
 2554              	.LBE381:
 2555              	.LBE380:
 719:Drivers/STM32F4xx_StdPeriph_Driver/src/stm32f4xx_cryp_aes.c ****     break;
 2556              		.loc 1 719 45 view .LVU1000
 2557 0112 1193     		str	r3, [sp, #68]
 720:Drivers/STM32F4xx_StdPeriph_Driver/src/stm32f4xx_cryp_aes.c ****     case 256:
 2558              		.loc 1 720 5 is_stmt 1 view .LVU1001
 2559 0114 97E7     		b	.L59
 2560              	.LVL365:
 2561              	.L58:
 722:Drivers/STM32F4xx_StdPeriph_Driver/src/stm32f4xx_cryp_aes.c ****     AES_CRYP_KeyInitStructure.CRYP_Key0Left = __REV(*(uint32_t*)(keyaddr));
 2562              		.loc 1 722 5 view .LVU1002
 722:Drivers/STM32F4xx_StdPeriph_Driver/src/stm32f4xx_cryp_aes.c ****     AES_CRYP_KeyInitStructure.CRYP_Key0Left = __REV(*(uint32_t*)(keyaddr));
 2563              		.loc 1 722 42 is_stmt 0 view .LVU1003
 2564 0116 4FF40073 		mov	r3, #512
 2565 011a 1593     		str	r3, [sp, #84]
 723:Drivers/STM32F4xx_StdPeriph_Driver/src/stm32f4xx_cryp_aes.c ****     keyaddr+=4;
 2566              		.loc 1 723 5 is_stmt 1 view .LVU1004
 723:Drivers/STM32F4xx_StdPeriph_Driver/src/stm32f4xx_cryp_aes.c ****     keyaddr+=4;
 2567              		.loc 1 723 47 is_stmt 0 view .LVU1005
 2568 011c 3368     		ldr	r3, [r6]
 2569              	.LVL366:
 2570              	.LBB382:
 2571              	.LBI382:
 495:Drivers/CMSIS/Include/core_cmInstr.h **** {
 2572              		.loc 2 495 57 is_stmt 1 view .LVU1006
 2573              	.LBB383:
 2574              		.loc 2 498 3 view .LVU1007
 2575              		.loc 2 498 10 is_stmt 0 view .LVU1008
 2576 011e 1BBA     		rev	r3, r3
 2577              	.LVL367:
 2578              		.loc 2 498 10 view .LVU1009
 2579              	.LBE383:
 2580              	.LBE382:
 723:Drivers/STM32F4xx_StdPeriph_Driver/src/stm32f4xx_cryp_aes.c ****     keyaddr+=4;
 2581              		.loc 1 723 45 view .LVU1010
 2582 0120 0A93     		str	r3, [sp, #40]
 724:Drivers/STM32F4xx_StdPeriph_Driver/src/stm32f4xx_cryp_aes.c ****     AES_CRYP_KeyInitStructure.CRYP_Key0Right= __REV(*(uint32_t*)(keyaddr));
 2583              		.loc 1 724 5 is_stmt 1 view .LVU1011
 2584              	.LVL368:
 725:Drivers/STM32F4xx_StdPeriph_Driver/src/stm32f4xx_cryp_aes.c ****     keyaddr+=4;
 2585              		.loc 1 725 5 view .LVU1012
 725:Drivers/STM32F4xx_StdPeriph_Driver/src/stm32f4xx_cryp_aes.c ****     keyaddr+=4;
 2586              		.loc 1 725 47 is_stmt 0 view .LVU1013
 2587 0122 7368     		ldr	r3, [r6, #4]
 2588              	.LVL369:
 2589              	.LBB384:
 2590              	.LBI384:
 495:Drivers/CMSIS/Include/core_cmInstr.h **** {
 2591              		.loc 2 495 57 is_stmt 1 view .LVU1014
 2592              	.LBB385:
 2593              		.loc 2 498 3 view .LVU1015
 2594              		.loc 2 498 10 is_stmt 0 view .LVU1016
 2595 0124 1BBA     		rev	r3, r3
 2596              	.LVL370:
 2597              		.loc 2 498 10 view .LVU1017
ARM GAS  /tmp/ccjGnpiF.s 			page 81


 2598              	.LBE385:
 2599              	.LBE384:
 725:Drivers/STM32F4xx_StdPeriph_Driver/src/stm32f4xx_cryp_aes.c ****     keyaddr+=4;
 2600              		.loc 1 725 45 view .LVU1018
 2601 0126 0B93     		str	r3, [sp, #44]
 726:Drivers/STM32F4xx_StdPeriph_Driver/src/stm32f4xx_cryp_aes.c ****     AES_CRYP_KeyInitStructure.CRYP_Key1Left = __REV(*(uint32_t*)(keyaddr));
 2602              		.loc 1 726 5 is_stmt 1 view .LVU1019
 2603              	.LVL371:
 727:Drivers/STM32F4xx_StdPeriph_Driver/src/stm32f4xx_cryp_aes.c ****     keyaddr+=4;
 2604              		.loc 1 727 5 view .LVU1020
 727:Drivers/STM32F4xx_StdPeriph_Driver/src/stm32f4xx_cryp_aes.c ****     keyaddr+=4;
 2605              		.loc 1 727 47 is_stmt 0 view .LVU1021
 2606 0128 B368     		ldr	r3, [r6, #8]
 2607              	.LVL372:
 2608              	.LBB386:
 2609              	.LBI386:
 495:Drivers/CMSIS/Include/core_cmInstr.h **** {
 2610              		.loc 2 495 57 is_stmt 1 view .LVU1022
 2611              	.LBB387:
 2612              		.loc 2 498 3 view .LVU1023
 2613              		.loc 2 498 10 is_stmt 0 view .LVU1024
 2614 012a 1BBA     		rev	r3, r3
 2615              	.LVL373:
 2616              		.loc 2 498 10 view .LVU1025
 2617              	.LBE387:
 2618              	.LBE386:
 727:Drivers/STM32F4xx_StdPeriph_Driver/src/stm32f4xx_cryp_aes.c ****     keyaddr+=4;
 2619              		.loc 1 727 45 view .LVU1026
 2620 012c 0C93     		str	r3, [sp, #48]
 728:Drivers/STM32F4xx_StdPeriph_Driver/src/stm32f4xx_cryp_aes.c ****     AES_CRYP_KeyInitStructure.CRYP_Key1Right= __REV(*(uint32_t*)(keyaddr));
 2621              		.loc 1 728 5 is_stmt 1 view .LVU1027
 2622              	.LVL374:
 729:Drivers/STM32F4xx_StdPeriph_Driver/src/stm32f4xx_cryp_aes.c ****     keyaddr+=4;
 2623              		.loc 1 729 5 view .LVU1028
 729:Drivers/STM32F4xx_StdPeriph_Driver/src/stm32f4xx_cryp_aes.c ****     keyaddr+=4;
 2624              		.loc 1 729 47 is_stmt 0 view .LVU1029
 2625 012e F368     		ldr	r3, [r6, #12]
 2626              	.LVL375:
 2627              	.LBB388:
 2628              	.LBI388:
 495:Drivers/CMSIS/Include/core_cmInstr.h **** {
 2629              		.loc 2 495 57 is_stmt 1 view .LVU1030
 2630              	.LBB389:
 2631              		.loc 2 498 3 view .LVU1031
 2632              		.loc 2 498 10 is_stmt 0 view .LVU1032
 2633 0130 1BBA     		rev	r3, r3
 2634              	.LVL376:
 2635              		.loc 2 498 10 view .LVU1033
 2636              	.LBE389:
 2637              	.LBE388:
 729:Drivers/STM32F4xx_StdPeriph_Driver/src/stm32f4xx_cryp_aes.c ****     keyaddr+=4;
 2638              		.loc 1 729 45 view .LVU1034
 2639 0132 0D93     		str	r3, [sp, #52]
 730:Drivers/STM32F4xx_StdPeriph_Driver/src/stm32f4xx_cryp_aes.c ****     AES_CRYP_KeyInitStructure.CRYP_Key2Left = __REV(*(uint32_t*)(keyaddr));
 2640              		.loc 1 730 5 is_stmt 1 view .LVU1035
 2641              	.LVL377:
 731:Drivers/STM32F4xx_StdPeriph_Driver/src/stm32f4xx_cryp_aes.c ****     keyaddr+=4;
ARM GAS  /tmp/ccjGnpiF.s 			page 82


 2642              		.loc 1 731 5 view .LVU1036
 731:Drivers/STM32F4xx_StdPeriph_Driver/src/stm32f4xx_cryp_aes.c ****     keyaddr+=4;
 2643              		.loc 1 731 47 is_stmt 0 view .LVU1037
 2644 0134 3369     		ldr	r3, [r6, #16]
 2645              	.LVL378:
 2646              	.LBB390:
 2647              	.LBI390:
 495:Drivers/CMSIS/Include/core_cmInstr.h **** {
 2648              		.loc 2 495 57 is_stmt 1 view .LVU1038
 2649              	.LBB391:
 2650              		.loc 2 498 3 view .LVU1039
 2651              		.loc 2 498 10 is_stmt 0 view .LVU1040
 2652 0136 1BBA     		rev	r3, r3
 2653              	.LVL379:
 2654              		.loc 2 498 10 view .LVU1041
 2655              	.LBE391:
 2656              	.LBE390:
 731:Drivers/STM32F4xx_StdPeriph_Driver/src/stm32f4xx_cryp_aes.c ****     keyaddr+=4;
 2657              		.loc 1 731 45 view .LVU1042
 2658 0138 0E93     		str	r3, [sp, #56]
 732:Drivers/STM32F4xx_StdPeriph_Driver/src/stm32f4xx_cryp_aes.c ****     AES_CRYP_KeyInitStructure.CRYP_Key2Right= __REV(*(uint32_t*)(keyaddr));
 2659              		.loc 1 732 5 is_stmt 1 view .LVU1043
 2660              	.LVL380:
 733:Drivers/STM32F4xx_StdPeriph_Driver/src/stm32f4xx_cryp_aes.c ****     keyaddr+=4;
 2661              		.loc 1 733 5 view .LVU1044
 733:Drivers/STM32F4xx_StdPeriph_Driver/src/stm32f4xx_cryp_aes.c ****     keyaddr+=4;
 2662              		.loc 1 733 47 is_stmt 0 view .LVU1045
 2663 013a 7369     		ldr	r3, [r6, #20]
 2664              	.LVL381:
 2665              	.LBB392:
 2666              	.LBI392:
 495:Drivers/CMSIS/Include/core_cmInstr.h **** {
 2667              		.loc 2 495 57 is_stmt 1 view .LVU1046
 2668              	.LBB393:
 2669              		.loc 2 498 3 view .LVU1047
 2670              		.loc 2 498 10 is_stmt 0 view .LVU1048
 2671 013c 1BBA     		rev	r3, r3
 2672              	.LVL382:
 2673              		.loc 2 498 10 view .LVU1049
 2674              	.LBE393:
 2675              	.LBE392:
 733:Drivers/STM32F4xx_StdPeriph_Driver/src/stm32f4xx_cryp_aes.c ****     keyaddr+=4;
 2676              		.loc 1 733 45 view .LVU1050
 2677 013e 0F93     		str	r3, [sp, #60]
 734:Drivers/STM32F4xx_StdPeriph_Driver/src/stm32f4xx_cryp_aes.c ****     AES_CRYP_KeyInitStructure.CRYP_Key3Left = __REV(*(uint32_t*)(keyaddr));
 2678              		.loc 1 734 5 is_stmt 1 view .LVU1051
 2679              	.LVL383:
 735:Drivers/STM32F4xx_StdPeriph_Driver/src/stm32f4xx_cryp_aes.c ****     keyaddr+=4;
 2680              		.loc 1 735 5 view .LVU1052
 735:Drivers/STM32F4xx_StdPeriph_Driver/src/stm32f4xx_cryp_aes.c ****     keyaddr+=4;
 2681              		.loc 1 735 47 is_stmt 0 view .LVU1053
 2682 0140 B369     		ldr	r3, [r6, #24]
 2683              	.LVL384:
 2684              	.LBB394:
 2685              	.LBI394:
 495:Drivers/CMSIS/Include/core_cmInstr.h **** {
 2686              		.loc 2 495 57 is_stmt 1 view .LVU1054
ARM GAS  /tmp/ccjGnpiF.s 			page 83


 2687              	.LBB395:
 2688              		.loc 2 498 3 view .LVU1055
 2689              		.loc 2 498 10 is_stmt 0 view .LVU1056
 2690 0142 1BBA     		rev	r3, r3
 2691              	.LVL385:
 2692              		.loc 2 498 10 view .LVU1057
 2693              	.LBE395:
 2694              	.LBE394:
 735:Drivers/STM32F4xx_StdPeriph_Driver/src/stm32f4xx_cryp_aes.c ****     keyaddr+=4;
 2695              		.loc 1 735 45 view .LVU1058
 2696 0144 1093     		str	r3, [sp, #64]
 736:Drivers/STM32F4xx_StdPeriph_Driver/src/stm32f4xx_cryp_aes.c ****     AES_CRYP_KeyInitStructure.CRYP_Key3Right= __REV(*(uint32_t*)(keyaddr));
 2697              		.loc 1 736 5 is_stmt 1 view .LVU1059
 2698              	.LVL386:
 737:Drivers/STM32F4xx_StdPeriph_Driver/src/stm32f4xx_cryp_aes.c ****     break;
 2699              		.loc 1 737 5 view .LVU1060
 737:Drivers/STM32F4xx_StdPeriph_Driver/src/stm32f4xx_cryp_aes.c ****     break;
 2700              		.loc 1 737 47 is_stmt 0 view .LVU1061
 2701 0146 F369     		ldr	r3, [r6, #28]
 2702              	.LVL387:
 2703              	.LBB396:
 2704              	.LBI396:
 495:Drivers/CMSIS/Include/core_cmInstr.h **** {
 2705              		.loc 2 495 57 is_stmt 1 view .LVU1062
 2706              	.LBB397:
 2707              		.loc 2 498 3 view .LVU1063
 2708              		.loc 2 498 10 is_stmt 0 view .LVU1064
 2709 0148 1BBA     		rev	r3, r3
 2710              	.LVL388:
 2711              		.loc 2 498 10 view .LVU1065
 2712              	.LBE397:
 2713              	.LBE396:
 737:Drivers/STM32F4xx_StdPeriph_Driver/src/stm32f4xx_cryp_aes.c ****     break;
 2714              		.loc 1 737 45 view .LVU1066
 2715 014a 1193     		str	r3, [sp, #68]
 738:Drivers/STM32F4xx_StdPeriph_Driver/src/stm32f4xx_cryp_aes.c ****     default:
 2716              		.loc 1 738 5 is_stmt 1 view .LVU1067
 2717 014c 7BE7     		b	.L59
 2718              	.LVL389:
 2719              	.L100:
 756:Drivers/STM32F4xx_StdPeriph_Driver/src/stm32f4xx_cryp_aes.c ****     
 2720              		.loc 1 756 5 view .LVU1068
 2721 014e FFF7FEFF 		bl	CRYP_FIFOFlush
 2722              	.LVL390:
 759:Drivers/STM32F4xx_StdPeriph_Driver/src/stm32f4xx_cryp_aes.c ****     
 2723              		.loc 1 759 5 view .LVU1069
 2724 0152 0AA8     		add	r0, sp, #40
 2725 0154 FFF7FEFF 		bl	CRYP_KeyInit
 2726              	.LVL391:
 762:Drivers/STM32F4xx_StdPeriph_Driver/src/stm32f4xx_cryp_aes.c ****     
 2727              		.loc 1 762 5 view .LVU1070
 2728 0158 06A8     		add	r0, sp, #24
 2729 015a FFF7FEFF 		bl	CRYP_IVInit
 2730              	.LVL392:
 765:Drivers/STM32F4xx_StdPeriph_Driver/src/stm32f4xx_cryp_aes.c ****     AES_CRYP_InitStructure.CRYP_AlgoMode = CRYP_AlgoMode_AES_GCM;
 2731              		.loc 1 765 5 view .LVU1071
 765:Drivers/STM32F4xx_StdPeriph_Driver/src/stm32f4xx_cryp_aes.c ****     AES_CRYP_InitStructure.CRYP_AlgoMode = CRYP_AlgoMode_AES_GCM;
ARM GAS  /tmp/ccjGnpiF.s 			page 84


 2732              		.loc 1 765 41 is_stmt 0 view .LVU1072
 2733 015e 0026     		movs	r6, #0
 2734              	.LVL393:
 765:Drivers/STM32F4xx_StdPeriph_Driver/src/stm32f4xx_cryp_aes.c ****     AES_CRYP_InitStructure.CRYP_AlgoMode = CRYP_AlgoMode_AES_GCM;
 2735              		.loc 1 765 41 view .LVU1073
 2736 0160 1296     		str	r6, [sp, #72]
 766:Drivers/STM32F4xx_StdPeriph_Driver/src/stm32f4xx_cryp_aes.c ****     AES_CRYP_InitStructure.CRYP_DataType = CRYP_DataType_8b;
 2737              		.loc 1 766 5 is_stmt 1 view .LVU1074
 766:Drivers/STM32F4xx_StdPeriph_Driver/src/stm32f4xx_cryp_aes.c ****     AES_CRYP_InitStructure.CRYP_DataType = CRYP_DataType_8b;
 2738              		.loc 1 766 42 is_stmt 0 view .LVU1075
 2739 0162 4FF40023 		mov	r3, #524288
 2740 0166 1393     		str	r3, [sp, #76]
 767:Drivers/STM32F4xx_StdPeriph_Driver/src/stm32f4xx_cryp_aes.c ****     CRYP_Init(&AES_CRYP_InitStructure);
 2741              		.loc 1 767 5 is_stmt 1 view .LVU1076
 767:Drivers/STM32F4xx_StdPeriph_Driver/src/stm32f4xx_cryp_aes.c ****     CRYP_Init(&AES_CRYP_InitStructure);
 2742              		.loc 1 767 42 is_stmt 0 view .LVU1077
 2743 0168 8023     		movs	r3, #128
 2744 016a 1493     		str	r3, [sp, #80]
 768:Drivers/STM32F4xx_StdPeriph_Driver/src/stm32f4xx_cryp_aes.c ****     
 2745              		.loc 1 768 5 is_stmt 1 view .LVU1078
 2746 016c 12A8     		add	r0, sp, #72
 2747 016e FFF7FEFF 		bl	CRYP_Init
 2748              	.LVL394:
 772:Drivers/STM32F4xx_StdPeriph_Driver/src/stm32f4xx_cryp_aes.c ****     
 2749              		.loc 1 772 5 view .LVU1079
 2750 0172 3046     		mov	r0, r6
 2751 0174 FFF7FEFF 		bl	CRYP_PhaseConfig
 2752              	.LVL395:
 775:Drivers/STM32F4xx_StdPeriph_Driver/src/stm32f4xx_cryp_aes.c ****     
 2753              		.loc 1 775 5 view .LVU1080
 2754 0178 0120     		movs	r0, #1
 2755 017a FFF7FEFF 		bl	CRYP_Cmd
 2756              	.LVL396:
 778:Drivers/STM32F4xx_StdPeriph_Driver/src/stm32f4xx_cryp_aes.c ****     {
 2757              		.loc 1 778 5 view .LVU1081
 2758              	.L61:
 780:Drivers/STM32F4xx_StdPeriph_Driver/src/stm32f4xx_cryp_aes.c ****     
 2759              		.loc 1 780 5 discriminator 1 view .LVU1082
 778:Drivers/STM32F4xx_StdPeriph_Driver/src/stm32f4xx_cryp_aes.c ****     {
 2760              		.loc 1 778 10 discriminator 1 view .LVU1083
 778:Drivers/STM32F4xx_StdPeriph_Driver/src/stm32f4xx_cryp_aes.c ****     {
 2761              		.loc 1 778 11 is_stmt 0 discriminator 1 view .LVU1084
 2762 017e FFF7FEFF 		bl	CRYP_GetCmdStatus
 2763              	.LVL397:
 778:Drivers/STM32F4xx_StdPeriph_Driver/src/stm32f4xx_cryp_aes.c ****     {
 2764              		.loc 1 778 10 discriminator 1 view .LVU1085
 2765 0182 0128     		cmp	r0, #1
 2766 0184 FBD0     		beq	.L61
 783:Drivers/STM32F4xx_StdPeriph_Driver/src/stm32f4xx_cryp_aes.c ****     {
 2767              		.loc 1 783 5 is_stmt 1 view .LVU1086
 783:Drivers/STM32F4xx_StdPeriph_Driver/src/stm32f4xx_cryp_aes.c ****     {
 2768              		.loc 1 783 7 is_stmt 0 view .LVU1087
 2769 0186 BAF1000F 		cmp	r10, #0
 2770 018a 13D1     		bne	.L102
 2771              	.LVL398:
 2772              	.L62:
 831:Drivers/STM32F4xx_StdPeriph_Driver/src/stm32f4xx_cryp_aes.c ****     {
ARM GAS  /tmp/ccjGnpiF.s 			page 85


 2773              		.loc 1 831 5 is_stmt 1 view .LVU1088
 831:Drivers/STM32F4xx_StdPeriph_Driver/src/stm32f4xx_cryp_aes.c ****     {
 2774              		.loc 1 831 7 is_stmt 0 view .LVU1089
 2775 018c B9F1000F 		cmp	r9, #0
 2776 0190 00F08A80 		beq	.L68
 834:Drivers/STM32F4xx_StdPeriph_Driver/src/stm32f4xx_cryp_aes.c ****       
 2777              		.loc 1 834 7 is_stmt 1 view .LVU1090
 2778 0194 4FF40030 		mov	r0, #131072
 2779 0198 FFF7FEFF 		bl	CRYP_PhaseConfig
 2780              	.LVL399:
 837:Drivers/STM32F4xx_StdPeriph_Driver/src/stm32f4xx_cryp_aes.c ****       
 2781              		.loc 1 837 7 view .LVU1091
 2782 019c 0120     		movs	r0, #1
 2783 019e FFF7FEFF 		bl	CRYP_Cmd
 2784              	.LVL400:
 839:Drivers/STM32F4xx_StdPeriph_Driver/src/stm32f4xx_cryp_aes.c ****       {
 2785              		.loc 1 839 7 view .LVU1092
 839:Drivers/STM32F4xx_StdPeriph_Driver/src/stm32f4xx_cryp_aes.c ****       {
 2786              		.loc 1 839 10 is_stmt 0 view .LVU1093
 2787 01a2 FFF7FEFF 		bl	CRYP_GetCmdStatus
 2788              	.LVL401:
 839:Drivers/STM32F4xx_StdPeriph_Driver/src/stm32f4xx_cryp_aes.c ****       {
 2789              		.loc 1 839 9 view .LVU1094
 2790 01a6 0646     		mov	r6, r0
 2791 01a8 0028     		cmp	r0, #0
 2792 01aa 00F05881 		beq	.L63
 846:Drivers/STM32F4xx_StdPeriph_Driver/src/stm32f4xx_cryp_aes.c ****       {
 2793              		.loc 1 846 23 view .LVU1095
 2794 01ae 0025     		movs	r5, #0
 2795              	.LVL402:
 846:Drivers/STM32F4xx_StdPeriph_Driver/src/stm32f4xx_cryp_aes.c ****       {
 2796              		.loc 1 846 23 view .LVU1096
 2797 01b0 019E     		ldr	r6, [sp, #4]
 2798 01b2 39E0     		b	.L69
 2799              	.LVL403:
 2800              	.L102:
 786:Drivers/STM32F4xx_StdPeriph_Driver/src/stm32f4xx_cryp_aes.c ****       
 2801              		.loc 1 786 7 is_stmt 1 view .LVU1097
 2802 01b4 4FF48030 		mov	r0, #65536
 2803 01b8 FFF7FEFF 		bl	CRYP_PhaseConfig
 2804              	.LVL404:
 789:Drivers/STM32F4xx_StdPeriph_Driver/src/stm32f4xx_cryp_aes.c ****       
 2805              		.loc 1 789 7 view .LVU1098
 2806 01bc 0120     		movs	r0, #1
 2807 01be FFF7FEFF 		bl	CRYP_Cmd
 2808              	.LVL405:
 791:Drivers/STM32F4xx_StdPeriph_Driver/src/stm32f4xx_cryp_aes.c ****       {
 2809              		.loc 1 791 7 view .LVU1099
 791:Drivers/STM32F4xx_StdPeriph_Driver/src/stm32f4xx_cryp_aes.c ****       {
 2810              		.loc 1 791 10 is_stmt 0 view .LVU1100
 2811 01c2 FFF7FEFF 		bl	CRYP_GetCmdStatus
 2812              	.LVL406:
 791:Drivers/STM32F4xx_StdPeriph_Driver/src/stm32f4xx_cryp_aes.c ****       {
 2813              		.loc 1 791 9 view .LVU1101
 2814 01c6 0646     		mov	r6, r0
 2815              	.LVL407:
 791:Drivers/STM32F4xx_StdPeriph_Driver/src/stm32f4xx_cryp_aes.c ****       {
ARM GAS  /tmp/ccjGnpiF.s 			page 86


 2816              		.loc 1 791 9 view .LVU1102
 2817 01c8 0028     		cmp	r0, #0
 2818 01ca 00F04881 		beq	.L63
 798:Drivers/STM32F4xx_StdPeriph_Driver/src/stm32f4xx_cryp_aes.c ****       {
 2819              		.loc 1 798 23 view .LVU1103
 2820 01ce 0026     		movs	r6, #0
 2821 01d0 12E0     		b	.L64
 2822              	.LVL408:
 2823              	.L65:
 803:Drivers/STM32F4xx_StdPeriph_Driver/src/stm32f4xx_cryp_aes.c ****         
 2824              		.loc 1 803 9 is_stmt 1 discriminator 1 view .LVU1104
 801:Drivers/STM32F4xx_StdPeriph_Driver/src/stm32f4xx_cryp_aes.c ****         {
 2825              		.loc 1 801 14 discriminator 1 view .LVU1105
 801:Drivers/STM32F4xx_StdPeriph_Driver/src/stm32f4xx_cryp_aes.c ****         {
 2826              		.loc 1 801 15 is_stmt 0 discriminator 1 view .LVU1106
 2827 01d2 0120     		movs	r0, #1
 2828 01d4 FFF7FEFF 		bl	CRYP_GetFlagStatus
 2829              	.LVL409:
 801:Drivers/STM32F4xx_StdPeriph_Driver/src/stm32f4xx_cryp_aes.c ****         {
 2830              		.loc 1 801 14 discriminator 1 view .LVU1107
 2831 01d8 0028     		cmp	r0, #0
 2832 01da FAD0     		beq	.L65
 806:Drivers/STM32F4xx_StdPeriph_Driver/src/stm32f4xx_cryp_aes.c ****         headeraddr+=4;
 2833              		.loc 1 806 9 is_stmt 1 discriminator 2 view .LVU1108
 2834 01dc 2868     		ldr	r0, [r5]
 2835 01de FFF7FEFF 		bl	CRYP_DataIn
 2836              	.LVL410:
 807:Drivers/STM32F4xx_StdPeriph_Driver/src/stm32f4xx_cryp_aes.c ****         CRYP_DataIn(*(uint32_t*)(headeraddr));
 2837              		.loc 1 807 9 discriminator 2 view .LVU1109
 808:Drivers/STM32F4xx_StdPeriph_Driver/src/stm32f4xx_cryp_aes.c ****         headeraddr+=4;
 2838              		.loc 1 808 9 discriminator 2 view .LVU1110
 2839 01e2 6868     		ldr	r0, [r5, #4]
 2840 01e4 FFF7FEFF 		bl	CRYP_DataIn
 2841              	.LVL411:
 809:Drivers/STM32F4xx_StdPeriph_Driver/src/stm32f4xx_cryp_aes.c ****         CRYP_DataIn(*(uint32_t*)(headeraddr));
 2842              		.loc 1 809 9 discriminator 2 view .LVU1111
 810:Drivers/STM32F4xx_StdPeriph_Driver/src/stm32f4xx_cryp_aes.c ****         headeraddr+=4;
 2843              		.loc 1 810 9 discriminator 2 view .LVU1112
 2844 01e8 A868     		ldr	r0, [r5, #8]
 2845 01ea FFF7FEFF 		bl	CRYP_DataIn
 2846              	.LVL412:
 811:Drivers/STM32F4xx_StdPeriph_Driver/src/stm32f4xx_cryp_aes.c ****         CRYP_DataIn(*(uint32_t*)(headeraddr));
 2847              		.loc 1 811 9 discriminator 2 view .LVU1113
 812:Drivers/STM32F4xx_StdPeriph_Driver/src/stm32f4xx_cryp_aes.c ****         headeraddr+=4;
 2848              		.loc 1 812 9 discriminator 2 view .LVU1114
 2849 01ee E868     		ldr	r0, [r5, #12]
 2850 01f0 FFF7FEFF 		bl	CRYP_DataIn
 2851              	.LVL413:
 813:Drivers/STM32F4xx_StdPeriph_Driver/src/stm32f4xx_cryp_aes.c ****       }
 2852              		.loc 1 813 9 discriminator 2 view .LVU1115
 813:Drivers/STM32F4xx_StdPeriph_Driver/src/stm32f4xx_cryp_aes.c ****       }
 2853              		.loc 1 813 19 is_stmt 0 discriminator 2 view .LVU1116
 2854 01f4 1035     		adds	r5, r5, #16
 2855              	.LVL414:
 798:Drivers/STM32F4xx_StdPeriph_Driver/src/stm32f4xx_cryp_aes.c ****       {
 2856              		.loc 1 798 53 is_stmt 1 discriminator 2 view .LVU1117
 798:Drivers/STM32F4xx_StdPeriph_Driver/src/stm32f4xx_cryp_aes.c ****       {
ARM GAS  /tmp/ccjGnpiF.s 			page 87


 2857              		.loc 1 798 64 is_stmt 0 discriminator 2 view .LVU1118
 2858 01f6 1036     		adds	r6, r6, #16
 2859              	.LVL415:
 2860              	.L64:
 798:Drivers/STM32F4xx_StdPeriph_Driver/src/stm32f4xx_cryp_aes.c ****       {
 2861              		.loc 1 798 28 is_stmt 1 discriminator 1 view .LVU1119
 798:Drivers/STM32F4xx_StdPeriph_Driver/src/stm32f4xx_cryp_aes.c ****       {
 2862              		.loc 1 798 7 is_stmt 0 discriminator 1 view .LVU1120
 2863 01f8 5645     		cmp	r6, r10
 2864 01fa EAD3     		bcc	.L65
 817:Drivers/STM32F4xx_StdPeriph_Driver/src/stm32f4xx_cryp_aes.c ****       do
 2865              		.loc 1 817 7 is_stmt 1 view .LVU1121
 817:Drivers/STM32F4xx_StdPeriph_Driver/src/stm32f4xx_cryp_aes.c ****       do
 2866              		.loc 1 817 15 is_stmt 0 view .LVU1122
 2867 01fc 0023     		movs	r3, #0
 2868 01fe 0593     		str	r3, [sp, #20]
 2869              	.LVL416:
 2870              	.L67:
 818:Drivers/STM32F4xx_StdPeriph_Driver/src/stm32f4xx_cryp_aes.c ****       {
 2871              		.loc 1 818 7 is_stmt 1 discriminator 2 view .LVU1123
 820:Drivers/STM32F4xx_StdPeriph_Driver/src/stm32f4xx_cryp_aes.c ****         counter++;
 2872              		.loc 1 820 9 discriminator 2 view .LVU1124
 820:Drivers/STM32F4xx_StdPeriph_Driver/src/stm32f4xx_cryp_aes.c ****         counter++;
 2873              		.loc 1 820 22 is_stmt 0 discriminator 2 view .LVU1125
 2874 0200 1020     		movs	r0, #16
 2875 0202 FFF7FEFF 		bl	CRYP_GetFlagStatus
 2876              	.LVL417:
 821:Drivers/STM32F4xx_StdPeriph_Driver/src/stm32f4xx_cryp_aes.c ****       }while ((counter != AESBUSY_TIMEOUT) && (busystatus != RESET));
 2877              		.loc 1 821 9 is_stmt 1 discriminator 2 view .LVU1126
 821:Drivers/STM32F4xx_StdPeriph_Driver/src/stm32f4xx_cryp_aes.c ****       }while ((counter != AESBUSY_TIMEOUT) && (busystatus != RESET));
 2878              		.loc 1 821 16 is_stmt 0 discriminator 2 view .LVU1127
 2879 0206 059B     		ldr	r3, [sp, #20]
 2880 0208 0133     		adds	r3, r3, #1
 2881 020a 0593     		str	r3, [sp, #20]
 822:Drivers/STM32F4xx_StdPeriph_Driver/src/stm32f4xx_cryp_aes.c **** 
 2882              		.loc 1 822 14 is_stmt 1 discriminator 2 view .LVU1128
 822:Drivers/STM32F4xx_StdPeriph_Driver/src/stm32f4xx_cryp_aes.c **** 
 2883              		.loc 1 822 24 is_stmt 0 discriminator 2 view .LVU1129
 2884 020c 059B     		ldr	r3, [sp, #20]
 822:Drivers/STM32F4xx_StdPeriph_Driver/src/stm32f4xx_cryp_aes.c **** 
 2885              		.loc 1 822 7 discriminator 2 view .LVU1130
 2886 020e B3F5803F 		cmp	r3, #65536
 2887 0212 01D0     		beq	.L66
 822:Drivers/STM32F4xx_StdPeriph_Driver/src/stm32f4xx_cryp_aes.c **** 
 2888              		.loc 1 822 44 discriminator 1 view .LVU1131
 2889 0214 0028     		cmp	r0, #0
 2890 0216 F3D1     		bne	.L67
 2891              	.L66:
 824:Drivers/STM32F4xx_StdPeriph_Driver/src/stm32f4xx_cryp_aes.c ****       {
 2892              		.loc 1 824 7 is_stmt 1 view .LVU1132
 824:Drivers/STM32F4xx_StdPeriph_Driver/src/stm32f4xx_cryp_aes.c ****       {
 2893              		.loc 1 824 10 is_stmt 0 view .LVU1133
 2894 0218 0028     		cmp	r0, #0
 2895 021a B7D0     		beq	.L62
 826:Drivers/STM32F4xx_StdPeriph_Driver/src/stm32f4xx_cryp_aes.c ****       }
 2896              		.loc 1 826 16 view .LVU1134
 2897 021c 0023     		movs	r3, #0
ARM GAS  /tmp/ccjGnpiF.s 			page 88


 2898              	.LVL418:
 826:Drivers/STM32F4xx_StdPeriph_Driver/src/stm32f4xx_cryp_aes.c ****       }
 2899              		.loc 1 826 16 view .LVU1135
 2900 021e 0193     		str	r3, [sp, #4]
 2901 0220 B4E7     		b	.L62
 2902              	.LVL419:
 2903              	.L71:
 870:Drivers/STM32F4xx_StdPeriph_Driver/src/stm32f4xx_cryp_aes.c ****         {
 2904              		.loc 1 870 9 is_stmt 1 view .LVU1136
 870:Drivers/STM32F4xx_StdPeriph_Driver/src/stm32f4xx_cryp_aes.c ****         {
 2905              		.loc 1 870 12 is_stmt 0 view .LVU1137
 2906 0222 30B3     		cbz	r0, .L74
 872:Drivers/STM32F4xx_StdPeriph_Driver/src/stm32f4xx_cryp_aes.c ****         }
 2907              		.loc 1 872 18 view .LVU1138
 2908 0224 0026     		movs	r6, #0
 2909              	.LVL420:
 2910              	.L73:
 846:Drivers/STM32F4xx_StdPeriph_Driver/src/stm32f4xx_cryp_aes.c ****       {
 2911              		.loc 1 846 76 is_stmt 1 discriminator 2 view .LVU1139
 846:Drivers/STM32F4xx_StdPeriph_Driver/src/stm32f4xx_cryp_aes.c ****       {
 2912              		.loc 1 846 87 is_stmt 0 discriminator 2 view .LVU1140
 2913 0226 1035     		adds	r5, r5, #16
 2914              	.LVL421:
 2915              	.L69:
 846:Drivers/STM32F4xx_StdPeriph_Driver/src/stm32f4xx_cryp_aes.c ****       {
 2916              		.loc 1 846 28 is_stmt 1 discriminator 1 view .LVU1141
 846:Drivers/STM32F4xx_StdPeriph_Driver/src/stm32f4xx_cryp_aes.c ****       {
 2917              		.loc 1 846 7 is_stmt 0 discriminator 1 view .LVU1142
 2918 0228 4D45     		cmp	r5, r9
 2919 022a 3CD2     		bcs	.L96
 846:Drivers/STM32F4xx_StdPeriph_Driver/src/stm32f4xx_cryp_aes.c ****       {
 2920              		.loc 1 846 53 discriminator 3 view .LVU1143
 2921 022c 002E     		cmp	r6, #0
 2922 022e 38D0     		beq	.L103
 2923              	.L70:
 851:Drivers/STM32F4xx_StdPeriph_Driver/src/stm32f4xx_cryp_aes.c ****         /* Write the Input block in the IN FIFO */
 2924              		.loc 1 851 9 is_stmt 1 discriminator 1 view .LVU1144
 849:Drivers/STM32F4xx_StdPeriph_Driver/src/stm32f4xx_cryp_aes.c ****         {
 2925              		.loc 1 849 14 discriminator 1 view .LVU1145
 849:Drivers/STM32F4xx_StdPeriph_Driver/src/stm32f4xx_cryp_aes.c ****         {
 2926              		.loc 1 849 15 is_stmt 0 discriminator 1 view .LVU1146
 2927 0230 0120     		movs	r0, #1
 2928 0232 FFF7FEFF 		bl	CRYP_GetFlagStatus
 2929              	.LVL422:
 849:Drivers/STM32F4xx_StdPeriph_Driver/src/stm32f4xx_cryp_aes.c ****         {
 2930              		.loc 1 849 14 discriminator 1 view .LVU1147
 2931 0236 0028     		cmp	r0, #0
 2932 0238 FAD0     		beq	.L70
 853:Drivers/STM32F4xx_StdPeriph_Driver/src/stm32f4xx_cryp_aes.c ****         inputaddr+=4;
 2933              		.loc 1 853 9 is_stmt 1 view .LVU1148
 2934 023a 2068     		ldr	r0, [r4]
 2935 023c FFF7FEFF 		bl	CRYP_DataIn
 2936              	.LVL423:
 854:Drivers/STM32F4xx_StdPeriph_Driver/src/stm32f4xx_cryp_aes.c ****         CRYP_DataIn(*(uint32_t*)(inputaddr));
 2937              		.loc 1 854 9 view .LVU1149
 855:Drivers/STM32F4xx_StdPeriph_Driver/src/stm32f4xx_cryp_aes.c ****         inputaddr+=4;
 2938              		.loc 1 855 9 view .LVU1150
ARM GAS  /tmp/ccjGnpiF.s 			page 89


 2939 0240 6068     		ldr	r0, [r4, #4]
 2940 0242 FFF7FEFF 		bl	CRYP_DataIn
 2941              	.LVL424:
 856:Drivers/STM32F4xx_StdPeriph_Driver/src/stm32f4xx_cryp_aes.c ****         CRYP_DataIn(*(uint32_t*)(inputaddr));
 2942              		.loc 1 856 9 view .LVU1151
 857:Drivers/STM32F4xx_StdPeriph_Driver/src/stm32f4xx_cryp_aes.c ****         inputaddr+=4;
 2943              		.loc 1 857 9 view .LVU1152
 2944 0246 A068     		ldr	r0, [r4, #8]
 2945 0248 FFF7FEFF 		bl	CRYP_DataIn
 2946              	.LVL425:
 858:Drivers/STM32F4xx_StdPeriph_Driver/src/stm32f4xx_cryp_aes.c ****         CRYP_DataIn(*(uint32_t*)(inputaddr));
 2947              		.loc 1 858 9 view .LVU1153
 859:Drivers/STM32F4xx_StdPeriph_Driver/src/stm32f4xx_cryp_aes.c ****         inputaddr+=4;
 2948              		.loc 1 859 9 view .LVU1154
 2949 024c E068     		ldr	r0, [r4, #12]
 2950 024e FFF7FEFF 		bl	CRYP_DataIn
 2951              	.LVL426:
 860:Drivers/STM32F4xx_StdPeriph_Driver/src/stm32f4xx_cryp_aes.c ****         
 2952              		.loc 1 860 9 view .LVU1155
 860:Drivers/STM32F4xx_StdPeriph_Driver/src/stm32f4xx_cryp_aes.c ****         
 2953              		.loc 1 860 18 is_stmt 0 view .LVU1156
 2954 0252 1034     		adds	r4, r4, #16
 2955              	.LVL427:
 863:Drivers/STM32F4xx_StdPeriph_Driver/src/stm32f4xx_cryp_aes.c ****         do
 2956              		.loc 1 863 9 is_stmt 1 view .LVU1157
 863:Drivers/STM32F4xx_StdPeriph_Driver/src/stm32f4xx_cryp_aes.c ****         do
 2957              		.loc 1 863 17 is_stmt 0 view .LVU1158
 2958 0254 0023     		movs	r3, #0
 2959              	.LVL428:
 863:Drivers/STM32F4xx_StdPeriph_Driver/src/stm32f4xx_cryp_aes.c ****         do
 2960              		.loc 1 863 17 view .LVU1159
 2961 0256 0593     		str	r3, [sp, #20]
 2962              	.LVL429:
 2963              	.L72:
 864:Drivers/STM32F4xx_StdPeriph_Driver/src/stm32f4xx_cryp_aes.c ****         {
 2964              		.loc 1 864 9 is_stmt 1 discriminator 2 view .LVU1160
 866:Drivers/STM32F4xx_StdPeriph_Driver/src/stm32f4xx_cryp_aes.c ****           counter++;
 2965              		.loc 1 866 11 discriminator 2 view .LVU1161
 866:Drivers/STM32F4xx_StdPeriph_Driver/src/stm32f4xx_cryp_aes.c ****           counter++;
 2966              		.loc 1 866 24 is_stmt 0 discriminator 2 view .LVU1162
 2967 0258 1020     		movs	r0, #16
 2968 025a FFF7FEFF 		bl	CRYP_GetFlagStatus
 2969              	.LVL430:
 867:Drivers/STM32F4xx_StdPeriph_Driver/src/stm32f4xx_cryp_aes.c ****         }while ((counter != AESBUSY_TIMEOUT) && (busystatus != RESET));
 2970              		.loc 1 867 11 is_stmt 1 discriminator 2 view .LVU1163
 867:Drivers/STM32F4xx_StdPeriph_Driver/src/stm32f4xx_cryp_aes.c ****         }while ((counter != AESBUSY_TIMEOUT) && (busystatus != RESET));
 2971              		.loc 1 867 18 is_stmt 0 discriminator 2 view .LVU1164
 2972 025e 059B     		ldr	r3, [sp, #20]
 2973 0260 0133     		adds	r3, r3, #1
 2974 0262 0593     		str	r3, [sp, #20]
 868:Drivers/STM32F4xx_StdPeriph_Driver/src/stm32f4xx_cryp_aes.c **** 
 2975              		.loc 1 868 16 is_stmt 1 discriminator 2 view .LVU1165
 868:Drivers/STM32F4xx_StdPeriph_Driver/src/stm32f4xx_cryp_aes.c **** 
 2976              		.loc 1 868 26 is_stmt 0 discriminator 2 view .LVU1166
 2977 0264 059B     		ldr	r3, [sp, #20]
 868:Drivers/STM32F4xx_StdPeriph_Driver/src/stm32f4xx_cryp_aes.c **** 
 2978              		.loc 1 868 9 discriminator 2 view .LVU1167
ARM GAS  /tmp/ccjGnpiF.s 			page 90


 2979 0266 B3F5803F 		cmp	r3, #65536
 2980 026a DAD0     		beq	.L71
 868:Drivers/STM32F4xx_StdPeriph_Driver/src/stm32f4xx_cryp_aes.c **** 
 2981              		.loc 1 868 46 discriminator 1 view .LVU1168
 2982 026c 0028     		cmp	r0, #0
 2983 026e F3D1     		bne	.L72
 2984 0270 D7E7     		b	.L71
 2985              	.LVL431:
 2986              	.L74:
 879:Drivers/STM32F4xx_StdPeriph_Driver/src/stm32f4xx_cryp_aes.c ****           
 2987              		.loc 1 879 11 is_stmt 1 discriminator 1 view .LVU1169
 877:Drivers/STM32F4xx_StdPeriph_Driver/src/stm32f4xx_cryp_aes.c ****           {
 2988              		.loc 1 877 16 discriminator 1 view .LVU1170
 877:Drivers/STM32F4xx_StdPeriph_Driver/src/stm32f4xx_cryp_aes.c ****           {
 2989              		.loc 1 877 17 is_stmt 0 discriminator 1 view .LVU1171
 2990 0272 0420     		movs	r0, #4
 2991 0274 FFF7FEFF 		bl	CRYP_GetFlagStatus
 2992              	.LVL432:
 877:Drivers/STM32F4xx_StdPeriph_Driver/src/stm32f4xx_cryp_aes.c ****           {
 2993              		.loc 1 877 16 discriminator 1 view .LVU1172
 2994 0278 0028     		cmp	r0, #0
 2995 027a FAD0     		beq	.L74
 882:Drivers/STM32F4xx_StdPeriph_Driver/src/stm32f4xx_cryp_aes.c ****           outputaddr+=4;
 2996              		.loc 1 882 11 is_stmt 1 view .LVU1173
 882:Drivers/STM32F4xx_StdPeriph_Driver/src/stm32f4xx_cryp_aes.c ****           outputaddr+=4;
 2997              		.loc 1 882 38 is_stmt 0 view .LVU1174
 2998 027c FFF7FEFF 		bl	CRYP_DataOut
 2999              	.LVL433:
 882:Drivers/STM32F4xx_StdPeriph_Driver/src/stm32f4xx_cryp_aes.c ****           outputaddr+=4;
 3000              		.loc 1 882 36 view .LVU1175
 3001 0280 CBF80000 		str	r0, [fp]
 883:Drivers/STM32F4xx_StdPeriph_Driver/src/stm32f4xx_cryp_aes.c ****           *(uint32_t*)(outputaddr) = CRYP_DataOut();
 3002              		.loc 1 883 11 is_stmt 1 view .LVU1176
 3003              	.LVL434:
 884:Drivers/STM32F4xx_StdPeriph_Driver/src/stm32f4xx_cryp_aes.c ****           outputaddr+=4;
 3004              		.loc 1 884 11 view .LVU1177
 884:Drivers/STM32F4xx_StdPeriph_Driver/src/stm32f4xx_cryp_aes.c ****           outputaddr+=4;
 3005              		.loc 1 884 38 is_stmt 0 view .LVU1178
 3006 0284 FFF7FEFF 		bl	CRYP_DataOut
 3007              	.LVL435:
 884:Drivers/STM32F4xx_StdPeriph_Driver/src/stm32f4xx_cryp_aes.c ****           outputaddr+=4;
 3008              		.loc 1 884 36 view .LVU1179
 3009 0288 CBF80400 		str	r0, [fp, #4]
 885:Drivers/STM32F4xx_StdPeriph_Driver/src/stm32f4xx_cryp_aes.c ****           *(uint32_t*)(outputaddr) = CRYP_DataOut();
 3010              		.loc 1 885 11 is_stmt 1 view .LVU1180
 3011              	.LVL436:
 886:Drivers/STM32F4xx_StdPeriph_Driver/src/stm32f4xx_cryp_aes.c ****           outputaddr+=4;
 3012              		.loc 1 886 11 view .LVU1181
 886:Drivers/STM32F4xx_StdPeriph_Driver/src/stm32f4xx_cryp_aes.c ****           outputaddr+=4;
 3013              		.loc 1 886 38 is_stmt 0 view .LVU1182
 3014 028c FFF7FEFF 		bl	CRYP_DataOut
 3015              	.LVL437:
 886:Drivers/STM32F4xx_StdPeriph_Driver/src/stm32f4xx_cryp_aes.c ****           outputaddr+=4;
 3016              		.loc 1 886 36 view .LVU1183
 3017 0290 CBF80800 		str	r0, [fp, #8]
 887:Drivers/STM32F4xx_StdPeriph_Driver/src/stm32f4xx_cryp_aes.c ****           *(uint32_t*)(outputaddr) = CRYP_DataOut();
 3018              		.loc 1 887 11 is_stmt 1 view .LVU1184
ARM GAS  /tmp/ccjGnpiF.s 			page 91


 3019              	.LVL438:
 888:Drivers/STM32F4xx_StdPeriph_Driver/src/stm32f4xx_cryp_aes.c ****           outputaddr+=4;
 3020              		.loc 1 888 11 view .LVU1185
 888:Drivers/STM32F4xx_StdPeriph_Driver/src/stm32f4xx_cryp_aes.c ****           outputaddr+=4;
 3021              		.loc 1 888 38 is_stmt 0 view .LVU1186
 3022 0294 FFF7FEFF 		bl	CRYP_DataOut
 3023              	.LVL439:
 888:Drivers/STM32F4xx_StdPeriph_Driver/src/stm32f4xx_cryp_aes.c ****           outputaddr+=4;
 3024              		.loc 1 888 36 view .LVU1187
 3025 0298 CBF80C00 		str	r0, [fp, #12]
 889:Drivers/STM32F4xx_StdPeriph_Driver/src/stm32f4xx_cryp_aes.c ****         }
 3026              		.loc 1 889 11 is_stmt 1 view .LVU1188
 889:Drivers/STM32F4xx_StdPeriph_Driver/src/stm32f4xx_cryp_aes.c ****         }
 3027              		.loc 1 889 21 is_stmt 0 view .LVU1189
 3028 029c 0BF1100B 		add	fp, fp, #16
 3029              	.LVL440:
 889:Drivers/STM32F4xx_StdPeriph_Driver/src/stm32f4xx_cryp_aes.c ****         }
 3030              		.loc 1 889 21 view .LVU1190
 3031 02a0 C1E7     		b	.L73
 3032              	.L103:
 889:Drivers/STM32F4xx_StdPeriph_Driver/src/stm32f4xx_cryp_aes.c ****         }
 3033              		.loc 1 889 21 view .LVU1191
 3034 02a2 0196     		str	r6, [sp, #4]
 3035 02a4 00E0     		b	.L68
 3036              	.L96:
 3037 02a6 0196     		str	r6, [sp, #4]
 3038              	.LVL441:
 3039              	.L68:
 896:Drivers/STM32F4xx_StdPeriph_Driver/src/stm32f4xx_cryp_aes.c ****     
 3040              		.loc 1 896 5 is_stmt 1 view .LVU1192
 3041 02a8 4FF44030 		mov	r0, #196608
 3042 02ac FFF7FEFF 		bl	CRYP_PhaseConfig
 3043              	.LVL442:
 899:Drivers/STM32F4xx_StdPeriph_Driver/src/stm32f4xx_cryp_aes.c ****     
 3044              		.loc 1 899 5 view .LVU1193
 3045 02b0 0120     		movs	r0, #1
 3046 02b2 FFF7FEFF 		bl	CRYP_Cmd
 3047              	.LVL443:
 901:Drivers/STM32F4xx_StdPeriph_Driver/src/stm32f4xx_cryp_aes.c ****     {
 3048              		.loc 1 901 5 view .LVU1194
 901:Drivers/STM32F4xx_StdPeriph_Driver/src/stm32f4xx_cryp_aes.c ****     {
 3049              		.loc 1 901 8 is_stmt 0 view .LVU1195
 3050 02b6 FFF7FEFF 		bl	CRYP_GetCmdStatus
 3051              	.LVL444:
 901:Drivers/STM32F4xx_StdPeriph_Driver/src/stm32f4xx_cryp_aes.c ****     {
 3052              		.loc 1 901 7 view .LVU1196
 3053 02ba 0646     		mov	r6, r0
 3054 02bc 0028     		cmp	r0, #0
 3055 02be 00F0CE80 		beq	.L63
 909:Drivers/STM32F4xx_StdPeriph_Driver/src/stm32f4xx_cryp_aes.c ****     CRYP_DataIn(__REV(headerlength));
 3056              		.loc 1 909 5 is_stmt 1 view .LVU1197
 3057              	.LVL445:
 3058              	.LBB398:
 3059              	.LBI398:
 495:Drivers/CMSIS/Include/core_cmInstr.h **** {
 3060              		.loc 2 495 57 view .LVU1198
 3061              	.LBB399:
ARM GAS  /tmp/ccjGnpiF.s 			page 92


 3062              		.loc 2 498 3 view .LVU1199
 3063              		.loc 2 498 3 is_stmt 0 view .LVU1200
 3064              	.LBE399:
 3065              	.LBE398:
 909:Drivers/STM32F4xx_StdPeriph_Driver/src/stm32f4xx_cryp_aes.c ****     CRYP_DataIn(__REV(headerlength));
 3066              		.loc 1 909 5 view .LVU1201
 3067 02c2 0020     		movs	r0, #0
 3068              	.LVL446:
 909:Drivers/STM32F4xx_StdPeriph_Driver/src/stm32f4xx_cryp_aes.c ****     CRYP_DataIn(__REV(headerlength));
 3069              		.loc 1 909 5 view .LVU1202
 3070 02c4 FFF7FEFF 		bl	CRYP_DataIn
 3071              	.LVL447:
 910:Drivers/STM32F4xx_StdPeriph_Driver/src/stm32f4xx_cryp_aes.c ****     CRYP_DataIn(__REV(inputlength>>32));
 3072              		.loc 1 910 5 is_stmt 1 view .LVU1203
 3073              	.LBB400:
 3074              	.LBI400:
 495:Drivers/CMSIS/Include/core_cmInstr.h **** {
 3075              		.loc 2 495 57 view .LVU1204
 3076              	.LBB401:
 3077              		.loc 2 498 3 view .LVU1205
 3078              		.loc 2 498 3 is_stmt 0 view .LVU1206
 3079              	.LBE401:
 3080              	.LBE400:
 910:Drivers/STM32F4xx_StdPeriph_Driver/src/stm32f4xx_cryp_aes.c ****     CRYP_DataIn(__REV(inputlength>>32));
 3081              		.loc 1 910 5 view .LVU1207
 3082 02c8 029B     		ldr	r3, [sp, #8]
 3083 02ca 18BA     		rev	r0, r3
 3084 02cc FFF7FEFF 		bl	CRYP_DataIn
 3085              	.LVL448:
 911:Drivers/STM32F4xx_StdPeriph_Driver/src/stm32f4xx_cryp_aes.c ****     CRYP_DataIn(__REV(inputlength));
 3086              		.loc 1 911 5 is_stmt 1 view .LVU1208
 3087              	.LBB402:
 3088              	.LBI402:
 495:Drivers/CMSIS/Include/core_cmInstr.h **** {
 3089              		.loc 2 495 57 view .LVU1209
 3090              	.LBB403:
 3091              		.loc 2 498 3 view .LVU1210
 3092              		.loc 2 498 3 is_stmt 0 view .LVU1211
 3093              	.LBE403:
 3094              	.LBE402:
 911:Drivers/STM32F4xx_StdPeriph_Driver/src/stm32f4xx_cryp_aes.c ****     CRYP_DataIn(__REV(inputlength));
 3095              		.loc 1 911 5 view .LVU1212
 3096 02d0 0020     		movs	r0, #0
 3097              	.LVL449:
 911:Drivers/STM32F4xx_StdPeriph_Driver/src/stm32f4xx_cryp_aes.c ****     CRYP_DataIn(__REV(inputlength));
 3098              		.loc 1 911 5 view .LVU1213
 3099 02d2 FFF7FEFF 		bl	CRYP_DataIn
 3100              	.LVL450:
 912:Drivers/STM32F4xx_StdPeriph_Driver/src/stm32f4xx_cryp_aes.c ****     /* Wait until the OFNE flag is reset */
 3101              		.loc 1 912 5 is_stmt 1 view .LVU1214
 3102              	.LBB404:
 3103              	.LBI404:
 495:Drivers/CMSIS/Include/core_cmInstr.h **** {
 3104              		.loc 2 495 57 view .LVU1215
 3105              	.LBB405:
 3106              		.loc 2 498 3 view .LVU1216
 3107              		.loc 2 498 3 is_stmt 0 view .LVU1217
ARM GAS  /tmp/ccjGnpiF.s 			page 93


 3108              	.LBE405:
 3109              	.LBE404:
 912:Drivers/STM32F4xx_StdPeriph_Driver/src/stm32f4xx_cryp_aes.c ****     /* Wait until the OFNE flag is reset */
 3110              		.loc 1 912 5 view .LVU1218
 3111 02d6 039B     		ldr	r3, [sp, #12]
 3112 02d8 18BA     		rev	r0, r3
 3113 02da FFF7FEFF 		bl	CRYP_DataIn
 3114              	.LVL451:
 914:Drivers/STM32F4xx_StdPeriph_Driver/src/stm32f4xx_cryp_aes.c ****     {
 3115              		.loc 1 914 5 is_stmt 1 view .LVU1219
 3116              	.L75:
 916:Drivers/STM32F4xx_StdPeriph_Driver/src/stm32f4xx_cryp_aes.c ****     
 3117              		.loc 1 916 5 discriminator 1 view .LVU1220
 914:Drivers/STM32F4xx_StdPeriph_Driver/src/stm32f4xx_cryp_aes.c ****     {
 3118              		.loc 1 914 10 discriminator 1 view .LVU1221
 914:Drivers/STM32F4xx_StdPeriph_Driver/src/stm32f4xx_cryp_aes.c ****     {
 3119              		.loc 1 914 11 is_stmt 0 discriminator 1 view .LVU1222
 3120 02de 0420     		movs	r0, #4
 3121 02e0 FFF7FEFF 		bl	CRYP_GetFlagStatus
 3122              	.LVL452:
 914:Drivers/STM32F4xx_StdPeriph_Driver/src/stm32f4xx_cryp_aes.c ****     {
 3123              		.loc 1 914 10 discriminator 1 view .LVU1223
 3124 02e4 0028     		cmp	r0, #0
 3125 02e6 FAD0     		beq	.L75
 918:Drivers/STM32F4xx_StdPeriph_Driver/src/stm32f4xx_cryp_aes.c ****     /* Read the Auth TAG in the IN FIFO */
 3126              		.loc 1 918 5 is_stmt 1 view .LVU1224
 920:Drivers/STM32F4xx_StdPeriph_Driver/src/stm32f4xx_cryp_aes.c ****     tagaddr+=4;
 3127              		.loc 1 920 5 view .LVU1225
 920:Drivers/STM32F4xx_StdPeriph_Driver/src/stm32f4xx_cryp_aes.c ****     tagaddr+=4;
 3128              		.loc 1 920 29 is_stmt 0 view .LVU1226
 3129 02e8 FFF7FEFF 		bl	CRYP_DataOut
 3130              	.LVL453:
 920:Drivers/STM32F4xx_StdPeriph_Driver/src/stm32f4xx_cryp_aes.c ****     tagaddr+=4;
 3131              		.loc 1 920 27 view .LVU1227
 3132 02ec 259B     		ldr	r3, [sp, #148]
 3133 02ee 1860     		str	r0, [r3]
 921:Drivers/STM32F4xx_StdPeriph_Driver/src/stm32f4xx_cryp_aes.c ****     *(uint32_t*)(tagaddr) = CRYP_DataOut();
 3134              		.loc 1 921 5 is_stmt 1 view .LVU1228
 3135              	.LVL454:
 922:Drivers/STM32F4xx_StdPeriph_Driver/src/stm32f4xx_cryp_aes.c ****     tagaddr+=4;
 3136              		.loc 1 922 5 view .LVU1229
 922:Drivers/STM32F4xx_StdPeriph_Driver/src/stm32f4xx_cryp_aes.c ****     tagaddr+=4;
 3137              		.loc 1 922 29 is_stmt 0 view .LVU1230
 3138 02f0 FFF7FEFF 		bl	CRYP_DataOut
 3139              	.LVL455:
 922:Drivers/STM32F4xx_StdPeriph_Driver/src/stm32f4xx_cryp_aes.c ****     tagaddr+=4;
 3140              		.loc 1 922 27 view .LVU1231
 3141 02f4 259B     		ldr	r3, [sp, #148]
 3142 02f6 5860     		str	r0, [r3, #4]
 923:Drivers/STM32F4xx_StdPeriph_Driver/src/stm32f4xx_cryp_aes.c ****     *(uint32_t*)(tagaddr) = CRYP_DataOut();
 3143              		.loc 1 923 5 is_stmt 1 view .LVU1232
 3144              	.LVL456:
 924:Drivers/STM32F4xx_StdPeriph_Driver/src/stm32f4xx_cryp_aes.c ****     tagaddr+=4;
 3145              		.loc 1 924 5 view .LVU1233
 924:Drivers/STM32F4xx_StdPeriph_Driver/src/stm32f4xx_cryp_aes.c ****     tagaddr+=4;
 3146              		.loc 1 924 29 is_stmt 0 view .LVU1234
 3147 02f8 FFF7FEFF 		bl	CRYP_DataOut
ARM GAS  /tmp/ccjGnpiF.s 			page 94


 3148              	.LVL457:
 924:Drivers/STM32F4xx_StdPeriph_Driver/src/stm32f4xx_cryp_aes.c ****     tagaddr+=4;
 3149              		.loc 1 924 27 view .LVU1235
 3150 02fc 259B     		ldr	r3, [sp, #148]
 3151 02fe 9860     		str	r0, [r3, #8]
 925:Drivers/STM32F4xx_StdPeriph_Driver/src/stm32f4xx_cryp_aes.c ****     *(uint32_t*)(tagaddr) = CRYP_DataOut();
 3152              		.loc 1 925 5 is_stmt 1 view .LVU1236
 3153              	.LVL458:
 926:Drivers/STM32F4xx_StdPeriph_Driver/src/stm32f4xx_cryp_aes.c ****     tagaddr+=4;
 3154              		.loc 1 926 5 view .LVU1237
 926:Drivers/STM32F4xx_StdPeriph_Driver/src/stm32f4xx_cryp_aes.c ****     tagaddr+=4;
 3155              		.loc 1 926 29 is_stmt 0 view .LVU1238
 3156 0300 FFF7FEFF 		bl	CRYP_DataOut
 3157              	.LVL459:
 926:Drivers/STM32F4xx_StdPeriph_Driver/src/stm32f4xx_cryp_aes.c ****     tagaddr+=4;
 3158              		.loc 1 926 27 view .LVU1239
 3159 0304 259B     		ldr	r3, [sp, #148]
 3160 0306 D860     		str	r0, [r3, #12]
 927:Drivers/STM32F4xx_StdPeriph_Driver/src/stm32f4xx_cryp_aes.c ****   }
 3161              		.loc 1 927 5 is_stmt 1 view .LVU1240
 3162              	.LVL460:
 927:Drivers/STM32F4xx_StdPeriph_Driver/src/stm32f4xx_cryp_aes.c ****   }
 3163              		.loc 1 927 5 is_stmt 0 view .LVU1241
 3164 0308 019E     		ldr	r6, [sp, #4]
 3165 030a A5E0     		b	.L76
 3166              	.LVL461:
 3167              	.L101:
 963:Drivers/STM32F4xx_StdPeriph_Driver/src/stm32f4xx_cryp_aes.c ****       
 3168              		.loc 1 963 7 is_stmt 1 view .LVU1242
 3169 030c 4FF48030 		mov	r0, #65536
 3170 0310 FFF7FEFF 		bl	CRYP_PhaseConfig
 3171              	.LVL462:
 966:Drivers/STM32F4xx_StdPeriph_Driver/src/stm32f4xx_cryp_aes.c ****       
 3172              		.loc 1 966 7 view .LVU1243
 3173 0314 0120     		movs	r0, #1
 3174 0316 FFF7FEFF 		bl	CRYP_Cmd
 3175              	.LVL463:
 968:Drivers/STM32F4xx_StdPeriph_Driver/src/stm32f4xx_cryp_aes.c ****       {
 3176              		.loc 1 968 7 view .LVU1244
 968:Drivers/STM32F4xx_StdPeriph_Driver/src/stm32f4xx_cryp_aes.c ****       {
 3177              		.loc 1 968 10 is_stmt 0 view .LVU1245
 3178 031a FFF7FEFF 		bl	CRYP_GetCmdStatus
 3179              	.LVL464:
 968:Drivers/STM32F4xx_StdPeriph_Driver/src/stm32f4xx_cryp_aes.c ****       {
 3180              		.loc 1 968 9 view .LVU1246
 3181 031e 0646     		mov	r6, r0
 3182              	.LVL465:
 968:Drivers/STM32F4xx_StdPeriph_Driver/src/stm32f4xx_cryp_aes.c ****       {
 3183              		.loc 1 968 9 view .LVU1247
 3184 0320 0028     		cmp	r0, #0
 3185 0322 00F09C80 		beq	.L63
 975:Drivers/STM32F4xx_StdPeriph_Driver/src/stm32f4xx_cryp_aes.c ****       {
 3186              		.loc 1 975 23 view .LVU1248
 3187 0326 0026     		movs	r6, #0
 3188 0328 12E0     		b	.L79
 3189              	.LVL466:
 3190              	.L80:
ARM GAS  /tmp/ccjGnpiF.s 			page 95


 980:Drivers/STM32F4xx_StdPeriph_Driver/src/stm32f4xx_cryp_aes.c ****         
 3191              		.loc 1 980 9 is_stmt 1 discriminator 1 view .LVU1249
 978:Drivers/STM32F4xx_StdPeriph_Driver/src/stm32f4xx_cryp_aes.c ****         {
 3192              		.loc 1 978 14 discriminator 1 view .LVU1250
 978:Drivers/STM32F4xx_StdPeriph_Driver/src/stm32f4xx_cryp_aes.c ****         {
 3193              		.loc 1 978 15 is_stmt 0 discriminator 1 view .LVU1251
 3194 032a 0120     		movs	r0, #1
 3195 032c FFF7FEFF 		bl	CRYP_GetFlagStatus
 3196              	.LVL467:
 978:Drivers/STM32F4xx_StdPeriph_Driver/src/stm32f4xx_cryp_aes.c ****         {
 3197              		.loc 1 978 14 discriminator 1 view .LVU1252
 3198 0330 0028     		cmp	r0, #0
 3199 0332 FAD0     		beq	.L80
 983:Drivers/STM32F4xx_StdPeriph_Driver/src/stm32f4xx_cryp_aes.c ****         headeraddr+=4;
 3200              		.loc 1 983 9 is_stmt 1 discriminator 2 view .LVU1253
 3201 0334 2868     		ldr	r0, [r5]
 3202 0336 FFF7FEFF 		bl	CRYP_DataIn
 3203              	.LVL468:
 984:Drivers/STM32F4xx_StdPeriph_Driver/src/stm32f4xx_cryp_aes.c ****         CRYP_DataIn(*(uint32_t*)(headeraddr));
 3204              		.loc 1 984 9 discriminator 2 view .LVU1254
 985:Drivers/STM32F4xx_StdPeriph_Driver/src/stm32f4xx_cryp_aes.c ****         headeraddr+=4;
 3205              		.loc 1 985 9 discriminator 2 view .LVU1255
 3206 033a 6868     		ldr	r0, [r5, #4]
 3207 033c FFF7FEFF 		bl	CRYP_DataIn
 3208              	.LVL469:
 986:Drivers/STM32F4xx_StdPeriph_Driver/src/stm32f4xx_cryp_aes.c ****         CRYP_DataIn(*(uint32_t*)(headeraddr));
 3209              		.loc 1 986 9 discriminator 2 view .LVU1256
 987:Drivers/STM32F4xx_StdPeriph_Driver/src/stm32f4xx_cryp_aes.c ****         headeraddr+=4;
 3210              		.loc 1 987 9 discriminator 2 view .LVU1257
 3211 0340 A868     		ldr	r0, [r5, #8]
 3212 0342 FFF7FEFF 		bl	CRYP_DataIn
 3213              	.LVL470:
 988:Drivers/STM32F4xx_StdPeriph_Driver/src/stm32f4xx_cryp_aes.c ****         CRYP_DataIn(*(uint32_t*)(headeraddr));
 3214              		.loc 1 988 9 discriminator 2 view .LVU1258
 989:Drivers/STM32F4xx_StdPeriph_Driver/src/stm32f4xx_cryp_aes.c ****         headeraddr+=4;
 3215              		.loc 1 989 9 discriminator 2 view .LVU1259
 3216 0346 E868     		ldr	r0, [r5, #12]
 3217 0348 FFF7FEFF 		bl	CRYP_DataIn
 3218              	.LVL471:
 990:Drivers/STM32F4xx_StdPeriph_Driver/src/stm32f4xx_cryp_aes.c ****       }
 3219              		.loc 1 990 9 discriminator 2 view .LVU1260
 990:Drivers/STM32F4xx_StdPeriph_Driver/src/stm32f4xx_cryp_aes.c ****       }
 3220              		.loc 1 990 19 is_stmt 0 discriminator 2 view .LVU1261
 3221 034c 1035     		adds	r5, r5, #16
 3222              	.LVL472:
 975:Drivers/STM32F4xx_StdPeriph_Driver/src/stm32f4xx_cryp_aes.c ****       {
 3223              		.loc 1 975 53 is_stmt 1 discriminator 2 view .LVU1262
 975:Drivers/STM32F4xx_StdPeriph_Driver/src/stm32f4xx_cryp_aes.c ****       {
 3224              		.loc 1 975 64 is_stmt 0 discriminator 2 view .LVU1263
 3225 034e 1036     		adds	r6, r6, #16
 3226              	.LVL473:
 3227              	.L79:
 975:Drivers/STM32F4xx_StdPeriph_Driver/src/stm32f4xx_cryp_aes.c ****       {
 3228              		.loc 1 975 28 is_stmt 1 discriminator 1 view .LVU1264
 975:Drivers/STM32F4xx_StdPeriph_Driver/src/stm32f4xx_cryp_aes.c ****       {
 3229              		.loc 1 975 7 is_stmt 0 discriminator 1 view .LVU1265
 3230 0350 5645     		cmp	r6, r10
ARM GAS  /tmp/ccjGnpiF.s 			page 96


 3231 0352 EAD3     		bcc	.L80
 994:Drivers/STM32F4xx_StdPeriph_Driver/src/stm32f4xx_cryp_aes.c ****       do
 3232              		.loc 1 994 7 is_stmt 1 view .LVU1266
 994:Drivers/STM32F4xx_StdPeriph_Driver/src/stm32f4xx_cryp_aes.c ****       do
 3233              		.loc 1 994 15 is_stmt 0 view .LVU1267
 3234 0354 0023     		movs	r3, #0
 3235 0356 0593     		str	r3, [sp, #20]
 3236              	.LVL474:
 3237              	.L82:
 995:Drivers/STM32F4xx_StdPeriph_Driver/src/stm32f4xx_cryp_aes.c ****       {
 3238              		.loc 1 995 7 is_stmt 1 discriminator 2 view .LVU1268
 997:Drivers/STM32F4xx_StdPeriph_Driver/src/stm32f4xx_cryp_aes.c ****         counter++;
 3239              		.loc 1 997 9 discriminator 2 view .LVU1269
 997:Drivers/STM32F4xx_StdPeriph_Driver/src/stm32f4xx_cryp_aes.c ****         counter++;
 3240              		.loc 1 997 22 is_stmt 0 discriminator 2 view .LVU1270
 3241 0358 1020     		movs	r0, #16
 3242 035a FFF7FEFF 		bl	CRYP_GetFlagStatus
 3243              	.LVL475:
 998:Drivers/STM32F4xx_StdPeriph_Driver/src/stm32f4xx_cryp_aes.c ****       }while ((counter != AESBUSY_TIMEOUT) && (busystatus != RESET));
 3244              		.loc 1 998 9 is_stmt 1 discriminator 2 view .LVU1271
 998:Drivers/STM32F4xx_StdPeriph_Driver/src/stm32f4xx_cryp_aes.c ****       }while ((counter != AESBUSY_TIMEOUT) && (busystatus != RESET));
 3245              		.loc 1 998 16 is_stmt 0 discriminator 2 view .LVU1272
 3246 035e 059B     		ldr	r3, [sp, #20]
 3247 0360 0133     		adds	r3, r3, #1
 3248 0362 0593     		str	r3, [sp, #20]
 999:Drivers/STM32F4xx_StdPeriph_Driver/src/stm32f4xx_cryp_aes.c **** 
 3249              		.loc 1 999 14 is_stmt 1 discriminator 2 view .LVU1273
 999:Drivers/STM32F4xx_StdPeriph_Driver/src/stm32f4xx_cryp_aes.c **** 
 3250              		.loc 1 999 24 is_stmt 0 discriminator 2 view .LVU1274
 3251 0364 059B     		ldr	r3, [sp, #20]
 999:Drivers/STM32F4xx_StdPeriph_Driver/src/stm32f4xx_cryp_aes.c **** 
 3252              		.loc 1 999 7 discriminator 2 view .LVU1275
 3253 0366 B3F5803F 		cmp	r3, #65536
 3254 036a 01D0     		beq	.L81
 999:Drivers/STM32F4xx_StdPeriph_Driver/src/stm32f4xx_cryp_aes.c **** 
 3255              		.loc 1 999 44 discriminator 1 view .LVU1276
 3256 036c 0028     		cmp	r0, #0
 3257 036e F3D1     		bne	.L82
 3258              	.L81:
1001:Drivers/STM32F4xx_StdPeriph_Driver/src/stm32f4xx_cryp_aes.c ****       {
 3259              		.loc 1 1001 7 is_stmt 1 view .LVU1277
1001:Drivers/STM32F4xx_StdPeriph_Driver/src/stm32f4xx_cryp_aes.c ****       {
 3260              		.loc 1 1001 10 is_stmt 0 view .LVU1278
 3261 0370 08B9     		cbnz	r0, .L94
 681:Drivers/STM32F4xx_StdPeriph_Driver/src/stm32f4xx_cryp_aes.c ****   uint32_t keyaddr    = (uint32_t)Key;
 3262              		.loc 1 681 15 view .LVU1279
 3263 0372 0125     		movs	r5, #1
 3264              	.LVL476:
 681:Drivers/STM32F4xx_StdPeriph_Driver/src/stm32f4xx_cryp_aes.c ****   uint32_t keyaddr    = (uint32_t)Key;
 3265              		.loc 1 681 15 view .LVU1280
 3266 0374 97E6     		b	.L78
 3267              	.LVL477:
 3268              	.L94:
1003:Drivers/STM32F4xx_StdPeriph_Driver/src/stm32f4xx_cryp_aes.c ****       }
 3269              		.loc 1 1003 16 view .LVU1281
 3270 0376 0025     		movs	r5, #0
 3271              	.LVL478:
ARM GAS  /tmp/ccjGnpiF.s 			page 97


1003:Drivers/STM32F4xx_StdPeriph_Driver/src/stm32f4xx_cryp_aes.c ****       }
 3272              		.loc 1 1003 16 view .LVU1282
 3273 0378 95E6     		b	.L78
 3274              	.LVL479:
 3275              	.L86:
1024:Drivers/STM32F4xx_StdPeriph_Driver/src/stm32f4xx_cryp_aes.c ****       {
1025:Drivers/STM32F4xx_StdPeriph_Driver/src/stm32f4xx_cryp_aes.c ****         /* Wait until the IFEM flag is reset */
1026:Drivers/STM32F4xx_StdPeriph_Driver/src/stm32f4xx_cryp_aes.c ****         while(CRYP_GetFlagStatus(CRYP_FLAG_IFEM) == RESET)
1027:Drivers/STM32F4xx_StdPeriph_Driver/src/stm32f4xx_cryp_aes.c ****         {
1028:Drivers/STM32F4xx_StdPeriph_Driver/src/stm32f4xx_cryp_aes.c ****         }
1029:Drivers/STM32F4xx_StdPeriph_Driver/src/stm32f4xx_cryp_aes.c ****         /* Write the Input block in the IN FIFO */
1030:Drivers/STM32F4xx_StdPeriph_Driver/src/stm32f4xx_cryp_aes.c ****         CRYP_DataIn(*(uint32_t*)(inputaddr));
1031:Drivers/STM32F4xx_StdPeriph_Driver/src/stm32f4xx_cryp_aes.c ****         inputaddr+=4;
1032:Drivers/STM32F4xx_StdPeriph_Driver/src/stm32f4xx_cryp_aes.c ****         CRYP_DataIn(*(uint32_t*)(inputaddr));
1033:Drivers/STM32F4xx_StdPeriph_Driver/src/stm32f4xx_cryp_aes.c ****         inputaddr+=4;
1034:Drivers/STM32F4xx_StdPeriph_Driver/src/stm32f4xx_cryp_aes.c ****         CRYP_DataIn(*(uint32_t*)(inputaddr));
1035:Drivers/STM32F4xx_StdPeriph_Driver/src/stm32f4xx_cryp_aes.c ****         inputaddr+=4;
1036:Drivers/STM32F4xx_StdPeriph_Driver/src/stm32f4xx_cryp_aes.c ****         CRYP_DataIn(*(uint32_t*)(inputaddr));
1037:Drivers/STM32F4xx_StdPeriph_Driver/src/stm32f4xx_cryp_aes.c ****         inputaddr+=4;
1038:Drivers/STM32F4xx_StdPeriph_Driver/src/stm32f4xx_cryp_aes.c ****         
1039:Drivers/STM32F4xx_StdPeriph_Driver/src/stm32f4xx_cryp_aes.c ****         /* Wait until the complete message has been processed */
1040:Drivers/STM32F4xx_StdPeriph_Driver/src/stm32f4xx_cryp_aes.c ****         counter = 0;
1041:Drivers/STM32F4xx_StdPeriph_Driver/src/stm32f4xx_cryp_aes.c ****         do
1042:Drivers/STM32F4xx_StdPeriph_Driver/src/stm32f4xx_cryp_aes.c ****         {
1043:Drivers/STM32F4xx_StdPeriph_Driver/src/stm32f4xx_cryp_aes.c ****           busystatus = CRYP_GetFlagStatus(CRYP_FLAG_BUSY);
1044:Drivers/STM32F4xx_StdPeriph_Driver/src/stm32f4xx_cryp_aes.c ****           counter++;
1045:Drivers/STM32F4xx_StdPeriph_Driver/src/stm32f4xx_cryp_aes.c ****         }while ((counter != AESBUSY_TIMEOUT) && (busystatus != RESET));
1046:Drivers/STM32F4xx_StdPeriph_Driver/src/stm32f4xx_cryp_aes.c **** 
1047:Drivers/STM32F4xx_StdPeriph_Driver/src/stm32f4xx_cryp_aes.c ****         if (busystatus != RESET)
 3276              		.loc 1 1047 9 is_stmt 1 view .LVU1283
 3277              		.loc 1 1047 12 is_stmt 0 view .LVU1284
 3278 037a 30B3     		cbz	r0, .L89
1048:Drivers/STM32F4xx_StdPeriph_Driver/src/stm32f4xx_cryp_aes.c ****         {
1049:Drivers/STM32F4xx_StdPeriph_Driver/src/stm32f4xx_cryp_aes.c ****           status = ERROR;
 3279              		.loc 1 1049 18 view .LVU1285
 3280 037c 0025     		movs	r5, #0
 3281              	.LVL480:
 3282              	.L88:
1023:Drivers/STM32F4xx_StdPeriph_Driver/src/stm32f4xx_cryp_aes.c ****       {
 3283              		.loc 1 1023 76 is_stmt 1 discriminator 2 view .LVU1286
1023:Drivers/STM32F4xx_StdPeriph_Driver/src/stm32f4xx_cryp_aes.c ****       {
 3284              		.loc 1 1023 87 is_stmt 0 discriminator 2 view .LVU1287
 3285 037e 1036     		adds	r6, r6, #16
 3286              	.LVL481:
 3287              	.L84:
1023:Drivers/STM32F4xx_StdPeriph_Driver/src/stm32f4xx_cryp_aes.c ****       {
 3288              		.loc 1 1023 28 is_stmt 1 discriminator 1 view .LVU1288
1023:Drivers/STM32F4xx_StdPeriph_Driver/src/stm32f4xx_cryp_aes.c ****       {
 3289              		.loc 1 1023 7 is_stmt 0 discriminator 1 view .LVU1289
 3290 0380 4E45     		cmp	r6, r9
 3291 0382 3AD2     		bcs	.L83
1023:Drivers/STM32F4xx_StdPeriph_Driver/src/stm32f4xx_cryp_aes.c ****       {
 3292              		.loc 1 1023 53 discriminator 3 view .LVU1290
 3293 0384 002D     		cmp	r5, #0
 3294 0386 38D0     		beq	.L83
 3295              	.L85:
1028:Drivers/STM32F4xx_StdPeriph_Driver/src/stm32f4xx_cryp_aes.c ****         /* Write the Input block in the IN FIFO */
ARM GAS  /tmp/ccjGnpiF.s 			page 98


 3296              		.loc 1 1028 9 is_stmt 1 discriminator 1 view .LVU1291
1026:Drivers/STM32F4xx_StdPeriph_Driver/src/stm32f4xx_cryp_aes.c ****         {
 3297              		.loc 1 1026 14 discriminator 1 view .LVU1292
1026:Drivers/STM32F4xx_StdPeriph_Driver/src/stm32f4xx_cryp_aes.c ****         {
 3298              		.loc 1 1026 15 is_stmt 0 discriminator 1 view .LVU1293
 3299 0388 0120     		movs	r0, #1
 3300 038a FFF7FEFF 		bl	CRYP_GetFlagStatus
 3301              	.LVL482:
1026:Drivers/STM32F4xx_StdPeriph_Driver/src/stm32f4xx_cryp_aes.c ****         {
 3302              		.loc 1 1026 14 discriminator 1 view .LVU1294
 3303 038e 0028     		cmp	r0, #0
 3304 0390 FAD0     		beq	.L85
1030:Drivers/STM32F4xx_StdPeriph_Driver/src/stm32f4xx_cryp_aes.c ****         inputaddr+=4;
 3305              		.loc 1 1030 9 is_stmt 1 view .LVU1295
 3306 0392 2068     		ldr	r0, [r4]
 3307 0394 FFF7FEFF 		bl	CRYP_DataIn
 3308              	.LVL483:
1031:Drivers/STM32F4xx_StdPeriph_Driver/src/stm32f4xx_cryp_aes.c ****         CRYP_DataIn(*(uint32_t*)(inputaddr));
 3309              		.loc 1 1031 9 view .LVU1296
1032:Drivers/STM32F4xx_StdPeriph_Driver/src/stm32f4xx_cryp_aes.c ****         inputaddr+=4;
 3310              		.loc 1 1032 9 view .LVU1297
 3311 0398 6068     		ldr	r0, [r4, #4]
 3312 039a FFF7FEFF 		bl	CRYP_DataIn
 3313              	.LVL484:
1033:Drivers/STM32F4xx_StdPeriph_Driver/src/stm32f4xx_cryp_aes.c ****         CRYP_DataIn(*(uint32_t*)(inputaddr));
 3314              		.loc 1 1033 9 view .LVU1298
1034:Drivers/STM32F4xx_StdPeriph_Driver/src/stm32f4xx_cryp_aes.c ****         inputaddr+=4;
 3315              		.loc 1 1034 9 view .LVU1299
 3316 039e A068     		ldr	r0, [r4, #8]
 3317 03a0 FFF7FEFF 		bl	CRYP_DataIn
 3318              	.LVL485:
1035:Drivers/STM32F4xx_StdPeriph_Driver/src/stm32f4xx_cryp_aes.c ****         CRYP_DataIn(*(uint32_t*)(inputaddr));
 3319              		.loc 1 1035 9 view .LVU1300
1036:Drivers/STM32F4xx_StdPeriph_Driver/src/stm32f4xx_cryp_aes.c ****         inputaddr+=4;
 3320              		.loc 1 1036 9 view .LVU1301
 3321 03a4 E068     		ldr	r0, [r4, #12]
 3322 03a6 FFF7FEFF 		bl	CRYP_DataIn
 3323              	.LVL486:
1037:Drivers/STM32F4xx_StdPeriph_Driver/src/stm32f4xx_cryp_aes.c ****         
 3324              		.loc 1 1037 9 view .LVU1302
1037:Drivers/STM32F4xx_StdPeriph_Driver/src/stm32f4xx_cryp_aes.c ****         
 3325              		.loc 1 1037 18 is_stmt 0 view .LVU1303
 3326 03aa 1034     		adds	r4, r4, #16
 3327              	.LVL487:
1040:Drivers/STM32F4xx_StdPeriph_Driver/src/stm32f4xx_cryp_aes.c ****         do
 3328              		.loc 1 1040 9 is_stmt 1 view .LVU1304
1040:Drivers/STM32F4xx_StdPeriph_Driver/src/stm32f4xx_cryp_aes.c ****         do
 3329              		.loc 1 1040 17 is_stmt 0 view .LVU1305
 3330 03ac 0023     		movs	r3, #0
 3331              	.LVL488:
1040:Drivers/STM32F4xx_StdPeriph_Driver/src/stm32f4xx_cryp_aes.c ****         do
 3332              		.loc 1 1040 17 view .LVU1306
 3333 03ae 0593     		str	r3, [sp, #20]
 3334              	.LVL489:
 3335              	.L87:
1041:Drivers/STM32F4xx_StdPeriph_Driver/src/stm32f4xx_cryp_aes.c ****         {
 3336              		.loc 1 1041 9 is_stmt 1 discriminator 2 view .LVU1307
ARM GAS  /tmp/ccjGnpiF.s 			page 99


1043:Drivers/STM32F4xx_StdPeriph_Driver/src/stm32f4xx_cryp_aes.c ****           counter++;
 3337              		.loc 1 1043 11 discriminator 2 view .LVU1308
1043:Drivers/STM32F4xx_StdPeriph_Driver/src/stm32f4xx_cryp_aes.c ****           counter++;
 3338              		.loc 1 1043 24 is_stmt 0 discriminator 2 view .LVU1309
 3339 03b0 1020     		movs	r0, #16
 3340 03b2 FFF7FEFF 		bl	CRYP_GetFlagStatus
 3341              	.LVL490:
1044:Drivers/STM32F4xx_StdPeriph_Driver/src/stm32f4xx_cryp_aes.c ****         }while ((counter != AESBUSY_TIMEOUT) && (busystatus != RESET));
 3342              		.loc 1 1044 11 is_stmt 1 discriminator 2 view .LVU1310
1044:Drivers/STM32F4xx_StdPeriph_Driver/src/stm32f4xx_cryp_aes.c ****         }while ((counter != AESBUSY_TIMEOUT) && (busystatus != RESET));
 3343              		.loc 1 1044 18 is_stmt 0 discriminator 2 view .LVU1311
 3344 03b6 059B     		ldr	r3, [sp, #20]
 3345 03b8 0133     		adds	r3, r3, #1
 3346 03ba 0593     		str	r3, [sp, #20]
1045:Drivers/STM32F4xx_StdPeriph_Driver/src/stm32f4xx_cryp_aes.c **** 
 3347              		.loc 1 1045 16 is_stmt 1 discriminator 2 view .LVU1312
1045:Drivers/STM32F4xx_StdPeriph_Driver/src/stm32f4xx_cryp_aes.c **** 
 3348              		.loc 1 1045 26 is_stmt 0 discriminator 2 view .LVU1313
 3349 03bc 059B     		ldr	r3, [sp, #20]
1045:Drivers/STM32F4xx_StdPeriph_Driver/src/stm32f4xx_cryp_aes.c **** 
 3350              		.loc 1 1045 9 discriminator 2 view .LVU1314
 3351 03be B3F5803F 		cmp	r3, #65536
 3352 03c2 DAD0     		beq	.L86
1045:Drivers/STM32F4xx_StdPeriph_Driver/src/stm32f4xx_cryp_aes.c **** 
 3353              		.loc 1 1045 46 discriminator 1 view .LVU1315
 3354 03c4 0028     		cmp	r0, #0
 3355 03c6 F3D1     		bne	.L87
 3356 03c8 D7E7     		b	.L86
 3357              	.LVL491:
 3358              	.L89:
1050:Drivers/STM32F4xx_StdPeriph_Driver/src/stm32f4xx_cryp_aes.c ****         }
1051:Drivers/STM32F4xx_StdPeriph_Driver/src/stm32f4xx_cryp_aes.c ****         else
1052:Drivers/STM32F4xx_StdPeriph_Driver/src/stm32f4xx_cryp_aes.c ****         {
1053:Drivers/STM32F4xx_StdPeriph_Driver/src/stm32f4xx_cryp_aes.c ****           /* Wait until the OFNE flag is reset */
1054:Drivers/STM32F4xx_StdPeriph_Driver/src/stm32f4xx_cryp_aes.c ****           while(CRYP_GetFlagStatus(CRYP_FLAG_OFNE) == RESET)
1055:Drivers/STM32F4xx_StdPeriph_Driver/src/stm32f4xx_cryp_aes.c ****           {
1056:Drivers/STM32F4xx_StdPeriph_Driver/src/stm32f4xx_cryp_aes.c ****           }
 3359              		.loc 1 1056 11 is_stmt 1 discriminator 1 view .LVU1316
1054:Drivers/STM32F4xx_StdPeriph_Driver/src/stm32f4xx_cryp_aes.c ****           {
 3360              		.loc 1 1054 16 discriminator 1 view .LVU1317
1054:Drivers/STM32F4xx_StdPeriph_Driver/src/stm32f4xx_cryp_aes.c ****           {
 3361              		.loc 1 1054 17 is_stmt 0 discriminator 1 view .LVU1318
 3362 03ca 0420     		movs	r0, #4
 3363 03cc FFF7FEFF 		bl	CRYP_GetFlagStatus
 3364              	.LVL492:
1054:Drivers/STM32F4xx_StdPeriph_Driver/src/stm32f4xx_cryp_aes.c ****           {
 3365              		.loc 1 1054 16 discriminator 1 view .LVU1319
 3366 03d0 0028     		cmp	r0, #0
 3367 03d2 FAD0     		beq	.L89
1057:Drivers/STM32F4xx_StdPeriph_Driver/src/stm32f4xx_cryp_aes.c ****           
1058:Drivers/STM32F4xx_StdPeriph_Driver/src/stm32f4xx_cryp_aes.c ****           /* Read the Output block from the Output FIFO */
1059:Drivers/STM32F4xx_StdPeriph_Driver/src/stm32f4xx_cryp_aes.c ****           *(uint32_t*)(outputaddr) = CRYP_DataOut();
 3368              		.loc 1 1059 11 is_stmt 1 view .LVU1320
 3369              		.loc 1 1059 38 is_stmt 0 view .LVU1321
 3370 03d4 FFF7FEFF 		bl	CRYP_DataOut
 3371              	.LVL493:
 3372              		.loc 1 1059 36 view .LVU1322
ARM GAS  /tmp/ccjGnpiF.s 			page 100


 3373 03d8 CBF80000 		str	r0, [fp]
1060:Drivers/STM32F4xx_StdPeriph_Driver/src/stm32f4xx_cryp_aes.c ****           outputaddr+=4;
 3374              		.loc 1 1060 11 is_stmt 1 view .LVU1323
 3375              	.LVL494:
1061:Drivers/STM32F4xx_StdPeriph_Driver/src/stm32f4xx_cryp_aes.c ****           *(uint32_t*)(outputaddr) = CRYP_DataOut();
 3376              		.loc 1 1061 11 view .LVU1324
 3377              		.loc 1 1061 38 is_stmt 0 view .LVU1325
 3378 03dc FFF7FEFF 		bl	CRYP_DataOut
 3379              	.LVL495:
 3380              		.loc 1 1061 36 view .LVU1326
 3381 03e0 CBF80400 		str	r0, [fp, #4]
1062:Drivers/STM32F4xx_StdPeriph_Driver/src/stm32f4xx_cryp_aes.c ****           outputaddr+=4;
 3382              		.loc 1 1062 11 is_stmt 1 view .LVU1327
 3383              	.LVL496:
1063:Drivers/STM32F4xx_StdPeriph_Driver/src/stm32f4xx_cryp_aes.c ****           *(uint32_t*)(outputaddr) = CRYP_DataOut();
 3384              		.loc 1 1063 11 view .LVU1328
 3385              		.loc 1 1063 38 is_stmt 0 view .LVU1329
 3386 03e4 FFF7FEFF 		bl	CRYP_DataOut
 3387              	.LVL497:
 3388              		.loc 1 1063 36 view .LVU1330
 3389 03e8 CBF80800 		str	r0, [fp, #8]
1064:Drivers/STM32F4xx_StdPeriph_Driver/src/stm32f4xx_cryp_aes.c ****           outputaddr+=4;
 3390              		.loc 1 1064 11 is_stmt 1 view .LVU1331
 3391              	.LVL498:
1065:Drivers/STM32F4xx_StdPeriph_Driver/src/stm32f4xx_cryp_aes.c ****           *(uint32_t*)(outputaddr) = CRYP_DataOut();
 3392              		.loc 1 1065 11 view .LVU1332
 3393              		.loc 1 1065 38 is_stmt 0 view .LVU1333
 3394 03ec FFF7FEFF 		bl	CRYP_DataOut
 3395              	.LVL499:
 3396              		.loc 1 1065 36 view .LVU1334
 3397 03f0 CBF80C00 		str	r0, [fp, #12]
1066:Drivers/STM32F4xx_StdPeriph_Driver/src/stm32f4xx_cryp_aes.c ****           outputaddr+=4;
 3398              		.loc 1 1066 11 is_stmt 1 view .LVU1335
 3399              		.loc 1 1066 21 is_stmt 0 view .LVU1336
 3400 03f4 0BF1100B 		add	fp, fp, #16
 3401              	.LVL500:
 3402              		.loc 1 1066 21 view .LVU1337
 3403 03f8 C1E7     		b	.L88
 3404              	.LVL501:
 3405              	.L83:
1067:Drivers/STM32F4xx_StdPeriph_Driver/src/stm32f4xx_cryp_aes.c ****         }
1068:Drivers/STM32F4xx_StdPeriph_Driver/src/stm32f4xx_cryp_aes.c ****       }
1069:Drivers/STM32F4xx_StdPeriph_Driver/src/stm32f4xx_cryp_aes.c ****     }
1070:Drivers/STM32F4xx_StdPeriph_Driver/src/stm32f4xx_cryp_aes.c ****     
1071:Drivers/STM32F4xx_StdPeriph_Driver/src/stm32f4xx_cryp_aes.c ****     /***************************** final phase ********************************/
1072:Drivers/STM32F4xx_StdPeriph_Driver/src/stm32f4xx_cryp_aes.c ****     /* Select final phase */
1073:Drivers/STM32F4xx_StdPeriph_Driver/src/stm32f4xx_cryp_aes.c ****     CRYP_PhaseConfig(CRYP_Phase_Final);
 3406              		.loc 1 1073 5 is_stmt 1 view .LVU1338
 3407 03fa 4FF44030 		mov	r0, #196608
 3408 03fe FFF7FEFF 		bl	CRYP_PhaseConfig
 3409              	.LVL502:
1074:Drivers/STM32F4xx_StdPeriph_Driver/src/stm32f4xx_cryp_aes.c **** 
1075:Drivers/STM32F4xx_StdPeriph_Driver/src/stm32f4xx_cryp_aes.c ****     /* Enable Crypto processor */
1076:Drivers/STM32F4xx_StdPeriph_Driver/src/stm32f4xx_cryp_aes.c ****     CRYP_Cmd(ENABLE);
 3410              		.loc 1 1076 5 view .LVU1339
 3411 0402 0120     		movs	r0, #1
 3412 0404 FFF7FEFF 		bl	CRYP_Cmd
ARM GAS  /tmp/ccjGnpiF.s 			page 101


 3413              	.LVL503:
1077:Drivers/STM32F4xx_StdPeriph_Driver/src/stm32f4xx_cryp_aes.c ****     
1078:Drivers/STM32F4xx_StdPeriph_Driver/src/stm32f4xx_cryp_aes.c ****     if(CRYP_GetCmdStatus() == DISABLE)
 3414              		.loc 1 1078 5 view .LVU1340
 3415              		.loc 1 1078 8 is_stmt 0 view .LVU1341
 3416 0408 FFF7FEFF 		bl	CRYP_GetCmdStatus
 3417              	.LVL504:
 3418              		.loc 1 1078 7 view .LVU1342
 3419 040c 0646     		mov	r6, r0
 3420 040e 30B3     		cbz	r0, .L63
1079:Drivers/STM32F4xx_StdPeriph_Driver/src/stm32f4xx_cryp_aes.c ****     {
1080:Drivers/STM32F4xx_StdPeriph_Driver/src/stm32f4xx_cryp_aes.c ****       /* The CRYP peripheral clock is not enabled or the device doesn't embed 
1081:Drivers/STM32F4xx_StdPeriph_Driver/src/stm32f4xx_cryp_aes.c ****          the CRYP peripheral (please check the device sales type. */
1082:Drivers/STM32F4xx_StdPeriph_Driver/src/stm32f4xx_cryp_aes.c ****       return(ERROR);
1083:Drivers/STM32F4xx_StdPeriph_Driver/src/stm32f4xx_cryp_aes.c ****     }
1084:Drivers/STM32F4xx_StdPeriph_Driver/src/stm32f4xx_cryp_aes.c ****     
1085:Drivers/STM32F4xx_StdPeriph_Driver/src/stm32f4xx_cryp_aes.c ****     /* Write number of bits concatenated with header in the IN FIFO */
1086:Drivers/STM32F4xx_StdPeriph_Driver/src/stm32f4xx_cryp_aes.c ****     CRYP_DataIn(__REV(headerlength>>32));
 3421              		.loc 1 1086 5 is_stmt 1 view .LVU1343
 3422              	.LVL505:
 3423              	.LBB406:
 3424              	.LBI406:
 495:Drivers/CMSIS/Include/core_cmInstr.h **** {
 3425              		.loc 2 495 57 view .LVU1344
 3426              	.LBB407:
 3427              		.loc 2 498 3 view .LVU1345
 3428              		.loc 2 498 3 is_stmt 0 view .LVU1346
 3429              	.LBE407:
 3430              	.LBE406:
 3431              		.loc 1 1086 5 view .LVU1347
 3432 0410 0020     		movs	r0, #0
 3433              	.LVL506:
 3434              		.loc 1 1086 5 view .LVU1348
 3435 0412 FFF7FEFF 		bl	CRYP_DataIn
 3436              	.LVL507:
1087:Drivers/STM32F4xx_StdPeriph_Driver/src/stm32f4xx_cryp_aes.c ****     CRYP_DataIn(__REV(headerlength));
 3437              		.loc 1 1087 5 is_stmt 1 view .LVU1349
 3438              	.LBB408:
 3439              	.LBI408:
 495:Drivers/CMSIS/Include/core_cmInstr.h **** {
 3440              		.loc 2 495 57 view .LVU1350
 3441              	.LBB409:
 3442              		.loc 2 498 3 view .LVU1351
 3443              		.loc 2 498 3 is_stmt 0 view .LVU1352
 3444              	.LBE409:
 3445              	.LBE408:
 3446              		.loc 1 1087 5 view .LVU1353
 3447 0416 029B     		ldr	r3, [sp, #8]
 3448 0418 18BA     		rev	r0, r3
 3449 041a FFF7FEFF 		bl	CRYP_DataIn
 3450              	.LVL508:
1088:Drivers/STM32F4xx_StdPeriph_Driver/src/stm32f4xx_cryp_aes.c ****     CRYP_DataIn(__REV(inputlength>>32));
 3451              		.loc 1 1088 5 is_stmt 1 view .LVU1354
 3452              	.LBB410:
 3453              	.LBI410:
 495:Drivers/CMSIS/Include/core_cmInstr.h **** {
 3454              		.loc 2 495 57 view .LVU1355
ARM GAS  /tmp/ccjGnpiF.s 			page 102


 3455              	.LBB411:
 3456              		.loc 2 498 3 view .LVU1356
 3457              		.loc 2 498 3 is_stmt 0 view .LVU1357
 3458              	.LBE411:
 3459              	.LBE410:
 3460              		.loc 1 1088 5 view .LVU1358
 3461 041e 0020     		movs	r0, #0
 3462              	.LVL509:
 3463              		.loc 1 1088 5 view .LVU1359
 3464 0420 FFF7FEFF 		bl	CRYP_DataIn
 3465              	.LVL510:
1089:Drivers/STM32F4xx_StdPeriph_Driver/src/stm32f4xx_cryp_aes.c ****     CRYP_DataIn(__REV(inputlength));
 3466              		.loc 1 1089 5 is_stmt 1 view .LVU1360
 3467              	.LBB412:
 3468              	.LBI412:
 495:Drivers/CMSIS/Include/core_cmInstr.h **** {
 3469              		.loc 2 495 57 view .LVU1361
 3470              	.LBB413:
 3471              		.loc 2 498 3 view .LVU1362
 3472              		.loc 2 498 3 is_stmt 0 view .LVU1363
 3473              	.LBE413:
 3474              	.LBE412:
 3475              		.loc 1 1089 5 view .LVU1364
 3476 0424 039B     		ldr	r3, [sp, #12]
 3477 0426 18BA     		rev	r0, r3
 3478 0428 FFF7FEFF 		bl	CRYP_DataIn
 3479              	.LVL511:
1090:Drivers/STM32F4xx_StdPeriph_Driver/src/stm32f4xx_cryp_aes.c ****     /* Wait until the OFNE flag is reset */
1091:Drivers/STM32F4xx_StdPeriph_Driver/src/stm32f4xx_cryp_aes.c ****     while(CRYP_GetFlagStatus(CRYP_FLAG_OFNE) == RESET)
 3480              		.loc 1 1091 5 is_stmt 1 view .LVU1365
 3481              	.L90:
1092:Drivers/STM32F4xx_StdPeriph_Driver/src/stm32f4xx_cryp_aes.c ****     {
1093:Drivers/STM32F4xx_StdPeriph_Driver/src/stm32f4xx_cryp_aes.c ****     }
 3482              		.loc 1 1093 5 discriminator 1 view .LVU1366
1091:Drivers/STM32F4xx_StdPeriph_Driver/src/stm32f4xx_cryp_aes.c ****     {
 3483              		.loc 1 1091 10 discriminator 1 view .LVU1367
1091:Drivers/STM32F4xx_StdPeriph_Driver/src/stm32f4xx_cryp_aes.c ****     {
 3484              		.loc 1 1091 11 is_stmt 0 discriminator 1 view .LVU1368
 3485 042c 0420     		movs	r0, #4
 3486 042e FFF7FEFF 		bl	CRYP_GetFlagStatus
 3487              	.LVL512:
1091:Drivers/STM32F4xx_StdPeriph_Driver/src/stm32f4xx_cryp_aes.c ****     {
 3488              		.loc 1 1091 10 discriminator 1 view .LVU1369
 3489 0432 0028     		cmp	r0, #0
 3490 0434 FAD0     		beq	.L90
1094:Drivers/STM32F4xx_StdPeriph_Driver/src/stm32f4xx_cryp_aes.c ****     
1095:Drivers/STM32F4xx_StdPeriph_Driver/src/stm32f4xx_cryp_aes.c ****     tagaddr = (uint32_t)AuthTAG;
 3491              		.loc 1 1095 5 is_stmt 1 view .LVU1370
1096:Drivers/STM32F4xx_StdPeriph_Driver/src/stm32f4xx_cryp_aes.c ****     /* Read the Auth TAG in the IN FIFO */
1097:Drivers/STM32F4xx_StdPeriph_Driver/src/stm32f4xx_cryp_aes.c ****     *(uint32_t*)(tagaddr) = CRYP_DataOut();
 3492              		.loc 1 1097 5 view .LVU1371
 3493              		.loc 1 1097 29 is_stmt 0 view .LVU1372
 3494 0436 FFF7FEFF 		bl	CRYP_DataOut
 3495              	.LVL513:
 3496              		.loc 1 1097 27 view .LVU1373
 3497 043a 259B     		ldr	r3, [sp, #148]
 3498 043c 1860     		str	r0, [r3]
ARM GAS  /tmp/ccjGnpiF.s 			page 103


1098:Drivers/STM32F4xx_StdPeriph_Driver/src/stm32f4xx_cryp_aes.c ****     tagaddr+=4;
 3499              		.loc 1 1098 5 is_stmt 1 view .LVU1374
 3500              	.LVL514:
1099:Drivers/STM32F4xx_StdPeriph_Driver/src/stm32f4xx_cryp_aes.c ****     *(uint32_t*)(tagaddr) = CRYP_DataOut();
 3501              		.loc 1 1099 5 view .LVU1375
 3502              		.loc 1 1099 29 is_stmt 0 view .LVU1376
 3503 043e FFF7FEFF 		bl	CRYP_DataOut
 3504              	.LVL515:
 3505              		.loc 1 1099 27 view .LVU1377
 3506 0442 259B     		ldr	r3, [sp, #148]
 3507 0444 5860     		str	r0, [r3, #4]
1100:Drivers/STM32F4xx_StdPeriph_Driver/src/stm32f4xx_cryp_aes.c ****     tagaddr+=4;
 3508              		.loc 1 1100 5 is_stmt 1 view .LVU1378
 3509              	.LVL516:
1101:Drivers/STM32F4xx_StdPeriph_Driver/src/stm32f4xx_cryp_aes.c ****     *(uint32_t*)(tagaddr) = CRYP_DataOut();
 3510              		.loc 1 1101 5 view .LVU1379
 3511              		.loc 1 1101 29 is_stmt 0 view .LVU1380
 3512 0446 FFF7FEFF 		bl	CRYP_DataOut
 3513              	.LVL517:
 3514              		.loc 1 1101 27 view .LVU1381
 3515 044a 259B     		ldr	r3, [sp, #148]
 3516 044c 9860     		str	r0, [r3, #8]
1102:Drivers/STM32F4xx_StdPeriph_Driver/src/stm32f4xx_cryp_aes.c ****     tagaddr+=4;
 3517              		.loc 1 1102 5 is_stmt 1 view .LVU1382
 3518              	.LVL518:
1103:Drivers/STM32F4xx_StdPeriph_Driver/src/stm32f4xx_cryp_aes.c ****     *(uint32_t*)(tagaddr) = CRYP_DataOut();
 3519              		.loc 1 1103 5 view .LVU1383
 3520              		.loc 1 1103 29 is_stmt 0 view .LVU1384
 3521 044e FFF7FEFF 		bl	CRYP_DataOut
 3522              	.LVL519:
 3523              		.loc 1 1103 27 view .LVU1385
 3524 0452 259B     		ldr	r3, [sp, #148]
 3525 0454 D860     		str	r0, [r3, #12]
1104:Drivers/STM32F4xx_StdPeriph_Driver/src/stm32f4xx_cryp_aes.c ****     tagaddr+=4;
 3526              		.loc 1 1104 5 is_stmt 1 view .LVU1386
 3527              	.LVL520:
1103:Drivers/STM32F4xx_StdPeriph_Driver/src/stm32f4xx_cryp_aes.c ****     *(uint32_t*)(tagaddr) = CRYP_DataOut();
 3528              		.loc 1 1103 27 is_stmt 0 view .LVU1387
 3529 0456 2E46     		mov	r6, r5
 3530              	.LVL521:
 3531              	.L76:
1105:Drivers/STM32F4xx_StdPeriph_Driver/src/stm32f4xx_cryp_aes.c ****   }
1106:Drivers/STM32F4xx_StdPeriph_Driver/src/stm32f4xx_cryp_aes.c ****   /* Disable Crypto */
1107:Drivers/STM32F4xx_StdPeriph_Driver/src/stm32f4xx_cryp_aes.c ****   CRYP_Cmd(DISABLE);
 3532              		.loc 1 1107 3 is_stmt 1 view .LVU1388
 3533 0458 0020     		movs	r0, #0
 3534              	.LVL522:
 3535              		.loc 1 1107 3 is_stmt 0 view .LVU1389
 3536 045a FFF7FEFF 		bl	CRYP_Cmd
 3537              	.LVL523:
1108:Drivers/STM32F4xx_StdPeriph_Driver/src/stm32f4xx_cryp_aes.c **** 
1109:Drivers/STM32F4xx_StdPeriph_Driver/src/stm32f4xx_cryp_aes.c ****   return status;
 3538              		.loc 1 1109 3 is_stmt 1 view .LVU1390
 3539              	.L63:
1110:Drivers/STM32F4xx_StdPeriph_Driver/src/stm32f4xx_cryp_aes.c **** }
 3540              		.loc 1 1110 1 is_stmt 0 view .LVU1391
 3541 045e 3046     		mov	r0, r6
ARM GAS  /tmp/ccjGnpiF.s 			page 104


 3542 0460 17B0     		add	sp, sp, #92
 3543              		.cfi_def_cfa_offset 36
 3544              		@ sp needed
 3545 0462 BDE8F08F 		pop	{r4, r5, r6, r7, r8, r9, r10, fp, pc}
 3546              		.loc 1 1110 1 view .LVU1392
 3547              		.cfi_endproc
 3548              	.LFE126:
 3550              		.section	.text.CRYP_AES_CCM,"ax",%progbits
 3551              		.align	1
 3552              		.global	CRYP_AES_CCM
 3553              		.syntax unified
 3554              		.thumb
 3555              		.thumb_func
 3556              		.fpu fpv4-sp-d16
 3558              	CRYP_AES_CCM:
 3559              	.LVL524:
 3560              	.LFB127:
1111:Drivers/STM32F4xx_StdPeriph_Driver/src/stm32f4xx_cryp_aes.c **** 
1112:Drivers/STM32F4xx_StdPeriph_Driver/src/stm32f4xx_cryp_aes.c **** /**
1113:Drivers/STM32F4xx_StdPeriph_Driver/src/stm32f4xx_cryp_aes.c ****   * @brief  Encrypt and decrypt using AES in CCM Mode. The GCM and CCM modes
1114:Drivers/STM32F4xx_StdPeriph_Driver/src/stm32f4xx_cryp_aes.c ****   *         are available only on STM32F437x Devices.
1115:Drivers/STM32F4xx_StdPeriph_Driver/src/stm32f4xx_cryp_aes.c ****   * @param  Mode: encryption or decryption Mode.
1116:Drivers/STM32F4xx_StdPeriph_Driver/src/stm32f4xx_cryp_aes.c ****   *          This parameter can be one of the following values:
1117:Drivers/STM32F4xx_StdPeriph_Driver/src/stm32f4xx_cryp_aes.c ****   *            @arg MODE_ENCRYPT: Encryption
1118:Drivers/STM32F4xx_StdPeriph_Driver/src/stm32f4xx_cryp_aes.c ****   *            @arg MODE_DECRYPT: Decryption
1119:Drivers/STM32F4xx_StdPeriph_Driver/src/stm32f4xx_cryp_aes.c ****   * @param  Nonce: the nonce used for AES algorithm. It shall be unique for each processing.
1120:Drivers/STM32F4xx_StdPeriph_Driver/src/stm32f4xx_cryp_aes.c ****   * @param  Key: Key used for AES algorithm.
1121:Drivers/STM32F4xx_StdPeriph_Driver/src/stm32f4xx_cryp_aes.c ****   * @param  Keysize: length of the Key, must be a 128, 192 or 256.
1122:Drivers/STM32F4xx_StdPeriph_Driver/src/stm32f4xx_cryp_aes.c ****   * @param  Input: pointer to the Input buffer.
1123:Drivers/STM32F4xx_StdPeriph_Driver/src/stm32f4xx_cryp_aes.c ****   * @param  Ilength: length of the Input buffer in bytes, must be a multiple of 16.
1124:Drivers/STM32F4xx_StdPeriph_Driver/src/stm32f4xx_cryp_aes.c ****   * @param  Header: pointer to the header buffer.
1125:Drivers/STM32F4xx_StdPeriph_Driver/src/stm32f4xx_cryp_aes.c ****   * @param  Hlength: length of the header buffer in bytes.
1126:Drivers/STM32F4xx_StdPeriph_Driver/src/stm32f4xx_cryp_aes.c ****   * @param  HBuffer: pointer to temporary buffer used to append the header
1127:Drivers/STM32F4xx_StdPeriph_Driver/src/stm32f4xx_cryp_aes.c ****   *         HBuffer size must be equal to Hlength + 21
1128:Drivers/STM32F4xx_StdPeriph_Driver/src/stm32f4xx_cryp_aes.c ****   * @param  Output: pointer to the returned buffer.
1129:Drivers/STM32F4xx_StdPeriph_Driver/src/stm32f4xx_cryp_aes.c ****   * @param  AuthTAG: pointer to the authentication TAG buffer.
1130:Drivers/STM32F4xx_StdPeriph_Driver/src/stm32f4xx_cryp_aes.c ****   * @param  TAGSize: the size of the TAG (called also MAC).
1131:Drivers/STM32F4xx_StdPeriph_Driver/src/stm32f4xx_cryp_aes.c ****   * @retval An ErrorStatus enumeration value:
1132:Drivers/STM32F4xx_StdPeriph_Driver/src/stm32f4xx_cryp_aes.c ****   *          - SUCCESS: Operation done
1133:Drivers/STM32F4xx_StdPeriph_Driver/src/stm32f4xx_cryp_aes.c ****   *          - ERROR: Operation failed
1134:Drivers/STM32F4xx_StdPeriph_Driver/src/stm32f4xx_cryp_aes.c ****   */
1135:Drivers/STM32F4xx_StdPeriph_Driver/src/stm32f4xx_cryp_aes.c **** ErrorStatus CRYP_AES_CCM(uint8_t Mode, 
1136:Drivers/STM32F4xx_StdPeriph_Driver/src/stm32f4xx_cryp_aes.c ****                          uint8_t* Nonce, uint32_t NonceSize,
1137:Drivers/STM32F4xx_StdPeriph_Driver/src/stm32f4xx_cryp_aes.c ****                          uint8_t *Key, uint16_t Keysize,
1138:Drivers/STM32F4xx_StdPeriph_Driver/src/stm32f4xx_cryp_aes.c ****                          uint8_t *Input, uint32_t ILength,
1139:Drivers/STM32F4xx_StdPeriph_Driver/src/stm32f4xx_cryp_aes.c ****                          uint8_t *Header, uint32_t HLength, uint8_t *HBuffer,
1140:Drivers/STM32F4xx_StdPeriph_Driver/src/stm32f4xx_cryp_aes.c ****                          uint8_t *Output,
1141:Drivers/STM32F4xx_StdPeriph_Driver/src/stm32f4xx_cryp_aes.c ****                          uint8_t *AuthTAG, uint32_t TAGSize)
1142:Drivers/STM32F4xx_StdPeriph_Driver/src/stm32f4xx_cryp_aes.c **** {
 3561              		.loc 1 1142 1 is_stmt 1 view -0
 3562              		.cfi_startproc
 3563              		@ args = 36, pretend = 0, frame = 128
 3564              		@ frame_needed = 0, uses_anonymous_args = 0
 3565              		.loc 1 1142 1 is_stmt 0 view .LVU1394
 3566 0000 2DE9F04F 		push	{r4, r5, r6, r7, r8, r9, r10, fp, lr}
 3567              		.cfi_def_cfa_offset 36
 3568              		.cfi_offset 4, -36
ARM GAS  /tmp/ccjGnpiF.s 			page 105


 3569              		.cfi_offset 5, -32
 3570              		.cfi_offset 6, -28
 3571              		.cfi_offset 7, -24
 3572              		.cfi_offset 8, -20
 3573              		.cfi_offset 9, -16
 3574              		.cfi_offset 10, -12
 3575              		.cfi_offset 11, -8
 3576              		.cfi_offset 14, -4
 3577 0004 A1B0     		sub	sp, sp, #132
 3578              		.cfi_def_cfa_offset 168
 3579 0006 0190     		str	r0, [sp, #4]
 3580 0008 1F46     		mov	r7, r3
 3581 000a BDF8A8B0 		ldrh	fp, [sp, #168]
 3582 000e DDF8B080 		ldr	r8, [sp, #176]
 3583 0012 DDF8B4E0 		ldr	lr, [sp, #180]
 3584 0016 2E9C     		ldr	r4, [sp, #184]
 3585 0018 DDF8BCC0 		ldr	ip, [sp, #188]
 3586 001c DDF8C890 		ldr	r9, [sp, #200]
1143:Drivers/STM32F4xx_StdPeriph_Driver/src/stm32f4xx_cryp_aes.c ****   CRYP_InitTypeDef AES_CRYP_InitStructure;
 3587              		.loc 1 1143 3 is_stmt 1 view .LVU1395
1144:Drivers/STM32F4xx_StdPeriph_Driver/src/stm32f4xx_cryp_aes.c ****   CRYP_KeyInitTypeDef AES_CRYP_KeyInitStructure;
 3588              		.loc 1 1144 3 view .LVU1396
1145:Drivers/STM32F4xx_StdPeriph_Driver/src/stm32f4xx_cryp_aes.c ****   CRYP_IVInitTypeDef AES_CRYP_IVInitStructure;
 3589              		.loc 1 1145 3 view .LVU1397
1146:Drivers/STM32F4xx_StdPeriph_Driver/src/stm32f4xx_cryp_aes.c ****   __IO uint32_t counter = 0;
 3590              		.loc 1 1146 3 view .LVU1398
 3591              		.loc 1 1146 17 is_stmt 0 view .LVU1399
 3592 0020 0023     		movs	r3, #0
 3593              	.LVL525:
 3594              		.loc 1 1146 17 view .LVU1400
 3595 0022 0F93     		str	r3, [sp, #60]
1147:Drivers/STM32F4xx_StdPeriph_Driver/src/stm32f4xx_cryp_aes.c ****   uint32_t busystatus = 0;
 3596              		.loc 1 1147 3 is_stmt 1 view .LVU1401
 3597              	.LVL526:
1148:Drivers/STM32F4xx_StdPeriph_Driver/src/stm32f4xx_cryp_aes.c ****   ErrorStatus status = SUCCESS;
 3598              		.loc 1 1148 3 view .LVU1402
1149:Drivers/STM32F4xx_StdPeriph_Driver/src/stm32f4xx_cryp_aes.c ****   uint32_t keyaddr    = (uint32_t)Key;
 3599              		.loc 1 1149 3 view .LVU1403
1150:Drivers/STM32F4xx_StdPeriph_Driver/src/stm32f4xx_cryp_aes.c ****   uint32_t inputaddr  = (uint32_t)Input;
 3600              		.loc 1 1150 3 view .LVU1404
 3601              		.loc 1 1150 12 is_stmt 0 view .LVU1405
 3602 0024 2B9D     		ldr	r5, [sp, #172]
 3603              	.LVL527:
1151:Drivers/STM32F4xx_StdPeriph_Driver/src/stm32f4xx_cryp_aes.c ****   uint32_t outputaddr = (uint32_t)Output;
 3604              		.loc 1 1151 3 is_stmt 1 view .LVU1406
 3605              		.loc 1 1151 12 is_stmt 0 view .LVU1407
 3606 0026 DDF8C0A0 		ldr	r10, [sp, #192]
 3607              	.LVL528:
1152:Drivers/STM32F4xx_StdPeriph_Driver/src/stm32f4xx_cryp_aes.c ****   uint32_t headeraddr = (uint32_t)Header;
 3608              		.loc 1 1152 3 is_stmt 1 view .LVU1408
 3609              		.loc 1 1152 12 is_stmt 0 view .LVU1409
 3610 002a 7646     		mov	r6, lr
 3611              	.LVL529:
1153:Drivers/STM32F4xx_StdPeriph_Driver/src/stm32f4xx_cryp_aes.c ****   uint32_t tagaddr = (uint32_t)AuthTAG;
 3612              		.loc 1 1153 3 is_stmt 1 view .LVU1410
1154:Drivers/STM32F4xx_StdPeriph_Driver/src/stm32f4xx_cryp_aes.c ****   uint32_t headersize = HLength;
 3613              		.loc 1 1154 3 view .LVU1411
ARM GAS  /tmp/ccjGnpiF.s 			page 106


1155:Drivers/STM32F4xx_StdPeriph_Driver/src/stm32f4xx_cryp_aes.c ****   uint32_t loopcounter = 0;
 3614              		.loc 1 1155 3 view .LVU1412
1156:Drivers/STM32F4xx_StdPeriph_Driver/src/stm32f4xx_cryp_aes.c ****   uint32_t bufferidx = 0;
 3615              		.loc 1 1156 3 view .LVU1413
1157:Drivers/STM32F4xx_StdPeriph_Driver/src/stm32f4xx_cryp_aes.c ****   uint8_t blockb0[16] = {0};/* Block B0 */
 3616              		.loc 1 1157 3 view .LVU1414
 3617              		.loc 1 1157 11 is_stmt 0 view .LVU1415
 3618 002c 0B93     		str	r3, [sp, #44]
 3619 002e 0C93     		str	r3, [sp, #48]
 3620 0030 0D93     		str	r3, [sp, #52]
 3621 0032 0E93     		str	r3, [sp, #56]
1158:Drivers/STM32F4xx_StdPeriph_Driver/src/stm32f4xx_cryp_aes.c ****   uint8_t ctr[16] = {0}; /* Counter */
 3622              		.loc 1 1158 3 is_stmt 1 view .LVU1416
 3623              		.loc 1 1158 11 is_stmt 0 view .LVU1417
 3624 0034 0793     		str	r3, [sp, #28]
 3625 0036 0893     		str	r3, [sp, #32]
 3626 0038 0993     		str	r3, [sp, #36]
 3627 003a 0A93     		str	r3, [sp, #40]
1159:Drivers/STM32F4xx_StdPeriph_Driver/src/stm32f4xx_cryp_aes.c ****   uint32_t temptag[4] = {0}; /* temporary TAG (MAC) */
 3628              		.loc 1 1159 3 is_stmt 1 view .LVU1418
 3629              		.loc 1 1159 12 is_stmt 0 view .LVU1419
 3630 003c 0393     		str	r3, [sp, #12]
 3631 003e 0493     		str	r3, [sp, #16]
 3632 0040 0593     		str	r3, [sp, #20]
 3633 0042 0693     		str	r3, [sp, #24]
1160:Drivers/STM32F4xx_StdPeriph_Driver/src/stm32f4xx_cryp_aes.c ****   uint32_t ctraddr = (uint32_t)ctr;
 3634              		.loc 1 1160 3 is_stmt 1 view .LVU1420
 3635              	.LVL530:
1161:Drivers/STM32F4xx_StdPeriph_Driver/src/stm32f4xx_cryp_aes.c ****   uint32_t b0addr = (uint32_t)blockb0;
 3636              		.loc 1 1161 3 view .LVU1421
1162:Drivers/STM32F4xx_StdPeriph_Driver/src/stm32f4xx_cryp_aes.c ****   
1163:Drivers/STM32F4xx_StdPeriph_Driver/src/stm32f4xx_cryp_aes.c ****   /************************ Formatting the header block ***********************/
1164:Drivers/STM32F4xx_StdPeriph_Driver/src/stm32f4xx_cryp_aes.c ****   if(headersize != 0)
 3637              		.loc 1 1164 3 view .LVU1422
 3638              		.loc 1 1164 5 is_stmt 0 view .LVU1423
 3639 0044 54B3     		cbz	r4, .L105
1165:Drivers/STM32F4xx_StdPeriph_Driver/src/stm32f4xx_cryp_aes.c ****   {
1166:Drivers/STM32F4xx_StdPeriph_Driver/src/stm32f4xx_cryp_aes.c ****     /* Check that the associated data (or header) length is lower than 2^16 - 2^8 = 65536 - 256 = 6
1167:Drivers/STM32F4xx_StdPeriph_Driver/src/stm32f4xx_cryp_aes.c ****     if(headersize < 65280)
 3640              		.loc 1 1167 5 is_stmt 1 view .LVU1424
 3641              		.loc 1 1167 7 is_stmt 0 view .LVU1425
 3642 0046 B4F57F4F 		cmp	r4, #65280
 3643 004a 09D2     		bcs	.L106
1168:Drivers/STM32F4xx_StdPeriph_Driver/src/stm32f4xx_cryp_aes.c ****     {
1169:Drivers/STM32F4xx_StdPeriph_Driver/src/stm32f4xx_cryp_aes.c ****       HBuffer[bufferidx++] = (uint8_t) ((headersize >> 8) & 0xFF);
 3644              		.loc 1 1169 7 is_stmt 1 view .LVU1426
 3645              	.LVL531:
 3646              		.loc 1 1169 30 is_stmt 0 view .LVU1427
 3647 004c C4F30723 		ubfx	r3, r4, #8, #8
 3648              		.loc 1 1169 28 view .LVU1428
 3649 0050 8CF80030 		strb	r3, [ip]
1170:Drivers/STM32F4xx_StdPeriph_Driver/src/stm32f4xx_cryp_aes.c ****       HBuffer[bufferidx++] = (uint8_t) ((headersize) & 0xFF);
 3650              		.loc 1 1170 7 is_stmt 1 view .LVU1429
 3651              	.LVL532:
 3652              		.loc 1 1170 28 is_stmt 0 view .LVU1430
 3653 0054 8CF80140 		strb	r4, [ip, #1]
1171:Drivers/STM32F4xx_StdPeriph_Driver/src/stm32f4xx_cryp_aes.c ****       headersize += 2;
ARM GAS  /tmp/ccjGnpiF.s 			page 107


 3654              		.loc 1 1171 7 is_stmt 1 view .LVU1431
 3655              		.loc 1 1171 18 is_stmt 0 view .LVU1432
 3656 0058 0234     		adds	r4, r4, #2
 3657              	.LVL533:
1170:Drivers/STM32F4xx_StdPeriph_Driver/src/stm32f4xx_cryp_aes.c ****       HBuffer[bufferidx++] = (uint8_t) ((headersize) & 0xFF);
 3658              		.loc 1 1170 24 view .LVU1433
 3659 005a 0220     		movs	r0, #2
 3660              	.LVL534:
 3661              	.L107:
1172:Drivers/STM32F4xx_StdPeriph_Driver/src/stm32f4xx_cryp_aes.c ****     }
1173:Drivers/STM32F4xx_StdPeriph_Driver/src/stm32f4xx_cryp_aes.c ****     else
1174:Drivers/STM32F4xx_StdPeriph_Driver/src/stm32f4xx_cryp_aes.c ****     {
1175:Drivers/STM32F4xx_StdPeriph_Driver/src/stm32f4xx_cryp_aes.c ****       /* header is encoded as 0xff || 0xfe || [headersize]32, i.e., six octets */
1176:Drivers/STM32F4xx_StdPeriph_Driver/src/stm32f4xx_cryp_aes.c ****       HBuffer[bufferidx++] = 0xFF;
1177:Drivers/STM32F4xx_StdPeriph_Driver/src/stm32f4xx_cryp_aes.c ****       HBuffer[bufferidx++] = 0xFE;
1178:Drivers/STM32F4xx_StdPeriph_Driver/src/stm32f4xx_cryp_aes.c ****       HBuffer[bufferidx++] = headersize & 0xff000000;
1179:Drivers/STM32F4xx_StdPeriph_Driver/src/stm32f4xx_cryp_aes.c ****       HBuffer[bufferidx++] = headersize & 0x00ff0000;
1180:Drivers/STM32F4xx_StdPeriph_Driver/src/stm32f4xx_cryp_aes.c ****       HBuffer[bufferidx++] = headersize & 0x0000ff00;
1181:Drivers/STM32F4xx_StdPeriph_Driver/src/stm32f4xx_cryp_aes.c ****       HBuffer[bufferidx++] = headersize & 0x000000ff;
1182:Drivers/STM32F4xx_StdPeriph_Driver/src/stm32f4xx_cryp_aes.c ****       headersize += 6;
1183:Drivers/STM32F4xx_StdPeriph_Driver/src/stm32f4xx_cryp_aes.c ****     }
1184:Drivers/STM32F4xx_StdPeriph_Driver/src/stm32f4xx_cryp_aes.c ****     /* Copy the header buffer in internal buffer "HBuffer" */
1185:Drivers/STM32F4xx_StdPeriph_Driver/src/stm32f4xx_cryp_aes.c ****     for(loopcounter = 0; loopcounter < headersize; loopcounter++)
 3662              		.loc 1 1185 5 is_stmt 1 view .LVU1434
 3663              		.loc 1 1185 21 is_stmt 0 view .LVU1435
 3664 005c 0023     		movs	r3, #0
 3665              		.loc 1 1185 5 view .LVU1436
 3666 005e 17E0     		b	.L108
 3667              	.LVL535:
 3668              	.L106:
1176:Drivers/STM32F4xx_StdPeriph_Driver/src/stm32f4xx_cryp_aes.c ****       HBuffer[bufferidx++] = 0xFE;
 3669              		.loc 1 1176 7 is_stmt 1 view .LVU1437
1176:Drivers/STM32F4xx_StdPeriph_Driver/src/stm32f4xx_cryp_aes.c ****       HBuffer[bufferidx++] = 0xFE;
 3670              		.loc 1 1176 28 is_stmt 0 view .LVU1438
 3671 0060 FF23     		movs	r3, #255
 3672 0062 8CF80030 		strb	r3, [ip]
1177:Drivers/STM32F4xx_StdPeriph_Driver/src/stm32f4xx_cryp_aes.c ****       HBuffer[bufferidx++] = headersize & 0xff000000;
 3673              		.loc 1 1177 7 is_stmt 1 view .LVU1439
 3674              	.LVL536:
1177:Drivers/STM32F4xx_StdPeriph_Driver/src/stm32f4xx_cryp_aes.c ****       HBuffer[bufferidx++] = headersize & 0xff000000;
 3675              		.loc 1 1177 28 is_stmt 0 view .LVU1440
 3676 0066 FE23     		movs	r3, #254
 3677 0068 8CF80130 		strb	r3, [ip, #1]
1178:Drivers/STM32F4xx_StdPeriph_Driver/src/stm32f4xx_cryp_aes.c ****       HBuffer[bufferidx++] = headersize & 0x00ff0000;
 3678              		.loc 1 1178 7 is_stmt 1 view .LVU1441
 3679              	.LVL537:
1178:Drivers/STM32F4xx_StdPeriph_Driver/src/stm32f4xx_cryp_aes.c ****       HBuffer[bufferidx++] = headersize & 0x00ff0000;
 3680              		.loc 1 1178 28 is_stmt 0 view .LVU1442
 3681 006c 0023     		movs	r3, #0
 3682 006e 8CF80230 		strb	r3, [ip, #2]
1179:Drivers/STM32F4xx_StdPeriph_Driver/src/stm32f4xx_cryp_aes.c ****       HBuffer[bufferidx++] = headersize & 0x0000ff00;
 3683              		.loc 1 1179 7 is_stmt 1 view .LVU1443
 3684              	.LVL538:
1179:Drivers/STM32F4xx_StdPeriph_Driver/src/stm32f4xx_cryp_aes.c ****       HBuffer[bufferidx++] = headersize & 0x0000ff00;
 3685              		.loc 1 1179 28 is_stmt 0 view .LVU1444
 3686 0072 8CF80330 		strb	r3, [ip, #3]
1180:Drivers/STM32F4xx_StdPeriph_Driver/src/stm32f4xx_cryp_aes.c ****       HBuffer[bufferidx++] = headersize & 0x000000ff;
ARM GAS  /tmp/ccjGnpiF.s 			page 108


 3687              		.loc 1 1180 7 is_stmt 1 view .LVU1445
 3688              	.LVL539:
1180:Drivers/STM32F4xx_StdPeriph_Driver/src/stm32f4xx_cryp_aes.c ****       HBuffer[bufferidx++] = headersize & 0x000000ff;
 3689              		.loc 1 1180 28 is_stmt 0 view .LVU1446
 3690 0076 8CF80430 		strb	r3, [ip, #4]
1181:Drivers/STM32F4xx_StdPeriph_Driver/src/stm32f4xx_cryp_aes.c ****       headersize += 6;
 3691              		.loc 1 1181 7 is_stmt 1 view .LVU1447
 3692              	.LVL540:
1181:Drivers/STM32F4xx_StdPeriph_Driver/src/stm32f4xx_cryp_aes.c ****       headersize += 6;
 3693              		.loc 1 1181 28 is_stmt 0 view .LVU1448
 3694 007a 8CF80540 		strb	r4, [ip, #5]
1182:Drivers/STM32F4xx_StdPeriph_Driver/src/stm32f4xx_cryp_aes.c ****     }
 3695              		.loc 1 1182 7 is_stmt 1 view .LVU1449
1182:Drivers/STM32F4xx_StdPeriph_Driver/src/stm32f4xx_cryp_aes.c ****     }
 3696              		.loc 1 1182 18 is_stmt 0 view .LVU1450
 3697 007e 0634     		adds	r4, r4, #6
 3698              	.LVL541:
1181:Drivers/STM32F4xx_StdPeriph_Driver/src/stm32f4xx_cryp_aes.c ****       headersize += 6;
 3699              		.loc 1 1181 24 view .LVU1451
 3700 0080 0620     		movs	r0, #6
 3701              	.LVL542:
1181:Drivers/STM32F4xx_StdPeriph_Driver/src/stm32f4xx_cryp_aes.c ****       headersize += 6;
 3702              		.loc 1 1181 24 view .LVU1452
 3703 0082 EBE7     		b	.L107
 3704              	.LVL543:
 3705              	.L109:
1186:Drivers/STM32F4xx_StdPeriph_Driver/src/stm32f4xx_cryp_aes.c ****     {
1187:Drivers/STM32F4xx_StdPeriph_Driver/src/stm32f4xx_cryp_aes.c ****       HBuffer[bufferidx++] = Header[loopcounter];
 3706              		.loc 1 1187 7 is_stmt 1 discriminator 3 view .LVU1453
 3707              		.loc 1 1187 36 is_stmt 0 discriminator 3 view .LVU1454
 3708 0084 1EF80360 		ldrb	r6, [lr, r3]	@ zero_extendqisi2
 3709              		.loc 1 1187 28 discriminator 3 view .LVU1455
 3710 0088 0CF80060 		strb	r6, [ip, r0]
1185:Drivers/STM32F4xx_StdPeriph_Driver/src/stm32f4xx_cryp_aes.c ****     {
 3711              		.loc 1 1185 52 is_stmt 1 discriminator 3 view .LVU1456
1185:Drivers/STM32F4xx_StdPeriph_Driver/src/stm32f4xx_cryp_aes.c ****     {
 3712              		.loc 1 1185 63 is_stmt 0 discriminator 3 view .LVU1457
 3713 008c 0133     		adds	r3, r3, #1
 3714              	.LVL544:
 3715              		.loc 1 1187 24 discriminator 3 view .LVU1458
 3716 008e 0130     		adds	r0, r0, #1
 3717              	.LVL545:
 3718              	.L108:
1185:Drivers/STM32F4xx_StdPeriph_Driver/src/stm32f4xx_cryp_aes.c ****     {
 3719              		.loc 1 1185 26 is_stmt 1 discriminator 1 view .LVU1459
1185:Drivers/STM32F4xx_StdPeriph_Driver/src/stm32f4xx_cryp_aes.c ****     {
 3720              		.loc 1 1185 5 is_stmt 0 discriminator 1 view .LVU1460
 3721 0090 9C42     		cmp	r4, r3
 3722 0092 F7D8     		bhi	.L109
1188:Drivers/STM32F4xx_StdPeriph_Driver/src/stm32f4xx_cryp_aes.c ****     }
1189:Drivers/STM32F4xx_StdPeriph_Driver/src/stm32f4xx_cryp_aes.c ****     /* Check if the header size is modulo 16 */
1190:Drivers/STM32F4xx_StdPeriph_Driver/src/stm32f4xx_cryp_aes.c ****     if ((headersize % 16) != 0)
 3723              		.loc 1 1190 5 is_stmt 1 view .LVU1461
 3724              		.loc 1 1190 8 is_stmt 0 view .LVU1462
 3725 0094 14F00F0F 		tst	r4, #15
 3726 0098 25D1     		bne	.L156
 3727              	.LVL546:
ARM GAS  /tmp/ccjGnpiF.s 			page 109


 3728              	.L111:
1191:Drivers/STM32F4xx_StdPeriph_Driver/src/stm32f4xx_cryp_aes.c ****     {
1192:Drivers/STM32F4xx_StdPeriph_Driver/src/stm32f4xx_cryp_aes.c ****       /* Padd the header buffer with 0s till the HBuffer length is modulo 16 */
1193:Drivers/STM32F4xx_StdPeriph_Driver/src/stm32f4xx_cryp_aes.c ****       for(loopcounter = headersize; loopcounter <= ((headersize/16) + 1) * 16; loopcounter++)
1194:Drivers/STM32F4xx_StdPeriph_Driver/src/stm32f4xx_cryp_aes.c ****       {
1195:Drivers/STM32F4xx_StdPeriph_Driver/src/stm32f4xx_cryp_aes.c ****         HBuffer[loopcounter] = 0;
1196:Drivers/STM32F4xx_StdPeriph_Driver/src/stm32f4xx_cryp_aes.c ****       }
1197:Drivers/STM32F4xx_StdPeriph_Driver/src/stm32f4xx_cryp_aes.c ****       /* Set the header size to modulo 16 */
1198:Drivers/STM32F4xx_StdPeriph_Driver/src/stm32f4xx_cryp_aes.c ****       headersize = ((headersize/16) + 1) * 16;
1199:Drivers/STM32F4xx_StdPeriph_Driver/src/stm32f4xx_cryp_aes.c ****     }
1200:Drivers/STM32F4xx_StdPeriph_Driver/src/stm32f4xx_cryp_aes.c ****     /* set the pointer headeraddr to HBuffer */
1201:Drivers/STM32F4xx_StdPeriph_Driver/src/stm32f4xx_cryp_aes.c ****     headeraddr = (uint32_t)HBuffer;
 3729              		.loc 1 1201 5 is_stmt 1 view .LVU1463
 3730              		.loc 1 1201 16 is_stmt 0 view .LVU1464
 3731 009a 6646     		mov	r6, ip
 3732              	.LVL547:
 3733              	.L105:
1202:Drivers/STM32F4xx_StdPeriph_Driver/src/stm32f4xx_cryp_aes.c ****   }
1203:Drivers/STM32F4xx_StdPeriph_Driver/src/stm32f4xx_cryp_aes.c ****   /************************* Formatting the block B0 **************************/
1204:Drivers/STM32F4xx_StdPeriph_Driver/src/stm32f4xx_cryp_aes.c ****   if(headersize != 0)
 3734              		.loc 1 1204 3 is_stmt 1 view .LVU1465
 3735              		.loc 1 1204 5 is_stmt 0 view .LVU1466
 3736 009c 14B1     		cbz	r4, .L113
1205:Drivers/STM32F4xx_StdPeriph_Driver/src/stm32f4xx_cryp_aes.c ****   {
1206:Drivers/STM32F4xx_StdPeriph_Driver/src/stm32f4xx_cryp_aes.c ****     blockb0[0] = 0x40;
 3737              		.loc 1 1206 5 is_stmt 1 view .LVU1467
 3738              		.loc 1 1206 16 is_stmt 0 view .LVU1468
 3739 009e 4023     		movs	r3, #64
 3740 00a0 8DF82C30 		strb	r3, [sp, #44]
 3741              	.L113:
1207:Drivers/STM32F4xx_StdPeriph_Driver/src/stm32f4xx_cryp_aes.c ****   }
1208:Drivers/STM32F4xx_StdPeriph_Driver/src/stm32f4xx_cryp_aes.c ****   /* Flags byte */
1209:Drivers/STM32F4xx_StdPeriph_Driver/src/stm32f4xx_cryp_aes.c ****   blockb0[0] |= 0u | (((( (uint8_t) TAGSize - 2) / 2) & 0x07 ) << 3 ) | ( ( (uint8_t) (15 - NonceSi
 3742              		.loc 1 1209 3 is_stmt 1 view .LVU1469
 3743              		.loc 1 1209 27 is_stmt 0 view .LVU1470
 3744 00a4 5FFA89F3 		uxtb	r3, r9
 3745              		.loc 1 1209 45 view .LVU1471
 3746 00a8 023B     		subs	r3, r3, #2
 3747              		.loc 1 1209 50 view .LVU1472
 3748 00aa 03EBD373 		add	r3, r3, r3, lsr #31
 3749 00ae 5B10     		asrs	r3, r3, #1
 3750              		.loc 1 1209 64 view .LVU1473
 3751 00b0 DB00     		lsls	r3, r3, #3
 3752              		.loc 1 1209 20 view .LVU1474
 3753 00b2 03F03803 		and	r3, r3, #56
 3754              		.loc 1 1209 104 view .LVU1475
 3755 00b6 C2F10E00 		rsb	r0, r2, #14
 3756              		.loc 1 1209 109 view .LVU1476
 3757 00ba 00F00700 		and	r0, r0, #7
 3758              		.loc 1 1209 71 view .LVU1477
 3759 00be 0343     		orrs	r3, r3, r0
 3760              		.loc 1 1209 14 view .LVU1478
 3761 00c0 9DF82C00 		ldrb	r0, [sp, #44]	@ zero_extendqisi2
 3762 00c4 0343     		orrs	r3, r3, r0
 3763 00c6 8DF82C30 		strb	r3, [sp, #44]
1210:Drivers/STM32F4xx_StdPeriph_Driver/src/stm32f4xx_cryp_aes.c ****   
1211:Drivers/STM32F4xx_StdPeriph_Driver/src/stm32f4xx_cryp_aes.c ****   for (loopcounter = 0; loopcounter < NonceSize; loopcounter++)
ARM GAS  /tmp/ccjGnpiF.s 			page 110


 3764              		.loc 1 1211 3 is_stmt 1 view .LVU1479
 3765              	.LVL548:
 3766              		.loc 1 1211 20 is_stmt 0 view .LVU1480
 3767 00ca 0023     		movs	r3, #0
 3768              		.loc 1 1211 3 view .LVU1481
 3769 00cc 16E0     		b	.L114
 3770              	.LVL549:
 3771              	.L112:
1195:Drivers/STM32F4xx_StdPeriph_Driver/src/stm32f4xx_cryp_aes.c ****       }
 3772              		.loc 1 1195 9 is_stmt 1 discriminator 3 view .LVU1482
1195:Drivers/STM32F4xx_StdPeriph_Driver/src/stm32f4xx_cryp_aes.c ****       }
 3773              		.loc 1 1195 30 is_stmt 0 discriminator 3 view .LVU1483
 3774 00ce 0023     		movs	r3, #0
 3775 00d0 0CF80030 		strb	r3, [ip, r0]
1193:Drivers/STM32F4xx_StdPeriph_Driver/src/stm32f4xx_cryp_aes.c ****       {
 3776              		.loc 1 1193 80 is_stmt 1 discriminator 3 view .LVU1484
1193:Drivers/STM32F4xx_StdPeriph_Driver/src/stm32f4xx_cryp_aes.c ****       {
 3777              		.loc 1 1193 91 is_stmt 0 discriminator 3 view .LVU1485
 3778 00d4 0130     		adds	r0, r0, #1
 3779              	.LVL550:
 3780              	.L110:
1193:Drivers/STM32F4xx_StdPeriph_Driver/src/stm32f4xx_cryp_aes.c ****       {
 3781              		.loc 1 1193 37 is_stmt 1 discriminator 1 view .LVU1486
1193:Drivers/STM32F4xx_StdPeriph_Driver/src/stm32f4xx_cryp_aes.c ****       {
 3782              		.loc 1 1193 64 is_stmt 0 discriminator 1 view .LVU1487
 3783 00d6 2309     		lsrs	r3, r4, #4
1193:Drivers/STM32F4xx_StdPeriph_Driver/src/stm32f4xx_cryp_aes.c ****       {
 3784              		.loc 1 1193 69 discriminator 1 view .LVU1488
 3785 00d8 0133     		adds	r3, r3, #1
1193:Drivers/STM32F4xx_StdPeriph_Driver/src/stm32f4xx_cryp_aes.c ****       {
 3786              		.loc 1 1193 74 discriminator 1 view .LVU1489
 3787 00da 1E01     		lsls	r6, r3, #4
1193:Drivers/STM32F4xx_StdPeriph_Driver/src/stm32f4xx_cryp_aes.c ****       {
 3788              		.loc 1 1193 7 discriminator 1 view .LVU1490
 3789 00dc B0EB031F 		cmp	r0, r3, lsl #4
 3790 00e0 F5D9     		bls	.L112
1198:Drivers/STM32F4xx_StdPeriph_Driver/src/stm32f4xx_cryp_aes.c ****     }
 3791              		.loc 1 1198 18 view .LVU1491
 3792 00e2 3446     		mov	r4, r6
 3793              	.LVL551:
1198:Drivers/STM32F4xx_StdPeriph_Driver/src/stm32f4xx_cryp_aes.c ****     }
 3794              		.loc 1 1198 18 view .LVU1492
 3795 00e4 D9E7     		b	.L111
 3796              	.LVL552:
 3797              	.L156:
1193:Drivers/STM32F4xx_StdPeriph_Driver/src/stm32f4xx_cryp_aes.c ****       {
 3798              		.loc 1 1193 23 view .LVU1493
 3799 00e6 2046     		mov	r0, r4
 3800              	.LVL553:
1193:Drivers/STM32F4xx_StdPeriph_Driver/src/stm32f4xx_cryp_aes.c ****       {
 3801              		.loc 1 1193 23 view .LVU1494
 3802 00e8 F5E7     		b	.L110
 3803              	.LVL554:
 3804              	.L115:
1212:Drivers/STM32F4xx_StdPeriph_Driver/src/stm32f4xx_cryp_aes.c ****   {
1213:Drivers/STM32F4xx_StdPeriph_Driver/src/stm32f4xx_cryp_aes.c ****     blockb0[loopcounter+1] = Nonce[loopcounter];
 3805              		.loc 1 1213 5 is_stmt 1 discriminator 3 view .LVU1495
ARM GAS  /tmp/ccjGnpiF.s 			page 111


 3806              		.loc 1 1213 35 is_stmt 0 discriminator 3 view .LVU1496
 3807 00ea C818     		adds	r0, r1, r3
 3808              		.loc 1 1213 24 discriminator 3 view .LVU1497
 3809 00ec 0133     		adds	r3, r3, #1
 3810              	.LVL555:
 3811              		.loc 1 1213 35 discriminator 3 view .LVU1498
 3812 00ee 90F800C0 		ldrb	ip, [r0]	@ zero_extendqisi2
 3813              		.loc 1 1213 28 discriminator 3 view .LVU1499
 3814 00f2 03F18000 		add	r0, r3, #128
 3815 00f6 6844     		add	r0, sp, r0
 3816 00f8 00F854CC 		strb	ip, [r0, #-84]
1211:Drivers/STM32F4xx_StdPeriph_Driver/src/stm32f4xx_cryp_aes.c ****   {
 3817              		.loc 1 1211 50 is_stmt 1 discriminator 3 view .LVU1500
 3818              	.LVL556:
 3819              	.L114:
1211:Drivers/STM32F4xx_StdPeriph_Driver/src/stm32f4xx_cryp_aes.c ****   {
 3820              		.loc 1 1211 25 discriminator 1 view .LVU1501
1211:Drivers/STM32F4xx_StdPeriph_Driver/src/stm32f4xx_cryp_aes.c ****   {
 3821              		.loc 1 1211 3 is_stmt 0 discriminator 1 view .LVU1502
 3822 00fc 9342     		cmp	r3, r2
 3823 00fe F4D3     		bcc	.L115
 3824 0100 06E0     		b	.L116
 3825              	.LVL557:
 3826              	.L117:
1214:Drivers/STM32F4xx_StdPeriph_Driver/src/stm32f4xx_cryp_aes.c ****   }
1215:Drivers/STM32F4xx_StdPeriph_Driver/src/stm32f4xx_cryp_aes.c ****   for ( ; loopcounter < 13; loopcounter++)
1216:Drivers/STM32F4xx_StdPeriph_Driver/src/stm32f4xx_cryp_aes.c ****   {
1217:Drivers/STM32F4xx_StdPeriph_Driver/src/stm32f4xx_cryp_aes.c ****     blockb0[loopcounter+1] = 0;
 3827              		.loc 1 1217 5 is_stmt 1 discriminator 2 view .LVU1503
 3828              		.loc 1 1217 24 is_stmt 0 discriminator 2 view .LVU1504
 3829 0102 0133     		adds	r3, r3, #1
 3830              	.LVL558:
 3831              		.loc 1 1217 28 discriminator 2 view .LVU1505
 3832 0104 03F18001 		add	r1, r3, #128
 3833 0108 6944     		add	r1, sp, r1
 3834 010a 0020     		movs	r0, #0
 3835 010c 01F8540C 		strb	r0, [r1, #-84]
1215:Drivers/STM32F4xx_StdPeriph_Driver/src/stm32f4xx_cryp_aes.c ****   {
 3836              		.loc 1 1215 29 is_stmt 1 discriminator 2 view .LVU1506
 3837              	.LVL559:
 3838              	.L116:
1215:Drivers/STM32F4xx_StdPeriph_Driver/src/stm32f4xx_cryp_aes.c ****   {
 3839              		.loc 1 1215 11 discriminator 1 view .LVU1507
1215:Drivers/STM32F4xx_StdPeriph_Driver/src/stm32f4xx_cryp_aes.c ****   {
 3840              		.loc 1 1215 3 is_stmt 0 discriminator 1 view .LVU1508
 3841 0110 0C2B     		cmp	r3, #12
 3842 0112 F6D9     		bls	.L117
1218:Drivers/STM32F4xx_StdPeriph_Driver/src/stm32f4xx_cryp_aes.c ****   }
1219:Drivers/STM32F4xx_StdPeriph_Driver/src/stm32f4xx_cryp_aes.c ****   
1220:Drivers/STM32F4xx_StdPeriph_Driver/src/stm32f4xx_cryp_aes.c ****   blockb0[14] = ((ILength >> 8) & 0xFF);
 3843              		.loc 1 1220 3 is_stmt 1 view .LVU1509
 3844              		.loc 1 1220 27 is_stmt 0 view .LVU1510
 3845 0114 4FEA1823 		lsr	r3, r8, #8
 3846              	.LVL560:
 3847              		.loc 1 1220 15 view .LVU1511
 3848 0118 8DF83A30 		strb	r3, [sp, #58]
1221:Drivers/STM32F4xx_StdPeriph_Driver/src/stm32f4xx_cryp_aes.c ****   blockb0[15] = (ILength & 0xFF);
ARM GAS  /tmp/ccjGnpiF.s 			page 112


 3849              		.loc 1 1221 3 is_stmt 1 view .LVU1512
 3850              		.loc 1 1221 15 is_stmt 0 view .LVU1513
 3851 011c 8DF83B80 		strb	r8, [sp, #59]
1222:Drivers/STM32F4xx_StdPeriph_Driver/src/stm32f4xx_cryp_aes.c ****   
1223:Drivers/STM32F4xx_StdPeriph_Driver/src/stm32f4xx_cryp_aes.c ****   /************************* Formatting the initial counter *******************/
1224:Drivers/STM32F4xx_StdPeriph_Driver/src/stm32f4xx_cryp_aes.c ****   /* Byte 0:
1225:Drivers/STM32F4xx_StdPeriph_Driver/src/stm32f4xx_cryp_aes.c ****      Bits 7 and 6 are reserved and shall be set to 0
1226:Drivers/STM32F4xx_StdPeriph_Driver/src/stm32f4xx_cryp_aes.c ****      Bits 3, 4, and 5 shall also be set to 0, to ensure that all the counter blocks
1227:Drivers/STM32F4xx_StdPeriph_Driver/src/stm32f4xx_cryp_aes.c ****      are distinct from B0
1228:Drivers/STM32F4xx_StdPeriph_Driver/src/stm32f4xx_cryp_aes.c ****      Bits 0, 1, and 2 contain the same encoding of q as in B0
1229:Drivers/STM32F4xx_StdPeriph_Driver/src/stm32f4xx_cryp_aes.c ****   */
1230:Drivers/STM32F4xx_StdPeriph_Driver/src/stm32f4xx_cryp_aes.c ****   ctr[0] = blockb0[0] & 0x07;
 3852              		.loc 1 1230 3 is_stmt 1 view .LVU1514
 3853              		.loc 1 1230 19 is_stmt 0 view .LVU1515
 3854 0120 9DF82C30 		ldrb	r3, [sp, #44]	@ zero_extendqisi2
 3855              		.loc 1 1230 23 view .LVU1516
 3856 0124 03F00703 		and	r3, r3, #7
 3857              		.loc 1 1230 10 view .LVU1517
 3858 0128 8DF81C30 		strb	r3, [sp, #28]
1231:Drivers/STM32F4xx_StdPeriph_Driver/src/stm32f4xx_cryp_aes.c ****   /* byte 1 to NonceSize is the IV (Nonce) */
1232:Drivers/STM32F4xx_StdPeriph_Driver/src/stm32f4xx_cryp_aes.c ****   for(loopcounter = 1; loopcounter < NonceSize + 1; loopcounter++)
 3859              		.loc 1 1232 3 is_stmt 1 view .LVU1518
 3860              	.LVL561:
 3861              		.loc 1 1232 19 is_stmt 0 view .LVU1519
 3862 012c 0123     		movs	r3, #1
 3863              		.loc 1 1232 3 view .LVU1520
 3864 012e 07E0     		b	.L118
 3865              	.LVL562:
 3866              	.L119:
1233:Drivers/STM32F4xx_StdPeriph_Driver/src/stm32f4xx_cryp_aes.c ****   {
1234:Drivers/STM32F4xx_StdPeriph_Driver/src/stm32f4xx_cryp_aes.c ****     ctr[loopcounter] = blockb0[loopcounter];
 3867              		.loc 1 1234 5 is_stmt 1 discriminator 3 view .LVU1521
 3868              		.loc 1 1234 31 is_stmt 0 discriminator 3 view .LVU1522
 3869 0130 03F18001 		add	r1, r3, #128
 3870 0134 6944     		add	r1, sp, r1
 3871 0136 11F8540C 		ldrb	r0, [r1, #-84]	@ zero_extendqisi2
 3872              		.loc 1 1234 22 discriminator 3 view .LVU1523
 3873 013a 01F8640C 		strb	r0, [r1, #-100]
1232:Drivers/STM32F4xx_StdPeriph_Driver/src/stm32f4xx_cryp_aes.c ****   {
 3874              		.loc 1 1232 53 is_stmt 1 discriminator 3 view .LVU1524
1232:Drivers/STM32F4xx_StdPeriph_Driver/src/stm32f4xx_cryp_aes.c ****   {
 3875              		.loc 1 1232 64 is_stmt 0 discriminator 3 view .LVU1525
 3876 013e 0133     		adds	r3, r3, #1
 3877              	.LVL563:
 3878              	.L118:
1232:Drivers/STM32F4xx_StdPeriph_Driver/src/stm32f4xx_cryp_aes.c ****   {
 3879              		.loc 1 1232 24 is_stmt 1 discriminator 1 view .LVU1526
1232:Drivers/STM32F4xx_StdPeriph_Driver/src/stm32f4xx_cryp_aes.c ****   {
 3880              		.loc 1 1232 48 is_stmt 0 discriminator 1 view .LVU1527
 3881 0140 511C     		adds	r1, r2, #1
1232:Drivers/STM32F4xx_StdPeriph_Driver/src/stm32f4xx_cryp_aes.c ****   {
 3882              		.loc 1 1232 3 discriminator 1 view .LVU1528
 3883 0142 9942     		cmp	r1, r3
 3884 0144 F4D8     		bhi	.L119
1235:Drivers/STM32F4xx_StdPeriph_Driver/src/stm32f4xx_cryp_aes.c ****   }
1236:Drivers/STM32F4xx_StdPeriph_Driver/src/stm32f4xx_cryp_aes.c ****   /* Set the LSB to 1 */
1237:Drivers/STM32F4xx_StdPeriph_Driver/src/stm32f4xx_cryp_aes.c ****   ctr[15] |= 0x01;
ARM GAS  /tmp/ccjGnpiF.s 			page 113


 3885              		.loc 1 1237 3 is_stmt 1 view .LVU1529
 3886              		.loc 1 1237 11 is_stmt 0 view .LVU1530
 3887 0146 9DF82B30 		ldrb	r3, [sp, #43]	@ zero_extendqisi2
 3888              	.LVL564:
 3889              		.loc 1 1237 11 view .LVU1531
 3890 014a 43F00103 		orr	r3, r3, #1
 3891 014e 8DF82B30 		strb	r3, [sp, #43]
1238:Drivers/STM32F4xx_StdPeriph_Driver/src/stm32f4xx_cryp_aes.c ****   
1239:Drivers/STM32F4xx_StdPeriph_Driver/src/stm32f4xx_cryp_aes.c ****   /* Crypto structures initialisation*/
1240:Drivers/STM32F4xx_StdPeriph_Driver/src/stm32f4xx_cryp_aes.c ****   CRYP_KeyStructInit(&AES_CRYP_KeyInitStructure);
 3892              		.loc 1 1240 3 is_stmt 1 view .LVU1532
 3893 0152 14A8     		add	r0, sp, #80
 3894 0154 FFF7FEFF 		bl	CRYP_KeyStructInit
 3895              	.LVL565:
1241:Drivers/STM32F4xx_StdPeriph_Driver/src/stm32f4xx_cryp_aes.c ****   
1242:Drivers/STM32F4xx_StdPeriph_Driver/src/stm32f4xx_cryp_aes.c ****   switch(Keysize)
 3896              		.loc 1 1242 3 view .LVU1533
 3897 0158 BBF1C00F 		cmp	fp, #192
 3898 015c 62D0     		beq	.L120
 3899 015e BBF5807F 		cmp	fp, #256
 3900 0162 75D0     		beq	.L121
 3901 0164 BBF1800F 		cmp	fp, #128
 3902 0168 4DD0     		beq	.L165
 3903              	.LVL566:
 3904              	.L122:
1243:Drivers/STM32F4xx_StdPeriph_Driver/src/stm32f4xx_cryp_aes.c ****   {
1244:Drivers/STM32F4xx_StdPeriph_Driver/src/stm32f4xx_cryp_aes.c ****     case 128:
1245:Drivers/STM32F4xx_StdPeriph_Driver/src/stm32f4xx_cryp_aes.c ****     AES_CRYP_InitStructure.CRYP_KeySize = CRYP_KeySize_128b;
1246:Drivers/STM32F4xx_StdPeriph_Driver/src/stm32f4xx_cryp_aes.c ****     AES_CRYP_KeyInitStructure.CRYP_Key2Left = __REV(*(uint32_t*)(keyaddr));
1247:Drivers/STM32F4xx_StdPeriph_Driver/src/stm32f4xx_cryp_aes.c ****     keyaddr+=4;
1248:Drivers/STM32F4xx_StdPeriph_Driver/src/stm32f4xx_cryp_aes.c ****     AES_CRYP_KeyInitStructure.CRYP_Key2Right= __REV(*(uint32_t*)(keyaddr));
1249:Drivers/STM32F4xx_StdPeriph_Driver/src/stm32f4xx_cryp_aes.c ****     keyaddr+=4;
1250:Drivers/STM32F4xx_StdPeriph_Driver/src/stm32f4xx_cryp_aes.c ****     AES_CRYP_KeyInitStructure.CRYP_Key3Left = __REV(*(uint32_t*)(keyaddr));
1251:Drivers/STM32F4xx_StdPeriph_Driver/src/stm32f4xx_cryp_aes.c ****     keyaddr+=4;
1252:Drivers/STM32F4xx_StdPeriph_Driver/src/stm32f4xx_cryp_aes.c ****     AES_CRYP_KeyInitStructure.CRYP_Key3Right= __REV(*(uint32_t*)(keyaddr));
1253:Drivers/STM32F4xx_StdPeriph_Driver/src/stm32f4xx_cryp_aes.c ****     break;
1254:Drivers/STM32F4xx_StdPeriph_Driver/src/stm32f4xx_cryp_aes.c ****     case 192:
1255:Drivers/STM32F4xx_StdPeriph_Driver/src/stm32f4xx_cryp_aes.c ****     AES_CRYP_InitStructure.CRYP_KeySize  = CRYP_KeySize_192b;
1256:Drivers/STM32F4xx_StdPeriph_Driver/src/stm32f4xx_cryp_aes.c ****     AES_CRYP_KeyInitStructure.CRYP_Key1Left = __REV(*(uint32_t*)(keyaddr));
1257:Drivers/STM32F4xx_StdPeriph_Driver/src/stm32f4xx_cryp_aes.c ****     keyaddr+=4;
1258:Drivers/STM32F4xx_StdPeriph_Driver/src/stm32f4xx_cryp_aes.c ****     AES_CRYP_KeyInitStructure.CRYP_Key1Right= __REV(*(uint32_t*)(keyaddr));
1259:Drivers/STM32F4xx_StdPeriph_Driver/src/stm32f4xx_cryp_aes.c ****     keyaddr+=4;
1260:Drivers/STM32F4xx_StdPeriph_Driver/src/stm32f4xx_cryp_aes.c ****     AES_CRYP_KeyInitStructure.CRYP_Key2Left = __REV(*(uint32_t*)(keyaddr));
1261:Drivers/STM32F4xx_StdPeriph_Driver/src/stm32f4xx_cryp_aes.c ****     keyaddr+=4;
1262:Drivers/STM32F4xx_StdPeriph_Driver/src/stm32f4xx_cryp_aes.c ****     AES_CRYP_KeyInitStructure.CRYP_Key2Right= __REV(*(uint32_t*)(keyaddr));
1263:Drivers/STM32F4xx_StdPeriph_Driver/src/stm32f4xx_cryp_aes.c ****     keyaddr+=4;
1264:Drivers/STM32F4xx_StdPeriph_Driver/src/stm32f4xx_cryp_aes.c ****     AES_CRYP_KeyInitStructure.CRYP_Key3Left = __REV(*(uint32_t*)(keyaddr));
1265:Drivers/STM32F4xx_StdPeriph_Driver/src/stm32f4xx_cryp_aes.c ****     keyaddr+=4;
1266:Drivers/STM32F4xx_StdPeriph_Driver/src/stm32f4xx_cryp_aes.c ****     AES_CRYP_KeyInitStructure.CRYP_Key3Right= __REV(*(uint32_t*)(keyaddr));
1267:Drivers/STM32F4xx_StdPeriph_Driver/src/stm32f4xx_cryp_aes.c ****     break;
1268:Drivers/STM32F4xx_StdPeriph_Driver/src/stm32f4xx_cryp_aes.c ****     case 256:
1269:Drivers/STM32F4xx_StdPeriph_Driver/src/stm32f4xx_cryp_aes.c ****     AES_CRYP_InitStructure.CRYP_KeySize  = CRYP_KeySize_256b;
1270:Drivers/STM32F4xx_StdPeriph_Driver/src/stm32f4xx_cryp_aes.c ****     AES_CRYP_KeyInitStructure.CRYP_Key0Left = __REV(*(uint32_t*)(keyaddr));
1271:Drivers/STM32F4xx_StdPeriph_Driver/src/stm32f4xx_cryp_aes.c ****     keyaddr+=4;
1272:Drivers/STM32F4xx_StdPeriph_Driver/src/stm32f4xx_cryp_aes.c ****     AES_CRYP_KeyInitStructure.CRYP_Key0Right= __REV(*(uint32_t*)(keyaddr));
1273:Drivers/STM32F4xx_StdPeriph_Driver/src/stm32f4xx_cryp_aes.c ****     keyaddr+=4;
1274:Drivers/STM32F4xx_StdPeriph_Driver/src/stm32f4xx_cryp_aes.c ****     AES_CRYP_KeyInitStructure.CRYP_Key1Left = __REV(*(uint32_t*)(keyaddr));
ARM GAS  /tmp/ccjGnpiF.s 			page 114


1275:Drivers/STM32F4xx_StdPeriph_Driver/src/stm32f4xx_cryp_aes.c ****     keyaddr+=4;
1276:Drivers/STM32F4xx_StdPeriph_Driver/src/stm32f4xx_cryp_aes.c ****     AES_CRYP_KeyInitStructure.CRYP_Key1Right= __REV(*(uint32_t*)(keyaddr));
1277:Drivers/STM32F4xx_StdPeriph_Driver/src/stm32f4xx_cryp_aes.c ****     keyaddr+=4;
1278:Drivers/STM32F4xx_StdPeriph_Driver/src/stm32f4xx_cryp_aes.c ****     AES_CRYP_KeyInitStructure.CRYP_Key2Left = __REV(*(uint32_t*)(keyaddr));
1279:Drivers/STM32F4xx_StdPeriph_Driver/src/stm32f4xx_cryp_aes.c ****     keyaddr+=4;
1280:Drivers/STM32F4xx_StdPeriph_Driver/src/stm32f4xx_cryp_aes.c ****     AES_CRYP_KeyInitStructure.CRYP_Key2Right= __REV(*(uint32_t*)(keyaddr));
1281:Drivers/STM32F4xx_StdPeriph_Driver/src/stm32f4xx_cryp_aes.c ****     keyaddr+=4;
1282:Drivers/STM32F4xx_StdPeriph_Driver/src/stm32f4xx_cryp_aes.c ****     AES_CRYP_KeyInitStructure.CRYP_Key3Left = __REV(*(uint32_t*)(keyaddr));
1283:Drivers/STM32F4xx_StdPeriph_Driver/src/stm32f4xx_cryp_aes.c ****     keyaddr+=4;
1284:Drivers/STM32F4xx_StdPeriph_Driver/src/stm32f4xx_cryp_aes.c ****     AES_CRYP_KeyInitStructure.CRYP_Key3Right= __REV(*(uint32_t*)(keyaddr));
1285:Drivers/STM32F4xx_StdPeriph_Driver/src/stm32f4xx_cryp_aes.c ****     break;
1286:Drivers/STM32F4xx_StdPeriph_Driver/src/stm32f4xx_cryp_aes.c ****     default:
1287:Drivers/STM32F4xx_StdPeriph_Driver/src/stm32f4xx_cryp_aes.c ****     break;
1288:Drivers/STM32F4xx_StdPeriph_Driver/src/stm32f4xx_cryp_aes.c ****   }
1289:Drivers/STM32F4xx_StdPeriph_Driver/src/stm32f4xx_cryp_aes.c ****   
1290:Drivers/STM32F4xx_StdPeriph_Driver/src/stm32f4xx_cryp_aes.c ****   /* CRYP Initialization Vectors */
1291:Drivers/STM32F4xx_StdPeriph_Driver/src/stm32f4xx_cryp_aes.c ****   AES_CRYP_IVInitStructure.CRYP_IV0Left = (__REV(*(uint32_t*)(ctraddr)));
 3905              		.loc 1 1291 3 view .LVU1534
 3906              		.loc 1 1291 44 is_stmt 0 view .LVU1535
 3907 016a 079B     		ldr	r3, [sp, #28]
 3908              	.LVL567:
 3909              	.LBB414:
 3910              	.LBI414:
 495:Drivers/CMSIS/Include/core_cmInstr.h **** {
 3911              		.loc 2 495 57 is_stmt 1 view .LVU1536
 3912              	.LBB415:
 3913              		.loc 2 498 3 view .LVU1537
 3914              		.loc 2 498 10 is_stmt 0 view .LVU1538
 3915 016c 1BBA     		rev	r3, r3
 3916              	.LVL568:
 3917              		.loc 2 498 10 view .LVU1539
 3918              	.LBE415:
 3919              	.LBE414:
 3920              		.loc 1 1291 41 view .LVU1540
 3921 016e 1093     		str	r3, [sp, #64]
1292:Drivers/STM32F4xx_StdPeriph_Driver/src/stm32f4xx_cryp_aes.c ****   ctraddr+=4;
 3922              		.loc 1 1292 3 is_stmt 1 view .LVU1541
 3923              	.LVL569:
1293:Drivers/STM32F4xx_StdPeriph_Driver/src/stm32f4xx_cryp_aes.c ****   AES_CRYP_IVInitStructure.CRYP_IV0Right= (__REV(*(uint32_t*)(ctraddr)));
 3924              		.loc 1 1293 3 view .LVU1542
 3925              		.loc 1 1293 44 is_stmt 0 view .LVU1543
 3926 0170 089B     		ldr	r3, [sp, #32]
 3927              	.LVL570:
 3928              	.LBB416:
 3929              	.LBI416:
 495:Drivers/CMSIS/Include/core_cmInstr.h **** {
 3930              		.loc 2 495 57 is_stmt 1 view .LVU1544
 3931              	.LBB417:
 3932              		.loc 2 498 3 view .LVU1545
 3933              		.loc 2 498 10 is_stmt 0 view .LVU1546
 3934 0172 1BBA     		rev	r3, r3
 3935              	.LVL571:
 3936              		.loc 2 498 10 view .LVU1547
 3937              	.LBE417:
 3938              	.LBE416:
 3939              		.loc 1 1293 41 view .LVU1548
 3940 0174 1193     		str	r3, [sp, #68]
ARM GAS  /tmp/ccjGnpiF.s 			page 115


1294:Drivers/STM32F4xx_StdPeriph_Driver/src/stm32f4xx_cryp_aes.c ****   ctraddr+=4;
 3941              		.loc 1 1294 3 is_stmt 1 view .LVU1549
 3942              	.LVL572:
1295:Drivers/STM32F4xx_StdPeriph_Driver/src/stm32f4xx_cryp_aes.c ****   AES_CRYP_IVInitStructure.CRYP_IV1Left = (__REV(*(uint32_t*)(ctraddr)));
 3943              		.loc 1 1295 3 view .LVU1550
 3944              		.loc 1 1295 44 is_stmt 0 view .LVU1551
 3945 0176 099B     		ldr	r3, [sp, #36]
 3946              	.LVL573:
 3947              	.LBB418:
 3948              	.LBI418:
 495:Drivers/CMSIS/Include/core_cmInstr.h **** {
 3949              		.loc 2 495 57 is_stmt 1 view .LVU1552
 3950              	.LBB419:
 3951              		.loc 2 498 3 view .LVU1553
 3952              		.loc 2 498 10 is_stmt 0 view .LVU1554
 3953 0178 1BBA     		rev	r3, r3
 3954              	.LVL574:
 3955              		.loc 2 498 10 view .LVU1555
 3956              	.LBE419:
 3957              	.LBE418:
 3958              		.loc 1 1295 41 view .LVU1556
 3959 017a 1293     		str	r3, [sp, #72]
1296:Drivers/STM32F4xx_StdPeriph_Driver/src/stm32f4xx_cryp_aes.c ****   ctraddr+=4;
 3960              		.loc 1 1296 3 is_stmt 1 view .LVU1557
 3961              	.LVL575:
1297:Drivers/STM32F4xx_StdPeriph_Driver/src/stm32f4xx_cryp_aes.c ****   AES_CRYP_IVInitStructure.CRYP_IV1Right= (__REV(*(uint32_t*)(ctraddr)));
 3962              		.loc 1 1297 3 view .LVU1558
 3963              		.loc 1 1297 44 is_stmt 0 view .LVU1559
 3964 017c 0A9B     		ldr	r3, [sp, #40]
 3965              	.LVL576:
 3966              	.LBB420:
 3967              	.LBI420:
 495:Drivers/CMSIS/Include/core_cmInstr.h **** {
 3968              		.loc 2 495 57 is_stmt 1 view .LVU1560
 3969              	.LBB421:
 3970              		.loc 2 498 3 view .LVU1561
 3971              		.loc 2 498 10 is_stmt 0 view .LVU1562
 3972 017e 1BBA     		rev	r3, r3
 3973              	.LVL577:
 3974              		.loc 2 498 10 view .LVU1563
 3975              	.LBE421:
 3976              	.LBE420:
 3977              		.loc 1 1297 41 view .LVU1564
 3978 0180 1393     		str	r3, [sp, #76]
1298:Drivers/STM32F4xx_StdPeriph_Driver/src/stm32f4xx_cryp_aes.c ****   
1299:Drivers/STM32F4xx_StdPeriph_Driver/src/stm32f4xx_cryp_aes.c ****   /*------------------ AES Encryption ------------------*/
1300:Drivers/STM32F4xx_StdPeriph_Driver/src/stm32f4xx_cryp_aes.c ****   if(Mode == MODE_ENCRYPT) /* AES encryption */
 3979              		.loc 1 1300 3 is_stmt 1 view .LVU1565
 3980              		.loc 1 1300 5 is_stmt 0 view .LVU1566
 3981 0182 019B     		ldr	r3, [sp, #4]
 3982 0184 012B     		cmp	r3, #1
 3983 0186 7FD0     		beq	.L166
1301:Drivers/STM32F4xx_StdPeriph_Driver/src/stm32f4xx_cryp_aes.c ****   {
1302:Drivers/STM32F4xx_StdPeriph_Driver/src/stm32f4xx_cryp_aes.c ****     /* Flush IN/OUT FIFOs */
1303:Drivers/STM32F4xx_StdPeriph_Driver/src/stm32f4xx_cryp_aes.c ****     CRYP_FIFOFlush();
1304:Drivers/STM32F4xx_StdPeriph_Driver/src/stm32f4xx_cryp_aes.c ****     
1305:Drivers/STM32F4xx_StdPeriph_Driver/src/stm32f4xx_cryp_aes.c ****     /* Key Initialisation */
ARM GAS  /tmp/ccjGnpiF.s 			page 116


1306:Drivers/STM32F4xx_StdPeriph_Driver/src/stm32f4xx_cryp_aes.c ****     CRYP_KeyInit(&AES_CRYP_KeyInitStructure);
1307:Drivers/STM32F4xx_StdPeriph_Driver/src/stm32f4xx_cryp_aes.c ****     
1308:Drivers/STM32F4xx_StdPeriph_Driver/src/stm32f4xx_cryp_aes.c ****     /* CRYP Initialization Vectors */
1309:Drivers/STM32F4xx_StdPeriph_Driver/src/stm32f4xx_cryp_aes.c ****     CRYP_IVInit(&AES_CRYP_IVInitStructure);
1310:Drivers/STM32F4xx_StdPeriph_Driver/src/stm32f4xx_cryp_aes.c ****     
1311:Drivers/STM32F4xx_StdPeriph_Driver/src/stm32f4xx_cryp_aes.c ****     /* Crypto Init for Key preparation for decryption process */
1312:Drivers/STM32F4xx_StdPeriph_Driver/src/stm32f4xx_cryp_aes.c ****     AES_CRYP_InitStructure.CRYP_AlgoDir = CRYP_AlgoDir_Encrypt;
1313:Drivers/STM32F4xx_StdPeriph_Driver/src/stm32f4xx_cryp_aes.c ****     AES_CRYP_InitStructure.CRYP_AlgoMode = CRYP_AlgoMode_AES_CCM;
1314:Drivers/STM32F4xx_StdPeriph_Driver/src/stm32f4xx_cryp_aes.c ****     AES_CRYP_InitStructure.CRYP_DataType = CRYP_DataType_8b;
1315:Drivers/STM32F4xx_StdPeriph_Driver/src/stm32f4xx_cryp_aes.c ****     CRYP_Init(&AES_CRYP_InitStructure);
1316:Drivers/STM32F4xx_StdPeriph_Driver/src/stm32f4xx_cryp_aes.c ****     
1317:Drivers/STM32F4xx_StdPeriph_Driver/src/stm32f4xx_cryp_aes.c ****     /***************************** Init phase *********************************/
1318:Drivers/STM32F4xx_StdPeriph_Driver/src/stm32f4xx_cryp_aes.c ****     /* Select init phase */
1319:Drivers/STM32F4xx_StdPeriph_Driver/src/stm32f4xx_cryp_aes.c ****     CRYP_PhaseConfig(CRYP_Phase_Init);
1320:Drivers/STM32F4xx_StdPeriph_Driver/src/stm32f4xx_cryp_aes.c ****     
1321:Drivers/STM32F4xx_StdPeriph_Driver/src/stm32f4xx_cryp_aes.c ****     b0addr = (uint32_t)blockb0;
1322:Drivers/STM32F4xx_StdPeriph_Driver/src/stm32f4xx_cryp_aes.c ****     /* Write the blockb0 block in the IN FIFO */
1323:Drivers/STM32F4xx_StdPeriph_Driver/src/stm32f4xx_cryp_aes.c ****     CRYP_DataIn((*(uint32_t*)(b0addr)));
1324:Drivers/STM32F4xx_StdPeriph_Driver/src/stm32f4xx_cryp_aes.c ****     b0addr+=4;
1325:Drivers/STM32F4xx_StdPeriph_Driver/src/stm32f4xx_cryp_aes.c ****     CRYP_DataIn((*(uint32_t*)(b0addr)));
1326:Drivers/STM32F4xx_StdPeriph_Driver/src/stm32f4xx_cryp_aes.c ****     b0addr+=4;
1327:Drivers/STM32F4xx_StdPeriph_Driver/src/stm32f4xx_cryp_aes.c ****     CRYP_DataIn((*(uint32_t*)(b0addr)));
1328:Drivers/STM32F4xx_StdPeriph_Driver/src/stm32f4xx_cryp_aes.c ****     b0addr+=4;
1329:Drivers/STM32F4xx_StdPeriph_Driver/src/stm32f4xx_cryp_aes.c ****     CRYP_DataIn((*(uint32_t*)(b0addr)));
1330:Drivers/STM32F4xx_StdPeriph_Driver/src/stm32f4xx_cryp_aes.c ****     
1331:Drivers/STM32F4xx_StdPeriph_Driver/src/stm32f4xx_cryp_aes.c ****     /* Enable Crypto processor */
1332:Drivers/STM32F4xx_StdPeriph_Driver/src/stm32f4xx_cryp_aes.c ****     CRYP_Cmd(ENABLE);
1333:Drivers/STM32F4xx_StdPeriph_Driver/src/stm32f4xx_cryp_aes.c ****     
1334:Drivers/STM32F4xx_StdPeriph_Driver/src/stm32f4xx_cryp_aes.c ****     /* Wait for CRYPEN bit to be 0 */
1335:Drivers/STM32F4xx_StdPeriph_Driver/src/stm32f4xx_cryp_aes.c ****     while(CRYP_GetCmdStatus() == ENABLE)
1336:Drivers/STM32F4xx_StdPeriph_Driver/src/stm32f4xx_cryp_aes.c ****     {
1337:Drivers/STM32F4xx_StdPeriph_Driver/src/stm32f4xx_cryp_aes.c ****     }
1338:Drivers/STM32F4xx_StdPeriph_Driver/src/stm32f4xx_cryp_aes.c ****     /***************************** header phase *******************************/
1339:Drivers/STM32F4xx_StdPeriph_Driver/src/stm32f4xx_cryp_aes.c ****     if(headersize != 0)
1340:Drivers/STM32F4xx_StdPeriph_Driver/src/stm32f4xx_cryp_aes.c ****     {
1341:Drivers/STM32F4xx_StdPeriph_Driver/src/stm32f4xx_cryp_aes.c ****       /* Select header phase */
1342:Drivers/STM32F4xx_StdPeriph_Driver/src/stm32f4xx_cryp_aes.c ****       CRYP_PhaseConfig(CRYP_Phase_Header);
1343:Drivers/STM32F4xx_StdPeriph_Driver/src/stm32f4xx_cryp_aes.c ****       
1344:Drivers/STM32F4xx_StdPeriph_Driver/src/stm32f4xx_cryp_aes.c ****       /* Enable Crypto processor */
1345:Drivers/STM32F4xx_StdPeriph_Driver/src/stm32f4xx_cryp_aes.c ****       CRYP_Cmd(ENABLE);
1346:Drivers/STM32F4xx_StdPeriph_Driver/src/stm32f4xx_cryp_aes.c ****       
1347:Drivers/STM32F4xx_StdPeriph_Driver/src/stm32f4xx_cryp_aes.c ****       if(CRYP_GetCmdStatus() == DISABLE)
1348:Drivers/STM32F4xx_StdPeriph_Driver/src/stm32f4xx_cryp_aes.c ****       {
1349:Drivers/STM32F4xx_StdPeriph_Driver/src/stm32f4xx_cryp_aes.c ****          /* The CRYP peripheral clock is not enabled or the device doesn't embed 
1350:Drivers/STM32F4xx_StdPeriph_Driver/src/stm32f4xx_cryp_aes.c ****             the CRYP peripheral (please check the device sales type. */
1351:Drivers/STM32F4xx_StdPeriph_Driver/src/stm32f4xx_cryp_aes.c ****          return(ERROR);
1352:Drivers/STM32F4xx_StdPeriph_Driver/src/stm32f4xx_cryp_aes.c ****       }
1353:Drivers/STM32F4xx_StdPeriph_Driver/src/stm32f4xx_cryp_aes.c ****       
1354:Drivers/STM32F4xx_StdPeriph_Driver/src/stm32f4xx_cryp_aes.c ****       for(loopcounter = 0; (loopcounter < headersize); loopcounter+=16)
1355:Drivers/STM32F4xx_StdPeriph_Driver/src/stm32f4xx_cryp_aes.c ****       {
1356:Drivers/STM32F4xx_StdPeriph_Driver/src/stm32f4xx_cryp_aes.c ****         /* Wait until the IFEM flag is reset */
1357:Drivers/STM32F4xx_StdPeriph_Driver/src/stm32f4xx_cryp_aes.c ****         while(CRYP_GetFlagStatus(CRYP_FLAG_IFEM) == RESET)
1358:Drivers/STM32F4xx_StdPeriph_Driver/src/stm32f4xx_cryp_aes.c ****         {
1359:Drivers/STM32F4xx_StdPeriph_Driver/src/stm32f4xx_cryp_aes.c ****         }
1360:Drivers/STM32F4xx_StdPeriph_Driver/src/stm32f4xx_cryp_aes.c ****         
1361:Drivers/STM32F4xx_StdPeriph_Driver/src/stm32f4xx_cryp_aes.c ****         /* Write the Input block in the IN FIFO */
1362:Drivers/STM32F4xx_StdPeriph_Driver/src/stm32f4xx_cryp_aes.c ****         CRYP_DataIn(*(uint32_t*)(headeraddr));
ARM GAS  /tmp/ccjGnpiF.s 			page 117


1363:Drivers/STM32F4xx_StdPeriph_Driver/src/stm32f4xx_cryp_aes.c ****         headeraddr+=4;
1364:Drivers/STM32F4xx_StdPeriph_Driver/src/stm32f4xx_cryp_aes.c ****         CRYP_DataIn(*(uint32_t*)(headeraddr));
1365:Drivers/STM32F4xx_StdPeriph_Driver/src/stm32f4xx_cryp_aes.c ****         headeraddr+=4;
1366:Drivers/STM32F4xx_StdPeriph_Driver/src/stm32f4xx_cryp_aes.c ****         CRYP_DataIn(*(uint32_t*)(headeraddr));
1367:Drivers/STM32F4xx_StdPeriph_Driver/src/stm32f4xx_cryp_aes.c ****         headeraddr+=4;
1368:Drivers/STM32F4xx_StdPeriph_Driver/src/stm32f4xx_cryp_aes.c ****         CRYP_DataIn(*(uint32_t*)(headeraddr));
1369:Drivers/STM32F4xx_StdPeriph_Driver/src/stm32f4xx_cryp_aes.c ****         headeraddr+=4;
1370:Drivers/STM32F4xx_StdPeriph_Driver/src/stm32f4xx_cryp_aes.c ****       }
1371:Drivers/STM32F4xx_StdPeriph_Driver/src/stm32f4xx_cryp_aes.c ****       
1372:Drivers/STM32F4xx_StdPeriph_Driver/src/stm32f4xx_cryp_aes.c ****       /* Wait until the complete message has been processed */
1373:Drivers/STM32F4xx_StdPeriph_Driver/src/stm32f4xx_cryp_aes.c ****       counter = 0;
1374:Drivers/STM32F4xx_StdPeriph_Driver/src/stm32f4xx_cryp_aes.c ****       do
1375:Drivers/STM32F4xx_StdPeriph_Driver/src/stm32f4xx_cryp_aes.c ****       {
1376:Drivers/STM32F4xx_StdPeriph_Driver/src/stm32f4xx_cryp_aes.c ****         busystatus = CRYP_GetFlagStatus(CRYP_FLAG_BUSY);
1377:Drivers/STM32F4xx_StdPeriph_Driver/src/stm32f4xx_cryp_aes.c ****         counter++;
1378:Drivers/STM32F4xx_StdPeriph_Driver/src/stm32f4xx_cryp_aes.c ****       }while ((counter != AESBUSY_TIMEOUT) && (busystatus != RESET));
1379:Drivers/STM32F4xx_StdPeriph_Driver/src/stm32f4xx_cryp_aes.c **** 
1380:Drivers/STM32F4xx_StdPeriph_Driver/src/stm32f4xx_cryp_aes.c ****       if (busystatus != RESET)
1381:Drivers/STM32F4xx_StdPeriph_Driver/src/stm32f4xx_cryp_aes.c ****       {
1382:Drivers/STM32F4xx_StdPeriph_Driver/src/stm32f4xx_cryp_aes.c ****         status = ERROR;
1383:Drivers/STM32F4xx_StdPeriph_Driver/src/stm32f4xx_cryp_aes.c ****       }
1384:Drivers/STM32F4xx_StdPeriph_Driver/src/stm32f4xx_cryp_aes.c ****     }
1385:Drivers/STM32F4xx_StdPeriph_Driver/src/stm32f4xx_cryp_aes.c ****     
1386:Drivers/STM32F4xx_StdPeriph_Driver/src/stm32f4xx_cryp_aes.c ****     /**************************** payload phase *******************************/
1387:Drivers/STM32F4xx_StdPeriph_Driver/src/stm32f4xx_cryp_aes.c ****     if(ILength != 0)
1388:Drivers/STM32F4xx_StdPeriph_Driver/src/stm32f4xx_cryp_aes.c ****     {
1389:Drivers/STM32F4xx_StdPeriph_Driver/src/stm32f4xx_cryp_aes.c ****       /* Select payload phase */
1390:Drivers/STM32F4xx_StdPeriph_Driver/src/stm32f4xx_cryp_aes.c ****       CRYP_PhaseConfig(CRYP_Phase_Payload);
1391:Drivers/STM32F4xx_StdPeriph_Driver/src/stm32f4xx_cryp_aes.c ****       
1392:Drivers/STM32F4xx_StdPeriph_Driver/src/stm32f4xx_cryp_aes.c ****       /* Enable Crypto processor */
1393:Drivers/STM32F4xx_StdPeriph_Driver/src/stm32f4xx_cryp_aes.c ****       CRYP_Cmd(ENABLE);
1394:Drivers/STM32F4xx_StdPeriph_Driver/src/stm32f4xx_cryp_aes.c ****       
1395:Drivers/STM32F4xx_StdPeriph_Driver/src/stm32f4xx_cryp_aes.c ****       if(CRYP_GetCmdStatus() == DISABLE)
1396:Drivers/STM32F4xx_StdPeriph_Driver/src/stm32f4xx_cryp_aes.c ****       {
1397:Drivers/STM32F4xx_StdPeriph_Driver/src/stm32f4xx_cryp_aes.c ****         /* The CRYP peripheral clock is not enabled or the device doesn't embed 
1398:Drivers/STM32F4xx_StdPeriph_Driver/src/stm32f4xx_cryp_aes.c ****            the CRYP peripheral (please check the device sales type. */
1399:Drivers/STM32F4xx_StdPeriph_Driver/src/stm32f4xx_cryp_aes.c ****         return(ERROR);
1400:Drivers/STM32F4xx_StdPeriph_Driver/src/stm32f4xx_cryp_aes.c ****       }
1401:Drivers/STM32F4xx_StdPeriph_Driver/src/stm32f4xx_cryp_aes.c ****       
1402:Drivers/STM32F4xx_StdPeriph_Driver/src/stm32f4xx_cryp_aes.c ****       for(loopcounter = 0; ((loopcounter < ILength) && (status != ERROR)); loopcounter+=16)
1403:Drivers/STM32F4xx_StdPeriph_Driver/src/stm32f4xx_cryp_aes.c ****       {
1404:Drivers/STM32F4xx_StdPeriph_Driver/src/stm32f4xx_cryp_aes.c ****         /* Wait until the IFEM flag is reset */
1405:Drivers/STM32F4xx_StdPeriph_Driver/src/stm32f4xx_cryp_aes.c ****         while(CRYP_GetFlagStatus(CRYP_FLAG_IFEM) == RESET)
1406:Drivers/STM32F4xx_StdPeriph_Driver/src/stm32f4xx_cryp_aes.c ****         {
1407:Drivers/STM32F4xx_StdPeriph_Driver/src/stm32f4xx_cryp_aes.c ****         }
1408:Drivers/STM32F4xx_StdPeriph_Driver/src/stm32f4xx_cryp_aes.c ****         
1409:Drivers/STM32F4xx_StdPeriph_Driver/src/stm32f4xx_cryp_aes.c ****         /* Write the Input block in the IN FIFO */
1410:Drivers/STM32F4xx_StdPeriph_Driver/src/stm32f4xx_cryp_aes.c ****         CRYP_DataIn(*(uint32_t*)(inputaddr));
1411:Drivers/STM32F4xx_StdPeriph_Driver/src/stm32f4xx_cryp_aes.c ****         inputaddr+=4;
1412:Drivers/STM32F4xx_StdPeriph_Driver/src/stm32f4xx_cryp_aes.c ****         CRYP_DataIn(*(uint32_t*)(inputaddr));
1413:Drivers/STM32F4xx_StdPeriph_Driver/src/stm32f4xx_cryp_aes.c ****         inputaddr+=4;
1414:Drivers/STM32F4xx_StdPeriph_Driver/src/stm32f4xx_cryp_aes.c ****         CRYP_DataIn(*(uint32_t*)(inputaddr));
1415:Drivers/STM32F4xx_StdPeriph_Driver/src/stm32f4xx_cryp_aes.c ****         inputaddr+=4;
1416:Drivers/STM32F4xx_StdPeriph_Driver/src/stm32f4xx_cryp_aes.c ****         CRYP_DataIn(*(uint32_t*)(inputaddr));
1417:Drivers/STM32F4xx_StdPeriph_Driver/src/stm32f4xx_cryp_aes.c ****         inputaddr+=4;
1418:Drivers/STM32F4xx_StdPeriph_Driver/src/stm32f4xx_cryp_aes.c ****         
1419:Drivers/STM32F4xx_StdPeriph_Driver/src/stm32f4xx_cryp_aes.c ****         /* Wait until the complete message has been processed */
ARM GAS  /tmp/ccjGnpiF.s 			page 118


1420:Drivers/STM32F4xx_StdPeriph_Driver/src/stm32f4xx_cryp_aes.c ****         counter = 0;
1421:Drivers/STM32F4xx_StdPeriph_Driver/src/stm32f4xx_cryp_aes.c ****         do
1422:Drivers/STM32F4xx_StdPeriph_Driver/src/stm32f4xx_cryp_aes.c ****         {
1423:Drivers/STM32F4xx_StdPeriph_Driver/src/stm32f4xx_cryp_aes.c ****           busystatus = CRYP_GetFlagStatus(CRYP_FLAG_BUSY);
1424:Drivers/STM32F4xx_StdPeriph_Driver/src/stm32f4xx_cryp_aes.c ****           counter++;
1425:Drivers/STM32F4xx_StdPeriph_Driver/src/stm32f4xx_cryp_aes.c ****         }while ((counter != AESBUSY_TIMEOUT) && (busystatus != RESET));
1426:Drivers/STM32F4xx_StdPeriph_Driver/src/stm32f4xx_cryp_aes.c **** 
1427:Drivers/STM32F4xx_StdPeriph_Driver/src/stm32f4xx_cryp_aes.c ****         if (busystatus != RESET)
1428:Drivers/STM32F4xx_StdPeriph_Driver/src/stm32f4xx_cryp_aes.c ****         {
1429:Drivers/STM32F4xx_StdPeriph_Driver/src/stm32f4xx_cryp_aes.c ****           status = ERROR;
1430:Drivers/STM32F4xx_StdPeriph_Driver/src/stm32f4xx_cryp_aes.c ****         }
1431:Drivers/STM32F4xx_StdPeriph_Driver/src/stm32f4xx_cryp_aes.c ****         else
1432:Drivers/STM32F4xx_StdPeriph_Driver/src/stm32f4xx_cryp_aes.c ****         {
1433:Drivers/STM32F4xx_StdPeriph_Driver/src/stm32f4xx_cryp_aes.c ****           /* Wait until the OFNE flag is reset */
1434:Drivers/STM32F4xx_StdPeriph_Driver/src/stm32f4xx_cryp_aes.c ****           while(CRYP_GetFlagStatus(CRYP_FLAG_OFNE) == RESET)
1435:Drivers/STM32F4xx_StdPeriph_Driver/src/stm32f4xx_cryp_aes.c ****           {
1436:Drivers/STM32F4xx_StdPeriph_Driver/src/stm32f4xx_cryp_aes.c ****           }
1437:Drivers/STM32F4xx_StdPeriph_Driver/src/stm32f4xx_cryp_aes.c ****           
1438:Drivers/STM32F4xx_StdPeriph_Driver/src/stm32f4xx_cryp_aes.c ****           /* Read the Output block from the Output FIFO */
1439:Drivers/STM32F4xx_StdPeriph_Driver/src/stm32f4xx_cryp_aes.c ****           *(uint32_t*)(outputaddr) = CRYP_DataOut();
1440:Drivers/STM32F4xx_StdPeriph_Driver/src/stm32f4xx_cryp_aes.c ****           outputaddr+=4;
1441:Drivers/STM32F4xx_StdPeriph_Driver/src/stm32f4xx_cryp_aes.c ****           *(uint32_t*)(outputaddr) = CRYP_DataOut();
1442:Drivers/STM32F4xx_StdPeriph_Driver/src/stm32f4xx_cryp_aes.c ****           outputaddr+=4;
1443:Drivers/STM32F4xx_StdPeriph_Driver/src/stm32f4xx_cryp_aes.c ****           *(uint32_t*)(outputaddr) = CRYP_DataOut();
1444:Drivers/STM32F4xx_StdPeriph_Driver/src/stm32f4xx_cryp_aes.c ****           outputaddr+=4;
1445:Drivers/STM32F4xx_StdPeriph_Driver/src/stm32f4xx_cryp_aes.c ****           *(uint32_t*)(outputaddr) = CRYP_DataOut();
1446:Drivers/STM32F4xx_StdPeriph_Driver/src/stm32f4xx_cryp_aes.c ****           outputaddr+=4;
1447:Drivers/STM32F4xx_StdPeriph_Driver/src/stm32f4xx_cryp_aes.c ****         }
1448:Drivers/STM32F4xx_StdPeriph_Driver/src/stm32f4xx_cryp_aes.c ****       }
1449:Drivers/STM32F4xx_StdPeriph_Driver/src/stm32f4xx_cryp_aes.c ****     }
1450:Drivers/STM32F4xx_StdPeriph_Driver/src/stm32f4xx_cryp_aes.c ****     
1451:Drivers/STM32F4xx_StdPeriph_Driver/src/stm32f4xx_cryp_aes.c ****     /***************************** final phase ********************************/
1452:Drivers/STM32F4xx_StdPeriph_Driver/src/stm32f4xx_cryp_aes.c ****     /* Select final phase */
1453:Drivers/STM32F4xx_StdPeriph_Driver/src/stm32f4xx_cryp_aes.c ****     CRYP_PhaseConfig(CRYP_Phase_Final);
1454:Drivers/STM32F4xx_StdPeriph_Driver/src/stm32f4xx_cryp_aes.c ****     
1455:Drivers/STM32F4xx_StdPeriph_Driver/src/stm32f4xx_cryp_aes.c ****     /* Enable Crypto processor */
1456:Drivers/STM32F4xx_StdPeriph_Driver/src/stm32f4xx_cryp_aes.c ****     CRYP_Cmd(ENABLE);
1457:Drivers/STM32F4xx_StdPeriph_Driver/src/stm32f4xx_cryp_aes.c ****     
1458:Drivers/STM32F4xx_StdPeriph_Driver/src/stm32f4xx_cryp_aes.c ****     if(CRYP_GetCmdStatus() == DISABLE)
1459:Drivers/STM32F4xx_StdPeriph_Driver/src/stm32f4xx_cryp_aes.c ****     {
1460:Drivers/STM32F4xx_StdPeriph_Driver/src/stm32f4xx_cryp_aes.c ****       /* The CRYP peripheral clock is not enabled or the device doesn't embed 
1461:Drivers/STM32F4xx_StdPeriph_Driver/src/stm32f4xx_cryp_aes.c ****          the CRYP peripheral (please check the device sales type. */
1462:Drivers/STM32F4xx_StdPeriph_Driver/src/stm32f4xx_cryp_aes.c ****       return(ERROR);
1463:Drivers/STM32F4xx_StdPeriph_Driver/src/stm32f4xx_cryp_aes.c ****     }
1464:Drivers/STM32F4xx_StdPeriph_Driver/src/stm32f4xx_cryp_aes.c ****     
1465:Drivers/STM32F4xx_StdPeriph_Driver/src/stm32f4xx_cryp_aes.c ****     ctraddr = (uint32_t)ctr;
1466:Drivers/STM32F4xx_StdPeriph_Driver/src/stm32f4xx_cryp_aes.c ****     /* Write the counter block in the IN FIFO */
1467:Drivers/STM32F4xx_StdPeriph_Driver/src/stm32f4xx_cryp_aes.c ****     CRYP_DataIn(*(uint32_t*)(ctraddr));
1468:Drivers/STM32F4xx_StdPeriph_Driver/src/stm32f4xx_cryp_aes.c ****     ctraddr+=4;
1469:Drivers/STM32F4xx_StdPeriph_Driver/src/stm32f4xx_cryp_aes.c ****     CRYP_DataIn(*(uint32_t*)(ctraddr));
1470:Drivers/STM32F4xx_StdPeriph_Driver/src/stm32f4xx_cryp_aes.c ****     ctraddr+=4;
1471:Drivers/STM32F4xx_StdPeriph_Driver/src/stm32f4xx_cryp_aes.c ****     CRYP_DataIn(*(uint32_t*)(ctraddr));
1472:Drivers/STM32F4xx_StdPeriph_Driver/src/stm32f4xx_cryp_aes.c ****     ctraddr+=4;
1473:Drivers/STM32F4xx_StdPeriph_Driver/src/stm32f4xx_cryp_aes.c ****     /* Reset bit 0 (after 8-bit swap) is equivalent to reset bit 24 (before 8-bit swap) */
1474:Drivers/STM32F4xx_StdPeriph_Driver/src/stm32f4xx_cryp_aes.c ****     CRYP_DataIn(*(uint32_t*)(ctraddr) & 0xfeffffff);
1475:Drivers/STM32F4xx_StdPeriph_Driver/src/stm32f4xx_cryp_aes.c ****     
1476:Drivers/STM32F4xx_StdPeriph_Driver/src/stm32f4xx_cryp_aes.c ****     /* Wait until the OFNE flag is reset */
ARM GAS  /tmp/ccjGnpiF.s 			page 119


1477:Drivers/STM32F4xx_StdPeriph_Driver/src/stm32f4xx_cryp_aes.c ****     while(CRYP_GetFlagStatus(CRYP_FLAG_OFNE) == RESET)
1478:Drivers/STM32F4xx_StdPeriph_Driver/src/stm32f4xx_cryp_aes.c ****     {
1479:Drivers/STM32F4xx_StdPeriph_Driver/src/stm32f4xx_cryp_aes.c ****     }
1480:Drivers/STM32F4xx_StdPeriph_Driver/src/stm32f4xx_cryp_aes.c ****     
1481:Drivers/STM32F4xx_StdPeriph_Driver/src/stm32f4xx_cryp_aes.c ****     /* Read the Auth TAG in the IN FIFO */
1482:Drivers/STM32F4xx_StdPeriph_Driver/src/stm32f4xx_cryp_aes.c ****     temptag[0] = CRYP_DataOut();
1483:Drivers/STM32F4xx_StdPeriph_Driver/src/stm32f4xx_cryp_aes.c ****     temptag[1] = CRYP_DataOut();
1484:Drivers/STM32F4xx_StdPeriph_Driver/src/stm32f4xx_cryp_aes.c ****     temptag[2] = CRYP_DataOut();
1485:Drivers/STM32F4xx_StdPeriph_Driver/src/stm32f4xx_cryp_aes.c ****     temptag[3] = CRYP_DataOut();
1486:Drivers/STM32F4xx_StdPeriph_Driver/src/stm32f4xx_cryp_aes.c ****   }
1487:Drivers/STM32F4xx_StdPeriph_Driver/src/stm32f4xx_cryp_aes.c ****   /*------------------ AES Decryption ------------------*/
1488:Drivers/STM32F4xx_StdPeriph_Driver/src/stm32f4xx_cryp_aes.c ****   else /* AES decryption */
1489:Drivers/STM32F4xx_StdPeriph_Driver/src/stm32f4xx_cryp_aes.c ****   {
1490:Drivers/STM32F4xx_StdPeriph_Driver/src/stm32f4xx_cryp_aes.c ****     /* Flush IN/OUT FIFOs */
1491:Drivers/STM32F4xx_StdPeriph_Driver/src/stm32f4xx_cryp_aes.c ****     CRYP_FIFOFlush();
 3984              		.loc 1 1491 5 is_stmt 1 view .LVU1567
 3985 0188 FFF7FEFF 		bl	CRYP_FIFOFlush
 3986              	.LVL578:
1492:Drivers/STM32F4xx_StdPeriph_Driver/src/stm32f4xx_cryp_aes.c ****     
1493:Drivers/STM32F4xx_StdPeriph_Driver/src/stm32f4xx_cryp_aes.c ****     /* Key Initialisation */
1494:Drivers/STM32F4xx_StdPeriph_Driver/src/stm32f4xx_cryp_aes.c ****     CRYP_KeyInit(&AES_CRYP_KeyInitStructure);
 3987              		.loc 1 1494 5 view .LVU1568
 3988 018c 14A8     		add	r0, sp, #80
 3989 018e FFF7FEFF 		bl	CRYP_KeyInit
 3990              	.LVL579:
1495:Drivers/STM32F4xx_StdPeriph_Driver/src/stm32f4xx_cryp_aes.c ****     
1496:Drivers/STM32F4xx_StdPeriph_Driver/src/stm32f4xx_cryp_aes.c ****     /* CRYP Initialization Vectors */
1497:Drivers/STM32F4xx_StdPeriph_Driver/src/stm32f4xx_cryp_aes.c ****     CRYP_IVInit(&AES_CRYP_IVInitStructure);
 3991              		.loc 1 1497 5 view .LVU1569
 3992 0192 10A8     		add	r0, sp, #64
 3993 0194 FFF7FEFF 		bl	CRYP_IVInit
 3994              	.LVL580:
1498:Drivers/STM32F4xx_StdPeriph_Driver/src/stm32f4xx_cryp_aes.c ****     
1499:Drivers/STM32F4xx_StdPeriph_Driver/src/stm32f4xx_cryp_aes.c ****     /* Crypto Init for Key preparation for decryption process */
1500:Drivers/STM32F4xx_StdPeriph_Driver/src/stm32f4xx_cryp_aes.c ****     AES_CRYP_InitStructure.CRYP_AlgoDir = CRYP_AlgoDir_Decrypt;
 3995              		.loc 1 1500 5 view .LVU1570
 3996              		.loc 1 1500 41 is_stmt 0 view .LVU1571
 3997 0198 0423     		movs	r3, #4
 3998 019a 1C93     		str	r3, [sp, #112]
1501:Drivers/STM32F4xx_StdPeriph_Driver/src/stm32f4xx_cryp_aes.c ****     AES_CRYP_InitStructure.CRYP_AlgoMode = CRYP_AlgoMode_AES_CCM;
 3999              		.loc 1 1501 5 is_stmt 1 view .LVU1572
 4000              		.loc 1 1501 42 is_stmt 0 view .LVU1573
 4001 019c 4FF00813 		mov	r3, #524296
 4002 01a0 1D93     		str	r3, [sp, #116]
1502:Drivers/STM32F4xx_StdPeriph_Driver/src/stm32f4xx_cryp_aes.c ****     AES_CRYP_InitStructure.CRYP_DataType = CRYP_DataType_8b;
 4003              		.loc 1 1502 5 is_stmt 1 view .LVU1574
 4004              		.loc 1 1502 42 is_stmt 0 view .LVU1575
 4005 01a2 8023     		movs	r3, #128
 4006 01a4 1E93     		str	r3, [sp, #120]
1503:Drivers/STM32F4xx_StdPeriph_Driver/src/stm32f4xx_cryp_aes.c ****     CRYP_Init(&AES_CRYP_InitStructure);
 4007              		.loc 1 1503 5 is_stmt 1 view .LVU1576
 4008 01a6 1CA8     		add	r0, sp, #112
 4009 01a8 FFF7FEFF 		bl	CRYP_Init
 4010              	.LVL581:
1504:Drivers/STM32F4xx_StdPeriph_Driver/src/stm32f4xx_cryp_aes.c ****     
1505:Drivers/STM32F4xx_StdPeriph_Driver/src/stm32f4xx_cryp_aes.c ****     /***************************** Init phase *********************************/
1506:Drivers/STM32F4xx_StdPeriph_Driver/src/stm32f4xx_cryp_aes.c ****     /* Select init phase */
ARM GAS  /tmp/ccjGnpiF.s 			page 120


1507:Drivers/STM32F4xx_StdPeriph_Driver/src/stm32f4xx_cryp_aes.c ****     CRYP_PhaseConfig(CRYP_Phase_Init);
 4011              		.loc 1 1507 5 view .LVU1577
 4012 01ac 0020     		movs	r0, #0
 4013 01ae FFF7FEFF 		bl	CRYP_PhaseConfig
 4014              	.LVL582:
1508:Drivers/STM32F4xx_StdPeriph_Driver/src/stm32f4xx_cryp_aes.c ****     
1509:Drivers/STM32F4xx_StdPeriph_Driver/src/stm32f4xx_cryp_aes.c ****     b0addr = (uint32_t)blockb0;
 4015              		.loc 1 1509 5 view .LVU1578
1510:Drivers/STM32F4xx_StdPeriph_Driver/src/stm32f4xx_cryp_aes.c ****     /* Write the blockb0 block in the IN FIFO */
1511:Drivers/STM32F4xx_StdPeriph_Driver/src/stm32f4xx_cryp_aes.c ****     CRYP_DataIn((*(uint32_t*)(b0addr)));
 4016              		.loc 1 1511 5 view .LVU1579
 4017 01b2 0B98     		ldr	r0, [sp, #44]
 4018 01b4 FFF7FEFF 		bl	CRYP_DataIn
 4019              	.LVL583:
1512:Drivers/STM32F4xx_StdPeriph_Driver/src/stm32f4xx_cryp_aes.c ****     b0addr+=4;
 4020              		.loc 1 1512 5 view .LVU1580
1513:Drivers/STM32F4xx_StdPeriph_Driver/src/stm32f4xx_cryp_aes.c ****     CRYP_DataIn((*(uint32_t*)(b0addr)));
 4021              		.loc 1 1513 5 view .LVU1581
 4022 01b8 0C98     		ldr	r0, [sp, #48]
 4023 01ba FFF7FEFF 		bl	CRYP_DataIn
 4024              	.LVL584:
1514:Drivers/STM32F4xx_StdPeriph_Driver/src/stm32f4xx_cryp_aes.c ****     b0addr+=4;
 4025              		.loc 1 1514 5 view .LVU1582
1515:Drivers/STM32F4xx_StdPeriph_Driver/src/stm32f4xx_cryp_aes.c ****     CRYP_DataIn((*(uint32_t*)(b0addr)));
 4026              		.loc 1 1515 5 view .LVU1583
 4027 01be 0D98     		ldr	r0, [sp, #52]
 4028 01c0 FFF7FEFF 		bl	CRYP_DataIn
 4029              	.LVL585:
1516:Drivers/STM32F4xx_StdPeriph_Driver/src/stm32f4xx_cryp_aes.c ****     b0addr+=4;
 4030              		.loc 1 1516 5 view .LVU1584
1517:Drivers/STM32F4xx_StdPeriph_Driver/src/stm32f4xx_cryp_aes.c ****     CRYP_DataIn((*(uint32_t*)(b0addr)));
 4031              		.loc 1 1517 5 view .LVU1585
 4032 01c4 0E98     		ldr	r0, [sp, #56]
 4033 01c6 FFF7FEFF 		bl	CRYP_DataIn
 4034              	.LVL586:
1518:Drivers/STM32F4xx_StdPeriph_Driver/src/stm32f4xx_cryp_aes.c ****     
1519:Drivers/STM32F4xx_StdPeriph_Driver/src/stm32f4xx_cryp_aes.c ****     /* Enable Crypto processor */
1520:Drivers/STM32F4xx_StdPeriph_Driver/src/stm32f4xx_cryp_aes.c ****     CRYP_Cmd(ENABLE);
 4035              		.loc 1 1520 5 view .LVU1586
 4036 01ca 0120     		movs	r0, #1
 4037 01cc FFF7FEFF 		bl	CRYP_Cmd
 4038              	.LVL587:
1521:Drivers/STM32F4xx_StdPeriph_Driver/src/stm32f4xx_cryp_aes.c ****     
1522:Drivers/STM32F4xx_StdPeriph_Driver/src/stm32f4xx_cryp_aes.c ****     /* Wait for CRYPEN bit to be 0 */
1523:Drivers/STM32F4xx_StdPeriph_Driver/src/stm32f4xx_cryp_aes.c ****     while(CRYP_GetCmdStatus() == ENABLE)
 4039              		.loc 1 1523 5 view .LVU1587
 4040              	.L140:
1524:Drivers/STM32F4xx_StdPeriph_Driver/src/stm32f4xx_cryp_aes.c ****     {
1525:Drivers/STM32F4xx_StdPeriph_Driver/src/stm32f4xx_cryp_aes.c ****     }
 4041              		.loc 1 1525 5 discriminator 1 view .LVU1588
1523:Drivers/STM32F4xx_StdPeriph_Driver/src/stm32f4xx_cryp_aes.c ****     {
 4042              		.loc 1 1523 10 discriminator 1 view .LVU1589
1523:Drivers/STM32F4xx_StdPeriph_Driver/src/stm32f4xx_cryp_aes.c ****     {
 4043              		.loc 1 1523 11 is_stmt 0 discriminator 1 view .LVU1590
 4044 01d0 FFF7FEFF 		bl	CRYP_GetCmdStatus
 4045              	.LVL588:
1523:Drivers/STM32F4xx_StdPeriph_Driver/src/stm32f4xx_cryp_aes.c ****     {
ARM GAS  /tmp/ccjGnpiF.s 			page 121


 4046              		.loc 1 1523 10 discriminator 1 view .LVU1591
 4047 01d4 0128     		cmp	r0, #1
 4048 01d6 FBD0     		beq	.L140
1526:Drivers/STM32F4xx_StdPeriph_Driver/src/stm32f4xx_cryp_aes.c ****     
1527:Drivers/STM32F4xx_StdPeriph_Driver/src/stm32f4xx_cryp_aes.c ****     /***************************** header phase *******************************/
1528:Drivers/STM32F4xx_StdPeriph_Driver/src/stm32f4xx_cryp_aes.c ****     if(headersize != 0)
 4049              		.loc 1 1528 5 is_stmt 1 view .LVU1592
 4050              		.loc 1 1528 7 is_stmt 0 view .LVU1593
 4051 01d8 002C     		cmp	r4, #0
 4052 01da 40F03A81 		bne	.L167
1148:Drivers/STM32F4xx_StdPeriph_Driver/src/stm32f4xx_cryp_aes.c ****   uint32_t keyaddr    = (uint32_t)Key;
 4053              		.loc 1 1148 15 view .LVU1594
 4054 01de 0124     		movs	r4, #1
 4055              	.LVL589:
 4056              	.L141:
1529:Drivers/STM32F4xx_StdPeriph_Driver/src/stm32f4xx_cryp_aes.c ****     {
1530:Drivers/STM32F4xx_StdPeriph_Driver/src/stm32f4xx_cryp_aes.c ****       /* Select header phase */
1531:Drivers/STM32F4xx_StdPeriph_Driver/src/stm32f4xx_cryp_aes.c ****       CRYP_PhaseConfig(CRYP_Phase_Header);
1532:Drivers/STM32F4xx_StdPeriph_Driver/src/stm32f4xx_cryp_aes.c ****       
1533:Drivers/STM32F4xx_StdPeriph_Driver/src/stm32f4xx_cryp_aes.c ****       /* Enable Crypto processor */
1534:Drivers/STM32F4xx_StdPeriph_Driver/src/stm32f4xx_cryp_aes.c ****       CRYP_Cmd(ENABLE);
1535:Drivers/STM32F4xx_StdPeriph_Driver/src/stm32f4xx_cryp_aes.c ****       
1536:Drivers/STM32F4xx_StdPeriph_Driver/src/stm32f4xx_cryp_aes.c ****       if(CRYP_GetCmdStatus() == DISABLE)
1537:Drivers/STM32F4xx_StdPeriph_Driver/src/stm32f4xx_cryp_aes.c ****       {
1538:Drivers/STM32F4xx_StdPeriph_Driver/src/stm32f4xx_cryp_aes.c ****         /* The CRYP peripheral clock is not enabled or the device doesn't embed 
1539:Drivers/STM32F4xx_StdPeriph_Driver/src/stm32f4xx_cryp_aes.c ****            the CRYP peripheral (please check the device sales type. */
1540:Drivers/STM32F4xx_StdPeriph_Driver/src/stm32f4xx_cryp_aes.c ****         return(ERROR);
1541:Drivers/STM32F4xx_StdPeriph_Driver/src/stm32f4xx_cryp_aes.c ****       }
1542:Drivers/STM32F4xx_StdPeriph_Driver/src/stm32f4xx_cryp_aes.c ****       
1543:Drivers/STM32F4xx_StdPeriph_Driver/src/stm32f4xx_cryp_aes.c ****       for(loopcounter = 0; (loopcounter < headersize); loopcounter+=16)
1544:Drivers/STM32F4xx_StdPeriph_Driver/src/stm32f4xx_cryp_aes.c ****       {
1545:Drivers/STM32F4xx_StdPeriph_Driver/src/stm32f4xx_cryp_aes.c ****         /* Wait until the IFEM flag is reset */
1546:Drivers/STM32F4xx_StdPeriph_Driver/src/stm32f4xx_cryp_aes.c ****         while(CRYP_GetFlagStatus(CRYP_FLAG_IFEM) == RESET)
1547:Drivers/STM32F4xx_StdPeriph_Driver/src/stm32f4xx_cryp_aes.c ****         {
1548:Drivers/STM32F4xx_StdPeriph_Driver/src/stm32f4xx_cryp_aes.c ****         }
1549:Drivers/STM32F4xx_StdPeriph_Driver/src/stm32f4xx_cryp_aes.c ****         
1550:Drivers/STM32F4xx_StdPeriph_Driver/src/stm32f4xx_cryp_aes.c ****         /* Write the Input block in the IN FIFO */
1551:Drivers/STM32F4xx_StdPeriph_Driver/src/stm32f4xx_cryp_aes.c ****         CRYP_DataIn(*(uint32_t*)(headeraddr));
1552:Drivers/STM32F4xx_StdPeriph_Driver/src/stm32f4xx_cryp_aes.c ****         headeraddr+=4;
1553:Drivers/STM32F4xx_StdPeriph_Driver/src/stm32f4xx_cryp_aes.c ****         CRYP_DataIn(*(uint32_t*)(headeraddr));
1554:Drivers/STM32F4xx_StdPeriph_Driver/src/stm32f4xx_cryp_aes.c ****         headeraddr+=4;
1555:Drivers/STM32F4xx_StdPeriph_Driver/src/stm32f4xx_cryp_aes.c ****         CRYP_DataIn(*(uint32_t*)(headeraddr));
1556:Drivers/STM32F4xx_StdPeriph_Driver/src/stm32f4xx_cryp_aes.c ****         headeraddr+=4;
1557:Drivers/STM32F4xx_StdPeriph_Driver/src/stm32f4xx_cryp_aes.c ****         CRYP_DataIn(*(uint32_t*)(headeraddr));
1558:Drivers/STM32F4xx_StdPeriph_Driver/src/stm32f4xx_cryp_aes.c ****         headeraddr+=4;
1559:Drivers/STM32F4xx_StdPeriph_Driver/src/stm32f4xx_cryp_aes.c ****       }
1560:Drivers/STM32F4xx_StdPeriph_Driver/src/stm32f4xx_cryp_aes.c ****       
1561:Drivers/STM32F4xx_StdPeriph_Driver/src/stm32f4xx_cryp_aes.c ****       /* Wait until the complete message has been processed */
1562:Drivers/STM32F4xx_StdPeriph_Driver/src/stm32f4xx_cryp_aes.c ****       counter = 0;
1563:Drivers/STM32F4xx_StdPeriph_Driver/src/stm32f4xx_cryp_aes.c ****       do
1564:Drivers/STM32F4xx_StdPeriph_Driver/src/stm32f4xx_cryp_aes.c ****       {
1565:Drivers/STM32F4xx_StdPeriph_Driver/src/stm32f4xx_cryp_aes.c ****         busystatus = CRYP_GetFlagStatus(CRYP_FLAG_BUSY);
1566:Drivers/STM32F4xx_StdPeriph_Driver/src/stm32f4xx_cryp_aes.c ****         counter++;
1567:Drivers/STM32F4xx_StdPeriph_Driver/src/stm32f4xx_cryp_aes.c ****       }while ((counter != AESBUSY_TIMEOUT) && (busystatus != RESET));
1568:Drivers/STM32F4xx_StdPeriph_Driver/src/stm32f4xx_cryp_aes.c **** 
1569:Drivers/STM32F4xx_StdPeriph_Driver/src/stm32f4xx_cryp_aes.c ****       if (busystatus != RESET)
1570:Drivers/STM32F4xx_StdPeriph_Driver/src/stm32f4xx_cryp_aes.c ****       {
ARM GAS  /tmp/ccjGnpiF.s 			page 122


1571:Drivers/STM32F4xx_StdPeriph_Driver/src/stm32f4xx_cryp_aes.c ****         status = ERROR;
1572:Drivers/STM32F4xx_StdPeriph_Driver/src/stm32f4xx_cryp_aes.c ****       }
1573:Drivers/STM32F4xx_StdPeriph_Driver/src/stm32f4xx_cryp_aes.c ****     }
1574:Drivers/STM32F4xx_StdPeriph_Driver/src/stm32f4xx_cryp_aes.c ****     
1575:Drivers/STM32F4xx_StdPeriph_Driver/src/stm32f4xx_cryp_aes.c ****     /**************************** payload phase *******************************/
1576:Drivers/STM32F4xx_StdPeriph_Driver/src/stm32f4xx_cryp_aes.c ****     if(ILength != 0)
 4057              		.loc 1 1576 5 is_stmt 1 view .LVU1595
 4058              		.loc 1 1576 7 is_stmt 0 view .LVU1596
 4059 01e0 B8F1000F 		cmp	r8, #0
 4060 01e4 00F0AC81 		beq	.L146
1577:Drivers/STM32F4xx_StdPeriph_Driver/src/stm32f4xx_cryp_aes.c ****     {
1578:Drivers/STM32F4xx_StdPeriph_Driver/src/stm32f4xx_cryp_aes.c ****       /* Select payload phase */
1579:Drivers/STM32F4xx_StdPeriph_Driver/src/stm32f4xx_cryp_aes.c ****       CRYP_PhaseConfig(CRYP_Phase_Payload);
 4061              		.loc 1 1579 7 is_stmt 1 view .LVU1597
 4062 01e8 4FF40030 		mov	r0, #131072
 4063 01ec FFF7FEFF 		bl	CRYP_PhaseConfig
 4064              	.LVL590:
1580:Drivers/STM32F4xx_StdPeriph_Driver/src/stm32f4xx_cryp_aes.c **** 
1581:Drivers/STM32F4xx_StdPeriph_Driver/src/stm32f4xx_cryp_aes.c ****       /* Enable Crypto processor */
1582:Drivers/STM32F4xx_StdPeriph_Driver/src/stm32f4xx_cryp_aes.c ****       CRYP_Cmd(ENABLE);
 4065              		.loc 1 1582 7 view .LVU1598
 4066 01f0 0120     		movs	r0, #1
 4067 01f2 FFF7FEFF 		bl	CRYP_Cmd
 4068              	.LVL591:
1583:Drivers/STM32F4xx_StdPeriph_Driver/src/stm32f4xx_cryp_aes.c ****       
1584:Drivers/STM32F4xx_StdPeriph_Driver/src/stm32f4xx_cryp_aes.c ****       if(CRYP_GetCmdStatus() == DISABLE)
 4069              		.loc 1 1584 7 view .LVU1599
 4070              		.loc 1 1584 10 is_stmt 0 view .LVU1600
 4071 01f6 FFF7FEFF 		bl	CRYP_GetCmdStatus
 4072              	.LVL592:
 4073              		.loc 1 1584 9 view .LVU1601
 4074 01fa 0746     		mov	r7, r0
 4075 01fc 0028     		cmp	r0, #0
 4076 01fe 00F0D681 		beq	.L126
1585:Drivers/STM32F4xx_StdPeriph_Driver/src/stm32f4xx_cryp_aes.c ****       {
1586:Drivers/STM32F4xx_StdPeriph_Driver/src/stm32f4xx_cryp_aes.c ****         /* The CRYP peripheral clock is not enabled or the device doesn't embed 
1587:Drivers/STM32F4xx_StdPeriph_Driver/src/stm32f4xx_cryp_aes.c ****            the CRYP peripheral (please check the device sales type. */
1588:Drivers/STM32F4xx_StdPeriph_Driver/src/stm32f4xx_cryp_aes.c ****         return(ERROR);
1589:Drivers/STM32F4xx_StdPeriph_Driver/src/stm32f4xx_cryp_aes.c ****       }
1590:Drivers/STM32F4xx_StdPeriph_Driver/src/stm32f4xx_cryp_aes.c ****       
1591:Drivers/STM32F4xx_StdPeriph_Driver/src/stm32f4xx_cryp_aes.c ****       for(loopcounter = 0; ((loopcounter < ILength) && (status != ERROR)); loopcounter+=16)
 4077              		.loc 1 1591 23 view .LVU1602
 4078 0202 0026     		movs	r6, #0
 4079              	.LVL593:
 4080              		.loc 1 1591 23 view .LVU1603
 4081 0204 5FE1     		b	.L147
 4082              	.LVL594:
 4083              	.L165:
1245:Drivers/STM32F4xx_StdPeriph_Driver/src/stm32f4xx_cryp_aes.c ****     AES_CRYP_KeyInitStructure.CRYP_Key2Left = __REV(*(uint32_t*)(keyaddr));
 4084              		.loc 1 1245 5 is_stmt 1 view .LVU1604
1245:Drivers/STM32F4xx_StdPeriph_Driver/src/stm32f4xx_cryp_aes.c ****     AES_CRYP_KeyInitStructure.CRYP_Key2Left = __REV(*(uint32_t*)(keyaddr));
 4085              		.loc 1 1245 41 is_stmt 0 view .LVU1605
 4086 0206 0023     		movs	r3, #0
 4087 0208 1F93     		str	r3, [sp, #124]
1246:Drivers/STM32F4xx_StdPeriph_Driver/src/stm32f4xx_cryp_aes.c ****     keyaddr+=4;
 4088              		.loc 1 1246 5 is_stmt 1 view .LVU1606
1246:Drivers/STM32F4xx_StdPeriph_Driver/src/stm32f4xx_cryp_aes.c ****     keyaddr+=4;
ARM GAS  /tmp/ccjGnpiF.s 			page 123


 4089              		.loc 1 1246 47 is_stmt 0 view .LVU1607
 4090 020a 3B68     		ldr	r3, [r7]
 4091              	.LVL595:
 4092              	.LBB422:
 4093              	.LBI422:
 495:Drivers/CMSIS/Include/core_cmInstr.h **** {
 4094              		.loc 2 495 57 is_stmt 1 view .LVU1608
 4095              	.LBB423:
 4096              		.loc 2 498 3 view .LVU1609
 4097              		.loc 2 498 10 is_stmt 0 view .LVU1610
 4098 020c 1BBA     		rev	r3, r3
 4099              	.LVL596:
 4100              		.loc 2 498 10 view .LVU1611
 4101              	.LBE423:
 4102              	.LBE422:
1246:Drivers/STM32F4xx_StdPeriph_Driver/src/stm32f4xx_cryp_aes.c ****     keyaddr+=4;
 4103              		.loc 1 1246 45 view .LVU1612
 4104 020e 1893     		str	r3, [sp, #96]
1247:Drivers/STM32F4xx_StdPeriph_Driver/src/stm32f4xx_cryp_aes.c ****     AES_CRYP_KeyInitStructure.CRYP_Key2Right= __REV(*(uint32_t*)(keyaddr));
 4105              		.loc 1 1247 5 is_stmt 1 view .LVU1613
 4106              	.LVL597:
1248:Drivers/STM32F4xx_StdPeriph_Driver/src/stm32f4xx_cryp_aes.c ****     keyaddr+=4;
 4107              		.loc 1 1248 5 view .LVU1614
1248:Drivers/STM32F4xx_StdPeriph_Driver/src/stm32f4xx_cryp_aes.c ****     keyaddr+=4;
 4108              		.loc 1 1248 47 is_stmt 0 view .LVU1615
 4109 0210 7B68     		ldr	r3, [r7, #4]
 4110              	.LVL598:
 4111              	.LBB424:
 4112              	.LBI424:
 495:Drivers/CMSIS/Include/core_cmInstr.h **** {
 4113              		.loc 2 495 57 is_stmt 1 view .LVU1616
 4114              	.LBB425:
 4115              		.loc 2 498 3 view .LVU1617
 4116              		.loc 2 498 10 is_stmt 0 view .LVU1618
 4117 0212 1BBA     		rev	r3, r3
 4118              	.LVL599:
 4119              		.loc 2 498 10 view .LVU1619
 4120              	.LBE425:
 4121              	.LBE424:
1248:Drivers/STM32F4xx_StdPeriph_Driver/src/stm32f4xx_cryp_aes.c ****     keyaddr+=4;
 4122              		.loc 1 1248 45 view .LVU1620
 4123 0214 1993     		str	r3, [sp, #100]
1249:Drivers/STM32F4xx_StdPeriph_Driver/src/stm32f4xx_cryp_aes.c ****     AES_CRYP_KeyInitStructure.CRYP_Key3Left = __REV(*(uint32_t*)(keyaddr));
 4124              		.loc 1 1249 5 is_stmt 1 view .LVU1621
 4125              	.LVL600:
1250:Drivers/STM32F4xx_StdPeriph_Driver/src/stm32f4xx_cryp_aes.c ****     keyaddr+=4;
 4126              		.loc 1 1250 5 view .LVU1622
1250:Drivers/STM32F4xx_StdPeriph_Driver/src/stm32f4xx_cryp_aes.c ****     keyaddr+=4;
 4127              		.loc 1 1250 47 is_stmt 0 view .LVU1623
 4128 0216 BB68     		ldr	r3, [r7, #8]
 4129              	.LVL601:
 4130              	.LBB426:
 4131              	.LBI426:
 495:Drivers/CMSIS/Include/core_cmInstr.h **** {
 4132              		.loc 2 495 57 is_stmt 1 view .LVU1624
 4133              	.LBB427:
 4134              		.loc 2 498 3 view .LVU1625
ARM GAS  /tmp/ccjGnpiF.s 			page 124


 4135              		.loc 2 498 10 is_stmt 0 view .LVU1626
 4136 0218 1BBA     		rev	r3, r3
 4137              	.LVL602:
 4138              		.loc 2 498 10 view .LVU1627
 4139              	.LBE427:
 4140              	.LBE426:
1250:Drivers/STM32F4xx_StdPeriph_Driver/src/stm32f4xx_cryp_aes.c ****     keyaddr+=4;
 4141              		.loc 1 1250 45 view .LVU1628
 4142 021a 1A93     		str	r3, [sp, #104]
1251:Drivers/STM32F4xx_StdPeriph_Driver/src/stm32f4xx_cryp_aes.c ****     AES_CRYP_KeyInitStructure.CRYP_Key3Right= __REV(*(uint32_t*)(keyaddr));
 4143              		.loc 1 1251 5 is_stmt 1 view .LVU1629
 4144              	.LVL603:
1252:Drivers/STM32F4xx_StdPeriph_Driver/src/stm32f4xx_cryp_aes.c ****     break;
 4145              		.loc 1 1252 5 view .LVU1630
1252:Drivers/STM32F4xx_StdPeriph_Driver/src/stm32f4xx_cryp_aes.c ****     break;
 4146              		.loc 1 1252 47 is_stmt 0 view .LVU1631
 4147 021c FB68     		ldr	r3, [r7, #12]
 4148              	.LVL604:
 4149              	.LBB428:
 4150              	.LBI428:
 495:Drivers/CMSIS/Include/core_cmInstr.h **** {
 4151              		.loc 2 495 57 is_stmt 1 view .LVU1632
 4152              	.LBB429:
 4153              		.loc 2 498 3 view .LVU1633
 4154              		.loc 2 498 10 is_stmt 0 view .LVU1634
 4155 021e 1BBA     		rev	r3, r3
 4156              	.LVL605:
 4157              		.loc 2 498 10 view .LVU1635
 4158              	.LBE429:
 4159              	.LBE428:
1252:Drivers/STM32F4xx_StdPeriph_Driver/src/stm32f4xx_cryp_aes.c ****     break;
 4160              		.loc 1 1252 45 view .LVU1636
 4161 0220 1B93     		str	r3, [sp, #108]
1253:Drivers/STM32F4xx_StdPeriph_Driver/src/stm32f4xx_cryp_aes.c ****     case 192:
 4162              		.loc 1 1253 5 is_stmt 1 view .LVU1637
 4163 0222 A2E7     		b	.L122
 4164              	.LVL606:
 4165              	.L120:
1255:Drivers/STM32F4xx_StdPeriph_Driver/src/stm32f4xx_cryp_aes.c ****     AES_CRYP_KeyInitStructure.CRYP_Key1Left = __REV(*(uint32_t*)(keyaddr));
 4166              		.loc 1 1255 5 view .LVU1638
1255:Drivers/STM32F4xx_StdPeriph_Driver/src/stm32f4xx_cryp_aes.c ****     AES_CRYP_KeyInitStructure.CRYP_Key1Left = __REV(*(uint32_t*)(keyaddr));
 4167              		.loc 1 1255 42 is_stmt 0 view .LVU1639
 4168 0224 4FF48073 		mov	r3, #256
 4169 0228 1F93     		str	r3, [sp, #124]
1256:Drivers/STM32F4xx_StdPeriph_Driver/src/stm32f4xx_cryp_aes.c ****     keyaddr+=4;
 4170              		.loc 1 1256 5 is_stmt 1 view .LVU1640
1256:Drivers/STM32F4xx_StdPeriph_Driver/src/stm32f4xx_cryp_aes.c ****     keyaddr+=4;
 4171              		.loc 1 1256 47 is_stmt 0 view .LVU1641
 4172 022a 3B68     		ldr	r3, [r7]
 4173              	.LVL607:
 4174              	.LBB430:
 4175              	.LBI430:
 495:Drivers/CMSIS/Include/core_cmInstr.h **** {
 4176              		.loc 2 495 57 is_stmt 1 view .LVU1642
 4177              	.LBB431:
 4178              		.loc 2 498 3 view .LVU1643
 4179              		.loc 2 498 10 is_stmt 0 view .LVU1644
ARM GAS  /tmp/ccjGnpiF.s 			page 125


 4180 022c 1BBA     		rev	r3, r3
 4181              	.LVL608:
 4182              		.loc 2 498 10 view .LVU1645
 4183              	.LBE431:
 4184              	.LBE430:
1256:Drivers/STM32F4xx_StdPeriph_Driver/src/stm32f4xx_cryp_aes.c ****     keyaddr+=4;
 4185              		.loc 1 1256 45 view .LVU1646
 4186 022e 1693     		str	r3, [sp, #88]
1257:Drivers/STM32F4xx_StdPeriph_Driver/src/stm32f4xx_cryp_aes.c ****     AES_CRYP_KeyInitStructure.CRYP_Key1Right= __REV(*(uint32_t*)(keyaddr));
 4187              		.loc 1 1257 5 is_stmt 1 view .LVU1647
 4188              	.LVL609:
1258:Drivers/STM32F4xx_StdPeriph_Driver/src/stm32f4xx_cryp_aes.c ****     keyaddr+=4;
 4189              		.loc 1 1258 5 view .LVU1648
1258:Drivers/STM32F4xx_StdPeriph_Driver/src/stm32f4xx_cryp_aes.c ****     keyaddr+=4;
 4190              		.loc 1 1258 47 is_stmt 0 view .LVU1649
 4191 0230 7B68     		ldr	r3, [r7, #4]
 4192              	.LVL610:
 4193              	.LBB432:
 4194              	.LBI432:
 495:Drivers/CMSIS/Include/core_cmInstr.h **** {
 4195              		.loc 2 495 57 is_stmt 1 view .LVU1650
 4196              	.LBB433:
 4197              		.loc 2 498 3 view .LVU1651
 4198              		.loc 2 498 10 is_stmt 0 view .LVU1652
 4199 0232 1BBA     		rev	r3, r3
 4200              	.LVL611:
 4201              		.loc 2 498 10 view .LVU1653
 4202              	.LBE433:
 4203              	.LBE432:
1258:Drivers/STM32F4xx_StdPeriph_Driver/src/stm32f4xx_cryp_aes.c ****     keyaddr+=4;
 4204              		.loc 1 1258 45 view .LVU1654
 4205 0234 1793     		str	r3, [sp, #92]
1259:Drivers/STM32F4xx_StdPeriph_Driver/src/stm32f4xx_cryp_aes.c ****     AES_CRYP_KeyInitStructure.CRYP_Key2Left = __REV(*(uint32_t*)(keyaddr));
 4206              		.loc 1 1259 5 is_stmt 1 view .LVU1655
 4207              	.LVL612:
1260:Drivers/STM32F4xx_StdPeriph_Driver/src/stm32f4xx_cryp_aes.c ****     keyaddr+=4;
 4208              		.loc 1 1260 5 view .LVU1656
1260:Drivers/STM32F4xx_StdPeriph_Driver/src/stm32f4xx_cryp_aes.c ****     keyaddr+=4;
 4209              		.loc 1 1260 47 is_stmt 0 view .LVU1657
 4210 0236 BB68     		ldr	r3, [r7, #8]
 4211              	.LVL613:
 4212              	.LBB434:
 4213              	.LBI434:
 495:Drivers/CMSIS/Include/core_cmInstr.h **** {
 4214              		.loc 2 495 57 is_stmt 1 view .LVU1658
 4215              	.LBB435:
 4216              		.loc 2 498 3 view .LVU1659
 4217              		.loc 2 498 10 is_stmt 0 view .LVU1660
 4218 0238 1BBA     		rev	r3, r3
 4219              	.LVL614:
 4220              		.loc 2 498 10 view .LVU1661
 4221              	.LBE435:
 4222              	.LBE434:
1260:Drivers/STM32F4xx_StdPeriph_Driver/src/stm32f4xx_cryp_aes.c ****     keyaddr+=4;
 4223              		.loc 1 1260 45 view .LVU1662
 4224 023a 1893     		str	r3, [sp, #96]
1261:Drivers/STM32F4xx_StdPeriph_Driver/src/stm32f4xx_cryp_aes.c ****     AES_CRYP_KeyInitStructure.CRYP_Key2Right= __REV(*(uint32_t*)(keyaddr));
ARM GAS  /tmp/ccjGnpiF.s 			page 126


 4225              		.loc 1 1261 5 is_stmt 1 view .LVU1663
 4226              	.LVL615:
1262:Drivers/STM32F4xx_StdPeriph_Driver/src/stm32f4xx_cryp_aes.c ****     keyaddr+=4;
 4227              		.loc 1 1262 5 view .LVU1664
1262:Drivers/STM32F4xx_StdPeriph_Driver/src/stm32f4xx_cryp_aes.c ****     keyaddr+=4;
 4228              		.loc 1 1262 47 is_stmt 0 view .LVU1665
 4229 023c FB68     		ldr	r3, [r7, #12]
 4230              	.LVL616:
 4231              	.LBB436:
 4232              	.LBI436:
 495:Drivers/CMSIS/Include/core_cmInstr.h **** {
 4233              		.loc 2 495 57 is_stmt 1 view .LVU1666
 4234              	.LBB437:
 4235              		.loc 2 498 3 view .LVU1667
 4236              		.loc 2 498 10 is_stmt 0 view .LVU1668
 4237 023e 1BBA     		rev	r3, r3
 4238              	.LVL617:
 4239              		.loc 2 498 10 view .LVU1669
 4240              	.LBE437:
 4241              	.LBE436:
1262:Drivers/STM32F4xx_StdPeriph_Driver/src/stm32f4xx_cryp_aes.c ****     keyaddr+=4;
 4242              		.loc 1 1262 45 view .LVU1670
 4243 0240 1993     		str	r3, [sp, #100]
1263:Drivers/STM32F4xx_StdPeriph_Driver/src/stm32f4xx_cryp_aes.c ****     AES_CRYP_KeyInitStructure.CRYP_Key3Left = __REV(*(uint32_t*)(keyaddr));
 4244              		.loc 1 1263 5 is_stmt 1 view .LVU1671
 4245              	.LVL618:
1264:Drivers/STM32F4xx_StdPeriph_Driver/src/stm32f4xx_cryp_aes.c ****     keyaddr+=4;
 4246              		.loc 1 1264 5 view .LVU1672
1264:Drivers/STM32F4xx_StdPeriph_Driver/src/stm32f4xx_cryp_aes.c ****     keyaddr+=4;
 4247              		.loc 1 1264 47 is_stmt 0 view .LVU1673
 4248 0242 3B69     		ldr	r3, [r7, #16]
 4249              	.LVL619:
 4250              	.LBB438:
 4251              	.LBI438:
 495:Drivers/CMSIS/Include/core_cmInstr.h **** {
 4252              		.loc 2 495 57 is_stmt 1 view .LVU1674
 4253              	.LBB439:
 4254              		.loc 2 498 3 view .LVU1675
 4255              		.loc 2 498 10 is_stmt 0 view .LVU1676
 4256 0244 1BBA     		rev	r3, r3
 4257              	.LVL620:
 4258              		.loc 2 498 10 view .LVU1677
 4259              	.LBE439:
 4260              	.LBE438:
1264:Drivers/STM32F4xx_StdPeriph_Driver/src/stm32f4xx_cryp_aes.c ****     keyaddr+=4;
 4261              		.loc 1 1264 45 view .LVU1678
 4262 0246 1A93     		str	r3, [sp, #104]
1265:Drivers/STM32F4xx_StdPeriph_Driver/src/stm32f4xx_cryp_aes.c ****     AES_CRYP_KeyInitStructure.CRYP_Key3Right= __REV(*(uint32_t*)(keyaddr));
 4263              		.loc 1 1265 5 is_stmt 1 view .LVU1679
 4264              	.LVL621:
1266:Drivers/STM32F4xx_StdPeriph_Driver/src/stm32f4xx_cryp_aes.c ****     break;
 4265              		.loc 1 1266 5 view .LVU1680
1266:Drivers/STM32F4xx_StdPeriph_Driver/src/stm32f4xx_cryp_aes.c ****     break;
 4266              		.loc 1 1266 47 is_stmt 0 view .LVU1681
 4267 0248 7B69     		ldr	r3, [r7, #20]
 4268              	.LVL622:
 4269              	.LBB440:
ARM GAS  /tmp/ccjGnpiF.s 			page 127


 4270              	.LBI440:
 495:Drivers/CMSIS/Include/core_cmInstr.h **** {
 4271              		.loc 2 495 57 is_stmt 1 view .LVU1682
 4272              	.LBB441:
 4273              		.loc 2 498 3 view .LVU1683
 4274              		.loc 2 498 10 is_stmt 0 view .LVU1684
 4275 024a 1BBA     		rev	r3, r3
 4276              	.LVL623:
 4277              		.loc 2 498 10 view .LVU1685
 4278              	.LBE441:
 4279              	.LBE440:
1266:Drivers/STM32F4xx_StdPeriph_Driver/src/stm32f4xx_cryp_aes.c ****     break;
 4280              		.loc 1 1266 45 view .LVU1686
 4281 024c 1B93     		str	r3, [sp, #108]
1267:Drivers/STM32F4xx_StdPeriph_Driver/src/stm32f4xx_cryp_aes.c ****     case 256:
 4282              		.loc 1 1267 5 is_stmt 1 view .LVU1687
 4283 024e 8CE7     		b	.L122
 4284              	.LVL624:
 4285              	.L121:
1269:Drivers/STM32F4xx_StdPeriph_Driver/src/stm32f4xx_cryp_aes.c ****     AES_CRYP_KeyInitStructure.CRYP_Key0Left = __REV(*(uint32_t*)(keyaddr));
 4286              		.loc 1 1269 5 view .LVU1688
1269:Drivers/STM32F4xx_StdPeriph_Driver/src/stm32f4xx_cryp_aes.c ****     AES_CRYP_KeyInitStructure.CRYP_Key0Left = __REV(*(uint32_t*)(keyaddr));
 4287              		.loc 1 1269 42 is_stmt 0 view .LVU1689
 4288 0250 4FF40073 		mov	r3, #512
 4289 0254 1F93     		str	r3, [sp, #124]
1270:Drivers/STM32F4xx_StdPeriph_Driver/src/stm32f4xx_cryp_aes.c ****     keyaddr+=4;
 4290              		.loc 1 1270 5 is_stmt 1 view .LVU1690
1270:Drivers/STM32F4xx_StdPeriph_Driver/src/stm32f4xx_cryp_aes.c ****     keyaddr+=4;
 4291              		.loc 1 1270 47 is_stmt 0 view .LVU1691
 4292 0256 3B68     		ldr	r3, [r7]
 4293              	.LVL625:
 4294              	.LBB442:
 4295              	.LBI442:
 495:Drivers/CMSIS/Include/core_cmInstr.h **** {
 4296              		.loc 2 495 57 is_stmt 1 view .LVU1692
 4297              	.LBB443:
 4298              		.loc 2 498 3 view .LVU1693
 4299              		.loc 2 498 10 is_stmt 0 view .LVU1694
 4300 0258 1BBA     		rev	r3, r3
 4301              	.LVL626:
 4302              		.loc 2 498 10 view .LVU1695
 4303              	.LBE443:
 4304              	.LBE442:
1270:Drivers/STM32F4xx_StdPeriph_Driver/src/stm32f4xx_cryp_aes.c ****     keyaddr+=4;
 4305              		.loc 1 1270 45 view .LVU1696
 4306 025a 1493     		str	r3, [sp, #80]
1271:Drivers/STM32F4xx_StdPeriph_Driver/src/stm32f4xx_cryp_aes.c ****     AES_CRYP_KeyInitStructure.CRYP_Key0Right= __REV(*(uint32_t*)(keyaddr));
 4307              		.loc 1 1271 5 is_stmt 1 view .LVU1697
 4308              	.LVL627:
1272:Drivers/STM32F4xx_StdPeriph_Driver/src/stm32f4xx_cryp_aes.c ****     keyaddr+=4;
 4309              		.loc 1 1272 5 view .LVU1698
1272:Drivers/STM32F4xx_StdPeriph_Driver/src/stm32f4xx_cryp_aes.c ****     keyaddr+=4;
 4310              		.loc 1 1272 47 is_stmt 0 view .LVU1699
 4311 025c 7B68     		ldr	r3, [r7, #4]
 4312              	.LVL628:
 4313              	.LBB444:
 4314              	.LBI444:
ARM GAS  /tmp/ccjGnpiF.s 			page 128


 495:Drivers/CMSIS/Include/core_cmInstr.h **** {
 4315              		.loc 2 495 57 is_stmt 1 view .LVU1700
 4316              	.LBB445:
 4317              		.loc 2 498 3 view .LVU1701
 4318              		.loc 2 498 10 is_stmt 0 view .LVU1702
 4319 025e 1BBA     		rev	r3, r3
 4320              	.LVL629:
 4321              		.loc 2 498 10 view .LVU1703
 4322              	.LBE445:
 4323              	.LBE444:
1272:Drivers/STM32F4xx_StdPeriph_Driver/src/stm32f4xx_cryp_aes.c ****     keyaddr+=4;
 4324              		.loc 1 1272 45 view .LVU1704
 4325 0260 1593     		str	r3, [sp, #84]
1273:Drivers/STM32F4xx_StdPeriph_Driver/src/stm32f4xx_cryp_aes.c ****     AES_CRYP_KeyInitStructure.CRYP_Key1Left = __REV(*(uint32_t*)(keyaddr));
 4326              		.loc 1 1273 5 is_stmt 1 view .LVU1705
 4327              	.LVL630:
1274:Drivers/STM32F4xx_StdPeriph_Driver/src/stm32f4xx_cryp_aes.c ****     keyaddr+=4;
 4328              		.loc 1 1274 5 view .LVU1706
1274:Drivers/STM32F4xx_StdPeriph_Driver/src/stm32f4xx_cryp_aes.c ****     keyaddr+=4;
 4329              		.loc 1 1274 47 is_stmt 0 view .LVU1707
 4330 0262 BB68     		ldr	r3, [r7, #8]
 4331              	.LVL631:
 4332              	.LBB446:
 4333              	.LBI446:
 495:Drivers/CMSIS/Include/core_cmInstr.h **** {
 4334              		.loc 2 495 57 is_stmt 1 view .LVU1708
 4335              	.LBB447:
 4336              		.loc 2 498 3 view .LVU1709
 4337              		.loc 2 498 10 is_stmt 0 view .LVU1710
 4338 0264 1BBA     		rev	r3, r3
 4339              	.LVL632:
 4340              		.loc 2 498 10 view .LVU1711
 4341              	.LBE447:
 4342              	.LBE446:
1274:Drivers/STM32F4xx_StdPeriph_Driver/src/stm32f4xx_cryp_aes.c ****     keyaddr+=4;
 4343              		.loc 1 1274 45 view .LVU1712
 4344 0266 1693     		str	r3, [sp, #88]
1275:Drivers/STM32F4xx_StdPeriph_Driver/src/stm32f4xx_cryp_aes.c ****     AES_CRYP_KeyInitStructure.CRYP_Key1Right= __REV(*(uint32_t*)(keyaddr));
 4345              		.loc 1 1275 5 is_stmt 1 view .LVU1713
 4346              	.LVL633:
1276:Drivers/STM32F4xx_StdPeriph_Driver/src/stm32f4xx_cryp_aes.c ****     keyaddr+=4;
 4347              		.loc 1 1276 5 view .LVU1714
1276:Drivers/STM32F4xx_StdPeriph_Driver/src/stm32f4xx_cryp_aes.c ****     keyaddr+=4;
 4348              		.loc 1 1276 47 is_stmt 0 view .LVU1715
 4349 0268 FB68     		ldr	r3, [r7, #12]
 4350              	.LVL634:
 4351              	.LBB448:
 4352              	.LBI448:
 495:Drivers/CMSIS/Include/core_cmInstr.h **** {
 4353              		.loc 2 495 57 is_stmt 1 view .LVU1716
 4354              	.LBB449:
 4355              		.loc 2 498 3 view .LVU1717
 4356              		.loc 2 498 10 is_stmt 0 view .LVU1718
 4357 026a 1BBA     		rev	r3, r3
 4358              	.LVL635:
 4359              		.loc 2 498 10 view .LVU1719
 4360              	.LBE449:
ARM GAS  /tmp/ccjGnpiF.s 			page 129


 4361              	.LBE448:
1276:Drivers/STM32F4xx_StdPeriph_Driver/src/stm32f4xx_cryp_aes.c ****     keyaddr+=4;
 4362              		.loc 1 1276 45 view .LVU1720
 4363 026c 1793     		str	r3, [sp, #92]
1277:Drivers/STM32F4xx_StdPeriph_Driver/src/stm32f4xx_cryp_aes.c ****     AES_CRYP_KeyInitStructure.CRYP_Key2Left = __REV(*(uint32_t*)(keyaddr));
 4364              		.loc 1 1277 5 is_stmt 1 view .LVU1721
 4365              	.LVL636:
1278:Drivers/STM32F4xx_StdPeriph_Driver/src/stm32f4xx_cryp_aes.c ****     keyaddr+=4;
 4366              		.loc 1 1278 5 view .LVU1722
1278:Drivers/STM32F4xx_StdPeriph_Driver/src/stm32f4xx_cryp_aes.c ****     keyaddr+=4;
 4367              		.loc 1 1278 47 is_stmt 0 view .LVU1723
 4368 026e 3B69     		ldr	r3, [r7, #16]
 4369              	.LVL637:
 4370              	.LBB450:
 4371              	.LBI450:
 495:Drivers/CMSIS/Include/core_cmInstr.h **** {
 4372              		.loc 2 495 57 is_stmt 1 view .LVU1724
 4373              	.LBB451:
 4374              		.loc 2 498 3 view .LVU1725
 4375              		.loc 2 498 10 is_stmt 0 view .LVU1726
 4376 0270 1BBA     		rev	r3, r3
 4377              	.LVL638:
 4378              		.loc 2 498 10 view .LVU1727
 4379              	.LBE451:
 4380              	.LBE450:
1278:Drivers/STM32F4xx_StdPeriph_Driver/src/stm32f4xx_cryp_aes.c ****     keyaddr+=4;
 4381              		.loc 1 1278 45 view .LVU1728
 4382 0272 1893     		str	r3, [sp, #96]
1279:Drivers/STM32F4xx_StdPeriph_Driver/src/stm32f4xx_cryp_aes.c ****     AES_CRYP_KeyInitStructure.CRYP_Key2Right= __REV(*(uint32_t*)(keyaddr));
 4383              		.loc 1 1279 5 is_stmt 1 view .LVU1729
 4384              	.LVL639:
1280:Drivers/STM32F4xx_StdPeriph_Driver/src/stm32f4xx_cryp_aes.c ****     keyaddr+=4;
 4385              		.loc 1 1280 5 view .LVU1730
1280:Drivers/STM32F4xx_StdPeriph_Driver/src/stm32f4xx_cryp_aes.c ****     keyaddr+=4;
 4386              		.loc 1 1280 47 is_stmt 0 view .LVU1731
 4387 0274 7B69     		ldr	r3, [r7, #20]
 4388              	.LVL640:
 4389              	.LBB452:
 4390              	.LBI452:
 495:Drivers/CMSIS/Include/core_cmInstr.h **** {
 4391              		.loc 2 495 57 is_stmt 1 view .LVU1732
 4392              	.LBB453:
 4393              		.loc 2 498 3 view .LVU1733
 4394              		.loc 2 498 10 is_stmt 0 view .LVU1734
 4395 0276 1BBA     		rev	r3, r3
 4396              	.LVL641:
 4397              		.loc 2 498 10 view .LVU1735
 4398              	.LBE453:
 4399              	.LBE452:
1280:Drivers/STM32F4xx_StdPeriph_Driver/src/stm32f4xx_cryp_aes.c ****     keyaddr+=4;
 4400              		.loc 1 1280 45 view .LVU1736
 4401 0278 1993     		str	r3, [sp, #100]
1281:Drivers/STM32F4xx_StdPeriph_Driver/src/stm32f4xx_cryp_aes.c ****     AES_CRYP_KeyInitStructure.CRYP_Key3Left = __REV(*(uint32_t*)(keyaddr));
 4402              		.loc 1 1281 5 is_stmt 1 view .LVU1737
 4403              	.LVL642:
1282:Drivers/STM32F4xx_StdPeriph_Driver/src/stm32f4xx_cryp_aes.c ****     keyaddr+=4;
 4404              		.loc 1 1282 5 view .LVU1738
ARM GAS  /tmp/ccjGnpiF.s 			page 130


1282:Drivers/STM32F4xx_StdPeriph_Driver/src/stm32f4xx_cryp_aes.c ****     keyaddr+=4;
 4405              		.loc 1 1282 47 is_stmt 0 view .LVU1739
 4406 027a BB69     		ldr	r3, [r7, #24]
 4407              	.LVL643:
 4408              	.LBB454:
 4409              	.LBI454:
 495:Drivers/CMSIS/Include/core_cmInstr.h **** {
 4410              		.loc 2 495 57 is_stmt 1 view .LVU1740
 4411              	.LBB455:
 4412              		.loc 2 498 3 view .LVU1741
 4413              		.loc 2 498 10 is_stmt 0 view .LVU1742
 4414 027c 1BBA     		rev	r3, r3
 4415              	.LVL644:
 4416              		.loc 2 498 10 view .LVU1743
 4417              	.LBE455:
 4418              	.LBE454:
1282:Drivers/STM32F4xx_StdPeriph_Driver/src/stm32f4xx_cryp_aes.c ****     keyaddr+=4;
 4419              		.loc 1 1282 45 view .LVU1744
 4420 027e 1A93     		str	r3, [sp, #104]
1283:Drivers/STM32F4xx_StdPeriph_Driver/src/stm32f4xx_cryp_aes.c ****     AES_CRYP_KeyInitStructure.CRYP_Key3Right= __REV(*(uint32_t*)(keyaddr));
 4421              		.loc 1 1283 5 is_stmt 1 view .LVU1745
 4422              	.LVL645:
1284:Drivers/STM32F4xx_StdPeriph_Driver/src/stm32f4xx_cryp_aes.c ****     break;
 4423              		.loc 1 1284 5 view .LVU1746
1284:Drivers/STM32F4xx_StdPeriph_Driver/src/stm32f4xx_cryp_aes.c ****     break;
 4424              		.loc 1 1284 47 is_stmt 0 view .LVU1747
 4425 0280 FB69     		ldr	r3, [r7, #28]
 4426              	.LVL646:
 4427              	.LBB456:
 4428              	.LBI456:
 495:Drivers/CMSIS/Include/core_cmInstr.h **** {
 4429              		.loc 2 495 57 is_stmt 1 view .LVU1748
 4430              	.LBB457:
 4431              		.loc 2 498 3 view .LVU1749
 4432              		.loc 2 498 10 is_stmt 0 view .LVU1750
 4433 0282 1BBA     		rev	r3, r3
 4434              	.LVL647:
 4435              		.loc 2 498 10 view .LVU1751
 4436              	.LBE457:
 4437              	.LBE456:
1284:Drivers/STM32F4xx_StdPeriph_Driver/src/stm32f4xx_cryp_aes.c ****     break;
 4438              		.loc 1 1284 45 view .LVU1752
 4439 0284 1B93     		str	r3, [sp, #108]
1285:Drivers/STM32F4xx_StdPeriph_Driver/src/stm32f4xx_cryp_aes.c ****     default:
 4440              		.loc 1 1285 5 is_stmt 1 view .LVU1753
 4441 0286 70E7     		b	.L122
 4442              	.LVL648:
 4443              	.L166:
1303:Drivers/STM32F4xx_StdPeriph_Driver/src/stm32f4xx_cryp_aes.c ****     
 4444              		.loc 1 1303 5 view .LVU1754
 4445 0288 FFF7FEFF 		bl	CRYP_FIFOFlush
 4446              	.LVL649:
1306:Drivers/STM32F4xx_StdPeriph_Driver/src/stm32f4xx_cryp_aes.c ****     
 4447              		.loc 1 1306 5 view .LVU1755
 4448 028c 14A8     		add	r0, sp, #80
 4449 028e FFF7FEFF 		bl	CRYP_KeyInit
 4450              	.LVL650:
ARM GAS  /tmp/ccjGnpiF.s 			page 131


1309:Drivers/STM32F4xx_StdPeriph_Driver/src/stm32f4xx_cryp_aes.c ****     
 4451              		.loc 1 1309 5 view .LVU1756
 4452 0292 10A8     		add	r0, sp, #64
 4453 0294 FFF7FEFF 		bl	CRYP_IVInit
 4454              	.LVL651:
1312:Drivers/STM32F4xx_StdPeriph_Driver/src/stm32f4xx_cryp_aes.c ****     AES_CRYP_InitStructure.CRYP_AlgoMode = CRYP_AlgoMode_AES_CCM;
 4455              		.loc 1 1312 5 view .LVU1757
1312:Drivers/STM32F4xx_StdPeriph_Driver/src/stm32f4xx_cryp_aes.c ****     AES_CRYP_InitStructure.CRYP_AlgoMode = CRYP_AlgoMode_AES_CCM;
 4456              		.loc 1 1312 41 is_stmt 0 view .LVU1758
 4457 0298 0027     		movs	r7, #0
 4458              	.LVL652:
1312:Drivers/STM32F4xx_StdPeriph_Driver/src/stm32f4xx_cryp_aes.c ****     AES_CRYP_InitStructure.CRYP_AlgoMode = CRYP_AlgoMode_AES_CCM;
 4459              		.loc 1 1312 41 view .LVU1759
 4460 029a 1C97     		str	r7, [sp, #112]
1313:Drivers/STM32F4xx_StdPeriph_Driver/src/stm32f4xx_cryp_aes.c ****     AES_CRYP_InitStructure.CRYP_DataType = CRYP_DataType_8b;
 4461              		.loc 1 1313 5 is_stmt 1 view .LVU1760
1313:Drivers/STM32F4xx_StdPeriph_Driver/src/stm32f4xx_cryp_aes.c ****     AES_CRYP_InitStructure.CRYP_DataType = CRYP_DataType_8b;
 4462              		.loc 1 1313 42 is_stmt 0 view .LVU1761
 4463 029c 4FF00813 		mov	r3, #524296
 4464 02a0 1D93     		str	r3, [sp, #116]
1314:Drivers/STM32F4xx_StdPeriph_Driver/src/stm32f4xx_cryp_aes.c ****     CRYP_Init(&AES_CRYP_InitStructure);
 4465              		.loc 1 1314 5 is_stmt 1 view .LVU1762
1314:Drivers/STM32F4xx_StdPeriph_Driver/src/stm32f4xx_cryp_aes.c ****     CRYP_Init(&AES_CRYP_InitStructure);
 4466              		.loc 1 1314 42 is_stmt 0 view .LVU1763
 4467 02a2 8023     		movs	r3, #128
 4468 02a4 1E93     		str	r3, [sp, #120]
1315:Drivers/STM32F4xx_StdPeriph_Driver/src/stm32f4xx_cryp_aes.c ****     
 4469              		.loc 1 1315 5 is_stmt 1 view .LVU1764
 4470 02a6 1CA8     		add	r0, sp, #112
 4471 02a8 FFF7FEFF 		bl	CRYP_Init
 4472              	.LVL653:
1319:Drivers/STM32F4xx_StdPeriph_Driver/src/stm32f4xx_cryp_aes.c ****     
 4473              		.loc 1 1319 5 view .LVU1765
 4474 02ac 3846     		mov	r0, r7
 4475 02ae FFF7FEFF 		bl	CRYP_PhaseConfig
 4476              	.LVL654:
1321:Drivers/STM32F4xx_StdPeriph_Driver/src/stm32f4xx_cryp_aes.c ****     /* Write the blockb0 block in the IN FIFO */
 4477              		.loc 1 1321 5 view .LVU1766
1323:Drivers/STM32F4xx_StdPeriph_Driver/src/stm32f4xx_cryp_aes.c ****     b0addr+=4;
 4478              		.loc 1 1323 5 view .LVU1767
 4479 02b2 0B98     		ldr	r0, [sp, #44]
 4480 02b4 FFF7FEFF 		bl	CRYP_DataIn
 4481              	.LVL655:
1324:Drivers/STM32F4xx_StdPeriph_Driver/src/stm32f4xx_cryp_aes.c ****     CRYP_DataIn((*(uint32_t*)(b0addr)));
 4482              		.loc 1 1324 5 view .LVU1768
1325:Drivers/STM32F4xx_StdPeriph_Driver/src/stm32f4xx_cryp_aes.c ****     b0addr+=4;
 4483              		.loc 1 1325 5 view .LVU1769
 4484 02b8 0C98     		ldr	r0, [sp, #48]
 4485 02ba FFF7FEFF 		bl	CRYP_DataIn
 4486              	.LVL656:
1326:Drivers/STM32F4xx_StdPeriph_Driver/src/stm32f4xx_cryp_aes.c ****     CRYP_DataIn((*(uint32_t*)(b0addr)));
 4487              		.loc 1 1326 5 view .LVU1770
1327:Drivers/STM32F4xx_StdPeriph_Driver/src/stm32f4xx_cryp_aes.c ****     b0addr+=4;
 4488              		.loc 1 1327 5 view .LVU1771
 4489 02be 0D98     		ldr	r0, [sp, #52]
 4490 02c0 FFF7FEFF 		bl	CRYP_DataIn
 4491              	.LVL657:
ARM GAS  /tmp/ccjGnpiF.s 			page 132


1328:Drivers/STM32F4xx_StdPeriph_Driver/src/stm32f4xx_cryp_aes.c ****     CRYP_DataIn((*(uint32_t*)(b0addr)));
 4492              		.loc 1 1328 5 view .LVU1772
1329:Drivers/STM32F4xx_StdPeriph_Driver/src/stm32f4xx_cryp_aes.c ****     
 4493              		.loc 1 1329 5 view .LVU1773
 4494 02c4 0E98     		ldr	r0, [sp, #56]
 4495 02c6 FFF7FEFF 		bl	CRYP_DataIn
 4496              	.LVL658:
1332:Drivers/STM32F4xx_StdPeriph_Driver/src/stm32f4xx_cryp_aes.c ****     
 4497              		.loc 1 1332 5 view .LVU1774
 4498 02ca 0120     		movs	r0, #1
 4499 02cc FFF7FEFF 		bl	CRYP_Cmd
 4500              	.LVL659:
1335:Drivers/STM32F4xx_StdPeriph_Driver/src/stm32f4xx_cryp_aes.c ****     {
 4501              		.loc 1 1335 5 view .LVU1775
 4502              	.L124:
1337:Drivers/STM32F4xx_StdPeriph_Driver/src/stm32f4xx_cryp_aes.c ****     /***************************** header phase *******************************/
 4503              		.loc 1 1337 5 discriminator 1 view .LVU1776
1335:Drivers/STM32F4xx_StdPeriph_Driver/src/stm32f4xx_cryp_aes.c ****     {
 4504              		.loc 1 1335 10 discriminator 1 view .LVU1777
1335:Drivers/STM32F4xx_StdPeriph_Driver/src/stm32f4xx_cryp_aes.c ****     {
 4505              		.loc 1 1335 11 is_stmt 0 discriminator 1 view .LVU1778
 4506 02d0 FFF7FEFF 		bl	CRYP_GetCmdStatus
 4507              	.LVL660:
1335:Drivers/STM32F4xx_StdPeriph_Driver/src/stm32f4xx_cryp_aes.c ****     {
 4508              		.loc 1 1335 10 discriminator 1 view .LVU1779
 4509 02d4 0128     		cmp	r0, #1
 4510 02d6 FBD0     		beq	.L124
1339:Drivers/STM32F4xx_StdPeriph_Driver/src/stm32f4xx_cryp_aes.c ****     {
 4511              		.loc 1 1339 5 is_stmt 1 view .LVU1780
1339:Drivers/STM32F4xx_StdPeriph_Driver/src/stm32f4xx_cryp_aes.c ****     {
 4512              		.loc 1 1339 7 is_stmt 0 view .LVU1781
 4513 02d8 9CB9     		cbnz	r4, .L168
 4514              	.LVL661:
 4515              	.L125:
1387:Drivers/STM32F4xx_StdPeriph_Driver/src/stm32f4xx_cryp_aes.c ****     {
 4516              		.loc 1 1387 5 is_stmt 1 view .LVU1782
1387:Drivers/STM32F4xx_StdPeriph_Driver/src/stm32f4xx_cryp_aes.c ****     {
 4517              		.loc 1 1387 7 is_stmt 0 view .LVU1783
 4518 02da B8F1000F 		cmp	r8, #0
 4519 02de 00F08A80 		beq	.L131
1390:Drivers/STM32F4xx_StdPeriph_Driver/src/stm32f4xx_cryp_aes.c ****       
 4520              		.loc 1 1390 7 is_stmt 1 view .LVU1784
 4521 02e2 4FF40030 		mov	r0, #131072
 4522 02e6 FFF7FEFF 		bl	CRYP_PhaseConfig
 4523              	.LVL662:
1393:Drivers/STM32F4xx_StdPeriph_Driver/src/stm32f4xx_cryp_aes.c ****       
 4524              		.loc 1 1393 7 view .LVU1785
 4525 02ea 0120     		movs	r0, #1
 4526 02ec FFF7FEFF 		bl	CRYP_Cmd
 4527              	.LVL663:
1395:Drivers/STM32F4xx_StdPeriph_Driver/src/stm32f4xx_cryp_aes.c ****       {
 4528              		.loc 1 1395 7 view .LVU1786
1395:Drivers/STM32F4xx_StdPeriph_Driver/src/stm32f4xx_cryp_aes.c ****       {
 4529              		.loc 1 1395 10 is_stmt 0 view .LVU1787
 4530 02f0 FFF7FEFF 		bl	CRYP_GetCmdStatus
 4531              	.LVL664:
1395:Drivers/STM32F4xx_StdPeriph_Driver/src/stm32f4xx_cryp_aes.c ****       {
ARM GAS  /tmp/ccjGnpiF.s 			page 133


 4532              		.loc 1 1395 9 view .LVU1788
 4533 02f4 0746     		mov	r7, r0
 4534 02f6 0028     		cmp	r0, #0
 4535 02f8 00F05981 		beq	.L126
1402:Drivers/STM32F4xx_StdPeriph_Driver/src/stm32f4xx_cryp_aes.c ****       {
 4536              		.loc 1 1402 23 view .LVU1789
 4537 02fc 0024     		movs	r4, #0
 4538              	.LVL665:
1402:Drivers/STM32F4xx_StdPeriph_Driver/src/stm32f4xx_cryp_aes.c ****       {
 4539              		.loc 1 1402 23 view .LVU1790
 4540 02fe 019E     		ldr	r6, [sp, #4]
 4541              	.LVL666:
1402:Drivers/STM32F4xx_StdPeriph_Driver/src/stm32f4xx_cryp_aes.c ****       {
 4542              		.loc 1 1402 23 view .LVU1791
 4543 0300 39E0     		b	.L132
 4544              	.LVL667:
 4545              	.L168:
1342:Drivers/STM32F4xx_StdPeriph_Driver/src/stm32f4xx_cryp_aes.c ****       
 4546              		.loc 1 1342 7 is_stmt 1 view .LVU1792
 4547 0302 4FF48030 		mov	r0, #65536
 4548 0306 FFF7FEFF 		bl	CRYP_PhaseConfig
 4549              	.LVL668:
1345:Drivers/STM32F4xx_StdPeriph_Driver/src/stm32f4xx_cryp_aes.c ****       
 4550              		.loc 1 1345 7 view .LVU1793
 4551 030a 0120     		movs	r0, #1
 4552 030c FFF7FEFF 		bl	CRYP_Cmd
 4553              	.LVL669:
1347:Drivers/STM32F4xx_StdPeriph_Driver/src/stm32f4xx_cryp_aes.c ****       {
 4554              		.loc 1 1347 7 view .LVU1794
1347:Drivers/STM32F4xx_StdPeriph_Driver/src/stm32f4xx_cryp_aes.c ****       {
 4555              		.loc 1 1347 10 is_stmt 0 view .LVU1795
 4556 0310 FFF7FEFF 		bl	CRYP_GetCmdStatus
 4557              	.LVL670:
1347:Drivers/STM32F4xx_StdPeriph_Driver/src/stm32f4xx_cryp_aes.c ****       {
 4558              		.loc 1 1347 9 view .LVU1796
 4559 0314 0746     		mov	r7, r0
 4560 0316 0028     		cmp	r0, #0
 4561 0318 00F04981 		beq	.L126
1354:Drivers/STM32F4xx_StdPeriph_Driver/src/stm32f4xx_cryp_aes.c ****       {
 4562              		.loc 1 1354 23 view .LVU1797
 4563 031c 0027     		movs	r7, #0
 4564 031e 12E0     		b	.L127
 4565              	.LVL671:
 4566              	.L128:
1359:Drivers/STM32F4xx_StdPeriph_Driver/src/stm32f4xx_cryp_aes.c ****         
 4567              		.loc 1 1359 9 is_stmt 1 discriminator 1 view .LVU1798
1357:Drivers/STM32F4xx_StdPeriph_Driver/src/stm32f4xx_cryp_aes.c ****         {
 4568              		.loc 1 1357 14 discriminator 1 view .LVU1799
1357:Drivers/STM32F4xx_StdPeriph_Driver/src/stm32f4xx_cryp_aes.c ****         {
 4569              		.loc 1 1357 15 is_stmt 0 discriminator 1 view .LVU1800
 4570 0320 0120     		movs	r0, #1
 4571 0322 FFF7FEFF 		bl	CRYP_GetFlagStatus
 4572              	.LVL672:
1357:Drivers/STM32F4xx_StdPeriph_Driver/src/stm32f4xx_cryp_aes.c ****         {
 4573              		.loc 1 1357 14 discriminator 1 view .LVU1801
 4574 0326 0028     		cmp	r0, #0
 4575 0328 FAD0     		beq	.L128
ARM GAS  /tmp/ccjGnpiF.s 			page 134


1362:Drivers/STM32F4xx_StdPeriph_Driver/src/stm32f4xx_cryp_aes.c ****         headeraddr+=4;
 4576              		.loc 1 1362 9 is_stmt 1 discriminator 2 view .LVU1802
 4577 032a 3068     		ldr	r0, [r6]
 4578 032c FFF7FEFF 		bl	CRYP_DataIn
 4579              	.LVL673:
1363:Drivers/STM32F4xx_StdPeriph_Driver/src/stm32f4xx_cryp_aes.c ****         CRYP_DataIn(*(uint32_t*)(headeraddr));
 4580              		.loc 1 1363 9 discriminator 2 view .LVU1803
1364:Drivers/STM32F4xx_StdPeriph_Driver/src/stm32f4xx_cryp_aes.c ****         headeraddr+=4;
 4581              		.loc 1 1364 9 discriminator 2 view .LVU1804
 4582 0330 7068     		ldr	r0, [r6, #4]
 4583 0332 FFF7FEFF 		bl	CRYP_DataIn
 4584              	.LVL674:
1365:Drivers/STM32F4xx_StdPeriph_Driver/src/stm32f4xx_cryp_aes.c ****         CRYP_DataIn(*(uint32_t*)(headeraddr));
 4585              		.loc 1 1365 9 discriminator 2 view .LVU1805
1366:Drivers/STM32F4xx_StdPeriph_Driver/src/stm32f4xx_cryp_aes.c ****         headeraddr+=4;
 4586              		.loc 1 1366 9 discriminator 2 view .LVU1806
 4587 0336 B068     		ldr	r0, [r6, #8]
 4588 0338 FFF7FEFF 		bl	CRYP_DataIn
 4589              	.LVL675:
1367:Drivers/STM32F4xx_StdPeriph_Driver/src/stm32f4xx_cryp_aes.c ****         CRYP_DataIn(*(uint32_t*)(headeraddr));
 4590              		.loc 1 1367 9 discriminator 2 view .LVU1807
1368:Drivers/STM32F4xx_StdPeriph_Driver/src/stm32f4xx_cryp_aes.c ****         headeraddr+=4;
 4591              		.loc 1 1368 9 discriminator 2 view .LVU1808
 4592 033c F068     		ldr	r0, [r6, #12]
 4593 033e FFF7FEFF 		bl	CRYP_DataIn
 4594              	.LVL676:
1369:Drivers/STM32F4xx_StdPeriph_Driver/src/stm32f4xx_cryp_aes.c ****       }
 4595              		.loc 1 1369 9 discriminator 2 view .LVU1809
1369:Drivers/STM32F4xx_StdPeriph_Driver/src/stm32f4xx_cryp_aes.c ****       }
 4596              		.loc 1 1369 19 is_stmt 0 discriminator 2 view .LVU1810
 4597 0342 1036     		adds	r6, r6, #16
 4598              	.LVL677:
1354:Drivers/STM32F4xx_StdPeriph_Driver/src/stm32f4xx_cryp_aes.c ****       {
 4599              		.loc 1 1354 56 is_stmt 1 discriminator 2 view .LVU1811
1354:Drivers/STM32F4xx_StdPeriph_Driver/src/stm32f4xx_cryp_aes.c ****       {
 4600              		.loc 1 1354 67 is_stmt 0 discriminator 2 view .LVU1812
 4601 0344 1037     		adds	r7, r7, #16
 4602              	.LVL678:
 4603              	.L127:
1354:Drivers/STM32F4xx_StdPeriph_Driver/src/stm32f4xx_cryp_aes.c ****       {
 4604              		.loc 1 1354 28 is_stmt 1 discriminator 1 view .LVU1813
1354:Drivers/STM32F4xx_StdPeriph_Driver/src/stm32f4xx_cryp_aes.c ****       {
 4605              		.loc 1 1354 7 is_stmt 0 discriminator 1 view .LVU1814
 4606 0346 BC42     		cmp	r4, r7
 4607 0348 EAD8     		bhi	.L128
1373:Drivers/STM32F4xx_StdPeriph_Driver/src/stm32f4xx_cryp_aes.c ****       do
 4608              		.loc 1 1373 7 is_stmt 1 view .LVU1815
1373:Drivers/STM32F4xx_StdPeriph_Driver/src/stm32f4xx_cryp_aes.c ****       do
 4609              		.loc 1 1373 15 is_stmt 0 view .LVU1816
 4610 034a 0023     		movs	r3, #0
 4611 034c 0F93     		str	r3, [sp, #60]
 4612              	.LVL679:
 4613              	.L130:
1374:Drivers/STM32F4xx_StdPeriph_Driver/src/stm32f4xx_cryp_aes.c ****       {
 4614              		.loc 1 1374 7 is_stmt 1 discriminator 2 view .LVU1817
1376:Drivers/STM32F4xx_StdPeriph_Driver/src/stm32f4xx_cryp_aes.c ****         counter++;
 4615              		.loc 1 1376 9 discriminator 2 view .LVU1818
ARM GAS  /tmp/ccjGnpiF.s 			page 135


1376:Drivers/STM32F4xx_StdPeriph_Driver/src/stm32f4xx_cryp_aes.c ****         counter++;
 4616              		.loc 1 1376 22 is_stmt 0 discriminator 2 view .LVU1819
 4617 034e 1020     		movs	r0, #16
 4618 0350 FFF7FEFF 		bl	CRYP_GetFlagStatus
 4619              	.LVL680:
1377:Drivers/STM32F4xx_StdPeriph_Driver/src/stm32f4xx_cryp_aes.c ****       }while ((counter != AESBUSY_TIMEOUT) && (busystatus != RESET));
 4620              		.loc 1 1377 9 is_stmt 1 discriminator 2 view .LVU1820
1377:Drivers/STM32F4xx_StdPeriph_Driver/src/stm32f4xx_cryp_aes.c ****       }while ((counter != AESBUSY_TIMEOUT) && (busystatus != RESET));
 4621              		.loc 1 1377 16 is_stmt 0 discriminator 2 view .LVU1821
 4622 0354 0F9B     		ldr	r3, [sp, #60]
 4623 0356 0133     		adds	r3, r3, #1
 4624 0358 0F93     		str	r3, [sp, #60]
1378:Drivers/STM32F4xx_StdPeriph_Driver/src/stm32f4xx_cryp_aes.c **** 
 4625              		.loc 1 1378 14 is_stmt 1 discriminator 2 view .LVU1822
1378:Drivers/STM32F4xx_StdPeriph_Driver/src/stm32f4xx_cryp_aes.c **** 
 4626              		.loc 1 1378 24 is_stmt 0 discriminator 2 view .LVU1823
 4627 035a 0F9B     		ldr	r3, [sp, #60]
1378:Drivers/STM32F4xx_StdPeriph_Driver/src/stm32f4xx_cryp_aes.c **** 
 4628              		.loc 1 1378 7 discriminator 2 view .LVU1824
 4629 035c B3F5803F 		cmp	r3, #65536
 4630 0360 01D0     		beq	.L129
1378:Drivers/STM32F4xx_StdPeriph_Driver/src/stm32f4xx_cryp_aes.c **** 
 4631              		.loc 1 1378 44 discriminator 1 view .LVU1825
 4632 0362 0028     		cmp	r0, #0
 4633 0364 F3D1     		bne	.L130
 4634              	.L129:
1380:Drivers/STM32F4xx_StdPeriph_Driver/src/stm32f4xx_cryp_aes.c ****       {
 4635              		.loc 1 1380 7 is_stmt 1 view .LVU1826
1380:Drivers/STM32F4xx_StdPeriph_Driver/src/stm32f4xx_cryp_aes.c ****       {
 4636              		.loc 1 1380 10 is_stmt 0 view .LVU1827
 4637 0366 0028     		cmp	r0, #0
 4638 0368 B7D0     		beq	.L125
1382:Drivers/STM32F4xx_StdPeriph_Driver/src/stm32f4xx_cryp_aes.c ****       }
 4639              		.loc 1 1382 16 view .LVU1828
 4640 036a 0023     		movs	r3, #0
 4641 036c 0193     		str	r3, [sp, #4]
 4642 036e B4E7     		b	.L125
 4643              	.LVL681:
 4644              	.L134:
1427:Drivers/STM32F4xx_StdPeriph_Driver/src/stm32f4xx_cryp_aes.c ****         {
 4645              		.loc 1 1427 9 is_stmt 1 view .LVU1829
1427:Drivers/STM32F4xx_StdPeriph_Driver/src/stm32f4xx_cryp_aes.c ****         {
 4646              		.loc 1 1427 12 is_stmt 0 view .LVU1830
 4647 0370 30B3     		cbz	r0, .L137
1429:Drivers/STM32F4xx_StdPeriph_Driver/src/stm32f4xx_cryp_aes.c ****         }
 4648              		.loc 1 1429 18 view .LVU1831
 4649 0372 0026     		movs	r6, #0
 4650              	.LVL682:
 4651              	.L136:
1402:Drivers/STM32F4xx_StdPeriph_Driver/src/stm32f4xx_cryp_aes.c ****       {
 4652              		.loc 1 1402 76 is_stmt 1 discriminator 2 view .LVU1832
1402:Drivers/STM32F4xx_StdPeriph_Driver/src/stm32f4xx_cryp_aes.c ****       {
 4653              		.loc 1 1402 87 is_stmt 0 discriminator 2 view .LVU1833
 4654 0374 1034     		adds	r4, r4, #16
 4655              	.LVL683:
 4656              	.L132:
1402:Drivers/STM32F4xx_StdPeriph_Driver/src/stm32f4xx_cryp_aes.c ****       {
ARM GAS  /tmp/ccjGnpiF.s 			page 136


 4657              		.loc 1 1402 28 is_stmt 1 discriminator 1 view .LVU1834
1402:Drivers/STM32F4xx_StdPeriph_Driver/src/stm32f4xx_cryp_aes.c ****       {
 4658              		.loc 1 1402 7 is_stmt 0 discriminator 1 view .LVU1835
 4659 0376 4445     		cmp	r4, r8
 4660 0378 3CD2     		bcs	.L162
1402:Drivers/STM32F4xx_StdPeriph_Driver/src/stm32f4xx_cryp_aes.c ****       {
 4661              		.loc 1 1402 53 discriminator 3 view .LVU1836
 4662 037a 002E     		cmp	r6, #0
 4663 037c 38D0     		beq	.L169
 4664              	.L133:
1407:Drivers/STM32F4xx_StdPeriph_Driver/src/stm32f4xx_cryp_aes.c ****         
 4665              		.loc 1 1407 9 is_stmt 1 discriminator 1 view .LVU1837
1405:Drivers/STM32F4xx_StdPeriph_Driver/src/stm32f4xx_cryp_aes.c ****         {
 4666              		.loc 1 1405 14 discriminator 1 view .LVU1838
1405:Drivers/STM32F4xx_StdPeriph_Driver/src/stm32f4xx_cryp_aes.c ****         {
 4667              		.loc 1 1405 15 is_stmt 0 discriminator 1 view .LVU1839
 4668 037e 0120     		movs	r0, #1
 4669 0380 FFF7FEFF 		bl	CRYP_GetFlagStatus
 4670              	.LVL684:
1405:Drivers/STM32F4xx_StdPeriph_Driver/src/stm32f4xx_cryp_aes.c ****         {
 4671              		.loc 1 1405 14 discriminator 1 view .LVU1840
 4672 0384 0028     		cmp	r0, #0
 4673 0386 FAD0     		beq	.L133
1410:Drivers/STM32F4xx_StdPeriph_Driver/src/stm32f4xx_cryp_aes.c ****         inputaddr+=4;
 4674              		.loc 1 1410 9 is_stmt 1 view .LVU1841
 4675 0388 2868     		ldr	r0, [r5]
 4676 038a FFF7FEFF 		bl	CRYP_DataIn
 4677              	.LVL685:
1411:Drivers/STM32F4xx_StdPeriph_Driver/src/stm32f4xx_cryp_aes.c ****         CRYP_DataIn(*(uint32_t*)(inputaddr));
 4678              		.loc 1 1411 9 view .LVU1842
1412:Drivers/STM32F4xx_StdPeriph_Driver/src/stm32f4xx_cryp_aes.c ****         inputaddr+=4;
 4679              		.loc 1 1412 9 view .LVU1843
 4680 038e 6868     		ldr	r0, [r5, #4]
 4681 0390 FFF7FEFF 		bl	CRYP_DataIn
 4682              	.LVL686:
1413:Drivers/STM32F4xx_StdPeriph_Driver/src/stm32f4xx_cryp_aes.c ****         CRYP_DataIn(*(uint32_t*)(inputaddr));
 4683              		.loc 1 1413 9 view .LVU1844
1414:Drivers/STM32F4xx_StdPeriph_Driver/src/stm32f4xx_cryp_aes.c ****         inputaddr+=4;
 4684              		.loc 1 1414 9 view .LVU1845
 4685 0394 A868     		ldr	r0, [r5, #8]
 4686 0396 FFF7FEFF 		bl	CRYP_DataIn
 4687              	.LVL687:
1415:Drivers/STM32F4xx_StdPeriph_Driver/src/stm32f4xx_cryp_aes.c ****         CRYP_DataIn(*(uint32_t*)(inputaddr));
 4688              		.loc 1 1415 9 view .LVU1846
1416:Drivers/STM32F4xx_StdPeriph_Driver/src/stm32f4xx_cryp_aes.c ****         inputaddr+=4;
 4689              		.loc 1 1416 9 view .LVU1847
 4690 039a E868     		ldr	r0, [r5, #12]
 4691 039c FFF7FEFF 		bl	CRYP_DataIn
 4692              	.LVL688:
1417:Drivers/STM32F4xx_StdPeriph_Driver/src/stm32f4xx_cryp_aes.c ****         
 4693              		.loc 1 1417 9 view .LVU1848
1417:Drivers/STM32F4xx_StdPeriph_Driver/src/stm32f4xx_cryp_aes.c ****         
 4694              		.loc 1 1417 18 is_stmt 0 view .LVU1849
 4695 03a0 1035     		adds	r5, r5, #16
 4696              	.LVL689:
1420:Drivers/STM32F4xx_StdPeriph_Driver/src/stm32f4xx_cryp_aes.c ****         do
 4697              		.loc 1 1420 9 is_stmt 1 view .LVU1850
ARM GAS  /tmp/ccjGnpiF.s 			page 137


1420:Drivers/STM32F4xx_StdPeriph_Driver/src/stm32f4xx_cryp_aes.c ****         do
 4698              		.loc 1 1420 17 is_stmt 0 view .LVU1851
 4699 03a2 0023     		movs	r3, #0
 4700 03a4 0F93     		str	r3, [sp, #60]
 4701              	.L135:
1421:Drivers/STM32F4xx_StdPeriph_Driver/src/stm32f4xx_cryp_aes.c ****         {
 4702              		.loc 1 1421 9 is_stmt 1 discriminator 2 view .LVU1852
1423:Drivers/STM32F4xx_StdPeriph_Driver/src/stm32f4xx_cryp_aes.c ****           counter++;
 4703              		.loc 1 1423 11 discriminator 2 view .LVU1853
1423:Drivers/STM32F4xx_StdPeriph_Driver/src/stm32f4xx_cryp_aes.c ****           counter++;
 4704              		.loc 1 1423 24 is_stmt 0 discriminator 2 view .LVU1854
 4705 03a6 1020     		movs	r0, #16
 4706 03a8 FFF7FEFF 		bl	CRYP_GetFlagStatus
 4707              	.LVL690:
1424:Drivers/STM32F4xx_StdPeriph_Driver/src/stm32f4xx_cryp_aes.c ****         }while ((counter != AESBUSY_TIMEOUT) && (busystatus != RESET));
 4708              		.loc 1 1424 11 is_stmt 1 discriminator 2 view .LVU1855
1424:Drivers/STM32F4xx_StdPeriph_Driver/src/stm32f4xx_cryp_aes.c ****         }while ((counter != AESBUSY_TIMEOUT) && (busystatus != RESET));
 4709              		.loc 1 1424 18 is_stmt 0 discriminator 2 view .LVU1856
 4710 03ac 0F9B     		ldr	r3, [sp, #60]
 4711 03ae 0133     		adds	r3, r3, #1
 4712 03b0 0F93     		str	r3, [sp, #60]
1425:Drivers/STM32F4xx_StdPeriph_Driver/src/stm32f4xx_cryp_aes.c **** 
 4713              		.loc 1 1425 16 is_stmt 1 discriminator 2 view .LVU1857
1425:Drivers/STM32F4xx_StdPeriph_Driver/src/stm32f4xx_cryp_aes.c **** 
 4714              		.loc 1 1425 26 is_stmt 0 discriminator 2 view .LVU1858
 4715 03b2 0F9B     		ldr	r3, [sp, #60]
1425:Drivers/STM32F4xx_StdPeriph_Driver/src/stm32f4xx_cryp_aes.c **** 
 4716              		.loc 1 1425 9 discriminator 2 view .LVU1859
 4717 03b4 B3F5803F 		cmp	r3, #65536
 4718 03b8 DAD0     		beq	.L134
1425:Drivers/STM32F4xx_StdPeriph_Driver/src/stm32f4xx_cryp_aes.c **** 
 4719              		.loc 1 1425 46 discriminator 1 view .LVU1860
 4720 03ba 0028     		cmp	r0, #0
 4721 03bc F3D1     		bne	.L135
 4722 03be D7E7     		b	.L134
 4723              	.LVL691:
 4724              	.L137:
1436:Drivers/STM32F4xx_StdPeriph_Driver/src/stm32f4xx_cryp_aes.c ****           
 4725              		.loc 1 1436 11 is_stmt 1 discriminator 1 view .LVU1861
1434:Drivers/STM32F4xx_StdPeriph_Driver/src/stm32f4xx_cryp_aes.c ****           {
 4726              		.loc 1 1434 16 discriminator 1 view .LVU1862
1434:Drivers/STM32F4xx_StdPeriph_Driver/src/stm32f4xx_cryp_aes.c ****           {
 4727              		.loc 1 1434 17 is_stmt 0 discriminator 1 view .LVU1863
 4728 03c0 0420     		movs	r0, #4
 4729 03c2 FFF7FEFF 		bl	CRYP_GetFlagStatus
 4730              	.LVL692:
1434:Drivers/STM32F4xx_StdPeriph_Driver/src/stm32f4xx_cryp_aes.c ****           {
 4731              		.loc 1 1434 16 discriminator 1 view .LVU1864
 4732 03c6 0028     		cmp	r0, #0
 4733 03c8 FAD0     		beq	.L137
1439:Drivers/STM32F4xx_StdPeriph_Driver/src/stm32f4xx_cryp_aes.c ****           outputaddr+=4;
 4734              		.loc 1 1439 11 is_stmt 1 view .LVU1865
1439:Drivers/STM32F4xx_StdPeriph_Driver/src/stm32f4xx_cryp_aes.c ****           outputaddr+=4;
 4735              		.loc 1 1439 38 is_stmt 0 view .LVU1866
 4736 03ca FFF7FEFF 		bl	CRYP_DataOut
 4737              	.LVL693:
1439:Drivers/STM32F4xx_StdPeriph_Driver/src/stm32f4xx_cryp_aes.c ****           outputaddr+=4;
ARM GAS  /tmp/ccjGnpiF.s 			page 138


 4738              		.loc 1 1439 36 view .LVU1867
 4739 03ce CAF80000 		str	r0, [r10]
1440:Drivers/STM32F4xx_StdPeriph_Driver/src/stm32f4xx_cryp_aes.c ****           *(uint32_t*)(outputaddr) = CRYP_DataOut();
 4740              		.loc 1 1440 11 is_stmt 1 view .LVU1868
 4741              	.LVL694:
1441:Drivers/STM32F4xx_StdPeriph_Driver/src/stm32f4xx_cryp_aes.c ****           outputaddr+=4;
 4742              		.loc 1 1441 11 view .LVU1869
1441:Drivers/STM32F4xx_StdPeriph_Driver/src/stm32f4xx_cryp_aes.c ****           outputaddr+=4;
 4743              		.loc 1 1441 38 is_stmt 0 view .LVU1870
 4744 03d2 FFF7FEFF 		bl	CRYP_DataOut
 4745              	.LVL695:
1441:Drivers/STM32F4xx_StdPeriph_Driver/src/stm32f4xx_cryp_aes.c ****           outputaddr+=4;
 4746              		.loc 1 1441 36 view .LVU1871
 4747 03d6 CAF80400 		str	r0, [r10, #4]
1442:Drivers/STM32F4xx_StdPeriph_Driver/src/stm32f4xx_cryp_aes.c ****           *(uint32_t*)(outputaddr) = CRYP_DataOut();
 4748              		.loc 1 1442 11 is_stmt 1 view .LVU1872
 4749              	.LVL696:
1443:Drivers/STM32F4xx_StdPeriph_Driver/src/stm32f4xx_cryp_aes.c ****           outputaddr+=4;
 4750              		.loc 1 1443 11 view .LVU1873
1443:Drivers/STM32F4xx_StdPeriph_Driver/src/stm32f4xx_cryp_aes.c ****           outputaddr+=4;
 4751              		.loc 1 1443 38 is_stmt 0 view .LVU1874
 4752 03da FFF7FEFF 		bl	CRYP_DataOut
 4753              	.LVL697:
1443:Drivers/STM32F4xx_StdPeriph_Driver/src/stm32f4xx_cryp_aes.c ****           outputaddr+=4;
 4754              		.loc 1 1443 36 view .LVU1875
 4755 03de CAF80800 		str	r0, [r10, #8]
1444:Drivers/STM32F4xx_StdPeriph_Driver/src/stm32f4xx_cryp_aes.c ****           *(uint32_t*)(outputaddr) = CRYP_DataOut();
 4756              		.loc 1 1444 11 is_stmt 1 view .LVU1876
 4757              	.LVL698:
1445:Drivers/STM32F4xx_StdPeriph_Driver/src/stm32f4xx_cryp_aes.c ****           outputaddr+=4;
 4758              		.loc 1 1445 11 view .LVU1877
1445:Drivers/STM32F4xx_StdPeriph_Driver/src/stm32f4xx_cryp_aes.c ****           outputaddr+=4;
 4759              		.loc 1 1445 38 is_stmt 0 view .LVU1878
 4760 03e2 FFF7FEFF 		bl	CRYP_DataOut
 4761              	.LVL699:
1445:Drivers/STM32F4xx_StdPeriph_Driver/src/stm32f4xx_cryp_aes.c ****           outputaddr+=4;
 4762              		.loc 1 1445 36 view .LVU1879
 4763 03e6 CAF80C00 		str	r0, [r10, #12]
1446:Drivers/STM32F4xx_StdPeriph_Driver/src/stm32f4xx_cryp_aes.c ****         }
 4764              		.loc 1 1446 11 is_stmt 1 view .LVU1880
1446:Drivers/STM32F4xx_StdPeriph_Driver/src/stm32f4xx_cryp_aes.c ****         }
 4765              		.loc 1 1446 21 is_stmt 0 view .LVU1881
 4766 03ea 0AF1100A 		add	r10, r10, #16
 4767              	.LVL700:
1446:Drivers/STM32F4xx_StdPeriph_Driver/src/stm32f4xx_cryp_aes.c ****         }
 4768              		.loc 1 1446 21 view .LVU1882
 4769 03ee C1E7     		b	.L136
 4770              	.L169:
1446:Drivers/STM32F4xx_StdPeriph_Driver/src/stm32f4xx_cryp_aes.c ****         }
 4771              		.loc 1 1446 21 view .LVU1883
 4772 03f0 0196     		str	r6, [sp, #4]
 4773 03f2 00E0     		b	.L131
 4774              	.L162:
 4775 03f4 0196     		str	r6, [sp, #4]
 4776              	.LVL701:
 4777              	.L131:
1453:Drivers/STM32F4xx_StdPeriph_Driver/src/stm32f4xx_cryp_aes.c ****     
ARM GAS  /tmp/ccjGnpiF.s 			page 139


 4778              		.loc 1 1453 5 is_stmt 1 view .LVU1884
 4779 03f6 4FF44030 		mov	r0, #196608
 4780 03fa FFF7FEFF 		bl	CRYP_PhaseConfig
 4781              	.LVL702:
1456:Drivers/STM32F4xx_StdPeriph_Driver/src/stm32f4xx_cryp_aes.c ****     
 4782              		.loc 1 1456 5 view .LVU1885
 4783 03fe 0120     		movs	r0, #1
 4784 0400 FFF7FEFF 		bl	CRYP_Cmd
 4785              	.LVL703:
1458:Drivers/STM32F4xx_StdPeriph_Driver/src/stm32f4xx_cryp_aes.c ****     {
 4786              		.loc 1 1458 5 view .LVU1886
1458:Drivers/STM32F4xx_StdPeriph_Driver/src/stm32f4xx_cryp_aes.c ****     {
 4787              		.loc 1 1458 8 is_stmt 0 view .LVU1887
 4788 0404 FFF7FEFF 		bl	CRYP_GetCmdStatus
 4789              	.LVL704:
1458:Drivers/STM32F4xx_StdPeriph_Driver/src/stm32f4xx_cryp_aes.c ****     {
 4790              		.loc 1 1458 7 view .LVU1888
 4791 0408 0746     		mov	r7, r0
 4792 040a 0028     		cmp	r0, #0
 4793 040c 00F0CF80 		beq	.L126
1465:Drivers/STM32F4xx_StdPeriph_Driver/src/stm32f4xx_cryp_aes.c ****     /* Write the counter block in the IN FIFO */
 4794              		.loc 1 1465 5 is_stmt 1 view .LVU1889
 4795              	.LVL705:
1467:Drivers/STM32F4xx_StdPeriph_Driver/src/stm32f4xx_cryp_aes.c ****     ctraddr+=4;
 4796              		.loc 1 1467 5 view .LVU1890
 4797 0410 0798     		ldr	r0, [sp, #28]
 4798 0412 FFF7FEFF 		bl	CRYP_DataIn
 4799              	.LVL706:
1468:Drivers/STM32F4xx_StdPeriph_Driver/src/stm32f4xx_cryp_aes.c ****     CRYP_DataIn(*(uint32_t*)(ctraddr));
 4800              		.loc 1 1468 5 view .LVU1891
1469:Drivers/STM32F4xx_StdPeriph_Driver/src/stm32f4xx_cryp_aes.c ****     ctraddr+=4;
 4801              		.loc 1 1469 5 view .LVU1892
 4802 0416 0898     		ldr	r0, [sp, #32]
 4803 0418 FFF7FEFF 		bl	CRYP_DataIn
 4804              	.LVL707:
1470:Drivers/STM32F4xx_StdPeriph_Driver/src/stm32f4xx_cryp_aes.c ****     CRYP_DataIn(*(uint32_t*)(ctraddr));
 4805              		.loc 1 1470 5 view .LVU1893
1471:Drivers/STM32F4xx_StdPeriph_Driver/src/stm32f4xx_cryp_aes.c ****     ctraddr+=4;
 4806              		.loc 1 1471 5 view .LVU1894
 4807 041c 0998     		ldr	r0, [sp, #36]
 4808 041e FFF7FEFF 		bl	CRYP_DataIn
 4809              	.LVL708:
1472:Drivers/STM32F4xx_StdPeriph_Driver/src/stm32f4xx_cryp_aes.c ****     /* Reset bit 0 (after 8-bit swap) is equivalent to reset bit 24 (before 8-bit swap) */
 4810              		.loc 1 1472 5 view .LVU1895
1474:Drivers/STM32F4xx_StdPeriph_Driver/src/stm32f4xx_cryp_aes.c ****     
 4811              		.loc 1 1474 5 view .LVU1896
1474:Drivers/STM32F4xx_StdPeriph_Driver/src/stm32f4xx_cryp_aes.c ****     
 4812              		.loc 1 1474 17 is_stmt 0 view .LVU1897
 4813 0422 0A98     		ldr	r0, [sp, #40]
1474:Drivers/STM32F4xx_StdPeriph_Driver/src/stm32f4xx_cryp_aes.c ****     
 4814              		.loc 1 1474 5 view .LVU1898
 4815 0424 20F08070 		bic	r0, r0, #16777216
 4816 0428 FFF7FEFF 		bl	CRYP_DataIn
 4817              	.LVL709:
1477:Drivers/STM32F4xx_StdPeriph_Driver/src/stm32f4xx_cryp_aes.c ****     {
 4818              		.loc 1 1477 5 is_stmt 1 view .LVU1899
 4819              	.L138:
ARM GAS  /tmp/ccjGnpiF.s 			page 140


1479:Drivers/STM32F4xx_StdPeriph_Driver/src/stm32f4xx_cryp_aes.c ****     
 4820              		.loc 1 1479 5 discriminator 1 view .LVU1900
1477:Drivers/STM32F4xx_StdPeriph_Driver/src/stm32f4xx_cryp_aes.c ****     {
 4821              		.loc 1 1477 10 discriminator 1 view .LVU1901
1477:Drivers/STM32F4xx_StdPeriph_Driver/src/stm32f4xx_cryp_aes.c ****     {
 4822              		.loc 1 1477 11 is_stmt 0 discriminator 1 view .LVU1902
 4823 042c 0420     		movs	r0, #4
 4824 042e FFF7FEFF 		bl	CRYP_GetFlagStatus
 4825              	.LVL710:
1477:Drivers/STM32F4xx_StdPeriph_Driver/src/stm32f4xx_cryp_aes.c ****     {
 4826              		.loc 1 1477 10 discriminator 1 view .LVU1903
 4827 0432 0028     		cmp	r0, #0
 4828 0434 FAD0     		beq	.L138
1482:Drivers/STM32F4xx_StdPeriph_Driver/src/stm32f4xx_cryp_aes.c ****     temptag[1] = CRYP_DataOut();
 4829              		.loc 1 1482 5 is_stmt 1 view .LVU1904
1482:Drivers/STM32F4xx_StdPeriph_Driver/src/stm32f4xx_cryp_aes.c ****     temptag[1] = CRYP_DataOut();
 4830              		.loc 1 1482 18 is_stmt 0 view .LVU1905
 4831 0436 FFF7FEFF 		bl	CRYP_DataOut
 4832              	.LVL711:
1482:Drivers/STM32F4xx_StdPeriph_Driver/src/stm32f4xx_cryp_aes.c ****     temptag[1] = CRYP_DataOut();
 4833              		.loc 1 1482 16 view .LVU1906
 4834 043a 0390     		str	r0, [sp, #12]
1483:Drivers/STM32F4xx_StdPeriph_Driver/src/stm32f4xx_cryp_aes.c ****     temptag[2] = CRYP_DataOut();
 4835              		.loc 1 1483 5 is_stmt 1 view .LVU1907
1483:Drivers/STM32F4xx_StdPeriph_Driver/src/stm32f4xx_cryp_aes.c ****     temptag[2] = CRYP_DataOut();
 4836              		.loc 1 1483 18 is_stmt 0 view .LVU1908
 4837 043c FFF7FEFF 		bl	CRYP_DataOut
 4838              	.LVL712:
1483:Drivers/STM32F4xx_StdPeriph_Driver/src/stm32f4xx_cryp_aes.c ****     temptag[2] = CRYP_DataOut();
 4839              		.loc 1 1483 16 view .LVU1909
 4840 0440 0490     		str	r0, [sp, #16]
1484:Drivers/STM32F4xx_StdPeriph_Driver/src/stm32f4xx_cryp_aes.c ****     temptag[3] = CRYP_DataOut();
 4841              		.loc 1 1484 5 is_stmt 1 view .LVU1910
1484:Drivers/STM32F4xx_StdPeriph_Driver/src/stm32f4xx_cryp_aes.c ****     temptag[3] = CRYP_DataOut();
 4842              		.loc 1 1484 18 is_stmt 0 view .LVU1911
 4843 0442 FFF7FEFF 		bl	CRYP_DataOut
 4844              	.LVL713:
1484:Drivers/STM32F4xx_StdPeriph_Driver/src/stm32f4xx_cryp_aes.c ****     temptag[3] = CRYP_DataOut();
 4845              		.loc 1 1484 16 view .LVU1912
 4846 0446 0590     		str	r0, [sp, #20]
1485:Drivers/STM32F4xx_StdPeriph_Driver/src/stm32f4xx_cryp_aes.c ****   }
 4847              		.loc 1 1485 5 is_stmt 1 view .LVU1913
1485:Drivers/STM32F4xx_StdPeriph_Driver/src/stm32f4xx_cryp_aes.c ****   }
 4848              		.loc 1 1485 18 is_stmt 0 view .LVU1914
 4849 0448 FFF7FEFF 		bl	CRYP_DataOut
 4850              	.LVL714:
1485:Drivers/STM32F4xx_StdPeriph_Driver/src/stm32f4xx_cryp_aes.c ****   }
 4851              		.loc 1 1485 16 view .LVU1915
 4852 044c 0690     		str	r0, [sp, #24]
 4853 044e 019F     		ldr	r7, [sp, #4]
 4854 0450 A1E0     		b	.L139
 4855              	.LVL715:
 4856              	.L167:
1531:Drivers/STM32F4xx_StdPeriph_Driver/src/stm32f4xx_cryp_aes.c ****       
 4857              		.loc 1 1531 7 is_stmt 1 view .LVU1916
 4858 0452 4FF48030 		mov	r0, #65536
 4859 0456 FFF7FEFF 		bl	CRYP_PhaseConfig
ARM GAS  /tmp/ccjGnpiF.s 			page 141


 4860              	.LVL716:
1534:Drivers/STM32F4xx_StdPeriph_Driver/src/stm32f4xx_cryp_aes.c ****       
 4861              		.loc 1 1534 7 view .LVU1917
 4862 045a 0120     		movs	r0, #1
 4863 045c FFF7FEFF 		bl	CRYP_Cmd
 4864              	.LVL717:
1536:Drivers/STM32F4xx_StdPeriph_Driver/src/stm32f4xx_cryp_aes.c ****       {
 4865              		.loc 1 1536 7 view .LVU1918
1536:Drivers/STM32F4xx_StdPeriph_Driver/src/stm32f4xx_cryp_aes.c ****       {
 4866              		.loc 1 1536 10 is_stmt 0 view .LVU1919
 4867 0460 FFF7FEFF 		bl	CRYP_GetCmdStatus
 4868              	.LVL718:
1536:Drivers/STM32F4xx_StdPeriph_Driver/src/stm32f4xx_cryp_aes.c ****       {
 4869              		.loc 1 1536 9 view .LVU1920
 4870 0464 0746     		mov	r7, r0
 4871              	.LVL719:
1536:Drivers/STM32F4xx_StdPeriph_Driver/src/stm32f4xx_cryp_aes.c ****       {
 4872              		.loc 1 1536 9 view .LVU1921
 4873 0466 0028     		cmp	r0, #0
 4874 0468 00F0A180 		beq	.L126
1543:Drivers/STM32F4xx_StdPeriph_Driver/src/stm32f4xx_cryp_aes.c ****       {
 4875              		.loc 1 1543 23 view .LVU1922
 4876 046c 0027     		movs	r7, #0
 4877 046e 12E0     		b	.L142
 4878              	.LVL720:
 4879              	.L143:
1548:Drivers/STM32F4xx_StdPeriph_Driver/src/stm32f4xx_cryp_aes.c ****         
 4880              		.loc 1 1548 9 is_stmt 1 discriminator 1 view .LVU1923
1546:Drivers/STM32F4xx_StdPeriph_Driver/src/stm32f4xx_cryp_aes.c ****         {
 4881              		.loc 1 1546 14 discriminator 1 view .LVU1924
1546:Drivers/STM32F4xx_StdPeriph_Driver/src/stm32f4xx_cryp_aes.c ****         {
 4882              		.loc 1 1546 15 is_stmt 0 discriminator 1 view .LVU1925
 4883 0470 0120     		movs	r0, #1
 4884 0472 FFF7FEFF 		bl	CRYP_GetFlagStatus
 4885              	.LVL721:
1546:Drivers/STM32F4xx_StdPeriph_Driver/src/stm32f4xx_cryp_aes.c ****         {
 4886              		.loc 1 1546 14 discriminator 1 view .LVU1926
 4887 0476 0028     		cmp	r0, #0
 4888 0478 FAD0     		beq	.L143
1551:Drivers/STM32F4xx_StdPeriph_Driver/src/stm32f4xx_cryp_aes.c ****         headeraddr+=4;
 4889              		.loc 1 1551 9 is_stmt 1 discriminator 2 view .LVU1927
 4890 047a 3068     		ldr	r0, [r6]
 4891 047c FFF7FEFF 		bl	CRYP_DataIn
 4892              	.LVL722:
1552:Drivers/STM32F4xx_StdPeriph_Driver/src/stm32f4xx_cryp_aes.c ****         CRYP_DataIn(*(uint32_t*)(headeraddr));
 4893              		.loc 1 1552 9 discriminator 2 view .LVU1928
1553:Drivers/STM32F4xx_StdPeriph_Driver/src/stm32f4xx_cryp_aes.c ****         headeraddr+=4;
 4894              		.loc 1 1553 9 discriminator 2 view .LVU1929
 4895 0480 7068     		ldr	r0, [r6, #4]
 4896 0482 FFF7FEFF 		bl	CRYP_DataIn
 4897              	.LVL723:
1554:Drivers/STM32F4xx_StdPeriph_Driver/src/stm32f4xx_cryp_aes.c ****         CRYP_DataIn(*(uint32_t*)(headeraddr));
 4898              		.loc 1 1554 9 discriminator 2 view .LVU1930
1555:Drivers/STM32F4xx_StdPeriph_Driver/src/stm32f4xx_cryp_aes.c ****         headeraddr+=4;
 4899              		.loc 1 1555 9 discriminator 2 view .LVU1931
 4900 0486 B068     		ldr	r0, [r6, #8]
 4901 0488 FFF7FEFF 		bl	CRYP_DataIn
ARM GAS  /tmp/ccjGnpiF.s 			page 142


 4902              	.LVL724:
1556:Drivers/STM32F4xx_StdPeriph_Driver/src/stm32f4xx_cryp_aes.c ****         CRYP_DataIn(*(uint32_t*)(headeraddr));
 4903              		.loc 1 1556 9 discriminator 2 view .LVU1932
1557:Drivers/STM32F4xx_StdPeriph_Driver/src/stm32f4xx_cryp_aes.c ****         headeraddr+=4;
 4904              		.loc 1 1557 9 discriminator 2 view .LVU1933
 4905 048c F068     		ldr	r0, [r6, #12]
 4906 048e FFF7FEFF 		bl	CRYP_DataIn
 4907              	.LVL725:
1558:Drivers/STM32F4xx_StdPeriph_Driver/src/stm32f4xx_cryp_aes.c ****       }
 4908              		.loc 1 1558 9 discriminator 2 view .LVU1934
1558:Drivers/STM32F4xx_StdPeriph_Driver/src/stm32f4xx_cryp_aes.c ****       }
 4909              		.loc 1 1558 19 is_stmt 0 discriminator 2 view .LVU1935
 4910 0492 1036     		adds	r6, r6, #16
 4911              	.LVL726:
1543:Drivers/STM32F4xx_StdPeriph_Driver/src/stm32f4xx_cryp_aes.c ****       {
 4912              		.loc 1 1543 56 is_stmt 1 discriminator 2 view .LVU1936
1543:Drivers/STM32F4xx_StdPeriph_Driver/src/stm32f4xx_cryp_aes.c ****       {
 4913              		.loc 1 1543 67 is_stmt 0 discriminator 2 view .LVU1937
 4914 0494 1037     		adds	r7, r7, #16
 4915              	.LVL727:
 4916              	.L142:
1543:Drivers/STM32F4xx_StdPeriph_Driver/src/stm32f4xx_cryp_aes.c ****       {
 4917              		.loc 1 1543 28 is_stmt 1 discriminator 1 view .LVU1938
1543:Drivers/STM32F4xx_StdPeriph_Driver/src/stm32f4xx_cryp_aes.c ****       {
 4918              		.loc 1 1543 7 is_stmt 0 discriminator 1 view .LVU1939
 4919 0496 BC42     		cmp	r4, r7
 4920 0498 EAD8     		bhi	.L143
1562:Drivers/STM32F4xx_StdPeriph_Driver/src/stm32f4xx_cryp_aes.c ****       do
 4921              		.loc 1 1562 7 is_stmt 1 view .LVU1940
1562:Drivers/STM32F4xx_StdPeriph_Driver/src/stm32f4xx_cryp_aes.c ****       do
 4922              		.loc 1 1562 15 is_stmt 0 view .LVU1941
 4923 049a 0023     		movs	r3, #0
 4924 049c 0F93     		str	r3, [sp, #60]
 4925              	.LVL728:
 4926              	.L145:
1563:Drivers/STM32F4xx_StdPeriph_Driver/src/stm32f4xx_cryp_aes.c ****       {
 4927              		.loc 1 1563 7 is_stmt 1 discriminator 2 view .LVU1942
1565:Drivers/STM32F4xx_StdPeriph_Driver/src/stm32f4xx_cryp_aes.c ****         counter++;
 4928              		.loc 1 1565 9 discriminator 2 view .LVU1943
1565:Drivers/STM32F4xx_StdPeriph_Driver/src/stm32f4xx_cryp_aes.c ****         counter++;
 4929              		.loc 1 1565 22 is_stmt 0 discriminator 2 view .LVU1944
 4930 049e 1020     		movs	r0, #16
 4931 04a0 FFF7FEFF 		bl	CRYP_GetFlagStatus
 4932              	.LVL729:
1566:Drivers/STM32F4xx_StdPeriph_Driver/src/stm32f4xx_cryp_aes.c ****       }while ((counter != AESBUSY_TIMEOUT) && (busystatus != RESET));
 4933              		.loc 1 1566 9 is_stmt 1 discriminator 2 view .LVU1945
1566:Drivers/STM32F4xx_StdPeriph_Driver/src/stm32f4xx_cryp_aes.c ****       }while ((counter != AESBUSY_TIMEOUT) && (busystatus != RESET));
 4934              		.loc 1 1566 16 is_stmt 0 discriminator 2 view .LVU1946
 4935 04a4 0F9B     		ldr	r3, [sp, #60]
 4936 04a6 0133     		adds	r3, r3, #1
 4937 04a8 0F93     		str	r3, [sp, #60]
1567:Drivers/STM32F4xx_StdPeriph_Driver/src/stm32f4xx_cryp_aes.c **** 
 4938              		.loc 1 1567 14 is_stmt 1 discriminator 2 view .LVU1947
1567:Drivers/STM32F4xx_StdPeriph_Driver/src/stm32f4xx_cryp_aes.c **** 
 4939              		.loc 1 1567 24 is_stmt 0 discriminator 2 view .LVU1948
 4940 04aa 0F9B     		ldr	r3, [sp, #60]
1567:Drivers/STM32F4xx_StdPeriph_Driver/src/stm32f4xx_cryp_aes.c **** 
ARM GAS  /tmp/ccjGnpiF.s 			page 143


 4941              		.loc 1 1567 7 discriminator 2 view .LVU1949
 4942 04ac B3F5803F 		cmp	r3, #65536
 4943 04b0 01D0     		beq	.L144
1567:Drivers/STM32F4xx_StdPeriph_Driver/src/stm32f4xx_cryp_aes.c **** 
 4944              		.loc 1 1567 44 discriminator 1 view .LVU1950
 4945 04b2 0028     		cmp	r0, #0
 4946 04b4 F3D1     		bne	.L145
 4947              	.L144:
1569:Drivers/STM32F4xx_StdPeriph_Driver/src/stm32f4xx_cryp_aes.c ****       {
 4948              		.loc 1 1569 7 is_stmt 1 view .LVU1951
1569:Drivers/STM32F4xx_StdPeriph_Driver/src/stm32f4xx_cryp_aes.c ****       {
 4949              		.loc 1 1569 10 is_stmt 0 view .LVU1952
 4950 04b6 08B9     		cbnz	r0, .L160
1148:Drivers/STM32F4xx_StdPeriph_Driver/src/stm32f4xx_cryp_aes.c ****   uint32_t keyaddr    = (uint32_t)Key;
 4951              		.loc 1 1148 15 view .LVU1953
 4952 04b8 0124     		movs	r4, #1
 4953              	.LVL730:
1148:Drivers/STM32F4xx_StdPeriph_Driver/src/stm32f4xx_cryp_aes.c ****   uint32_t keyaddr    = (uint32_t)Key;
 4954              		.loc 1 1148 15 view .LVU1954
 4955 04ba 91E6     		b	.L141
 4956              	.LVL731:
 4957              	.L160:
1571:Drivers/STM32F4xx_StdPeriph_Driver/src/stm32f4xx_cryp_aes.c ****       }
 4958              		.loc 1 1571 16 view .LVU1955
 4959 04bc 0024     		movs	r4, #0
 4960              	.LVL732:
1571:Drivers/STM32F4xx_StdPeriph_Driver/src/stm32f4xx_cryp_aes.c ****       }
 4961              		.loc 1 1571 16 view .LVU1956
 4962 04be 8FE6     		b	.L141
 4963              	.LVL733:
 4964              	.L149:
1592:Drivers/STM32F4xx_StdPeriph_Driver/src/stm32f4xx_cryp_aes.c ****       {
1593:Drivers/STM32F4xx_StdPeriph_Driver/src/stm32f4xx_cryp_aes.c ****         /* Wait until the IFEM flag is reset */
1594:Drivers/STM32F4xx_StdPeriph_Driver/src/stm32f4xx_cryp_aes.c ****         while(CRYP_GetFlagStatus(CRYP_FLAG_IFEM) == RESET)
1595:Drivers/STM32F4xx_StdPeriph_Driver/src/stm32f4xx_cryp_aes.c ****         {
1596:Drivers/STM32F4xx_StdPeriph_Driver/src/stm32f4xx_cryp_aes.c ****         }
1597:Drivers/STM32F4xx_StdPeriph_Driver/src/stm32f4xx_cryp_aes.c ****         
1598:Drivers/STM32F4xx_StdPeriph_Driver/src/stm32f4xx_cryp_aes.c ****         /* Write the Input block in the IN FIFO */
1599:Drivers/STM32F4xx_StdPeriph_Driver/src/stm32f4xx_cryp_aes.c ****         CRYP_DataIn(*(uint32_t*)(inputaddr));
1600:Drivers/STM32F4xx_StdPeriph_Driver/src/stm32f4xx_cryp_aes.c ****         inputaddr+=4;
1601:Drivers/STM32F4xx_StdPeriph_Driver/src/stm32f4xx_cryp_aes.c ****         CRYP_DataIn(*(uint32_t*)(inputaddr));
1602:Drivers/STM32F4xx_StdPeriph_Driver/src/stm32f4xx_cryp_aes.c ****         inputaddr+=4;
1603:Drivers/STM32F4xx_StdPeriph_Driver/src/stm32f4xx_cryp_aes.c ****         CRYP_DataIn(*(uint32_t*)(inputaddr));
1604:Drivers/STM32F4xx_StdPeriph_Driver/src/stm32f4xx_cryp_aes.c ****         inputaddr+=4;
1605:Drivers/STM32F4xx_StdPeriph_Driver/src/stm32f4xx_cryp_aes.c ****         CRYP_DataIn(*(uint32_t*)(inputaddr));
1606:Drivers/STM32F4xx_StdPeriph_Driver/src/stm32f4xx_cryp_aes.c ****         inputaddr+=4;
1607:Drivers/STM32F4xx_StdPeriph_Driver/src/stm32f4xx_cryp_aes.c ****         
1608:Drivers/STM32F4xx_StdPeriph_Driver/src/stm32f4xx_cryp_aes.c ****         /* Wait until the complete message has been processed */
1609:Drivers/STM32F4xx_StdPeriph_Driver/src/stm32f4xx_cryp_aes.c ****         counter = 0;
1610:Drivers/STM32F4xx_StdPeriph_Driver/src/stm32f4xx_cryp_aes.c ****         do
1611:Drivers/STM32F4xx_StdPeriph_Driver/src/stm32f4xx_cryp_aes.c ****         {
1612:Drivers/STM32F4xx_StdPeriph_Driver/src/stm32f4xx_cryp_aes.c ****           busystatus = CRYP_GetFlagStatus(CRYP_FLAG_BUSY);
1613:Drivers/STM32F4xx_StdPeriph_Driver/src/stm32f4xx_cryp_aes.c ****           counter++;
1614:Drivers/STM32F4xx_StdPeriph_Driver/src/stm32f4xx_cryp_aes.c ****         }while ((counter != AESBUSY_TIMEOUT) && (busystatus != RESET));
1615:Drivers/STM32F4xx_StdPeriph_Driver/src/stm32f4xx_cryp_aes.c **** 
1616:Drivers/STM32F4xx_StdPeriph_Driver/src/stm32f4xx_cryp_aes.c ****         if (busystatus != RESET)
 4965              		.loc 1 1616 9 is_stmt 1 view .LVU1957
ARM GAS  /tmp/ccjGnpiF.s 			page 144


 4966              		.loc 1 1616 12 is_stmt 0 view .LVU1958
 4967 04c0 30B3     		cbz	r0, .L152
1617:Drivers/STM32F4xx_StdPeriph_Driver/src/stm32f4xx_cryp_aes.c ****         {
1618:Drivers/STM32F4xx_StdPeriph_Driver/src/stm32f4xx_cryp_aes.c ****           status = ERROR;
 4968              		.loc 1 1618 18 view .LVU1959
 4969 04c2 0024     		movs	r4, #0
 4970              	.LVL734:
 4971              	.L151:
1591:Drivers/STM32F4xx_StdPeriph_Driver/src/stm32f4xx_cryp_aes.c ****       {
 4972              		.loc 1 1591 76 is_stmt 1 discriminator 2 view .LVU1960
1591:Drivers/STM32F4xx_StdPeriph_Driver/src/stm32f4xx_cryp_aes.c ****       {
 4973              		.loc 1 1591 87 is_stmt 0 discriminator 2 view .LVU1961
 4974 04c4 1036     		adds	r6, r6, #16
 4975              	.LVL735:
 4976              	.L147:
1591:Drivers/STM32F4xx_StdPeriph_Driver/src/stm32f4xx_cryp_aes.c ****       {
 4977              		.loc 1 1591 28 is_stmt 1 discriminator 1 view .LVU1962
1591:Drivers/STM32F4xx_StdPeriph_Driver/src/stm32f4xx_cryp_aes.c ****       {
 4978              		.loc 1 1591 7 is_stmt 0 discriminator 1 view .LVU1963
 4979 04c6 4645     		cmp	r6, r8
 4980 04c8 3AD2     		bcs	.L146
1591:Drivers/STM32F4xx_StdPeriph_Driver/src/stm32f4xx_cryp_aes.c ****       {
 4981              		.loc 1 1591 53 discriminator 3 view .LVU1964
 4982 04ca 002C     		cmp	r4, #0
 4983 04cc 38D0     		beq	.L146
 4984              	.L148:
1596:Drivers/STM32F4xx_StdPeriph_Driver/src/stm32f4xx_cryp_aes.c ****         
 4985              		.loc 1 1596 9 is_stmt 1 discriminator 1 view .LVU1965
1594:Drivers/STM32F4xx_StdPeriph_Driver/src/stm32f4xx_cryp_aes.c ****         {
 4986              		.loc 1 1594 14 discriminator 1 view .LVU1966
1594:Drivers/STM32F4xx_StdPeriph_Driver/src/stm32f4xx_cryp_aes.c ****         {
 4987              		.loc 1 1594 15 is_stmt 0 discriminator 1 view .LVU1967
 4988 04ce 0120     		movs	r0, #1
 4989 04d0 FFF7FEFF 		bl	CRYP_GetFlagStatus
 4990              	.LVL736:
1594:Drivers/STM32F4xx_StdPeriph_Driver/src/stm32f4xx_cryp_aes.c ****         {
 4991              		.loc 1 1594 14 discriminator 1 view .LVU1968
 4992 04d4 0028     		cmp	r0, #0
 4993 04d6 FAD0     		beq	.L148
1599:Drivers/STM32F4xx_StdPeriph_Driver/src/stm32f4xx_cryp_aes.c ****         inputaddr+=4;
 4994              		.loc 1 1599 9 is_stmt 1 view .LVU1969
 4995 04d8 2868     		ldr	r0, [r5]
 4996 04da FFF7FEFF 		bl	CRYP_DataIn
 4997              	.LVL737:
1600:Drivers/STM32F4xx_StdPeriph_Driver/src/stm32f4xx_cryp_aes.c ****         CRYP_DataIn(*(uint32_t*)(inputaddr));
 4998              		.loc 1 1600 9 view .LVU1970
1601:Drivers/STM32F4xx_StdPeriph_Driver/src/stm32f4xx_cryp_aes.c ****         inputaddr+=4;
 4999              		.loc 1 1601 9 view .LVU1971
 5000 04de 6868     		ldr	r0, [r5, #4]
 5001 04e0 FFF7FEFF 		bl	CRYP_DataIn
 5002              	.LVL738:
1602:Drivers/STM32F4xx_StdPeriph_Driver/src/stm32f4xx_cryp_aes.c ****         CRYP_DataIn(*(uint32_t*)(inputaddr));
 5003              		.loc 1 1602 9 view .LVU1972
1603:Drivers/STM32F4xx_StdPeriph_Driver/src/stm32f4xx_cryp_aes.c ****         inputaddr+=4;
 5004              		.loc 1 1603 9 view .LVU1973
 5005 04e4 A868     		ldr	r0, [r5, #8]
 5006 04e6 FFF7FEFF 		bl	CRYP_DataIn
ARM GAS  /tmp/ccjGnpiF.s 			page 145


 5007              	.LVL739:
1604:Drivers/STM32F4xx_StdPeriph_Driver/src/stm32f4xx_cryp_aes.c ****         CRYP_DataIn(*(uint32_t*)(inputaddr));
 5008              		.loc 1 1604 9 view .LVU1974
1605:Drivers/STM32F4xx_StdPeriph_Driver/src/stm32f4xx_cryp_aes.c ****         inputaddr+=4;
 5009              		.loc 1 1605 9 view .LVU1975
 5010 04ea E868     		ldr	r0, [r5, #12]
 5011 04ec FFF7FEFF 		bl	CRYP_DataIn
 5012              	.LVL740:
1606:Drivers/STM32F4xx_StdPeriph_Driver/src/stm32f4xx_cryp_aes.c ****         
 5013              		.loc 1 1606 9 view .LVU1976
1606:Drivers/STM32F4xx_StdPeriph_Driver/src/stm32f4xx_cryp_aes.c ****         
 5014              		.loc 1 1606 18 is_stmt 0 view .LVU1977
 5015 04f0 1035     		adds	r5, r5, #16
 5016              	.LVL741:
1609:Drivers/STM32F4xx_StdPeriph_Driver/src/stm32f4xx_cryp_aes.c ****         do
 5017              		.loc 1 1609 9 is_stmt 1 view .LVU1978
1609:Drivers/STM32F4xx_StdPeriph_Driver/src/stm32f4xx_cryp_aes.c ****         do
 5018              		.loc 1 1609 17 is_stmt 0 view .LVU1979
 5019 04f2 0023     		movs	r3, #0
 5020 04f4 0F93     		str	r3, [sp, #60]
 5021              	.L150:
1610:Drivers/STM32F4xx_StdPeriph_Driver/src/stm32f4xx_cryp_aes.c ****         {
 5022              		.loc 1 1610 9 is_stmt 1 discriminator 2 view .LVU1980
1612:Drivers/STM32F4xx_StdPeriph_Driver/src/stm32f4xx_cryp_aes.c ****           counter++;
 5023              		.loc 1 1612 11 discriminator 2 view .LVU1981
1612:Drivers/STM32F4xx_StdPeriph_Driver/src/stm32f4xx_cryp_aes.c ****           counter++;
 5024              		.loc 1 1612 24 is_stmt 0 discriminator 2 view .LVU1982
 5025 04f6 1020     		movs	r0, #16
 5026 04f8 FFF7FEFF 		bl	CRYP_GetFlagStatus
 5027              	.LVL742:
1613:Drivers/STM32F4xx_StdPeriph_Driver/src/stm32f4xx_cryp_aes.c ****         }while ((counter != AESBUSY_TIMEOUT) && (busystatus != RESET));
 5028              		.loc 1 1613 11 is_stmt 1 discriminator 2 view .LVU1983
1613:Drivers/STM32F4xx_StdPeriph_Driver/src/stm32f4xx_cryp_aes.c ****         }while ((counter != AESBUSY_TIMEOUT) && (busystatus != RESET));
 5029              		.loc 1 1613 18 is_stmt 0 discriminator 2 view .LVU1984
 5030 04fc 0F9B     		ldr	r3, [sp, #60]
 5031 04fe 0133     		adds	r3, r3, #1
 5032 0500 0F93     		str	r3, [sp, #60]
1614:Drivers/STM32F4xx_StdPeriph_Driver/src/stm32f4xx_cryp_aes.c **** 
 5033              		.loc 1 1614 16 is_stmt 1 discriminator 2 view .LVU1985
1614:Drivers/STM32F4xx_StdPeriph_Driver/src/stm32f4xx_cryp_aes.c **** 
 5034              		.loc 1 1614 26 is_stmt 0 discriminator 2 view .LVU1986
 5035 0502 0F9B     		ldr	r3, [sp, #60]
1614:Drivers/STM32F4xx_StdPeriph_Driver/src/stm32f4xx_cryp_aes.c **** 
 5036              		.loc 1 1614 9 discriminator 2 view .LVU1987
 5037 0504 B3F5803F 		cmp	r3, #65536
 5038 0508 DAD0     		beq	.L149
1614:Drivers/STM32F4xx_StdPeriph_Driver/src/stm32f4xx_cryp_aes.c **** 
 5039              		.loc 1 1614 46 discriminator 1 view .LVU1988
 5040 050a 0028     		cmp	r0, #0
 5041 050c F3D1     		bne	.L150
 5042 050e D7E7     		b	.L149
 5043              	.LVL743:
 5044              	.L152:
1619:Drivers/STM32F4xx_StdPeriph_Driver/src/stm32f4xx_cryp_aes.c ****         }
1620:Drivers/STM32F4xx_StdPeriph_Driver/src/stm32f4xx_cryp_aes.c ****         else
1621:Drivers/STM32F4xx_StdPeriph_Driver/src/stm32f4xx_cryp_aes.c ****         {
1622:Drivers/STM32F4xx_StdPeriph_Driver/src/stm32f4xx_cryp_aes.c ****           /* Wait until the OFNE flag is reset */
ARM GAS  /tmp/ccjGnpiF.s 			page 146


1623:Drivers/STM32F4xx_StdPeriph_Driver/src/stm32f4xx_cryp_aes.c ****           while(CRYP_GetFlagStatus(CRYP_FLAG_OFNE) == RESET)
1624:Drivers/STM32F4xx_StdPeriph_Driver/src/stm32f4xx_cryp_aes.c ****           {
1625:Drivers/STM32F4xx_StdPeriph_Driver/src/stm32f4xx_cryp_aes.c ****           }
 5045              		.loc 1 1625 11 is_stmt 1 discriminator 1 view .LVU1989
1623:Drivers/STM32F4xx_StdPeriph_Driver/src/stm32f4xx_cryp_aes.c ****           {
 5046              		.loc 1 1623 16 discriminator 1 view .LVU1990
1623:Drivers/STM32F4xx_StdPeriph_Driver/src/stm32f4xx_cryp_aes.c ****           {
 5047              		.loc 1 1623 17 is_stmt 0 discriminator 1 view .LVU1991
 5048 0510 0420     		movs	r0, #4
 5049 0512 FFF7FEFF 		bl	CRYP_GetFlagStatus
 5050              	.LVL744:
1623:Drivers/STM32F4xx_StdPeriph_Driver/src/stm32f4xx_cryp_aes.c ****           {
 5051              		.loc 1 1623 16 discriminator 1 view .LVU1992
 5052 0516 0028     		cmp	r0, #0
 5053 0518 FAD0     		beq	.L152
1626:Drivers/STM32F4xx_StdPeriph_Driver/src/stm32f4xx_cryp_aes.c ****           
1627:Drivers/STM32F4xx_StdPeriph_Driver/src/stm32f4xx_cryp_aes.c ****           /* Read the Output block from the Output FIFO */
1628:Drivers/STM32F4xx_StdPeriph_Driver/src/stm32f4xx_cryp_aes.c ****           *(uint32_t*)(outputaddr) = CRYP_DataOut();
 5054              		.loc 1 1628 11 is_stmt 1 view .LVU1993
 5055              		.loc 1 1628 38 is_stmt 0 view .LVU1994
 5056 051a FFF7FEFF 		bl	CRYP_DataOut
 5057              	.LVL745:
 5058              		.loc 1 1628 36 view .LVU1995
 5059 051e CAF80000 		str	r0, [r10]
1629:Drivers/STM32F4xx_StdPeriph_Driver/src/stm32f4xx_cryp_aes.c ****           outputaddr+=4;
 5060              		.loc 1 1629 11 is_stmt 1 view .LVU1996
 5061              	.LVL746:
1630:Drivers/STM32F4xx_StdPeriph_Driver/src/stm32f4xx_cryp_aes.c ****           *(uint32_t*)(outputaddr) = CRYP_DataOut();
 5062              		.loc 1 1630 11 view .LVU1997
 5063              		.loc 1 1630 38 is_stmt 0 view .LVU1998
 5064 0522 FFF7FEFF 		bl	CRYP_DataOut
 5065              	.LVL747:
 5066              		.loc 1 1630 36 view .LVU1999
 5067 0526 CAF80400 		str	r0, [r10, #4]
1631:Drivers/STM32F4xx_StdPeriph_Driver/src/stm32f4xx_cryp_aes.c ****           outputaddr+=4;
 5068              		.loc 1 1631 11 is_stmt 1 view .LVU2000
 5069              	.LVL748:
1632:Drivers/STM32F4xx_StdPeriph_Driver/src/stm32f4xx_cryp_aes.c ****           *(uint32_t*)(outputaddr) = CRYP_DataOut();
 5070              		.loc 1 1632 11 view .LVU2001
 5071              		.loc 1 1632 38 is_stmt 0 view .LVU2002
 5072 052a FFF7FEFF 		bl	CRYP_DataOut
 5073              	.LVL749:
 5074              		.loc 1 1632 36 view .LVU2003
 5075 052e CAF80800 		str	r0, [r10, #8]
1633:Drivers/STM32F4xx_StdPeriph_Driver/src/stm32f4xx_cryp_aes.c ****           outputaddr+=4;
 5076              		.loc 1 1633 11 is_stmt 1 view .LVU2004
 5077              	.LVL750:
1634:Drivers/STM32F4xx_StdPeriph_Driver/src/stm32f4xx_cryp_aes.c ****           *(uint32_t*)(outputaddr) = CRYP_DataOut();
 5078              		.loc 1 1634 11 view .LVU2005
 5079              		.loc 1 1634 38 is_stmt 0 view .LVU2006
 5080 0532 FFF7FEFF 		bl	CRYP_DataOut
 5081              	.LVL751:
 5082              		.loc 1 1634 36 view .LVU2007
 5083 0536 CAF80C00 		str	r0, [r10, #12]
1635:Drivers/STM32F4xx_StdPeriph_Driver/src/stm32f4xx_cryp_aes.c ****           outputaddr+=4;
 5084              		.loc 1 1635 11 is_stmt 1 view .LVU2008
 5085              		.loc 1 1635 21 is_stmt 0 view .LVU2009
ARM GAS  /tmp/ccjGnpiF.s 			page 147


 5086 053a 0AF1100A 		add	r10, r10, #16
 5087              	.LVL752:
 5088              		.loc 1 1635 21 view .LVU2010
 5089 053e C1E7     		b	.L151
 5090              	.LVL753:
 5091              	.L146:
1636:Drivers/STM32F4xx_StdPeriph_Driver/src/stm32f4xx_cryp_aes.c ****         }
1637:Drivers/STM32F4xx_StdPeriph_Driver/src/stm32f4xx_cryp_aes.c ****       }
1638:Drivers/STM32F4xx_StdPeriph_Driver/src/stm32f4xx_cryp_aes.c ****     }
1639:Drivers/STM32F4xx_StdPeriph_Driver/src/stm32f4xx_cryp_aes.c ****     
1640:Drivers/STM32F4xx_StdPeriph_Driver/src/stm32f4xx_cryp_aes.c ****     /***************************** final phase ********************************/
1641:Drivers/STM32F4xx_StdPeriph_Driver/src/stm32f4xx_cryp_aes.c ****     /* Select final phase */
1642:Drivers/STM32F4xx_StdPeriph_Driver/src/stm32f4xx_cryp_aes.c ****     CRYP_PhaseConfig(CRYP_Phase_Final);
 5092              		.loc 1 1642 5 is_stmt 1 view .LVU2011
 5093 0540 4FF44030 		mov	r0, #196608
 5094 0544 FFF7FEFF 		bl	CRYP_PhaseConfig
 5095              	.LVL754:
1643:Drivers/STM32F4xx_StdPeriph_Driver/src/stm32f4xx_cryp_aes.c ****     
1644:Drivers/STM32F4xx_StdPeriph_Driver/src/stm32f4xx_cryp_aes.c ****     /* Enable Crypto processor */
1645:Drivers/STM32F4xx_StdPeriph_Driver/src/stm32f4xx_cryp_aes.c ****     CRYP_Cmd(ENABLE);
 5096              		.loc 1 1645 5 view .LVU2012
 5097 0548 0120     		movs	r0, #1
 5098 054a FFF7FEFF 		bl	CRYP_Cmd
 5099              	.LVL755:
1646:Drivers/STM32F4xx_StdPeriph_Driver/src/stm32f4xx_cryp_aes.c ****     
1647:Drivers/STM32F4xx_StdPeriph_Driver/src/stm32f4xx_cryp_aes.c ****     if(CRYP_GetCmdStatus() == DISABLE)
 5100              		.loc 1 1647 5 view .LVU2013
 5101              		.loc 1 1647 8 is_stmt 0 view .LVU2014
 5102 054e FFF7FEFF 		bl	CRYP_GetCmdStatus
 5103              	.LVL756:
 5104              		.loc 1 1647 7 view .LVU2015
 5105 0552 0746     		mov	r7, r0
 5106 0554 58B3     		cbz	r0, .L126
1648:Drivers/STM32F4xx_StdPeriph_Driver/src/stm32f4xx_cryp_aes.c ****     {
1649:Drivers/STM32F4xx_StdPeriph_Driver/src/stm32f4xx_cryp_aes.c ****       /* The CRYP peripheral clock is not enabled or the device doesn't embed 
1650:Drivers/STM32F4xx_StdPeriph_Driver/src/stm32f4xx_cryp_aes.c ****          the CRYP peripheral (please check the device sales type. */
1651:Drivers/STM32F4xx_StdPeriph_Driver/src/stm32f4xx_cryp_aes.c ****       return(ERROR);
1652:Drivers/STM32F4xx_StdPeriph_Driver/src/stm32f4xx_cryp_aes.c ****     }
1653:Drivers/STM32F4xx_StdPeriph_Driver/src/stm32f4xx_cryp_aes.c ****     
1654:Drivers/STM32F4xx_StdPeriph_Driver/src/stm32f4xx_cryp_aes.c ****     ctraddr = (uint32_t)ctr;
 5107              		.loc 1 1654 5 is_stmt 1 view .LVU2016
 5108              	.LVL757:
1655:Drivers/STM32F4xx_StdPeriph_Driver/src/stm32f4xx_cryp_aes.c ****     /* Write the counter block in the IN FIFO */
1656:Drivers/STM32F4xx_StdPeriph_Driver/src/stm32f4xx_cryp_aes.c ****     CRYP_DataIn(*(uint32_t*)(ctraddr));
 5109              		.loc 1 1656 5 view .LVU2017
 5110 0556 0798     		ldr	r0, [sp, #28]
 5111 0558 FFF7FEFF 		bl	CRYP_DataIn
 5112              	.LVL758:
1657:Drivers/STM32F4xx_StdPeriph_Driver/src/stm32f4xx_cryp_aes.c ****     ctraddr+=4;
 5113              		.loc 1 1657 5 view .LVU2018
1658:Drivers/STM32F4xx_StdPeriph_Driver/src/stm32f4xx_cryp_aes.c ****     CRYP_DataIn(*(uint32_t*)(ctraddr));
 5114              		.loc 1 1658 5 view .LVU2019
 5115 055c 0898     		ldr	r0, [sp, #32]
 5116 055e FFF7FEFF 		bl	CRYP_DataIn
 5117              	.LVL759:
1659:Drivers/STM32F4xx_StdPeriph_Driver/src/stm32f4xx_cryp_aes.c ****     ctraddr+=4;
 5118              		.loc 1 1659 5 view .LVU2020
ARM GAS  /tmp/ccjGnpiF.s 			page 148


1660:Drivers/STM32F4xx_StdPeriph_Driver/src/stm32f4xx_cryp_aes.c ****     CRYP_DataIn(*(uint32_t*)(ctraddr));
 5119              		.loc 1 1660 5 view .LVU2021
 5120 0562 0998     		ldr	r0, [sp, #36]
 5121 0564 FFF7FEFF 		bl	CRYP_DataIn
 5122              	.LVL760:
1661:Drivers/STM32F4xx_StdPeriph_Driver/src/stm32f4xx_cryp_aes.c ****     ctraddr+=4;
 5123              		.loc 1 1661 5 view .LVU2022
1662:Drivers/STM32F4xx_StdPeriph_Driver/src/stm32f4xx_cryp_aes.c ****     /* Reset bit 0 (after 8-bit swap) is equivalent to reset bit 24 (before 8-bit swap) */
1663:Drivers/STM32F4xx_StdPeriph_Driver/src/stm32f4xx_cryp_aes.c ****     CRYP_DataIn(*(uint32_t*)(ctraddr) & 0xfeffffff);
 5124              		.loc 1 1663 5 view .LVU2023
 5125              		.loc 1 1663 17 is_stmt 0 view .LVU2024
 5126 0568 0A98     		ldr	r0, [sp, #40]
 5127              		.loc 1 1663 5 view .LVU2025
 5128 056a 20F08070 		bic	r0, r0, #16777216
 5129 056e FFF7FEFF 		bl	CRYP_DataIn
 5130              	.LVL761:
1664:Drivers/STM32F4xx_StdPeriph_Driver/src/stm32f4xx_cryp_aes.c ****     
1665:Drivers/STM32F4xx_StdPeriph_Driver/src/stm32f4xx_cryp_aes.c ****     /* Wait until the OFNE flag is reset */
1666:Drivers/STM32F4xx_StdPeriph_Driver/src/stm32f4xx_cryp_aes.c ****     while(CRYP_GetFlagStatus(CRYP_FLAG_OFNE) == RESET)
 5131              		.loc 1 1666 5 is_stmt 1 view .LVU2026
 5132              	.L153:
1667:Drivers/STM32F4xx_StdPeriph_Driver/src/stm32f4xx_cryp_aes.c ****     {
1668:Drivers/STM32F4xx_StdPeriph_Driver/src/stm32f4xx_cryp_aes.c ****     }
 5133              		.loc 1 1668 5 discriminator 1 view .LVU2027
1666:Drivers/STM32F4xx_StdPeriph_Driver/src/stm32f4xx_cryp_aes.c ****     {
 5134              		.loc 1 1666 10 discriminator 1 view .LVU2028
1666:Drivers/STM32F4xx_StdPeriph_Driver/src/stm32f4xx_cryp_aes.c ****     {
 5135              		.loc 1 1666 11 is_stmt 0 discriminator 1 view .LVU2029
 5136 0572 0420     		movs	r0, #4
 5137 0574 FFF7FEFF 		bl	CRYP_GetFlagStatus
 5138              	.LVL762:
1666:Drivers/STM32F4xx_StdPeriph_Driver/src/stm32f4xx_cryp_aes.c ****     {
 5139              		.loc 1 1666 10 discriminator 1 view .LVU2030
 5140 0578 0028     		cmp	r0, #0
 5141 057a FAD0     		beq	.L153
1669:Drivers/STM32F4xx_StdPeriph_Driver/src/stm32f4xx_cryp_aes.c ****     
1670:Drivers/STM32F4xx_StdPeriph_Driver/src/stm32f4xx_cryp_aes.c ****     /* Read the Authentification TAG (MAC) in the IN FIFO */
1671:Drivers/STM32F4xx_StdPeriph_Driver/src/stm32f4xx_cryp_aes.c ****     temptag[0] = CRYP_DataOut();
 5142              		.loc 1 1671 5 is_stmt 1 view .LVU2031
 5143              		.loc 1 1671 18 is_stmt 0 view .LVU2032
 5144 057c FFF7FEFF 		bl	CRYP_DataOut
 5145              	.LVL763:
 5146              		.loc 1 1671 16 view .LVU2033
 5147 0580 0390     		str	r0, [sp, #12]
1672:Drivers/STM32F4xx_StdPeriph_Driver/src/stm32f4xx_cryp_aes.c ****     temptag[1] = CRYP_DataOut();
 5148              		.loc 1 1672 5 is_stmt 1 view .LVU2034
 5149              		.loc 1 1672 18 is_stmt 0 view .LVU2035
 5150 0582 FFF7FEFF 		bl	CRYP_DataOut
 5151              	.LVL764:
 5152              		.loc 1 1672 16 view .LVU2036
 5153 0586 0490     		str	r0, [sp, #16]
1673:Drivers/STM32F4xx_StdPeriph_Driver/src/stm32f4xx_cryp_aes.c ****     temptag[2] = CRYP_DataOut();
 5154              		.loc 1 1673 5 is_stmt 1 view .LVU2037
 5155              		.loc 1 1673 18 is_stmt 0 view .LVU2038
 5156 0588 FFF7FEFF 		bl	CRYP_DataOut
 5157              	.LVL765:
 5158              		.loc 1 1673 16 view .LVU2039
ARM GAS  /tmp/ccjGnpiF.s 			page 149


 5159 058c 0590     		str	r0, [sp, #20]
1674:Drivers/STM32F4xx_StdPeriph_Driver/src/stm32f4xx_cryp_aes.c ****     temptag[3] = CRYP_DataOut();
 5160              		.loc 1 1674 5 is_stmt 1 view .LVU2040
 5161              		.loc 1 1674 18 is_stmt 0 view .LVU2041
 5162 058e FFF7FEFF 		bl	CRYP_DataOut
 5163              	.LVL766:
 5164              		.loc 1 1674 16 view .LVU2042
 5165 0592 0690     		str	r0, [sp, #24]
 5166 0594 2746     		mov	r7, r4
 5167              	.LVL767:
 5168              	.L139:
1675:Drivers/STM32F4xx_StdPeriph_Driver/src/stm32f4xx_cryp_aes.c ****   }
1676:Drivers/STM32F4xx_StdPeriph_Driver/src/stm32f4xx_cryp_aes.c ****   
1677:Drivers/STM32F4xx_StdPeriph_Driver/src/stm32f4xx_cryp_aes.c ****   /* Copy temporary authentication TAG in user TAG buffer */
1678:Drivers/STM32F4xx_StdPeriph_Driver/src/stm32f4xx_cryp_aes.c ****   for(loopcounter = 0; (loopcounter < TAGSize); loopcounter++)
 5169              		.loc 1 1678 3 is_stmt 1 view .LVU2043
 5170              		.loc 1 1678 19 is_stmt 0 view .LVU2044
 5171 0596 0023     		movs	r3, #0
 5172 0598 3199     		ldr	r1, [sp, #196]
 5173              		.loc 1 1678 3 view .LVU2045
 5174 059a 03E0     		b	.L154
 5175              	.LVL768:
 5176              	.L155:
1679:Drivers/STM32F4xx_StdPeriph_Driver/src/stm32f4xx_cryp_aes.c ****   {
1680:Drivers/STM32F4xx_StdPeriph_Driver/src/stm32f4xx_cryp_aes.c ****     /* Set the authentication TAG buffer */
1681:Drivers/STM32F4xx_StdPeriph_Driver/src/stm32f4xx_cryp_aes.c ****     *((uint8_t*)tagaddr+loopcounter) = *((uint8_t*)temptag+loopcounter);
 5177              		.loc 1 1681 5 is_stmt 1 discriminator 3 view .LVU2046
 5178              		.loc 1 1681 59 is_stmt 0 discriminator 3 view .LVU2047
 5179 059c 03AA     		add	r2, sp, #12
 5180              		.loc 1 1681 40 discriminator 3 view .LVU2048
 5181 059e D25C     		ldrb	r2, [r2, r3]	@ zero_extendqisi2
 5182              		.loc 1 1681 38 discriminator 3 view .LVU2049
 5183 05a0 CA54     		strb	r2, [r1, r3]
1678:Drivers/STM32F4xx_StdPeriph_Driver/src/stm32f4xx_cryp_aes.c ****   {
 5184              		.loc 1 1678 49 is_stmt 1 discriminator 3 view .LVU2050
1678:Drivers/STM32F4xx_StdPeriph_Driver/src/stm32f4xx_cryp_aes.c ****   {
 5185              		.loc 1 1678 60 is_stmt 0 discriminator 3 view .LVU2051
 5186 05a2 0133     		adds	r3, r3, #1
 5187              	.LVL769:
 5188              	.L154:
1678:Drivers/STM32F4xx_StdPeriph_Driver/src/stm32f4xx_cryp_aes.c ****   {
 5189              		.loc 1 1678 24 is_stmt 1 discriminator 1 view .LVU2052
1678:Drivers/STM32F4xx_StdPeriph_Driver/src/stm32f4xx_cryp_aes.c ****   {
 5190              		.loc 1 1678 3 is_stmt 0 discriminator 1 view .LVU2053
 5191 05a4 4B45     		cmp	r3, r9
 5192 05a6 F9D3     		bcc	.L155
1682:Drivers/STM32F4xx_StdPeriph_Driver/src/stm32f4xx_cryp_aes.c ****   }
1683:Drivers/STM32F4xx_StdPeriph_Driver/src/stm32f4xx_cryp_aes.c ****   
1684:Drivers/STM32F4xx_StdPeriph_Driver/src/stm32f4xx_cryp_aes.c ****   /* Disable Crypto */
1685:Drivers/STM32F4xx_StdPeriph_Driver/src/stm32f4xx_cryp_aes.c ****   CRYP_Cmd(DISABLE);
 5193              		.loc 1 1685 3 is_stmt 1 view .LVU2054
 5194 05a8 0020     		movs	r0, #0
 5195 05aa FFF7FEFF 		bl	CRYP_Cmd
 5196              	.LVL770:
1686:Drivers/STM32F4xx_StdPeriph_Driver/src/stm32f4xx_cryp_aes.c **** 
1687:Drivers/STM32F4xx_StdPeriph_Driver/src/stm32f4xx_cryp_aes.c ****   return status;
 5197              		.loc 1 1687 3 view .LVU2055
ARM GAS  /tmp/ccjGnpiF.s 			page 150


 5198              	.L126:
1688:Drivers/STM32F4xx_StdPeriph_Driver/src/stm32f4xx_cryp_aes.c **** }
 5199              		.loc 1 1688 1 is_stmt 0 view .LVU2056
 5200 05ae 3846     		mov	r0, r7
 5201 05b0 21B0     		add	sp, sp, #132
 5202              		.cfi_def_cfa_offset 36
 5203              		@ sp needed
 5204 05b2 BDE8F08F 		pop	{r4, r5, r6, r7, r8, r9, r10, fp, pc}
 5205              		.loc 1 1688 1 view .LVU2057
 5206              		.cfi_endproc
 5207              	.LFE127:
 5209              		.text
 5210              	.Letext0:
 5211              		.file 3 "/usr/lib/gcc/arm-none-eabi/10.3.1/include/stdint.h"
 5212              		.file 4 "Drivers/CMSIS/Device/ST/STM32F4xx/Include/stm32f4xx.h"
 5213              		.file 5 "Drivers/STM32F4xx_StdPeriph_Driver/inc/stm32f4xx_cryp.h"
ARM GAS  /tmp/ccjGnpiF.s 			page 151


DEFINED SYMBOLS
                            *ABS*:0000000000000000 stm32f4xx_cryp_aes.c
     /tmp/ccjGnpiF.s:18     .text.CRYP_AES_ECB:0000000000000000 $t
     /tmp/ccjGnpiF.s:26     .text.CRYP_AES_ECB:0000000000000000 CRYP_AES_ECB
     /tmp/ccjGnpiF.s:682    .text.CRYP_AES_CBC:0000000000000000 $t
     /tmp/ccjGnpiF.s:689    .text.CRYP_AES_CBC:0000000000000000 CRYP_AES_CBC
     /tmp/ccjGnpiF.s:1425   .text.CRYP_AES_CTR:0000000000000000 $t
     /tmp/ccjGnpiF.s:1432   .text.CRYP_AES_CTR:0000000000000000 CRYP_AES_CTR
     /tmp/ccjGnpiF.s:2112   .text.CRYP_AES_GCM:0000000000000000 $t
     /tmp/ccjGnpiF.s:2119   .text.CRYP_AES_GCM:0000000000000000 CRYP_AES_GCM
     /tmp/ccjGnpiF.s:3551   .text.CRYP_AES_CCM:0000000000000000 $t
     /tmp/ccjGnpiF.s:3558   .text.CRYP_AES_CCM:0000000000000000 CRYP_AES_CCM

UNDEFINED SYMBOLS
CRYP_KeyStructInit
CRYP_FIFOFlush
CRYP_Init
CRYP_KeyInit
CRYP_Cmd
CRYP_GetFlagStatus
CRYP_GetCmdStatus
CRYP_DataIn
CRYP_DataOut
CRYP_IVInit
CRYP_PhaseConfig
