ARM GAS  /tmp/ccibS9wU.s 			page 1


   1              		.cpu cortex-m4
   2              		.arch armv7e-m
   3              		.fpu fpv4-sp-d16
   4              		.eabi_attribute 27, 1
   5              		.eabi_attribute 28, 1
   6              		.eabi_attribute 20, 1
   7              		.eabi_attribute 21, 1
   8              		.eabi_attribute 23, 3
   9              		.eabi_attribute 24, 1
  10              		.eabi_attribute 25, 1
  11              		.eabi_attribute 26, 1
  12              		.eabi_attribute 30, 1
  13              		.eabi_attribute 34, 1
  14              		.eabi_attribute 18, 4
  15              		.file	"stm32f4xx_sdio.c"
  16              		.text
  17              	.Ltext0:
  18              		.cfi_sections	.debug_frame
  19              		.section	.text.SDIO_DeInit,"ax",%progbits
  20              		.align	1
  21              		.global	SDIO_DeInit
  22              		.syntax unified
  23              		.thumb
  24              		.thumb_func
  26              	SDIO_DeInit:
  27              	.LFB123:
  28              		.file 1 "Drivers/STM32F4xx_StdPeriph_Driver/src/stm32f4xx_sdio.c"
   1:Drivers/STM32F4xx_StdPeriph_Driver/src/stm32f4xx_sdio.c **** /**
   2:Drivers/STM32F4xx_StdPeriph_Driver/src/stm32f4xx_sdio.c ****   ******************************************************************************
   3:Drivers/STM32F4xx_StdPeriph_Driver/src/stm32f4xx_sdio.c ****   * @file    stm32f4xx_sdio.c
   4:Drivers/STM32F4xx_StdPeriph_Driver/src/stm32f4xx_sdio.c ****   * @author  MCD Application Team
   5:Drivers/STM32F4xx_StdPeriph_Driver/src/stm32f4xx_sdio.c ****   * @version V1.6.1
   6:Drivers/STM32F4xx_StdPeriph_Driver/src/stm32f4xx_sdio.c ****   * @date    21-October-2015
   7:Drivers/STM32F4xx_StdPeriph_Driver/src/stm32f4xx_sdio.c ****   * @brief   This file provides firmware functions to manage the following 
   8:Drivers/STM32F4xx_StdPeriph_Driver/src/stm32f4xx_sdio.c ****   *          functionalities of the Secure digital input/output interface (SDIO) 
   9:Drivers/STM32F4xx_StdPeriph_Driver/src/stm32f4xx_sdio.c ****   *          peripheral:
  10:Drivers/STM32F4xx_StdPeriph_Driver/src/stm32f4xx_sdio.c ****   *           + Initialization and Configuration
  11:Drivers/STM32F4xx_StdPeriph_Driver/src/stm32f4xx_sdio.c ****   *           + Command path state machine (CPSM) management
  12:Drivers/STM32F4xx_StdPeriph_Driver/src/stm32f4xx_sdio.c ****   *           + Data path state machine (DPSM) management
  13:Drivers/STM32F4xx_StdPeriph_Driver/src/stm32f4xx_sdio.c ****   *           + SDIO IO Cards mode management
  14:Drivers/STM32F4xx_StdPeriph_Driver/src/stm32f4xx_sdio.c ****   *           + CE-ATA mode management
  15:Drivers/STM32F4xx_StdPeriph_Driver/src/stm32f4xx_sdio.c ****   *           + DMA transfers management
  16:Drivers/STM32F4xx_StdPeriph_Driver/src/stm32f4xx_sdio.c ****   *           + Interrupts and flags management
  17:Drivers/STM32F4xx_StdPeriph_Driver/src/stm32f4xx_sdio.c ****   *
  18:Drivers/STM32F4xx_StdPeriph_Driver/src/stm32f4xx_sdio.c **** @verbatim
  19:Drivers/STM32F4xx_StdPeriph_Driver/src/stm32f4xx_sdio.c **** 
  20:Drivers/STM32F4xx_StdPeriph_Driver/src/stm32f4xx_sdio.c ****  ===================================================================
  21:Drivers/STM32F4xx_StdPeriph_Driver/src/stm32f4xx_sdio.c ****                  ##### How to use this driver #####
  22:Drivers/STM32F4xx_StdPeriph_Driver/src/stm32f4xx_sdio.c ****  ===================================================================
  23:Drivers/STM32F4xx_StdPeriph_Driver/src/stm32f4xx_sdio.c ****  [..]
  24:Drivers/STM32F4xx_StdPeriph_Driver/src/stm32f4xx_sdio.c ****    (#) The SDIO clock (SDIOCLK = 48 MHz) is coming from a specific output of PLL 
  25:Drivers/STM32F4xx_StdPeriph_Driver/src/stm32f4xx_sdio.c ****        (PLL48CLK). Before to start working with SDIO peripheral make sure that the
  26:Drivers/STM32F4xx_StdPeriph_Driver/src/stm32f4xx_sdio.c ****        PLL is well configured.
  27:Drivers/STM32F4xx_StdPeriph_Driver/src/stm32f4xx_sdio.c ****        The SDIO peripheral uses two clock signals:
  28:Drivers/STM32F4xx_StdPeriph_Driver/src/stm32f4xx_sdio.c ****        (++) SDIO adapter clock (SDIOCLK = 48 MHz)
  29:Drivers/STM32F4xx_StdPeriph_Driver/src/stm32f4xx_sdio.c ****        (++) APB2 bus clock (PCLK2)
  30:Drivers/STM32F4xx_StdPeriph_Driver/src/stm32f4xx_sdio.c ****        
ARM GAS  /tmp/ccibS9wU.s 			page 2


  31:Drivers/STM32F4xx_StdPeriph_Driver/src/stm32f4xx_sdio.c ****        -@@- PCLK2 and SDIO_CK clock frequencies must respect the following condition:
  32:Drivers/STM32F4xx_StdPeriph_Driver/src/stm32f4xx_sdio.c ****            Frequency(PCLK2) >= (3 / 8 x Frequency(SDIO_CK))
  33:Drivers/STM32F4xx_StdPeriph_Driver/src/stm32f4xx_sdio.c ****   
  34:Drivers/STM32F4xx_StdPeriph_Driver/src/stm32f4xx_sdio.c ****    (#) Enable peripheral clock using RCC_APB2PeriphClockCmd(RCC_APB2Periph_SDIO, ENABLE).
  35:Drivers/STM32F4xx_StdPeriph_Driver/src/stm32f4xx_sdio.c ****   
  36:Drivers/STM32F4xx_StdPeriph_Driver/src/stm32f4xx_sdio.c ****    (#) According to the SDIO mode, enable the GPIO clocks using 
  37:Drivers/STM32F4xx_StdPeriph_Driver/src/stm32f4xx_sdio.c ****        RCC_AHB1PeriphClockCmd() function. 
  38:Drivers/STM32F4xx_StdPeriph_Driver/src/stm32f4xx_sdio.c ****        The I/O can be one of the following configurations:
  39:Drivers/STM32F4xx_StdPeriph_Driver/src/stm32f4xx_sdio.c ****        (++) 1-bit data length: SDIO_CMD, SDIO_CK and D0.
  40:Drivers/STM32F4xx_StdPeriph_Driver/src/stm32f4xx_sdio.c ****        (++) 4-bit data length: SDIO_CMD, SDIO_CK and D[3:0].
  41:Drivers/STM32F4xx_StdPeriph_Driver/src/stm32f4xx_sdio.c ****        (++) 8-bit data length: SDIO_CMD, SDIO_CK and D[7:0].      
  42:Drivers/STM32F4xx_StdPeriph_Driver/src/stm32f4xx_sdio.c ****   
  43:Drivers/STM32F4xx_StdPeriph_Driver/src/stm32f4xx_sdio.c ****    (#) Peripheral alternate function: 
  44:Drivers/STM32F4xx_StdPeriph_Driver/src/stm32f4xx_sdio.c ****        (++) Connect the pin to the desired peripherals' Alternate Function (AF) 
  45:Drivers/STM32F4xx_StdPeriph_Driver/src/stm32f4xx_sdio.c ****            using GPIO_PinAFConfig() function
  46:Drivers/STM32F4xx_StdPeriph_Driver/src/stm32f4xx_sdio.c ****        (++) Configure the desired pin in alternate function by: 
  47:Drivers/STM32F4xx_StdPeriph_Driver/src/stm32f4xx_sdio.c ****            GPIO_InitStruct->GPIO_Mode = GPIO_Mode_AF
  48:Drivers/STM32F4xx_StdPeriph_Driver/src/stm32f4xx_sdio.c ****        (++) Select the type, pull-up/pull-down and output speed via GPIO_PuPd, 
  49:Drivers/STM32F4xx_StdPeriph_Driver/src/stm32f4xx_sdio.c ****            GPIO_OType and GPIO_Speed members
  50:Drivers/STM32F4xx_StdPeriph_Driver/src/stm32f4xx_sdio.c ****        (++) Call GPIO_Init() function
  51:Drivers/STM32F4xx_StdPeriph_Driver/src/stm32f4xx_sdio.c ****   
  52:Drivers/STM32F4xx_StdPeriph_Driver/src/stm32f4xx_sdio.c ****    (#) Program the Clock Edge, Clock Bypass, Clock Power Save, Bus Wide, 
  53:Drivers/STM32F4xx_StdPeriph_Driver/src/stm32f4xx_sdio.c ****        hardware, flow control and the Clock Divider using the SDIO_Init()
  54:Drivers/STM32F4xx_StdPeriph_Driver/src/stm32f4xx_sdio.c ****        function.
  55:Drivers/STM32F4xx_StdPeriph_Driver/src/stm32f4xx_sdio.c ****   
  56:Drivers/STM32F4xx_StdPeriph_Driver/src/stm32f4xx_sdio.c ****    (#) Enable the Power ON State using the SDIO_SetPowerState(SDIO_PowerState_ON) 
  57:Drivers/STM32F4xx_StdPeriph_Driver/src/stm32f4xx_sdio.c ****        function.
  58:Drivers/STM32F4xx_StdPeriph_Driver/src/stm32f4xx_sdio.c ****                 
  59:Drivers/STM32F4xx_StdPeriph_Driver/src/stm32f4xx_sdio.c ****    (#) Enable the clock using the SDIO_ClockCmd() function.
  60:Drivers/STM32F4xx_StdPeriph_Driver/src/stm32f4xx_sdio.c ****   
  61:Drivers/STM32F4xx_StdPeriph_Driver/src/stm32f4xx_sdio.c ****    (#) Enable the NVIC and the corresponding interrupt using the function 
  62:Drivers/STM32F4xx_StdPeriph_Driver/src/stm32f4xx_sdio.c ****        SDIO_ITConfig() if you need to use interrupt mode. 
  63:Drivers/STM32F4xx_StdPeriph_Driver/src/stm32f4xx_sdio.c ****   
  64:Drivers/STM32F4xx_StdPeriph_Driver/src/stm32f4xx_sdio.c ****    (#) When using the DMA mode 
  65:Drivers/STM32F4xx_StdPeriph_Driver/src/stm32f4xx_sdio.c ****        (++) Configure the DMA using DMA_Init() function
  66:Drivers/STM32F4xx_StdPeriph_Driver/src/stm32f4xx_sdio.c ****        (++) Active the needed channel Request using SDIO_DMACmd() function
  67:Drivers/STM32F4xx_StdPeriph_Driver/src/stm32f4xx_sdio.c ****   
  68:Drivers/STM32F4xx_StdPeriph_Driver/src/stm32f4xx_sdio.c ****    (#) Enable the DMA using the DMA_Cmd() function, when using DMA mode. 
  69:Drivers/STM32F4xx_StdPeriph_Driver/src/stm32f4xx_sdio.c ****   
  70:Drivers/STM32F4xx_StdPeriph_Driver/src/stm32f4xx_sdio.c ****    (#) To control the CPSM (Command Path State Machine) and send 
  71:Drivers/STM32F4xx_StdPeriph_Driver/src/stm32f4xx_sdio.c ****        commands to the card use the SDIO_SendCommand(), 
  72:Drivers/STM32F4xx_StdPeriph_Driver/src/stm32f4xx_sdio.c ****        SDIO_GetCommandResponse() and SDIO_GetResponse() functions. First, user has
  73:Drivers/STM32F4xx_StdPeriph_Driver/src/stm32f4xx_sdio.c ****        to fill the command structure (pointer to SDIO_CmdInitTypeDef) according 
  74:Drivers/STM32F4xx_StdPeriph_Driver/src/stm32f4xx_sdio.c ****        to the selected command to be sent.
  75:Drivers/STM32F4xx_StdPeriph_Driver/src/stm32f4xx_sdio.c ****        The parameters that should be filled are:
  76:Drivers/STM32F4xx_StdPeriph_Driver/src/stm32f4xx_sdio.c ****        (++) Command Argument
  77:Drivers/STM32F4xx_StdPeriph_Driver/src/stm32f4xx_sdio.c ****        (++) Command Index
  78:Drivers/STM32F4xx_StdPeriph_Driver/src/stm32f4xx_sdio.c ****        (++) Command Response type
  79:Drivers/STM32F4xx_StdPeriph_Driver/src/stm32f4xx_sdio.c ****        (++) Command Wait
  80:Drivers/STM32F4xx_StdPeriph_Driver/src/stm32f4xx_sdio.c ****        (++) CPSM Status (Enable or Disable).
  81:Drivers/STM32F4xx_StdPeriph_Driver/src/stm32f4xx_sdio.c ****   
  82:Drivers/STM32F4xx_StdPeriph_Driver/src/stm32f4xx_sdio.c ****        -@@- To check if the command is well received, read the SDIO_CMDRESP
  83:Drivers/STM32F4xx_StdPeriph_Driver/src/stm32f4xx_sdio.c ****            register using the SDIO_GetCommandResponse().
  84:Drivers/STM32F4xx_StdPeriph_Driver/src/stm32f4xx_sdio.c ****            The SDIO responses registers (SDIO_RESP1 to SDIO_RESP2), use the
  85:Drivers/STM32F4xx_StdPeriph_Driver/src/stm32f4xx_sdio.c ****            SDIO_GetResponse() function.
  86:Drivers/STM32F4xx_StdPeriph_Driver/src/stm32f4xx_sdio.c ****   
  87:Drivers/STM32F4xx_StdPeriph_Driver/src/stm32f4xx_sdio.c ****    (#) To control the DPSM (Data Path State Machine) and send/receive 
ARM GAS  /tmp/ccibS9wU.s 			page 3


  88:Drivers/STM32F4xx_StdPeriph_Driver/src/stm32f4xx_sdio.c ****        data to/from the card use the SDIO_DataConfig(), SDIO_GetDataCounter(), 
  89:Drivers/STM32F4xx_StdPeriph_Driver/src/stm32f4xx_sdio.c ****        SDIO_ReadData(), SDIO_WriteData() and SDIO_GetFIFOCount() functions.
  90:Drivers/STM32F4xx_StdPeriph_Driver/src/stm32f4xx_sdio.c ****   
  91:Drivers/STM32F4xx_StdPeriph_Driver/src/stm32f4xx_sdio.c ****  *** Read Operations ***
  92:Drivers/STM32F4xx_StdPeriph_Driver/src/stm32f4xx_sdio.c ****  =======================
  93:Drivers/STM32F4xx_StdPeriph_Driver/src/stm32f4xx_sdio.c ****  [..]
  94:Drivers/STM32F4xx_StdPeriph_Driver/src/stm32f4xx_sdio.c ****    (#) First, user has to fill the data structure (pointer to
  95:Drivers/STM32F4xx_StdPeriph_Driver/src/stm32f4xx_sdio.c ****        SDIO_DataInitTypeDef) according to the selected data type to be received.
  96:Drivers/STM32F4xx_StdPeriph_Driver/src/stm32f4xx_sdio.c ****        The parameters that should be filled are:
  97:Drivers/STM32F4xx_StdPeriph_Driver/src/stm32f4xx_sdio.c ****        (++) Data TimeOut
  98:Drivers/STM32F4xx_StdPeriph_Driver/src/stm32f4xx_sdio.c ****        (++) Data Length
  99:Drivers/STM32F4xx_StdPeriph_Driver/src/stm32f4xx_sdio.c ****        (++) Data Block size
 100:Drivers/STM32F4xx_StdPeriph_Driver/src/stm32f4xx_sdio.c ****        (++) Data Transfer direction: should be from card (To SDIO)
 101:Drivers/STM32F4xx_StdPeriph_Driver/src/stm32f4xx_sdio.c ****        (++) Data Transfer mode
 102:Drivers/STM32F4xx_StdPeriph_Driver/src/stm32f4xx_sdio.c ****        (++) DPSM Status (Enable or Disable)
 103:Drivers/STM32F4xx_StdPeriph_Driver/src/stm32f4xx_sdio.c ****                                      
 104:Drivers/STM32F4xx_StdPeriph_Driver/src/stm32f4xx_sdio.c ****    (#) Configure the SDIO resources to receive the data from the card
 105:Drivers/STM32F4xx_StdPeriph_Driver/src/stm32f4xx_sdio.c ****        according to selected transfer mode (Refer to Step 8, 9 and 10).
 106:Drivers/STM32F4xx_StdPeriph_Driver/src/stm32f4xx_sdio.c ****   
 107:Drivers/STM32F4xx_StdPeriph_Driver/src/stm32f4xx_sdio.c ****    (#)  Send the selected Read command (refer to step 11).
 108:Drivers/STM32F4xx_StdPeriph_Driver/src/stm32f4xx_sdio.c ****                     
 109:Drivers/STM32F4xx_StdPeriph_Driver/src/stm32f4xx_sdio.c ****    (#) Use the SDIO flags/interrupts to check the transfer status.
 110:Drivers/STM32F4xx_StdPeriph_Driver/src/stm32f4xx_sdio.c ****   
 111:Drivers/STM32F4xx_StdPeriph_Driver/src/stm32f4xx_sdio.c ****  *** Write Operations ***
 112:Drivers/STM32F4xx_StdPeriph_Driver/src/stm32f4xx_sdio.c ****  ========================
 113:Drivers/STM32F4xx_StdPeriph_Driver/src/stm32f4xx_sdio.c ****  [..]
 114:Drivers/STM32F4xx_StdPeriph_Driver/src/stm32f4xx_sdio.c ****    (#) First, user has to fill the data structure (pointer to
 115:Drivers/STM32F4xx_StdPeriph_Driver/src/stm32f4xx_sdio.c ****        SDIO_DataInitTypeDef) according to the selected data type to be received.
 116:Drivers/STM32F4xx_StdPeriph_Driver/src/stm32f4xx_sdio.c ****        The parameters that should be filled are:
 117:Drivers/STM32F4xx_StdPeriph_Driver/src/stm32f4xx_sdio.c ****        (++) Data TimeOut
 118:Drivers/STM32F4xx_StdPeriph_Driver/src/stm32f4xx_sdio.c ****        (++) Data Length
 119:Drivers/STM32F4xx_StdPeriph_Driver/src/stm32f4xx_sdio.c ****        (++) Data Block size
 120:Drivers/STM32F4xx_StdPeriph_Driver/src/stm32f4xx_sdio.c ****        (++) Data Transfer direction:  should be to card (To CARD)
 121:Drivers/STM32F4xx_StdPeriph_Driver/src/stm32f4xx_sdio.c ****        (++) Data Transfer mode
 122:Drivers/STM32F4xx_StdPeriph_Driver/src/stm32f4xx_sdio.c ****        (++) DPSM Status (Enable or Disable)
 123:Drivers/STM32F4xx_StdPeriph_Driver/src/stm32f4xx_sdio.c ****   
 124:Drivers/STM32F4xx_StdPeriph_Driver/src/stm32f4xx_sdio.c ****    (#) Configure the SDIO resources to send the data to the card according to 
 125:Drivers/STM32F4xx_StdPeriph_Driver/src/stm32f4xx_sdio.c ****        selected transfer mode (Refer to Step 8, 9 and 10).
 126:Drivers/STM32F4xx_StdPeriph_Driver/src/stm32f4xx_sdio.c ****                      
 127:Drivers/STM32F4xx_StdPeriph_Driver/src/stm32f4xx_sdio.c ****    (#) Send the selected Write command (refer to step 11).
 128:Drivers/STM32F4xx_StdPeriph_Driver/src/stm32f4xx_sdio.c ****                     
 129:Drivers/STM32F4xx_StdPeriph_Driver/src/stm32f4xx_sdio.c ****    (#) Use the SDIO flags/interrupts to check the transfer status.
 130:Drivers/STM32F4xx_StdPeriph_Driver/src/stm32f4xx_sdio.c ****   
 131:Drivers/STM32F4xx_StdPeriph_Driver/src/stm32f4xx_sdio.c ****   
 132:Drivers/STM32F4xx_StdPeriph_Driver/src/stm32f4xx_sdio.c **** @endverbatim
 133:Drivers/STM32F4xx_StdPeriph_Driver/src/stm32f4xx_sdio.c ****   *
 134:Drivers/STM32F4xx_StdPeriph_Driver/src/stm32f4xx_sdio.c ****   *
 135:Drivers/STM32F4xx_StdPeriph_Driver/src/stm32f4xx_sdio.c ****   ******************************************************************************
 136:Drivers/STM32F4xx_StdPeriph_Driver/src/stm32f4xx_sdio.c ****   * @attention
 137:Drivers/STM32F4xx_StdPeriph_Driver/src/stm32f4xx_sdio.c ****   *
 138:Drivers/STM32F4xx_StdPeriph_Driver/src/stm32f4xx_sdio.c ****   * <h2><center>&copy; COPYRIGHT 2015 STMicroelectronics</center></h2>
 139:Drivers/STM32F4xx_StdPeriph_Driver/src/stm32f4xx_sdio.c ****   *
 140:Drivers/STM32F4xx_StdPeriph_Driver/src/stm32f4xx_sdio.c ****   * Licensed under MCD-ST Liberty SW License Agreement V2, (the "License");
 141:Drivers/STM32F4xx_StdPeriph_Driver/src/stm32f4xx_sdio.c ****   * You may not use this file except in compliance with the License.
 142:Drivers/STM32F4xx_StdPeriph_Driver/src/stm32f4xx_sdio.c ****   * You may obtain a copy of the License at:
 143:Drivers/STM32F4xx_StdPeriph_Driver/src/stm32f4xx_sdio.c ****   *
 144:Drivers/STM32F4xx_StdPeriph_Driver/src/stm32f4xx_sdio.c ****   *        http://www.st.com/software_license_agreement_liberty_v2
ARM GAS  /tmp/ccibS9wU.s 			page 4


 145:Drivers/STM32F4xx_StdPeriph_Driver/src/stm32f4xx_sdio.c ****   *
 146:Drivers/STM32F4xx_StdPeriph_Driver/src/stm32f4xx_sdio.c ****   * Unless required by applicable law or agreed to in writing, software 
 147:Drivers/STM32F4xx_StdPeriph_Driver/src/stm32f4xx_sdio.c ****   * distributed under the License is distributed on an "AS IS" BASIS, 
 148:Drivers/STM32F4xx_StdPeriph_Driver/src/stm32f4xx_sdio.c ****   * WITHOUT WARRANTIES OR CONDITIONS OF ANY KIND, either express or implied.
 149:Drivers/STM32F4xx_StdPeriph_Driver/src/stm32f4xx_sdio.c ****   * See the License for the specific language governing permissions and
 150:Drivers/STM32F4xx_StdPeriph_Driver/src/stm32f4xx_sdio.c ****   * limitations under the License.
 151:Drivers/STM32F4xx_StdPeriph_Driver/src/stm32f4xx_sdio.c ****   *
 152:Drivers/STM32F4xx_StdPeriph_Driver/src/stm32f4xx_sdio.c ****   ******************************************************************************
 153:Drivers/STM32F4xx_StdPeriph_Driver/src/stm32f4xx_sdio.c ****   */
 154:Drivers/STM32F4xx_StdPeriph_Driver/src/stm32f4xx_sdio.c **** 
 155:Drivers/STM32F4xx_StdPeriph_Driver/src/stm32f4xx_sdio.c **** /* Includes ------------------------------------------------------------------*/
 156:Drivers/STM32F4xx_StdPeriph_Driver/src/stm32f4xx_sdio.c **** #include "stm32f4xx_sdio.h"
 157:Drivers/STM32F4xx_StdPeriph_Driver/src/stm32f4xx_sdio.c **** #include "stm32f4xx_rcc.h"
 158:Drivers/STM32F4xx_StdPeriph_Driver/src/stm32f4xx_sdio.c **** 
 159:Drivers/STM32F4xx_StdPeriph_Driver/src/stm32f4xx_sdio.c **** /** @addtogroup STM32F4xx_StdPeriph_Driver
 160:Drivers/STM32F4xx_StdPeriph_Driver/src/stm32f4xx_sdio.c ****   * @{
 161:Drivers/STM32F4xx_StdPeriph_Driver/src/stm32f4xx_sdio.c ****   */
 162:Drivers/STM32F4xx_StdPeriph_Driver/src/stm32f4xx_sdio.c **** 
 163:Drivers/STM32F4xx_StdPeriph_Driver/src/stm32f4xx_sdio.c **** /** @defgroup SDIO 
 164:Drivers/STM32F4xx_StdPeriph_Driver/src/stm32f4xx_sdio.c ****   * @brief SDIO driver modules
 165:Drivers/STM32F4xx_StdPeriph_Driver/src/stm32f4xx_sdio.c ****   * @{
 166:Drivers/STM32F4xx_StdPeriph_Driver/src/stm32f4xx_sdio.c ****   */ 
 167:Drivers/STM32F4xx_StdPeriph_Driver/src/stm32f4xx_sdio.c **** 
 168:Drivers/STM32F4xx_StdPeriph_Driver/src/stm32f4xx_sdio.c **** /* Private typedef -----------------------------------------------------------*/
 169:Drivers/STM32F4xx_StdPeriph_Driver/src/stm32f4xx_sdio.c **** /* Private define ------------------------------------------------------------*/
 170:Drivers/STM32F4xx_StdPeriph_Driver/src/stm32f4xx_sdio.c **** 
 171:Drivers/STM32F4xx_StdPeriph_Driver/src/stm32f4xx_sdio.c **** /* ------------ SDIO registers bit address in the alias region ----------- */
 172:Drivers/STM32F4xx_StdPeriph_Driver/src/stm32f4xx_sdio.c **** #define SDIO_OFFSET                (SDIO_BASE - PERIPH_BASE)
 173:Drivers/STM32F4xx_StdPeriph_Driver/src/stm32f4xx_sdio.c **** 
 174:Drivers/STM32F4xx_StdPeriph_Driver/src/stm32f4xx_sdio.c **** /* --- CLKCR Register ---*/
 175:Drivers/STM32F4xx_StdPeriph_Driver/src/stm32f4xx_sdio.c **** /* Alias word address of CLKEN bit */
 176:Drivers/STM32F4xx_StdPeriph_Driver/src/stm32f4xx_sdio.c **** #define CLKCR_OFFSET              (SDIO_OFFSET + 0x04)
 177:Drivers/STM32F4xx_StdPeriph_Driver/src/stm32f4xx_sdio.c **** #define CLKEN_BitNumber           0x08
 178:Drivers/STM32F4xx_StdPeriph_Driver/src/stm32f4xx_sdio.c **** #define CLKCR_CLKEN_BB            (PERIPH_BB_BASE + (CLKCR_OFFSET * 32) + (CLKEN_BitNumber * 4))
 179:Drivers/STM32F4xx_StdPeriph_Driver/src/stm32f4xx_sdio.c **** 
 180:Drivers/STM32F4xx_StdPeriph_Driver/src/stm32f4xx_sdio.c **** /* --- CMD Register ---*/
 181:Drivers/STM32F4xx_StdPeriph_Driver/src/stm32f4xx_sdio.c **** /* Alias word address of SDIOSUSPEND bit */
 182:Drivers/STM32F4xx_StdPeriph_Driver/src/stm32f4xx_sdio.c **** #define CMD_OFFSET                (SDIO_OFFSET + 0x0C)
 183:Drivers/STM32F4xx_StdPeriph_Driver/src/stm32f4xx_sdio.c **** #define SDIOSUSPEND_BitNumber     0x0B
 184:Drivers/STM32F4xx_StdPeriph_Driver/src/stm32f4xx_sdio.c **** #define CMD_SDIOSUSPEND_BB        (PERIPH_BB_BASE + (CMD_OFFSET * 32) + (SDIOSUSPEND_BitNumber * 4)
 185:Drivers/STM32F4xx_StdPeriph_Driver/src/stm32f4xx_sdio.c **** 
 186:Drivers/STM32F4xx_StdPeriph_Driver/src/stm32f4xx_sdio.c **** /* Alias word address of ENCMDCOMPL bit */
 187:Drivers/STM32F4xx_StdPeriph_Driver/src/stm32f4xx_sdio.c **** #define ENCMDCOMPL_BitNumber      0x0C
 188:Drivers/STM32F4xx_StdPeriph_Driver/src/stm32f4xx_sdio.c **** #define CMD_ENCMDCOMPL_BB         (PERIPH_BB_BASE + (CMD_OFFSET * 32) + (ENCMDCOMPL_BitNumber * 4))
 189:Drivers/STM32F4xx_StdPeriph_Driver/src/stm32f4xx_sdio.c **** 
 190:Drivers/STM32F4xx_StdPeriph_Driver/src/stm32f4xx_sdio.c **** /* Alias word address of NIEN bit */
 191:Drivers/STM32F4xx_StdPeriph_Driver/src/stm32f4xx_sdio.c **** #define NIEN_BitNumber            0x0D
 192:Drivers/STM32F4xx_StdPeriph_Driver/src/stm32f4xx_sdio.c **** #define CMD_NIEN_BB               (PERIPH_BB_BASE + (CMD_OFFSET * 32) + (NIEN_BitNumber * 4))
 193:Drivers/STM32F4xx_StdPeriph_Driver/src/stm32f4xx_sdio.c **** 
 194:Drivers/STM32F4xx_StdPeriph_Driver/src/stm32f4xx_sdio.c **** /* Alias word address of ATACMD bit */
 195:Drivers/STM32F4xx_StdPeriph_Driver/src/stm32f4xx_sdio.c **** #define ATACMD_BitNumber          0x0E
 196:Drivers/STM32F4xx_StdPeriph_Driver/src/stm32f4xx_sdio.c **** #define CMD_ATACMD_BB             (PERIPH_BB_BASE + (CMD_OFFSET * 32) + (ATACMD_BitNumber * 4))
 197:Drivers/STM32F4xx_StdPeriph_Driver/src/stm32f4xx_sdio.c **** 
 198:Drivers/STM32F4xx_StdPeriph_Driver/src/stm32f4xx_sdio.c **** /* --- DCTRL Register ---*/
 199:Drivers/STM32F4xx_StdPeriph_Driver/src/stm32f4xx_sdio.c **** /* Alias word address of DMAEN bit */
 200:Drivers/STM32F4xx_StdPeriph_Driver/src/stm32f4xx_sdio.c **** #define DCTRL_OFFSET              (SDIO_OFFSET + 0x2C)
 201:Drivers/STM32F4xx_StdPeriph_Driver/src/stm32f4xx_sdio.c **** #define DMAEN_BitNumber           0x03
ARM GAS  /tmp/ccibS9wU.s 			page 5


 202:Drivers/STM32F4xx_StdPeriph_Driver/src/stm32f4xx_sdio.c **** #define DCTRL_DMAEN_BB            (PERIPH_BB_BASE + (DCTRL_OFFSET * 32) + (DMAEN_BitNumber * 4))
 203:Drivers/STM32F4xx_StdPeriph_Driver/src/stm32f4xx_sdio.c **** 
 204:Drivers/STM32F4xx_StdPeriph_Driver/src/stm32f4xx_sdio.c **** /* Alias word address of RWSTART bit */
 205:Drivers/STM32F4xx_StdPeriph_Driver/src/stm32f4xx_sdio.c **** #define RWSTART_BitNumber         0x08
 206:Drivers/STM32F4xx_StdPeriph_Driver/src/stm32f4xx_sdio.c **** #define DCTRL_RWSTART_BB          (PERIPH_BB_BASE + (DCTRL_OFFSET * 32) + (RWSTART_BitNumber * 4))
 207:Drivers/STM32F4xx_StdPeriph_Driver/src/stm32f4xx_sdio.c **** 
 208:Drivers/STM32F4xx_StdPeriph_Driver/src/stm32f4xx_sdio.c **** /* Alias word address of RWSTOP bit */
 209:Drivers/STM32F4xx_StdPeriph_Driver/src/stm32f4xx_sdio.c **** #define RWSTOP_BitNumber          0x09
 210:Drivers/STM32F4xx_StdPeriph_Driver/src/stm32f4xx_sdio.c **** #define DCTRL_RWSTOP_BB           (PERIPH_BB_BASE + (DCTRL_OFFSET * 32) + (RWSTOP_BitNumber * 4))
 211:Drivers/STM32F4xx_StdPeriph_Driver/src/stm32f4xx_sdio.c **** 
 212:Drivers/STM32F4xx_StdPeriph_Driver/src/stm32f4xx_sdio.c **** /* Alias word address of RWMOD bit */
 213:Drivers/STM32F4xx_StdPeriph_Driver/src/stm32f4xx_sdio.c **** #define RWMOD_BitNumber           0x0A
 214:Drivers/STM32F4xx_StdPeriph_Driver/src/stm32f4xx_sdio.c **** #define DCTRL_RWMOD_BB            (PERIPH_BB_BASE + (DCTRL_OFFSET * 32) + (RWMOD_BitNumber * 4))
 215:Drivers/STM32F4xx_StdPeriph_Driver/src/stm32f4xx_sdio.c **** 
 216:Drivers/STM32F4xx_StdPeriph_Driver/src/stm32f4xx_sdio.c **** /* Alias word address of SDIOEN bit */
 217:Drivers/STM32F4xx_StdPeriph_Driver/src/stm32f4xx_sdio.c **** #define SDIOEN_BitNumber          0x0B
 218:Drivers/STM32F4xx_StdPeriph_Driver/src/stm32f4xx_sdio.c **** #define DCTRL_SDIOEN_BB           (PERIPH_BB_BASE + (DCTRL_OFFSET * 32) + (SDIOEN_BitNumber * 4))
 219:Drivers/STM32F4xx_StdPeriph_Driver/src/stm32f4xx_sdio.c **** 
 220:Drivers/STM32F4xx_StdPeriph_Driver/src/stm32f4xx_sdio.c **** /* ---------------------- SDIO registers bit mask ------------------------ */
 221:Drivers/STM32F4xx_StdPeriph_Driver/src/stm32f4xx_sdio.c **** /* --- CLKCR Register ---*/
 222:Drivers/STM32F4xx_StdPeriph_Driver/src/stm32f4xx_sdio.c **** /* CLKCR register clear mask */
 223:Drivers/STM32F4xx_StdPeriph_Driver/src/stm32f4xx_sdio.c **** #define CLKCR_CLEAR_MASK         ((uint32_t)0xFFFF8100) 
 224:Drivers/STM32F4xx_StdPeriph_Driver/src/stm32f4xx_sdio.c **** 
 225:Drivers/STM32F4xx_StdPeriph_Driver/src/stm32f4xx_sdio.c **** /* --- PWRCTRL Register ---*/
 226:Drivers/STM32F4xx_StdPeriph_Driver/src/stm32f4xx_sdio.c **** /* SDIO PWRCTRL Mask */
 227:Drivers/STM32F4xx_StdPeriph_Driver/src/stm32f4xx_sdio.c **** #define PWR_PWRCTRL_MASK         ((uint32_t)0xFFFFFFFC)
 228:Drivers/STM32F4xx_StdPeriph_Driver/src/stm32f4xx_sdio.c **** 
 229:Drivers/STM32F4xx_StdPeriph_Driver/src/stm32f4xx_sdio.c **** /* --- DCTRL Register ---*/
 230:Drivers/STM32F4xx_StdPeriph_Driver/src/stm32f4xx_sdio.c **** /* SDIO DCTRL Clear Mask */
 231:Drivers/STM32F4xx_StdPeriph_Driver/src/stm32f4xx_sdio.c **** #define DCTRL_CLEAR_MASK         ((uint32_t)0xFFFFFF08)
 232:Drivers/STM32F4xx_StdPeriph_Driver/src/stm32f4xx_sdio.c **** 
 233:Drivers/STM32F4xx_StdPeriph_Driver/src/stm32f4xx_sdio.c **** /* --- CMD Register ---*/
 234:Drivers/STM32F4xx_StdPeriph_Driver/src/stm32f4xx_sdio.c **** /* CMD Register clear mask */
 235:Drivers/STM32F4xx_StdPeriph_Driver/src/stm32f4xx_sdio.c **** #define CMD_CLEAR_MASK           ((uint32_t)0xFFFFF800)
 236:Drivers/STM32F4xx_StdPeriph_Driver/src/stm32f4xx_sdio.c **** 
 237:Drivers/STM32F4xx_StdPeriph_Driver/src/stm32f4xx_sdio.c **** /* SDIO RESP Registers Address */
 238:Drivers/STM32F4xx_StdPeriph_Driver/src/stm32f4xx_sdio.c **** #define SDIO_RESP_ADDR           ((uint32_t)(SDIO_BASE + 0x14))
 239:Drivers/STM32F4xx_StdPeriph_Driver/src/stm32f4xx_sdio.c **** 
 240:Drivers/STM32F4xx_StdPeriph_Driver/src/stm32f4xx_sdio.c **** /* Private macro -------------------------------------------------------------*/
 241:Drivers/STM32F4xx_StdPeriph_Driver/src/stm32f4xx_sdio.c **** /* Private variables ---------------------------------------------------------*/
 242:Drivers/STM32F4xx_StdPeriph_Driver/src/stm32f4xx_sdio.c **** /* Private function prototypes -----------------------------------------------*/
 243:Drivers/STM32F4xx_StdPeriph_Driver/src/stm32f4xx_sdio.c **** /* Private functions ---------------------------------------------------------*/
 244:Drivers/STM32F4xx_StdPeriph_Driver/src/stm32f4xx_sdio.c **** 
 245:Drivers/STM32F4xx_StdPeriph_Driver/src/stm32f4xx_sdio.c **** /** @defgroup SDIO_Private_Functions
 246:Drivers/STM32F4xx_StdPeriph_Driver/src/stm32f4xx_sdio.c ****   * @{
 247:Drivers/STM32F4xx_StdPeriph_Driver/src/stm32f4xx_sdio.c ****   */
 248:Drivers/STM32F4xx_StdPeriph_Driver/src/stm32f4xx_sdio.c **** 
 249:Drivers/STM32F4xx_StdPeriph_Driver/src/stm32f4xx_sdio.c **** /** @defgroup SDIO_Group1 Initialization and Configuration functions
 250:Drivers/STM32F4xx_StdPeriph_Driver/src/stm32f4xx_sdio.c ****  *  @brief   Initialization and Configuration functions 
 251:Drivers/STM32F4xx_StdPeriph_Driver/src/stm32f4xx_sdio.c ****  *
 252:Drivers/STM32F4xx_StdPeriph_Driver/src/stm32f4xx_sdio.c **** @verbatim   
 253:Drivers/STM32F4xx_StdPeriph_Driver/src/stm32f4xx_sdio.c ****  ===============================================================================
 254:Drivers/STM32F4xx_StdPeriph_Driver/src/stm32f4xx_sdio.c ****               ##### Initialization and Configuration functions #####
 255:Drivers/STM32F4xx_StdPeriph_Driver/src/stm32f4xx_sdio.c ****  ===============================================================================
 256:Drivers/STM32F4xx_StdPeriph_Driver/src/stm32f4xx_sdio.c **** 
 257:Drivers/STM32F4xx_StdPeriph_Driver/src/stm32f4xx_sdio.c **** @endverbatim
 258:Drivers/STM32F4xx_StdPeriph_Driver/src/stm32f4xx_sdio.c ****   * @{
ARM GAS  /tmp/ccibS9wU.s 			page 6


 259:Drivers/STM32F4xx_StdPeriph_Driver/src/stm32f4xx_sdio.c ****   */
 260:Drivers/STM32F4xx_StdPeriph_Driver/src/stm32f4xx_sdio.c **** 
 261:Drivers/STM32F4xx_StdPeriph_Driver/src/stm32f4xx_sdio.c **** /**
 262:Drivers/STM32F4xx_StdPeriph_Driver/src/stm32f4xx_sdio.c ****   * @brief  Deinitializes the SDIO peripheral registers to their default reset values.
 263:Drivers/STM32F4xx_StdPeriph_Driver/src/stm32f4xx_sdio.c ****   * @param  None
 264:Drivers/STM32F4xx_StdPeriph_Driver/src/stm32f4xx_sdio.c ****   * @retval None
 265:Drivers/STM32F4xx_StdPeriph_Driver/src/stm32f4xx_sdio.c ****   */
 266:Drivers/STM32F4xx_StdPeriph_Driver/src/stm32f4xx_sdio.c **** void SDIO_DeInit(void)
 267:Drivers/STM32F4xx_StdPeriph_Driver/src/stm32f4xx_sdio.c **** {
  29              		.loc 1 267 1 view -0
  30              		.cfi_startproc
  31              		@ args = 0, pretend = 0, frame = 0
  32              		@ frame_needed = 0, uses_anonymous_args = 0
  33 0000 08B5     		push	{r3, lr}
  34              		.cfi_def_cfa_offset 8
  35              		.cfi_offset 3, -8
  36              		.cfi_offset 14, -4
 268:Drivers/STM32F4xx_StdPeriph_Driver/src/stm32f4xx_sdio.c ****   RCC_APB2PeriphResetCmd(RCC_APB2Periph_SDIO, ENABLE);
  37              		.loc 1 268 3 view .LVU1
  38 0002 0121     		movs	r1, #1
  39 0004 4FF40060 		mov	r0, #2048
  40 0008 FFF7FEFF 		bl	RCC_APB2PeriphResetCmd
  41              	.LVL0:
 269:Drivers/STM32F4xx_StdPeriph_Driver/src/stm32f4xx_sdio.c ****   RCC_APB2PeriphResetCmd(RCC_APB2Periph_SDIO, DISABLE);
  42              		.loc 1 269 3 view .LVU2
  43 000c 0021     		movs	r1, #0
  44 000e 4FF40060 		mov	r0, #2048
  45 0012 FFF7FEFF 		bl	RCC_APB2PeriphResetCmd
  46              	.LVL1:
 270:Drivers/STM32F4xx_StdPeriph_Driver/src/stm32f4xx_sdio.c **** }
  47              		.loc 1 270 1 is_stmt 0 view .LVU3
  48 0016 08BD     		pop	{r3, pc}
  49              		.cfi_endproc
  50              	.LFE123:
  52              		.section	.text.SDIO_Init,"ax",%progbits
  53              		.align	1
  54              		.global	SDIO_Init
  55              		.syntax unified
  56              		.thumb
  57              		.thumb_func
  59              	SDIO_Init:
  60              	.LVL2:
  61              	.LFB124:
 271:Drivers/STM32F4xx_StdPeriph_Driver/src/stm32f4xx_sdio.c **** 
 272:Drivers/STM32F4xx_StdPeriph_Driver/src/stm32f4xx_sdio.c **** /**
 273:Drivers/STM32F4xx_StdPeriph_Driver/src/stm32f4xx_sdio.c ****   * @brief  Initializes the SDIO peripheral according to the specified 
 274:Drivers/STM32F4xx_StdPeriph_Driver/src/stm32f4xx_sdio.c ****   *         parameters in the SDIO_InitStruct.
 275:Drivers/STM32F4xx_StdPeriph_Driver/src/stm32f4xx_sdio.c ****   * @param  SDIO_InitStruct : pointer to a SDIO_InitTypeDef structure 
 276:Drivers/STM32F4xx_StdPeriph_Driver/src/stm32f4xx_sdio.c ****   *         that contains the configuration information for the SDIO peripheral.
 277:Drivers/STM32F4xx_StdPeriph_Driver/src/stm32f4xx_sdio.c ****   * @retval None
 278:Drivers/STM32F4xx_StdPeriph_Driver/src/stm32f4xx_sdio.c ****   */
 279:Drivers/STM32F4xx_StdPeriph_Driver/src/stm32f4xx_sdio.c **** void SDIO_Init(SDIO_InitTypeDef* SDIO_InitStruct)
 280:Drivers/STM32F4xx_StdPeriph_Driver/src/stm32f4xx_sdio.c **** {
  62              		.loc 1 280 1 is_stmt 1 view -0
  63              		.cfi_startproc
  64              		@ args = 0, pretend = 0, frame = 0
  65              		@ frame_needed = 0, uses_anonymous_args = 0
ARM GAS  /tmp/ccibS9wU.s 			page 7


  66              		@ link register save eliminated.
  67              		.loc 1 280 1 is_stmt 0 view .LVU5
  68 0000 10B4     		push	{r4}
  69              		.cfi_def_cfa_offset 4
  70              		.cfi_offset 4, -4
 281:Drivers/STM32F4xx_StdPeriph_Driver/src/stm32f4xx_sdio.c ****   uint32_t tmpreg = 0;
  71              		.loc 1 281 3 is_stmt 1 view .LVU6
  72              	.LVL3:
 282:Drivers/STM32F4xx_StdPeriph_Driver/src/stm32f4xx_sdio.c ****     
 283:Drivers/STM32F4xx_StdPeriph_Driver/src/stm32f4xx_sdio.c ****   /* Check the parameters */
 284:Drivers/STM32F4xx_StdPeriph_Driver/src/stm32f4xx_sdio.c ****   assert_param(IS_SDIO_CLOCK_EDGE(SDIO_InitStruct->SDIO_ClockEdge));
  73              		.loc 1 284 3 view .LVU7
 285:Drivers/STM32F4xx_StdPeriph_Driver/src/stm32f4xx_sdio.c ****   assert_param(IS_SDIO_CLOCK_BYPASS(SDIO_InitStruct->SDIO_ClockBypass));
  74              		.loc 1 285 3 view .LVU8
 286:Drivers/STM32F4xx_StdPeriph_Driver/src/stm32f4xx_sdio.c ****   assert_param(IS_SDIO_CLOCK_POWER_SAVE(SDIO_InitStruct->SDIO_ClockPowerSave));
  75              		.loc 1 286 3 view .LVU9
 287:Drivers/STM32F4xx_StdPeriph_Driver/src/stm32f4xx_sdio.c ****   assert_param(IS_SDIO_BUS_WIDE(SDIO_InitStruct->SDIO_BusWide));
  76              		.loc 1 287 3 view .LVU10
 288:Drivers/STM32F4xx_StdPeriph_Driver/src/stm32f4xx_sdio.c ****   assert_param(IS_SDIO_HARDWARE_FLOW_CONTROL(SDIO_InitStruct->SDIO_HardwareFlowControl)); 
  77              		.loc 1 288 3 view .LVU11
 289:Drivers/STM32F4xx_StdPeriph_Driver/src/stm32f4xx_sdio.c ****    
 290:Drivers/STM32F4xx_StdPeriph_Driver/src/stm32f4xx_sdio.c **** /*---------------------------- SDIO CLKCR Configuration ------------------------*/  
 291:Drivers/STM32F4xx_StdPeriph_Driver/src/stm32f4xx_sdio.c ****   /* Get the SDIO CLKCR value */
 292:Drivers/STM32F4xx_StdPeriph_Driver/src/stm32f4xx_sdio.c ****   tmpreg = SDIO->CLKCR;
  78              		.loc 1 292 3 view .LVU12
  79              		.loc 1 292 10 is_stmt 0 view .LVU13
  80 0002 0B49     		ldr	r1, .L5
  81 0004 4A68     		ldr	r2, [r1, #4]
  82              	.LVL4:
 293:Drivers/STM32F4xx_StdPeriph_Driver/src/stm32f4xx_sdio.c ****   
 294:Drivers/STM32F4xx_StdPeriph_Driver/src/stm32f4xx_sdio.c ****   /* Clear CLKDIV, PWRSAV, BYPASS, WIDBUS, NEGEDGE, HWFC_EN bits */
 295:Drivers/STM32F4xx_StdPeriph_Driver/src/stm32f4xx_sdio.c ****   tmpreg &= CLKCR_CLEAR_MASK;
  83              		.loc 1 295 3 is_stmt 1 view .LVU14
  84              		.loc 1 295 10 is_stmt 0 view .LVU15
  85 0006 22F4FD42 		bic	r2, r2, #32384
  86              	.LVL5:
  87              		.loc 1 295 10 view .LVU16
  88 000a 22F07F02 		bic	r2, r2, #127
  89              	.LVL6:
 296:Drivers/STM32F4xx_StdPeriph_Driver/src/stm32f4xx_sdio.c ****   
 297:Drivers/STM32F4xx_StdPeriph_Driver/src/stm32f4xx_sdio.c ****   /* Set CLKDIV bits according to SDIO_ClockDiv value */
 298:Drivers/STM32F4xx_StdPeriph_Driver/src/stm32f4xx_sdio.c ****   /* Set PWRSAV bit according to SDIO_ClockPowerSave value */
 299:Drivers/STM32F4xx_StdPeriph_Driver/src/stm32f4xx_sdio.c ****   /* Set BYPASS bit according to SDIO_ClockBypass value */
 300:Drivers/STM32F4xx_StdPeriph_Driver/src/stm32f4xx_sdio.c ****   /* Set WIDBUS bits according to SDIO_BusWide value */
 301:Drivers/STM32F4xx_StdPeriph_Driver/src/stm32f4xx_sdio.c ****   /* Set NEGEDGE bits according to SDIO_ClockEdge value */
 302:Drivers/STM32F4xx_StdPeriph_Driver/src/stm32f4xx_sdio.c ****   /* Set HWFC_EN bits according to SDIO_HardwareFlowControl value */
 303:Drivers/STM32F4xx_StdPeriph_Driver/src/stm32f4xx_sdio.c ****   tmpreg |= (SDIO_InitStruct->SDIO_ClockDiv  | SDIO_InitStruct->SDIO_ClockPowerSave |
  90              		.loc 1 303 3 is_stmt 1 view .LVU17
  91              		.loc 1 303 29 is_stmt 0 view .LVU18
  92 000e 037D     		ldrb	r3, [r0, #20]	@ zero_extendqisi2
  93              		.loc 1 303 46 view .LVU19
  94 0010 8468     		ldr	r4, [r0, #8]
  95 0012 2343     		orrs	r3, r3, r4
  96              		.loc 1 303 85 view .LVU20
  97 0014 4468     		ldr	r4, [r0, #4]
  98 0016 2343     		orrs	r3, r3, r4
 304:Drivers/STM32F4xx_StdPeriph_Driver/src/stm32f4xx_sdio.c ****              SDIO_InitStruct->SDIO_ClockBypass | SDIO_InitStruct->SDIO_BusWide |
ARM GAS  /tmp/ccibS9wU.s 			page 8


  99              		.loc 1 304 48 view .LVU21
 100 0018 C468     		ldr	r4, [r0, #12]
 101 001a 2343     		orrs	r3, r3, r4
 102              		.loc 1 304 80 view .LVU22
 103 001c 0468     		ldr	r4, [r0]
 104 001e 2343     		orrs	r3, r3, r4
 305:Drivers/STM32F4xx_StdPeriph_Driver/src/stm32f4xx_sdio.c ****              SDIO_InitStruct->SDIO_ClockEdge | SDIO_InitStruct->SDIO_HardwareFlowControl); 
 105              		.loc 1 305 63 view .LVU23
 106 0020 0069     		ldr	r0, [r0, #16]
 107              	.LVL7:
 108              		.loc 1 305 46 view .LVU24
 109 0022 0343     		orrs	r3, r3, r0
 303:Drivers/STM32F4xx_StdPeriph_Driver/src/stm32f4xx_sdio.c ****              SDIO_InitStruct->SDIO_ClockBypass | SDIO_InitStruct->SDIO_BusWide |
 110              		.loc 1 303 10 view .LVU25
 111 0024 1343     		orrs	r3, r3, r2
 112              	.LVL8:
 306:Drivers/STM32F4xx_StdPeriph_Driver/src/stm32f4xx_sdio.c ****   
 307:Drivers/STM32F4xx_StdPeriph_Driver/src/stm32f4xx_sdio.c ****   /* Write to SDIO CLKCR */
 308:Drivers/STM32F4xx_StdPeriph_Driver/src/stm32f4xx_sdio.c ****   SDIO->CLKCR = tmpreg;
 113              		.loc 1 308 3 is_stmt 1 view .LVU26
 114              		.loc 1 308 15 is_stmt 0 view .LVU27
 115 0026 4B60     		str	r3, [r1, #4]
 309:Drivers/STM32F4xx_StdPeriph_Driver/src/stm32f4xx_sdio.c **** }
 116              		.loc 1 309 1 view .LVU28
 117 0028 5DF8044B 		ldr	r4, [sp], #4
 118              		.cfi_restore 4
 119              		.cfi_def_cfa_offset 0
 120 002c 7047     		bx	lr
 121              	.L6:
 122 002e 00BF     		.align	2
 123              	.L5:
 124 0030 002C0140 		.word	1073818624
 125              		.cfi_endproc
 126              	.LFE124:
 128              		.section	.text.SDIO_StructInit,"ax",%progbits
 129              		.align	1
 130              		.global	SDIO_StructInit
 131              		.syntax unified
 132              		.thumb
 133              		.thumb_func
 135              	SDIO_StructInit:
 136              	.LVL9:
 137              	.LFB125:
 310:Drivers/STM32F4xx_StdPeriph_Driver/src/stm32f4xx_sdio.c **** 
 311:Drivers/STM32F4xx_StdPeriph_Driver/src/stm32f4xx_sdio.c **** /**
 312:Drivers/STM32F4xx_StdPeriph_Driver/src/stm32f4xx_sdio.c ****   * @brief  Fills each SDIO_InitStruct member with its default value.
 313:Drivers/STM32F4xx_StdPeriph_Driver/src/stm32f4xx_sdio.c ****   * @param  SDIO_InitStruct: pointer to an SDIO_InitTypeDef structure which 
 314:Drivers/STM32F4xx_StdPeriph_Driver/src/stm32f4xx_sdio.c ****   *         will be initialized.
 315:Drivers/STM32F4xx_StdPeriph_Driver/src/stm32f4xx_sdio.c ****   * @retval None
 316:Drivers/STM32F4xx_StdPeriph_Driver/src/stm32f4xx_sdio.c ****   */
 317:Drivers/STM32F4xx_StdPeriph_Driver/src/stm32f4xx_sdio.c **** void SDIO_StructInit(SDIO_InitTypeDef* SDIO_InitStruct)
 318:Drivers/STM32F4xx_StdPeriph_Driver/src/stm32f4xx_sdio.c **** {
 138              		.loc 1 318 1 is_stmt 1 view -0
 139              		.cfi_startproc
 140              		@ args = 0, pretend = 0, frame = 0
 141              		@ frame_needed = 0, uses_anonymous_args = 0
 142              		@ link register save eliminated.
ARM GAS  /tmp/ccibS9wU.s 			page 9


 319:Drivers/STM32F4xx_StdPeriph_Driver/src/stm32f4xx_sdio.c ****   /* SDIO_InitStruct members default value */
 320:Drivers/STM32F4xx_StdPeriph_Driver/src/stm32f4xx_sdio.c ****   SDIO_InitStruct->SDIO_ClockDiv = 0x00;
 143              		.loc 1 320 3 view .LVU30
 144              		.loc 1 320 34 is_stmt 0 view .LVU31
 145 0000 0023     		movs	r3, #0
 146 0002 0375     		strb	r3, [r0, #20]
 321:Drivers/STM32F4xx_StdPeriph_Driver/src/stm32f4xx_sdio.c ****   SDIO_InitStruct->SDIO_ClockEdge = SDIO_ClockEdge_Rising;
 147              		.loc 1 321 3 is_stmt 1 view .LVU32
 148              		.loc 1 321 35 is_stmt 0 view .LVU33
 149 0004 0360     		str	r3, [r0]
 322:Drivers/STM32F4xx_StdPeriph_Driver/src/stm32f4xx_sdio.c ****   SDIO_InitStruct->SDIO_ClockBypass = SDIO_ClockBypass_Disable;
 150              		.loc 1 322 3 is_stmt 1 view .LVU34
 151              		.loc 1 322 37 is_stmt 0 view .LVU35
 152 0006 4360     		str	r3, [r0, #4]
 323:Drivers/STM32F4xx_StdPeriph_Driver/src/stm32f4xx_sdio.c ****   SDIO_InitStruct->SDIO_ClockPowerSave = SDIO_ClockPowerSave_Disable;
 153              		.loc 1 323 3 is_stmt 1 view .LVU36
 154              		.loc 1 323 40 is_stmt 0 view .LVU37
 155 0008 8360     		str	r3, [r0, #8]
 324:Drivers/STM32F4xx_StdPeriph_Driver/src/stm32f4xx_sdio.c ****   SDIO_InitStruct->SDIO_BusWide = SDIO_BusWide_1b;
 156              		.loc 1 324 3 is_stmt 1 view .LVU38
 157              		.loc 1 324 33 is_stmt 0 view .LVU39
 158 000a C360     		str	r3, [r0, #12]
 325:Drivers/STM32F4xx_StdPeriph_Driver/src/stm32f4xx_sdio.c ****   SDIO_InitStruct->SDIO_HardwareFlowControl = SDIO_HardwareFlowControl_Disable;
 159              		.loc 1 325 3 is_stmt 1 view .LVU40
 160              		.loc 1 325 45 is_stmt 0 view .LVU41
 161 000c 0361     		str	r3, [r0, #16]
 326:Drivers/STM32F4xx_StdPeriph_Driver/src/stm32f4xx_sdio.c **** }
 162              		.loc 1 326 1 view .LVU42
 163 000e 7047     		bx	lr
 164              		.cfi_endproc
 165              	.LFE125:
 167              		.section	.text.SDIO_ClockCmd,"ax",%progbits
 168              		.align	1
 169              		.global	SDIO_ClockCmd
 170              		.syntax unified
 171              		.thumb
 172              		.thumb_func
 174              	SDIO_ClockCmd:
 175              	.LVL10:
 176              	.LFB126:
 327:Drivers/STM32F4xx_StdPeriph_Driver/src/stm32f4xx_sdio.c **** 
 328:Drivers/STM32F4xx_StdPeriph_Driver/src/stm32f4xx_sdio.c **** /**
 329:Drivers/STM32F4xx_StdPeriph_Driver/src/stm32f4xx_sdio.c ****   * @brief  Enables or disables the SDIO Clock.
 330:Drivers/STM32F4xx_StdPeriph_Driver/src/stm32f4xx_sdio.c ****   * @param  NewState: new state of the SDIO Clock. 
 331:Drivers/STM32F4xx_StdPeriph_Driver/src/stm32f4xx_sdio.c ****   *         This parameter can be: ENABLE or DISABLE.
 332:Drivers/STM32F4xx_StdPeriph_Driver/src/stm32f4xx_sdio.c ****   * @retval None
 333:Drivers/STM32F4xx_StdPeriph_Driver/src/stm32f4xx_sdio.c ****   */
 334:Drivers/STM32F4xx_StdPeriph_Driver/src/stm32f4xx_sdio.c **** void SDIO_ClockCmd(FunctionalState NewState)
 335:Drivers/STM32F4xx_StdPeriph_Driver/src/stm32f4xx_sdio.c **** {
 177              		.loc 1 335 1 is_stmt 1 view -0
 178              		.cfi_startproc
 179              		@ args = 0, pretend = 0, frame = 0
 180              		@ frame_needed = 0, uses_anonymous_args = 0
 181              		@ link register save eliminated.
 336:Drivers/STM32F4xx_StdPeriph_Driver/src/stm32f4xx_sdio.c ****   /* Check the parameters */
 337:Drivers/STM32F4xx_StdPeriph_Driver/src/stm32f4xx_sdio.c ****   assert_param(IS_FUNCTIONAL_STATE(NewState));
 182              		.loc 1 337 3 view .LVU44
ARM GAS  /tmp/ccibS9wU.s 			page 10


 338:Drivers/STM32F4xx_StdPeriph_Driver/src/stm32f4xx_sdio.c ****   
 339:Drivers/STM32F4xx_StdPeriph_Driver/src/stm32f4xx_sdio.c ****   *(__IO uint32_t *) CLKCR_CLKEN_BB = (uint32_t)NewState;
 183              		.loc 1 339 3 view .LVU45
 184              		.loc 1 339 37 is_stmt 0 view .LVU46
 185 0000 014B     		ldr	r3, .L9
 186 0002 C3F8A000 		str	r0, [r3, #160]
 340:Drivers/STM32F4xx_StdPeriph_Driver/src/stm32f4xx_sdio.c **** }
 187              		.loc 1 340 1 view .LVU47
 188 0006 7047     		bx	lr
 189              	.L10:
 190              		.align	2
 191              	.L9:
 192 0008 00802542 		.word	1109753856
 193              		.cfi_endproc
 194              	.LFE126:
 196              		.section	.text.SDIO_SetPowerState,"ax",%progbits
 197              		.align	1
 198              		.global	SDIO_SetPowerState
 199              		.syntax unified
 200              		.thumb
 201              		.thumb_func
 203              	SDIO_SetPowerState:
 204              	.LVL11:
 205              	.LFB127:
 341:Drivers/STM32F4xx_StdPeriph_Driver/src/stm32f4xx_sdio.c **** 
 342:Drivers/STM32F4xx_StdPeriph_Driver/src/stm32f4xx_sdio.c **** /**
 343:Drivers/STM32F4xx_StdPeriph_Driver/src/stm32f4xx_sdio.c ****   * @brief  Sets the power status of the controller.
 344:Drivers/STM32F4xx_StdPeriph_Driver/src/stm32f4xx_sdio.c ****   * @param  SDIO_PowerState: new state of the Power state. 
 345:Drivers/STM32F4xx_StdPeriph_Driver/src/stm32f4xx_sdio.c ****   *          This parameter can be one of the following values:
 346:Drivers/STM32F4xx_StdPeriph_Driver/src/stm32f4xx_sdio.c ****   *            @arg SDIO_PowerState_OFF: SDIO Power OFF
 347:Drivers/STM32F4xx_StdPeriph_Driver/src/stm32f4xx_sdio.c ****   *            @arg SDIO_PowerState_ON: SDIO Power ON
 348:Drivers/STM32F4xx_StdPeriph_Driver/src/stm32f4xx_sdio.c ****   * @retval None
 349:Drivers/STM32F4xx_StdPeriph_Driver/src/stm32f4xx_sdio.c ****   */
 350:Drivers/STM32F4xx_StdPeriph_Driver/src/stm32f4xx_sdio.c **** void SDIO_SetPowerState(uint32_t SDIO_PowerState)
 351:Drivers/STM32F4xx_StdPeriph_Driver/src/stm32f4xx_sdio.c **** {
 206              		.loc 1 351 1 is_stmt 1 view -0
 207              		.cfi_startproc
 208              		@ args = 0, pretend = 0, frame = 0
 209              		@ frame_needed = 0, uses_anonymous_args = 0
 210              		@ link register save eliminated.
 352:Drivers/STM32F4xx_StdPeriph_Driver/src/stm32f4xx_sdio.c ****   /* Check the parameters */
 353:Drivers/STM32F4xx_StdPeriph_Driver/src/stm32f4xx_sdio.c ****   assert_param(IS_SDIO_POWER_STATE(SDIO_PowerState));
 211              		.loc 1 353 3 view .LVU49
 354:Drivers/STM32F4xx_StdPeriph_Driver/src/stm32f4xx_sdio.c ****   
 355:Drivers/STM32F4xx_StdPeriph_Driver/src/stm32f4xx_sdio.c ****   SDIO->POWER = SDIO_PowerState;
 212              		.loc 1 355 3 view .LVU50
 213              		.loc 1 355 15 is_stmt 0 view .LVU51
 214 0000 014B     		ldr	r3, .L12
 215 0002 1860     		str	r0, [r3]
 356:Drivers/STM32F4xx_StdPeriph_Driver/src/stm32f4xx_sdio.c **** }
 216              		.loc 1 356 1 view .LVU52
 217 0004 7047     		bx	lr
 218              	.L13:
 219 0006 00BF     		.align	2
 220              	.L12:
 221 0008 002C0140 		.word	1073818624
 222              		.cfi_endproc
ARM GAS  /tmp/ccibS9wU.s 			page 11


 223              	.LFE127:
 225              		.section	.text.SDIO_GetPowerState,"ax",%progbits
 226              		.align	1
 227              		.global	SDIO_GetPowerState
 228              		.syntax unified
 229              		.thumb
 230              		.thumb_func
 232              	SDIO_GetPowerState:
 233              	.LFB128:
 357:Drivers/STM32F4xx_StdPeriph_Driver/src/stm32f4xx_sdio.c **** 
 358:Drivers/STM32F4xx_StdPeriph_Driver/src/stm32f4xx_sdio.c **** /**
 359:Drivers/STM32F4xx_StdPeriph_Driver/src/stm32f4xx_sdio.c ****   * @brief  Gets the power status of the controller.
 360:Drivers/STM32F4xx_StdPeriph_Driver/src/stm32f4xx_sdio.c ****   * @param  None
 361:Drivers/STM32F4xx_StdPeriph_Driver/src/stm32f4xx_sdio.c ****   * @retval Power status of the controller. The returned value can be one of the 
 362:Drivers/STM32F4xx_StdPeriph_Driver/src/stm32f4xx_sdio.c ****   *         following values:
 363:Drivers/STM32F4xx_StdPeriph_Driver/src/stm32f4xx_sdio.c ****   *            - 0x00: Power OFF
 364:Drivers/STM32F4xx_StdPeriph_Driver/src/stm32f4xx_sdio.c ****   *            - 0x02: Power UP
 365:Drivers/STM32F4xx_StdPeriph_Driver/src/stm32f4xx_sdio.c ****   *            - 0x03: Power ON 
 366:Drivers/STM32F4xx_StdPeriph_Driver/src/stm32f4xx_sdio.c ****   */
 367:Drivers/STM32F4xx_StdPeriph_Driver/src/stm32f4xx_sdio.c **** uint32_t SDIO_GetPowerState(void)
 368:Drivers/STM32F4xx_StdPeriph_Driver/src/stm32f4xx_sdio.c **** {
 234              		.loc 1 368 1 is_stmt 1 view -0
 235              		.cfi_startproc
 236              		@ args = 0, pretend = 0, frame = 0
 237              		@ frame_needed = 0, uses_anonymous_args = 0
 238              		@ link register save eliminated.
 369:Drivers/STM32F4xx_StdPeriph_Driver/src/stm32f4xx_sdio.c ****   return (SDIO->POWER & (~PWR_PWRCTRL_MASK));
 239              		.loc 1 369 3 view .LVU54
 240              		.loc 1 369 15 is_stmt 0 view .LVU55
 241 0000 024B     		ldr	r3, .L15
 242 0002 1868     		ldr	r0, [r3]
 370:Drivers/STM32F4xx_StdPeriph_Driver/src/stm32f4xx_sdio.c **** }
 243              		.loc 1 370 1 view .LVU56
 244 0004 00F00300 		and	r0, r0, #3
 245 0008 7047     		bx	lr
 246              	.L16:
 247 000a 00BF     		.align	2
 248              	.L15:
 249 000c 002C0140 		.word	1073818624
 250              		.cfi_endproc
 251              	.LFE128:
 253              		.section	.text.SDIO_SendCommand,"ax",%progbits
 254              		.align	1
 255              		.global	SDIO_SendCommand
 256              		.syntax unified
 257              		.thumb
 258              		.thumb_func
 260              	SDIO_SendCommand:
 261              	.LVL12:
 262              	.LFB129:
 371:Drivers/STM32F4xx_StdPeriph_Driver/src/stm32f4xx_sdio.c **** 
 372:Drivers/STM32F4xx_StdPeriph_Driver/src/stm32f4xx_sdio.c **** /**
 373:Drivers/STM32F4xx_StdPeriph_Driver/src/stm32f4xx_sdio.c ****   * @}
 374:Drivers/STM32F4xx_StdPeriph_Driver/src/stm32f4xx_sdio.c ****   */
 375:Drivers/STM32F4xx_StdPeriph_Driver/src/stm32f4xx_sdio.c **** 
 376:Drivers/STM32F4xx_StdPeriph_Driver/src/stm32f4xx_sdio.c **** /** @defgroup SDIO_Group2 Command path state machine (CPSM) management functions
 377:Drivers/STM32F4xx_StdPeriph_Driver/src/stm32f4xx_sdio.c ****  *  @brief   Command path state machine (CPSM) management functions 
ARM GAS  /tmp/ccibS9wU.s 			page 12


 378:Drivers/STM32F4xx_StdPeriph_Driver/src/stm32f4xx_sdio.c ****  *
 379:Drivers/STM32F4xx_StdPeriph_Driver/src/stm32f4xx_sdio.c **** @verbatim   
 380:Drivers/STM32F4xx_StdPeriph_Driver/src/stm32f4xx_sdio.c ****  ===============================================================================
 381:Drivers/STM32F4xx_StdPeriph_Driver/src/stm32f4xx_sdio.c ****         ##### Command path state machine (CPSM) management functions #####
 382:Drivers/STM32F4xx_StdPeriph_Driver/src/stm32f4xx_sdio.c ****  ===============================================================================  
 383:Drivers/STM32F4xx_StdPeriph_Driver/src/stm32f4xx_sdio.c **** 
 384:Drivers/STM32F4xx_StdPeriph_Driver/src/stm32f4xx_sdio.c ****   This section provide functions allowing to program and read the Command path 
 385:Drivers/STM32F4xx_StdPeriph_Driver/src/stm32f4xx_sdio.c ****   state machine (CPSM).
 386:Drivers/STM32F4xx_StdPeriph_Driver/src/stm32f4xx_sdio.c **** 
 387:Drivers/STM32F4xx_StdPeriph_Driver/src/stm32f4xx_sdio.c **** @endverbatim
 388:Drivers/STM32F4xx_StdPeriph_Driver/src/stm32f4xx_sdio.c ****   * @{
 389:Drivers/STM32F4xx_StdPeriph_Driver/src/stm32f4xx_sdio.c ****   */
 390:Drivers/STM32F4xx_StdPeriph_Driver/src/stm32f4xx_sdio.c **** 
 391:Drivers/STM32F4xx_StdPeriph_Driver/src/stm32f4xx_sdio.c **** /**
 392:Drivers/STM32F4xx_StdPeriph_Driver/src/stm32f4xx_sdio.c ****   * @brief  Initializes the SDIO Command according to the specified 
 393:Drivers/STM32F4xx_StdPeriph_Driver/src/stm32f4xx_sdio.c ****   *         parameters in the SDIO_CmdInitStruct and send the command.
 394:Drivers/STM32F4xx_StdPeriph_Driver/src/stm32f4xx_sdio.c ****   * @param  SDIO_CmdInitStruct : pointer to a SDIO_CmdInitTypeDef 
 395:Drivers/STM32F4xx_StdPeriph_Driver/src/stm32f4xx_sdio.c ****   *         structure that contains the configuration information for the SDIO 
 396:Drivers/STM32F4xx_StdPeriph_Driver/src/stm32f4xx_sdio.c ****   *         command.
 397:Drivers/STM32F4xx_StdPeriph_Driver/src/stm32f4xx_sdio.c ****   * @retval None
 398:Drivers/STM32F4xx_StdPeriph_Driver/src/stm32f4xx_sdio.c ****   */
 399:Drivers/STM32F4xx_StdPeriph_Driver/src/stm32f4xx_sdio.c **** void SDIO_SendCommand(SDIO_CmdInitTypeDef *SDIO_CmdInitStruct)
 400:Drivers/STM32F4xx_StdPeriph_Driver/src/stm32f4xx_sdio.c **** {
 263              		.loc 1 400 1 is_stmt 1 view -0
 264              		.cfi_startproc
 265              		@ args = 0, pretend = 0, frame = 0
 266              		@ frame_needed = 0, uses_anonymous_args = 0
 267              		@ link register save eliminated.
 268              		.loc 1 400 1 is_stmt 0 view .LVU58
 269 0000 10B4     		push	{r4}
 270              		.cfi_def_cfa_offset 4
 271              		.cfi_offset 4, -4
 401:Drivers/STM32F4xx_StdPeriph_Driver/src/stm32f4xx_sdio.c ****   uint32_t tmpreg = 0;
 272              		.loc 1 401 3 is_stmt 1 view .LVU59
 273              	.LVL13:
 402:Drivers/STM32F4xx_StdPeriph_Driver/src/stm32f4xx_sdio.c ****   
 403:Drivers/STM32F4xx_StdPeriph_Driver/src/stm32f4xx_sdio.c ****   /* Check the parameters */
 404:Drivers/STM32F4xx_StdPeriph_Driver/src/stm32f4xx_sdio.c ****   assert_param(IS_SDIO_CMD_INDEX(SDIO_CmdInitStruct->SDIO_CmdIndex));
 274              		.loc 1 404 3 view .LVU60
 405:Drivers/STM32F4xx_StdPeriph_Driver/src/stm32f4xx_sdio.c ****   assert_param(IS_SDIO_RESPONSE(SDIO_CmdInitStruct->SDIO_Response));
 275              		.loc 1 405 3 view .LVU61
 406:Drivers/STM32F4xx_StdPeriph_Driver/src/stm32f4xx_sdio.c ****   assert_param(IS_SDIO_WAIT(SDIO_CmdInitStruct->SDIO_Wait));
 276              		.loc 1 406 3 view .LVU62
 407:Drivers/STM32F4xx_StdPeriph_Driver/src/stm32f4xx_sdio.c ****   assert_param(IS_SDIO_CPSM(SDIO_CmdInitStruct->SDIO_CPSM));
 277              		.loc 1 407 3 view .LVU63
 408:Drivers/STM32F4xx_StdPeriph_Driver/src/stm32f4xx_sdio.c ****   
 409:Drivers/STM32F4xx_StdPeriph_Driver/src/stm32f4xx_sdio.c **** /*---------------------------- SDIO ARG Configuration ------------------------*/
 410:Drivers/STM32F4xx_StdPeriph_Driver/src/stm32f4xx_sdio.c ****   /* Set the SDIO Argument value */
 411:Drivers/STM32F4xx_StdPeriph_Driver/src/stm32f4xx_sdio.c ****   SDIO->ARG = SDIO_CmdInitStruct->SDIO_Argument;
 278              		.loc 1 411 3 view .LVU64
 279              		.loc 1 411 33 is_stmt 0 view .LVU65
 280 0002 0368     		ldr	r3, [r0]
 281              		.loc 1 411 13 view .LVU66
 282 0004 0949     		ldr	r1, .L19
 283 0006 8B60     		str	r3, [r1, #8]
 412:Drivers/STM32F4xx_StdPeriph_Driver/src/stm32f4xx_sdio.c ****   
 413:Drivers/STM32F4xx_StdPeriph_Driver/src/stm32f4xx_sdio.c **** /*---------------------------- SDIO CMD Configuration ------------------------*/  
ARM GAS  /tmp/ccibS9wU.s 			page 13


 414:Drivers/STM32F4xx_StdPeriph_Driver/src/stm32f4xx_sdio.c ****   /* Get the SDIO CMD value */
 415:Drivers/STM32F4xx_StdPeriph_Driver/src/stm32f4xx_sdio.c ****   tmpreg = SDIO->CMD;
 284              		.loc 1 415 3 is_stmt 1 view .LVU67
 285              		.loc 1 415 10 is_stmt 0 view .LVU68
 286 0008 CA68     		ldr	r2, [r1, #12]
 287              	.LVL14:
 416:Drivers/STM32F4xx_StdPeriph_Driver/src/stm32f4xx_sdio.c ****   /* Clear CMDINDEX, WAITRESP, WAITINT, WAITPEND, CPSMEN bits */
 417:Drivers/STM32F4xx_StdPeriph_Driver/src/stm32f4xx_sdio.c ****   tmpreg &= CMD_CLEAR_MASK;
 288              		.loc 1 417 3 is_stmt 1 view .LVU69
 289              		.loc 1 417 10 is_stmt 0 view .LVU70
 290 000a 22F4FF62 		bic	r2, r2, #2040
 291              	.LVL15:
 292              		.loc 1 417 10 view .LVU71
 293 000e 22F00702 		bic	r2, r2, #7
 294              	.LVL16:
 418:Drivers/STM32F4xx_StdPeriph_Driver/src/stm32f4xx_sdio.c ****   /* Set CMDINDEX bits according to SDIO_CmdIndex value */
 419:Drivers/STM32F4xx_StdPeriph_Driver/src/stm32f4xx_sdio.c ****   /* Set WAITRESP bits according to SDIO_Response value */
 420:Drivers/STM32F4xx_StdPeriph_Driver/src/stm32f4xx_sdio.c ****   /* Set WAITINT and WAITPEND bits according to SDIO_Wait value */
 421:Drivers/STM32F4xx_StdPeriph_Driver/src/stm32f4xx_sdio.c ****   /* Set CPSMEN bits according to SDIO_CPSM value */
 422:Drivers/STM32F4xx_StdPeriph_Driver/src/stm32f4xx_sdio.c ****   tmpreg |= (uint32_t)SDIO_CmdInitStruct->SDIO_CmdIndex | SDIO_CmdInitStruct->SDIO_Response
 295              		.loc 1 422 3 is_stmt 1 view .LVU72
 296              		.loc 1 422 41 is_stmt 0 view .LVU73
 297 0012 4368     		ldr	r3, [r0, #4]
 298              		.loc 1 422 57 view .LVU74
 299 0014 8468     		ldr	r4, [r0, #8]
 300 0016 2343     		orrs	r3, r3, r4
 423:Drivers/STM32F4xx_StdPeriph_Driver/src/stm32f4xx_sdio.c ****            | SDIO_CmdInitStruct->SDIO_Wait | SDIO_CmdInitStruct->SDIO_CPSM;
 301              		.loc 1 423 12 view .LVU75
 302 0018 C468     		ldr	r4, [r0, #12]
 303 001a 2343     		orrs	r3, r3, r4
 304              		.loc 1 423 64 view .LVU76
 305 001c 0069     		ldr	r0, [r0, #16]
 306              	.LVL17:
 307              		.loc 1 423 44 view .LVU77
 308 001e 0343     		orrs	r3, r3, r0
 422:Drivers/STM32F4xx_StdPeriph_Driver/src/stm32f4xx_sdio.c ****            | SDIO_CmdInitStruct->SDIO_Wait | SDIO_CmdInitStruct->SDIO_CPSM;
 309              		.loc 1 422 10 view .LVU78
 310 0020 1343     		orrs	r3, r3, r2
 311              	.LVL18:
 424:Drivers/STM32F4xx_StdPeriph_Driver/src/stm32f4xx_sdio.c ****   
 425:Drivers/STM32F4xx_StdPeriph_Driver/src/stm32f4xx_sdio.c ****   /* Write to SDIO CMD */
 426:Drivers/STM32F4xx_StdPeriph_Driver/src/stm32f4xx_sdio.c ****   SDIO->CMD = tmpreg;
 312              		.loc 1 426 3 is_stmt 1 view .LVU79
 313              		.loc 1 426 13 is_stmt 0 view .LVU80
 314 0022 CB60     		str	r3, [r1, #12]
 427:Drivers/STM32F4xx_StdPeriph_Driver/src/stm32f4xx_sdio.c **** }
 315              		.loc 1 427 1 view .LVU81
 316 0024 5DF8044B 		ldr	r4, [sp], #4
 317              		.cfi_restore 4
 318              		.cfi_def_cfa_offset 0
 319 0028 7047     		bx	lr
 320              	.L20:
 321 002a 00BF     		.align	2
 322              	.L19:
 323 002c 002C0140 		.word	1073818624
 324              		.cfi_endproc
 325              	.LFE129:
ARM GAS  /tmp/ccibS9wU.s 			page 14


 327              		.section	.text.SDIO_CmdStructInit,"ax",%progbits
 328              		.align	1
 329              		.global	SDIO_CmdStructInit
 330              		.syntax unified
 331              		.thumb
 332              		.thumb_func
 334              	SDIO_CmdStructInit:
 335              	.LVL19:
 336              	.LFB130:
 428:Drivers/STM32F4xx_StdPeriph_Driver/src/stm32f4xx_sdio.c **** 
 429:Drivers/STM32F4xx_StdPeriph_Driver/src/stm32f4xx_sdio.c **** /**
 430:Drivers/STM32F4xx_StdPeriph_Driver/src/stm32f4xx_sdio.c ****   * @brief  Fills each SDIO_CmdInitStruct member with its default value.
 431:Drivers/STM32F4xx_StdPeriph_Driver/src/stm32f4xx_sdio.c ****   * @param  SDIO_CmdInitStruct: pointer to an SDIO_CmdInitTypeDef 
 432:Drivers/STM32F4xx_StdPeriph_Driver/src/stm32f4xx_sdio.c ****   *         structure which will be initialized.
 433:Drivers/STM32F4xx_StdPeriph_Driver/src/stm32f4xx_sdio.c ****   * @retval None
 434:Drivers/STM32F4xx_StdPeriph_Driver/src/stm32f4xx_sdio.c ****   */
 435:Drivers/STM32F4xx_StdPeriph_Driver/src/stm32f4xx_sdio.c **** void SDIO_CmdStructInit(SDIO_CmdInitTypeDef* SDIO_CmdInitStruct)
 436:Drivers/STM32F4xx_StdPeriph_Driver/src/stm32f4xx_sdio.c **** {
 337              		.loc 1 436 1 is_stmt 1 view -0
 338              		.cfi_startproc
 339              		@ args = 0, pretend = 0, frame = 0
 340              		@ frame_needed = 0, uses_anonymous_args = 0
 341              		@ link register save eliminated.
 437:Drivers/STM32F4xx_StdPeriph_Driver/src/stm32f4xx_sdio.c ****   /* SDIO_CmdInitStruct members default value */
 438:Drivers/STM32F4xx_StdPeriph_Driver/src/stm32f4xx_sdio.c ****   SDIO_CmdInitStruct->SDIO_Argument = 0x00;
 342              		.loc 1 438 3 view .LVU83
 343              		.loc 1 438 37 is_stmt 0 view .LVU84
 344 0000 0023     		movs	r3, #0
 345 0002 0360     		str	r3, [r0]
 439:Drivers/STM32F4xx_StdPeriph_Driver/src/stm32f4xx_sdio.c ****   SDIO_CmdInitStruct->SDIO_CmdIndex = 0x00;
 346              		.loc 1 439 3 is_stmt 1 view .LVU85
 347              		.loc 1 439 37 is_stmt 0 view .LVU86
 348 0004 4360     		str	r3, [r0, #4]
 440:Drivers/STM32F4xx_StdPeriph_Driver/src/stm32f4xx_sdio.c ****   SDIO_CmdInitStruct->SDIO_Response = SDIO_Response_No;
 349              		.loc 1 440 3 is_stmt 1 view .LVU87
 350              		.loc 1 440 37 is_stmt 0 view .LVU88
 351 0006 8360     		str	r3, [r0, #8]
 441:Drivers/STM32F4xx_StdPeriph_Driver/src/stm32f4xx_sdio.c ****   SDIO_CmdInitStruct->SDIO_Wait = SDIO_Wait_No;
 352              		.loc 1 441 3 is_stmt 1 view .LVU89
 353              		.loc 1 441 33 is_stmt 0 view .LVU90
 354 0008 C360     		str	r3, [r0, #12]
 442:Drivers/STM32F4xx_StdPeriph_Driver/src/stm32f4xx_sdio.c ****   SDIO_CmdInitStruct->SDIO_CPSM = SDIO_CPSM_Disable;
 355              		.loc 1 442 3 is_stmt 1 view .LVU91
 356              		.loc 1 442 33 is_stmt 0 view .LVU92
 357 000a 0361     		str	r3, [r0, #16]
 443:Drivers/STM32F4xx_StdPeriph_Driver/src/stm32f4xx_sdio.c **** }
 358              		.loc 1 443 1 view .LVU93
 359 000c 7047     		bx	lr
 360              		.cfi_endproc
 361              	.LFE130:
 363              		.section	.text.SDIO_GetCommandResponse,"ax",%progbits
 364              		.align	1
 365              		.global	SDIO_GetCommandResponse
 366              		.syntax unified
 367              		.thumb
 368              		.thumb_func
 370              	SDIO_GetCommandResponse:
ARM GAS  /tmp/ccibS9wU.s 			page 15


 371              	.LFB131:
 444:Drivers/STM32F4xx_StdPeriph_Driver/src/stm32f4xx_sdio.c **** 
 445:Drivers/STM32F4xx_StdPeriph_Driver/src/stm32f4xx_sdio.c **** /**
 446:Drivers/STM32F4xx_StdPeriph_Driver/src/stm32f4xx_sdio.c ****   * @brief  Returns command index of last command for which response received.
 447:Drivers/STM32F4xx_StdPeriph_Driver/src/stm32f4xx_sdio.c ****   * @param  None
 448:Drivers/STM32F4xx_StdPeriph_Driver/src/stm32f4xx_sdio.c ****   * @retval Returns the command index of the last command response received.
 449:Drivers/STM32F4xx_StdPeriph_Driver/src/stm32f4xx_sdio.c ****   */
 450:Drivers/STM32F4xx_StdPeriph_Driver/src/stm32f4xx_sdio.c **** uint8_t SDIO_GetCommandResponse(void)
 451:Drivers/STM32F4xx_StdPeriph_Driver/src/stm32f4xx_sdio.c **** {
 372              		.loc 1 451 1 is_stmt 1 view -0
 373              		.cfi_startproc
 374              		@ args = 0, pretend = 0, frame = 0
 375              		@ frame_needed = 0, uses_anonymous_args = 0
 376              		@ link register save eliminated.
 452:Drivers/STM32F4xx_StdPeriph_Driver/src/stm32f4xx_sdio.c ****   return (uint8_t)(SDIO->RESPCMD);
 377              		.loc 1 452 3 view .LVU95
 378              		.loc 1 452 24 is_stmt 0 view .LVU96
 379 0000 014B     		ldr	r3, .L23
 380 0002 1869     		ldr	r0, [r3, #16]
 453:Drivers/STM32F4xx_StdPeriph_Driver/src/stm32f4xx_sdio.c **** }
 381              		.loc 1 453 1 view .LVU97
 382 0004 C0B2     		uxtb	r0, r0
 383 0006 7047     		bx	lr
 384              	.L24:
 385              		.align	2
 386              	.L23:
 387 0008 002C0140 		.word	1073818624
 388              		.cfi_endproc
 389              	.LFE131:
 391              		.section	.text.SDIO_GetResponse,"ax",%progbits
 392              		.align	1
 393              		.global	SDIO_GetResponse
 394              		.syntax unified
 395              		.thumb
 396              		.thumb_func
 398              	SDIO_GetResponse:
 399              	.LVL20:
 400              	.LFB132:
 454:Drivers/STM32F4xx_StdPeriph_Driver/src/stm32f4xx_sdio.c **** 
 455:Drivers/STM32F4xx_StdPeriph_Driver/src/stm32f4xx_sdio.c **** /**
 456:Drivers/STM32F4xx_StdPeriph_Driver/src/stm32f4xx_sdio.c ****   * @brief  Returns response received from the card for the last command.
 457:Drivers/STM32F4xx_StdPeriph_Driver/src/stm32f4xx_sdio.c ****   * @param  SDIO_RESP: Specifies the SDIO response register. 
 458:Drivers/STM32F4xx_StdPeriph_Driver/src/stm32f4xx_sdio.c ****   *          This parameter can be one of the following values:
 459:Drivers/STM32F4xx_StdPeriph_Driver/src/stm32f4xx_sdio.c ****   *            @arg SDIO_RESP1: Response Register 1
 460:Drivers/STM32F4xx_StdPeriph_Driver/src/stm32f4xx_sdio.c ****   *            @arg SDIO_RESP2: Response Register 2
 461:Drivers/STM32F4xx_StdPeriph_Driver/src/stm32f4xx_sdio.c ****   *            @arg SDIO_RESP3: Response Register 3
 462:Drivers/STM32F4xx_StdPeriph_Driver/src/stm32f4xx_sdio.c ****   *            @arg SDIO_RESP4: Response Register 4
 463:Drivers/STM32F4xx_StdPeriph_Driver/src/stm32f4xx_sdio.c ****   * @retval The Corresponding response register value.
 464:Drivers/STM32F4xx_StdPeriph_Driver/src/stm32f4xx_sdio.c ****   */
 465:Drivers/STM32F4xx_StdPeriph_Driver/src/stm32f4xx_sdio.c **** uint32_t SDIO_GetResponse(uint32_t SDIO_RESP)
 466:Drivers/STM32F4xx_StdPeriph_Driver/src/stm32f4xx_sdio.c **** {
 401              		.loc 1 466 1 is_stmt 1 view -0
 402              		.cfi_startproc
 403              		@ args = 0, pretend = 0, frame = 8
 404              		@ frame_needed = 0, uses_anonymous_args = 0
 405              		@ link register save eliminated.
 406              		.loc 1 466 1 is_stmt 0 view .LVU99
ARM GAS  /tmp/ccibS9wU.s 			page 16


 407 0000 82B0     		sub	sp, sp, #8
 408              		.cfi_def_cfa_offset 8
 467:Drivers/STM32F4xx_StdPeriph_Driver/src/stm32f4xx_sdio.c ****   __IO uint32_t tmp = 0;
 409              		.loc 1 467 3 is_stmt 1 view .LVU100
 410              		.loc 1 467 17 is_stmt 0 view .LVU101
 411 0002 0023     		movs	r3, #0
 412 0004 0193     		str	r3, [sp, #4]
 468:Drivers/STM32F4xx_StdPeriph_Driver/src/stm32f4xx_sdio.c **** 
 469:Drivers/STM32F4xx_StdPeriph_Driver/src/stm32f4xx_sdio.c ****   /* Check the parameters */
 470:Drivers/STM32F4xx_StdPeriph_Driver/src/stm32f4xx_sdio.c ****   assert_param(IS_SDIO_RESP(SDIO_RESP));
 413              		.loc 1 470 3 is_stmt 1 view .LVU102
 471:Drivers/STM32F4xx_StdPeriph_Driver/src/stm32f4xx_sdio.c **** 
 472:Drivers/STM32F4xx_StdPeriph_Driver/src/stm32f4xx_sdio.c ****   tmp = SDIO_RESP_ADDR + SDIO_RESP;
 414              		.loc 1 472 3 view .LVU103
 415              		.loc 1 472 24 is_stmt 0 view .LVU104
 416 0006 034B     		ldr	r3, .L27
 417 0008 0344     		add	r3, r3, r0
 418              		.loc 1 472 7 view .LVU105
 419 000a 0193     		str	r3, [sp, #4]
 473:Drivers/STM32F4xx_StdPeriph_Driver/src/stm32f4xx_sdio.c ****   
 474:Drivers/STM32F4xx_StdPeriph_Driver/src/stm32f4xx_sdio.c ****   return (*(__IO uint32_t *) tmp); 
 420              		.loc 1 474 3 is_stmt 1 view .LVU106
 421              		.loc 1 474 12 is_stmt 0 view .LVU107
 422 000c 019B     		ldr	r3, [sp, #4]
 423              		.loc 1 474 11 view .LVU108
 424 000e 1868     		ldr	r0, [r3]
 425              	.LVL21:
 475:Drivers/STM32F4xx_StdPeriph_Driver/src/stm32f4xx_sdio.c **** }
 426              		.loc 1 475 1 view .LVU109
 427 0010 02B0     		add	sp, sp, #8
 428              		.cfi_def_cfa_offset 0
 429              		@ sp needed
 430 0012 7047     		bx	lr
 431              	.L28:
 432              		.align	2
 433              	.L27:
 434 0014 142C0140 		.word	1073818644
 435              		.cfi_endproc
 436              	.LFE132:
 438              		.section	.text.SDIO_DataConfig,"ax",%progbits
 439              		.align	1
 440              		.global	SDIO_DataConfig
 441              		.syntax unified
 442              		.thumb
 443              		.thumb_func
 445              	SDIO_DataConfig:
 446              	.LVL22:
 447              	.LFB133:
 476:Drivers/STM32F4xx_StdPeriph_Driver/src/stm32f4xx_sdio.c **** 
 477:Drivers/STM32F4xx_StdPeriph_Driver/src/stm32f4xx_sdio.c **** /**
 478:Drivers/STM32F4xx_StdPeriph_Driver/src/stm32f4xx_sdio.c ****   * @}
 479:Drivers/STM32F4xx_StdPeriph_Driver/src/stm32f4xx_sdio.c ****   */
 480:Drivers/STM32F4xx_StdPeriph_Driver/src/stm32f4xx_sdio.c **** 
 481:Drivers/STM32F4xx_StdPeriph_Driver/src/stm32f4xx_sdio.c **** /** @defgroup SDIO_Group3 Data path state machine (DPSM) management functions
 482:Drivers/STM32F4xx_StdPeriph_Driver/src/stm32f4xx_sdio.c ****  *  @brief   Data path state machine (DPSM) management functions
 483:Drivers/STM32F4xx_StdPeriph_Driver/src/stm32f4xx_sdio.c ****  *
 484:Drivers/STM32F4xx_StdPeriph_Driver/src/stm32f4xx_sdio.c **** @verbatim   
ARM GAS  /tmp/ccibS9wU.s 			page 17


 485:Drivers/STM32F4xx_StdPeriph_Driver/src/stm32f4xx_sdio.c ****  ===============================================================================
 486:Drivers/STM32F4xx_StdPeriph_Driver/src/stm32f4xx_sdio.c ****          ##### Data path state machine (DPSM) management functions #####
 487:Drivers/STM32F4xx_StdPeriph_Driver/src/stm32f4xx_sdio.c ****  ===============================================================================  
 488:Drivers/STM32F4xx_StdPeriph_Driver/src/stm32f4xx_sdio.c **** 
 489:Drivers/STM32F4xx_StdPeriph_Driver/src/stm32f4xx_sdio.c ****   This section provide functions allowing to program and read the Data path 
 490:Drivers/STM32F4xx_StdPeriph_Driver/src/stm32f4xx_sdio.c ****   state machine (DPSM).
 491:Drivers/STM32F4xx_StdPeriph_Driver/src/stm32f4xx_sdio.c **** 
 492:Drivers/STM32F4xx_StdPeriph_Driver/src/stm32f4xx_sdio.c **** @endverbatim
 493:Drivers/STM32F4xx_StdPeriph_Driver/src/stm32f4xx_sdio.c ****   * @{
 494:Drivers/STM32F4xx_StdPeriph_Driver/src/stm32f4xx_sdio.c ****   */
 495:Drivers/STM32F4xx_StdPeriph_Driver/src/stm32f4xx_sdio.c **** 
 496:Drivers/STM32F4xx_StdPeriph_Driver/src/stm32f4xx_sdio.c **** /**
 497:Drivers/STM32F4xx_StdPeriph_Driver/src/stm32f4xx_sdio.c ****   * @brief  Initializes the SDIO data path according to the specified 
 498:Drivers/STM32F4xx_StdPeriph_Driver/src/stm32f4xx_sdio.c ****   *         parameters in the SDIO_DataInitStruct.
 499:Drivers/STM32F4xx_StdPeriph_Driver/src/stm32f4xx_sdio.c ****   * @param  SDIO_DataInitStruct : pointer to a SDIO_DataInitTypeDef structure 
 500:Drivers/STM32F4xx_StdPeriph_Driver/src/stm32f4xx_sdio.c ****   *         that contains the configuration information for the SDIO command.
 501:Drivers/STM32F4xx_StdPeriph_Driver/src/stm32f4xx_sdio.c ****   * @retval None
 502:Drivers/STM32F4xx_StdPeriph_Driver/src/stm32f4xx_sdio.c ****   */
 503:Drivers/STM32F4xx_StdPeriph_Driver/src/stm32f4xx_sdio.c **** void SDIO_DataConfig(SDIO_DataInitTypeDef* SDIO_DataInitStruct)
 504:Drivers/STM32F4xx_StdPeriph_Driver/src/stm32f4xx_sdio.c **** {
 448              		.loc 1 504 1 is_stmt 1 view -0
 449              		.cfi_startproc
 450              		@ args = 0, pretend = 0, frame = 0
 451              		@ frame_needed = 0, uses_anonymous_args = 0
 452              		@ link register save eliminated.
 453              		.loc 1 504 1 is_stmt 0 view .LVU111
 454 0000 10B4     		push	{r4}
 455              		.cfi_def_cfa_offset 4
 456              		.cfi_offset 4, -4
 505:Drivers/STM32F4xx_StdPeriph_Driver/src/stm32f4xx_sdio.c ****   uint32_t tmpreg = 0;
 457              		.loc 1 505 3 is_stmt 1 view .LVU112
 458              	.LVL23:
 506:Drivers/STM32F4xx_StdPeriph_Driver/src/stm32f4xx_sdio.c ****   
 507:Drivers/STM32F4xx_StdPeriph_Driver/src/stm32f4xx_sdio.c ****   /* Check the parameters */
 508:Drivers/STM32F4xx_StdPeriph_Driver/src/stm32f4xx_sdio.c ****   assert_param(IS_SDIO_DATA_LENGTH(SDIO_DataInitStruct->SDIO_DataLength));
 459              		.loc 1 508 3 view .LVU113
 509:Drivers/STM32F4xx_StdPeriph_Driver/src/stm32f4xx_sdio.c ****   assert_param(IS_SDIO_BLOCK_SIZE(SDIO_DataInitStruct->SDIO_DataBlockSize));
 460              		.loc 1 509 3 view .LVU114
 510:Drivers/STM32F4xx_StdPeriph_Driver/src/stm32f4xx_sdio.c ****   assert_param(IS_SDIO_TRANSFER_DIR(SDIO_DataInitStruct->SDIO_TransferDir));
 461              		.loc 1 510 3 view .LVU115
 511:Drivers/STM32F4xx_StdPeriph_Driver/src/stm32f4xx_sdio.c ****   assert_param(IS_SDIO_TRANSFER_MODE(SDIO_DataInitStruct->SDIO_TransferMode));
 462              		.loc 1 511 3 view .LVU116
 512:Drivers/STM32F4xx_StdPeriph_Driver/src/stm32f4xx_sdio.c ****   assert_param(IS_SDIO_DPSM(SDIO_DataInitStruct->SDIO_DPSM));
 463              		.loc 1 512 3 view .LVU117
 513:Drivers/STM32F4xx_StdPeriph_Driver/src/stm32f4xx_sdio.c **** 
 514:Drivers/STM32F4xx_StdPeriph_Driver/src/stm32f4xx_sdio.c **** /*---------------------------- SDIO DTIMER Configuration ---------------------*/
 515:Drivers/STM32F4xx_StdPeriph_Driver/src/stm32f4xx_sdio.c ****   /* Set the SDIO Data TimeOut value */
 516:Drivers/STM32F4xx_StdPeriph_Driver/src/stm32f4xx_sdio.c ****   SDIO->DTIMER = SDIO_DataInitStruct->SDIO_DataTimeOut;
 464              		.loc 1 516 3 view .LVU118
 465              		.loc 1 516 37 is_stmt 0 view .LVU119
 466 0002 0368     		ldr	r3, [r0]
 467              		.loc 1 516 16 view .LVU120
 468 0004 094A     		ldr	r2, .L31
 469 0006 5362     		str	r3, [r2, #36]
 517:Drivers/STM32F4xx_StdPeriph_Driver/src/stm32f4xx_sdio.c **** 
 518:Drivers/STM32F4xx_StdPeriph_Driver/src/stm32f4xx_sdio.c **** /*---------------------------- SDIO DLEN Configuration -----------------------*/
 519:Drivers/STM32F4xx_StdPeriph_Driver/src/stm32f4xx_sdio.c ****   /* Set the SDIO DataLength value */
ARM GAS  /tmp/ccibS9wU.s 			page 18


 520:Drivers/STM32F4xx_StdPeriph_Driver/src/stm32f4xx_sdio.c ****   SDIO->DLEN = SDIO_DataInitStruct->SDIO_DataLength;
 470              		.loc 1 520 3 is_stmt 1 view .LVU121
 471              		.loc 1 520 35 is_stmt 0 view .LVU122
 472 0008 4368     		ldr	r3, [r0, #4]
 473              		.loc 1 520 14 view .LVU123
 474 000a 9362     		str	r3, [r2, #40]
 521:Drivers/STM32F4xx_StdPeriph_Driver/src/stm32f4xx_sdio.c **** 
 522:Drivers/STM32F4xx_StdPeriph_Driver/src/stm32f4xx_sdio.c **** /*---------------------------- SDIO DCTRL Configuration ----------------------*/  
 523:Drivers/STM32F4xx_StdPeriph_Driver/src/stm32f4xx_sdio.c ****   /* Get the SDIO DCTRL value */
 524:Drivers/STM32F4xx_StdPeriph_Driver/src/stm32f4xx_sdio.c ****   tmpreg = SDIO->DCTRL;
 475              		.loc 1 524 3 is_stmt 1 view .LVU124
 476              		.loc 1 524 10 is_stmt 0 view .LVU125
 477 000c D16A     		ldr	r1, [r2, #44]
 478              	.LVL24:
 525:Drivers/STM32F4xx_StdPeriph_Driver/src/stm32f4xx_sdio.c ****   /* Clear DEN, DTMODE, DTDIR and DBCKSIZE bits */
 526:Drivers/STM32F4xx_StdPeriph_Driver/src/stm32f4xx_sdio.c ****   tmpreg &= DCTRL_CLEAR_MASK;
 479              		.loc 1 526 3 is_stmt 1 view .LVU126
 480              		.loc 1 526 10 is_stmt 0 view .LVU127
 481 000e 21F0F701 		bic	r1, r1, #247
 482              	.LVL25:
 527:Drivers/STM32F4xx_StdPeriph_Driver/src/stm32f4xx_sdio.c ****   /* Set DEN bit according to SDIO_DPSM value */
 528:Drivers/STM32F4xx_StdPeriph_Driver/src/stm32f4xx_sdio.c ****   /* Set DTMODE bit according to SDIO_TransferMode value */
 529:Drivers/STM32F4xx_StdPeriph_Driver/src/stm32f4xx_sdio.c ****   /* Set DTDIR bit according to SDIO_TransferDir value */
 530:Drivers/STM32F4xx_StdPeriph_Driver/src/stm32f4xx_sdio.c ****   /* Set DBCKSIZE bits according to SDIO_DataBlockSize value */
 531:Drivers/STM32F4xx_StdPeriph_Driver/src/stm32f4xx_sdio.c ****   tmpreg |= (uint32_t)SDIO_DataInitStruct->SDIO_DataBlockSize | SDIO_DataInitStruct->SDIO_TransferD
 483              		.loc 1 531 3 is_stmt 1 view .LVU128
 484              		.loc 1 531 42 is_stmt 0 view .LVU129
 485 0012 8368     		ldr	r3, [r0, #8]
 486              		.loc 1 531 63 view .LVU130
 487 0014 C468     		ldr	r4, [r0, #12]
 488 0016 2343     		orrs	r3, r3, r4
 532:Drivers/STM32F4xx_StdPeriph_Driver/src/stm32f4xx_sdio.c ****            | SDIO_DataInitStruct->SDIO_TransferMode | SDIO_DataInitStruct->SDIO_DPSM;
 489              		.loc 1 532 12 view .LVU131
 490 0018 0469     		ldr	r4, [r0, #16]
 491 001a 2343     		orrs	r3, r3, r4
 492              		.loc 1 532 74 view .LVU132
 493 001c 4069     		ldr	r0, [r0, #20]
 494              	.LVL26:
 495              		.loc 1 532 53 view .LVU133
 496 001e 0343     		orrs	r3, r3, r0
 531:Drivers/STM32F4xx_StdPeriph_Driver/src/stm32f4xx_sdio.c ****            | SDIO_DataInitStruct->SDIO_TransferMode | SDIO_DataInitStruct->SDIO_DPSM;
 497              		.loc 1 531 10 view .LVU134
 498 0020 0B43     		orrs	r3, r3, r1
 499              	.LVL27:
 533:Drivers/STM32F4xx_StdPeriph_Driver/src/stm32f4xx_sdio.c **** 
 534:Drivers/STM32F4xx_StdPeriph_Driver/src/stm32f4xx_sdio.c ****   /* Write to SDIO DCTRL */
 535:Drivers/STM32F4xx_StdPeriph_Driver/src/stm32f4xx_sdio.c ****   SDIO->DCTRL = tmpreg;
 500              		.loc 1 535 3 is_stmt 1 view .LVU135
 501              		.loc 1 535 15 is_stmt 0 view .LVU136
 502 0022 D362     		str	r3, [r2, #44]
 536:Drivers/STM32F4xx_StdPeriph_Driver/src/stm32f4xx_sdio.c **** }
 503              		.loc 1 536 1 view .LVU137
 504 0024 5DF8044B 		ldr	r4, [sp], #4
 505              		.cfi_restore 4
 506              		.cfi_def_cfa_offset 0
 507 0028 7047     		bx	lr
 508              	.L32:
ARM GAS  /tmp/ccibS9wU.s 			page 19


 509 002a 00BF     		.align	2
 510              	.L31:
 511 002c 002C0140 		.word	1073818624
 512              		.cfi_endproc
 513              	.LFE133:
 515              		.section	.text.SDIO_DataStructInit,"ax",%progbits
 516              		.align	1
 517              		.global	SDIO_DataStructInit
 518              		.syntax unified
 519              		.thumb
 520              		.thumb_func
 522              	SDIO_DataStructInit:
 523              	.LVL28:
 524              	.LFB134:
 537:Drivers/STM32F4xx_StdPeriph_Driver/src/stm32f4xx_sdio.c **** 
 538:Drivers/STM32F4xx_StdPeriph_Driver/src/stm32f4xx_sdio.c **** /**
 539:Drivers/STM32F4xx_StdPeriph_Driver/src/stm32f4xx_sdio.c ****   * @brief  Fills each SDIO_DataInitStruct member with its default value.
 540:Drivers/STM32F4xx_StdPeriph_Driver/src/stm32f4xx_sdio.c ****   * @param  SDIO_DataInitStruct: pointer to an SDIO_DataInitTypeDef structure 
 541:Drivers/STM32F4xx_StdPeriph_Driver/src/stm32f4xx_sdio.c ****   *         which will be initialized.
 542:Drivers/STM32F4xx_StdPeriph_Driver/src/stm32f4xx_sdio.c ****   * @retval None
 543:Drivers/STM32F4xx_StdPeriph_Driver/src/stm32f4xx_sdio.c ****   */
 544:Drivers/STM32F4xx_StdPeriph_Driver/src/stm32f4xx_sdio.c **** void SDIO_DataStructInit(SDIO_DataInitTypeDef* SDIO_DataInitStruct)
 545:Drivers/STM32F4xx_StdPeriph_Driver/src/stm32f4xx_sdio.c **** {
 525              		.loc 1 545 1 is_stmt 1 view -0
 526              		.cfi_startproc
 527              		@ args = 0, pretend = 0, frame = 0
 528              		@ frame_needed = 0, uses_anonymous_args = 0
 529              		@ link register save eliminated.
 546:Drivers/STM32F4xx_StdPeriph_Driver/src/stm32f4xx_sdio.c ****   /* SDIO_DataInitStruct members default value */
 547:Drivers/STM32F4xx_StdPeriph_Driver/src/stm32f4xx_sdio.c ****   SDIO_DataInitStruct->SDIO_DataTimeOut = 0xFFFFFFFF;
 530              		.loc 1 547 3 view .LVU139
 531              		.loc 1 547 41 is_stmt 0 view .LVU140
 532 0000 4FF0FF33 		mov	r3, #-1
 533 0004 0360     		str	r3, [r0]
 548:Drivers/STM32F4xx_StdPeriph_Driver/src/stm32f4xx_sdio.c ****   SDIO_DataInitStruct->SDIO_DataLength = 0x00;
 534              		.loc 1 548 3 is_stmt 1 view .LVU141
 535              		.loc 1 548 40 is_stmt 0 view .LVU142
 536 0006 0023     		movs	r3, #0
 537 0008 4360     		str	r3, [r0, #4]
 549:Drivers/STM32F4xx_StdPeriph_Driver/src/stm32f4xx_sdio.c ****   SDIO_DataInitStruct->SDIO_DataBlockSize = SDIO_DataBlockSize_1b;
 538              		.loc 1 549 3 is_stmt 1 view .LVU143
 539              		.loc 1 549 43 is_stmt 0 view .LVU144
 540 000a 8360     		str	r3, [r0, #8]
 550:Drivers/STM32F4xx_StdPeriph_Driver/src/stm32f4xx_sdio.c ****   SDIO_DataInitStruct->SDIO_TransferDir = SDIO_TransferDir_ToCard;
 541              		.loc 1 550 3 is_stmt 1 view .LVU145
 542              		.loc 1 550 41 is_stmt 0 view .LVU146
 543 000c C360     		str	r3, [r0, #12]
 551:Drivers/STM32F4xx_StdPeriph_Driver/src/stm32f4xx_sdio.c ****   SDIO_DataInitStruct->SDIO_TransferMode = SDIO_TransferMode_Block;  
 544              		.loc 1 551 3 is_stmt 1 view .LVU147
 545              		.loc 1 551 42 is_stmt 0 view .LVU148
 546 000e 0361     		str	r3, [r0, #16]
 552:Drivers/STM32F4xx_StdPeriph_Driver/src/stm32f4xx_sdio.c ****   SDIO_DataInitStruct->SDIO_DPSM = SDIO_DPSM_Disable;
 547              		.loc 1 552 3 is_stmt 1 view .LVU149
 548              		.loc 1 552 34 is_stmt 0 view .LVU150
 549 0010 4361     		str	r3, [r0, #20]
 553:Drivers/STM32F4xx_StdPeriph_Driver/src/stm32f4xx_sdio.c **** }
 550              		.loc 1 553 1 view .LVU151
ARM GAS  /tmp/ccibS9wU.s 			page 20


 551 0012 7047     		bx	lr
 552              		.cfi_endproc
 553              	.LFE134:
 555              		.section	.text.SDIO_GetDataCounter,"ax",%progbits
 556              		.align	1
 557              		.global	SDIO_GetDataCounter
 558              		.syntax unified
 559              		.thumb
 560              		.thumb_func
 562              	SDIO_GetDataCounter:
 563              	.LFB135:
 554:Drivers/STM32F4xx_StdPeriph_Driver/src/stm32f4xx_sdio.c **** 
 555:Drivers/STM32F4xx_StdPeriph_Driver/src/stm32f4xx_sdio.c **** /**
 556:Drivers/STM32F4xx_StdPeriph_Driver/src/stm32f4xx_sdio.c ****   * @brief  Returns number of remaining data bytes to be transferred.
 557:Drivers/STM32F4xx_StdPeriph_Driver/src/stm32f4xx_sdio.c ****   * @param  None
 558:Drivers/STM32F4xx_StdPeriph_Driver/src/stm32f4xx_sdio.c ****   * @retval Number of remaining data bytes to be transferred
 559:Drivers/STM32F4xx_StdPeriph_Driver/src/stm32f4xx_sdio.c ****   */
 560:Drivers/STM32F4xx_StdPeriph_Driver/src/stm32f4xx_sdio.c **** uint32_t SDIO_GetDataCounter(void)
 561:Drivers/STM32F4xx_StdPeriph_Driver/src/stm32f4xx_sdio.c **** { 
 564              		.loc 1 561 1 is_stmt 1 view -0
 565              		.cfi_startproc
 566              		@ args = 0, pretend = 0, frame = 0
 567              		@ frame_needed = 0, uses_anonymous_args = 0
 568              		@ link register save eliminated.
 562:Drivers/STM32F4xx_StdPeriph_Driver/src/stm32f4xx_sdio.c ****   return SDIO->DCOUNT;
 569              		.loc 1 562 3 view .LVU153
 570              		.loc 1 562 14 is_stmt 0 view .LVU154
 571 0000 014B     		ldr	r3, .L35
 572 0002 186B     		ldr	r0, [r3, #48]
 563:Drivers/STM32F4xx_StdPeriph_Driver/src/stm32f4xx_sdio.c **** }
 573              		.loc 1 563 1 view .LVU155
 574 0004 7047     		bx	lr
 575              	.L36:
 576 0006 00BF     		.align	2
 577              	.L35:
 578 0008 002C0140 		.word	1073818624
 579              		.cfi_endproc
 580              	.LFE135:
 582              		.section	.text.SDIO_ReadData,"ax",%progbits
 583              		.align	1
 584              		.global	SDIO_ReadData
 585              		.syntax unified
 586              		.thumb
 587              		.thumb_func
 589              	SDIO_ReadData:
 590              	.LFB136:
 564:Drivers/STM32F4xx_StdPeriph_Driver/src/stm32f4xx_sdio.c **** 
 565:Drivers/STM32F4xx_StdPeriph_Driver/src/stm32f4xx_sdio.c **** /**
 566:Drivers/STM32F4xx_StdPeriph_Driver/src/stm32f4xx_sdio.c ****   * @brief  Read one data word from Rx FIFO.
 567:Drivers/STM32F4xx_StdPeriph_Driver/src/stm32f4xx_sdio.c ****   * @param  None
 568:Drivers/STM32F4xx_StdPeriph_Driver/src/stm32f4xx_sdio.c ****   * @retval Data received
 569:Drivers/STM32F4xx_StdPeriph_Driver/src/stm32f4xx_sdio.c ****   */
 570:Drivers/STM32F4xx_StdPeriph_Driver/src/stm32f4xx_sdio.c **** uint32_t SDIO_ReadData(void)
 571:Drivers/STM32F4xx_StdPeriph_Driver/src/stm32f4xx_sdio.c **** { 
 591              		.loc 1 571 1 is_stmt 1 view -0
 592              		.cfi_startproc
 593              		@ args = 0, pretend = 0, frame = 0
ARM GAS  /tmp/ccibS9wU.s 			page 21


 594              		@ frame_needed = 0, uses_anonymous_args = 0
 595              		@ link register save eliminated.
 572:Drivers/STM32F4xx_StdPeriph_Driver/src/stm32f4xx_sdio.c ****   return SDIO->FIFO;
 596              		.loc 1 572 3 view .LVU157
 597              		.loc 1 572 14 is_stmt 0 view .LVU158
 598 0000 014B     		ldr	r3, .L38
 599 0002 D3F88000 		ldr	r0, [r3, #128]
 573:Drivers/STM32F4xx_StdPeriph_Driver/src/stm32f4xx_sdio.c **** }
 600              		.loc 1 573 1 view .LVU159
 601 0006 7047     		bx	lr
 602              	.L39:
 603              		.align	2
 604              	.L38:
 605 0008 002C0140 		.word	1073818624
 606              		.cfi_endproc
 607              	.LFE136:
 609              		.section	.text.SDIO_WriteData,"ax",%progbits
 610              		.align	1
 611              		.global	SDIO_WriteData
 612              		.syntax unified
 613              		.thumb
 614              		.thumb_func
 616              	SDIO_WriteData:
 617              	.LVL29:
 618              	.LFB137:
 574:Drivers/STM32F4xx_StdPeriph_Driver/src/stm32f4xx_sdio.c **** 
 575:Drivers/STM32F4xx_StdPeriph_Driver/src/stm32f4xx_sdio.c **** /**
 576:Drivers/STM32F4xx_StdPeriph_Driver/src/stm32f4xx_sdio.c ****   * @brief  Write one data word to Tx FIFO.
 577:Drivers/STM32F4xx_StdPeriph_Driver/src/stm32f4xx_sdio.c ****   * @param  Data: 32-bit data word to write.
 578:Drivers/STM32F4xx_StdPeriph_Driver/src/stm32f4xx_sdio.c ****   * @retval None
 579:Drivers/STM32F4xx_StdPeriph_Driver/src/stm32f4xx_sdio.c ****   */
 580:Drivers/STM32F4xx_StdPeriph_Driver/src/stm32f4xx_sdio.c **** void SDIO_WriteData(uint32_t Data)
 581:Drivers/STM32F4xx_StdPeriph_Driver/src/stm32f4xx_sdio.c **** { 
 619              		.loc 1 581 1 is_stmt 1 view -0
 620              		.cfi_startproc
 621              		@ args = 0, pretend = 0, frame = 0
 622              		@ frame_needed = 0, uses_anonymous_args = 0
 623              		@ link register save eliminated.
 582:Drivers/STM32F4xx_StdPeriph_Driver/src/stm32f4xx_sdio.c ****   SDIO->FIFO = Data;
 624              		.loc 1 582 3 view .LVU161
 625              		.loc 1 582 14 is_stmt 0 view .LVU162
 626 0000 014B     		ldr	r3, .L41
 627 0002 C3F88000 		str	r0, [r3, #128]
 583:Drivers/STM32F4xx_StdPeriph_Driver/src/stm32f4xx_sdio.c **** }
 628              		.loc 1 583 1 view .LVU163
 629 0006 7047     		bx	lr
 630              	.L42:
 631              		.align	2
 632              	.L41:
 633 0008 002C0140 		.word	1073818624
 634              		.cfi_endproc
 635              	.LFE137:
 637              		.section	.text.SDIO_GetFIFOCount,"ax",%progbits
 638              		.align	1
 639              		.global	SDIO_GetFIFOCount
 640              		.syntax unified
 641              		.thumb
ARM GAS  /tmp/ccibS9wU.s 			page 22


 642              		.thumb_func
 644              	SDIO_GetFIFOCount:
 645              	.LFB138:
 584:Drivers/STM32F4xx_StdPeriph_Driver/src/stm32f4xx_sdio.c **** 
 585:Drivers/STM32F4xx_StdPeriph_Driver/src/stm32f4xx_sdio.c **** /**
 586:Drivers/STM32F4xx_StdPeriph_Driver/src/stm32f4xx_sdio.c ****   * @brief  Returns the number of words left to be written to or read from FIFO.	
 587:Drivers/STM32F4xx_StdPeriph_Driver/src/stm32f4xx_sdio.c ****   * @param  None
 588:Drivers/STM32F4xx_StdPeriph_Driver/src/stm32f4xx_sdio.c ****   * @retval Remaining number of words.
 589:Drivers/STM32F4xx_StdPeriph_Driver/src/stm32f4xx_sdio.c ****   */
 590:Drivers/STM32F4xx_StdPeriph_Driver/src/stm32f4xx_sdio.c **** uint32_t SDIO_GetFIFOCount(void)
 591:Drivers/STM32F4xx_StdPeriph_Driver/src/stm32f4xx_sdio.c **** { 
 646              		.loc 1 591 1 is_stmt 1 view -0
 647              		.cfi_startproc
 648              		@ args = 0, pretend = 0, frame = 0
 649              		@ frame_needed = 0, uses_anonymous_args = 0
 650              		@ link register save eliminated.
 592:Drivers/STM32F4xx_StdPeriph_Driver/src/stm32f4xx_sdio.c ****   return SDIO->FIFOCNT;
 651              		.loc 1 592 3 view .LVU165
 652              		.loc 1 592 14 is_stmt 0 view .LVU166
 653 0000 014B     		ldr	r3, .L44
 654 0002 986C     		ldr	r0, [r3, #72]
 593:Drivers/STM32F4xx_StdPeriph_Driver/src/stm32f4xx_sdio.c **** }
 655              		.loc 1 593 1 view .LVU167
 656 0004 7047     		bx	lr
 657              	.L45:
 658 0006 00BF     		.align	2
 659              	.L44:
 660 0008 002C0140 		.word	1073818624
 661              		.cfi_endproc
 662              	.LFE138:
 664              		.section	.text.SDIO_StartSDIOReadWait,"ax",%progbits
 665              		.align	1
 666              		.global	SDIO_StartSDIOReadWait
 667              		.syntax unified
 668              		.thumb
 669              		.thumb_func
 671              	SDIO_StartSDIOReadWait:
 672              	.LVL30:
 673              	.LFB139:
 594:Drivers/STM32F4xx_StdPeriph_Driver/src/stm32f4xx_sdio.c **** 
 595:Drivers/STM32F4xx_StdPeriph_Driver/src/stm32f4xx_sdio.c **** /**
 596:Drivers/STM32F4xx_StdPeriph_Driver/src/stm32f4xx_sdio.c ****   * @}
 597:Drivers/STM32F4xx_StdPeriph_Driver/src/stm32f4xx_sdio.c ****   */
 598:Drivers/STM32F4xx_StdPeriph_Driver/src/stm32f4xx_sdio.c **** 
 599:Drivers/STM32F4xx_StdPeriph_Driver/src/stm32f4xx_sdio.c **** /** @defgroup SDIO_Group4 SDIO IO Cards mode management functions
 600:Drivers/STM32F4xx_StdPeriph_Driver/src/stm32f4xx_sdio.c ****  *  @brief   SDIO IO Cards mode management functions
 601:Drivers/STM32F4xx_StdPeriph_Driver/src/stm32f4xx_sdio.c ****  *
 602:Drivers/STM32F4xx_StdPeriph_Driver/src/stm32f4xx_sdio.c **** @verbatim   
 603:Drivers/STM32F4xx_StdPeriph_Driver/src/stm32f4xx_sdio.c ****  ===============================================================================
 604:Drivers/STM32F4xx_StdPeriph_Driver/src/stm32f4xx_sdio.c ****                ##### SDIO IO Cards mode management functions #####
 605:Drivers/STM32F4xx_StdPeriph_Driver/src/stm32f4xx_sdio.c ****  ===============================================================================  
 606:Drivers/STM32F4xx_StdPeriph_Driver/src/stm32f4xx_sdio.c **** 
 607:Drivers/STM32F4xx_StdPeriph_Driver/src/stm32f4xx_sdio.c ****   This section provide functions allowing to program and read the SDIO IO Cards.
 608:Drivers/STM32F4xx_StdPeriph_Driver/src/stm32f4xx_sdio.c **** 
 609:Drivers/STM32F4xx_StdPeriph_Driver/src/stm32f4xx_sdio.c **** @endverbatim
 610:Drivers/STM32F4xx_StdPeriph_Driver/src/stm32f4xx_sdio.c ****   * @{
 611:Drivers/STM32F4xx_StdPeriph_Driver/src/stm32f4xx_sdio.c ****   */
ARM GAS  /tmp/ccibS9wU.s 			page 23


 612:Drivers/STM32F4xx_StdPeriph_Driver/src/stm32f4xx_sdio.c **** 
 613:Drivers/STM32F4xx_StdPeriph_Driver/src/stm32f4xx_sdio.c **** /**
 614:Drivers/STM32F4xx_StdPeriph_Driver/src/stm32f4xx_sdio.c ****   * @brief  Starts the SD I/O Read Wait operation.	
 615:Drivers/STM32F4xx_StdPeriph_Driver/src/stm32f4xx_sdio.c ****   * @param  NewState: new state of the Start SDIO Read Wait operation. 
 616:Drivers/STM32F4xx_StdPeriph_Driver/src/stm32f4xx_sdio.c ****   *         This parameter can be: ENABLE or DISABLE.
 617:Drivers/STM32F4xx_StdPeriph_Driver/src/stm32f4xx_sdio.c ****   * @retval None
 618:Drivers/STM32F4xx_StdPeriph_Driver/src/stm32f4xx_sdio.c ****   */
 619:Drivers/STM32F4xx_StdPeriph_Driver/src/stm32f4xx_sdio.c **** void SDIO_StartSDIOReadWait(FunctionalState NewState)
 620:Drivers/STM32F4xx_StdPeriph_Driver/src/stm32f4xx_sdio.c **** { 
 674              		.loc 1 620 1 is_stmt 1 view -0
 675              		.cfi_startproc
 676              		@ args = 0, pretend = 0, frame = 0
 677              		@ frame_needed = 0, uses_anonymous_args = 0
 678              		@ link register save eliminated.
 621:Drivers/STM32F4xx_StdPeriph_Driver/src/stm32f4xx_sdio.c ****   /* Check the parameters */
 622:Drivers/STM32F4xx_StdPeriph_Driver/src/stm32f4xx_sdio.c ****   assert_param(IS_FUNCTIONAL_STATE(NewState));
 679              		.loc 1 622 3 view .LVU169
 623:Drivers/STM32F4xx_StdPeriph_Driver/src/stm32f4xx_sdio.c ****   
 624:Drivers/STM32F4xx_StdPeriph_Driver/src/stm32f4xx_sdio.c ****   *(__IO uint32_t *) DCTRL_RWSTART_BB = (uint32_t) NewState;
 680              		.loc 1 624 3 view .LVU170
 681              		.loc 1 624 39 is_stmt 0 view .LVU171
 682 0000 014B     		ldr	r3, .L47
 683 0002 C3F8A005 		str	r0, [r3, #1440]
 625:Drivers/STM32F4xx_StdPeriph_Driver/src/stm32f4xx_sdio.c **** }
 684              		.loc 1 625 1 view .LVU172
 685 0006 7047     		bx	lr
 686              	.L48:
 687              		.align	2
 688              	.L47:
 689 0008 00802542 		.word	1109753856
 690              		.cfi_endproc
 691              	.LFE139:
 693              		.section	.text.SDIO_StopSDIOReadWait,"ax",%progbits
 694              		.align	1
 695              		.global	SDIO_StopSDIOReadWait
 696              		.syntax unified
 697              		.thumb
 698              		.thumb_func
 700              	SDIO_StopSDIOReadWait:
 701              	.LVL31:
 702              	.LFB140:
 626:Drivers/STM32F4xx_StdPeriph_Driver/src/stm32f4xx_sdio.c **** 
 627:Drivers/STM32F4xx_StdPeriph_Driver/src/stm32f4xx_sdio.c **** /**
 628:Drivers/STM32F4xx_StdPeriph_Driver/src/stm32f4xx_sdio.c ****   * @brief  Stops the SD I/O Read Wait operation.	
 629:Drivers/STM32F4xx_StdPeriph_Driver/src/stm32f4xx_sdio.c ****   * @param  NewState: new state of the Stop SDIO Read Wait operation. 
 630:Drivers/STM32F4xx_StdPeriph_Driver/src/stm32f4xx_sdio.c ****   *         This parameter can be: ENABLE or DISABLE.
 631:Drivers/STM32F4xx_StdPeriph_Driver/src/stm32f4xx_sdio.c ****   * @retval None
 632:Drivers/STM32F4xx_StdPeriph_Driver/src/stm32f4xx_sdio.c ****   */
 633:Drivers/STM32F4xx_StdPeriph_Driver/src/stm32f4xx_sdio.c **** void SDIO_StopSDIOReadWait(FunctionalState NewState)
 634:Drivers/STM32F4xx_StdPeriph_Driver/src/stm32f4xx_sdio.c **** { 
 703              		.loc 1 634 1 is_stmt 1 view -0
 704              		.cfi_startproc
 705              		@ args = 0, pretend = 0, frame = 0
 706              		@ frame_needed = 0, uses_anonymous_args = 0
 707              		@ link register save eliminated.
 635:Drivers/STM32F4xx_StdPeriph_Driver/src/stm32f4xx_sdio.c ****   /* Check the parameters */
 636:Drivers/STM32F4xx_StdPeriph_Driver/src/stm32f4xx_sdio.c ****   assert_param(IS_FUNCTIONAL_STATE(NewState));
ARM GAS  /tmp/ccibS9wU.s 			page 24


 708              		.loc 1 636 3 view .LVU174
 637:Drivers/STM32F4xx_StdPeriph_Driver/src/stm32f4xx_sdio.c ****   
 638:Drivers/STM32F4xx_StdPeriph_Driver/src/stm32f4xx_sdio.c ****   *(__IO uint32_t *) DCTRL_RWSTOP_BB = (uint32_t) NewState;
 709              		.loc 1 638 3 view .LVU175
 710              		.loc 1 638 38 is_stmt 0 view .LVU176
 711 0000 014B     		ldr	r3, .L50
 712 0002 C3F8A405 		str	r0, [r3, #1444]
 639:Drivers/STM32F4xx_StdPeriph_Driver/src/stm32f4xx_sdio.c **** }
 713              		.loc 1 639 1 view .LVU177
 714 0006 7047     		bx	lr
 715              	.L51:
 716              		.align	2
 717              	.L50:
 718 0008 00802542 		.word	1109753856
 719              		.cfi_endproc
 720              	.LFE140:
 722              		.section	.text.SDIO_SetSDIOReadWaitMode,"ax",%progbits
 723              		.align	1
 724              		.global	SDIO_SetSDIOReadWaitMode
 725              		.syntax unified
 726              		.thumb
 727              		.thumb_func
 729              	SDIO_SetSDIOReadWaitMode:
 730              	.LVL32:
 731              	.LFB141:
 640:Drivers/STM32F4xx_StdPeriph_Driver/src/stm32f4xx_sdio.c **** 
 641:Drivers/STM32F4xx_StdPeriph_Driver/src/stm32f4xx_sdio.c **** /**
 642:Drivers/STM32F4xx_StdPeriph_Driver/src/stm32f4xx_sdio.c ****   * @brief  Sets one of the two options of inserting read wait interval.
 643:Drivers/STM32F4xx_StdPeriph_Driver/src/stm32f4xx_sdio.c ****   * @param  SDIO_ReadWaitMode: SD I/O Read Wait operation mode.
 644:Drivers/STM32F4xx_StdPeriph_Driver/src/stm32f4xx_sdio.c ****   *          This parameter can be:
 645:Drivers/STM32F4xx_StdPeriph_Driver/src/stm32f4xx_sdio.c ****   *            @arg SDIO_ReadWaitMode_CLK: Read Wait control by stopping SDIOCLK
 646:Drivers/STM32F4xx_StdPeriph_Driver/src/stm32f4xx_sdio.c ****   *            @arg SDIO_ReadWaitMode_DATA2: Read Wait control using SDIO_DATA2
 647:Drivers/STM32F4xx_StdPeriph_Driver/src/stm32f4xx_sdio.c ****   * @retval None
 648:Drivers/STM32F4xx_StdPeriph_Driver/src/stm32f4xx_sdio.c ****   */
 649:Drivers/STM32F4xx_StdPeriph_Driver/src/stm32f4xx_sdio.c **** void SDIO_SetSDIOReadWaitMode(uint32_t SDIO_ReadWaitMode)
 650:Drivers/STM32F4xx_StdPeriph_Driver/src/stm32f4xx_sdio.c **** {
 732              		.loc 1 650 1 is_stmt 1 view -0
 733              		.cfi_startproc
 734              		@ args = 0, pretend = 0, frame = 0
 735              		@ frame_needed = 0, uses_anonymous_args = 0
 736              		@ link register save eliminated.
 651:Drivers/STM32F4xx_StdPeriph_Driver/src/stm32f4xx_sdio.c ****   /* Check the parameters */
 652:Drivers/STM32F4xx_StdPeriph_Driver/src/stm32f4xx_sdio.c ****   assert_param(IS_SDIO_READWAIT_MODE(SDIO_ReadWaitMode));
 737              		.loc 1 652 3 view .LVU179
 653:Drivers/STM32F4xx_StdPeriph_Driver/src/stm32f4xx_sdio.c ****   
 654:Drivers/STM32F4xx_StdPeriph_Driver/src/stm32f4xx_sdio.c ****   *(__IO uint32_t *) DCTRL_RWMOD_BB = SDIO_ReadWaitMode;
 738              		.loc 1 654 3 view .LVU180
 739              		.loc 1 654 37 is_stmt 0 view .LVU181
 740 0000 014B     		ldr	r3, .L53
 741 0002 C3F8A805 		str	r0, [r3, #1448]
 655:Drivers/STM32F4xx_StdPeriph_Driver/src/stm32f4xx_sdio.c **** }
 742              		.loc 1 655 1 view .LVU182
 743 0006 7047     		bx	lr
 744              	.L54:
 745              		.align	2
 746              	.L53:
 747 0008 00802542 		.word	1109753856
ARM GAS  /tmp/ccibS9wU.s 			page 25


 748              		.cfi_endproc
 749              	.LFE141:
 751              		.section	.text.SDIO_SetSDIOOperation,"ax",%progbits
 752              		.align	1
 753              		.global	SDIO_SetSDIOOperation
 754              		.syntax unified
 755              		.thumb
 756              		.thumb_func
 758              	SDIO_SetSDIOOperation:
 759              	.LVL33:
 760              	.LFB142:
 656:Drivers/STM32F4xx_StdPeriph_Driver/src/stm32f4xx_sdio.c **** 
 657:Drivers/STM32F4xx_StdPeriph_Driver/src/stm32f4xx_sdio.c **** /**
 658:Drivers/STM32F4xx_StdPeriph_Driver/src/stm32f4xx_sdio.c ****   * @brief  Enables or disables the SD I/O Mode Operation.
 659:Drivers/STM32F4xx_StdPeriph_Driver/src/stm32f4xx_sdio.c ****   * @param  NewState: new state of SDIO specific operation. 
 660:Drivers/STM32F4xx_StdPeriph_Driver/src/stm32f4xx_sdio.c ****   *         This parameter can be: ENABLE or DISABLE.
 661:Drivers/STM32F4xx_StdPeriph_Driver/src/stm32f4xx_sdio.c ****   * @retval None
 662:Drivers/STM32F4xx_StdPeriph_Driver/src/stm32f4xx_sdio.c ****   */
 663:Drivers/STM32F4xx_StdPeriph_Driver/src/stm32f4xx_sdio.c **** void SDIO_SetSDIOOperation(FunctionalState NewState)
 664:Drivers/STM32F4xx_StdPeriph_Driver/src/stm32f4xx_sdio.c **** { 
 761              		.loc 1 664 1 is_stmt 1 view -0
 762              		.cfi_startproc
 763              		@ args = 0, pretend = 0, frame = 0
 764              		@ frame_needed = 0, uses_anonymous_args = 0
 765              		@ link register save eliminated.
 665:Drivers/STM32F4xx_StdPeriph_Driver/src/stm32f4xx_sdio.c ****   /* Check the parameters */
 666:Drivers/STM32F4xx_StdPeriph_Driver/src/stm32f4xx_sdio.c ****   assert_param(IS_FUNCTIONAL_STATE(NewState));
 766              		.loc 1 666 3 view .LVU184
 667:Drivers/STM32F4xx_StdPeriph_Driver/src/stm32f4xx_sdio.c ****   
 668:Drivers/STM32F4xx_StdPeriph_Driver/src/stm32f4xx_sdio.c ****   *(__IO uint32_t *) DCTRL_SDIOEN_BB = (uint32_t)NewState;
 767              		.loc 1 668 3 view .LVU185
 768              		.loc 1 668 38 is_stmt 0 view .LVU186
 769 0000 014B     		ldr	r3, .L56
 770 0002 C3F8AC05 		str	r0, [r3, #1452]
 669:Drivers/STM32F4xx_StdPeriph_Driver/src/stm32f4xx_sdio.c **** }
 771              		.loc 1 669 1 view .LVU187
 772 0006 7047     		bx	lr
 773              	.L57:
 774              		.align	2
 775              	.L56:
 776 0008 00802542 		.word	1109753856
 777              		.cfi_endproc
 778              	.LFE142:
 780              		.section	.text.SDIO_SendSDIOSuspendCmd,"ax",%progbits
 781              		.align	1
 782              		.global	SDIO_SendSDIOSuspendCmd
 783              		.syntax unified
 784              		.thumb
 785              		.thumb_func
 787              	SDIO_SendSDIOSuspendCmd:
 788              	.LVL34:
 789              	.LFB143:
 670:Drivers/STM32F4xx_StdPeriph_Driver/src/stm32f4xx_sdio.c **** 
 671:Drivers/STM32F4xx_StdPeriph_Driver/src/stm32f4xx_sdio.c **** /**
 672:Drivers/STM32F4xx_StdPeriph_Driver/src/stm32f4xx_sdio.c ****   * @brief  Enables or disables the SD I/O Mode suspend command sending.
 673:Drivers/STM32F4xx_StdPeriph_Driver/src/stm32f4xx_sdio.c ****   * @param  NewState: new state of the SD I/O Mode suspend command.
 674:Drivers/STM32F4xx_StdPeriph_Driver/src/stm32f4xx_sdio.c ****   *         This parameter can be: ENABLE or DISABLE.
ARM GAS  /tmp/ccibS9wU.s 			page 26


 675:Drivers/STM32F4xx_StdPeriph_Driver/src/stm32f4xx_sdio.c ****   * @retval None
 676:Drivers/STM32F4xx_StdPeriph_Driver/src/stm32f4xx_sdio.c ****   */
 677:Drivers/STM32F4xx_StdPeriph_Driver/src/stm32f4xx_sdio.c **** void SDIO_SendSDIOSuspendCmd(FunctionalState NewState)
 678:Drivers/STM32F4xx_StdPeriph_Driver/src/stm32f4xx_sdio.c **** { 
 790              		.loc 1 678 1 is_stmt 1 view -0
 791              		.cfi_startproc
 792              		@ args = 0, pretend = 0, frame = 0
 793              		@ frame_needed = 0, uses_anonymous_args = 0
 794              		@ link register save eliminated.
 679:Drivers/STM32F4xx_StdPeriph_Driver/src/stm32f4xx_sdio.c ****   /* Check the parameters */
 680:Drivers/STM32F4xx_StdPeriph_Driver/src/stm32f4xx_sdio.c ****   assert_param(IS_FUNCTIONAL_STATE(NewState));
 795              		.loc 1 680 3 view .LVU189
 681:Drivers/STM32F4xx_StdPeriph_Driver/src/stm32f4xx_sdio.c ****   
 682:Drivers/STM32F4xx_StdPeriph_Driver/src/stm32f4xx_sdio.c ****   *(__IO uint32_t *) CMD_SDIOSUSPEND_BB = (uint32_t)NewState;
 796              		.loc 1 682 3 view .LVU190
 797              		.loc 1 682 41 is_stmt 0 view .LVU191
 798 0000 014B     		ldr	r3, .L59
 799 0002 C3F8AC01 		str	r0, [r3, #428]
 683:Drivers/STM32F4xx_StdPeriph_Driver/src/stm32f4xx_sdio.c **** }
 800              		.loc 1 683 1 view .LVU192
 801 0006 7047     		bx	lr
 802              	.L60:
 803              		.align	2
 804              	.L59:
 805 0008 00802542 		.word	1109753856
 806              		.cfi_endproc
 807              	.LFE143:
 809              		.section	.text.SDIO_CommandCompletionCmd,"ax",%progbits
 810              		.align	1
 811              		.global	SDIO_CommandCompletionCmd
 812              		.syntax unified
 813              		.thumb
 814              		.thumb_func
 816              	SDIO_CommandCompletionCmd:
 817              	.LVL35:
 818              	.LFB144:
 684:Drivers/STM32F4xx_StdPeriph_Driver/src/stm32f4xx_sdio.c **** 
 685:Drivers/STM32F4xx_StdPeriph_Driver/src/stm32f4xx_sdio.c **** /**
 686:Drivers/STM32F4xx_StdPeriph_Driver/src/stm32f4xx_sdio.c ****   * @}
 687:Drivers/STM32F4xx_StdPeriph_Driver/src/stm32f4xx_sdio.c ****   */
 688:Drivers/STM32F4xx_StdPeriph_Driver/src/stm32f4xx_sdio.c **** 
 689:Drivers/STM32F4xx_StdPeriph_Driver/src/stm32f4xx_sdio.c **** /** @defgroup SDIO_Group5 CE-ATA mode management functions
 690:Drivers/STM32F4xx_StdPeriph_Driver/src/stm32f4xx_sdio.c ****  *  @brief   CE-ATA mode management functions
 691:Drivers/STM32F4xx_StdPeriph_Driver/src/stm32f4xx_sdio.c ****  *
 692:Drivers/STM32F4xx_StdPeriph_Driver/src/stm32f4xx_sdio.c **** @verbatim   
 693:Drivers/STM32F4xx_StdPeriph_Driver/src/stm32f4xx_sdio.c ****  ===============================================================================
 694:Drivers/STM32F4xx_StdPeriph_Driver/src/stm32f4xx_sdio.c ****                   ##### CE-ATA mode management functions #####
 695:Drivers/STM32F4xx_StdPeriph_Driver/src/stm32f4xx_sdio.c ****  ===============================================================================  
 696:Drivers/STM32F4xx_StdPeriph_Driver/src/stm32f4xx_sdio.c **** 
 697:Drivers/STM32F4xx_StdPeriph_Driver/src/stm32f4xx_sdio.c ****   This section provide functions allowing to program and read the CE-ATA card.
 698:Drivers/STM32F4xx_StdPeriph_Driver/src/stm32f4xx_sdio.c **** 
 699:Drivers/STM32F4xx_StdPeriph_Driver/src/stm32f4xx_sdio.c **** @endverbatim
 700:Drivers/STM32F4xx_StdPeriph_Driver/src/stm32f4xx_sdio.c ****   * @{
 701:Drivers/STM32F4xx_StdPeriph_Driver/src/stm32f4xx_sdio.c ****   */
 702:Drivers/STM32F4xx_StdPeriph_Driver/src/stm32f4xx_sdio.c **** 
 703:Drivers/STM32F4xx_StdPeriph_Driver/src/stm32f4xx_sdio.c **** /**
 704:Drivers/STM32F4xx_StdPeriph_Driver/src/stm32f4xx_sdio.c ****   * @brief  Enables or disables the command completion signal.
ARM GAS  /tmp/ccibS9wU.s 			page 27


 705:Drivers/STM32F4xx_StdPeriph_Driver/src/stm32f4xx_sdio.c ****   * @param  NewState: new state of command completion signal. 
 706:Drivers/STM32F4xx_StdPeriph_Driver/src/stm32f4xx_sdio.c ****   *         This parameter can be: ENABLE or DISABLE.
 707:Drivers/STM32F4xx_StdPeriph_Driver/src/stm32f4xx_sdio.c ****   * @retval None
 708:Drivers/STM32F4xx_StdPeriph_Driver/src/stm32f4xx_sdio.c ****   */
 709:Drivers/STM32F4xx_StdPeriph_Driver/src/stm32f4xx_sdio.c **** void SDIO_CommandCompletionCmd(FunctionalState NewState)
 710:Drivers/STM32F4xx_StdPeriph_Driver/src/stm32f4xx_sdio.c **** { 
 819              		.loc 1 710 1 is_stmt 1 view -0
 820              		.cfi_startproc
 821              		@ args = 0, pretend = 0, frame = 0
 822              		@ frame_needed = 0, uses_anonymous_args = 0
 823              		@ link register save eliminated.
 711:Drivers/STM32F4xx_StdPeriph_Driver/src/stm32f4xx_sdio.c ****   /* Check the parameters */
 712:Drivers/STM32F4xx_StdPeriph_Driver/src/stm32f4xx_sdio.c ****   assert_param(IS_FUNCTIONAL_STATE(NewState));
 824              		.loc 1 712 3 view .LVU194
 713:Drivers/STM32F4xx_StdPeriph_Driver/src/stm32f4xx_sdio.c ****   
 714:Drivers/STM32F4xx_StdPeriph_Driver/src/stm32f4xx_sdio.c ****   *(__IO uint32_t *) CMD_ENCMDCOMPL_BB = (uint32_t)NewState;
 825              		.loc 1 714 3 view .LVU195
 826              		.loc 1 714 40 is_stmt 0 view .LVU196
 827 0000 014B     		ldr	r3, .L62
 828 0002 C3F8B001 		str	r0, [r3, #432]
 715:Drivers/STM32F4xx_StdPeriph_Driver/src/stm32f4xx_sdio.c **** }
 829              		.loc 1 715 1 view .LVU197
 830 0006 7047     		bx	lr
 831              	.L63:
 832              		.align	2
 833              	.L62:
 834 0008 00802542 		.word	1109753856
 835              		.cfi_endproc
 836              	.LFE144:
 838              		.section	.text.SDIO_CEATAITCmd,"ax",%progbits
 839              		.align	1
 840              		.global	SDIO_CEATAITCmd
 841              		.syntax unified
 842              		.thumb
 843              		.thumb_func
 845              	SDIO_CEATAITCmd:
 846              	.LVL36:
 847              	.LFB145:
 716:Drivers/STM32F4xx_StdPeriph_Driver/src/stm32f4xx_sdio.c **** 
 717:Drivers/STM32F4xx_StdPeriph_Driver/src/stm32f4xx_sdio.c **** /**
 718:Drivers/STM32F4xx_StdPeriph_Driver/src/stm32f4xx_sdio.c ****   * @brief  Enables or disables the CE-ATA interrupt.
 719:Drivers/STM32F4xx_StdPeriph_Driver/src/stm32f4xx_sdio.c ****   * @param  NewState: new state of CE-ATA interrupt. 
 720:Drivers/STM32F4xx_StdPeriph_Driver/src/stm32f4xx_sdio.c ****   *         This parameter can be: ENABLE or DISABLE.
 721:Drivers/STM32F4xx_StdPeriph_Driver/src/stm32f4xx_sdio.c ****   * @retval None
 722:Drivers/STM32F4xx_StdPeriph_Driver/src/stm32f4xx_sdio.c ****   */
 723:Drivers/STM32F4xx_StdPeriph_Driver/src/stm32f4xx_sdio.c **** void SDIO_CEATAITCmd(FunctionalState NewState)
 724:Drivers/STM32F4xx_StdPeriph_Driver/src/stm32f4xx_sdio.c **** { 
 848              		.loc 1 724 1 is_stmt 1 view -0
 849              		.cfi_startproc
 850              		@ args = 0, pretend = 0, frame = 0
 851              		@ frame_needed = 0, uses_anonymous_args = 0
 852              		@ link register save eliminated.
 725:Drivers/STM32F4xx_StdPeriph_Driver/src/stm32f4xx_sdio.c ****   /* Check the parameters */
 726:Drivers/STM32F4xx_StdPeriph_Driver/src/stm32f4xx_sdio.c ****   assert_param(IS_FUNCTIONAL_STATE(NewState));
 853              		.loc 1 726 3 view .LVU199
 727:Drivers/STM32F4xx_StdPeriph_Driver/src/stm32f4xx_sdio.c ****   
 728:Drivers/STM32F4xx_StdPeriph_Driver/src/stm32f4xx_sdio.c ****   *(__IO uint32_t *) CMD_NIEN_BB = (uint32_t)((~((uint32_t)NewState)) & ((uint32_t)0x1));
ARM GAS  /tmp/ccibS9wU.s 			page 28


 854              		.loc 1 728 3 view .LVU200
 855              		.loc 1 728 36 is_stmt 0 view .LVU201
 856 0000 80F00100 		eor	r0, r0, #1
 857              	.LVL37:
 858              		.loc 1 728 36 view .LVU202
 859 0004 00F00100 		and	r0, r0, #1
 860              		.loc 1 728 34 view .LVU203
 861 0008 014B     		ldr	r3, .L65
 862 000a C3F8B401 		str	r0, [r3, #436]
 729:Drivers/STM32F4xx_StdPeriph_Driver/src/stm32f4xx_sdio.c **** }
 863              		.loc 1 729 1 view .LVU204
 864 000e 7047     		bx	lr
 865              	.L66:
 866              		.align	2
 867              	.L65:
 868 0010 00802542 		.word	1109753856
 869              		.cfi_endproc
 870              	.LFE145:
 872              		.section	.text.SDIO_SendCEATACmd,"ax",%progbits
 873              		.align	1
 874              		.global	SDIO_SendCEATACmd
 875              		.syntax unified
 876              		.thumb
 877              		.thumb_func
 879              	SDIO_SendCEATACmd:
 880              	.LVL38:
 881              	.LFB146:
 730:Drivers/STM32F4xx_StdPeriph_Driver/src/stm32f4xx_sdio.c **** 
 731:Drivers/STM32F4xx_StdPeriph_Driver/src/stm32f4xx_sdio.c **** /**
 732:Drivers/STM32F4xx_StdPeriph_Driver/src/stm32f4xx_sdio.c ****   * @brief  Sends CE-ATA command (CMD61).
 733:Drivers/STM32F4xx_StdPeriph_Driver/src/stm32f4xx_sdio.c ****   * @param  NewState: new state of CE-ATA command. 
 734:Drivers/STM32F4xx_StdPeriph_Driver/src/stm32f4xx_sdio.c ****   *         This parameter can be: ENABLE or DISABLE.
 735:Drivers/STM32F4xx_StdPeriph_Driver/src/stm32f4xx_sdio.c ****   * @retval None
 736:Drivers/STM32F4xx_StdPeriph_Driver/src/stm32f4xx_sdio.c ****   */
 737:Drivers/STM32F4xx_StdPeriph_Driver/src/stm32f4xx_sdio.c **** void SDIO_SendCEATACmd(FunctionalState NewState)
 738:Drivers/STM32F4xx_StdPeriph_Driver/src/stm32f4xx_sdio.c **** { 
 882              		.loc 1 738 1 is_stmt 1 view -0
 883              		.cfi_startproc
 884              		@ args = 0, pretend = 0, frame = 0
 885              		@ frame_needed = 0, uses_anonymous_args = 0
 886              		@ link register save eliminated.
 739:Drivers/STM32F4xx_StdPeriph_Driver/src/stm32f4xx_sdio.c ****   /* Check the parameters */
 740:Drivers/STM32F4xx_StdPeriph_Driver/src/stm32f4xx_sdio.c ****   assert_param(IS_FUNCTIONAL_STATE(NewState));
 887              		.loc 1 740 3 view .LVU206
 741:Drivers/STM32F4xx_StdPeriph_Driver/src/stm32f4xx_sdio.c ****   
 742:Drivers/STM32F4xx_StdPeriph_Driver/src/stm32f4xx_sdio.c ****   *(__IO uint32_t *) CMD_ATACMD_BB = (uint32_t)NewState;
 888              		.loc 1 742 3 view .LVU207
 889              		.loc 1 742 36 is_stmt 0 view .LVU208
 890 0000 014B     		ldr	r3, .L68
 891 0002 C3F8B801 		str	r0, [r3, #440]
 743:Drivers/STM32F4xx_StdPeriph_Driver/src/stm32f4xx_sdio.c **** }
 892              		.loc 1 743 1 view .LVU209
 893 0006 7047     		bx	lr
 894              	.L69:
 895              		.align	2
 896              	.L68:
 897 0008 00802542 		.word	1109753856
ARM GAS  /tmp/ccibS9wU.s 			page 29


 898              		.cfi_endproc
 899              	.LFE146:
 901              		.section	.text.SDIO_DMACmd,"ax",%progbits
 902              		.align	1
 903              		.global	SDIO_DMACmd
 904              		.syntax unified
 905              		.thumb
 906              		.thumb_func
 908              	SDIO_DMACmd:
 909              	.LVL39:
 910              	.LFB147:
 744:Drivers/STM32F4xx_StdPeriph_Driver/src/stm32f4xx_sdio.c **** 
 745:Drivers/STM32F4xx_StdPeriph_Driver/src/stm32f4xx_sdio.c **** /**
 746:Drivers/STM32F4xx_StdPeriph_Driver/src/stm32f4xx_sdio.c ****   * @}
 747:Drivers/STM32F4xx_StdPeriph_Driver/src/stm32f4xx_sdio.c ****   */
 748:Drivers/STM32F4xx_StdPeriph_Driver/src/stm32f4xx_sdio.c **** 
 749:Drivers/STM32F4xx_StdPeriph_Driver/src/stm32f4xx_sdio.c **** /** @defgroup SDIO_Group6 DMA transfers management functions
 750:Drivers/STM32F4xx_StdPeriph_Driver/src/stm32f4xx_sdio.c ****  *  @brief   DMA transfers management functions
 751:Drivers/STM32F4xx_StdPeriph_Driver/src/stm32f4xx_sdio.c ****  *
 752:Drivers/STM32F4xx_StdPeriph_Driver/src/stm32f4xx_sdio.c **** @verbatim   
 753:Drivers/STM32F4xx_StdPeriph_Driver/src/stm32f4xx_sdio.c ****  ===============================================================================
 754:Drivers/STM32F4xx_StdPeriph_Driver/src/stm32f4xx_sdio.c ****                   ##### DMA transfers management functions #####
 755:Drivers/STM32F4xx_StdPeriph_Driver/src/stm32f4xx_sdio.c ****  ===============================================================================  
 756:Drivers/STM32F4xx_StdPeriph_Driver/src/stm32f4xx_sdio.c **** 
 757:Drivers/STM32F4xx_StdPeriph_Driver/src/stm32f4xx_sdio.c ****   This section provide functions allowing to program SDIO DMA transfer.
 758:Drivers/STM32F4xx_StdPeriph_Driver/src/stm32f4xx_sdio.c **** 
 759:Drivers/STM32F4xx_StdPeriph_Driver/src/stm32f4xx_sdio.c **** @endverbatim
 760:Drivers/STM32F4xx_StdPeriph_Driver/src/stm32f4xx_sdio.c ****   * @{
 761:Drivers/STM32F4xx_StdPeriph_Driver/src/stm32f4xx_sdio.c ****   */
 762:Drivers/STM32F4xx_StdPeriph_Driver/src/stm32f4xx_sdio.c **** 
 763:Drivers/STM32F4xx_StdPeriph_Driver/src/stm32f4xx_sdio.c **** /**
 764:Drivers/STM32F4xx_StdPeriph_Driver/src/stm32f4xx_sdio.c ****   * @brief  Enables or disables the SDIO DMA request.
 765:Drivers/STM32F4xx_StdPeriph_Driver/src/stm32f4xx_sdio.c ****   * @param  NewState: new state of the selected SDIO DMA request.
 766:Drivers/STM32F4xx_StdPeriph_Driver/src/stm32f4xx_sdio.c ****   *          This parameter can be: ENABLE or DISABLE.
 767:Drivers/STM32F4xx_StdPeriph_Driver/src/stm32f4xx_sdio.c ****   * @retval None
 768:Drivers/STM32F4xx_StdPeriph_Driver/src/stm32f4xx_sdio.c ****   */
 769:Drivers/STM32F4xx_StdPeriph_Driver/src/stm32f4xx_sdio.c **** void SDIO_DMACmd(FunctionalState NewState)
 770:Drivers/STM32F4xx_StdPeriph_Driver/src/stm32f4xx_sdio.c **** {
 911              		.loc 1 770 1 is_stmt 1 view -0
 912              		.cfi_startproc
 913              		@ args = 0, pretend = 0, frame = 0
 914              		@ frame_needed = 0, uses_anonymous_args = 0
 915              		@ link register save eliminated.
 771:Drivers/STM32F4xx_StdPeriph_Driver/src/stm32f4xx_sdio.c ****   /* Check the parameters */
 772:Drivers/STM32F4xx_StdPeriph_Driver/src/stm32f4xx_sdio.c ****   assert_param(IS_FUNCTIONAL_STATE(NewState));
 916              		.loc 1 772 3 view .LVU211
 773:Drivers/STM32F4xx_StdPeriph_Driver/src/stm32f4xx_sdio.c ****   
 774:Drivers/STM32F4xx_StdPeriph_Driver/src/stm32f4xx_sdio.c ****   *(__IO uint32_t *) DCTRL_DMAEN_BB = (uint32_t)NewState;
 917              		.loc 1 774 3 view .LVU212
 918              		.loc 1 774 37 is_stmt 0 view .LVU213
 919 0000 014B     		ldr	r3, .L71
 920 0002 C3F88C05 		str	r0, [r3, #1420]
 775:Drivers/STM32F4xx_StdPeriph_Driver/src/stm32f4xx_sdio.c **** }
 921              		.loc 1 775 1 view .LVU214
 922 0006 7047     		bx	lr
 923              	.L72:
 924              		.align	2
ARM GAS  /tmp/ccibS9wU.s 			page 30


 925              	.L71:
 926 0008 00802542 		.word	1109753856
 927              		.cfi_endproc
 928              	.LFE147:
 930              		.section	.text.SDIO_ITConfig,"ax",%progbits
 931              		.align	1
 932              		.global	SDIO_ITConfig
 933              		.syntax unified
 934              		.thumb
 935              		.thumb_func
 937              	SDIO_ITConfig:
 938              	.LVL40:
 939              	.LFB148:
 776:Drivers/STM32F4xx_StdPeriph_Driver/src/stm32f4xx_sdio.c **** 
 777:Drivers/STM32F4xx_StdPeriph_Driver/src/stm32f4xx_sdio.c **** /**
 778:Drivers/STM32F4xx_StdPeriph_Driver/src/stm32f4xx_sdio.c ****   * @}
 779:Drivers/STM32F4xx_StdPeriph_Driver/src/stm32f4xx_sdio.c ****   */
 780:Drivers/STM32F4xx_StdPeriph_Driver/src/stm32f4xx_sdio.c **** 
 781:Drivers/STM32F4xx_StdPeriph_Driver/src/stm32f4xx_sdio.c **** /** @defgroup SDIO_Group7 Interrupts and flags management functions
 782:Drivers/STM32F4xx_StdPeriph_Driver/src/stm32f4xx_sdio.c ****  *  @brief   Interrupts and flags management functions  
 783:Drivers/STM32F4xx_StdPeriph_Driver/src/stm32f4xx_sdio.c ****  *
 784:Drivers/STM32F4xx_StdPeriph_Driver/src/stm32f4xx_sdio.c **** @verbatim   
 785:Drivers/STM32F4xx_StdPeriph_Driver/src/stm32f4xx_sdio.c ****  ===============================================================================
 786:Drivers/STM32F4xx_StdPeriph_Driver/src/stm32f4xx_sdio.c ****               ##### Interrupts and flags management functions #####
 787:Drivers/STM32F4xx_StdPeriph_Driver/src/stm32f4xx_sdio.c ****  ===============================================================================  
 788:Drivers/STM32F4xx_StdPeriph_Driver/src/stm32f4xx_sdio.c **** 
 789:Drivers/STM32F4xx_StdPeriph_Driver/src/stm32f4xx_sdio.c **** 
 790:Drivers/STM32F4xx_StdPeriph_Driver/src/stm32f4xx_sdio.c **** @endverbatim
 791:Drivers/STM32F4xx_StdPeriph_Driver/src/stm32f4xx_sdio.c ****   * @{
 792:Drivers/STM32F4xx_StdPeriph_Driver/src/stm32f4xx_sdio.c ****   */
 793:Drivers/STM32F4xx_StdPeriph_Driver/src/stm32f4xx_sdio.c **** 
 794:Drivers/STM32F4xx_StdPeriph_Driver/src/stm32f4xx_sdio.c **** /**
 795:Drivers/STM32F4xx_StdPeriph_Driver/src/stm32f4xx_sdio.c ****   * @brief  Enables or disables the SDIO interrupts.
 796:Drivers/STM32F4xx_StdPeriph_Driver/src/stm32f4xx_sdio.c ****   * @param  SDIO_IT: specifies the SDIO interrupt sources to be enabled or disabled.
 797:Drivers/STM32F4xx_StdPeriph_Driver/src/stm32f4xx_sdio.c ****   *          This parameter can be one or a combination of the following values:
 798:Drivers/STM32F4xx_StdPeriph_Driver/src/stm32f4xx_sdio.c ****   *            @arg SDIO_IT_CCRCFAIL: Command response received (CRC check failed) interrupt
 799:Drivers/STM32F4xx_StdPeriph_Driver/src/stm32f4xx_sdio.c ****   *            @arg SDIO_IT_DCRCFAIL: Data block sent/received (CRC check failed) interrupt
 800:Drivers/STM32F4xx_StdPeriph_Driver/src/stm32f4xx_sdio.c ****   *            @arg SDIO_IT_CTIMEOUT: Command response timeout interrupt
 801:Drivers/STM32F4xx_StdPeriph_Driver/src/stm32f4xx_sdio.c ****   *            @arg SDIO_IT_DTIMEOUT: Data timeout interrupt
 802:Drivers/STM32F4xx_StdPeriph_Driver/src/stm32f4xx_sdio.c ****   *            @arg SDIO_IT_TXUNDERR: Transmit FIFO underrun error interrupt
 803:Drivers/STM32F4xx_StdPeriph_Driver/src/stm32f4xx_sdio.c ****   *            @arg SDIO_IT_RXOVERR:  Received FIFO overrun error interrupt
 804:Drivers/STM32F4xx_StdPeriph_Driver/src/stm32f4xx_sdio.c ****   *            @arg SDIO_IT_CMDREND:  Command response received (CRC check passed) interrupt
 805:Drivers/STM32F4xx_StdPeriph_Driver/src/stm32f4xx_sdio.c ****   *            @arg SDIO_IT_CMDSENT:  Command sent (no response required) interrupt
 806:Drivers/STM32F4xx_StdPeriph_Driver/src/stm32f4xx_sdio.c ****   *            @arg SDIO_IT_DATAEND:  Data end (data counter, SDIDCOUNT, is zero) interrupt
 807:Drivers/STM32F4xx_StdPeriph_Driver/src/stm32f4xx_sdio.c ****   *            @arg SDIO_IT_STBITERR: Start bit not detected on all data signals in wide 
 808:Drivers/STM32F4xx_StdPeriph_Driver/src/stm32f4xx_sdio.c ****   *                                   bus mode interrupt
 809:Drivers/STM32F4xx_StdPeriph_Driver/src/stm32f4xx_sdio.c ****   *            @arg SDIO_IT_DBCKEND:  Data block sent/received (CRC check passed) interrupt
 810:Drivers/STM32F4xx_StdPeriph_Driver/src/stm32f4xx_sdio.c ****   *            @arg SDIO_IT_CMDACT:   Command transfer in progress interrupt
 811:Drivers/STM32F4xx_StdPeriph_Driver/src/stm32f4xx_sdio.c ****   *            @arg SDIO_IT_TXACT:    Data transmit in progress interrupt
 812:Drivers/STM32F4xx_StdPeriph_Driver/src/stm32f4xx_sdio.c ****   *            @arg SDIO_IT_RXACT:    Data receive in progress interrupt
 813:Drivers/STM32F4xx_StdPeriph_Driver/src/stm32f4xx_sdio.c ****   *            @arg SDIO_IT_TXFIFOHE: Transmit FIFO Half Empty interrupt
 814:Drivers/STM32F4xx_StdPeriph_Driver/src/stm32f4xx_sdio.c ****   *            @arg SDIO_IT_RXFIFOHF: Receive FIFO Half Full interrupt
 815:Drivers/STM32F4xx_StdPeriph_Driver/src/stm32f4xx_sdio.c ****   *            @arg SDIO_IT_TXFIFOF:  Transmit FIFO full interrupt
 816:Drivers/STM32F4xx_StdPeriph_Driver/src/stm32f4xx_sdio.c ****   *            @arg SDIO_IT_RXFIFOF:  Receive FIFO full interrupt
 817:Drivers/STM32F4xx_StdPeriph_Driver/src/stm32f4xx_sdio.c ****   *            @arg SDIO_IT_TXFIFOE:  Transmit FIFO empty interrupt
 818:Drivers/STM32F4xx_StdPeriph_Driver/src/stm32f4xx_sdio.c ****   *            @arg SDIO_IT_RXFIFOE:  Receive FIFO empty interrupt
 819:Drivers/STM32F4xx_StdPeriph_Driver/src/stm32f4xx_sdio.c ****   *            @arg SDIO_IT_TXDAVL:   Data available in transmit FIFO interrupt
ARM GAS  /tmp/ccibS9wU.s 			page 31


 820:Drivers/STM32F4xx_StdPeriph_Driver/src/stm32f4xx_sdio.c ****   *            @arg SDIO_IT_RXDAVL:   Data available in receive FIFO interrupt
 821:Drivers/STM32F4xx_StdPeriph_Driver/src/stm32f4xx_sdio.c ****   *            @arg SDIO_IT_SDIOIT:   SD I/O interrupt received interrupt
 822:Drivers/STM32F4xx_StdPeriph_Driver/src/stm32f4xx_sdio.c ****   *            @arg SDIO_IT_CEATAEND: CE-ATA command completion signal received for CMD61 interrupt
 823:Drivers/STM32F4xx_StdPeriph_Driver/src/stm32f4xx_sdio.c ****   * @param  NewState: new state of the specified SDIO interrupts.
 824:Drivers/STM32F4xx_StdPeriph_Driver/src/stm32f4xx_sdio.c ****   *          This parameter can be: ENABLE or DISABLE.
 825:Drivers/STM32F4xx_StdPeriph_Driver/src/stm32f4xx_sdio.c ****   * @retval None 
 826:Drivers/STM32F4xx_StdPeriph_Driver/src/stm32f4xx_sdio.c ****   */
 827:Drivers/STM32F4xx_StdPeriph_Driver/src/stm32f4xx_sdio.c **** void SDIO_ITConfig(uint32_t SDIO_IT, FunctionalState NewState)
 828:Drivers/STM32F4xx_StdPeriph_Driver/src/stm32f4xx_sdio.c **** {
 940              		.loc 1 828 1 is_stmt 1 view -0
 941              		.cfi_startproc
 942              		@ args = 0, pretend = 0, frame = 0
 943              		@ frame_needed = 0, uses_anonymous_args = 0
 944              		@ link register save eliminated.
 829:Drivers/STM32F4xx_StdPeriph_Driver/src/stm32f4xx_sdio.c ****   /* Check the parameters */
 830:Drivers/STM32F4xx_StdPeriph_Driver/src/stm32f4xx_sdio.c ****   assert_param(IS_SDIO_IT(SDIO_IT));
 945              		.loc 1 830 3 view .LVU216
 831:Drivers/STM32F4xx_StdPeriph_Driver/src/stm32f4xx_sdio.c ****   assert_param(IS_FUNCTIONAL_STATE(NewState));
 946              		.loc 1 831 3 view .LVU217
 832:Drivers/STM32F4xx_StdPeriph_Driver/src/stm32f4xx_sdio.c ****   
 833:Drivers/STM32F4xx_StdPeriph_Driver/src/stm32f4xx_sdio.c ****   if (NewState != DISABLE)
 947              		.loc 1 833 3 view .LVU218
 948              		.loc 1 833 6 is_stmt 0 view .LVU219
 949 0000 21B1     		cbz	r1, .L74
 834:Drivers/STM32F4xx_StdPeriph_Driver/src/stm32f4xx_sdio.c ****   {
 835:Drivers/STM32F4xx_StdPeriph_Driver/src/stm32f4xx_sdio.c ****     /* Enable the SDIO interrupts */
 836:Drivers/STM32F4xx_StdPeriph_Driver/src/stm32f4xx_sdio.c ****     SDIO->MASK |= SDIO_IT;
 950              		.loc 1 836 5 is_stmt 1 view .LVU220
 951              		.loc 1 836 16 is_stmt 0 view .LVU221
 952 0002 054A     		ldr	r2, .L76
 953 0004 D36B     		ldr	r3, [r2, #60]
 954 0006 1843     		orrs	r0, r0, r3
 955              	.LVL41:
 956              		.loc 1 836 16 view .LVU222
 957 0008 D063     		str	r0, [r2, #60]
 958 000a 7047     		bx	lr
 959              	.LVL42:
 960              	.L74:
 837:Drivers/STM32F4xx_StdPeriph_Driver/src/stm32f4xx_sdio.c ****   }
 838:Drivers/STM32F4xx_StdPeriph_Driver/src/stm32f4xx_sdio.c ****   else
 839:Drivers/STM32F4xx_StdPeriph_Driver/src/stm32f4xx_sdio.c ****   {
 840:Drivers/STM32F4xx_StdPeriph_Driver/src/stm32f4xx_sdio.c ****     /* Disable the SDIO interrupts */
 841:Drivers/STM32F4xx_StdPeriph_Driver/src/stm32f4xx_sdio.c ****     SDIO->MASK &= ~SDIO_IT;
 961              		.loc 1 841 5 is_stmt 1 view .LVU223
 962              		.loc 1 841 16 is_stmt 0 view .LVU224
 963 000c 024A     		ldr	r2, .L76
 964 000e D36B     		ldr	r3, [r2, #60]
 965 0010 23EA0000 		bic	r0, r3, r0
 966              	.LVL43:
 967              		.loc 1 841 16 view .LVU225
 968 0014 D063     		str	r0, [r2, #60]
 842:Drivers/STM32F4xx_StdPeriph_Driver/src/stm32f4xx_sdio.c ****   } 
 843:Drivers/STM32F4xx_StdPeriph_Driver/src/stm32f4xx_sdio.c **** }
 969              		.loc 1 843 1 view .LVU226
 970 0016 7047     		bx	lr
 971              	.L77:
 972              		.align	2
ARM GAS  /tmp/ccibS9wU.s 			page 32


 973              	.L76:
 974 0018 002C0140 		.word	1073818624
 975              		.cfi_endproc
 976              	.LFE148:
 978              		.section	.text.SDIO_GetFlagStatus,"ax",%progbits
 979              		.align	1
 980              		.global	SDIO_GetFlagStatus
 981              		.syntax unified
 982              		.thumb
 983              		.thumb_func
 985              	SDIO_GetFlagStatus:
 986              	.LVL44:
 987              	.LFB149:
 844:Drivers/STM32F4xx_StdPeriph_Driver/src/stm32f4xx_sdio.c **** 
 845:Drivers/STM32F4xx_StdPeriph_Driver/src/stm32f4xx_sdio.c **** /**
 846:Drivers/STM32F4xx_StdPeriph_Driver/src/stm32f4xx_sdio.c ****   * @brief  Checks whether the specified SDIO flag is set or not.
 847:Drivers/STM32F4xx_StdPeriph_Driver/src/stm32f4xx_sdio.c ****   * @param  SDIO_FLAG: specifies the flag to check. 
 848:Drivers/STM32F4xx_StdPeriph_Driver/src/stm32f4xx_sdio.c ****   *          This parameter can be one of the following values:
 849:Drivers/STM32F4xx_StdPeriph_Driver/src/stm32f4xx_sdio.c ****   *            @arg SDIO_FLAG_CCRCFAIL: Command response received (CRC check failed)
 850:Drivers/STM32F4xx_StdPeriph_Driver/src/stm32f4xx_sdio.c ****   *            @arg SDIO_FLAG_DCRCFAIL: Data block sent/received (CRC check failed)
 851:Drivers/STM32F4xx_StdPeriph_Driver/src/stm32f4xx_sdio.c ****   *            @arg SDIO_FLAG_CTIMEOUT: Command response timeout
 852:Drivers/STM32F4xx_StdPeriph_Driver/src/stm32f4xx_sdio.c ****   *            @arg SDIO_FLAG_DTIMEOUT: Data timeout
 853:Drivers/STM32F4xx_StdPeriph_Driver/src/stm32f4xx_sdio.c ****   *            @arg SDIO_FLAG_TXUNDERR: Transmit FIFO underrun error
 854:Drivers/STM32F4xx_StdPeriph_Driver/src/stm32f4xx_sdio.c ****   *            @arg SDIO_FLAG_RXOVERR:  Received FIFO overrun error
 855:Drivers/STM32F4xx_StdPeriph_Driver/src/stm32f4xx_sdio.c ****   *            @arg SDIO_FLAG_CMDREND:  Command response received (CRC check passed)
 856:Drivers/STM32F4xx_StdPeriph_Driver/src/stm32f4xx_sdio.c ****   *            @arg SDIO_FLAG_CMDSENT:  Command sent (no response required)
 857:Drivers/STM32F4xx_StdPeriph_Driver/src/stm32f4xx_sdio.c ****   *            @arg SDIO_FLAG_DATAEND:  Data end (data counter, SDIDCOUNT, is zero)
 858:Drivers/STM32F4xx_StdPeriph_Driver/src/stm32f4xx_sdio.c ****   *            @arg SDIO_FLAG_STBITERR: Start bit not detected on all data signals in wide bus mode
 859:Drivers/STM32F4xx_StdPeriph_Driver/src/stm32f4xx_sdio.c ****   *            @arg SDIO_FLAG_DBCKEND:  Data block sent/received (CRC check passed)
 860:Drivers/STM32F4xx_StdPeriph_Driver/src/stm32f4xx_sdio.c ****   *            @arg SDIO_FLAG_CMDACT:   Command transfer in progress
 861:Drivers/STM32F4xx_StdPeriph_Driver/src/stm32f4xx_sdio.c ****   *            @arg SDIO_FLAG_TXACT:    Data transmit in progress
 862:Drivers/STM32F4xx_StdPeriph_Driver/src/stm32f4xx_sdio.c ****   *            @arg SDIO_FLAG_RXACT:    Data receive in progress
 863:Drivers/STM32F4xx_StdPeriph_Driver/src/stm32f4xx_sdio.c ****   *            @arg SDIO_FLAG_TXFIFOHE: Transmit FIFO Half Empty
 864:Drivers/STM32F4xx_StdPeriph_Driver/src/stm32f4xx_sdio.c ****   *            @arg SDIO_FLAG_RXFIFOHF: Receive FIFO Half Full
 865:Drivers/STM32F4xx_StdPeriph_Driver/src/stm32f4xx_sdio.c ****   *            @arg SDIO_FLAG_TXFIFOF:  Transmit FIFO full
 866:Drivers/STM32F4xx_StdPeriph_Driver/src/stm32f4xx_sdio.c ****   *            @arg SDIO_FLAG_RXFIFOF:  Receive FIFO full
 867:Drivers/STM32F4xx_StdPeriph_Driver/src/stm32f4xx_sdio.c ****   *            @arg SDIO_FLAG_TXFIFOE:  Transmit FIFO empty
 868:Drivers/STM32F4xx_StdPeriph_Driver/src/stm32f4xx_sdio.c ****   *            @arg SDIO_FLAG_RXFIFOE:  Receive FIFO empty
 869:Drivers/STM32F4xx_StdPeriph_Driver/src/stm32f4xx_sdio.c ****   *            @arg SDIO_FLAG_TXDAVL:   Data available in transmit FIFO
 870:Drivers/STM32F4xx_StdPeriph_Driver/src/stm32f4xx_sdio.c ****   *            @arg SDIO_FLAG_RXDAVL:   Data available in receive FIFO
 871:Drivers/STM32F4xx_StdPeriph_Driver/src/stm32f4xx_sdio.c ****   *            @arg SDIO_FLAG_SDIOIT:   SD I/O interrupt received
 872:Drivers/STM32F4xx_StdPeriph_Driver/src/stm32f4xx_sdio.c ****   *            @arg SDIO_FLAG_CEATAEND: CE-ATA command completion signal received for CMD61
 873:Drivers/STM32F4xx_StdPeriph_Driver/src/stm32f4xx_sdio.c ****   * @retval The new state of SDIO_FLAG (SET or RESET).
 874:Drivers/STM32F4xx_StdPeriph_Driver/src/stm32f4xx_sdio.c ****   */
 875:Drivers/STM32F4xx_StdPeriph_Driver/src/stm32f4xx_sdio.c **** FlagStatus SDIO_GetFlagStatus(uint32_t SDIO_FLAG)
 876:Drivers/STM32F4xx_StdPeriph_Driver/src/stm32f4xx_sdio.c **** { 
 988              		.loc 1 876 1 is_stmt 1 view -0
 989              		.cfi_startproc
 990              		@ args = 0, pretend = 0, frame = 0
 991              		@ frame_needed = 0, uses_anonymous_args = 0
 992              		@ link register save eliminated.
 877:Drivers/STM32F4xx_StdPeriph_Driver/src/stm32f4xx_sdio.c ****   FlagStatus bitstatus = RESET;
 993              		.loc 1 877 3 view .LVU228
 878:Drivers/STM32F4xx_StdPeriph_Driver/src/stm32f4xx_sdio.c ****   
 879:Drivers/STM32F4xx_StdPeriph_Driver/src/stm32f4xx_sdio.c ****   /* Check the parameters */
 880:Drivers/STM32F4xx_StdPeriph_Driver/src/stm32f4xx_sdio.c ****   assert_param(IS_SDIO_FLAG(SDIO_FLAG));
 994              		.loc 1 880 3 view .LVU229
ARM GAS  /tmp/ccibS9wU.s 			page 33


 881:Drivers/STM32F4xx_StdPeriph_Driver/src/stm32f4xx_sdio.c ****   
 882:Drivers/STM32F4xx_StdPeriph_Driver/src/stm32f4xx_sdio.c ****   if ((SDIO->STA & SDIO_FLAG) != (uint32_t)RESET)
 995              		.loc 1 882 3 view .LVU230
 996              		.loc 1 882 12 is_stmt 0 view .LVU231
 997 0000 034B     		ldr	r3, .L81
 998 0002 5B6B     		ldr	r3, [r3, #52]
 999              		.loc 1 882 6 view .LVU232
 1000 0004 0342     		tst	r3, r0
 1001 0006 01D0     		beq	.L80
 883:Drivers/STM32F4xx_StdPeriph_Driver/src/stm32f4xx_sdio.c ****   {
 884:Drivers/STM32F4xx_StdPeriph_Driver/src/stm32f4xx_sdio.c ****     bitstatus = SET;
 1002              		.loc 1 884 15 view .LVU233
 1003 0008 0120     		movs	r0, #1
 1004              	.LVL45:
 1005              		.loc 1 884 15 view .LVU234
 1006 000a 7047     		bx	lr
 1007              	.LVL46:
 1008              	.L80:
 885:Drivers/STM32F4xx_StdPeriph_Driver/src/stm32f4xx_sdio.c ****   }
 886:Drivers/STM32F4xx_StdPeriph_Driver/src/stm32f4xx_sdio.c ****   else
 887:Drivers/STM32F4xx_StdPeriph_Driver/src/stm32f4xx_sdio.c ****   {
 888:Drivers/STM32F4xx_StdPeriph_Driver/src/stm32f4xx_sdio.c ****     bitstatus = RESET;
 1009              		.loc 1 888 15 view .LVU235
 1010 000c 0020     		movs	r0, #0
 1011              	.LVL47:
 889:Drivers/STM32F4xx_StdPeriph_Driver/src/stm32f4xx_sdio.c ****   }
 890:Drivers/STM32F4xx_StdPeriph_Driver/src/stm32f4xx_sdio.c ****   return bitstatus;
 1012              		.loc 1 890 3 is_stmt 1 view .LVU236
 891:Drivers/STM32F4xx_StdPeriph_Driver/src/stm32f4xx_sdio.c **** }
 1013              		.loc 1 891 1 is_stmt 0 view .LVU237
 1014 000e 7047     		bx	lr
 1015              	.L82:
 1016              		.align	2
 1017              	.L81:
 1018 0010 002C0140 		.word	1073818624
 1019              		.cfi_endproc
 1020              	.LFE149:
 1022              		.section	.text.SDIO_ClearFlag,"ax",%progbits
 1023              		.align	1
 1024              		.global	SDIO_ClearFlag
 1025              		.syntax unified
 1026              		.thumb
 1027              		.thumb_func
 1029              	SDIO_ClearFlag:
 1030              	.LVL48:
 1031              	.LFB150:
 892:Drivers/STM32F4xx_StdPeriph_Driver/src/stm32f4xx_sdio.c **** 
 893:Drivers/STM32F4xx_StdPeriph_Driver/src/stm32f4xx_sdio.c **** /**
 894:Drivers/STM32F4xx_StdPeriph_Driver/src/stm32f4xx_sdio.c ****   * @brief  Clears the SDIO's pending flags.
 895:Drivers/STM32F4xx_StdPeriph_Driver/src/stm32f4xx_sdio.c ****   * @param  SDIO_FLAG: specifies the flag to clear.  
 896:Drivers/STM32F4xx_StdPeriph_Driver/src/stm32f4xx_sdio.c ****   *          This parameter can be one or a combination of the following values:
 897:Drivers/STM32F4xx_StdPeriph_Driver/src/stm32f4xx_sdio.c ****   *            @arg SDIO_FLAG_CCRCFAIL: Command response received (CRC check failed)
 898:Drivers/STM32F4xx_StdPeriph_Driver/src/stm32f4xx_sdio.c ****   *            @arg SDIO_FLAG_DCRCFAIL: Data block sent/received (CRC check failed)
 899:Drivers/STM32F4xx_StdPeriph_Driver/src/stm32f4xx_sdio.c ****   *            @arg SDIO_FLAG_CTIMEOUT: Command response timeout
 900:Drivers/STM32F4xx_StdPeriph_Driver/src/stm32f4xx_sdio.c ****   *            @arg SDIO_FLAG_DTIMEOUT: Data timeout
 901:Drivers/STM32F4xx_StdPeriph_Driver/src/stm32f4xx_sdio.c ****   *            @arg SDIO_FLAG_TXUNDERR: Transmit FIFO underrun error
 902:Drivers/STM32F4xx_StdPeriph_Driver/src/stm32f4xx_sdio.c ****   *            @arg SDIO_FLAG_RXOVERR:  Received FIFO overrun error
ARM GAS  /tmp/ccibS9wU.s 			page 34


 903:Drivers/STM32F4xx_StdPeriph_Driver/src/stm32f4xx_sdio.c ****   *            @arg SDIO_FLAG_CMDREND:  Command response received (CRC check passed)
 904:Drivers/STM32F4xx_StdPeriph_Driver/src/stm32f4xx_sdio.c ****   *            @arg SDIO_FLAG_CMDSENT:  Command sent (no response required)
 905:Drivers/STM32F4xx_StdPeriph_Driver/src/stm32f4xx_sdio.c ****   *            @arg SDIO_FLAG_DATAEND:  Data end (data counter, SDIDCOUNT, is zero)
 906:Drivers/STM32F4xx_StdPeriph_Driver/src/stm32f4xx_sdio.c ****   *            @arg SDIO_FLAG_STBITERR: Start bit not detected on all data signals in wide bus mode
 907:Drivers/STM32F4xx_StdPeriph_Driver/src/stm32f4xx_sdio.c ****   *            @arg SDIO_FLAG_DBCKEND:  Data block sent/received (CRC check passed)
 908:Drivers/STM32F4xx_StdPeriph_Driver/src/stm32f4xx_sdio.c ****   *            @arg SDIO_FLAG_SDIOIT:   SD I/O interrupt received
 909:Drivers/STM32F4xx_StdPeriph_Driver/src/stm32f4xx_sdio.c ****   *            @arg SDIO_FLAG_CEATAEND: CE-ATA command completion signal received for CMD61
 910:Drivers/STM32F4xx_StdPeriph_Driver/src/stm32f4xx_sdio.c ****   * @retval None
 911:Drivers/STM32F4xx_StdPeriph_Driver/src/stm32f4xx_sdio.c ****   */
 912:Drivers/STM32F4xx_StdPeriph_Driver/src/stm32f4xx_sdio.c **** void SDIO_ClearFlag(uint32_t SDIO_FLAG)
 913:Drivers/STM32F4xx_StdPeriph_Driver/src/stm32f4xx_sdio.c **** { 
 1032              		.loc 1 913 1 is_stmt 1 view -0
 1033              		.cfi_startproc
 1034              		@ args = 0, pretend = 0, frame = 0
 1035              		@ frame_needed = 0, uses_anonymous_args = 0
 1036              		@ link register save eliminated.
 914:Drivers/STM32F4xx_StdPeriph_Driver/src/stm32f4xx_sdio.c ****   /* Check the parameters */
 915:Drivers/STM32F4xx_StdPeriph_Driver/src/stm32f4xx_sdio.c ****   assert_param(IS_SDIO_CLEAR_FLAG(SDIO_FLAG));
 1037              		.loc 1 915 3 view .LVU239
 916:Drivers/STM32F4xx_StdPeriph_Driver/src/stm32f4xx_sdio.c ****    
 917:Drivers/STM32F4xx_StdPeriph_Driver/src/stm32f4xx_sdio.c ****   SDIO->ICR = SDIO_FLAG;
 1038              		.loc 1 917 3 view .LVU240
 1039              		.loc 1 917 13 is_stmt 0 view .LVU241
 1040 0000 014B     		ldr	r3, .L84
 1041 0002 9863     		str	r0, [r3, #56]
 918:Drivers/STM32F4xx_StdPeriph_Driver/src/stm32f4xx_sdio.c **** }
 1042              		.loc 1 918 1 view .LVU242
 1043 0004 7047     		bx	lr
 1044              	.L85:
 1045 0006 00BF     		.align	2
 1046              	.L84:
 1047 0008 002C0140 		.word	1073818624
 1048              		.cfi_endproc
 1049              	.LFE150:
 1051              		.section	.text.SDIO_GetITStatus,"ax",%progbits
 1052              		.align	1
 1053              		.global	SDIO_GetITStatus
 1054              		.syntax unified
 1055              		.thumb
 1056              		.thumb_func
 1058              	SDIO_GetITStatus:
 1059              	.LVL49:
 1060              	.LFB151:
 919:Drivers/STM32F4xx_StdPeriph_Driver/src/stm32f4xx_sdio.c **** 
 920:Drivers/STM32F4xx_StdPeriph_Driver/src/stm32f4xx_sdio.c **** /**
 921:Drivers/STM32F4xx_StdPeriph_Driver/src/stm32f4xx_sdio.c ****   * @brief  Checks whether the specified SDIO interrupt has occurred or not.
 922:Drivers/STM32F4xx_StdPeriph_Driver/src/stm32f4xx_sdio.c ****   * @param  SDIO_IT: specifies the SDIO interrupt source to check. 
 923:Drivers/STM32F4xx_StdPeriph_Driver/src/stm32f4xx_sdio.c ****   *          This parameter can be one of the following values:
 924:Drivers/STM32F4xx_StdPeriph_Driver/src/stm32f4xx_sdio.c ****   *            @arg SDIO_IT_CCRCFAIL: Command response received (CRC check failed) interrupt
 925:Drivers/STM32F4xx_StdPeriph_Driver/src/stm32f4xx_sdio.c ****   *            @arg SDIO_IT_DCRCFAIL: Data block sent/received (CRC check failed) interrupt
 926:Drivers/STM32F4xx_StdPeriph_Driver/src/stm32f4xx_sdio.c ****   *            @arg SDIO_IT_CTIMEOUT: Command response timeout interrupt
 927:Drivers/STM32F4xx_StdPeriph_Driver/src/stm32f4xx_sdio.c ****   *            @arg SDIO_IT_DTIMEOUT: Data timeout interrupt
 928:Drivers/STM32F4xx_StdPeriph_Driver/src/stm32f4xx_sdio.c ****   *            @arg SDIO_IT_TXUNDERR: Transmit FIFO underrun error interrupt
 929:Drivers/STM32F4xx_StdPeriph_Driver/src/stm32f4xx_sdio.c ****   *            @arg SDIO_IT_RXOVERR:  Received FIFO overrun error interrupt
 930:Drivers/STM32F4xx_StdPeriph_Driver/src/stm32f4xx_sdio.c ****   *            @arg SDIO_IT_CMDREND:  Command response received (CRC check passed) interrupt
 931:Drivers/STM32F4xx_StdPeriph_Driver/src/stm32f4xx_sdio.c ****   *            @arg SDIO_IT_CMDSENT:  Command sent (no response required) interrupt
 932:Drivers/STM32F4xx_StdPeriph_Driver/src/stm32f4xx_sdio.c ****   *            @arg SDIO_IT_DATAEND:  Data end (data counter, SDIDCOUNT, is zero) interrupt
ARM GAS  /tmp/ccibS9wU.s 			page 35


 933:Drivers/STM32F4xx_StdPeriph_Driver/src/stm32f4xx_sdio.c ****   *            @arg SDIO_IT_STBITERR: Start bit not detected on all data signals in wide 
 934:Drivers/STM32F4xx_StdPeriph_Driver/src/stm32f4xx_sdio.c ****   *                                   bus mode interrupt
 935:Drivers/STM32F4xx_StdPeriph_Driver/src/stm32f4xx_sdio.c ****   *            @arg SDIO_IT_DBCKEND:  Data block sent/received (CRC check passed) interrupt
 936:Drivers/STM32F4xx_StdPeriph_Driver/src/stm32f4xx_sdio.c ****   *            @arg SDIO_IT_CMDACT:   Command transfer in progress interrupt
 937:Drivers/STM32F4xx_StdPeriph_Driver/src/stm32f4xx_sdio.c ****   *            @arg SDIO_IT_TXACT:    Data transmit in progress interrupt
 938:Drivers/STM32F4xx_StdPeriph_Driver/src/stm32f4xx_sdio.c ****   *            @arg SDIO_IT_RXACT:    Data receive in progress interrupt
 939:Drivers/STM32F4xx_StdPeriph_Driver/src/stm32f4xx_sdio.c ****   *            @arg SDIO_IT_TXFIFOHE: Transmit FIFO Half Empty interrupt
 940:Drivers/STM32F4xx_StdPeriph_Driver/src/stm32f4xx_sdio.c ****   *            @arg SDIO_IT_RXFIFOHF: Receive FIFO Half Full interrupt
 941:Drivers/STM32F4xx_StdPeriph_Driver/src/stm32f4xx_sdio.c ****   *            @arg SDIO_IT_TXFIFOF:  Transmit FIFO full interrupt
 942:Drivers/STM32F4xx_StdPeriph_Driver/src/stm32f4xx_sdio.c ****   *            @arg SDIO_IT_RXFIFOF:  Receive FIFO full interrupt
 943:Drivers/STM32F4xx_StdPeriph_Driver/src/stm32f4xx_sdio.c ****   *            @arg SDIO_IT_TXFIFOE:  Transmit FIFO empty interrupt
 944:Drivers/STM32F4xx_StdPeriph_Driver/src/stm32f4xx_sdio.c ****   *            @arg SDIO_IT_RXFIFOE:  Receive FIFO empty interrupt
 945:Drivers/STM32F4xx_StdPeriph_Driver/src/stm32f4xx_sdio.c ****   *            @arg SDIO_IT_TXDAVL:   Data available in transmit FIFO interrupt
 946:Drivers/STM32F4xx_StdPeriph_Driver/src/stm32f4xx_sdio.c ****   *            @arg SDIO_IT_RXDAVL:   Data available in receive FIFO interrupt
 947:Drivers/STM32F4xx_StdPeriph_Driver/src/stm32f4xx_sdio.c ****   *            @arg SDIO_IT_SDIOIT:   SD I/O interrupt received interrupt
 948:Drivers/STM32F4xx_StdPeriph_Driver/src/stm32f4xx_sdio.c ****   *            @arg SDIO_IT_CEATAEND: CE-ATA command completion signal received for CMD61 interrupt
 949:Drivers/STM32F4xx_StdPeriph_Driver/src/stm32f4xx_sdio.c ****   * @retval The new state of SDIO_IT (SET or RESET).
 950:Drivers/STM32F4xx_StdPeriph_Driver/src/stm32f4xx_sdio.c ****   */
 951:Drivers/STM32F4xx_StdPeriph_Driver/src/stm32f4xx_sdio.c **** ITStatus SDIO_GetITStatus(uint32_t SDIO_IT)
 952:Drivers/STM32F4xx_StdPeriph_Driver/src/stm32f4xx_sdio.c **** { 
 1061              		.loc 1 952 1 is_stmt 1 view -0
 1062              		.cfi_startproc
 1063              		@ args = 0, pretend = 0, frame = 0
 1064              		@ frame_needed = 0, uses_anonymous_args = 0
 1065              		@ link register save eliminated.
 953:Drivers/STM32F4xx_StdPeriph_Driver/src/stm32f4xx_sdio.c ****   ITStatus bitstatus = RESET;
 1066              		.loc 1 953 3 view .LVU244
 954:Drivers/STM32F4xx_StdPeriph_Driver/src/stm32f4xx_sdio.c ****   
 955:Drivers/STM32F4xx_StdPeriph_Driver/src/stm32f4xx_sdio.c ****   /* Check the parameters */
 956:Drivers/STM32F4xx_StdPeriph_Driver/src/stm32f4xx_sdio.c ****   assert_param(IS_SDIO_GET_IT(SDIO_IT));
 1067              		.loc 1 956 3 view .LVU245
 957:Drivers/STM32F4xx_StdPeriph_Driver/src/stm32f4xx_sdio.c ****   if ((SDIO->STA & SDIO_IT) != (uint32_t)RESET)  
 1068              		.loc 1 957 3 view .LVU246
 1069              		.loc 1 957 12 is_stmt 0 view .LVU247
 1070 0000 034B     		ldr	r3, .L89
 1071 0002 5B6B     		ldr	r3, [r3, #52]
 1072              		.loc 1 957 6 view .LVU248
 1073 0004 0342     		tst	r3, r0
 1074 0006 01D0     		beq	.L88
 958:Drivers/STM32F4xx_StdPeriph_Driver/src/stm32f4xx_sdio.c ****   {
 959:Drivers/STM32F4xx_StdPeriph_Driver/src/stm32f4xx_sdio.c ****     bitstatus = SET;
 1075              		.loc 1 959 15 view .LVU249
 1076 0008 0120     		movs	r0, #1
 1077              	.LVL50:
 1078              		.loc 1 959 15 view .LVU250
 1079 000a 7047     		bx	lr
 1080              	.LVL51:
 1081              	.L88:
 960:Drivers/STM32F4xx_StdPeriph_Driver/src/stm32f4xx_sdio.c ****   }
 961:Drivers/STM32F4xx_StdPeriph_Driver/src/stm32f4xx_sdio.c ****   else
 962:Drivers/STM32F4xx_StdPeriph_Driver/src/stm32f4xx_sdio.c ****   {
 963:Drivers/STM32F4xx_StdPeriph_Driver/src/stm32f4xx_sdio.c ****     bitstatus = RESET;
 1082              		.loc 1 963 15 view .LVU251
 1083 000c 0020     		movs	r0, #0
 1084              	.LVL52:
 964:Drivers/STM32F4xx_StdPeriph_Driver/src/stm32f4xx_sdio.c ****   }
 965:Drivers/STM32F4xx_StdPeriph_Driver/src/stm32f4xx_sdio.c ****   return bitstatus;
ARM GAS  /tmp/ccibS9wU.s 			page 36


 1085              		.loc 1 965 3 is_stmt 1 view .LVU252
 966:Drivers/STM32F4xx_StdPeriph_Driver/src/stm32f4xx_sdio.c **** }
 1086              		.loc 1 966 1 is_stmt 0 view .LVU253
 1087 000e 7047     		bx	lr
 1088              	.L90:
 1089              		.align	2
 1090              	.L89:
 1091 0010 002C0140 		.word	1073818624
 1092              		.cfi_endproc
 1093              	.LFE151:
 1095              		.section	.text.SDIO_ClearITPendingBit,"ax",%progbits
 1096              		.align	1
 1097              		.global	SDIO_ClearITPendingBit
 1098              		.syntax unified
 1099              		.thumb
 1100              		.thumb_func
 1102              	SDIO_ClearITPendingBit:
 1103              	.LVL53:
 1104              	.LFB152:
 967:Drivers/STM32F4xx_StdPeriph_Driver/src/stm32f4xx_sdio.c **** 
 968:Drivers/STM32F4xx_StdPeriph_Driver/src/stm32f4xx_sdio.c **** /**
 969:Drivers/STM32F4xx_StdPeriph_Driver/src/stm32f4xx_sdio.c ****   * @brief  Clears the SDIO's interrupt pending bits.
 970:Drivers/STM32F4xx_StdPeriph_Driver/src/stm32f4xx_sdio.c ****   * @param  SDIO_IT: specifies the interrupt pending bit to clear. 
 971:Drivers/STM32F4xx_StdPeriph_Driver/src/stm32f4xx_sdio.c ****   *          This parameter can be one or a combination of the following values:
 972:Drivers/STM32F4xx_StdPeriph_Driver/src/stm32f4xx_sdio.c ****   *            @arg SDIO_IT_CCRCFAIL: Command response received (CRC check failed) interrupt
 973:Drivers/STM32F4xx_StdPeriph_Driver/src/stm32f4xx_sdio.c ****   *            @arg SDIO_IT_DCRCFAIL: Data block sent/received (CRC check failed) interrupt
 974:Drivers/STM32F4xx_StdPeriph_Driver/src/stm32f4xx_sdio.c ****   *            @arg SDIO_IT_CTIMEOUT: Command response timeout interrupt
 975:Drivers/STM32F4xx_StdPeriph_Driver/src/stm32f4xx_sdio.c ****   *            @arg SDIO_IT_DTIMEOUT: Data timeout interrupt
 976:Drivers/STM32F4xx_StdPeriph_Driver/src/stm32f4xx_sdio.c ****   *            @arg SDIO_IT_TXUNDERR: Transmit FIFO underrun error interrupt
 977:Drivers/STM32F4xx_StdPeriph_Driver/src/stm32f4xx_sdio.c ****   *            @arg SDIO_IT_RXOVERR:  Received FIFO overrun error interrupt
 978:Drivers/STM32F4xx_StdPeriph_Driver/src/stm32f4xx_sdio.c ****   *            @arg SDIO_IT_CMDREND:  Command response received (CRC check passed) interrupt
 979:Drivers/STM32F4xx_StdPeriph_Driver/src/stm32f4xx_sdio.c ****   *            @arg SDIO_IT_CMDSENT:  Command sent (no response required) interrupt
 980:Drivers/STM32F4xx_StdPeriph_Driver/src/stm32f4xx_sdio.c ****   *            @arg SDIO_IT_DATAEND:  Data end (data counter, SDIO_DCOUNT, is zero) interrupt
 981:Drivers/STM32F4xx_StdPeriph_Driver/src/stm32f4xx_sdio.c ****   *            @arg SDIO_IT_STBITERR: Start bit not detected on all data signals in wide 
 982:Drivers/STM32F4xx_StdPeriph_Driver/src/stm32f4xx_sdio.c ****   *                                   bus mode interrupt
 983:Drivers/STM32F4xx_StdPeriph_Driver/src/stm32f4xx_sdio.c ****   *            @arg SDIO_IT_SDIOIT:   SD I/O interrupt received interrupt
 984:Drivers/STM32F4xx_StdPeriph_Driver/src/stm32f4xx_sdio.c ****   *            @arg SDIO_IT_CEATAEND: CE-ATA command completion signal received for CMD61
 985:Drivers/STM32F4xx_StdPeriph_Driver/src/stm32f4xx_sdio.c ****   * @retval None
 986:Drivers/STM32F4xx_StdPeriph_Driver/src/stm32f4xx_sdio.c ****   */
 987:Drivers/STM32F4xx_StdPeriph_Driver/src/stm32f4xx_sdio.c **** void SDIO_ClearITPendingBit(uint32_t SDIO_IT)
 988:Drivers/STM32F4xx_StdPeriph_Driver/src/stm32f4xx_sdio.c **** { 
 1105              		.loc 1 988 1 is_stmt 1 view -0
 1106              		.cfi_startproc
 1107              		@ args = 0, pretend = 0, frame = 0
 1108              		@ frame_needed = 0, uses_anonymous_args = 0
 1109              		@ link register save eliminated.
 989:Drivers/STM32F4xx_StdPeriph_Driver/src/stm32f4xx_sdio.c ****   /* Check the parameters */
 990:Drivers/STM32F4xx_StdPeriph_Driver/src/stm32f4xx_sdio.c ****   assert_param(IS_SDIO_CLEAR_IT(SDIO_IT));
 1110              		.loc 1 990 3 view .LVU255
 991:Drivers/STM32F4xx_StdPeriph_Driver/src/stm32f4xx_sdio.c ****    
 992:Drivers/STM32F4xx_StdPeriph_Driver/src/stm32f4xx_sdio.c ****   SDIO->ICR = SDIO_IT;
 1111              		.loc 1 992 3 view .LVU256
 1112              		.loc 1 992 13 is_stmt 0 view .LVU257
 1113 0000 014B     		ldr	r3, .L92
 1114 0002 9863     		str	r0, [r3, #56]
 993:Drivers/STM32F4xx_StdPeriph_Driver/src/stm32f4xx_sdio.c **** }
 1115              		.loc 1 993 1 view .LVU258
ARM GAS  /tmp/ccibS9wU.s 			page 37


 1116 0004 7047     		bx	lr
 1117              	.L93:
 1118 0006 00BF     		.align	2
 1119              	.L92:
 1120 0008 002C0140 		.word	1073818624
 1121              		.cfi_endproc
 1122              	.LFE152:
 1124              		.text
 1125              	.Letext0:
 1126              		.file 2 "/usr/share/gcc-arm-none-eabi-10.3-2021.10/arm-none-eabi/include/machine/_default_types.h"
 1127              		.file 3 "/usr/share/gcc-arm-none-eabi-10.3-2021.10/arm-none-eabi/include/sys/_stdint.h"
 1128              		.file 4 "Drivers/CMSIS/Device/ST/STM32F4xx/Include/stm32f4xx.h"
 1129              		.file 5 "Drivers/STM32F4xx_StdPeriph_Driver/inc/stm32f4xx_sdio.h"
 1130              		.file 6 "Drivers/STM32F4xx_StdPeriph_Driver/inc/stm32f4xx_rcc.h"
ARM GAS  /tmp/ccibS9wU.s 			page 38


DEFINED SYMBOLS
                            *ABS*:0000000000000000 stm32f4xx_sdio.c
     /tmp/ccibS9wU.s:20     .text.SDIO_DeInit:0000000000000000 $t
     /tmp/ccibS9wU.s:26     .text.SDIO_DeInit:0000000000000000 SDIO_DeInit
     /tmp/ccibS9wU.s:53     .text.SDIO_Init:0000000000000000 $t
     /tmp/ccibS9wU.s:59     .text.SDIO_Init:0000000000000000 SDIO_Init
     /tmp/ccibS9wU.s:124    .text.SDIO_Init:0000000000000030 $d
     /tmp/ccibS9wU.s:129    .text.SDIO_StructInit:0000000000000000 $t
     /tmp/ccibS9wU.s:135    .text.SDIO_StructInit:0000000000000000 SDIO_StructInit
     /tmp/ccibS9wU.s:168    .text.SDIO_ClockCmd:0000000000000000 $t
     /tmp/ccibS9wU.s:174    .text.SDIO_ClockCmd:0000000000000000 SDIO_ClockCmd
     /tmp/ccibS9wU.s:192    .text.SDIO_ClockCmd:0000000000000008 $d
     /tmp/ccibS9wU.s:197    .text.SDIO_SetPowerState:0000000000000000 $t
     /tmp/ccibS9wU.s:203    .text.SDIO_SetPowerState:0000000000000000 SDIO_SetPowerState
     /tmp/ccibS9wU.s:221    .text.SDIO_SetPowerState:0000000000000008 $d
     /tmp/ccibS9wU.s:226    .text.SDIO_GetPowerState:0000000000000000 $t
     /tmp/ccibS9wU.s:232    .text.SDIO_GetPowerState:0000000000000000 SDIO_GetPowerState
     /tmp/ccibS9wU.s:249    .text.SDIO_GetPowerState:000000000000000c $d
     /tmp/ccibS9wU.s:254    .text.SDIO_SendCommand:0000000000000000 $t
     /tmp/ccibS9wU.s:260    .text.SDIO_SendCommand:0000000000000000 SDIO_SendCommand
     /tmp/ccibS9wU.s:323    .text.SDIO_SendCommand:000000000000002c $d
     /tmp/ccibS9wU.s:328    .text.SDIO_CmdStructInit:0000000000000000 $t
     /tmp/ccibS9wU.s:334    .text.SDIO_CmdStructInit:0000000000000000 SDIO_CmdStructInit
     /tmp/ccibS9wU.s:364    .text.SDIO_GetCommandResponse:0000000000000000 $t
     /tmp/ccibS9wU.s:370    .text.SDIO_GetCommandResponse:0000000000000000 SDIO_GetCommandResponse
     /tmp/ccibS9wU.s:387    .text.SDIO_GetCommandResponse:0000000000000008 $d
     /tmp/ccibS9wU.s:392    .text.SDIO_GetResponse:0000000000000000 $t
     /tmp/ccibS9wU.s:398    .text.SDIO_GetResponse:0000000000000000 SDIO_GetResponse
     /tmp/ccibS9wU.s:434    .text.SDIO_GetResponse:0000000000000014 $d
     /tmp/ccibS9wU.s:439    .text.SDIO_DataConfig:0000000000000000 $t
     /tmp/ccibS9wU.s:445    .text.SDIO_DataConfig:0000000000000000 SDIO_DataConfig
     /tmp/ccibS9wU.s:511    .text.SDIO_DataConfig:000000000000002c $d
     /tmp/ccibS9wU.s:516    .text.SDIO_DataStructInit:0000000000000000 $t
     /tmp/ccibS9wU.s:522    .text.SDIO_DataStructInit:0000000000000000 SDIO_DataStructInit
     /tmp/ccibS9wU.s:556    .text.SDIO_GetDataCounter:0000000000000000 $t
     /tmp/ccibS9wU.s:562    .text.SDIO_GetDataCounter:0000000000000000 SDIO_GetDataCounter
     /tmp/ccibS9wU.s:578    .text.SDIO_GetDataCounter:0000000000000008 $d
     /tmp/ccibS9wU.s:583    .text.SDIO_ReadData:0000000000000000 $t
     /tmp/ccibS9wU.s:589    .text.SDIO_ReadData:0000000000000000 SDIO_ReadData
     /tmp/ccibS9wU.s:605    .text.SDIO_ReadData:0000000000000008 $d
     /tmp/ccibS9wU.s:610    .text.SDIO_WriteData:0000000000000000 $t
     /tmp/ccibS9wU.s:616    .text.SDIO_WriteData:0000000000000000 SDIO_WriteData
     /tmp/ccibS9wU.s:633    .text.SDIO_WriteData:0000000000000008 $d
     /tmp/ccibS9wU.s:638    .text.SDIO_GetFIFOCount:0000000000000000 $t
     /tmp/ccibS9wU.s:644    .text.SDIO_GetFIFOCount:0000000000000000 SDIO_GetFIFOCount
     /tmp/ccibS9wU.s:660    .text.SDIO_GetFIFOCount:0000000000000008 $d
     /tmp/ccibS9wU.s:665    .text.SDIO_StartSDIOReadWait:0000000000000000 $t
     /tmp/ccibS9wU.s:671    .text.SDIO_StartSDIOReadWait:0000000000000000 SDIO_StartSDIOReadWait
     /tmp/ccibS9wU.s:689    .text.SDIO_StartSDIOReadWait:0000000000000008 $d
     /tmp/ccibS9wU.s:694    .text.SDIO_StopSDIOReadWait:0000000000000000 $t
     /tmp/ccibS9wU.s:700    .text.SDIO_StopSDIOReadWait:0000000000000000 SDIO_StopSDIOReadWait
     /tmp/ccibS9wU.s:718    .text.SDIO_StopSDIOReadWait:0000000000000008 $d
     /tmp/ccibS9wU.s:723    .text.SDIO_SetSDIOReadWaitMode:0000000000000000 $t
     /tmp/ccibS9wU.s:729    .text.SDIO_SetSDIOReadWaitMode:0000000000000000 SDIO_SetSDIOReadWaitMode
     /tmp/ccibS9wU.s:747    .text.SDIO_SetSDIOReadWaitMode:0000000000000008 $d
     /tmp/ccibS9wU.s:752    .text.SDIO_SetSDIOOperation:0000000000000000 $t
     /tmp/ccibS9wU.s:758    .text.SDIO_SetSDIOOperation:0000000000000000 SDIO_SetSDIOOperation
ARM GAS  /tmp/ccibS9wU.s 			page 39


     /tmp/ccibS9wU.s:776    .text.SDIO_SetSDIOOperation:0000000000000008 $d
     /tmp/ccibS9wU.s:781    .text.SDIO_SendSDIOSuspendCmd:0000000000000000 $t
     /tmp/ccibS9wU.s:787    .text.SDIO_SendSDIOSuspendCmd:0000000000000000 SDIO_SendSDIOSuspendCmd
     /tmp/ccibS9wU.s:805    .text.SDIO_SendSDIOSuspendCmd:0000000000000008 $d
     /tmp/ccibS9wU.s:810    .text.SDIO_CommandCompletionCmd:0000000000000000 $t
     /tmp/ccibS9wU.s:816    .text.SDIO_CommandCompletionCmd:0000000000000000 SDIO_CommandCompletionCmd
     /tmp/ccibS9wU.s:834    .text.SDIO_CommandCompletionCmd:0000000000000008 $d
     /tmp/ccibS9wU.s:839    .text.SDIO_CEATAITCmd:0000000000000000 $t
     /tmp/ccibS9wU.s:845    .text.SDIO_CEATAITCmd:0000000000000000 SDIO_CEATAITCmd
     /tmp/ccibS9wU.s:868    .text.SDIO_CEATAITCmd:0000000000000010 $d
     /tmp/ccibS9wU.s:873    .text.SDIO_SendCEATACmd:0000000000000000 $t
     /tmp/ccibS9wU.s:879    .text.SDIO_SendCEATACmd:0000000000000000 SDIO_SendCEATACmd
     /tmp/ccibS9wU.s:897    .text.SDIO_SendCEATACmd:0000000000000008 $d
     /tmp/ccibS9wU.s:902    .text.SDIO_DMACmd:0000000000000000 $t
     /tmp/ccibS9wU.s:908    .text.SDIO_DMACmd:0000000000000000 SDIO_DMACmd
     /tmp/ccibS9wU.s:926    .text.SDIO_DMACmd:0000000000000008 $d
     /tmp/ccibS9wU.s:931    .text.SDIO_ITConfig:0000000000000000 $t
     /tmp/ccibS9wU.s:937    .text.SDIO_ITConfig:0000000000000000 SDIO_ITConfig
     /tmp/ccibS9wU.s:974    .text.SDIO_ITConfig:0000000000000018 $d
     /tmp/ccibS9wU.s:979    .text.SDIO_GetFlagStatus:0000000000000000 $t
     /tmp/ccibS9wU.s:985    .text.SDIO_GetFlagStatus:0000000000000000 SDIO_GetFlagStatus
     /tmp/ccibS9wU.s:1018   .text.SDIO_GetFlagStatus:0000000000000010 $d
     /tmp/ccibS9wU.s:1023   .text.SDIO_ClearFlag:0000000000000000 $t
     /tmp/ccibS9wU.s:1029   .text.SDIO_ClearFlag:0000000000000000 SDIO_ClearFlag
     /tmp/ccibS9wU.s:1047   .text.SDIO_ClearFlag:0000000000000008 $d
     /tmp/ccibS9wU.s:1052   .text.SDIO_GetITStatus:0000000000000000 $t
     /tmp/ccibS9wU.s:1058   .text.SDIO_GetITStatus:0000000000000000 SDIO_GetITStatus
     /tmp/ccibS9wU.s:1091   .text.SDIO_GetITStatus:0000000000000010 $d
     /tmp/ccibS9wU.s:1096   .text.SDIO_ClearITPendingBit:0000000000000000 $t
     /tmp/ccibS9wU.s:1102   .text.SDIO_ClearITPendingBit:0000000000000000 SDIO_ClearITPendingBit
     /tmp/ccibS9wU.s:1120   .text.SDIO_ClearITPendingBit:0000000000000008 $d

UNDEFINED SYMBOLS
RCC_APB2PeriphResetCmd
