ARM GAS  /tmp/cc396ZZ5.s 			page 1


   1              		.cpu cortex-m4
   2              		.eabi_attribute 27, 1
   3              		.eabi_attribute 28, 1
   4              		.eabi_attribute 20, 1
   5              		.eabi_attribute 21, 1
   6              		.eabi_attribute 23, 3
   7              		.eabi_attribute 24, 1
   8              		.eabi_attribute 25, 1
   9              		.eabi_attribute 26, 1
  10              		.eabi_attribute 30, 1
  11              		.eabi_attribute 34, 1
  12              		.eabi_attribute 18, 4
  13              		.file	"stm32f4xx_usart.c"
  14              		.text
  15              	.Ltext0:
  16              		.cfi_sections	.debug_frame
  17              		.section	.text.USART_DeInit,"ax",%progbits
  18              		.align	1
  19              		.global	USART_DeInit
  20              		.arch armv7e-m
  21              		.syntax unified
  22              		.thumb
  23              		.thumb_func
  24              		.fpu fpv4-sp-d16
  26              	USART_DeInit:
  27              	.LVL0:
  28              	.LFB123:
  29              		.file 1 "Drivers/STM32F4xx_StdPeriph_Driver/src/stm32f4xx_usart.c"
   1:Drivers/STM32F4xx_StdPeriph_Driver/src/stm32f4xx_usart.c **** /**
   2:Drivers/STM32F4xx_StdPeriph_Driver/src/stm32f4xx_usart.c ****   ******************************************************************************
   3:Drivers/STM32F4xx_StdPeriph_Driver/src/stm32f4xx_usart.c ****   * @file    stm32f4xx_usart.c
   4:Drivers/STM32F4xx_StdPeriph_Driver/src/stm32f4xx_usart.c ****   * @author  MCD Application Team
   5:Drivers/STM32F4xx_StdPeriph_Driver/src/stm32f4xx_usart.c ****   * @version V1.6.1
   6:Drivers/STM32F4xx_StdPeriph_Driver/src/stm32f4xx_usart.c ****   * @date    21-October-2015
   7:Drivers/STM32F4xx_StdPeriph_Driver/src/stm32f4xx_usart.c ****   * @brief   This file provides firmware functions to manage the following 
   8:Drivers/STM32F4xx_StdPeriph_Driver/src/stm32f4xx_usart.c ****   *          functionalities of the Universal synchronous asynchronous receiver
   9:Drivers/STM32F4xx_StdPeriph_Driver/src/stm32f4xx_usart.c ****   *          transmitter (USART):           
  10:Drivers/STM32F4xx_StdPeriph_Driver/src/stm32f4xx_usart.c ****   *           + Initialization and Configuration
  11:Drivers/STM32F4xx_StdPeriph_Driver/src/stm32f4xx_usart.c ****   *           + Data transfers
  12:Drivers/STM32F4xx_StdPeriph_Driver/src/stm32f4xx_usart.c ****   *           + Multi-Processor Communication
  13:Drivers/STM32F4xx_StdPeriph_Driver/src/stm32f4xx_usart.c ****   *           + LIN mode
  14:Drivers/STM32F4xx_StdPeriph_Driver/src/stm32f4xx_usart.c ****   *           + Half-duplex mode
  15:Drivers/STM32F4xx_StdPeriph_Driver/src/stm32f4xx_usart.c ****   *           + Smartcard mode
  16:Drivers/STM32F4xx_StdPeriph_Driver/src/stm32f4xx_usart.c ****   *           + IrDA mode
  17:Drivers/STM32F4xx_StdPeriph_Driver/src/stm32f4xx_usart.c ****   *           + DMA transfers management
  18:Drivers/STM32F4xx_StdPeriph_Driver/src/stm32f4xx_usart.c ****   *           + Interrupts and flags management 
  19:Drivers/STM32F4xx_StdPeriph_Driver/src/stm32f4xx_usart.c ****   *           
  20:Drivers/STM32F4xx_StdPeriph_Driver/src/stm32f4xx_usart.c ****   @verbatim       
  21:Drivers/STM32F4xx_StdPeriph_Driver/src/stm32f4xx_usart.c ****  ===============================================================================
  22:Drivers/STM32F4xx_StdPeriph_Driver/src/stm32f4xx_usart.c ****                         ##### How to use this driver #####
  23:Drivers/STM32F4xx_StdPeriph_Driver/src/stm32f4xx_usart.c ****  ===============================================================================
  24:Drivers/STM32F4xx_StdPeriph_Driver/src/stm32f4xx_usart.c ****     [..]
  25:Drivers/STM32F4xx_StdPeriph_Driver/src/stm32f4xx_usart.c ****       (#) Enable peripheral clock using the following functions
  26:Drivers/STM32F4xx_StdPeriph_Driver/src/stm32f4xx_usart.c ****           RCC_APB2PeriphClockCmd(RCC_APB2Periph_USARTx, ENABLE) for USART1 and USART6 
  27:Drivers/STM32F4xx_StdPeriph_Driver/src/stm32f4xx_usart.c ****           RCC_APB1PeriphClockCmd(RCC_APB1Periph_USARTx, ENABLE) for USART2, USART3, 
  28:Drivers/STM32F4xx_StdPeriph_Driver/src/stm32f4xx_usart.c ****           UART4 or UART5.
  29:Drivers/STM32F4xx_StdPeriph_Driver/src/stm32f4xx_usart.c ****   
ARM GAS  /tmp/cc396ZZ5.s 			page 2


  30:Drivers/STM32F4xx_StdPeriph_Driver/src/stm32f4xx_usart.c ****       (#) According to the USART mode, enable the GPIO clocks using 
  31:Drivers/STM32F4xx_StdPeriph_Driver/src/stm32f4xx_usart.c ****           RCC_AHB1PeriphClockCmd() function. (The I/O can be TX, RX, CTS, 
  32:Drivers/STM32F4xx_StdPeriph_Driver/src/stm32f4xx_usart.c ****           or/and SCLK). 
  33:Drivers/STM32F4xx_StdPeriph_Driver/src/stm32f4xx_usart.c ****   
  34:Drivers/STM32F4xx_StdPeriph_Driver/src/stm32f4xx_usart.c ****       (#) Peripheral's alternate function: 
  35:Drivers/STM32F4xx_StdPeriph_Driver/src/stm32f4xx_usart.c ****         (++) Connect the pin to the desired peripherals' Alternate 
  36:Drivers/STM32F4xx_StdPeriph_Driver/src/stm32f4xx_usart.c ****             Function (AF) using GPIO_PinAFConfig() function
  37:Drivers/STM32F4xx_StdPeriph_Driver/src/stm32f4xx_usart.c ****         (++) Configure the desired pin in alternate function by:
  38:Drivers/STM32F4xx_StdPeriph_Driver/src/stm32f4xx_usart.c ****             GPIO_InitStruct->GPIO_Mode = GPIO_Mode_AF
  39:Drivers/STM32F4xx_StdPeriph_Driver/src/stm32f4xx_usart.c ****         (++) Select the type, pull-up/pull-down and output speed via 
  40:Drivers/STM32F4xx_StdPeriph_Driver/src/stm32f4xx_usart.c ****             GPIO_PuPd, GPIO_OType and GPIO_Speed members
  41:Drivers/STM32F4xx_StdPeriph_Driver/src/stm32f4xx_usart.c ****         (++) Call GPIO_Init() function
  42:Drivers/STM32F4xx_StdPeriph_Driver/src/stm32f4xx_usart.c ****           
  43:Drivers/STM32F4xx_StdPeriph_Driver/src/stm32f4xx_usart.c ****       (#) Program the Baud Rate, Word Length , Stop Bit, Parity, Hardware 
  44:Drivers/STM32F4xx_StdPeriph_Driver/src/stm32f4xx_usart.c ****           flow control and Mode(Receiver/Transmitter) using the USART_Init()
  45:Drivers/STM32F4xx_StdPeriph_Driver/src/stm32f4xx_usart.c ****           function.
  46:Drivers/STM32F4xx_StdPeriph_Driver/src/stm32f4xx_usart.c ****   
  47:Drivers/STM32F4xx_StdPeriph_Driver/src/stm32f4xx_usart.c ****       (#) For synchronous mode, enable the clock and program the polarity,
  48:Drivers/STM32F4xx_StdPeriph_Driver/src/stm32f4xx_usart.c ****           phase and last bit using the USART_ClockInit() function.
  49:Drivers/STM32F4xx_StdPeriph_Driver/src/stm32f4xx_usart.c ****   
  50:Drivers/STM32F4xx_StdPeriph_Driver/src/stm32f4xx_usart.c ****       (#) Enable the NVIC and the corresponding interrupt using the function 
  51:Drivers/STM32F4xx_StdPeriph_Driver/src/stm32f4xx_usart.c ****          USART_ITConfig() if you need to use interrupt mode. 
  52:Drivers/STM32F4xx_StdPeriph_Driver/src/stm32f4xx_usart.c ****   
  53:Drivers/STM32F4xx_StdPeriph_Driver/src/stm32f4xx_usart.c ****       (#) When using the DMA mode 
  54:Drivers/STM32F4xx_StdPeriph_Driver/src/stm32f4xx_usart.c ****         (++) Configure the DMA using DMA_Init() function
  55:Drivers/STM32F4xx_StdPeriph_Driver/src/stm32f4xx_usart.c ****         (++) Active the needed channel Request using USART_DMACmd() function
  56:Drivers/STM32F4xx_StdPeriph_Driver/src/stm32f4xx_usart.c ****    
  57:Drivers/STM32F4xx_StdPeriph_Driver/src/stm32f4xx_usart.c ****       (#) Enable the USART using the USART_Cmd() function.
  58:Drivers/STM32F4xx_StdPeriph_Driver/src/stm32f4xx_usart.c ****    
  59:Drivers/STM32F4xx_StdPeriph_Driver/src/stm32f4xx_usart.c ****       (#) Enable the DMA using the DMA_Cmd() function, when using DMA mode. 
  60:Drivers/STM32F4xx_StdPeriph_Driver/src/stm32f4xx_usart.c ****     
  61:Drivers/STM32F4xx_StdPeriph_Driver/src/stm32f4xx_usart.c ****       -@- Refer to Multi-Processor, LIN, half-duplex, Smartcard, IrDA sub-sections
  62:Drivers/STM32F4xx_StdPeriph_Driver/src/stm32f4xx_usart.c ****           for more details
  63:Drivers/STM32F4xx_StdPeriph_Driver/src/stm32f4xx_usart.c ****     
  64:Drivers/STM32F4xx_StdPeriph_Driver/src/stm32f4xx_usart.c ****     [..]        
  65:Drivers/STM32F4xx_StdPeriph_Driver/src/stm32f4xx_usart.c ****     In order to reach higher communication baudrates, it is possible to
  66:Drivers/STM32F4xx_StdPeriph_Driver/src/stm32f4xx_usart.c ****     enable the oversampling by 8 mode using the function USART_OverSampling8Cmd().
  67:Drivers/STM32F4xx_StdPeriph_Driver/src/stm32f4xx_usart.c ****     This function should be called after enabling the USART clock (RCC_APBxPeriphClockCmd())
  68:Drivers/STM32F4xx_StdPeriph_Driver/src/stm32f4xx_usart.c ****     and before calling the function USART_Init().
  69:Drivers/STM32F4xx_StdPeriph_Driver/src/stm32f4xx_usart.c ****             
  70:Drivers/STM32F4xx_StdPeriph_Driver/src/stm32f4xx_usart.c ****     @endverbatim        
  71:Drivers/STM32F4xx_StdPeriph_Driver/src/stm32f4xx_usart.c ****   ******************************************************************************
  72:Drivers/STM32F4xx_StdPeriph_Driver/src/stm32f4xx_usart.c ****   * @attention
  73:Drivers/STM32F4xx_StdPeriph_Driver/src/stm32f4xx_usart.c ****   *
  74:Drivers/STM32F4xx_StdPeriph_Driver/src/stm32f4xx_usart.c ****   * <h2><center>&copy; COPYRIGHT 2015 STMicroelectronics</center></h2>
  75:Drivers/STM32F4xx_StdPeriph_Driver/src/stm32f4xx_usart.c ****   *
  76:Drivers/STM32F4xx_StdPeriph_Driver/src/stm32f4xx_usart.c ****   * Licensed under MCD-ST Liberty SW License Agreement V2, (the "License");
  77:Drivers/STM32F4xx_StdPeriph_Driver/src/stm32f4xx_usart.c ****   * You may not use this file except in compliance with the License.
  78:Drivers/STM32F4xx_StdPeriph_Driver/src/stm32f4xx_usart.c ****   * You may obtain a copy of the License at:
  79:Drivers/STM32F4xx_StdPeriph_Driver/src/stm32f4xx_usart.c ****   *
  80:Drivers/STM32F4xx_StdPeriph_Driver/src/stm32f4xx_usart.c ****   *        http://www.st.com/software_license_agreement_liberty_v2
  81:Drivers/STM32F4xx_StdPeriph_Driver/src/stm32f4xx_usart.c ****   *
  82:Drivers/STM32F4xx_StdPeriph_Driver/src/stm32f4xx_usart.c ****   * Unless required by applicable law or agreed to in writing, software 
  83:Drivers/STM32F4xx_StdPeriph_Driver/src/stm32f4xx_usart.c ****   * distributed under the License is distributed on an "AS IS" BASIS, 
  84:Drivers/STM32F4xx_StdPeriph_Driver/src/stm32f4xx_usart.c ****   * WITHOUT WARRANTIES OR CONDITIONS OF ANY KIND, either express or implied.
  85:Drivers/STM32F4xx_StdPeriph_Driver/src/stm32f4xx_usart.c ****   * See the License for the specific language governing permissions and
  86:Drivers/STM32F4xx_StdPeriph_Driver/src/stm32f4xx_usart.c ****   * limitations under the License.
ARM GAS  /tmp/cc396ZZ5.s 			page 3


  87:Drivers/STM32F4xx_StdPeriph_Driver/src/stm32f4xx_usart.c ****   *
  88:Drivers/STM32F4xx_StdPeriph_Driver/src/stm32f4xx_usart.c ****   ******************************************************************************  
  89:Drivers/STM32F4xx_StdPeriph_Driver/src/stm32f4xx_usart.c ****   */ 
  90:Drivers/STM32F4xx_StdPeriph_Driver/src/stm32f4xx_usart.c **** 
  91:Drivers/STM32F4xx_StdPeriph_Driver/src/stm32f4xx_usart.c **** /* Includes ------------------------------------------------------------------*/
  92:Drivers/STM32F4xx_StdPeriph_Driver/src/stm32f4xx_usart.c **** #include "stm32f4xx_usart.h"
  93:Drivers/STM32F4xx_StdPeriph_Driver/src/stm32f4xx_usart.c **** #include "stm32f4xx_rcc.h"
  94:Drivers/STM32F4xx_StdPeriph_Driver/src/stm32f4xx_usart.c **** 
  95:Drivers/STM32F4xx_StdPeriph_Driver/src/stm32f4xx_usart.c **** /** @addtogroup STM32F4xx_StdPeriph_Driver
  96:Drivers/STM32F4xx_StdPeriph_Driver/src/stm32f4xx_usart.c ****   * @{
  97:Drivers/STM32F4xx_StdPeriph_Driver/src/stm32f4xx_usart.c ****   */
  98:Drivers/STM32F4xx_StdPeriph_Driver/src/stm32f4xx_usart.c **** 
  99:Drivers/STM32F4xx_StdPeriph_Driver/src/stm32f4xx_usart.c **** /** @defgroup USART 
 100:Drivers/STM32F4xx_StdPeriph_Driver/src/stm32f4xx_usart.c ****   * @brief USART driver modules
 101:Drivers/STM32F4xx_StdPeriph_Driver/src/stm32f4xx_usart.c ****   * @{
 102:Drivers/STM32F4xx_StdPeriph_Driver/src/stm32f4xx_usart.c ****   */
 103:Drivers/STM32F4xx_StdPeriph_Driver/src/stm32f4xx_usart.c **** 
 104:Drivers/STM32F4xx_StdPeriph_Driver/src/stm32f4xx_usart.c **** /* Private typedef -----------------------------------------------------------*/
 105:Drivers/STM32F4xx_StdPeriph_Driver/src/stm32f4xx_usart.c **** /* Private define ------------------------------------------------------------*/
 106:Drivers/STM32F4xx_StdPeriph_Driver/src/stm32f4xx_usart.c **** 
 107:Drivers/STM32F4xx_StdPeriph_Driver/src/stm32f4xx_usart.c **** /*!< USART CR1 register clear Mask ((~(uint16_t)0xE9F3)) */
 108:Drivers/STM32F4xx_StdPeriph_Driver/src/stm32f4xx_usart.c **** #define CR1_CLEAR_MASK            ((uint16_t)(USART_CR1_M | USART_CR1_PCE | \
 109:Drivers/STM32F4xx_StdPeriph_Driver/src/stm32f4xx_usart.c ****                                               USART_CR1_PS | USART_CR1_TE | \
 110:Drivers/STM32F4xx_StdPeriph_Driver/src/stm32f4xx_usart.c ****                                               USART_CR1_RE))
 111:Drivers/STM32F4xx_StdPeriph_Driver/src/stm32f4xx_usart.c **** 
 112:Drivers/STM32F4xx_StdPeriph_Driver/src/stm32f4xx_usart.c **** /*!< USART CR2 register clock bits clear Mask ((~(uint16_t)0xF0FF)) */
 113:Drivers/STM32F4xx_StdPeriph_Driver/src/stm32f4xx_usart.c **** #define CR2_CLOCK_CLEAR_MASK      ((uint16_t)(USART_CR2_CLKEN | USART_CR2_CPOL | \
 114:Drivers/STM32F4xx_StdPeriph_Driver/src/stm32f4xx_usart.c ****                                               USART_CR2_CPHA | USART_CR2_LBCL))
 115:Drivers/STM32F4xx_StdPeriph_Driver/src/stm32f4xx_usart.c **** 
 116:Drivers/STM32F4xx_StdPeriph_Driver/src/stm32f4xx_usart.c **** /*!< USART CR3 register clear Mask ((~(uint16_t)0xFCFF)) */
 117:Drivers/STM32F4xx_StdPeriph_Driver/src/stm32f4xx_usart.c **** #define CR3_CLEAR_MASK            ((uint16_t)(USART_CR3_RTSE | USART_CR3_CTSE))
 118:Drivers/STM32F4xx_StdPeriph_Driver/src/stm32f4xx_usart.c **** 
 119:Drivers/STM32F4xx_StdPeriph_Driver/src/stm32f4xx_usart.c **** /*!< USART Interrupts mask */
 120:Drivers/STM32F4xx_StdPeriph_Driver/src/stm32f4xx_usart.c **** #define IT_MASK                   ((uint16_t)0x001F)
 121:Drivers/STM32F4xx_StdPeriph_Driver/src/stm32f4xx_usart.c **** 
 122:Drivers/STM32F4xx_StdPeriph_Driver/src/stm32f4xx_usart.c **** /* Private macro -------------------------------------------------------------*/
 123:Drivers/STM32F4xx_StdPeriph_Driver/src/stm32f4xx_usart.c **** /* Private variables ---------------------------------------------------------*/
 124:Drivers/STM32F4xx_StdPeriph_Driver/src/stm32f4xx_usart.c **** /* Private function prototypes -----------------------------------------------*/
 125:Drivers/STM32F4xx_StdPeriph_Driver/src/stm32f4xx_usart.c **** /* Private functions ---------------------------------------------------------*/
 126:Drivers/STM32F4xx_StdPeriph_Driver/src/stm32f4xx_usart.c **** 
 127:Drivers/STM32F4xx_StdPeriph_Driver/src/stm32f4xx_usart.c **** /** @defgroup USART_Private_Functions
 128:Drivers/STM32F4xx_StdPeriph_Driver/src/stm32f4xx_usart.c ****   * @{
 129:Drivers/STM32F4xx_StdPeriph_Driver/src/stm32f4xx_usart.c ****   */
 130:Drivers/STM32F4xx_StdPeriph_Driver/src/stm32f4xx_usart.c **** 
 131:Drivers/STM32F4xx_StdPeriph_Driver/src/stm32f4xx_usart.c **** /** @defgroup USART_Group1 Initialization and Configuration functions
 132:Drivers/STM32F4xx_StdPeriph_Driver/src/stm32f4xx_usart.c ****  *  @brief   Initialization and Configuration functions 
 133:Drivers/STM32F4xx_StdPeriph_Driver/src/stm32f4xx_usart.c ****  *
 134:Drivers/STM32F4xx_StdPeriph_Driver/src/stm32f4xx_usart.c **** @verbatim   
 135:Drivers/STM32F4xx_StdPeriph_Driver/src/stm32f4xx_usart.c ****  ===============================================================================
 136:Drivers/STM32F4xx_StdPeriph_Driver/src/stm32f4xx_usart.c ****             ##### Initialization and Configuration functions #####
 137:Drivers/STM32F4xx_StdPeriph_Driver/src/stm32f4xx_usart.c ****  ===============================================================================  
 138:Drivers/STM32F4xx_StdPeriph_Driver/src/stm32f4xx_usart.c ****     [..]
 139:Drivers/STM32F4xx_StdPeriph_Driver/src/stm32f4xx_usart.c ****     This subsection provides a set of functions allowing to initialize the USART 
 140:Drivers/STM32F4xx_StdPeriph_Driver/src/stm32f4xx_usart.c ****     in asynchronous and in synchronous modes.
 141:Drivers/STM32F4xx_StdPeriph_Driver/src/stm32f4xx_usart.c ****       (+) For the asynchronous mode only these parameters can be configured: 
 142:Drivers/STM32F4xx_StdPeriph_Driver/src/stm32f4xx_usart.c ****         (++) Baud Rate
 143:Drivers/STM32F4xx_StdPeriph_Driver/src/stm32f4xx_usart.c ****         (++) Word Length 
ARM GAS  /tmp/cc396ZZ5.s 			page 4


 144:Drivers/STM32F4xx_StdPeriph_Driver/src/stm32f4xx_usart.c ****         (++) Stop Bit
 145:Drivers/STM32F4xx_StdPeriph_Driver/src/stm32f4xx_usart.c ****         (++) Parity: If the parity is enabled, then the MSB bit of the data written
 146:Drivers/STM32F4xx_StdPeriph_Driver/src/stm32f4xx_usart.c ****              in the data register is transmitted but is changed by the parity bit.
 147:Drivers/STM32F4xx_StdPeriph_Driver/src/stm32f4xx_usart.c ****              Depending on the frame length defined by the M bit (8-bits or 9-bits),
 148:Drivers/STM32F4xx_StdPeriph_Driver/src/stm32f4xx_usart.c ****              the possible USART frame formats are as listed in the following table:
 149:Drivers/STM32F4xx_StdPeriph_Driver/src/stm32f4xx_usart.c ****    +-------------------------------------------------------------+     
 150:Drivers/STM32F4xx_StdPeriph_Driver/src/stm32f4xx_usart.c ****    |   M bit |  PCE bit  |            USART frame                |
 151:Drivers/STM32F4xx_StdPeriph_Driver/src/stm32f4xx_usart.c ****    |---------------------|---------------------------------------|             
 152:Drivers/STM32F4xx_StdPeriph_Driver/src/stm32f4xx_usart.c ****    |    0    |    0      |    | SB | 8 bit data | STB |          |
 153:Drivers/STM32F4xx_StdPeriph_Driver/src/stm32f4xx_usart.c ****    |---------|-----------|---------------------------------------|  
 154:Drivers/STM32F4xx_StdPeriph_Driver/src/stm32f4xx_usart.c ****    |    0    |    1      |    | SB | 7 bit data | PB | STB |     |
 155:Drivers/STM32F4xx_StdPeriph_Driver/src/stm32f4xx_usart.c ****    |---------|-----------|---------------------------------------|  
 156:Drivers/STM32F4xx_StdPeriph_Driver/src/stm32f4xx_usart.c ****    |    1    |    0      |    | SB | 9 bit data | STB |          |
 157:Drivers/STM32F4xx_StdPeriph_Driver/src/stm32f4xx_usart.c ****    |---------|-----------|---------------------------------------|  
 158:Drivers/STM32F4xx_StdPeriph_Driver/src/stm32f4xx_usart.c ****    |    1    |    1      |    | SB | 8 bit data | PB | STB |     |
 159:Drivers/STM32F4xx_StdPeriph_Driver/src/stm32f4xx_usart.c ****    +-------------------------------------------------------------+            
 160:Drivers/STM32F4xx_StdPeriph_Driver/src/stm32f4xx_usart.c ****         (++) Hardware flow control
 161:Drivers/STM32F4xx_StdPeriph_Driver/src/stm32f4xx_usart.c ****         (++) Receiver/transmitter modes
 162:Drivers/STM32F4xx_StdPeriph_Driver/src/stm32f4xx_usart.c **** 
 163:Drivers/STM32F4xx_StdPeriph_Driver/src/stm32f4xx_usart.c ****     [..]
 164:Drivers/STM32F4xx_StdPeriph_Driver/src/stm32f4xx_usart.c ****     The USART_Init() function follows the USART  asynchronous configuration 
 165:Drivers/STM32F4xx_StdPeriph_Driver/src/stm32f4xx_usart.c ****     procedure (details for the procedure are available in reference manual (RM0090)).
 166:Drivers/STM32F4xx_StdPeriph_Driver/src/stm32f4xx_usart.c **** 
 167:Drivers/STM32F4xx_StdPeriph_Driver/src/stm32f4xx_usart.c ****      (+) For the synchronous mode in addition to the asynchronous mode parameters these 
 168:Drivers/STM32F4xx_StdPeriph_Driver/src/stm32f4xx_usart.c ****          parameters should be also configured:
 169:Drivers/STM32F4xx_StdPeriph_Driver/src/stm32f4xx_usart.c ****         (++) USART Clock Enabled
 170:Drivers/STM32F4xx_StdPeriph_Driver/src/stm32f4xx_usart.c ****         (++) USART polarity
 171:Drivers/STM32F4xx_StdPeriph_Driver/src/stm32f4xx_usart.c ****         (++) USART phase
 172:Drivers/STM32F4xx_StdPeriph_Driver/src/stm32f4xx_usart.c ****         (++) USART LastBit
 173:Drivers/STM32F4xx_StdPeriph_Driver/src/stm32f4xx_usart.c ****   
 174:Drivers/STM32F4xx_StdPeriph_Driver/src/stm32f4xx_usart.c ****     [..]
 175:Drivers/STM32F4xx_StdPeriph_Driver/src/stm32f4xx_usart.c ****     These parameters can be configured using the USART_ClockInit() function.
 176:Drivers/STM32F4xx_StdPeriph_Driver/src/stm32f4xx_usart.c **** 
 177:Drivers/STM32F4xx_StdPeriph_Driver/src/stm32f4xx_usart.c **** @endverbatim
 178:Drivers/STM32F4xx_StdPeriph_Driver/src/stm32f4xx_usart.c ****   * @{
 179:Drivers/STM32F4xx_StdPeriph_Driver/src/stm32f4xx_usart.c ****   */
 180:Drivers/STM32F4xx_StdPeriph_Driver/src/stm32f4xx_usart.c ****   
 181:Drivers/STM32F4xx_StdPeriph_Driver/src/stm32f4xx_usart.c **** /**
 182:Drivers/STM32F4xx_StdPeriph_Driver/src/stm32f4xx_usart.c ****   * @brief  Deinitializes the USARTx peripheral registers to their default reset values.
 183:Drivers/STM32F4xx_StdPeriph_Driver/src/stm32f4xx_usart.c ****   * @param  USARTx: where x can be 1, 2, 3, 4, 5, 6, 7 or 8 to select the USART or 
 184:Drivers/STM32F4xx_StdPeriph_Driver/src/stm32f4xx_usart.c ****   *         UART peripheral.
 185:Drivers/STM32F4xx_StdPeriph_Driver/src/stm32f4xx_usart.c ****   * @retval None
 186:Drivers/STM32F4xx_StdPeriph_Driver/src/stm32f4xx_usart.c ****   */
 187:Drivers/STM32F4xx_StdPeriph_Driver/src/stm32f4xx_usart.c **** void USART_DeInit(USART_TypeDef* USARTx)
 188:Drivers/STM32F4xx_StdPeriph_Driver/src/stm32f4xx_usart.c **** {
  30              		.loc 1 188 1 view -0
  31              		.cfi_startproc
  32              		@ args = 0, pretend = 0, frame = 0
  33              		@ frame_needed = 0, uses_anonymous_args = 0
  34              		.loc 1 188 1 is_stmt 0 view .LVU1
  35 0000 08B5     		push	{r3, lr}
  36              		.cfi_def_cfa_offset 8
  37              		.cfi_offset 3, -8
  38              		.cfi_offset 14, -4
 189:Drivers/STM32F4xx_StdPeriph_Driver/src/stm32f4xx_usart.c ****   /* Check the parameters */
 190:Drivers/STM32F4xx_StdPeriph_Driver/src/stm32f4xx_usart.c ****   assert_param(IS_USART_ALL_PERIPH(USARTx));
  39              		.loc 1 190 3 is_stmt 1 view .LVU2
ARM GAS  /tmp/cc396ZZ5.s 			page 5


 191:Drivers/STM32F4xx_StdPeriph_Driver/src/stm32f4xx_usart.c **** 
 192:Drivers/STM32F4xx_StdPeriph_Driver/src/stm32f4xx_usart.c ****   if (USARTx == USART1)
  40              		.loc 1 192 3 view .LVU3
  41              		.loc 1 192 6 is_stmt 0 view .LVU4
  42 0002 364B     		ldr	r3, .L19
  43 0004 9842     		cmp	r0, r3
  44 0006 15D0     		beq	.L11
 193:Drivers/STM32F4xx_StdPeriph_Driver/src/stm32f4xx_usart.c ****   {
 194:Drivers/STM32F4xx_StdPeriph_Driver/src/stm32f4xx_usart.c ****     RCC_APB2PeriphResetCmd(RCC_APB2Periph_USART1, ENABLE);
 195:Drivers/STM32F4xx_StdPeriph_Driver/src/stm32f4xx_usart.c ****     RCC_APB2PeriphResetCmd(RCC_APB2Periph_USART1, DISABLE);
 196:Drivers/STM32F4xx_StdPeriph_Driver/src/stm32f4xx_usart.c ****   }
 197:Drivers/STM32F4xx_StdPeriph_Driver/src/stm32f4xx_usart.c ****   else if (USARTx == USART2)
  45              		.loc 1 197 8 is_stmt 1 view .LVU5
  46              		.loc 1 197 11 is_stmt 0 view .LVU6
  47 0008 354B     		ldr	r3, .L19+4
  48 000a 9842     		cmp	r0, r3
  49 000c 1BD0     		beq	.L12
 198:Drivers/STM32F4xx_StdPeriph_Driver/src/stm32f4xx_usart.c ****   {
 199:Drivers/STM32F4xx_StdPeriph_Driver/src/stm32f4xx_usart.c ****     RCC_APB1PeriphResetCmd(RCC_APB1Periph_USART2, ENABLE);
 200:Drivers/STM32F4xx_StdPeriph_Driver/src/stm32f4xx_usart.c ****     RCC_APB1PeriphResetCmd(RCC_APB1Periph_USART2, DISABLE);
 201:Drivers/STM32F4xx_StdPeriph_Driver/src/stm32f4xx_usart.c ****   }
 202:Drivers/STM32F4xx_StdPeriph_Driver/src/stm32f4xx_usart.c ****   else if (USARTx == USART3)
  50              		.loc 1 202 8 is_stmt 1 view .LVU7
  51              		.loc 1 202 11 is_stmt 0 view .LVU8
  52 000e 354B     		ldr	r3, .L19+8
  53 0010 9842     		cmp	r0, r3
  54 0012 23D0     		beq	.L13
 203:Drivers/STM32F4xx_StdPeriph_Driver/src/stm32f4xx_usart.c ****   {
 204:Drivers/STM32F4xx_StdPeriph_Driver/src/stm32f4xx_usart.c ****     RCC_APB1PeriphResetCmd(RCC_APB1Periph_USART3, ENABLE);
 205:Drivers/STM32F4xx_StdPeriph_Driver/src/stm32f4xx_usart.c ****     RCC_APB1PeriphResetCmd(RCC_APB1Periph_USART3, DISABLE);
 206:Drivers/STM32F4xx_StdPeriph_Driver/src/stm32f4xx_usart.c ****   }    
 207:Drivers/STM32F4xx_StdPeriph_Driver/src/stm32f4xx_usart.c ****   else if (USARTx == UART4)
  55              		.loc 1 207 8 is_stmt 1 view .LVU9
  56              		.loc 1 207 11 is_stmt 0 view .LVU10
  57 0014 344B     		ldr	r3, .L19+12
  58 0016 9842     		cmp	r0, r3
  59 0018 2BD0     		beq	.L14
 208:Drivers/STM32F4xx_StdPeriph_Driver/src/stm32f4xx_usart.c ****   {
 209:Drivers/STM32F4xx_StdPeriph_Driver/src/stm32f4xx_usart.c ****     RCC_APB1PeriphResetCmd(RCC_APB1Periph_UART4, ENABLE);
 210:Drivers/STM32F4xx_StdPeriph_Driver/src/stm32f4xx_usart.c ****     RCC_APB1PeriphResetCmd(RCC_APB1Periph_UART4, DISABLE);
 211:Drivers/STM32F4xx_StdPeriph_Driver/src/stm32f4xx_usart.c ****   }
 212:Drivers/STM32F4xx_StdPeriph_Driver/src/stm32f4xx_usart.c ****   else if (USARTx == UART5)
  60              		.loc 1 212 8 is_stmt 1 view .LVU11
  61              		.loc 1 212 11 is_stmt 0 view .LVU12
  62 001a 344B     		ldr	r3, .L19+16
  63 001c 9842     		cmp	r0, r3
  64 001e 33D0     		beq	.L15
 213:Drivers/STM32F4xx_StdPeriph_Driver/src/stm32f4xx_usart.c ****   {
 214:Drivers/STM32F4xx_StdPeriph_Driver/src/stm32f4xx_usart.c ****     RCC_APB1PeriphResetCmd(RCC_APB1Periph_UART5, ENABLE);
 215:Drivers/STM32F4xx_StdPeriph_Driver/src/stm32f4xx_usart.c ****     RCC_APB1PeriphResetCmd(RCC_APB1Periph_UART5, DISABLE);
 216:Drivers/STM32F4xx_StdPeriph_Driver/src/stm32f4xx_usart.c ****   }  
 217:Drivers/STM32F4xx_StdPeriph_Driver/src/stm32f4xx_usart.c ****   else if (USARTx == USART6)
  65              		.loc 1 217 8 is_stmt 1 view .LVU13
  66              		.loc 1 217 11 is_stmt 0 view .LVU14
  67 0020 334B     		ldr	r3, .L19+20
  68 0022 9842     		cmp	r0, r3
  69 0024 3BD0     		beq	.L16
ARM GAS  /tmp/cc396ZZ5.s 			page 6


 218:Drivers/STM32F4xx_StdPeriph_Driver/src/stm32f4xx_usart.c ****   {
 219:Drivers/STM32F4xx_StdPeriph_Driver/src/stm32f4xx_usart.c ****     RCC_APB2PeriphResetCmd(RCC_APB2Periph_USART6, ENABLE);
 220:Drivers/STM32F4xx_StdPeriph_Driver/src/stm32f4xx_usart.c ****     RCC_APB2PeriphResetCmd(RCC_APB2Periph_USART6, DISABLE);
 221:Drivers/STM32F4xx_StdPeriph_Driver/src/stm32f4xx_usart.c ****   }
 222:Drivers/STM32F4xx_StdPeriph_Driver/src/stm32f4xx_usart.c ****   else if (USARTx == UART7)
  70              		.loc 1 222 8 is_stmt 1 view .LVU15
  71              		.loc 1 222 11 is_stmt 0 view .LVU16
  72 0026 334B     		ldr	r3, .L19+24
  73 0028 9842     		cmp	r0, r3
  74 002a 41D0     		beq	.L17
 223:Drivers/STM32F4xx_StdPeriph_Driver/src/stm32f4xx_usart.c ****   {
 224:Drivers/STM32F4xx_StdPeriph_Driver/src/stm32f4xx_usart.c ****     RCC_APB1PeriphResetCmd(RCC_APB1Periph_UART7, ENABLE);
 225:Drivers/STM32F4xx_StdPeriph_Driver/src/stm32f4xx_usart.c ****     RCC_APB1PeriphResetCmd(RCC_APB1Periph_UART7, DISABLE);
 226:Drivers/STM32F4xx_StdPeriph_Driver/src/stm32f4xx_usart.c ****   }     
 227:Drivers/STM32F4xx_StdPeriph_Driver/src/stm32f4xx_usart.c ****   else
 228:Drivers/STM32F4xx_StdPeriph_Driver/src/stm32f4xx_usart.c ****   {
 229:Drivers/STM32F4xx_StdPeriph_Driver/src/stm32f4xx_usart.c ****     if (USARTx == UART8)
  75              		.loc 1 229 5 is_stmt 1 view .LVU17
  76              		.loc 1 229 8 is_stmt 0 view .LVU18
  77 002c 324B     		ldr	r3, .L19+28
  78 002e 9842     		cmp	r0, r3
  79 0030 49D0     		beq	.L18
  80              	.LVL1:
  81              	.L1:
 230:Drivers/STM32F4xx_StdPeriph_Driver/src/stm32f4xx_usart.c ****     { 
 231:Drivers/STM32F4xx_StdPeriph_Driver/src/stm32f4xx_usart.c ****       RCC_APB1PeriphResetCmd(RCC_APB1Periph_UART8, ENABLE);
 232:Drivers/STM32F4xx_StdPeriph_Driver/src/stm32f4xx_usart.c ****       RCC_APB1PeriphResetCmd(RCC_APB1Periph_UART8, DISABLE);
 233:Drivers/STM32F4xx_StdPeriph_Driver/src/stm32f4xx_usart.c ****     }
 234:Drivers/STM32F4xx_StdPeriph_Driver/src/stm32f4xx_usart.c ****   }
 235:Drivers/STM32F4xx_StdPeriph_Driver/src/stm32f4xx_usart.c **** }
  82              		.loc 1 235 1 view .LVU19
  83 0032 08BD     		pop	{r3, pc}
  84              	.LVL2:
  85              	.L11:
 194:Drivers/STM32F4xx_StdPeriph_Driver/src/stm32f4xx_usart.c ****     RCC_APB2PeriphResetCmd(RCC_APB2Periph_USART1, DISABLE);
  86              		.loc 1 194 5 is_stmt 1 view .LVU20
  87 0034 0121     		movs	r1, #1
  88 0036 1020     		movs	r0, #16
  89              	.LVL3:
 194:Drivers/STM32F4xx_StdPeriph_Driver/src/stm32f4xx_usart.c ****     RCC_APB2PeriphResetCmd(RCC_APB2Periph_USART1, DISABLE);
  90              		.loc 1 194 5 is_stmt 0 view .LVU21
  91 0038 FFF7FEFF 		bl	RCC_APB2PeriphResetCmd
  92              	.LVL4:
 195:Drivers/STM32F4xx_StdPeriph_Driver/src/stm32f4xx_usart.c ****   }
  93              		.loc 1 195 5 is_stmt 1 view .LVU22
  94 003c 0021     		movs	r1, #0
  95 003e 1020     		movs	r0, #16
  96 0040 FFF7FEFF 		bl	RCC_APB2PeriphResetCmd
  97              	.LVL5:
  98 0044 F5E7     		b	.L1
  99              	.LVL6:
 100              	.L12:
 199:Drivers/STM32F4xx_StdPeriph_Driver/src/stm32f4xx_usart.c ****     RCC_APB1PeriphResetCmd(RCC_APB1Periph_USART2, DISABLE);
 101              		.loc 1 199 5 view .LVU23
 102 0046 0121     		movs	r1, #1
 103 0048 4FF40030 		mov	r0, #131072
 104              	.LVL7:
ARM GAS  /tmp/cc396ZZ5.s 			page 7


 199:Drivers/STM32F4xx_StdPeriph_Driver/src/stm32f4xx_usart.c ****     RCC_APB1PeriphResetCmd(RCC_APB1Periph_USART2, DISABLE);
 105              		.loc 1 199 5 is_stmt 0 view .LVU24
 106 004c FFF7FEFF 		bl	RCC_APB1PeriphResetCmd
 107              	.LVL8:
 200:Drivers/STM32F4xx_StdPeriph_Driver/src/stm32f4xx_usart.c ****   }
 108              		.loc 1 200 5 is_stmt 1 view .LVU25
 109 0050 0021     		movs	r1, #0
 110 0052 4FF40030 		mov	r0, #131072
 111 0056 FFF7FEFF 		bl	RCC_APB1PeriphResetCmd
 112              	.LVL9:
 113 005a EAE7     		b	.L1
 114              	.LVL10:
 115              	.L13:
 204:Drivers/STM32F4xx_StdPeriph_Driver/src/stm32f4xx_usart.c ****     RCC_APB1PeriphResetCmd(RCC_APB1Periph_USART3, DISABLE);
 116              		.loc 1 204 5 view .LVU26
 117 005c 0121     		movs	r1, #1
 118 005e 4FF48020 		mov	r0, #262144
 119              	.LVL11:
 204:Drivers/STM32F4xx_StdPeriph_Driver/src/stm32f4xx_usart.c ****     RCC_APB1PeriphResetCmd(RCC_APB1Periph_USART3, DISABLE);
 120              		.loc 1 204 5 is_stmt 0 view .LVU27
 121 0062 FFF7FEFF 		bl	RCC_APB1PeriphResetCmd
 122              	.LVL12:
 205:Drivers/STM32F4xx_StdPeriph_Driver/src/stm32f4xx_usart.c ****   }    
 123              		.loc 1 205 5 is_stmt 1 view .LVU28
 124 0066 0021     		movs	r1, #0
 125 0068 4FF48020 		mov	r0, #262144
 126 006c FFF7FEFF 		bl	RCC_APB1PeriphResetCmd
 127              	.LVL13:
 128 0070 DFE7     		b	.L1
 129              	.LVL14:
 130              	.L14:
 209:Drivers/STM32F4xx_StdPeriph_Driver/src/stm32f4xx_usart.c ****     RCC_APB1PeriphResetCmd(RCC_APB1Periph_UART4, DISABLE);
 131              		.loc 1 209 5 view .LVU29
 132 0072 0121     		movs	r1, #1
 133 0074 4FF40020 		mov	r0, #524288
 134              	.LVL15:
 209:Drivers/STM32F4xx_StdPeriph_Driver/src/stm32f4xx_usart.c ****     RCC_APB1PeriphResetCmd(RCC_APB1Periph_UART4, DISABLE);
 135              		.loc 1 209 5 is_stmt 0 view .LVU30
 136 0078 FFF7FEFF 		bl	RCC_APB1PeriphResetCmd
 137              	.LVL16:
 210:Drivers/STM32F4xx_StdPeriph_Driver/src/stm32f4xx_usart.c ****   }
 138              		.loc 1 210 5 is_stmt 1 view .LVU31
 139 007c 0021     		movs	r1, #0
 140 007e 4FF40020 		mov	r0, #524288
 141 0082 FFF7FEFF 		bl	RCC_APB1PeriphResetCmd
 142              	.LVL17:
 143 0086 D4E7     		b	.L1
 144              	.LVL18:
 145              	.L15:
 214:Drivers/STM32F4xx_StdPeriph_Driver/src/stm32f4xx_usart.c ****     RCC_APB1PeriphResetCmd(RCC_APB1Periph_UART5, DISABLE);
 146              		.loc 1 214 5 view .LVU32
 147 0088 0121     		movs	r1, #1
 148 008a 4FF48010 		mov	r0, #1048576
 149              	.LVL19:
 214:Drivers/STM32F4xx_StdPeriph_Driver/src/stm32f4xx_usart.c ****     RCC_APB1PeriphResetCmd(RCC_APB1Periph_UART5, DISABLE);
 150              		.loc 1 214 5 is_stmt 0 view .LVU33
 151 008e FFF7FEFF 		bl	RCC_APB1PeriphResetCmd
ARM GAS  /tmp/cc396ZZ5.s 			page 8


 152              	.LVL20:
 215:Drivers/STM32F4xx_StdPeriph_Driver/src/stm32f4xx_usart.c ****   }  
 153              		.loc 1 215 5 is_stmt 1 view .LVU34
 154 0092 0021     		movs	r1, #0
 155 0094 4FF48010 		mov	r0, #1048576
 156 0098 FFF7FEFF 		bl	RCC_APB1PeriphResetCmd
 157              	.LVL21:
 158 009c C9E7     		b	.L1
 159              	.LVL22:
 160              	.L16:
 219:Drivers/STM32F4xx_StdPeriph_Driver/src/stm32f4xx_usart.c ****     RCC_APB2PeriphResetCmd(RCC_APB2Periph_USART6, DISABLE);
 161              		.loc 1 219 5 view .LVU35
 162 009e 0121     		movs	r1, #1
 163 00a0 2020     		movs	r0, #32
 164              	.LVL23:
 219:Drivers/STM32F4xx_StdPeriph_Driver/src/stm32f4xx_usart.c ****     RCC_APB2PeriphResetCmd(RCC_APB2Periph_USART6, DISABLE);
 165              		.loc 1 219 5 is_stmt 0 view .LVU36
 166 00a2 FFF7FEFF 		bl	RCC_APB2PeriphResetCmd
 167              	.LVL24:
 220:Drivers/STM32F4xx_StdPeriph_Driver/src/stm32f4xx_usart.c ****   }
 168              		.loc 1 220 5 is_stmt 1 view .LVU37
 169 00a6 0021     		movs	r1, #0
 170 00a8 2020     		movs	r0, #32
 171 00aa FFF7FEFF 		bl	RCC_APB2PeriphResetCmd
 172              	.LVL25:
 173 00ae C0E7     		b	.L1
 174              	.LVL26:
 175              	.L17:
 224:Drivers/STM32F4xx_StdPeriph_Driver/src/stm32f4xx_usart.c ****     RCC_APB1PeriphResetCmd(RCC_APB1Periph_UART7, DISABLE);
 176              		.loc 1 224 5 view .LVU38
 177 00b0 0121     		movs	r1, #1
 178 00b2 4FF08040 		mov	r0, #1073741824
 179              	.LVL27:
 224:Drivers/STM32F4xx_StdPeriph_Driver/src/stm32f4xx_usart.c ****     RCC_APB1PeriphResetCmd(RCC_APB1Periph_UART7, DISABLE);
 180              		.loc 1 224 5 is_stmt 0 view .LVU39
 181 00b6 FFF7FEFF 		bl	RCC_APB1PeriphResetCmd
 182              	.LVL28:
 225:Drivers/STM32F4xx_StdPeriph_Driver/src/stm32f4xx_usart.c ****   }     
 183              		.loc 1 225 5 is_stmt 1 view .LVU40
 184 00ba 0021     		movs	r1, #0
 185 00bc 4FF08040 		mov	r0, #1073741824
 186 00c0 FFF7FEFF 		bl	RCC_APB1PeriphResetCmd
 187              	.LVL29:
 188 00c4 B5E7     		b	.L1
 189              	.LVL30:
 190              	.L18:
 231:Drivers/STM32F4xx_StdPeriph_Driver/src/stm32f4xx_usart.c ****       RCC_APB1PeriphResetCmd(RCC_APB1Periph_UART8, DISABLE);
 191              		.loc 1 231 7 view .LVU41
 192 00c6 0121     		movs	r1, #1
 193 00c8 4FF00040 		mov	r0, #-2147483648
 194              	.LVL31:
 231:Drivers/STM32F4xx_StdPeriph_Driver/src/stm32f4xx_usart.c ****       RCC_APB1PeriphResetCmd(RCC_APB1Periph_UART8, DISABLE);
 195              		.loc 1 231 7 is_stmt 0 view .LVU42
 196 00cc FFF7FEFF 		bl	RCC_APB1PeriphResetCmd
 197              	.LVL32:
 232:Drivers/STM32F4xx_StdPeriph_Driver/src/stm32f4xx_usart.c ****     }
 198              		.loc 1 232 7 is_stmt 1 view .LVU43
ARM GAS  /tmp/cc396ZZ5.s 			page 9


 199 00d0 0021     		movs	r1, #0
 200 00d2 4FF00040 		mov	r0, #-2147483648
 201 00d6 FFF7FEFF 		bl	RCC_APB1PeriphResetCmd
 202              	.LVL33:
 203              		.loc 1 235 1 is_stmt 0 view .LVU44
 204 00da AAE7     		b	.L1
 205              	.L20:
 206              		.align	2
 207              	.L19:
 208 00dc 00100140 		.word	1073811456
 209 00e0 00440040 		.word	1073759232
 210 00e4 00480040 		.word	1073760256
 211 00e8 004C0040 		.word	1073761280
 212 00ec 00500040 		.word	1073762304
 213 00f0 00140140 		.word	1073812480
 214 00f4 00780040 		.word	1073772544
 215 00f8 007C0040 		.word	1073773568
 216              		.cfi_endproc
 217              	.LFE123:
 219              		.section	.text.USART_Init,"ax",%progbits
 220              		.align	1
 221              		.global	USART_Init
 222              		.syntax unified
 223              		.thumb
 224              		.thumb_func
 225              		.fpu fpv4-sp-d16
 227              	USART_Init:
 228              	.LVL34:
 229              	.LFB124:
 236:Drivers/STM32F4xx_StdPeriph_Driver/src/stm32f4xx_usart.c **** 
 237:Drivers/STM32F4xx_StdPeriph_Driver/src/stm32f4xx_usart.c **** /**
 238:Drivers/STM32F4xx_StdPeriph_Driver/src/stm32f4xx_usart.c ****   * @brief  Initializes the USARTx peripheral according to the specified
 239:Drivers/STM32F4xx_StdPeriph_Driver/src/stm32f4xx_usart.c ****   *         parameters in the USART_InitStruct .
 240:Drivers/STM32F4xx_StdPeriph_Driver/src/stm32f4xx_usart.c ****   * @param  USARTx: where x can be 1, 2, 3, 4, 5, 6, 7 or 8 to select the USART or 
 241:Drivers/STM32F4xx_StdPeriph_Driver/src/stm32f4xx_usart.c ****   *         UART peripheral.
 242:Drivers/STM32F4xx_StdPeriph_Driver/src/stm32f4xx_usart.c ****   * @param  USART_InitStruct: pointer to a USART_InitTypeDef structure that contains
 243:Drivers/STM32F4xx_StdPeriph_Driver/src/stm32f4xx_usart.c ****   *         the configuration information for the specified USART peripheral.
 244:Drivers/STM32F4xx_StdPeriph_Driver/src/stm32f4xx_usart.c ****   * @retval None
 245:Drivers/STM32F4xx_StdPeriph_Driver/src/stm32f4xx_usart.c ****   */
 246:Drivers/STM32F4xx_StdPeriph_Driver/src/stm32f4xx_usart.c **** void USART_Init(USART_TypeDef* USARTx, USART_InitTypeDef* USART_InitStruct)
 247:Drivers/STM32F4xx_StdPeriph_Driver/src/stm32f4xx_usart.c **** {
 230              		.loc 1 247 1 is_stmt 1 view -0
 231              		.cfi_startproc
 232              		@ args = 0, pretend = 0, frame = 16
 233              		@ frame_needed = 0, uses_anonymous_args = 0
 234              		.loc 1 247 1 is_stmt 0 view .LVU46
 235 0000 30B5     		push	{r4, r5, lr}
 236              		.cfi_def_cfa_offset 12
 237              		.cfi_offset 4, -12
 238              		.cfi_offset 5, -8
 239              		.cfi_offset 14, -4
 240 0002 85B0     		sub	sp, sp, #20
 241              		.cfi_def_cfa_offset 32
 242 0004 0446     		mov	r4, r0
 243 0006 0D46     		mov	r5, r1
 248:Drivers/STM32F4xx_StdPeriph_Driver/src/stm32f4xx_usart.c ****   uint32_t tmpreg = 0x00, apbclock = 0x00;
 244              		.loc 1 248 3 is_stmt 1 view .LVU47
ARM GAS  /tmp/cc396ZZ5.s 			page 10


 245              	.LVL35:
 249:Drivers/STM32F4xx_StdPeriph_Driver/src/stm32f4xx_usart.c ****   uint32_t integerdivider = 0x00;
 246              		.loc 1 249 3 view .LVU48
 250:Drivers/STM32F4xx_StdPeriph_Driver/src/stm32f4xx_usart.c ****   uint32_t fractionaldivider = 0x00;
 247              		.loc 1 250 3 view .LVU49
 251:Drivers/STM32F4xx_StdPeriph_Driver/src/stm32f4xx_usart.c ****   RCC_ClocksTypeDef RCC_ClocksStatus;
 248              		.loc 1 251 3 view .LVU50
 252:Drivers/STM32F4xx_StdPeriph_Driver/src/stm32f4xx_usart.c **** 
 253:Drivers/STM32F4xx_StdPeriph_Driver/src/stm32f4xx_usart.c ****   /* Check the parameters */
 254:Drivers/STM32F4xx_StdPeriph_Driver/src/stm32f4xx_usart.c ****   assert_param(IS_USART_ALL_PERIPH(USARTx));
 249              		.loc 1 254 3 view .LVU51
 255:Drivers/STM32F4xx_StdPeriph_Driver/src/stm32f4xx_usart.c ****   assert_param(IS_USART_BAUDRATE(USART_InitStruct->USART_BaudRate));  
 250              		.loc 1 255 3 view .LVU52
 256:Drivers/STM32F4xx_StdPeriph_Driver/src/stm32f4xx_usart.c ****   assert_param(IS_USART_WORD_LENGTH(USART_InitStruct->USART_WordLength));
 251              		.loc 1 256 3 view .LVU53
 257:Drivers/STM32F4xx_StdPeriph_Driver/src/stm32f4xx_usart.c ****   assert_param(IS_USART_STOPBITS(USART_InitStruct->USART_StopBits));
 252              		.loc 1 257 3 view .LVU54
 258:Drivers/STM32F4xx_StdPeriph_Driver/src/stm32f4xx_usart.c ****   assert_param(IS_USART_PARITY(USART_InitStruct->USART_Parity));
 253              		.loc 1 258 3 view .LVU55
 259:Drivers/STM32F4xx_StdPeriph_Driver/src/stm32f4xx_usart.c ****   assert_param(IS_USART_MODE(USART_InitStruct->USART_Mode));
 254              		.loc 1 259 3 view .LVU56
 260:Drivers/STM32F4xx_StdPeriph_Driver/src/stm32f4xx_usart.c ****   assert_param(IS_USART_HARDWARE_FLOW_CONTROL(USART_InitStruct->USART_HardwareFlowControl));
 255              		.loc 1 260 3 view .LVU57
 261:Drivers/STM32F4xx_StdPeriph_Driver/src/stm32f4xx_usart.c **** 
 262:Drivers/STM32F4xx_StdPeriph_Driver/src/stm32f4xx_usart.c ****   /* The hardware flow control is available only for USART1, USART2, USART3 and USART6 */
 263:Drivers/STM32F4xx_StdPeriph_Driver/src/stm32f4xx_usart.c ****   if (USART_InitStruct->USART_HardwareFlowControl != USART_HardwareFlowControl_None)
 256              		.loc 1 263 3 view .LVU58
 264:Drivers/STM32F4xx_StdPeriph_Driver/src/stm32f4xx_usart.c ****   {
 265:Drivers/STM32F4xx_StdPeriph_Driver/src/stm32f4xx_usart.c ****     assert_param(IS_USART_1236_PERIPH(USARTx));
 257              		.loc 1 265 5 view .LVU59
 266:Drivers/STM32F4xx_StdPeriph_Driver/src/stm32f4xx_usart.c ****   }
 267:Drivers/STM32F4xx_StdPeriph_Driver/src/stm32f4xx_usart.c **** 
 268:Drivers/STM32F4xx_StdPeriph_Driver/src/stm32f4xx_usart.c **** /*---------------------------- USART CR2 Configuration -----------------------*/
 269:Drivers/STM32F4xx_StdPeriph_Driver/src/stm32f4xx_usart.c ****   tmpreg = USARTx->CR2;
 258              		.loc 1 269 3 view .LVU60
 259              		.loc 1 269 18 is_stmt 0 view .LVU61
 260 0008 038A     		ldrh	r3, [r0, #16]
 261 000a 9BB2     		uxth	r3, r3
 262              	.LVL36:
 270:Drivers/STM32F4xx_StdPeriph_Driver/src/stm32f4xx_usart.c **** 
 271:Drivers/STM32F4xx_StdPeriph_Driver/src/stm32f4xx_usart.c ****   /* Clear STOP[13:12] bits */
 272:Drivers/STM32F4xx_StdPeriph_Driver/src/stm32f4xx_usart.c ****   tmpreg &= (uint32_t)~((uint32_t)USART_CR2_STOP);
 263              		.loc 1 272 3 is_stmt 1 view .LVU62
 264              		.loc 1 272 10 is_stmt 0 view .LVU63
 265 000c 23F44053 		bic	r3, r3, #12288
 266              	.LVL37:
 273:Drivers/STM32F4xx_StdPeriph_Driver/src/stm32f4xx_usart.c **** 
 274:Drivers/STM32F4xx_StdPeriph_Driver/src/stm32f4xx_usart.c ****   /* Configure the USART Stop Bits, Clock, CPOL, CPHA and LastBit :
 275:Drivers/STM32F4xx_StdPeriph_Driver/src/stm32f4xx_usart.c ****       Set STOP[13:12] bits according to USART_StopBits value */
 276:Drivers/STM32F4xx_StdPeriph_Driver/src/stm32f4xx_usart.c ****   tmpreg |= (uint32_t)USART_InitStruct->USART_StopBits;
 267              		.loc 1 276 3 is_stmt 1 view .LVU64
 268              		.loc 1 276 39 is_stmt 0 view .LVU65
 269 0010 CA88     		ldrh	r2, [r1, #6]
 270              	.LVL38:
 277:Drivers/STM32F4xx_StdPeriph_Driver/src/stm32f4xx_usart.c ****   
 278:Drivers/STM32F4xx_StdPeriph_Driver/src/stm32f4xx_usart.c ****   /* Write to USART CR2 */
 279:Drivers/STM32F4xx_StdPeriph_Driver/src/stm32f4xx_usart.c ****   USARTx->CR2 = (uint16_t)tmpreg;
ARM GAS  /tmp/cc396ZZ5.s 			page 11


 271              		.loc 1 279 3 is_stmt 1 view .LVU66
 272              		.loc 1 279 17 is_stmt 0 view .LVU67
 273 0012 1343     		orrs	r3, r3, r2
 274              	.LVL39:
 275              		.loc 1 279 15 view .LVU68
 276 0014 0382     		strh	r3, [r0, #16]	@ movhi
 280:Drivers/STM32F4xx_StdPeriph_Driver/src/stm32f4xx_usart.c **** 
 281:Drivers/STM32F4xx_StdPeriph_Driver/src/stm32f4xx_usart.c **** /*---------------------------- USART CR1 Configuration -----------------------*/
 282:Drivers/STM32F4xx_StdPeriph_Driver/src/stm32f4xx_usart.c ****   tmpreg = USARTx->CR1;
 277              		.loc 1 282 3 is_stmt 1 view .LVU69
 278              		.loc 1 282 18 is_stmt 0 view .LVU70
 279 0016 8389     		ldrh	r3, [r0, #12]
 280              	.LVL40:
 281              		.loc 1 282 18 view .LVU71
 282 0018 9BB2     		uxth	r3, r3
 283              	.LVL41:
 283:Drivers/STM32F4xx_StdPeriph_Driver/src/stm32f4xx_usart.c **** 
 284:Drivers/STM32F4xx_StdPeriph_Driver/src/stm32f4xx_usart.c ****   /* Clear M, PCE, PS, TE and RE bits */
 285:Drivers/STM32F4xx_StdPeriph_Driver/src/stm32f4xx_usart.c ****   tmpreg &= (uint32_t)~((uint32_t)CR1_CLEAR_MASK);
 284              		.loc 1 285 3 is_stmt 1 view .LVU72
 285              		.loc 1 285 10 is_stmt 0 view .LVU73
 286 001a 23F4B053 		bic	r3, r3, #5632
 287              	.LVL42:
 288              		.loc 1 285 10 view .LVU74
 289 001e 23F00C03 		bic	r3, r3, #12
 290              	.LVL43:
 286:Drivers/STM32F4xx_StdPeriph_Driver/src/stm32f4xx_usart.c **** 
 287:Drivers/STM32F4xx_StdPeriph_Driver/src/stm32f4xx_usart.c ****   /* Configure the USART Word Length, Parity and mode: 
 288:Drivers/STM32F4xx_StdPeriph_Driver/src/stm32f4xx_usart.c ****      Set the M bits according to USART_WordLength value 
 289:Drivers/STM32F4xx_StdPeriph_Driver/src/stm32f4xx_usart.c ****      Set PCE and PS bits according to USART_Parity value
 290:Drivers/STM32F4xx_StdPeriph_Driver/src/stm32f4xx_usart.c ****      Set TE and RE bits according to USART_Mode value */
 291:Drivers/STM32F4xx_StdPeriph_Driver/src/stm32f4xx_usart.c ****   tmpreg |= (uint32_t)USART_InitStruct->USART_WordLength | USART_InitStruct->USART_Parity |
 291              		.loc 1 291 3 is_stmt 1 view .LVU75
 292              		.loc 1 291 39 is_stmt 0 view .LVU76
 293 0022 8988     		ldrh	r1, [r1, #4]
 294              	.LVL44:
 295              		.loc 1 291 76 view .LVU77
 296 0024 2889     		ldrh	r0, [r5, #8]
 297              	.LVL45:
 292:Drivers/STM32F4xx_StdPeriph_Driver/src/stm32f4xx_usart.c ****             USART_InitStruct->USART_Mode;
 298              		.loc 1 292 29 view .LVU78
 299 0026 6A89     		ldrh	r2, [r5, #10]
 291:Drivers/STM32F4xx_StdPeriph_Driver/src/stm32f4xx_usart.c ****             USART_InitStruct->USART_Mode;
 300              		.loc 1 291 91 view .LVU79
 301 0028 0143     		orrs	r1, r1, r0
 302 002a 0A43     		orrs	r2, r2, r1
 303              	.LVL46:
 293:Drivers/STM32F4xx_StdPeriph_Driver/src/stm32f4xx_usart.c **** 
 294:Drivers/STM32F4xx_StdPeriph_Driver/src/stm32f4xx_usart.c ****   /* Write to USART CR1 */
 295:Drivers/STM32F4xx_StdPeriph_Driver/src/stm32f4xx_usart.c ****   USARTx->CR1 = (uint16_t)tmpreg;
 304              		.loc 1 295 3 is_stmt 1 view .LVU80
 305              		.loc 1 295 17 is_stmt 0 view .LVU81
 306 002c 1343     		orrs	r3, r3, r2
 307              	.LVL47:
 308              		.loc 1 295 15 view .LVU82
 309 002e A381     		strh	r3, [r4, #12]	@ movhi
 296:Drivers/STM32F4xx_StdPeriph_Driver/src/stm32f4xx_usart.c **** 
ARM GAS  /tmp/cc396ZZ5.s 			page 12


 297:Drivers/STM32F4xx_StdPeriph_Driver/src/stm32f4xx_usart.c **** /*---------------------------- USART CR3 Configuration -----------------------*/  
 298:Drivers/STM32F4xx_StdPeriph_Driver/src/stm32f4xx_usart.c ****   tmpreg = USARTx->CR3;
 310              		.loc 1 298 3 is_stmt 1 view .LVU83
 311              		.loc 1 298 18 is_stmt 0 view .LVU84
 312 0030 A38A     		ldrh	r3, [r4, #20]
 313              	.LVL48:
 314              		.loc 1 298 18 view .LVU85
 315 0032 9BB2     		uxth	r3, r3
 316              	.LVL49:
 299:Drivers/STM32F4xx_StdPeriph_Driver/src/stm32f4xx_usart.c **** 
 300:Drivers/STM32F4xx_StdPeriph_Driver/src/stm32f4xx_usart.c ****   /* Clear CTSE and RTSE bits */
 301:Drivers/STM32F4xx_StdPeriph_Driver/src/stm32f4xx_usart.c ****   tmpreg &= (uint32_t)~((uint32_t)CR3_CLEAR_MASK);
 317              		.loc 1 301 3 is_stmt 1 view .LVU86
 318              		.loc 1 301 10 is_stmt 0 view .LVU87
 319 0034 23F44073 		bic	r3, r3, #768
 320              	.LVL50:
 302:Drivers/STM32F4xx_StdPeriph_Driver/src/stm32f4xx_usart.c **** 
 303:Drivers/STM32F4xx_StdPeriph_Driver/src/stm32f4xx_usart.c ****   /* Configure the USART HFC : 
 304:Drivers/STM32F4xx_StdPeriph_Driver/src/stm32f4xx_usart.c ****       Set CTSE and RTSE bits according to USART_HardwareFlowControl value */
 305:Drivers/STM32F4xx_StdPeriph_Driver/src/stm32f4xx_usart.c ****   tmpreg |= USART_InitStruct->USART_HardwareFlowControl;
 321              		.loc 1 305 3 is_stmt 1 view .LVU88
 322              		.loc 1 305 29 is_stmt 0 view .LVU89
 323 0038 AA89     		ldrh	r2, [r5, #12]
 324              	.LVL51:
 306:Drivers/STM32F4xx_StdPeriph_Driver/src/stm32f4xx_usart.c **** 
 307:Drivers/STM32F4xx_StdPeriph_Driver/src/stm32f4xx_usart.c ****   /* Write to USART CR3 */
 308:Drivers/STM32F4xx_StdPeriph_Driver/src/stm32f4xx_usart.c ****   USARTx->CR3 = (uint16_t)tmpreg;
 325              		.loc 1 308 3 is_stmt 1 view .LVU90
 326              		.loc 1 308 17 is_stmt 0 view .LVU91
 327 003a 1343     		orrs	r3, r3, r2
 328              	.LVL52:
 329              		.loc 1 308 15 view .LVU92
 330 003c A382     		strh	r3, [r4, #20]	@ movhi
 309:Drivers/STM32F4xx_StdPeriph_Driver/src/stm32f4xx_usart.c **** 
 310:Drivers/STM32F4xx_StdPeriph_Driver/src/stm32f4xx_usart.c **** /*---------------------------- USART BRR Configuration -----------------------*/
 311:Drivers/STM32F4xx_StdPeriph_Driver/src/stm32f4xx_usart.c ****   /* Configure the USART Baud Rate */
 312:Drivers/STM32F4xx_StdPeriph_Driver/src/stm32f4xx_usart.c ****   RCC_GetClocksFreq(&RCC_ClocksStatus);
 331              		.loc 1 312 3 is_stmt 1 view .LVU93
 332 003e 6846     		mov	r0, sp
 333 0040 FFF7FEFF 		bl	RCC_GetClocksFreq
 334              	.LVL53:
 313:Drivers/STM32F4xx_StdPeriph_Driver/src/stm32f4xx_usart.c **** 
 314:Drivers/STM32F4xx_StdPeriph_Driver/src/stm32f4xx_usart.c ****   if ((USARTx == USART1) || (USARTx == USART6))
 335              		.loc 1 314 3 view .LVU94
 336              		.loc 1 314 6 is_stmt 0 view .LVU95
 337 0044 1F4B     		ldr	r3, .L32
 338 0046 9C42     		cmp	r4, r3
 339 0048 05D0     		beq	.L22
 340              		.loc 1 314 26 discriminator 1 view .LVU96
 341 004a 03F58063 		add	r3, r3, #1024
 342 004e 9C42     		cmp	r4, r3
 343 0050 01D0     		beq	.L22
 315:Drivers/STM32F4xx_StdPeriph_Driver/src/stm32f4xx_usart.c ****   {
 316:Drivers/STM32F4xx_StdPeriph_Driver/src/stm32f4xx_usart.c ****     apbclock = RCC_ClocksStatus.PCLK2_Frequency;
 317:Drivers/STM32F4xx_StdPeriph_Driver/src/stm32f4xx_usart.c ****   }
 318:Drivers/STM32F4xx_StdPeriph_Driver/src/stm32f4xx_usart.c ****   else
 319:Drivers/STM32F4xx_StdPeriph_Driver/src/stm32f4xx_usart.c ****   {
ARM GAS  /tmp/cc396ZZ5.s 			page 13


 320:Drivers/STM32F4xx_StdPeriph_Driver/src/stm32f4xx_usart.c ****     apbclock = RCC_ClocksStatus.PCLK1_Frequency;
 344              		.loc 1 320 5 is_stmt 1 view .LVU97
 345              		.loc 1 320 14 is_stmt 0 view .LVU98
 346 0052 029B     		ldr	r3, [sp, #8]
 347              	.LVL54:
 348              		.loc 1 320 14 view .LVU99
 349 0054 00E0     		b	.L24
 350              	.LVL55:
 351              	.L22:
 316:Drivers/STM32F4xx_StdPeriph_Driver/src/stm32f4xx_usart.c ****   }
 352              		.loc 1 316 5 is_stmt 1 view .LVU100
 316:Drivers/STM32F4xx_StdPeriph_Driver/src/stm32f4xx_usart.c ****   }
 353              		.loc 1 316 14 is_stmt 0 view .LVU101
 354 0056 039B     		ldr	r3, [sp, #12]
 355              	.LVL56:
 356              	.L24:
 321:Drivers/STM32F4xx_StdPeriph_Driver/src/stm32f4xx_usart.c ****   }
 322:Drivers/STM32F4xx_StdPeriph_Driver/src/stm32f4xx_usart.c ****   
 323:Drivers/STM32F4xx_StdPeriph_Driver/src/stm32f4xx_usart.c ****   /* Determine the integer part */
 324:Drivers/STM32F4xx_StdPeriph_Driver/src/stm32f4xx_usart.c ****   if ((USARTx->CR1 & USART_CR1_OVER8) != 0)
 357              		.loc 1 324 3 is_stmt 1 view .LVU102
 358              		.loc 1 324 14 is_stmt 0 view .LVU103
 359 0058 A289     		ldrh	r2, [r4, #12]
 360              		.loc 1 324 6 view .LVU104
 361 005a 12F4004F 		tst	r2, #32768
 362 005e 1FD1     		bne	.L30
 325:Drivers/STM32F4xx_StdPeriph_Driver/src/stm32f4xx_usart.c ****   {
 326:Drivers/STM32F4xx_StdPeriph_Driver/src/stm32f4xx_usart.c ****     /* Integer part computing in case Oversampling mode is 8 Samples */
 327:Drivers/STM32F4xx_StdPeriph_Driver/src/stm32f4xx_usart.c ****     integerdivider = ((25 * apbclock) / (2 * (USART_InitStruct->USART_BaudRate)));    
 328:Drivers/STM32F4xx_StdPeriph_Driver/src/stm32f4xx_usart.c ****   }
 329:Drivers/STM32F4xx_StdPeriph_Driver/src/stm32f4xx_usart.c ****   else /* if ((USARTx->CR1 & USART_CR1_OVER8) == 0) */
 330:Drivers/STM32F4xx_StdPeriph_Driver/src/stm32f4xx_usart.c ****   {
 331:Drivers/STM32F4xx_StdPeriph_Driver/src/stm32f4xx_usart.c ****     /* Integer part computing in case Oversampling mode is 16 Samples */
 332:Drivers/STM32F4xx_StdPeriph_Driver/src/stm32f4xx_usart.c ****     integerdivider = ((25 * apbclock) / (4 * (USART_InitStruct->USART_BaudRate)));    
 363              		.loc 1 332 5 is_stmt 1 view .LVU105
 364              		.loc 1 332 27 is_stmt 0 view .LVU106
 365 0060 03EB8303 		add	r3, r3, r3, lsl #2
 366              	.LVL57:
 367              		.loc 1 332 27 view .LVU107
 368 0064 03EB8303 		add	r3, r3, r3, lsl #2
 369              		.loc 1 332 63 view .LVU108
 370 0068 2A68     		ldr	r2, [r5]
 371              		.loc 1 332 44 view .LVU109
 372 006a 9200     		lsls	r2, r2, #2
 373              		.loc 1 332 20 view .LVU110
 374 006c B3FBF2F3 		udiv	r3, r3, r2
 375              	.LVL58:
 376              	.L26:
 333:Drivers/STM32F4xx_StdPeriph_Driver/src/stm32f4xx_usart.c ****   }
 334:Drivers/STM32F4xx_StdPeriph_Driver/src/stm32f4xx_usart.c ****   tmpreg = (integerdivider / 100) << 4;
 377              		.loc 1 334 3 is_stmt 1 view .LVU111
 378              		.loc 1 334 28 is_stmt 0 view .LVU112
 379 0070 154A     		ldr	r2, .L32+4
 380 0072 A2FB0312 		umull	r1, r2, r2, r3
 381 0076 5209     		lsrs	r2, r2, #5
 382              		.loc 1 334 10 view .LVU113
 383 0078 1101     		lsls	r1, r2, #4
ARM GAS  /tmp/cc396ZZ5.s 			page 14


 384              	.LVL59:
 335:Drivers/STM32F4xx_StdPeriph_Driver/src/stm32f4xx_usart.c **** 
 336:Drivers/STM32F4xx_StdPeriph_Driver/src/stm32f4xx_usart.c ****   /* Determine the fractional part */
 337:Drivers/STM32F4xx_StdPeriph_Driver/src/stm32f4xx_usart.c ****   fractionaldivider = integerdivider - (100 * (tmpreg >> 4));
 385              		.loc 1 337 3 is_stmt 1 view .LVU114
 386              		.loc 1 337 21 is_stmt 0 view .LVU115
 387 007a 6420     		movs	r0, #100
 388 007c 02FB1033 		mls	r3, r2, r0, r3
 389              	.LVL60:
 338:Drivers/STM32F4xx_StdPeriph_Driver/src/stm32f4xx_usart.c **** 
 339:Drivers/STM32F4xx_StdPeriph_Driver/src/stm32f4xx_usart.c ****   /* Implement the fractional part in the register */
 340:Drivers/STM32F4xx_StdPeriph_Driver/src/stm32f4xx_usart.c ****   if ((USARTx->CR1 & USART_CR1_OVER8) != 0)
 390              		.loc 1 340 3 is_stmt 1 view .LVU116
 391              		.loc 1 340 14 is_stmt 0 view .LVU117
 392 0080 A289     		ldrh	r2, [r4, #12]
 393              		.loc 1 340 6 view .LVU118
 394 0082 12F4004F 		tst	r2, #32768
 395 0086 14D1     		bne	.L31
 341:Drivers/STM32F4xx_StdPeriph_Driver/src/stm32f4xx_usart.c ****   {
 342:Drivers/STM32F4xx_StdPeriph_Driver/src/stm32f4xx_usart.c ****     tmpreg |= ((((fractionaldivider * 8) + 50) / 100)) & ((uint8_t)0x07);
 343:Drivers/STM32F4xx_StdPeriph_Driver/src/stm32f4xx_usart.c ****   }
 344:Drivers/STM32F4xx_StdPeriph_Driver/src/stm32f4xx_usart.c ****   else /* if ((USARTx->CR1 & USART_CR1_OVER8) == 0) */
 345:Drivers/STM32F4xx_StdPeriph_Driver/src/stm32f4xx_usart.c ****   {
 346:Drivers/STM32F4xx_StdPeriph_Driver/src/stm32f4xx_usart.c ****     tmpreg |= ((((fractionaldivider * 16) + 50) / 100)) & ((uint8_t)0x0F);
 396              		.loc 1 346 5 is_stmt 1 view .LVU119
 397              		.loc 1 346 37 is_stmt 0 view .LVU120
 398 0088 1B01     		lsls	r3, r3, #4
 399              	.LVL61:
 400              		.loc 1 346 43 view .LVU121
 401 008a 3233     		adds	r3, r3, #50
 402              		.loc 1 346 49 view .LVU122
 403 008c 0E4A     		ldr	r2, .L32+4
 404 008e A2FB0323 		umull	r2, r3, r2, r3
 405              		.loc 1 346 57 view .LVU123
 406 0092 C3F34313 		ubfx	r3, r3, #5, #4
 407              		.loc 1 346 12 view .LVU124
 408 0096 0B43     		orrs	r3, r3, r1
 409              	.LVL62:
 410              	.L28:
 347:Drivers/STM32F4xx_StdPeriph_Driver/src/stm32f4xx_usart.c ****   }
 348:Drivers/STM32F4xx_StdPeriph_Driver/src/stm32f4xx_usart.c ****   
 349:Drivers/STM32F4xx_StdPeriph_Driver/src/stm32f4xx_usart.c ****   /* Write to USART BRR register */
 350:Drivers/STM32F4xx_StdPeriph_Driver/src/stm32f4xx_usart.c ****   USARTx->BRR = (uint16_t)tmpreg;
 411              		.loc 1 350 3 is_stmt 1 view .LVU125
 412              		.loc 1 350 17 is_stmt 0 view .LVU126
 413 0098 9BB2     		uxth	r3, r3
 414              	.LVL63:
 415              		.loc 1 350 15 view .LVU127
 416 009a 2381     		strh	r3, [r4, #8]	@ movhi
 351:Drivers/STM32F4xx_StdPeriph_Driver/src/stm32f4xx_usart.c **** }
 417              		.loc 1 351 1 view .LVU128
 418 009c 05B0     		add	sp, sp, #20
 419              		.cfi_remember_state
 420              		.cfi_def_cfa_offset 12
 421              		@ sp needed
 422 009e 30BD     		pop	{r4, r5, pc}
 423              	.LVL64:
ARM GAS  /tmp/cc396ZZ5.s 			page 15


 424              	.L30:
 425              		.cfi_restore_state
 327:Drivers/STM32F4xx_StdPeriph_Driver/src/stm32f4xx_usart.c ****   }
 426              		.loc 1 327 5 is_stmt 1 view .LVU129
 327:Drivers/STM32F4xx_StdPeriph_Driver/src/stm32f4xx_usart.c ****   }
 427              		.loc 1 327 27 is_stmt 0 view .LVU130
 428 00a0 03EB8303 		add	r3, r3, r3, lsl #2
 429              	.LVL65:
 327:Drivers/STM32F4xx_StdPeriph_Driver/src/stm32f4xx_usart.c ****   }
 430              		.loc 1 327 27 view .LVU131
 431 00a4 03EB8303 		add	r3, r3, r3, lsl #2
 327:Drivers/STM32F4xx_StdPeriph_Driver/src/stm32f4xx_usart.c ****   }
 432              		.loc 1 327 63 view .LVU132
 433 00a8 2A68     		ldr	r2, [r5]
 327:Drivers/STM32F4xx_StdPeriph_Driver/src/stm32f4xx_usart.c ****   }
 434              		.loc 1 327 44 view .LVU133
 435 00aa 5200     		lsls	r2, r2, #1
 327:Drivers/STM32F4xx_StdPeriph_Driver/src/stm32f4xx_usart.c ****   }
 436              		.loc 1 327 20 view .LVU134
 437 00ac B3FBF2F3 		udiv	r3, r3, r2
 438              	.LVL66:
 327:Drivers/STM32F4xx_StdPeriph_Driver/src/stm32f4xx_usart.c ****   }
 439              		.loc 1 327 20 view .LVU135
 440 00b0 DEE7     		b	.L26
 441              	.LVL67:
 442              	.L31:
 342:Drivers/STM32F4xx_StdPeriph_Driver/src/stm32f4xx_usart.c ****   }
 443              		.loc 1 342 5 is_stmt 1 view .LVU136
 342:Drivers/STM32F4xx_StdPeriph_Driver/src/stm32f4xx_usart.c ****   }
 444              		.loc 1 342 37 is_stmt 0 view .LVU137
 445 00b2 DB00     		lsls	r3, r3, #3
 446              	.LVL68:
 342:Drivers/STM32F4xx_StdPeriph_Driver/src/stm32f4xx_usart.c ****   }
 447              		.loc 1 342 42 view .LVU138
 448 00b4 3233     		adds	r3, r3, #50
 342:Drivers/STM32F4xx_StdPeriph_Driver/src/stm32f4xx_usart.c ****   }
 449              		.loc 1 342 48 view .LVU139
 450 00b6 044A     		ldr	r2, .L32+4
 451 00b8 A2FB0323 		umull	r2, r3, r2, r3
 342:Drivers/STM32F4xx_StdPeriph_Driver/src/stm32f4xx_usart.c ****   }
 452              		.loc 1 342 56 view .LVU140
 453 00bc C3F34213 		ubfx	r3, r3, #5, #3
 342:Drivers/STM32F4xx_StdPeriph_Driver/src/stm32f4xx_usart.c ****   }
 454              		.loc 1 342 12 view .LVU141
 455 00c0 0B43     		orrs	r3, r3, r1
 456              	.LVL69:
 342:Drivers/STM32F4xx_StdPeriph_Driver/src/stm32f4xx_usart.c ****   }
 457              		.loc 1 342 12 view .LVU142
 458 00c2 E9E7     		b	.L28
 459              	.L33:
 460              		.align	2
 461              	.L32:
 462 00c4 00100140 		.word	1073811456
 463 00c8 1F85EB51 		.word	1374389535
 464              		.cfi_endproc
 465              	.LFE124:
 467              		.section	.text.USART_StructInit,"ax",%progbits
ARM GAS  /tmp/cc396ZZ5.s 			page 16


 468              		.align	1
 469              		.global	USART_StructInit
 470              		.syntax unified
 471              		.thumb
 472              		.thumb_func
 473              		.fpu fpv4-sp-d16
 475              	USART_StructInit:
 476              	.LVL70:
 477              	.LFB125:
 352:Drivers/STM32F4xx_StdPeriph_Driver/src/stm32f4xx_usart.c **** 
 353:Drivers/STM32F4xx_StdPeriph_Driver/src/stm32f4xx_usart.c **** /**
 354:Drivers/STM32F4xx_StdPeriph_Driver/src/stm32f4xx_usart.c ****   * @brief  Fills each USART_InitStruct member with its default value.
 355:Drivers/STM32F4xx_StdPeriph_Driver/src/stm32f4xx_usart.c ****   * @param  USART_InitStruct: pointer to a USART_InitTypeDef structure which will
 356:Drivers/STM32F4xx_StdPeriph_Driver/src/stm32f4xx_usart.c ****   *         be initialized.
 357:Drivers/STM32F4xx_StdPeriph_Driver/src/stm32f4xx_usart.c ****   * @retval None
 358:Drivers/STM32F4xx_StdPeriph_Driver/src/stm32f4xx_usart.c ****   */
 359:Drivers/STM32F4xx_StdPeriph_Driver/src/stm32f4xx_usart.c **** void USART_StructInit(USART_InitTypeDef* USART_InitStruct)
 360:Drivers/STM32F4xx_StdPeriph_Driver/src/stm32f4xx_usart.c **** {
 478              		.loc 1 360 1 is_stmt 1 view -0
 479              		.cfi_startproc
 480              		@ args = 0, pretend = 0, frame = 0
 481              		@ frame_needed = 0, uses_anonymous_args = 0
 482              		@ link register save eliminated.
 361:Drivers/STM32F4xx_StdPeriph_Driver/src/stm32f4xx_usart.c ****   /* USART_InitStruct members default value */
 362:Drivers/STM32F4xx_StdPeriph_Driver/src/stm32f4xx_usart.c ****   USART_InitStruct->USART_BaudRate = 9600;
 483              		.loc 1 362 3 view .LVU144
 484              		.loc 1 362 36 is_stmt 0 view .LVU145
 485 0000 4FF41653 		mov	r3, #9600
 486 0004 0360     		str	r3, [r0]
 363:Drivers/STM32F4xx_StdPeriph_Driver/src/stm32f4xx_usart.c ****   USART_InitStruct->USART_WordLength = USART_WordLength_8b;
 487              		.loc 1 363 3 is_stmt 1 view .LVU146
 488              		.loc 1 363 38 is_stmt 0 view .LVU147
 489 0006 0023     		movs	r3, #0
 490 0008 8380     		strh	r3, [r0, #4]	@ movhi
 364:Drivers/STM32F4xx_StdPeriph_Driver/src/stm32f4xx_usart.c ****   USART_InitStruct->USART_StopBits = USART_StopBits_1;
 491              		.loc 1 364 3 is_stmt 1 view .LVU148
 492              		.loc 1 364 36 is_stmt 0 view .LVU149
 493 000a C380     		strh	r3, [r0, #6]	@ movhi
 365:Drivers/STM32F4xx_StdPeriph_Driver/src/stm32f4xx_usart.c ****   USART_InitStruct->USART_Parity = USART_Parity_No ;
 494              		.loc 1 365 3 is_stmt 1 view .LVU150
 495              		.loc 1 365 34 is_stmt 0 view .LVU151
 496 000c 0381     		strh	r3, [r0, #8]	@ movhi
 366:Drivers/STM32F4xx_StdPeriph_Driver/src/stm32f4xx_usart.c ****   USART_InitStruct->USART_Mode = USART_Mode_Rx | USART_Mode_Tx;
 497              		.loc 1 366 3 is_stmt 1 view .LVU152
 498              		.loc 1 366 32 is_stmt 0 view .LVU153
 499 000e 0C22     		movs	r2, #12
 500 0010 4281     		strh	r2, [r0, #10]	@ movhi
 367:Drivers/STM32F4xx_StdPeriph_Driver/src/stm32f4xx_usart.c ****   USART_InitStruct->USART_HardwareFlowControl = USART_HardwareFlowControl_None;  
 501              		.loc 1 367 3 is_stmt 1 view .LVU154
 502              		.loc 1 367 47 is_stmt 0 view .LVU155
 503 0012 8381     		strh	r3, [r0, #12]	@ movhi
 368:Drivers/STM32F4xx_StdPeriph_Driver/src/stm32f4xx_usart.c **** }
 504              		.loc 1 368 1 view .LVU156
 505 0014 7047     		bx	lr
 506              		.cfi_endproc
 507              	.LFE125:
 509              		.section	.text.USART_ClockInit,"ax",%progbits
ARM GAS  /tmp/cc396ZZ5.s 			page 17


 510              		.align	1
 511              		.global	USART_ClockInit
 512              		.syntax unified
 513              		.thumb
 514              		.thumb_func
 515              		.fpu fpv4-sp-d16
 517              	USART_ClockInit:
 518              	.LVL71:
 519              	.LFB126:
 369:Drivers/STM32F4xx_StdPeriph_Driver/src/stm32f4xx_usart.c **** 
 370:Drivers/STM32F4xx_StdPeriph_Driver/src/stm32f4xx_usart.c **** /**
 371:Drivers/STM32F4xx_StdPeriph_Driver/src/stm32f4xx_usart.c ****   * @brief  Initializes the USARTx peripheral Clock according to the 
 372:Drivers/STM32F4xx_StdPeriph_Driver/src/stm32f4xx_usart.c ****   *         specified parameters in the USART_ClockInitStruct .
 373:Drivers/STM32F4xx_StdPeriph_Driver/src/stm32f4xx_usart.c ****   * @param  USARTx: where x can be 1, 2, 3 or 6 to select the USART peripheral.
 374:Drivers/STM32F4xx_StdPeriph_Driver/src/stm32f4xx_usart.c ****   * @param  USART_ClockInitStruct: pointer to a USART_ClockInitTypeDef structure that
 375:Drivers/STM32F4xx_StdPeriph_Driver/src/stm32f4xx_usart.c ****   *         contains the configuration information for the specified  USART peripheral.
 376:Drivers/STM32F4xx_StdPeriph_Driver/src/stm32f4xx_usart.c ****   * @note   The Smart Card and Synchronous modes are not available for UART4 and UART5.    
 377:Drivers/STM32F4xx_StdPeriph_Driver/src/stm32f4xx_usart.c ****   * @retval None
 378:Drivers/STM32F4xx_StdPeriph_Driver/src/stm32f4xx_usart.c ****   */
 379:Drivers/STM32F4xx_StdPeriph_Driver/src/stm32f4xx_usart.c **** void USART_ClockInit(USART_TypeDef* USARTx, USART_ClockInitTypeDef* USART_ClockInitStruct)
 380:Drivers/STM32F4xx_StdPeriph_Driver/src/stm32f4xx_usart.c **** {
 520              		.loc 1 380 1 is_stmt 1 view -0
 521              		.cfi_startproc
 522              		@ args = 0, pretend = 0, frame = 0
 523              		@ frame_needed = 0, uses_anonymous_args = 0
 524              		.loc 1 380 1 is_stmt 0 view .LVU158
 525 0000 10B5     		push	{r4, lr}
 526              		.cfi_def_cfa_offset 8
 527              		.cfi_offset 4, -8
 528              		.cfi_offset 14, -4
 381:Drivers/STM32F4xx_StdPeriph_Driver/src/stm32f4xx_usart.c ****   uint32_t tmpreg = 0x00;
 529              		.loc 1 381 3 is_stmt 1 view .LVU159
 530              	.LVL72:
 382:Drivers/STM32F4xx_StdPeriph_Driver/src/stm32f4xx_usart.c ****   /* Check the parameters */
 383:Drivers/STM32F4xx_StdPeriph_Driver/src/stm32f4xx_usart.c ****   assert_param(IS_USART_1236_PERIPH(USARTx));
 531              		.loc 1 383 3 view .LVU160
 384:Drivers/STM32F4xx_StdPeriph_Driver/src/stm32f4xx_usart.c ****   assert_param(IS_USART_CLOCK(USART_ClockInitStruct->USART_Clock));
 532              		.loc 1 384 3 view .LVU161
 385:Drivers/STM32F4xx_StdPeriph_Driver/src/stm32f4xx_usart.c ****   assert_param(IS_USART_CPOL(USART_ClockInitStruct->USART_CPOL));
 533              		.loc 1 385 3 view .LVU162
 386:Drivers/STM32F4xx_StdPeriph_Driver/src/stm32f4xx_usart.c ****   assert_param(IS_USART_CPHA(USART_ClockInitStruct->USART_CPHA));
 534              		.loc 1 386 3 view .LVU163
 387:Drivers/STM32F4xx_StdPeriph_Driver/src/stm32f4xx_usart.c ****   assert_param(IS_USART_LASTBIT(USART_ClockInitStruct->USART_LastBit));
 535              		.loc 1 387 3 view .LVU164
 388:Drivers/STM32F4xx_StdPeriph_Driver/src/stm32f4xx_usart.c ****   
 389:Drivers/STM32F4xx_StdPeriph_Driver/src/stm32f4xx_usart.c **** /*---------------------------- USART CR2 Configuration -----------------------*/
 390:Drivers/STM32F4xx_StdPeriph_Driver/src/stm32f4xx_usart.c ****   tmpreg = USARTx->CR2;
 536              		.loc 1 390 3 view .LVU165
 537              		.loc 1 390 18 is_stmt 0 view .LVU166
 538 0002 038A     		ldrh	r3, [r0, #16]
 539 0004 9BB2     		uxth	r3, r3
 540              	.LVL73:
 391:Drivers/STM32F4xx_StdPeriph_Driver/src/stm32f4xx_usart.c ****   /* Clear CLKEN, CPOL, CPHA and LBCL bits */
 392:Drivers/STM32F4xx_StdPeriph_Driver/src/stm32f4xx_usart.c ****   tmpreg &= (uint32_t)~((uint32_t)CR2_CLOCK_CLEAR_MASK);
 541              		.loc 1 392 3 is_stmt 1 view .LVU167
 542              		.loc 1 392 10 is_stmt 0 view .LVU168
 543 0006 23F47062 		bic	r2, r3, #3840
ARM GAS  /tmp/cc396ZZ5.s 			page 18


 544              	.LVL74:
 393:Drivers/STM32F4xx_StdPeriph_Driver/src/stm32f4xx_usart.c ****   /* Configure the USART Clock, CPOL, CPHA and LastBit ------------*/
 394:Drivers/STM32F4xx_StdPeriph_Driver/src/stm32f4xx_usart.c ****   /* Set CLKEN bit according to USART_Clock value */
 395:Drivers/STM32F4xx_StdPeriph_Driver/src/stm32f4xx_usart.c ****   /* Set CPOL bit according to USART_CPOL value */
 396:Drivers/STM32F4xx_StdPeriph_Driver/src/stm32f4xx_usart.c ****   /* Set CPHA bit according to USART_CPHA value */
 397:Drivers/STM32F4xx_StdPeriph_Driver/src/stm32f4xx_usart.c ****   /* Set LBCL bit according to USART_LastBit value */
 398:Drivers/STM32F4xx_StdPeriph_Driver/src/stm32f4xx_usart.c ****   tmpreg |= (uint32_t)USART_ClockInitStruct->USART_Clock | USART_ClockInitStruct->USART_CPOL | 
 545              		.loc 1 398 3 is_stmt 1 view .LVU169
 546              		.loc 1 398 44 is_stmt 0 view .LVU170
 547 000a B1F800E0 		ldrh	lr, [r1]
 548              		.loc 1 398 81 view .LVU171
 549 000e 4C88     		ldrh	r4, [r1, #2]
 399:Drivers/STM32F4xx_StdPeriph_Driver/src/stm32f4xx_usart.c ****                  USART_ClockInitStruct->USART_CPHA | USART_ClockInitStruct->USART_LastBit;
 550              		.loc 1 399 39 view .LVU172
 551 0010 B1F804C0 		ldrh	ip, [r1, #4]
 552              		.loc 1 399 75 view .LVU173
 553 0014 CB88     		ldrh	r3, [r1, #6]
 554              		.loc 1 399 52 view .LVU174
 555 0016 4EEA0401 		orr	r1, lr, r4
 556              	.LVL75:
 557              		.loc 1 399 52 view .LVU175
 558 001a 4CEA0101 		orr	r1, ip, r1
 559 001e 0B43     		orrs	r3, r3, r1
 560              	.LVL76:
 400:Drivers/STM32F4xx_StdPeriph_Driver/src/stm32f4xx_usart.c ****   /* Write to USART CR2 */
 401:Drivers/STM32F4xx_StdPeriph_Driver/src/stm32f4xx_usart.c ****   USARTx->CR2 = (uint16_t)tmpreg;
 561              		.loc 1 401 3 is_stmt 1 view .LVU176
 562              		.loc 1 401 17 is_stmt 0 view .LVU177
 563 0020 1343     		orrs	r3, r3, r2
 564              	.LVL77:
 565              		.loc 1 401 15 view .LVU178
 566 0022 0382     		strh	r3, [r0, #16]	@ movhi
 402:Drivers/STM32F4xx_StdPeriph_Driver/src/stm32f4xx_usart.c **** }
 567              		.loc 1 402 1 view .LVU179
 568 0024 10BD     		pop	{r4, pc}
 569              		.cfi_endproc
 570              	.LFE126:
 572              		.section	.text.USART_ClockStructInit,"ax",%progbits
 573              		.align	1
 574              		.global	USART_ClockStructInit
 575              		.syntax unified
 576              		.thumb
 577              		.thumb_func
 578              		.fpu fpv4-sp-d16
 580              	USART_ClockStructInit:
 581              	.LVL78:
 582              	.LFB127:
 403:Drivers/STM32F4xx_StdPeriph_Driver/src/stm32f4xx_usart.c **** 
 404:Drivers/STM32F4xx_StdPeriph_Driver/src/stm32f4xx_usart.c **** /**
 405:Drivers/STM32F4xx_StdPeriph_Driver/src/stm32f4xx_usart.c ****   * @brief  Fills each USART_ClockInitStruct member with its default value.
 406:Drivers/STM32F4xx_StdPeriph_Driver/src/stm32f4xx_usart.c ****   * @param  USART_ClockInitStruct: pointer to a USART_ClockInitTypeDef structure
 407:Drivers/STM32F4xx_StdPeriph_Driver/src/stm32f4xx_usart.c ****   *         which will be initialized.
 408:Drivers/STM32F4xx_StdPeriph_Driver/src/stm32f4xx_usart.c ****   * @retval None
 409:Drivers/STM32F4xx_StdPeriph_Driver/src/stm32f4xx_usart.c ****   */
 410:Drivers/STM32F4xx_StdPeriph_Driver/src/stm32f4xx_usart.c **** void USART_ClockStructInit(USART_ClockInitTypeDef* USART_ClockInitStruct)
 411:Drivers/STM32F4xx_StdPeriph_Driver/src/stm32f4xx_usart.c **** {
 583              		.loc 1 411 1 is_stmt 1 view -0
ARM GAS  /tmp/cc396ZZ5.s 			page 19


 584              		.cfi_startproc
 585              		@ args = 0, pretend = 0, frame = 0
 586              		@ frame_needed = 0, uses_anonymous_args = 0
 587              		@ link register save eliminated.
 412:Drivers/STM32F4xx_StdPeriph_Driver/src/stm32f4xx_usart.c ****   /* USART_ClockInitStruct members default value */
 413:Drivers/STM32F4xx_StdPeriph_Driver/src/stm32f4xx_usart.c ****   USART_ClockInitStruct->USART_Clock = USART_Clock_Disable;
 588              		.loc 1 413 3 view .LVU181
 589              		.loc 1 413 38 is_stmt 0 view .LVU182
 590 0000 0023     		movs	r3, #0
 591 0002 0380     		strh	r3, [r0]	@ movhi
 414:Drivers/STM32F4xx_StdPeriph_Driver/src/stm32f4xx_usart.c ****   USART_ClockInitStruct->USART_CPOL = USART_CPOL_Low;
 592              		.loc 1 414 3 is_stmt 1 view .LVU183
 593              		.loc 1 414 37 is_stmt 0 view .LVU184
 594 0004 4380     		strh	r3, [r0, #2]	@ movhi
 415:Drivers/STM32F4xx_StdPeriph_Driver/src/stm32f4xx_usart.c ****   USART_ClockInitStruct->USART_CPHA = USART_CPHA_1Edge;
 595              		.loc 1 415 3 is_stmt 1 view .LVU185
 596              		.loc 1 415 37 is_stmt 0 view .LVU186
 597 0006 8380     		strh	r3, [r0, #4]	@ movhi
 416:Drivers/STM32F4xx_StdPeriph_Driver/src/stm32f4xx_usart.c ****   USART_ClockInitStruct->USART_LastBit = USART_LastBit_Disable;
 598              		.loc 1 416 3 is_stmt 1 view .LVU187
 599              		.loc 1 416 40 is_stmt 0 view .LVU188
 600 0008 C380     		strh	r3, [r0, #6]	@ movhi
 417:Drivers/STM32F4xx_StdPeriph_Driver/src/stm32f4xx_usart.c **** }
 601              		.loc 1 417 1 view .LVU189
 602 000a 7047     		bx	lr
 603              		.cfi_endproc
 604              	.LFE127:
 606              		.section	.text.USART_Cmd,"ax",%progbits
 607              		.align	1
 608              		.global	USART_Cmd
 609              		.syntax unified
 610              		.thumb
 611              		.thumb_func
 612              		.fpu fpv4-sp-d16
 614              	USART_Cmd:
 615              	.LVL79:
 616              	.LFB128:
 418:Drivers/STM32F4xx_StdPeriph_Driver/src/stm32f4xx_usart.c **** 
 419:Drivers/STM32F4xx_StdPeriph_Driver/src/stm32f4xx_usart.c **** /**
 420:Drivers/STM32F4xx_StdPeriph_Driver/src/stm32f4xx_usart.c ****   * @brief  Enables or disables the specified USART peripheral.
 421:Drivers/STM32F4xx_StdPeriph_Driver/src/stm32f4xx_usart.c ****   * @param  USARTx: where x can be 1, 2, 3, 4, 5, 6, 7 or 8 to select the USART or 
 422:Drivers/STM32F4xx_StdPeriph_Driver/src/stm32f4xx_usart.c ****   *         UART peripheral.
 423:Drivers/STM32F4xx_StdPeriph_Driver/src/stm32f4xx_usart.c ****   * @param  NewState: new state of the USARTx peripheral.
 424:Drivers/STM32F4xx_StdPeriph_Driver/src/stm32f4xx_usart.c ****   *          This parameter can be: ENABLE or DISABLE.
 425:Drivers/STM32F4xx_StdPeriph_Driver/src/stm32f4xx_usart.c ****   * @retval None
 426:Drivers/STM32F4xx_StdPeriph_Driver/src/stm32f4xx_usart.c ****   */
 427:Drivers/STM32F4xx_StdPeriph_Driver/src/stm32f4xx_usart.c **** void USART_Cmd(USART_TypeDef* USARTx, FunctionalState NewState)
 428:Drivers/STM32F4xx_StdPeriph_Driver/src/stm32f4xx_usart.c **** {
 617              		.loc 1 428 1 is_stmt 1 view -0
 618              		.cfi_startproc
 619              		@ args = 0, pretend = 0, frame = 0
 620              		@ frame_needed = 0, uses_anonymous_args = 0
 621              		@ link register save eliminated.
 429:Drivers/STM32F4xx_StdPeriph_Driver/src/stm32f4xx_usart.c ****   /* Check the parameters */
 430:Drivers/STM32F4xx_StdPeriph_Driver/src/stm32f4xx_usart.c ****   assert_param(IS_USART_ALL_PERIPH(USARTx));
 622              		.loc 1 430 3 view .LVU191
 431:Drivers/STM32F4xx_StdPeriph_Driver/src/stm32f4xx_usart.c ****   assert_param(IS_FUNCTIONAL_STATE(NewState));
ARM GAS  /tmp/cc396ZZ5.s 			page 20


 623              		.loc 1 431 3 view .LVU192
 432:Drivers/STM32F4xx_StdPeriph_Driver/src/stm32f4xx_usart.c ****   
 433:Drivers/STM32F4xx_StdPeriph_Driver/src/stm32f4xx_usart.c ****   if (NewState != DISABLE)
 624              		.loc 1 433 3 view .LVU193
 625              		.loc 1 433 6 is_stmt 0 view .LVU194
 626 0000 29B1     		cbz	r1, .L39
 434:Drivers/STM32F4xx_StdPeriph_Driver/src/stm32f4xx_usart.c ****   {
 435:Drivers/STM32F4xx_StdPeriph_Driver/src/stm32f4xx_usart.c ****     /* Enable the selected USART by setting the UE bit in the CR1 register */
 436:Drivers/STM32F4xx_StdPeriph_Driver/src/stm32f4xx_usart.c ****     USARTx->CR1 |= USART_CR1_UE;
 627              		.loc 1 436 5 is_stmt 1 view .LVU195
 628              		.loc 1 436 17 is_stmt 0 view .LVU196
 629 0002 8389     		ldrh	r3, [r0, #12]
 630 0004 9BB2     		uxth	r3, r3
 631 0006 43F40053 		orr	r3, r3, #8192
 632 000a 8381     		strh	r3, [r0, #12]	@ movhi
 633 000c 7047     		bx	lr
 634              	.L39:
 437:Drivers/STM32F4xx_StdPeriph_Driver/src/stm32f4xx_usart.c ****   }
 438:Drivers/STM32F4xx_StdPeriph_Driver/src/stm32f4xx_usart.c ****   else
 439:Drivers/STM32F4xx_StdPeriph_Driver/src/stm32f4xx_usart.c ****   {
 440:Drivers/STM32F4xx_StdPeriph_Driver/src/stm32f4xx_usart.c ****     /* Disable the selected USART by clearing the UE bit in the CR1 register */
 441:Drivers/STM32F4xx_StdPeriph_Driver/src/stm32f4xx_usart.c ****     USARTx->CR1 &= (uint16_t)~((uint16_t)USART_CR1_UE);
 635              		.loc 1 441 5 is_stmt 1 view .LVU197
 636              		.loc 1 441 17 is_stmt 0 view .LVU198
 637 000e 8389     		ldrh	r3, [r0, #12]
 638 0010 9BB2     		uxth	r3, r3
 639 0012 23F40053 		bic	r3, r3, #8192
 640 0016 9BB2     		uxth	r3, r3
 641 0018 8381     		strh	r3, [r0, #12]	@ movhi
 442:Drivers/STM32F4xx_StdPeriph_Driver/src/stm32f4xx_usart.c ****   }
 443:Drivers/STM32F4xx_StdPeriph_Driver/src/stm32f4xx_usart.c **** }
 642              		.loc 1 443 1 view .LVU199
 643 001a 7047     		bx	lr
 644              		.cfi_endproc
 645              	.LFE128:
 647              		.section	.text.USART_SetPrescaler,"ax",%progbits
 648              		.align	1
 649              		.global	USART_SetPrescaler
 650              		.syntax unified
 651              		.thumb
 652              		.thumb_func
 653              		.fpu fpv4-sp-d16
 655              	USART_SetPrescaler:
 656              	.LVL80:
 657              	.LFB129:
 444:Drivers/STM32F4xx_StdPeriph_Driver/src/stm32f4xx_usart.c **** 
 445:Drivers/STM32F4xx_StdPeriph_Driver/src/stm32f4xx_usart.c **** /**
 446:Drivers/STM32F4xx_StdPeriph_Driver/src/stm32f4xx_usart.c ****   * @brief  Sets the system clock prescaler.
 447:Drivers/STM32F4xx_StdPeriph_Driver/src/stm32f4xx_usart.c ****   * @param  USARTx: where x can be 1, 2, 3, 4, 5, 6, 7 or 8 to select the USART or 
 448:Drivers/STM32F4xx_StdPeriph_Driver/src/stm32f4xx_usart.c ****   *         UART peripheral.
 449:Drivers/STM32F4xx_StdPeriph_Driver/src/stm32f4xx_usart.c ****   * @param  USART_Prescaler: specifies the prescaler clock. 
 450:Drivers/STM32F4xx_StdPeriph_Driver/src/stm32f4xx_usart.c ****   * @note   The function is used for IrDA mode with UART4 and UART5.   
 451:Drivers/STM32F4xx_StdPeriph_Driver/src/stm32f4xx_usart.c ****   * @retval None
 452:Drivers/STM32F4xx_StdPeriph_Driver/src/stm32f4xx_usart.c ****   */
 453:Drivers/STM32F4xx_StdPeriph_Driver/src/stm32f4xx_usart.c **** void USART_SetPrescaler(USART_TypeDef* USARTx, uint8_t USART_Prescaler)
 454:Drivers/STM32F4xx_StdPeriph_Driver/src/stm32f4xx_usart.c **** { 
 658              		.loc 1 454 1 is_stmt 1 view -0
ARM GAS  /tmp/cc396ZZ5.s 			page 21


 659              		.cfi_startproc
 660              		@ args = 0, pretend = 0, frame = 0
 661              		@ frame_needed = 0, uses_anonymous_args = 0
 662              		@ link register save eliminated.
 455:Drivers/STM32F4xx_StdPeriph_Driver/src/stm32f4xx_usart.c ****   /* Check the parameters */
 456:Drivers/STM32F4xx_StdPeriph_Driver/src/stm32f4xx_usart.c ****   assert_param(IS_USART_ALL_PERIPH(USARTx));
 663              		.loc 1 456 3 view .LVU201
 457:Drivers/STM32F4xx_StdPeriph_Driver/src/stm32f4xx_usart.c ****   
 458:Drivers/STM32F4xx_StdPeriph_Driver/src/stm32f4xx_usart.c ****   /* Clear the USART prescaler */
 459:Drivers/STM32F4xx_StdPeriph_Driver/src/stm32f4xx_usart.c ****   USARTx->GTPR &= USART_GTPR_GT;
 664              		.loc 1 459 3 view .LVU202
 665              		.loc 1 459 16 is_stmt 0 view .LVU203
 666 0000 028B     		ldrh	r2, [r0, #24]
 667 0002 02F47F42 		and	r2, r2, #65280
 668 0006 0283     		strh	r2, [r0, #24]	@ movhi
 460:Drivers/STM32F4xx_StdPeriph_Driver/src/stm32f4xx_usart.c ****   /* Set the USART prescaler */
 461:Drivers/STM32F4xx_StdPeriph_Driver/src/stm32f4xx_usart.c ****   USARTx->GTPR |= USART_Prescaler;
 669              		.loc 1 461 3 is_stmt 1 view .LVU204
 670              		.loc 1 461 16 is_stmt 0 view .LVU205
 671 0008 038B     		ldrh	r3, [r0, #24]
 672 000a 9BB2     		uxth	r3, r3
 673 000c 0B43     		orrs	r3, r3, r1
 674 000e 0383     		strh	r3, [r0, #24]	@ movhi
 462:Drivers/STM32F4xx_StdPeriph_Driver/src/stm32f4xx_usart.c **** }
 675              		.loc 1 462 1 view .LVU206
 676 0010 7047     		bx	lr
 677              		.cfi_endproc
 678              	.LFE129:
 680              		.section	.text.USART_OverSampling8Cmd,"ax",%progbits
 681              		.align	1
 682              		.global	USART_OverSampling8Cmd
 683              		.syntax unified
 684              		.thumb
 685              		.thumb_func
 686              		.fpu fpv4-sp-d16
 688              	USART_OverSampling8Cmd:
 689              	.LVL81:
 690              	.LFB130:
 463:Drivers/STM32F4xx_StdPeriph_Driver/src/stm32f4xx_usart.c **** 
 464:Drivers/STM32F4xx_StdPeriph_Driver/src/stm32f4xx_usart.c **** /**
 465:Drivers/STM32F4xx_StdPeriph_Driver/src/stm32f4xx_usart.c ****   * @brief  Enables or disables the USART's 8x oversampling mode.
 466:Drivers/STM32F4xx_StdPeriph_Driver/src/stm32f4xx_usart.c ****   * @note   This function has to be called before calling USART_Init() function
 467:Drivers/STM32F4xx_StdPeriph_Driver/src/stm32f4xx_usart.c ****   *         in order to have correct baudrate Divider value.
 468:Drivers/STM32F4xx_StdPeriph_Driver/src/stm32f4xx_usart.c ****   * @param  USARTx: where x can be 1, 2, 3, 4, 5, 6, 7 or 8 to select the USART or 
 469:Drivers/STM32F4xx_StdPeriph_Driver/src/stm32f4xx_usart.c ****   *         UART peripheral.
 470:Drivers/STM32F4xx_StdPeriph_Driver/src/stm32f4xx_usart.c ****   * @param  NewState: new state of the USART 8x oversampling mode.
 471:Drivers/STM32F4xx_StdPeriph_Driver/src/stm32f4xx_usart.c ****   *          This parameter can be: ENABLE or DISABLE.
 472:Drivers/STM32F4xx_StdPeriph_Driver/src/stm32f4xx_usart.c ****   * @retval None
 473:Drivers/STM32F4xx_StdPeriph_Driver/src/stm32f4xx_usart.c ****   */
 474:Drivers/STM32F4xx_StdPeriph_Driver/src/stm32f4xx_usart.c **** void USART_OverSampling8Cmd(USART_TypeDef* USARTx, FunctionalState NewState)
 475:Drivers/STM32F4xx_StdPeriph_Driver/src/stm32f4xx_usart.c **** {
 691              		.loc 1 475 1 is_stmt 1 view -0
 692              		.cfi_startproc
 693              		@ args = 0, pretend = 0, frame = 0
 694              		@ frame_needed = 0, uses_anonymous_args = 0
 695              		@ link register save eliminated.
 476:Drivers/STM32F4xx_StdPeriph_Driver/src/stm32f4xx_usart.c ****   /* Check the parameters */
ARM GAS  /tmp/cc396ZZ5.s 			page 22


 477:Drivers/STM32F4xx_StdPeriph_Driver/src/stm32f4xx_usart.c ****   assert_param(IS_USART_ALL_PERIPH(USARTx));
 696              		.loc 1 477 3 view .LVU208
 478:Drivers/STM32F4xx_StdPeriph_Driver/src/stm32f4xx_usart.c ****   assert_param(IS_FUNCTIONAL_STATE(NewState));
 697              		.loc 1 478 3 view .LVU209
 479:Drivers/STM32F4xx_StdPeriph_Driver/src/stm32f4xx_usart.c ****   
 480:Drivers/STM32F4xx_StdPeriph_Driver/src/stm32f4xx_usart.c ****   if (NewState != DISABLE)
 698              		.loc 1 480 3 view .LVU210
 699              		.loc 1 480 6 is_stmt 0 view .LVU211
 700 0000 39B1     		cbz	r1, .L43
 481:Drivers/STM32F4xx_StdPeriph_Driver/src/stm32f4xx_usart.c ****   {
 482:Drivers/STM32F4xx_StdPeriph_Driver/src/stm32f4xx_usart.c ****     /* Enable the 8x Oversampling mode by setting the OVER8 bit in the CR1 register */
 483:Drivers/STM32F4xx_StdPeriph_Driver/src/stm32f4xx_usart.c ****     USARTx->CR1 |= USART_CR1_OVER8;
 701              		.loc 1 483 5 is_stmt 1 view .LVU212
 702              		.loc 1 483 17 is_stmt 0 view .LVU213
 703 0002 8389     		ldrh	r3, [r0, #12]
 704 0004 6FEA4343 		mvn	r3, r3, lsl #17
 705 0008 6FEA5343 		mvn	r3, r3, lsr #17
 706 000c 9BB2     		uxth	r3, r3
 707 000e 8381     		strh	r3, [r0, #12]	@ movhi
 708 0010 7047     		bx	lr
 709              	.L43:
 484:Drivers/STM32F4xx_StdPeriph_Driver/src/stm32f4xx_usart.c ****   }
 485:Drivers/STM32F4xx_StdPeriph_Driver/src/stm32f4xx_usart.c ****   else
 486:Drivers/STM32F4xx_StdPeriph_Driver/src/stm32f4xx_usart.c ****   {
 487:Drivers/STM32F4xx_StdPeriph_Driver/src/stm32f4xx_usart.c ****     /* Disable the 8x Oversampling mode by clearing the OVER8 bit in the CR1 register */
 488:Drivers/STM32F4xx_StdPeriph_Driver/src/stm32f4xx_usart.c ****     USARTx->CR1 &= (uint16_t)~((uint16_t)USART_CR1_OVER8);
 710              		.loc 1 488 5 is_stmt 1 view .LVU214
 711              		.loc 1 488 17 is_stmt 0 view .LVU215
 712 0012 8389     		ldrh	r3, [r0, #12]
 713 0014 C3F30E03 		ubfx	r3, r3, #0, #15
 714 0018 8381     		strh	r3, [r0, #12]	@ movhi
 489:Drivers/STM32F4xx_StdPeriph_Driver/src/stm32f4xx_usart.c ****   }
 490:Drivers/STM32F4xx_StdPeriph_Driver/src/stm32f4xx_usart.c **** }  
 715              		.loc 1 490 1 view .LVU216
 716 001a 7047     		bx	lr
 717              		.cfi_endproc
 718              	.LFE130:
 720              		.section	.text.USART_OneBitMethodCmd,"ax",%progbits
 721              		.align	1
 722              		.global	USART_OneBitMethodCmd
 723              		.syntax unified
 724              		.thumb
 725              		.thumb_func
 726              		.fpu fpv4-sp-d16
 728              	USART_OneBitMethodCmd:
 729              	.LVL82:
 730              	.LFB131:
 491:Drivers/STM32F4xx_StdPeriph_Driver/src/stm32f4xx_usart.c **** 
 492:Drivers/STM32F4xx_StdPeriph_Driver/src/stm32f4xx_usart.c **** /**
 493:Drivers/STM32F4xx_StdPeriph_Driver/src/stm32f4xx_usart.c ****   * @brief  Enables or disables the USART's one bit sampling method.
 494:Drivers/STM32F4xx_StdPeriph_Driver/src/stm32f4xx_usart.c ****   * @param  USARTx: where x can be 1, 2, 3, 4, 5, 6, 7 or 8 to select the USART or 
 495:Drivers/STM32F4xx_StdPeriph_Driver/src/stm32f4xx_usart.c ****   *         UART peripheral.
 496:Drivers/STM32F4xx_StdPeriph_Driver/src/stm32f4xx_usart.c ****   * @param  NewState: new state of the USART one bit sampling method.
 497:Drivers/STM32F4xx_StdPeriph_Driver/src/stm32f4xx_usart.c ****   *          This parameter can be: ENABLE or DISABLE.
 498:Drivers/STM32F4xx_StdPeriph_Driver/src/stm32f4xx_usart.c ****   * @retval None
 499:Drivers/STM32F4xx_StdPeriph_Driver/src/stm32f4xx_usart.c ****   */
 500:Drivers/STM32F4xx_StdPeriph_Driver/src/stm32f4xx_usart.c **** void USART_OneBitMethodCmd(USART_TypeDef* USARTx, FunctionalState NewState)
ARM GAS  /tmp/cc396ZZ5.s 			page 23


 501:Drivers/STM32F4xx_StdPeriph_Driver/src/stm32f4xx_usart.c **** {
 731              		.loc 1 501 1 is_stmt 1 view -0
 732              		.cfi_startproc
 733              		@ args = 0, pretend = 0, frame = 0
 734              		@ frame_needed = 0, uses_anonymous_args = 0
 735              		@ link register save eliminated.
 502:Drivers/STM32F4xx_StdPeriph_Driver/src/stm32f4xx_usart.c ****   /* Check the parameters */
 503:Drivers/STM32F4xx_StdPeriph_Driver/src/stm32f4xx_usart.c ****   assert_param(IS_USART_ALL_PERIPH(USARTx));
 736              		.loc 1 503 3 view .LVU218
 504:Drivers/STM32F4xx_StdPeriph_Driver/src/stm32f4xx_usart.c ****   assert_param(IS_FUNCTIONAL_STATE(NewState));
 737              		.loc 1 504 3 view .LVU219
 505:Drivers/STM32F4xx_StdPeriph_Driver/src/stm32f4xx_usart.c ****   
 506:Drivers/STM32F4xx_StdPeriph_Driver/src/stm32f4xx_usart.c ****   if (NewState != DISABLE)
 738              		.loc 1 506 3 view .LVU220
 739              		.loc 1 506 6 is_stmt 0 view .LVU221
 740 0000 29B1     		cbz	r1, .L46
 507:Drivers/STM32F4xx_StdPeriph_Driver/src/stm32f4xx_usart.c ****   {
 508:Drivers/STM32F4xx_StdPeriph_Driver/src/stm32f4xx_usart.c ****     /* Enable the one bit method by setting the ONEBITE bit in the CR3 register */
 509:Drivers/STM32F4xx_StdPeriph_Driver/src/stm32f4xx_usart.c ****     USARTx->CR3 |= USART_CR3_ONEBIT;
 741              		.loc 1 509 5 is_stmt 1 view .LVU222
 742              		.loc 1 509 17 is_stmt 0 view .LVU223
 743 0002 838A     		ldrh	r3, [r0, #20]
 744 0004 9BB2     		uxth	r3, r3
 745 0006 43F40063 		orr	r3, r3, #2048
 746 000a 8382     		strh	r3, [r0, #20]	@ movhi
 747 000c 7047     		bx	lr
 748              	.L46:
 510:Drivers/STM32F4xx_StdPeriph_Driver/src/stm32f4xx_usart.c ****   }
 511:Drivers/STM32F4xx_StdPeriph_Driver/src/stm32f4xx_usart.c ****   else
 512:Drivers/STM32F4xx_StdPeriph_Driver/src/stm32f4xx_usart.c ****   {
 513:Drivers/STM32F4xx_StdPeriph_Driver/src/stm32f4xx_usart.c ****     /* Disable the one bit method by clearing the ONEBITE bit in the CR3 register */
 514:Drivers/STM32F4xx_StdPeriph_Driver/src/stm32f4xx_usart.c ****     USARTx->CR3 &= (uint16_t)~((uint16_t)USART_CR3_ONEBIT);
 749              		.loc 1 514 5 is_stmt 1 view .LVU224
 750              		.loc 1 514 17 is_stmt 0 view .LVU225
 751 000e 838A     		ldrh	r3, [r0, #20]
 752 0010 9BB2     		uxth	r3, r3
 753 0012 23F40063 		bic	r3, r3, #2048
 754 0016 9BB2     		uxth	r3, r3
 755 0018 8382     		strh	r3, [r0, #20]	@ movhi
 515:Drivers/STM32F4xx_StdPeriph_Driver/src/stm32f4xx_usart.c ****   }
 516:Drivers/STM32F4xx_StdPeriph_Driver/src/stm32f4xx_usart.c **** }
 756              		.loc 1 516 1 view .LVU226
 757 001a 7047     		bx	lr
 758              		.cfi_endproc
 759              	.LFE131:
 761              		.section	.text.USART_SendData,"ax",%progbits
 762              		.align	1
 763              		.global	USART_SendData
 764              		.syntax unified
 765              		.thumb
 766              		.thumb_func
 767              		.fpu fpv4-sp-d16
 769              	USART_SendData:
 770              	.LVL83:
 771              	.LFB132:
 517:Drivers/STM32F4xx_StdPeriph_Driver/src/stm32f4xx_usart.c **** 
 518:Drivers/STM32F4xx_StdPeriph_Driver/src/stm32f4xx_usart.c **** /**
ARM GAS  /tmp/cc396ZZ5.s 			page 24


 519:Drivers/STM32F4xx_StdPeriph_Driver/src/stm32f4xx_usart.c ****   * @}
 520:Drivers/STM32F4xx_StdPeriph_Driver/src/stm32f4xx_usart.c ****   */
 521:Drivers/STM32F4xx_StdPeriph_Driver/src/stm32f4xx_usart.c **** 
 522:Drivers/STM32F4xx_StdPeriph_Driver/src/stm32f4xx_usart.c **** /** @defgroup USART_Group2 Data transfers functions
 523:Drivers/STM32F4xx_StdPeriph_Driver/src/stm32f4xx_usart.c ****  *  @brief   Data transfers functions 
 524:Drivers/STM32F4xx_StdPeriph_Driver/src/stm32f4xx_usart.c ****  *
 525:Drivers/STM32F4xx_StdPeriph_Driver/src/stm32f4xx_usart.c **** @verbatim   
 526:Drivers/STM32F4xx_StdPeriph_Driver/src/stm32f4xx_usart.c ****  ===============================================================================
 527:Drivers/STM32F4xx_StdPeriph_Driver/src/stm32f4xx_usart.c ****                       ##### Data transfers functions #####
 528:Drivers/STM32F4xx_StdPeriph_Driver/src/stm32f4xx_usart.c ****  ===============================================================================  
 529:Drivers/STM32F4xx_StdPeriph_Driver/src/stm32f4xx_usart.c ****     [..]
 530:Drivers/STM32F4xx_StdPeriph_Driver/src/stm32f4xx_usart.c ****     This subsection provides a set of functions allowing to manage the USART data 
 531:Drivers/STM32F4xx_StdPeriph_Driver/src/stm32f4xx_usart.c ****     transfers.
 532:Drivers/STM32F4xx_StdPeriph_Driver/src/stm32f4xx_usart.c ****     [..]
 533:Drivers/STM32F4xx_StdPeriph_Driver/src/stm32f4xx_usart.c ****     During an USART reception, data shifts in least significant bit first through 
 534:Drivers/STM32F4xx_StdPeriph_Driver/src/stm32f4xx_usart.c ****     the RX pin. In this mode, the USART_DR register consists of a buffer (RDR) 
 535:Drivers/STM32F4xx_StdPeriph_Driver/src/stm32f4xx_usart.c ****     between the internal bus and the received shift register.
 536:Drivers/STM32F4xx_StdPeriph_Driver/src/stm32f4xx_usart.c ****     [..]
 537:Drivers/STM32F4xx_StdPeriph_Driver/src/stm32f4xx_usart.c ****     When a transmission is taking place, a write instruction to the USART_DR register 
 538:Drivers/STM32F4xx_StdPeriph_Driver/src/stm32f4xx_usart.c ****     stores the data in the TDR register and which is copied in the shift register 
 539:Drivers/STM32F4xx_StdPeriph_Driver/src/stm32f4xx_usart.c ****     at the end of the current transmission.
 540:Drivers/STM32F4xx_StdPeriph_Driver/src/stm32f4xx_usart.c ****     [..]
 541:Drivers/STM32F4xx_StdPeriph_Driver/src/stm32f4xx_usart.c ****     The read access of the USART_DR register can be done using the USART_ReceiveData()
 542:Drivers/STM32F4xx_StdPeriph_Driver/src/stm32f4xx_usart.c ****     function and returns the RDR buffered value. Whereas a write access to the USART_DR 
 543:Drivers/STM32F4xx_StdPeriph_Driver/src/stm32f4xx_usart.c ****     can be done using USART_SendData() function and stores the written data into 
 544:Drivers/STM32F4xx_StdPeriph_Driver/src/stm32f4xx_usart.c ****     TDR buffer.
 545:Drivers/STM32F4xx_StdPeriph_Driver/src/stm32f4xx_usart.c **** 
 546:Drivers/STM32F4xx_StdPeriph_Driver/src/stm32f4xx_usart.c **** @endverbatim
 547:Drivers/STM32F4xx_StdPeriph_Driver/src/stm32f4xx_usart.c ****   * @{
 548:Drivers/STM32F4xx_StdPeriph_Driver/src/stm32f4xx_usart.c ****   */
 549:Drivers/STM32F4xx_StdPeriph_Driver/src/stm32f4xx_usart.c **** 
 550:Drivers/STM32F4xx_StdPeriph_Driver/src/stm32f4xx_usart.c **** /**
 551:Drivers/STM32F4xx_StdPeriph_Driver/src/stm32f4xx_usart.c ****   * @brief  Transmits single data through the USARTx peripheral.
 552:Drivers/STM32F4xx_StdPeriph_Driver/src/stm32f4xx_usart.c ****   * @param  USARTx: where x can be 1, 2, 3, 4, 5, 6, 7 or 8 to select the USART or 
 553:Drivers/STM32F4xx_StdPeriph_Driver/src/stm32f4xx_usart.c ****   *         UART peripheral.
 554:Drivers/STM32F4xx_StdPeriph_Driver/src/stm32f4xx_usart.c ****   * @param  Data: the data to transmit.
 555:Drivers/STM32F4xx_StdPeriph_Driver/src/stm32f4xx_usart.c ****   * @retval None
 556:Drivers/STM32F4xx_StdPeriph_Driver/src/stm32f4xx_usart.c ****   */
 557:Drivers/STM32F4xx_StdPeriph_Driver/src/stm32f4xx_usart.c **** void USART_SendData(USART_TypeDef* USARTx, uint16_t Data)
 558:Drivers/STM32F4xx_StdPeriph_Driver/src/stm32f4xx_usart.c **** {
 772              		.loc 1 558 1 is_stmt 1 view -0
 773              		.cfi_startproc
 774              		@ args = 0, pretend = 0, frame = 0
 775              		@ frame_needed = 0, uses_anonymous_args = 0
 776              		@ link register save eliminated.
 559:Drivers/STM32F4xx_StdPeriph_Driver/src/stm32f4xx_usart.c ****   /* Check the parameters */
 560:Drivers/STM32F4xx_StdPeriph_Driver/src/stm32f4xx_usart.c ****   assert_param(IS_USART_ALL_PERIPH(USARTx));
 777              		.loc 1 560 3 view .LVU228
 561:Drivers/STM32F4xx_StdPeriph_Driver/src/stm32f4xx_usart.c ****   assert_param(IS_USART_DATA(Data)); 
 778              		.loc 1 561 3 view .LVU229
 562:Drivers/STM32F4xx_StdPeriph_Driver/src/stm32f4xx_usart.c ****     
 563:Drivers/STM32F4xx_StdPeriph_Driver/src/stm32f4xx_usart.c ****   /* Transmit Data */
 564:Drivers/STM32F4xx_StdPeriph_Driver/src/stm32f4xx_usart.c ****   USARTx->DR = (Data & (uint16_t)0x01FF);
 779              		.loc 1 564 3 view .LVU230
 780              		.loc 1 564 22 is_stmt 0 view .LVU231
 781 0000 C1F30801 		ubfx	r1, r1, #0, #9
 782              	.LVL84:
ARM GAS  /tmp/cc396ZZ5.s 			page 25


 783              		.loc 1 564 14 view .LVU232
 784 0004 8180     		strh	r1, [r0, #4]	@ movhi
 565:Drivers/STM32F4xx_StdPeriph_Driver/src/stm32f4xx_usart.c **** }
 785              		.loc 1 565 1 view .LVU233
 786 0006 7047     		bx	lr
 787              		.cfi_endproc
 788              	.LFE132:
 790              		.section	.text.USART_ReceiveData,"ax",%progbits
 791              		.align	1
 792              		.global	USART_ReceiveData
 793              		.syntax unified
 794              		.thumb
 795              		.thumb_func
 796              		.fpu fpv4-sp-d16
 798              	USART_ReceiveData:
 799              	.LVL85:
 800              	.LFB133:
 566:Drivers/STM32F4xx_StdPeriph_Driver/src/stm32f4xx_usart.c **** 
 567:Drivers/STM32F4xx_StdPeriph_Driver/src/stm32f4xx_usart.c **** /**
 568:Drivers/STM32F4xx_StdPeriph_Driver/src/stm32f4xx_usart.c ****   * @brief  Returns the most recent received data by the USARTx peripheral.
 569:Drivers/STM32F4xx_StdPeriph_Driver/src/stm32f4xx_usart.c ****   * @param  USARTx: where x can be 1, 2, 3, 4, 5, 6, 7 or 8 to select the USART or 
 570:Drivers/STM32F4xx_StdPeriph_Driver/src/stm32f4xx_usart.c ****   *         UART peripheral.
 571:Drivers/STM32F4xx_StdPeriph_Driver/src/stm32f4xx_usart.c ****   * @retval The received data.
 572:Drivers/STM32F4xx_StdPeriph_Driver/src/stm32f4xx_usart.c ****   */
 573:Drivers/STM32F4xx_StdPeriph_Driver/src/stm32f4xx_usart.c **** uint16_t USART_ReceiveData(USART_TypeDef* USARTx)
 574:Drivers/STM32F4xx_StdPeriph_Driver/src/stm32f4xx_usart.c **** {
 801              		.loc 1 574 1 is_stmt 1 view -0
 802              		.cfi_startproc
 803              		@ args = 0, pretend = 0, frame = 0
 804              		@ frame_needed = 0, uses_anonymous_args = 0
 805              		@ link register save eliminated.
 575:Drivers/STM32F4xx_StdPeriph_Driver/src/stm32f4xx_usart.c ****   /* Check the parameters */
 576:Drivers/STM32F4xx_StdPeriph_Driver/src/stm32f4xx_usart.c ****   assert_param(IS_USART_ALL_PERIPH(USARTx));
 806              		.loc 1 576 3 view .LVU235
 577:Drivers/STM32F4xx_StdPeriph_Driver/src/stm32f4xx_usart.c ****   
 578:Drivers/STM32F4xx_StdPeriph_Driver/src/stm32f4xx_usart.c ****   /* Receive Data */
 579:Drivers/STM32F4xx_StdPeriph_Driver/src/stm32f4xx_usart.c ****   return (uint16_t)(USARTx->DR & (uint16_t)0x01FF);
 807              		.loc 1 579 3 view .LVU236
 808              		.loc 1 579 27 is_stmt 0 view .LVU237
 809 0000 8088     		ldrh	r0, [r0, #4]
 810              	.LVL86:
 580:Drivers/STM32F4xx_StdPeriph_Driver/src/stm32f4xx_usart.c **** }
 811              		.loc 1 580 1 view .LVU238
 812 0002 C0F30800 		ubfx	r0, r0, #0, #9
 813 0006 7047     		bx	lr
 814              		.cfi_endproc
 815              	.LFE133:
 817              		.section	.text.USART_SetAddress,"ax",%progbits
 818              		.align	1
 819              		.global	USART_SetAddress
 820              		.syntax unified
 821              		.thumb
 822              		.thumb_func
 823              		.fpu fpv4-sp-d16
 825              	USART_SetAddress:
 826              	.LVL87:
 827              	.LFB134:
ARM GAS  /tmp/cc396ZZ5.s 			page 26


 581:Drivers/STM32F4xx_StdPeriph_Driver/src/stm32f4xx_usart.c **** 
 582:Drivers/STM32F4xx_StdPeriph_Driver/src/stm32f4xx_usart.c **** /**
 583:Drivers/STM32F4xx_StdPeriph_Driver/src/stm32f4xx_usart.c ****   * @}
 584:Drivers/STM32F4xx_StdPeriph_Driver/src/stm32f4xx_usart.c ****   */
 585:Drivers/STM32F4xx_StdPeriph_Driver/src/stm32f4xx_usart.c **** 
 586:Drivers/STM32F4xx_StdPeriph_Driver/src/stm32f4xx_usart.c **** /** @defgroup USART_Group3 MultiProcessor Communication functions
 587:Drivers/STM32F4xx_StdPeriph_Driver/src/stm32f4xx_usart.c ****  *  @brief   Multi-Processor Communication functions 
 588:Drivers/STM32F4xx_StdPeriph_Driver/src/stm32f4xx_usart.c ****  *
 589:Drivers/STM32F4xx_StdPeriph_Driver/src/stm32f4xx_usart.c **** @verbatim   
 590:Drivers/STM32F4xx_StdPeriph_Driver/src/stm32f4xx_usart.c ****  ===============================================================================
 591:Drivers/STM32F4xx_StdPeriph_Driver/src/stm32f4xx_usart.c ****               ##### Multi-Processor Communication functions #####
 592:Drivers/STM32F4xx_StdPeriph_Driver/src/stm32f4xx_usart.c ****  ===============================================================================  
 593:Drivers/STM32F4xx_StdPeriph_Driver/src/stm32f4xx_usart.c ****     [..]
 594:Drivers/STM32F4xx_StdPeriph_Driver/src/stm32f4xx_usart.c ****     This subsection provides a set of functions allowing to manage the USART 
 595:Drivers/STM32F4xx_StdPeriph_Driver/src/stm32f4xx_usart.c ****     multiprocessor communication.
 596:Drivers/STM32F4xx_StdPeriph_Driver/src/stm32f4xx_usart.c ****     [..]
 597:Drivers/STM32F4xx_StdPeriph_Driver/src/stm32f4xx_usart.c ****     For instance one of the USARTs can be the master, its TX output is connected 
 598:Drivers/STM32F4xx_StdPeriph_Driver/src/stm32f4xx_usart.c ****     to the RX input of the other USART. The others are slaves, their respective 
 599:Drivers/STM32F4xx_StdPeriph_Driver/src/stm32f4xx_usart.c ****     TX outputs are logically ANDed together and connected to the RX input of the 
 600:Drivers/STM32F4xx_StdPeriph_Driver/src/stm32f4xx_usart.c ****     master.
 601:Drivers/STM32F4xx_StdPeriph_Driver/src/stm32f4xx_usart.c ****     [..]
 602:Drivers/STM32F4xx_StdPeriph_Driver/src/stm32f4xx_usart.c ****     USART multiprocessor communication is possible through the following procedure:
 603:Drivers/STM32F4xx_StdPeriph_Driver/src/stm32f4xx_usart.c ****       (#) Program the Baud rate, Word length = 9 bits, Stop bits, Parity, Mode 
 604:Drivers/STM32F4xx_StdPeriph_Driver/src/stm32f4xx_usart.c ****           transmitter or Mode receiver and hardware flow control values using 
 605:Drivers/STM32F4xx_StdPeriph_Driver/src/stm32f4xx_usart.c ****           the USART_Init() function.
 606:Drivers/STM32F4xx_StdPeriph_Driver/src/stm32f4xx_usart.c ****       (#) Configures the USART address using the USART_SetAddress() function.
 607:Drivers/STM32F4xx_StdPeriph_Driver/src/stm32f4xx_usart.c ****       (#) Configures the wake up method (USART_WakeUp_IdleLine or USART_WakeUp_AddressMark)
 608:Drivers/STM32F4xx_StdPeriph_Driver/src/stm32f4xx_usart.c ****           using USART_WakeUpConfig() function only for the slaves.
 609:Drivers/STM32F4xx_StdPeriph_Driver/src/stm32f4xx_usart.c ****       (#) Enable the USART using the USART_Cmd() function.
 610:Drivers/STM32F4xx_StdPeriph_Driver/src/stm32f4xx_usart.c ****       (#) Enter the USART slaves in mute mode using USART_ReceiverWakeUpCmd() function.
 611:Drivers/STM32F4xx_StdPeriph_Driver/src/stm32f4xx_usart.c ****     [..]
 612:Drivers/STM32F4xx_StdPeriph_Driver/src/stm32f4xx_usart.c ****     The USART Slave exit from mute mode when receive the wake up condition.
 613:Drivers/STM32F4xx_StdPeriph_Driver/src/stm32f4xx_usart.c **** 
 614:Drivers/STM32F4xx_StdPeriph_Driver/src/stm32f4xx_usart.c **** @endverbatim
 615:Drivers/STM32F4xx_StdPeriph_Driver/src/stm32f4xx_usart.c ****   * @{
 616:Drivers/STM32F4xx_StdPeriph_Driver/src/stm32f4xx_usart.c ****   */
 617:Drivers/STM32F4xx_StdPeriph_Driver/src/stm32f4xx_usart.c **** 
 618:Drivers/STM32F4xx_StdPeriph_Driver/src/stm32f4xx_usart.c **** /**
 619:Drivers/STM32F4xx_StdPeriph_Driver/src/stm32f4xx_usart.c ****   * @brief  Sets the address of the USART node.
 620:Drivers/STM32F4xx_StdPeriph_Driver/src/stm32f4xx_usart.c ****   * @param  USARTx: where x can be 1, 2, 3, 4, 5, 6, 7 or 8 to select the USART or 
 621:Drivers/STM32F4xx_StdPeriph_Driver/src/stm32f4xx_usart.c ****   *         UART peripheral.
 622:Drivers/STM32F4xx_StdPeriph_Driver/src/stm32f4xx_usart.c ****   * @param  USART_Address: Indicates the address of the USART node.
 623:Drivers/STM32F4xx_StdPeriph_Driver/src/stm32f4xx_usart.c ****   * @retval None
 624:Drivers/STM32F4xx_StdPeriph_Driver/src/stm32f4xx_usart.c ****   */
 625:Drivers/STM32F4xx_StdPeriph_Driver/src/stm32f4xx_usart.c **** void USART_SetAddress(USART_TypeDef* USARTx, uint8_t USART_Address)
 626:Drivers/STM32F4xx_StdPeriph_Driver/src/stm32f4xx_usart.c **** {
 828              		.loc 1 626 1 is_stmt 1 view -0
 829              		.cfi_startproc
 830              		@ args = 0, pretend = 0, frame = 0
 831              		@ frame_needed = 0, uses_anonymous_args = 0
 832              		@ link register save eliminated.
 627:Drivers/STM32F4xx_StdPeriph_Driver/src/stm32f4xx_usart.c ****   /* Check the parameters */
 628:Drivers/STM32F4xx_StdPeriph_Driver/src/stm32f4xx_usart.c ****   assert_param(IS_USART_ALL_PERIPH(USARTx));
 833              		.loc 1 628 3 view .LVU240
 629:Drivers/STM32F4xx_StdPeriph_Driver/src/stm32f4xx_usart.c ****   assert_param(IS_USART_ADDRESS(USART_Address)); 
 834              		.loc 1 629 3 view .LVU241
 630:Drivers/STM32F4xx_StdPeriph_Driver/src/stm32f4xx_usart.c ****     
ARM GAS  /tmp/cc396ZZ5.s 			page 27


 631:Drivers/STM32F4xx_StdPeriph_Driver/src/stm32f4xx_usart.c ****   /* Clear the USART address */
 632:Drivers/STM32F4xx_StdPeriph_Driver/src/stm32f4xx_usart.c ****   USARTx->CR2 &= (uint16_t)~((uint16_t)USART_CR2_ADD);
 835              		.loc 1 632 3 view .LVU242
 836              		.loc 1 632 15 is_stmt 0 view .LVU243
 837 0000 038A     		ldrh	r3, [r0, #16]
 838 0002 9BB2     		uxth	r3, r3
 839 0004 23F00F03 		bic	r3, r3, #15
 840 0008 9BB2     		uxth	r3, r3
 841 000a 0382     		strh	r3, [r0, #16]	@ movhi
 633:Drivers/STM32F4xx_StdPeriph_Driver/src/stm32f4xx_usart.c ****   /* Set the USART address node */
 634:Drivers/STM32F4xx_StdPeriph_Driver/src/stm32f4xx_usart.c ****   USARTx->CR2 |= USART_Address;
 842              		.loc 1 634 3 is_stmt 1 view .LVU244
 843              		.loc 1 634 15 is_stmt 0 view .LVU245
 844 000c 038A     		ldrh	r3, [r0, #16]
 845 000e 9BB2     		uxth	r3, r3
 846 0010 0B43     		orrs	r3, r3, r1
 847 0012 0382     		strh	r3, [r0, #16]	@ movhi
 635:Drivers/STM32F4xx_StdPeriph_Driver/src/stm32f4xx_usart.c **** }
 848              		.loc 1 635 1 view .LVU246
 849 0014 7047     		bx	lr
 850              		.cfi_endproc
 851              	.LFE134:
 853              		.section	.text.USART_ReceiverWakeUpCmd,"ax",%progbits
 854              		.align	1
 855              		.global	USART_ReceiverWakeUpCmd
 856              		.syntax unified
 857              		.thumb
 858              		.thumb_func
 859              		.fpu fpv4-sp-d16
 861              	USART_ReceiverWakeUpCmd:
 862              	.LVL88:
 863              	.LFB135:
 636:Drivers/STM32F4xx_StdPeriph_Driver/src/stm32f4xx_usart.c **** 
 637:Drivers/STM32F4xx_StdPeriph_Driver/src/stm32f4xx_usart.c **** /**
 638:Drivers/STM32F4xx_StdPeriph_Driver/src/stm32f4xx_usart.c ****   * @brief  Determines if the USART is in mute mode or not.
 639:Drivers/STM32F4xx_StdPeriph_Driver/src/stm32f4xx_usart.c ****   * @param  USARTx: where x can be 1, 2, 3, 4, 5, 6, 7 or 8 to select the USART or 
 640:Drivers/STM32F4xx_StdPeriph_Driver/src/stm32f4xx_usart.c ****   *         UART peripheral.
 641:Drivers/STM32F4xx_StdPeriph_Driver/src/stm32f4xx_usart.c ****   * @param  NewState: new state of the USART mute mode.
 642:Drivers/STM32F4xx_StdPeriph_Driver/src/stm32f4xx_usart.c ****   *          This parameter can be: ENABLE or DISABLE.
 643:Drivers/STM32F4xx_StdPeriph_Driver/src/stm32f4xx_usart.c ****   * @retval None
 644:Drivers/STM32F4xx_StdPeriph_Driver/src/stm32f4xx_usart.c ****   */
 645:Drivers/STM32F4xx_StdPeriph_Driver/src/stm32f4xx_usart.c **** void USART_ReceiverWakeUpCmd(USART_TypeDef* USARTx, FunctionalState NewState)
 646:Drivers/STM32F4xx_StdPeriph_Driver/src/stm32f4xx_usart.c **** {
 864              		.loc 1 646 1 is_stmt 1 view -0
 865              		.cfi_startproc
 866              		@ args = 0, pretend = 0, frame = 0
 867              		@ frame_needed = 0, uses_anonymous_args = 0
 868              		@ link register save eliminated.
 647:Drivers/STM32F4xx_StdPeriph_Driver/src/stm32f4xx_usart.c ****   /* Check the parameters */
 648:Drivers/STM32F4xx_StdPeriph_Driver/src/stm32f4xx_usart.c ****   assert_param(IS_USART_ALL_PERIPH(USARTx));
 869              		.loc 1 648 3 view .LVU248
 649:Drivers/STM32F4xx_StdPeriph_Driver/src/stm32f4xx_usart.c ****   assert_param(IS_FUNCTIONAL_STATE(NewState)); 
 870              		.loc 1 649 3 view .LVU249
 650:Drivers/STM32F4xx_StdPeriph_Driver/src/stm32f4xx_usart.c ****   
 651:Drivers/STM32F4xx_StdPeriph_Driver/src/stm32f4xx_usart.c ****   if (NewState != DISABLE)
 871              		.loc 1 651 3 view .LVU250
 872              		.loc 1 651 6 is_stmt 0 view .LVU251
ARM GAS  /tmp/cc396ZZ5.s 			page 28


 873 0000 29B1     		cbz	r1, .L52
 652:Drivers/STM32F4xx_StdPeriph_Driver/src/stm32f4xx_usart.c ****   {
 653:Drivers/STM32F4xx_StdPeriph_Driver/src/stm32f4xx_usart.c ****     /* Enable the USART mute mode  by setting the RWU bit in the CR1 register */
 654:Drivers/STM32F4xx_StdPeriph_Driver/src/stm32f4xx_usart.c ****     USARTx->CR1 |= USART_CR1_RWU;
 874              		.loc 1 654 5 is_stmt 1 view .LVU252
 875              		.loc 1 654 17 is_stmt 0 view .LVU253
 876 0002 8389     		ldrh	r3, [r0, #12]
 877 0004 9BB2     		uxth	r3, r3
 878 0006 43F00203 		orr	r3, r3, #2
 879 000a 8381     		strh	r3, [r0, #12]	@ movhi
 880 000c 7047     		bx	lr
 881              	.L52:
 655:Drivers/STM32F4xx_StdPeriph_Driver/src/stm32f4xx_usart.c ****   }
 656:Drivers/STM32F4xx_StdPeriph_Driver/src/stm32f4xx_usart.c ****   else
 657:Drivers/STM32F4xx_StdPeriph_Driver/src/stm32f4xx_usart.c ****   {
 658:Drivers/STM32F4xx_StdPeriph_Driver/src/stm32f4xx_usart.c ****     /* Disable the USART mute mode by clearing the RWU bit in the CR1 register */
 659:Drivers/STM32F4xx_StdPeriph_Driver/src/stm32f4xx_usart.c ****     USARTx->CR1 &= (uint16_t)~((uint16_t)USART_CR1_RWU);
 882              		.loc 1 659 5 is_stmt 1 view .LVU254
 883              		.loc 1 659 17 is_stmt 0 view .LVU255
 884 000e 8389     		ldrh	r3, [r0, #12]
 885 0010 9BB2     		uxth	r3, r3
 886 0012 23F00203 		bic	r3, r3, #2
 887 0016 9BB2     		uxth	r3, r3
 888 0018 8381     		strh	r3, [r0, #12]	@ movhi
 660:Drivers/STM32F4xx_StdPeriph_Driver/src/stm32f4xx_usart.c ****   }
 661:Drivers/STM32F4xx_StdPeriph_Driver/src/stm32f4xx_usart.c **** }
 889              		.loc 1 661 1 view .LVU256
 890 001a 7047     		bx	lr
 891              		.cfi_endproc
 892              	.LFE135:
 894              		.section	.text.USART_WakeUpConfig,"ax",%progbits
 895              		.align	1
 896              		.global	USART_WakeUpConfig
 897              		.syntax unified
 898              		.thumb
 899              		.thumb_func
 900              		.fpu fpv4-sp-d16
 902              	USART_WakeUpConfig:
 903              	.LVL89:
 904              	.LFB136:
 662:Drivers/STM32F4xx_StdPeriph_Driver/src/stm32f4xx_usart.c **** /**
 663:Drivers/STM32F4xx_StdPeriph_Driver/src/stm32f4xx_usart.c ****   * @brief  Selects the USART WakeUp method.
 664:Drivers/STM32F4xx_StdPeriph_Driver/src/stm32f4xx_usart.c ****   * @param  USARTx: where x can be 1, 2, 3, 4, 5, 6, 7 or 8 to select the USART or 
 665:Drivers/STM32F4xx_StdPeriph_Driver/src/stm32f4xx_usart.c ****   *         UART peripheral.
 666:Drivers/STM32F4xx_StdPeriph_Driver/src/stm32f4xx_usart.c ****   * @param  USART_WakeUp: specifies the USART wakeup method.
 667:Drivers/STM32F4xx_StdPeriph_Driver/src/stm32f4xx_usart.c ****   *          This parameter can be one of the following values:
 668:Drivers/STM32F4xx_StdPeriph_Driver/src/stm32f4xx_usart.c ****   *            @arg USART_WakeUp_IdleLine: WakeUp by an idle line detection
 669:Drivers/STM32F4xx_StdPeriph_Driver/src/stm32f4xx_usart.c ****   *            @arg USART_WakeUp_AddressMark: WakeUp by an address mark
 670:Drivers/STM32F4xx_StdPeriph_Driver/src/stm32f4xx_usart.c ****   * @retval None
 671:Drivers/STM32F4xx_StdPeriph_Driver/src/stm32f4xx_usart.c ****   */
 672:Drivers/STM32F4xx_StdPeriph_Driver/src/stm32f4xx_usart.c **** void USART_WakeUpConfig(USART_TypeDef* USARTx, uint16_t USART_WakeUp)
 673:Drivers/STM32F4xx_StdPeriph_Driver/src/stm32f4xx_usart.c **** {
 905              		.loc 1 673 1 is_stmt 1 view -0
 906              		.cfi_startproc
 907              		@ args = 0, pretend = 0, frame = 0
 908              		@ frame_needed = 0, uses_anonymous_args = 0
 909              		@ link register save eliminated.
ARM GAS  /tmp/cc396ZZ5.s 			page 29


 674:Drivers/STM32F4xx_StdPeriph_Driver/src/stm32f4xx_usart.c ****   /* Check the parameters */
 675:Drivers/STM32F4xx_StdPeriph_Driver/src/stm32f4xx_usart.c ****   assert_param(IS_USART_ALL_PERIPH(USARTx));
 910              		.loc 1 675 3 view .LVU258
 676:Drivers/STM32F4xx_StdPeriph_Driver/src/stm32f4xx_usart.c ****   assert_param(IS_USART_WAKEUP(USART_WakeUp));
 911              		.loc 1 676 3 view .LVU259
 677:Drivers/STM32F4xx_StdPeriph_Driver/src/stm32f4xx_usart.c ****   
 678:Drivers/STM32F4xx_StdPeriph_Driver/src/stm32f4xx_usart.c ****   USARTx->CR1 &= (uint16_t)~((uint16_t)USART_CR1_WAKE);
 912              		.loc 1 678 3 view .LVU260
 913              		.loc 1 678 15 is_stmt 0 view .LVU261
 914 0000 8389     		ldrh	r3, [r0, #12]
 915 0002 9BB2     		uxth	r3, r3
 916 0004 23F40063 		bic	r3, r3, #2048
 917 0008 9BB2     		uxth	r3, r3
 918 000a 8381     		strh	r3, [r0, #12]	@ movhi
 679:Drivers/STM32F4xx_StdPeriph_Driver/src/stm32f4xx_usart.c ****   USARTx->CR1 |= USART_WakeUp;
 919              		.loc 1 679 3 is_stmt 1 view .LVU262
 920              		.loc 1 679 15 is_stmt 0 view .LVU263
 921 000c 8389     		ldrh	r3, [r0, #12]
 922 000e 9BB2     		uxth	r3, r3
 923 0010 0B43     		orrs	r3, r3, r1
 924 0012 8381     		strh	r3, [r0, #12]	@ movhi
 680:Drivers/STM32F4xx_StdPeriph_Driver/src/stm32f4xx_usart.c **** }
 925              		.loc 1 680 1 view .LVU264
 926 0014 7047     		bx	lr
 927              		.cfi_endproc
 928              	.LFE136:
 930              		.section	.text.USART_LINBreakDetectLengthConfig,"ax",%progbits
 931              		.align	1
 932              		.global	USART_LINBreakDetectLengthConfig
 933              		.syntax unified
 934              		.thumb
 935              		.thumb_func
 936              		.fpu fpv4-sp-d16
 938              	USART_LINBreakDetectLengthConfig:
 939              	.LVL90:
 940              	.LFB137:
 681:Drivers/STM32F4xx_StdPeriph_Driver/src/stm32f4xx_usart.c **** 
 682:Drivers/STM32F4xx_StdPeriph_Driver/src/stm32f4xx_usart.c **** /**
 683:Drivers/STM32F4xx_StdPeriph_Driver/src/stm32f4xx_usart.c ****   * @}
 684:Drivers/STM32F4xx_StdPeriph_Driver/src/stm32f4xx_usart.c ****   */
 685:Drivers/STM32F4xx_StdPeriph_Driver/src/stm32f4xx_usart.c **** 
 686:Drivers/STM32F4xx_StdPeriph_Driver/src/stm32f4xx_usart.c **** /** @defgroup USART_Group4 LIN mode functions
 687:Drivers/STM32F4xx_StdPeriph_Driver/src/stm32f4xx_usart.c ****  *  @brief   LIN mode functions 
 688:Drivers/STM32F4xx_StdPeriph_Driver/src/stm32f4xx_usart.c ****  *
 689:Drivers/STM32F4xx_StdPeriph_Driver/src/stm32f4xx_usart.c **** @verbatim   
 690:Drivers/STM32F4xx_StdPeriph_Driver/src/stm32f4xx_usart.c ****  ===============================================================================
 691:Drivers/STM32F4xx_StdPeriph_Driver/src/stm32f4xx_usart.c ****                         ##### LIN mode functions #####
 692:Drivers/STM32F4xx_StdPeriph_Driver/src/stm32f4xx_usart.c ****  ===============================================================================  
 693:Drivers/STM32F4xx_StdPeriph_Driver/src/stm32f4xx_usart.c ****     [..]
 694:Drivers/STM32F4xx_StdPeriph_Driver/src/stm32f4xx_usart.c ****     This subsection provides a set of functions allowing to manage the USART LIN 
 695:Drivers/STM32F4xx_StdPeriph_Driver/src/stm32f4xx_usart.c ****     Mode communication.
 696:Drivers/STM32F4xx_StdPeriph_Driver/src/stm32f4xx_usart.c ****     [..]
 697:Drivers/STM32F4xx_StdPeriph_Driver/src/stm32f4xx_usart.c ****     In LIN mode, 8-bit data format with 1 stop bit is required in accordance with 
 698:Drivers/STM32F4xx_StdPeriph_Driver/src/stm32f4xx_usart.c ****     the LIN standard.
 699:Drivers/STM32F4xx_StdPeriph_Driver/src/stm32f4xx_usart.c ****     [..]
 700:Drivers/STM32F4xx_StdPeriph_Driver/src/stm32f4xx_usart.c ****     Only this LIN Feature is supported by the USART IP:
 701:Drivers/STM32F4xx_StdPeriph_Driver/src/stm32f4xx_usart.c ****       (+) LIN Master Synchronous Break send capability and LIN slave break detection
ARM GAS  /tmp/cc396ZZ5.s 			page 30


 702:Drivers/STM32F4xx_StdPeriph_Driver/src/stm32f4xx_usart.c ****           capability :  13-bit break generation and 10/11 bit break detection
 703:Drivers/STM32F4xx_StdPeriph_Driver/src/stm32f4xx_usart.c **** 
 704:Drivers/STM32F4xx_StdPeriph_Driver/src/stm32f4xx_usart.c ****     [..]
 705:Drivers/STM32F4xx_StdPeriph_Driver/src/stm32f4xx_usart.c ****     USART LIN Master transmitter communication is possible through the following 
 706:Drivers/STM32F4xx_StdPeriph_Driver/src/stm32f4xx_usart.c ****     procedure:
 707:Drivers/STM32F4xx_StdPeriph_Driver/src/stm32f4xx_usart.c ****       (#) Program the Baud rate, Word length = 8bits, Stop bits = 1bit, Parity, 
 708:Drivers/STM32F4xx_StdPeriph_Driver/src/stm32f4xx_usart.c ****         Mode transmitter or Mode receiver and hardware flow control values using 
 709:Drivers/STM32F4xx_StdPeriph_Driver/src/stm32f4xx_usart.c ****         the USART_Init() function.
 710:Drivers/STM32F4xx_StdPeriph_Driver/src/stm32f4xx_usart.c ****       (#) Enable the USART using the USART_Cmd() function.
 711:Drivers/STM32F4xx_StdPeriph_Driver/src/stm32f4xx_usart.c ****       (#) Enable the LIN mode using the USART_LINCmd() function.
 712:Drivers/STM32F4xx_StdPeriph_Driver/src/stm32f4xx_usart.c ****       (#) Send the break character using USART_SendBreak() function.
 713:Drivers/STM32F4xx_StdPeriph_Driver/src/stm32f4xx_usart.c ****     [..]
 714:Drivers/STM32F4xx_StdPeriph_Driver/src/stm32f4xx_usart.c ****     USART LIN Master receiver communication is possible through the following procedure:
 715:Drivers/STM32F4xx_StdPeriph_Driver/src/stm32f4xx_usart.c ****       (#) Program the Baud rate, Word length = 8bits, Stop bits = 1bit, Parity, 
 716:Drivers/STM32F4xx_StdPeriph_Driver/src/stm32f4xx_usart.c ****           Mode transmitter or Mode receiver and hardware flow control values using 
 717:Drivers/STM32F4xx_StdPeriph_Driver/src/stm32f4xx_usart.c ****           the USART_Init() function.
 718:Drivers/STM32F4xx_StdPeriph_Driver/src/stm32f4xx_usart.c ****       (#) Enable the USART using the USART_Cmd() function.
 719:Drivers/STM32F4xx_StdPeriph_Driver/src/stm32f4xx_usart.c ****       (#) Configures the break detection length using the USART_LINBreakDetectLengthConfig()
 720:Drivers/STM32F4xx_StdPeriph_Driver/src/stm32f4xx_usart.c ****           function.
 721:Drivers/STM32F4xx_StdPeriph_Driver/src/stm32f4xx_usart.c ****       (#) Enable the LIN mode using the USART_LINCmd() function.
 722:Drivers/STM32F4xx_StdPeriph_Driver/src/stm32f4xx_usart.c **** 
 723:Drivers/STM32F4xx_StdPeriph_Driver/src/stm32f4xx_usart.c ****       -@- In LIN mode, the following bits must be kept cleared:
 724:Drivers/STM32F4xx_StdPeriph_Driver/src/stm32f4xx_usart.c ****        (+@) CLKEN in the USART_CR2 register,
 725:Drivers/STM32F4xx_StdPeriph_Driver/src/stm32f4xx_usart.c ****        (+@) STOP[1:0], SCEN, HDSEL and IREN in the USART_CR3 register.
 726:Drivers/STM32F4xx_StdPeriph_Driver/src/stm32f4xx_usart.c **** 
 727:Drivers/STM32F4xx_StdPeriph_Driver/src/stm32f4xx_usart.c **** @endverbatim
 728:Drivers/STM32F4xx_StdPeriph_Driver/src/stm32f4xx_usart.c ****   * @{
 729:Drivers/STM32F4xx_StdPeriph_Driver/src/stm32f4xx_usart.c ****   */
 730:Drivers/STM32F4xx_StdPeriph_Driver/src/stm32f4xx_usart.c **** 
 731:Drivers/STM32F4xx_StdPeriph_Driver/src/stm32f4xx_usart.c **** /**
 732:Drivers/STM32F4xx_StdPeriph_Driver/src/stm32f4xx_usart.c ****   * @brief  Sets the USART LIN Break detection length.
 733:Drivers/STM32F4xx_StdPeriph_Driver/src/stm32f4xx_usart.c ****   * @param  USARTx: where x can be 1, 2, 3, 4, 5, 6, 7 or 8 to select the USART or 
 734:Drivers/STM32F4xx_StdPeriph_Driver/src/stm32f4xx_usart.c ****   *         UART peripheral.
 735:Drivers/STM32F4xx_StdPeriph_Driver/src/stm32f4xx_usart.c ****   * @param  USART_LINBreakDetectLength: specifies the LIN break detection length.
 736:Drivers/STM32F4xx_StdPeriph_Driver/src/stm32f4xx_usart.c ****   *          This parameter can be one of the following values:
 737:Drivers/STM32F4xx_StdPeriph_Driver/src/stm32f4xx_usart.c ****   *            @arg USART_LINBreakDetectLength_10b: 10-bit break detection
 738:Drivers/STM32F4xx_StdPeriph_Driver/src/stm32f4xx_usart.c ****   *            @arg USART_LINBreakDetectLength_11b: 11-bit break detection
 739:Drivers/STM32F4xx_StdPeriph_Driver/src/stm32f4xx_usart.c ****   * @retval None
 740:Drivers/STM32F4xx_StdPeriph_Driver/src/stm32f4xx_usart.c ****   */
 741:Drivers/STM32F4xx_StdPeriph_Driver/src/stm32f4xx_usart.c **** void USART_LINBreakDetectLengthConfig(USART_TypeDef* USARTx, uint16_t USART_LINBreakDetectLength)
 742:Drivers/STM32F4xx_StdPeriph_Driver/src/stm32f4xx_usart.c **** {
 941              		.loc 1 742 1 is_stmt 1 view -0
 942              		.cfi_startproc
 943              		@ args = 0, pretend = 0, frame = 0
 944              		@ frame_needed = 0, uses_anonymous_args = 0
 945              		@ link register save eliminated.
 743:Drivers/STM32F4xx_StdPeriph_Driver/src/stm32f4xx_usart.c ****   /* Check the parameters */
 744:Drivers/STM32F4xx_StdPeriph_Driver/src/stm32f4xx_usart.c ****   assert_param(IS_USART_ALL_PERIPH(USARTx));
 946              		.loc 1 744 3 view .LVU266
 745:Drivers/STM32F4xx_StdPeriph_Driver/src/stm32f4xx_usart.c ****   assert_param(IS_USART_LIN_BREAK_DETECT_LENGTH(USART_LINBreakDetectLength));
 947              		.loc 1 745 3 view .LVU267
 746:Drivers/STM32F4xx_StdPeriph_Driver/src/stm32f4xx_usart.c ****   
 747:Drivers/STM32F4xx_StdPeriph_Driver/src/stm32f4xx_usart.c ****   USARTx->CR2 &= (uint16_t)~((uint16_t)USART_CR2_LBDL);
 948              		.loc 1 747 3 view .LVU268
 949              		.loc 1 747 15 is_stmt 0 view .LVU269
 950 0000 038A     		ldrh	r3, [r0, #16]
 951 0002 9BB2     		uxth	r3, r3
ARM GAS  /tmp/cc396ZZ5.s 			page 31


 952 0004 23F02003 		bic	r3, r3, #32
 953 0008 9BB2     		uxth	r3, r3
 954 000a 0382     		strh	r3, [r0, #16]	@ movhi
 748:Drivers/STM32F4xx_StdPeriph_Driver/src/stm32f4xx_usart.c ****   USARTx->CR2 |= USART_LINBreakDetectLength;  
 955              		.loc 1 748 3 is_stmt 1 view .LVU270
 956              		.loc 1 748 15 is_stmt 0 view .LVU271
 957 000c 038A     		ldrh	r3, [r0, #16]
 958 000e 9BB2     		uxth	r3, r3
 959 0010 0B43     		orrs	r3, r3, r1
 960 0012 0382     		strh	r3, [r0, #16]	@ movhi
 749:Drivers/STM32F4xx_StdPeriph_Driver/src/stm32f4xx_usart.c **** }
 961              		.loc 1 749 1 view .LVU272
 962 0014 7047     		bx	lr
 963              		.cfi_endproc
 964              	.LFE137:
 966              		.section	.text.USART_LINCmd,"ax",%progbits
 967              		.align	1
 968              		.global	USART_LINCmd
 969              		.syntax unified
 970              		.thumb
 971              		.thumb_func
 972              		.fpu fpv4-sp-d16
 974              	USART_LINCmd:
 975              	.LVL91:
 976              	.LFB138:
 750:Drivers/STM32F4xx_StdPeriph_Driver/src/stm32f4xx_usart.c **** 
 751:Drivers/STM32F4xx_StdPeriph_Driver/src/stm32f4xx_usart.c **** /**
 752:Drivers/STM32F4xx_StdPeriph_Driver/src/stm32f4xx_usart.c ****   * @brief  Enables or disables the USART's LIN mode.
 753:Drivers/STM32F4xx_StdPeriph_Driver/src/stm32f4xx_usart.c ****   * @param  USARTx: where x can be 1, 2, 3, 4, 5, 6, 7 or 8 to select the USART or 
 754:Drivers/STM32F4xx_StdPeriph_Driver/src/stm32f4xx_usart.c ****   *         UART peripheral.
 755:Drivers/STM32F4xx_StdPeriph_Driver/src/stm32f4xx_usart.c ****   * @param  NewState: new state of the USART LIN mode.
 756:Drivers/STM32F4xx_StdPeriph_Driver/src/stm32f4xx_usart.c ****   *          This parameter can be: ENABLE or DISABLE.
 757:Drivers/STM32F4xx_StdPeriph_Driver/src/stm32f4xx_usart.c ****   * @retval None
 758:Drivers/STM32F4xx_StdPeriph_Driver/src/stm32f4xx_usart.c ****   */
 759:Drivers/STM32F4xx_StdPeriph_Driver/src/stm32f4xx_usart.c **** void USART_LINCmd(USART_TypeDef* USARTx, FunctionalState NewState)
 760:Drivers/STM32F4xx_StdPeriph_Driver/src/stm32f4xx_usart.c **** {
 977              		.loc 1 760 1 is_stmt 1 view -0
 978              		.cfi_startproc
 979              		@ args = 0, pretend = 0, frame = 0
 980              		@ frame_needed = 0, uses_anonymous_args = 0
 981              		@ link register save eliminated.
 761:Drivers/STM32F4xx_StdPeriph_Driver/src/stm32f4xx_usart.c ****   /* Check the parameters */
 762:Drivers/STM32F4xx_StdPeriph_Driver/src/stm32f4xx_usart.c ****   assert_param(IS_USART_ALL_PERIPH(USARTx));
 982              		.loc 1 762 3 view .LVU274
 763:Drivers/STM32F4xx_StdPeriph_Driver/src/stm32f4xx_usart.c ****   assert_param(IS_FUNCTIONAL_STATE(NewState));
 983              		.loc 1 763 3 view .LVU275
 764:Drivers/STM32F4xx_StdPeriph_Driver/src/stm32f4xx_usart.c ****   
 765:Drivers/STM32F4xx_StdPeriph_Driver/src/stm32f4xx_usart.c ****   if (NewState != DISABLE)
 984              		.loc 1 765 3 view .LVU276
 985              		.loc 1 765 6 is_stmt 0 view .LVU277
 986 0000 29B1     		cbz	r1, .L57
 766:Drivers/STM32F4xx_StdPeriph_Driver/src/stm32f4xx_usart.c ****   {
 767:Drivers/STM32F4xx_StdPeriph_Driver/src/stm32f4xx_usart.c ****     /* Enable the LIN mode by setting the LINEN bit in the CR2 register */
 768:Drivers/STM32F4xx_StdPeriph_Driver/src/stm32f4xx_usart.c ****     USARTx->CR2 |= USART_CR2_LINEN;
 987              		.loc 1 768 5 is_stmt 1 view .LVU278
 988              		.loc 1 768 17 is_stmt 0 view .LVU279
 989 0002 038A     		ldrh	r3, [r0, #16]
ARM GAS  /tmp/cc396ZZ5.s 			page 32


 990 0004 9BB2     		uxth	r3, r3
 991 0006 43F48043 		orr	r3, r3, #16384
 992 000a 0382     		strh	r3, [r0, #16]	@ movhi
 993 000c 7047     		bx	lr
 994              	.L57:
 769:Drivers/STM32F4xx_StdPeriph_Driver/src/stm32f4xx_usart.c ****   }
 770:Drivers/STM32F4xx_StdPeriph_Driver/src/stm32f4xx_usart.c ****   else
 771:Drivers/STM32F4xx_StdPeriph_Driver/src/stm32f4xx_usart.c ****   {
 772:Drivers/STM32F4xx_StdPeriph_Driver/src/stm32f4xx_usart.c ****     /* Disable the LIN mode by clearing the LINEN bit in the CR2 register */
 773:Drivers/STM32F4xx_StdPeriph_Driver/src/stm32f4xx_usart.c ****     USARTx->CR2 &= (uint16_t)~((uint16_t)USART_CR2_LINEN);
 995              		.loc 1 773 5 is_stmt 1 view .LVU280
 996              		.loc 1 773 17 is_stmt 0 view .LVU281
 997 000e 038A     		ldrh	r3, [r0, #16]
 998 0010 9BB2     		uxth	r3, r3
 999 0012 23F48043 		bic	r3, r3, #16384
 1000 0016 9BB2     		uxth	r3, r3
 1001 0018 0382     		strh	r3, [r0, #16]	@ movhi
 774:Drivers/STM32F4xx_StdPeriph_Driver/src/stm32f4xx_usart.c ****   }
 775:Drivers/STM32F4xx_StdPeriph_Driver/src/stm32f4xx_usart.c **** }
 1002              		.loc 1 775 1 view .LVU282
 1003 001a 7047     		bx	lr
 1004              		.cfi_endproc
 1005              	.LFE138:
 1007              		.section	.text.USART_SendBreak,"ax",%progbits
 1008              		.align	1
 1009              		.global	USART_SendBreak
 1010              		.syntax unified
 1011              		.thumb
 1012              		.thumb_func
 1013              		.fpu fpv4-sp-d16
 1015              	USART_SendBreak:
 1016              	.LVL92:
 1017              	.LFB139:
 776:Drivers/STM32F4xx_StdPeriph_Driver/src/stm32f4xx_usart.c **** 
 777:Drivers/STM32F4xx_StdPeriph_Driver/src/stm32f4xx_usart.c **** /**
 778:Drivers/STM32F4xx_StdPeriph_Driver/src/stm32f4xx_usart.c ****   * @brief  Transmits break characters.
 779:Drivers/STM32F4xx_StdPeriph_Driver/src/stm32f4xx_usart.c ****   * @param  USARTx: where x can be 1, 2, 3, 4, 5, 6, 7 or 8 to select the USART or 
 780:Drivers/STM32F4xx_StdPeriph_Driver/src/stm32f4xx_usart.c ****   *         UART peripheral.
 781:Drivers/STM32F4xx_StdPeriph_Driver/src/stm32f4xx_usart.c ****   * @retval None
 782:Drivers/STM32F4xx_StdPeriph_Driver/src/stm32f4xx_usart.c ****   */
 783:Drivers/STM32F4xx_StdPeriph_Driver/src/stm32f4xx_usart.c **** void USART_SendBreak(USART_TypeDef* USARTx)
 784:Drivers/STM32F4xx_StdPeriph_Driver/src/stm32f4xx_usart.c **** {
 1018              		.loc 1 784 1 is_stmt 1 view -0
 1019              		.cfi_startproc
 1020              		@ args = 0, pretend = 0, frame = 0
 1021              		@ frame_needed = 0, uses_anonymous_args = 0
 1022              		@ link register save eliminated.
 785:Drivers/STM32F4xx_StdPeriph_Driver/src/stm32f4xx_usart.c ****   /* Check the parameters */
 786:Drivers/STM32F4xx_StdPeriph_Driver/src/stm32f4xx_usart.c ****   assert_param(IS_USART_ALL_PERIPH(USARTx));
 1023              		.loc 1 786 3 view .LVU284
 787:Drivers/STM32F4xx_StdPeriph_Driver/src/stm32f4xx_usart.c ****   
 788:Drivers/STM32F4xx_StdPeriph_Driver/src/stm32f4xx_usart.c ****   /* Send break characters */
 789:Drivers/STM32F4xx_StdPeriph_Driver/src/stm32f4xx_usart.c ****   USARTx->CR1 |= USART_CR1_SBK;
 1024              		.loc 1 789 3 view .LVU285
 1025              		.loc 1 789 15 is_stmt 0 view .LVU286
 1026 0000 8389     		ldrh	r3, [r0, #12]
 1027 0002 9BB2     		uxth	r3, r3
ARM GAS  /tmp/cc396ZZ5.s 			page 33


 1028 0004 43F00103 		orr	r3, r3, #1
 1029 0008 8381     		strh	r3, [r0, #12]	@ movhi
 790:Drivers/STM32F4xx_StdPeriph_Driver/src/stm32f4xx_usart.c **** }
 1030              		.loc 1 790 1 view .LVU287
 1031 000a 7047     		bx	lr
 1032              		.cfi_endproc
 1033              	.LFE139:
 1035              		.section	.text.USART_HalfDuplexCmd,"ax",%progbits
 1036              		.align	1
 1037              		.global	USART_HalfDuplexCmd
 1038              		.syntax unified
 1039              		.thumb
 1040              		.thumb_func
 1041              		.fpu fpv4-sp-d16
 1043              	USART_HalfDuplexCmd:
 1044              	.LVL93:
 1045              	.LFB140:
 791:Drivers/STM32F4xx_StdPeriph_Driver/src/stm32f4xx_usart.c **** 
 792:Drivers/STM32F4xx_StdPeriph_Driver/src/stm32f4xx_usart.c **** /**
 793:Drivers/STM32F4xx_StdPeriph_Driver/src/stm32f4xx_usart.c ****   * @}
 794:Drivers/STM32F4xx_StdPeriph_Driver/src/stm32f4xx_usart.c ****   */
 795:Drivers/STM32F4xx_StdPeriph_Driver/src/stm32f4xx_usart.c **** 
 796:Drivers/STM32F4xx_StdPeriph_Driver/src/stm32f4xx_usart.c **** /** @defgroup USART_Group5 Halfduplex mode function
 797:Drivers/STM32F4xx_StdPeriph_Driver/src/stm32f4xx_usart.c ****  *  @brief   Half-duplex mode function 
 798:Drivers/STM32F4xx_StdPeriph_Driver/src/stm32f4xx_usart.c ****  *
 799:Drivers/STM32F4xx_StdPeriph_Driver/src/stm32f4xx_usart.c **** @verbatim   
 800:Drivers/STM32F4xx_StdPeriph_Driver/src/stm32f4xx_usart.c ****  ===============================================================================
 801:Drivers/STM32F4xx_StdPeriph_Driver/src/stm32f4xx_usart.c ****                     ##### Half-duplex mode function #####
 802:Drivers/STM32F4xx_StdPeriph_Driver/src/stm32f4xx_usart.c ****  ===============================================================================  
 803:Drivers/STM32F4xx_StdPeriph_Driver/src/stm32f4xx_usart.c ****     [..]
 804:Drivers/STM32F4xx_StdPeriph_Driver/src/stm32f4xx_usart.c ****     This subsection provides a set of functions allowing to manage the USART 
 805:Drivers/STM32F4xx_StdPeriph_Driver/src/stm32f4xx_usart.c ****     Half-duplex communication.
 806:Drivers/STM32F4xx_StdPeriph_Driver/src/stm32f4xx_usart.c ****     [..]
 807:Drivers/STM32F4xx_StdPeriph_Driver/src/stm32f4xx_usart.c ****     The USART can be configured to follow a single-wire half-duplex protocol where 
 808:Drivers/STM32F4xx_StdPeriph_Driver/src/stm32f4xx_usart.c ****     the TX and RX lines are internally connected.
 809:Drivers/STM32F4xx_StdPeriph_Driver/src/stm32f4xx_usart.c ****     [..]
 810:Drivers/STM32F4xx_StdPeriph_Driver/src/stm32f4xx_usart.c ****     USART Half duplex communication is possible through the following procedure:
 811:Drivers/STM32F4xx_StdPeriph_Driver/src/stm32f4xx_usart.c ****       (#) Program the Baud rate, Word length, Stop bits, Parity, Mode transmitter 
 812:Drivers/STM32F4xx_StdPeriph_Driver/src/stm32f4xx_usart.c ****           or Mode receiver and hardware flow control values using the USART_Init()
 813:Drivers/STM32F4xx_StdPeriph_Driver/src/stm32f4xx_usart.c ****           function.
 814:Drivers/STM32F4xx_StdPeriph_Driver/src/stm32f4xx_usart.c ****       (#) Configures the USART address using the USART_SetAddress() function.
 815:Drivers/STM32F4xx_StdPeriph_Driver/src/stm32f4xx_usart.c ****       (#) Enable the USART using the USART_Cmd() function.
 816:Drivers/STM32F4xx_StdPeriph_Driver/src/stm32f4xx_usart.c ****       (#) Enable the half duplex mode using USART_HalfDuplexCmd() function.
 817:Drivers/STM32F4xx_StdPeriph_Driver/src/stm32f4xx_usart.c **** 
 818:Drivers/STM32F4xx_StdPeriph_Driver/src/stm32f4xx_usart.c **** 
 819:Drivers/STM32F4xx_StdPeriph_Driver/src/stm32f4xx_usart.c ****     -@- The RX pin is no longer used
 820:Drivers/STM32F4xx_StdPeriph_Driver/src/stm32f4xx_usart.c ****     -@- In Half-duplex mode the following bits must be kept cleared:
 821:Drivers/STM32F4xx_StdPeriph_Driver/src/stm32f4xx_usart.c ****       (+@) LINEN and CLKEN bits in the USART_CR2 register.
 822:Drivers/STM32F4xx_StdPeriph_Driver/src/stm32f4xx_usart.c ****       (+@) SCEN and IREN bits in the USART_CR3 register.
 823:Drivers/STM32F4xx_StdPeriph_Driver/src/stm32f4xx_usart.c **** 
 824:Drivers/STM32F4xx_StdPeriph_Driver/src/stm32f4xx_usart.c **** @endverbatim
 825:Drivers/STM32F4xx_StdPeriph_Driver/src/stm32f4xx_usart.c ****   * @{
 826:Drivers/STM32F4xx_StdPeriph_Driver/src/stm32f4xx_usart.c ****   */
 827:Drivers/STM32F4xx_StdPeriph_Driver/src/stm32f4xx_usart.c **** 
 828:Drivers/STM32F4xx_StdPeriph_Driver/src/stm32f4xx_usart.c **** /**
 829:Drivers/STM32F4xx_StdPeriph_Driver/src/stm32f4xx_usart.c ****   * @brief  Enables or disables the USART's Half Duplex communication.
 830:Drivers/STM32F4xx_StdPeriph_Driver/src/stm32f4xx_usart.c ****   * @param  USARTx: where x can be 1, 2, 3, 4, 5, 6, 7 or 8 to select the USART or 
ARM GAS  /tmp/cc396ZZ5.s 			page 34


 831:Drivers/STM32F4xx_StdPeriph_Driver/src/stm32f4xx_usart.c ****   *         UART peripheral.
 832:Drivers/STM32F4xx_StdPeriph_Driver/src/stm32f4xx_usart.c ****   * @param  NewState: new state of the USART Communication.
 833:Drivers/STM32F4xx_StdPeriph_Driver/src/stm32f4xx_usart.c ****   *          This parameter can be: ENABLE or DISABLE.
 834:Drivers/STM32F4xx_StdPeriph_Driver/src/stm32f4xx_usart.c ****   * @retval None
 835:Drivers/STM32F4xx_StdPeriph_Driver/src/stm32f4xx_usart.c ****   */
 836:Drivers/STM32F4xx_StdPeriph_Driver/src/stm32f4xx_usart.c **** void USART_HalfDuplexCmd(USART_TypeDef* USARTx, FunctionalState NewState)
 837:Drivers/STM32F4xx_StdPeriph_Driver/src/stm32f4xx_usart.c **** {
 1046              		.loc 1 837 1 is_stmt 1 view -0
 1047              		.cfi_startproc
 1048              		@ args = 0, pretend = 0, frame = 0
 1049              		@ frame_needed = 0, uses_anonymous_args = 0
 1050              		@ link register save eliminated.
 838:Drivers/STM32F4xx_StdPeriph_Driver/src/stm32f4xx_usart.c ****   /* Check the parameters */
 839:Drivers/STM32F4xx_StdPeriph_Driver/src/stm32f4xx_usart.c ****   assert_param(IS_USART_ALL_PERIPH(USARTx));
 1051              		.loc 1 839 3 view .LVU289
 840:Drivers/STM32F4xx_StdPeriph_Driver/src/stm32f4xx_usart.c ****   assert_param(IS_FUNCTIONAL_STATE(NewState));
 1052              		.loc 1 840 3 view .LVU290
 841:Drivers/STM32F4xx_StdPeriph_Driver/src/stm32f4xx_usart.c ****   
 842:Drivers/STM32F4xx_StdPeriph_Driver/src/stm32f4xx_usart.c ****   if (NewState != DISABLE)
 1053              		.loc 1 842 3 view .LVU291
 1054              		.loc 1 842 6 is_stmt 0 view .LVU292
 1055 0000 29B1     		cbz	r1, .L61
 843:Drivers/STM32F4xx_StdPeriph_Driver/src/stm32f4xx_usart.c ****   {
 844:Drivers/STM32F4xx_StdPeriph_Driver/src/stm32f4xx_usart.c ****     /* Enable the Half-Duplex mode by setting the HDSEL bit in the CR3 register */
 845:Drivers/STM32F4xx_StdPeriph_Driver/src/stm32f4xx_usart.c ****     USARTx->CR3 |= USART_CR3_HDSEL;
 1056              		.loc 1 845 5 is_stmt 1 view .LVU293
 1057              		.loc 1 845 17 is_stmt 0 view .LVU294
 1058 0002 838A     		ldrh	r3, [r0, #20]
 1059 0004 9BB2     		uxth	r3, r3
 1060 0006 43F00803 		orr	r3, r3, #8
 1061 000a 8382     		strh	r3, [r0, #20]	@ movhi
 1062 000c 7047     		bx	lr
 1063              	.L61:
 846:Drivers/STM32F4xx_StdPeriph_Driver/src/stm32f4xx_usart.c ****   }
 847:Drivers/STM32F4xx_StdPeriph_Driver/src/stm32f4xx_usart.c ****   else
 848:Drivers/STM32F4xx_StdPeriph_Driver/src/stm32f4xx_usart.c ****   {
 849:Drivers/STM32F4xx_StdPeriph_Driver/src/stm32f4xx_usart.c ****     /* Disable the Half-Duplex mode by clearing the HDSEL bit in the CR3 register */
 850:Drivers/STM32F4xx_StdPeriph_Driver/src/stm32f4xx_usart.c ****     USARTx->CR3 &= (uint16_t)~((uint16_t)USART_CR3_HDSEL);
 1064              		.loc 1 850 5 is_stmt 1 view .LVU295
 1065              		.loc 1 850 17 is_stmt 0 view .LVU296
 1066 000e 838A     		ldrh	r3, [r0, #20]
 1067 0010 9BB2     		uxth	r3, r3
 1068 0012 23F00803 		bic	r3, r3, #8
 1069 0016 9BB2     		uxth	r3, r3
 1070 0018 8382     		strh	r3, [r0, #20]	@ movhi
 851:Drivers/STM32F4xx_StdPeriph_Driver/src/stm32f4xx_usart.c ****   }
 852:Drivers/STM32F4xx_StdPeriph_Driver/src/stm32f4xx_usart.c **** }
 1071              		.loc 1 852 1 view .LVU297
 1072 001a 7047     		bx	lr
 1073              		.cfi_endproc
 1074              	.LFE140:
 1076              		.section	.text.USART_SetGuardTime,"ax",%progbits
 1077              		.align	1
 1078              		.global	USART_SetGuardTime
 1079              		.syntax unified
 1080              		.thumb
 1081              		.thumb_func
ARM GAS  /tmp/cc396ZZ5.s 			page 35


 1082              		.fpu fpv4-sp-d16
 1084              	USART_SetGuardTime:
 1085              	.LVL94:
 1086              	.LFB141:
 853:Drivers/STM32F4xx_StdPeriph_Driver/src/stm32f4xx_usart.c **** 
 854:Drivers/STM32F4xx_StdPeriph_Driver/src/stm32f4xx_usart.c **** /**
 855:Drivers/STM32F4xx_StdPeriph_Driver/src/stm32f4xx_usart.c ****   * @}
 856:Drivers/STM32F4xx_StdPeriph_Driver/src/stm32f4xx_usart.c ****   */
 857:Drivers/STM32F4xx_StdPeriph_Driver/src/stm32f4xx_usart.c **** 
 858:Drivers/STM32F4xx_StdPeriph_Driver/src/stm32f4xx_usart.c **** 
 859:Drivers/STM32F4xx_StdPeriph_Driver/src/stm32f4xx_usart.c **** /** @defgroup USART_Group6 Smartcard mode functions
 860:Drivers/STM32F4xx_StdPeriph_Driver/src/stm32f4xx_usart.c ****  *  @brief   Smartcard mode functions 
 861:Drivers/STM32F4xx_StdPeriph_Driver/src/stm32f4xx_usart.c ****  *
 862:Drivers/STM32F4xx_StdPeriph_Driver/src/stm32f4xx_usart.c **** @verbatim   
 863:Drivers/STM32F4xx_StdPeriph_Driver/src/stm32f4xx_usart.c ****  ===============================================================================
 864:Drivers/STM32F4xx_StdPeriph_Driver/src/stm32f4xx_usart.c ****                               ##### Smartcard mode functions #####
 865:Drivers/STM32F4xx_StdPeriph_Driver/src/stm32f4xx_usart.c ****  ===============================================================================  
 866:Drivers/STM32F4xx_StdPeriph_Driver/src/stm32f4xx_usart.c ****     [..]
 867:Drivers/STM32F4xx_StdPeriph_Driver/src/stm32f4xx_usart.c ****     This subsection provides a set of functions allowing to manage the USART 
 868:Drivers/STM32F4xx_StdPeriph_Driver/src/stm32f4xx_usart.c ****     Smartcard communication.
 869:Drivers/STM32F4xx_StdPeriph_Driver/src/stm32f4xx_usart.c ****     [..]
 870:Drivers/STM32F4xx_StdPeriph_Driver/src/stm32f4xx_usart.c ****     The Smartcard interface is designed to support asynchronous protocol Smartcards as
 871:Drivers/STM32F4xx_StdPeriph_Driver/src/stm32f4xx_usart.c ****     defined in the ISO 7816-3 standard.
 872:Drivers/STM32F4xx_StdPeriph_Driver/src/stm32f4xx_usart.c ****     [..]
 873:Drivers/STM32F4xx_StdPeriph_Driver/src/stm32f4xx_usart.c ****     The USART can provide a clock to the smartcard through the SCLK output.
 874:Drivers/STM32F4xx_StdPeriph_Driver/src/stm32f4xx_usart.c ****     In smartcard mode, SCLK is not associated to the communication but is simply derived 
 875:Drivers/STM32F4xx_StdPeriph_Driver/src/stm32f4xx_usart.c ****     from the internal peripheral input clock through a 5-bit prescaler.
 876:Drivers/STM32F4xx_StdPeriph_Driver/src/stm32f4xx_usart.c ****     [..]
 877:Drivers/STM32F4xx_StdPeriph_Driver/src/stm32f4xx_usart.c ****     Smartcard communication is possible through the following procedure:
 878:Drivers/STM32F4xx_StdPeriph_Driver/src/stm32f4xx_usart.c ****       (#) Configures the Smartcard Prescaler using the USART_SetPrescaler() function.
 879:Drivers/STM32F4xx_StdPeriph_Driver/src/stm32f4xx_usart.c ****       (#) Configures the Smartcard Guard Time using the USART_SetGuardTime() function.
 880:Drivers/STM32F4xx_StdPeriph_Driver/src/stm32f4xx_usart.c ****       (#) Program the USART clock using the USART_ClockInit() function as following:
 881:Drivers/STM32F4xx_StdPeriph_Driver/src/stm32f4xx_usart.c ****         (++) USART Clock enabled
 882:Drivers/STM32F4xx_StdPeriph_Driver/src/stm32f4xx_usart.c ****         (++) USART CPOL Low
 883:Drivers/STM32F4xx_StdPeriph_Driver/src/stm32f4xx_usart.c ****         (++) USART CPHA on first edge
 884:Drivers/STM32F4xx_StdPeriph_Driver/src/stm32f4xx_usart.c ****         (++) USART Last Bit Clock Enabled
 885:Drivers/STM32F4xx_StdPeriph_Driver/src/stm32f4xx_usart.c ****       (#) Program the Smartcard interface using the USART_Init() function as following:
 886:Drivers/STM32F4xx_StdPeriph_Driver/src/stm32f4xx_usart.c ****         (++) Word Length = 9 Bits
 887:Drivers/STM32F4xx_StdPeriph_Driver/src/stm32f4xx_usart.c ****         (++) 1.5 Stop Bit
 888:Drivers/STM32F4xx_StdPeriph_Driver/src/stm32f4xx_usart.c ****         (++) Even parity
 889:Drivers/STM32F4xx_StdPeriph_Driver/src/stm32f4xx_usart.c ****         (++) BaudRate = 12096 baud
 890:Drivers/STM32F4xx_StdPeriph_Driver/src/stm32f4xx_usart.c ****         (++) Hardware flow control disabled (RTS and CTS signals)
 891:Drivers/STM32F4xx_StdPeriph_Driver/src/stm32f4xx_usart.c ****         (++) Tx and Rx enabled
 892:Drivers/STM32F4xx_StdPeriph_Driver/src/stm32f4xx_usart.c ****       (#) POptionally you can enable the parity error interrupt using the USART_ITConfig()
 893:Drivers/STM32F4xx_StdPeriph_Driver/src/stm32f4xx_usart.c ****           function
 894:Drivers/STM32F4xx_StdPeriph_Driver/src/stm32f4xx_usart.c ****       (#) PEnable the USART using the USART_Cmd() function.
 895:Drivers/STM32F4xx_StdPeriph_Driver/src/stm32f4xx_usart.c ****       (#) PEnable the Smartcard NACK using the USART_SmartCardNACKCmd() function.
 896:Drivers/STM32F4xx_StdPeriph_Driver/src/stm32f4xx_usart.c ****       (#) PEnable the Smartcard interface using the USART_SmartCardCmd() function.
 897:Drivers/STM32F4xx_StdPeriph_Driver/src/stm32f4xx_usart.c **** 
 898:Drivers/STM32F4xx_StdPeriph_Driver/src/stm32f4xx_usart.c ****     Please refer to the ISO 7816-3 specification for more details.
 899:Drivers/STM32F4xx_StdPeriph_Driver/src/stm32f4xx_usart.c **** 
 900:Drivers/STM32F4xx_StdPeriph_Driver/src/stm32f4xx_usart.c ****       -@- It is also possible to choose 0.5 stop bit for receiving but it is recommended 
 901:Drivers/STM32F4xx_StdPeriph_Driver/src/stm32f4xx_usart.c ****           to use 1.5 stop bits for both transmitting and receiving to avoid switching 
 902:Drivers/STM32F4xx_StdPeriph_Driver/src/stm32f4xx_usart.c ****           between the two configurations.
 903:Drivers/STM32F4xx_StdPeriph_Driver/src/stm32f4xx_usart.c ****       -@- In smartcard mode, the following bits must be kept cleared:
 904:Drivers/STM32F4xx_StdPeriph_Driver/src/stm32f4xx_usart.c ****         (+@) LINEN bit in the USART_CR2 register.
 905:Drivers/STM32F4xx_StdPeriph_Driver/src/stm32f4xx_usart.c ****         (+@) HDSEL and IREN bits in the USART_CR3 register.
ARM GAS  /tmp/cc396ZZ5.s 			page 36


 906:Drivers/STM32F4xx_StdPeriph_Driver/src/stm32f4xx_usart.c ****       -@- Smartcard mode is available on USART peripherals only (not available on UART4 
 907:Drivers/STM32F4xx_StdPeriph_Driver/src/stm32f4xx_usart.c ****           and UART5 peripherals).
 908:Drivers/STM32F4xx_StdPeriph_Driver/src/stm32f4xx_usart.c **** 
 909:Drivers/STM32F4xx_StdPeriph_Driver/src/stm32f4xx_usart.c **** @endverbatim
 910:Drivers/STM32F4xx_StdPeriph_Driver/src/stm32f4xx_usart.c ****   * @{
 911:Drivers/STM32F4xx_StdPeriph_Driver/src/stm32f4xx_usart.c ****   */
 912:Drivers/STM32F4xx_StdPeriph_Driver/src/stm32f4xx_usart.c **** 
 913:Drivers/STM32F4xx_StdPeriph_Driver/src/stm32f4xx_usart.c **** /**
 914:Drivers/STM32F4xx_StdPeriph_Driver/src/stm32f4xx_usart.c ****   * @brief  Sets the specified USART guard time.
 915:Drivers/STM32F4xx_StdPeriph_Driver/src/stm32f4xx_usart.c ****   * @param  USARTx: where x can be 1, 2, 3 or 6 to select the USART or 
 916:Drivers/STM32F4xx_StdPeriph_Driver/src/stm32f4xx_usart.c ****   *         UART peripheral.
 917:Drivers/STM32F4xx_StdPeriph_Driver/src/stm32f4xx_usart.c ****   * @param  USART_GuardTime: specifies the guard time.   
 918:Drivers/STM32F4xx_StdPeriph_Driver/src/stm32f4xx_usart.c ****   * @retval None
 919:Drivers/STM32F4xx_StdPeriph_Driver/src/stm32f4xx_usart.c ****   */
 920:Drivers/STM32F4xx_StdPeriph_Driver/src/stm32f4xx_usart.c **** void USART_SetGuardTime(USART_TypeDef* USARTx, uint8_t USART_GuardTime)
 921:Drivers/STM32F4xx_StdPeriph_Driver/src/stm32f4xx_usart.c **** {    
 1087              		.loc 1 921 1 is_stmt 1 view -0
 1088              		.cfi_startproc
 1089              		@ args = 0, pretend = 0, frame = 0
 1090              		@ frame_needed = 0, uses_anonymous_args = 0
 1091              		@ link register save eliminated.
 922:Drivers/STM32F4xx_StdPeriph_Driver/src/stm32f4xx_usart.c ****   /* Check the parameters */
 923:Drivers/STM32F4xx_StdPeriph_Driver/src/stm32f4xx_usart.c ****   assert_param(IS_USART_1236_PERIPH(USARTx));
 1092              		.loc 1 923 3 view .LVU299
 924:Drivers/STM32F4xx_StdPeriph_Driver/src/stm32f4xx_usart.c ****   
 925:Drivers/STM32F4xx_StdPeriph_Driver/src/stm32f4xx_usart.c ****   /* Clear the USART Guard time */
 926:Drivers/STM32F4xx_StdPeriph_Driver/src/stm32f4xx_usart.c ****   USARTx->GTPR &= USART_GTPR_PSC;
 1093              		.loc 1 926 3 view .LVU300
 1094              		.loc 1 926 16 is_stmt 0 view .LVU301
 1095 0000 028B     		ldrh	r2, [r0, #24]
 1096 0002 D2B2     		uxtb	r2, r2
 1097 0004 0283     		strh	r2, [r0, #24]	@ movhi
 927:Drivers/STM32F4xx_StdPeriph_Driver/src/stm32f4xx_usart.c ****   /* Set the USART guard time */
 928:Drivers/STM32F4xx_StdPeriph_Driver/src/stm32f4xx_usart.c ****   USARTx->GTPR |= (uint16_t)((uint16_t)USART_GuardTime << 0x08);
 1098              		.loc 1 928 3 is_stmt 1 view .LVU302
 1099              		.loc 1 928 16 is_stmt 0 view .LVU303
 1100 0006 038B     		ldrh	r3, [r0, #24]
 1101 0008 9BB2     		uxth	r3, r3
 1102 000a 43EA0123 		orr	r3, r3, r1, lsl #8
 1103 000e 0383     		strh	r3, [r0, #24]	@ movhi
 929:Drivers/STM32F4xx_StdPeriph_Driver/src/stm32f4xx_usart.c **** }
 1104              		.loc 1 929 1 view .LVU304
 1105 0010 7047     		bx	lr
 1106              		.cfi_endproc
 1107              	.LFE141:
 1109              		.section	.text.USART_SmartCardCmd,"ax",%progbits
 1110              		.align	1
 1111              		.global	USART_SmartCardCmd
 1112              		.syntax unified
 1113              		.thumb
 1114              		.thumb_func
 1115              		.fpu fpv4-sp-d16
 1117              	USART_SmartCardCmd:
 1118              	.LVL95:
 1119              	.LFB142:
 930:Drivers/STM32F4xx_StdPeriph_Driver/src/stm32f4xx_usart.c **** 
 931:Drivers/STM32F4xx_StdPeriph_Driver/src/stm32f4xx_usart.c **** /**
ARM GAS  /tmp/cc396ZZ5.s 			page 37


 932:Drivers/STM32F4xx_StdPeriph_Driver/src/stm32f4xx_usart.c ****   * @brief  Enables or disables the USART's Smart Card mode.
 933:Drivers/STM32F4xx_StdPeriph_Driver/src/stm32f4xx_usart.c ****   * @param  USARTx: where x can be 1, 2, 3 or 6 to select the USART or 
 934:Drivers/STM32F4xx_StdPeriph_Driver/src/stm32f4xx_usart.c ****   *         UART peripheral.
 935:Drivers/STM32F4xx_StdPeriph_Driver/src/stm32f4xx_usart.c ****   * @param  NewState: new state of the Smart Card mode.
 936:Drivers/STM32F4xx_StdPeriph_Driver/src/stm32f4xx_usart.c ****   *          This parameter can be: ENABLE or DISABLE.      
 937:Drivers/STM32F4xx_StdPeriph_Driver/src/stm32f4xx_usart.c ****   * @retval None
 938:Drivers/STM32F4xx_StdPeriph_Driver/src/stm32f4xx_usart.c ****   */
 939:Drivers/STM32F4xx_StdPeriph_Driver/src/stm32f4xx_usart.c **** void USART_SmartCardCmd(USART_TypeDef* USARTx, FunctionalState NewState)
 940:Drivers/STM32F4xx_StdPeriph_Driver/src/stm32f4xx_usart.c **** {
 1120              		.loc 1 940 1 is_stmt 1 view -0
 1121              		.cfi_startproc
 1122              		@ args = 0, pretend = 0, frame = 0
 1123              		@ frame_needed = 0, uses_anonymous_args = 0
 1124              		@ link register save eliminated.
 941:Drivers/STM32F4xx_StdPeriph_Driver/src/stm32f4xx_usart.c ****   /* Check the parameters */
 942:Drivers/STM32F4xx_StdPeriph_Driver/src/stm32f4xx_usart.c ****   assert_param(IS_USART_1236_PERIPH(USARTx));
 1125              		.loc 1 942 3 view .LVU306
 943:Drivers/STM32F4xx_StdPeriph_Driver/src/stm32f4xx_usart.c ****   assert_param(IS_FUNCTIONAL_STATE(NewState));
 1126              		.loc 1 943 3 view .LVU307
 944:Drivers/STM32F4xx_StdPeriph_Driver/src/stm32f4xx_usart.c ****   if (NewState != DISABLE)
 1127              		.loc 1 944 3 view .LVU308
 1128              		.loc 1 944 6 is_stmt 0 view .LVU309
 1129 0000 29B1     		cbz	r1, .L65
 945:Drivers/STM32F4xx_StdPeriph_Driver/src/stm32f4xx_usart.c ****   {
 946:Drivers/STM32F4xx_StdPeriph_Driver/src/stm32f4xx_usart.c ****     /* Enable the SC mode by setting the SCEN bit in the CR3 register */
 947:Drivers/STM32F4xx_StdPeriph_Driver/src/stm32f4xx_usart.c ****     USARTx->CR3 |= USART_CR3_SCEN;
 1130              		.loc 1 947 5 is_stmt 1 view .LVU310
 1131              		.loc 1 947 17 is_stmt 0 view .LVU311
 1132 0002 838A     		ldrh	r3, [r0, #20]
 1133 0004 9BB2     		uxth	r3, r3
 1134 0006 43F02003 		orr	r3, r3, #32
 1135 000a 8382     		strh	r3, [r0, #20]	@ movhi
 1136 000c 7047     		bx	lr
 1137              	.L65:
 948:Drivers/STM32F4xx_StdPeriph_Driver/src/stm32f4xx_usart.c ****   }
 949:Drivers/STM32F4xx_StdPeriph_Driver/src/stm32f4xx_usart.c ****   else
 950:Drivers/STM32F4xx_StdPeriph_Driver/src/stm32f4xx_usart.c ****   {
 951:Drivers/STM32F4xx_StdPeriph_Driver/src/stm32f4xx_usart.c ****     /* Disable the SC mode by clearing the SCEN bit in the CR3 register */
 952:Drivers/STM32F4xx_StdPeriph_Driver/src/stm32f4xx_usart.c ****     USARTx->CR3 &= (uint16_t)~((uint16_t)USART_CR3_SCEN);
 1138              		.loc 1 952 5 is_stmt 1 view .LVU312
 1139              		.loc 1 952 17 is_stmt 0 view .LVU313
 1140 000e 838A     		ldrh	r3, [r0, #20]
 1141 0010 9BB2     		uxth	r3, r3
 1142 0012 23F02003 		bic	r3, r3, #32
 1143 0016 9BB2     		uxth	r3, r3
 1144 0018 8382     		strh	r3, [r0, #20]	@ movhi
 953:Drivers/STM32F4xx_StdPeriph_Driver/src/stm32f4xx_usart.c ****   }
 954:Drivers/STM32F4xx_StdPeriph_Driver/src/stm32f4xx_usart.c **** }
 1145              		.loc 1 954 1 view .LVU314
 1146 001a 7047     		bx	lr
 1147              		.cfi_endproc
 1148              	.LFE142:
 1150              		.section	.text.USART_SmartCardNACKCmd,"ax",%progbits
 1151              		.align	1
 1152              		.global	USART_SmartCardNACKCmd
 1153              		.syntax unified
 1154              		.thumb
ARM GAS  /tmp/cc396ZZ5.s 			page 38


 1155              		.thumb_func
 1156              		.fpu fpv4-sp-d16
 1158              	USART_SmartCardNACKCmd:
 1159              	.LVL96:
 1160              	.LFB143:
 955:Drivers/STM32F4xx_StdPeriph_Driver/src/stm32f4xx_usart.c **** 
 956:Drivers/STM32F4xx_StdPeriph_Driver/src/stm32f4xx_usart.c **** /**
 957:Drivers/STM32F4xx_StdPeriph_Driver/src/stm32f4xx_usart.c ****   * @brief  Enables or disables NACK transmission.
 958:Drivers/STM32F4xx_StdPeriph_Driver/src/stm32f4xx_usart.c ****   * @param  USARTx: where x can be 1, 2, 3 or 6 to select the USART or 
 959:Drivers/STM32F4xx_StdPeriph_Driver/src/stm32f4xx_usart.c ****   *         UART peripheral.
 960:Drivers/STM32F4xx_StdPeriph_Driver/src/stm32f4xx_usart.c ****   * @param  NewState: new state of the NACK transmission.
 961:Drivers/STM32F4xx_StdPeriph_Driver/src/stm32f4xx_usart.c ****   *          This parameter can be: ENABLE or DISABLE.  
 962:Drivers/STM32F4xx_StdPeriph_Driver/src/stm32f4xx_usart.c ****   * @retval None
 963:Drivers/STM32F4xx_StdPeriph_Driver/src/stm32f4xx_usart.c ****   */
 964:Drivers/STM32F4xx_StdPeriph_Driver/src/stm32f4xx_usart.c **** void USART_SmartCardNACKCmd(USART_TypeDef* USARTx, FunctionalState NewState)
 965:Drivers/STM32F4xx_StdPeriph_Driver/src/stm32f4xx_usart.c **** {
 1161              		.loc 1 965 1 is_stmt 1 view -0
 1162              		.cfi_startproc
 1163              		@ args = 0, pretend = 0, frame = 0
 1164              		@ frame_needed = 0, uses_anonymous_args = 0
 1165              		@ link register save eliminated.
 966:Drivers/STM32F4xx_StdPeriph_Driver/src/stm32f4xx_usart.c ****   /* Check the parameters */
 967:Drivers/STM32F4xx_StdPeriph_Driver/src/stm32f4xx_usart.c ****   assert_param(IS_USART_1236_PERIPH(USARTx)); 
 1166              		.loc 1 967 3 view .LVU316
 968:Drivers/STM32F4xx_StdPeriph_Driver/src/stm32f4xx_usart.c ****   assert_param(IS_FUNCTIONAL_STATE(NewState));
 1167              		.loc 1 968 3 view .LVU317
 969:Drivers/STM32F4xx_StdPeriph_Driver/src/stm32f4xx_usart.c ****   if (NewState != DISABLE)
 1168              		.loc 1 969 3 view .LVU318
 1169              		.loc 1 969 6 is_stmt 0 view .LVU319
 1170 0000 29B1     		cbz	r1, .L68
 970:Drivers/STM32F4xx_StdPeriph_Driver/src/stm32f4xx_usart.c ****   {
 971:Drivers/STM32F4xx_StdPeriph_Driver/src/stm32f4xx_usart.c ****     /* Enable the NACK transmission by setting the NACK bit in the CR3 register */
 972:Drivers/STM32F4xx_StdPeriph_Driver/src/stm32f4xx_usart.c ****     USARTx->CR3 |= USART_CR3_NACK;
 1171              		.loc 1 972 5 is_stmt 1 view .LVU320
 1172              		.loc 1 972 17 is_stmt 0 view .LVU321
 1173 0002 838A     		ldrh	r3, [r0, #20]
 1174 0004 9BB2     		uxth	r3, r3
 1175 0006 43F01003 		orr	r3, r3, #16
 1176 000a 8382     		strh	r3, [r0, #20]	@ movhi
 1177 000c 7047     		bx	lr
 1178              	.L68:
 973:Drivers/STM32F4xx_StdPeriph_Driver/src/stm32f4xx_usart.c ****   }
 974:Drivers/STM32F4xx_StdPeriph_Driver/src/stm32f4xx_usart.c ****   else
 975:Drivers/STM32F4xx_StdPeriph_Driver/src/stm32f4xx_usart.c ****   {
 976:Drivers/STM32F4xx_StdPeriph_Driver/src/stm32f4xx_usart.c ****     /* Disable the NACK transmission by clearing the NACK bit in the CR3 register */
 977:Drivers/STM32F4xx_StdPeriph_Driver/src/stm32f4xx_usart.c ****     USARTx->CR3 &= (uint16_t)~((uint16_t)USART_CR3_NACK);
 1179              		.loc 1 977 5 is_stmt 1 view .LVU322
 1180              		.loc 1 977 17 is_stmt 0 view .LVU323
 1181 000e 838A     		ldrh	r3, [r0, #20]
 1182 0010 9BB2     		uxth	r3, r3
 1183 0012 23F01003 		bic	r3, r3, #16
 1184 0016 9BB2     		uxth	r3, r3
 1185 0018 8382     		strh	r3, [r0, #20]	@ movhi
 978:Drivers/STM32F4xx_StdPeriph_Driver/src/stm32f4xx_usart.c ****   }
 979:Drivers/STM32F4xx_StdPeriph_Driver/src/stm32f4xx_usart.c **** }
 1186              		.loc 1 979 1 view .LVU324
 1187 001a 7047     		bx	lr
ARM GAS  /tmp/cc396ZZ5.s 			page 39


 1188              		.cfi_endproc
 1189              	.LFE143:
 1191              		.section	.text.USART_IrDAConfig,"ax",%progbits
 1192              		.align	1
 1193              		.global	USART_IrDAConfig
 1194              		.syntax unified
 1195              		.thumb
 1196              		.thumb_func
 1197              		.fpu fpv4-sp-d16
 1199              	USART_IrDAConfig:
 1200              	.LVL97:
 1201              	.LFB144:
 980:Drivers/STM32F4xx_StdPeriph_Driver/src/stm32f4xx_usart.c **** 
 981:Drivers/STM32F4xx_StdPeriph_Driver/src/stm32f4xx_usart.c **** /**
 982:Drivers/STM32F4xx_StdPeriph_Driver/src/stm32f4xx_usart.c ****   * @}
 983:Drivers/STM32F4xx_StdPeriph_Driver/src/stm32f4xx_usart.c ****   */
 984:Drivers/STM32F4xx_StdPeriph_Driver/src/stm32f4xx_usart.c **** 
 985:Drivers/STM32F4xx_StdPeriph_Driver/src/stm32f4xx_usart.c **** /** @defgroup USART_Group7 IrDA mode functions
 986:Drivers/STM32F4xx_StdPeriph_Driver/src/stm32f4xx_usart.c ****  *  @brief   IrDA mode functions 
 987:Drivers/STM32F4xx_StdPeriph_Driver/src/stm32f4xx_usart.c ****  *
 988:Drivers/STM32F4xx_StdPeriph_Driver/src/stm32f4xx_usart.c **** @verbatim   
 989:Drivers/STM32F4xx_StdPeriph_Driver/src/stm32f4xx_usart.c ****  ===============================================================================
 990:Drivers/STM32F4xx_StdPeriph_Driver/src/stm32f4xx_usart.c ****                         ##### IrDA mode functions #####
 991:Drivers/STM32F4xx_StdPeriph_Driver/src/stm32f4xx_usart.c ****  ===============================================================================  
 992:Drivers/STM32F4xx_StdPeriph_Driver/src/stm32f4xx_usart.c ****     [..]
 993:Drivers/STM32F4xx_StdPeriph_Driver/src/stm32f4xx_usart.c ****     This subsection provides a set of functions allowing to manage the USART 
 994:Drivers/STM32F4xx_StdPeriph_Driver/src/stm32f4xx_usart.c ****     IrDA communication.
 995:Drivers/STM32F4xx_StdPeriph_Driver/src/stm32f4xx_usart.c ****     [..]
 996:Drivers/STM32F4xx_StdPeriph_Driver/src/stm32f4xx_usart.c ****     IrDA is a half duplex communication protocol. If the Transmitter is busy, any data
 997:Drivers/STM32F4xx_StdPeriph_Driver/src/stm32f4xx_usart.c ****     on the IrDA receive line will be ignored by the IrDA decoder and if the Receiver 
 998:Drivers/STM32F4xx_StdPeriph_Driver/src/stm32f4xx_usart.c ****     is busy, data on the TX from the USART to IrDA will not be encoded by IrDA.
 999:Drivers/STM32F4xx_StdPeriph_Driver/src/stm32f4xx_usart.c ****     While receiving data, transmission should be avoided as the data to be transmitted
1000:Drivers/STM32F4xx_StdPeriph_Driver/src/stm32f4xx_usart.c ****     could be corrupted.
1001:Drivers/STM32F4xx_StdPeriph_Driver/src/stm32f4xx_usart.c ****     [..]
1002:Drivers/STM32F4xx_StdPeriph_Driver/src/stm32f4xx_usart.c ****     IrDA communication is possible through the following procedure:
1003:Drivers/STM32F4xx_StdPeriph_Driver/src/stm32f4xx_usart.c ****       (#) Program the Baud rate, Word length = 8 bits, Stop bits, Parity, Transmitter/Receiver 
1004:Drivers/STM32F4xx_StdPeriph_Driver/src/stm32f4xx_usart.c ****           modes and hardware flow control values using the USART_Init() function.
1005:Drivers/STM32F4xx_StdPeriph_Driver/src/stm32f4xx_usart.c ****       (#) Enable the USART using the USART_Cmd() function.
1006:Drivers/STM32F4xx_StdPeriph_Driver/src/stm32f4xx_usart.c ****       (#) Configures the IrDA pulse width by configuring the prescaler using  
1007:Drivers/STM32F4xx_StdPeriph_Driver/src/stm32f4xx_usart.c ****           the USART_SetPrescaler() function.
1008:Drivers/STM32F4xx_StdPeriph_Driver/src/stm32f4xx_usart.c ****       (#) Configures the IrDA  USART_IrDAMode_LowPower or USART_IrDAMode_Normal mode
1009:Drivers/STM32F4xx_StdPeriph_Driver/src/stm32f4xx_usart.c ****           using the USART_IrDAConfig() function.
1010:Drivers/STM32F4xx_StdPeriph_Driver/src/stm32f4xx_usart.c ****       (#) Enable the IrDA using the USART_IrDACmd() function.
1011:Drivers/STM32F4xx_StdPeriph_Driver/src/stm32f4xx_usart.c **** 
1012:Drivers/STM32F4xx_StdPeriph_Driver/src/stm32f4xx_usart.c ****       -@- A pulse of width less than two and greater than one PSC period(s) may or may
1013:Drivers/STM32F4xx_StdPeriph_Driver/src/stm32f4xx_usart.c ****           not be rejected.
1014:Drivers/STM32F4xx_StdPeriph_Driver/src/stm32f4xx_usart.c ****       -@- The receiver set up time should be managed by software. The IrDA physical layer
1015:Drivers/STM32F4xx_StdPeriph_Driver/src/stm32f4xx_usart.c ****           specification specifies a minimum of 10 ms delay between transmission and 
1016:Drivers/STM32F4xx_StdPeriph_Driver/src/stm32f4xx_usart.c ****           reception (IrDA is a half duplex protocol).
1017:Drivers/STM32F4xx_StdPeriph_Driver/src/stm32f4xx_usart.c ****       -@- In IrDA mode, the following bits must be kept cleared:
1018:Drivers/STM32F4xx_StdPeriph_Driver/src/stm32f4xx_usart.c ****         (+@) LINEN, STOP and CLKEN bits in the USART_CR2 register.
1019:Drivers/STM32F4xx_StdPeriph_Driver/src/stm32f4xx_usart.c ****         (+@) SCEN and HDSEL bits in the USART_CR3 register.
1020:Drivers/STM32F4xx_StdPeriph_Driver/src/stm32f4xx_usart.c **** 
1021:Drivers/STM32F4xx_StdPeriph_Driver/src/stm32f4xx_usart.c **** @endverbatim
1022:Drivers/STM32F4xx_StdPeriph_Driver/src/stm32f4xx_usart.c ****   * @{
1023:Drivers/STM32F4xx_StdPeriph_Driver/src/stm32f4xx_usart.c ****   */
1024:Drivers/STM32F4xx_StdPeriph_Driver/src/stm32f4xx_usart.c **** 
ARM GAS  /tmp/cc396ZZ5.s 			page 40


1025:Drivers/STM32F4xx_StdPeriph_Driver/src/stm32f4xx_usart.c **** /**
1026:Drivers/STM32F4xx_StdPeriph_Driver/src/stm32f4xx_usart.c ****   * @brief  Configures the USART's IrDA interface.
1027:Drivers/STM32F4xx_StdPeriph_Driver/src/stm32f4xx_usart.c ****   * @param  USARTx: where x can be 1, 2, 3, 4, 5, 6, 7 or 8 to select the USART or 
1028:Drivers/STM32F4xx_StdPeriph_Driver/src/stm32f4xx_usart.c ****   *         UART peripheral.
1029:Drivers/STM32F4xx_StdPeriph_Driver/src/stm32f4xx_usart.c ****   * @param  USART_IrDAMode: specifies the IrDA mode.
1030:Drivers/STM32F4xx_StdPeriph_Driver/src/stm32f4xx_usart.c ****   *          This parameter can be one of the following values:
1031:Drivers/STM32F4xx_StdPeriph_Driver/src/stm32f4xx_usart.c ****   *            @arg USART_IrDAMode_LowPower
1032:Drivers/STM32F4xx_StdPeriph_Driver/src/stm32f4xx_usart.c ****   *            @arg USART_IrDAMode_Normal
1033:Drivers/STM32F4xx_StdPeriph_Driver/src/stm32f4xx_usart.c ****   * @retval None
1034:Drivers/STM32F4xx_StdPeriph_Driver/src/stm32f4xx_usart.c ****   */
1035:Drivers/STM32F4xx_StdPeriph_Driver/src/stm32f4xx_usart.c **** void USART_IrDAConfig(USART_TypeDef* USARTx, uint16_t USART_IrDAMode)
1036:Drivers/STM32F4xx_StdPeriph_Driver/src/stm32f4xx_usart.c **** {
 1202              		.loc 1 1036 1 is_stmt 1 view -0
 1203              		.cfi_startproc
 1204              		@ args = 0, pretend = 0, frame = 0
 1205              		@ frame_needed = 0, uses_anonymous_args = 0
 1206              		@ link register save eliminated.
1037:Drivers/STM32F4xx_StdPeriph_Driver/src/stm32f4xx_usart.c ****   /* Check the parameters */
1038:Drivers/STM32F4xx_StdPeriph_Driver/src/stm32f4xx_usart.c ****   assert_param(IS_USART_ALL_PERIPH(USARTx));
 1207              		.loc 1 1038 3 view .LVU326
1039:Drivers/STM32F4xx_StdPeriph_Driver/src/stm32f4xx_usart.c ****   assert_param(IS_USART_IRDA_MODE(USART_IrDAMode));
 1208              		.loc 1 1039 3 view .LVU327
1040:Drivers/STM32F4xx_StdPeriph_Driver/src/stm32f4xx_usart.c ****     
1041:Drivers/STM32F4xx_StdPeriph_Driver/src/stm32f4xx_usart.c ****   USARTx->CR3 &= (uint16_t)~((uint16_t)USART_CR3_IRLP);
 1209              		.loc 1 1041 3 view .LVU328
 1210              		.loc 1 1041 15 is_stmt 0 view .LVU329
 1211 0000 838A     		ldrh	r3, [r0, #20]
 1212 0002 9BB2     		uxth	r3, r3
 1213 0004 23F00403 		bic	r3, r3, #4
 1214 0008 9BB2     		uxth	r3, r3
 1215 000a 8382     		strh	r3, [r0, #20]	@ movhi
1042:Drivers/STM32F4xx_StdPeriph_Driver/src/stm32f4xx_usart.c ****   USARTx->CR3 |= USART_IrDAMode;
 1216              		.loc 1 1042 3 is_stmt 1 view .LVU330
 1217              		.loc 1 1042 15 is_stmt 0 view .LVU331
 1218 000c 838A     		ldrh	r3, [r0, #20]
 1219 000e 9BB2     		uxth	r3, r3
 1220 0010 0B43     		orrs	r3, r3, r1
 1221 0012 8382     		strh	r3, [r0, #20]	@ movhi
1043:Drivers/STM32F4xx_StdPeriph_Driver/src/stm32f4xx_usart.c **** }
 1222              		.loc 1 1043 1 view .LVU332
 1223 0014 7047     		bx	lr
 1224              		.cfi_endproc
 1225              	.LFE144:
 1227              		.section	.text.USART_IrDACmd,"ax",%progbits
 1228              		.align	1
 1229              		.global	USART_IrDACmd
 1230              		.syntax unified
 1231              		.thumb
 1232              		.thumb_func
 1233              		.fpu fpv4-sp-d16
 1235              	USART_IrDACmd:
 1236              	.LVL98:
 1237              	.LFB145:
1044:Drivers/STM32F4xx_StdPeriph_Driver/src/stm32f4xx_usart.c **** 
1045:Drivers/STM32F4xx_StdPeriph_Driver/src/stm32f4xx_usart.c **** /**
1046:Drivers/STM32F4xx_StdPeriph_Driver/src/stm32f4xx_usart.c ****   * @brief  Enables or disables the USART's IrDA interface.
1047:Drivers/STM32F4xx_StdPeriph_Driver/src/stm32f4xx_usart.c ****   * @param  USARTx: where x can be 1, 2, 3, 4, 5, 6, 7 or 8 to select the USART or 
ARM GAS  /tmp/cc396ZZ5.s 			page 41


1048:Drivers/STM32F4xx_StdPeriph_Driver/src/stm32f4xx_usart.c ****   *         UART peripheral.
1049:Drivers/STM32F4xx_StdPeriph_Driver/src/stm32f4xx_usart.c ****   * @param  NewState: new state of the IrDA mode.
1050:Drivers/STM32F4xx_StdPeriph_Driver/src/stm32f4xx_usart.c ****   *          This parameter can be: ENABLE or DISABLE.
1051:Drivers/STM32F4xx_StdPeriph_Driver/src/stm32f4xx_usart.c ****   * @retval None
1052:Drivers/STM32F4xx_StdPeriph_Driver/src/stm32f4xx_usart.c ****   */
1053:Drivers/STM32F4xx_StdPeriph_Driver/src/stm32f4xx_usart.c **** void USART_IrDACmd(USART_TypeDef* USARTx, FunctionalState NewState)
1054:Drivers/STM32F4xx_StdPeriph_Driver/src/stm32f4xx_usart.c **** {
 1238              		.loc 1 1054 1 is_stmt 1 view -0
 1239              		.cfi_startproc
 1240              		@ args = 0, pretend = 0, frame = 0
 1241              		@ frame_needed = 0, uses_anonymous_args = 0
 1242              		@ link register save eliminated.
1055:Drivers/STM32F4xx_StdPeriph_Driver/src/stm32f4xx_usart.c ****   /* Check the parameters */
1056:Drivers/STM32F4xx_StdPeriph_Driver/src/stm32f4xx_usart.c ****   assert_param(IS_USART_ALL_PERIPH(USARTx));
 1243              		.loc 1 1056 3 view .LVU334
1057:Drivers/STM32F4xx_StdPeriph_Driver/src/stm32f4xx_usart.c ****   assert_param(IS_FUNCTIONAL_STATE(NewState));
 1244              		.loc 1 1057 3 view .LVU335
1058:Drivers/STM32F4xx_StdPeriph_Driver/src/stm32f4xx_usart.c ****     
1059:Drivers/STM32F4xx_StdPeriph_Driver/src/stm32f4xx_usart.c ****   if (NewState != DISABLE)
 1245              		.loc 1 1059 3 view .LVU336
 1246              		.loc 1 1059 6 is_stmt 0 view .LVU337
 1247 0000 29B1     		cbz	r1, .L72
1060:Drivers/STM32F4xx_StdPeriph_Driver/src/stm32f4xx_usart.c ****   {
1061:Drivers/STM32F4xx_StdPeriph_Driver/src/stm32f4xx_usart.c ****     /* Enable the IrDA mode by setting the IREN bit in the CR3 register */
1062:Drivers/STM32F4xx_StdPeriph_Driver/src/stm32f4xx_usart.c ****     USARTx->CR3 |= USART_CR3_IREN;
 1248              		.loc 1 1062 5 is_stmt 1 view .LVU338
 1249              		.loc 1 1062 17 is_stmt 0 view .LVU339
 1250 0002 838A     		ldrh	r3, [r0, #20]
 1251 0004 9BB2     		uxth	r3, r3
 1252 0006 43F00203 		orr	r3, r3, #2
 1253 000a 8382     		strh	r3, [r0, #20]	@ movhi
 1254 000c 7047     		bx	lr
 1255              	.L72:
1063:Drivers/STM32F4xx_StdPeriph_Driver/src/stm32f4xx_usart.c ****   }
1064:Drivers/STM32F4xx_StdPeriph_Driver/src/stm32f4xx_usart.c ****   else
1065:Drivers/STM32F4xx_StdPeriph_Driver/src/stm32f4xx_usart.c ****   {
1066:Drivers/STM32F4xx_StdPeriph_Driver/src/stm32f4xx_usart.c ****     /* Disable the IrDA mode by clearing the IREN bit in the CR3 register */
1067:Drivers/STM32F4xx_StdPeriph_Driver/src/stm32f4xx_usart.c ****     USARTx->CR3 &= (uint16_t)~((uint16_t)USART_CR3_IREN);
 1256              		.loc 1 1067 5 is_stmt 1 view .LVU340
 1257              		.loc 1 1067 17 is_stmt 0 view .LVU341
 1258 000e 838A     		ldrh	r3, [r0, #20]
 1259 0010 9BB2     		uxth	r3, r3
 1260 0012 23F00203 		bic	r3, r3, #2
 1261 0016 9BB2     		uxth	r3, r3
 1262 0018 8382     		strh	r3, [r0, #20]	@ movhi
1068:Drivers/STM32F4xx_StdPeriph_Driver/src/stm32f4xx_usart.c ****   }
1069:Drivers/STM32F4xx_StdPeriph_Driver/src/stm32f4xx_usart.c **** }
 1263              		.loc 1 1069 1 view .LVU342
 1264 001a 7047     		bx	lr
 1265              		.cfi_endproc
 1266              	.LFE145:
 1268              		.section	.text.USART_DMACmd,"ax",%progbits
 1269              		.align	1
 1270              		.global	USART_DMACmd
 1271              		.syntax unified
 1272              		.thumb
 1273              		.thumb_func
ARM GAS  /tmp/cc396ZZ5.s 			page 42


 1274              		.fpu fpv4-sp-d16
 1276              	USART_DMACmd:
 1277              	.LVL99:
 1278              	.LFB146:
1070:Drivers/STM32F4xx_StdPeriph_Driver/src/stm32f4xx_usart.c **** 
1071:Drivers/STM32F4xx_StdPeriph_Driver/src/stm32f4xx_usart.c **** /**
1072:Drivers/STM32F4xx_StdPeriph_Driver/src/stm32f4xx_usart.c ****   * @}
1073:Drivers/STM32F4xx_StdPeriph_Driver/src/stm32f4xx_usart.c ****   */
1074:Drivers/STM32F4xx_StdPeriph_Driver/src/stm32f4xx_usart.c **** 
1075:Drivers/STM32F4xx_StdPeriph_Driver/src/stm32f4xx_usart.c **** /** @defgroup USART_Group8 DMA transfers management functions
1076:Drivers/STM32F4xx_StdPeriph_Driver/src/stm32f4xx_usart.c ****  *  @brief   DMA transfers management functions
1077:Drivers/STM32F4xx_StdPeriph_Driver/src/stm32f4xx_usart.c ****  *
1078:Drivers/STM32F4xx_StdPeriph_Driver/src/stm32f4xx_usart.c **** @verbatim   
1079:Drivers/STM32F4xx_StdPeriph_Driver/src/stm32f4xx_usart.c ****  ===============================================================================
1080:Drivers/STM32F4xx_StdPeriph_Driver/src/stm32f4xx_usart.c ****               ##### DMA transfers management functions #####
1081:Drivers/STM32F4xx_StdPeriph_Driver/src/stm32f4xx_usart.c ****  ===============================================================================  
1082:Drivers/STM32F4xx_StdPeriph_Driver/src/stm32f4xx_usart.c **** 
1083:Drivers/STM32F4xx_StdPeriph_Driver/src/stm32f4xx_usart.c **** @endverbatim
1084:Drivers/STM32F4xx_StdPeriph_Driver/src/stm32f4xx_usart.c ****   * @{
1085:Drivers/STM32F4xx_StdPeriph_Driver/src/stm32f4xx_usart.c ****   */
1086:Drivers/STM32F4xx_StdPeriph_Driver/src/stm32f4xx_usart.c ****   
1087:Drivers/STM32F4xx_StdPeriph_Driver/src/stm32f4xx_usart.c **** /**
1088:Drivers/STM32F4xx_StdPeriph_Driver/src/stm32f4xx_usart.c ****   * @brief  Enables or disables the USART's DMA interface.
1089:Drivers/STM32F4xx_StdPeriph_Driver/src/stm32f4xx_usart.c ****   * @param  USARTx: where x can be 1, 2, 3, 4, 5, 6, 7 or 8 to select the USART or 
1090:Drivers/STM32F4xx_StdPeriph_Driver/src/stm32f4xx_usart.c ****   *         UART peripheral.
1091:Drivers/STM32F4xx_StdPeriph_Driver/src/stm32f4xx_usart.c ****   * @param  USART_DMAReq: specifies the DMA request.
1092:Drivers/STM32F4xx_StdPeriph_Driver/src/stm32f4xx_usart.c ****   *          This parameter can be any combination of the following values:
1093:Drivers/STM32F4xx_StdPeriph_Driver/src/stm32f4xx_usart.c ****   *            @arg USART_DMAReq_Tx: USART DMA transmit request
1094:Drivers/STM32F4xx_StdPeriph_Driver/src/stm32f4xx_usart.c ****   *            @arg USART_DMAReq_Rx: USART DMA receive request
1095:Drivers/STM32F4xx_StdPeriph_Driver/src/stm32f4xx_usart.c ****   * @param  NewState: new state of the DMA Request sources.
1096:Drivers/STM32F4xx_StdPeriph_Driver/src/stm32f4xx_usart.c ****   *          This parameter can be: ENABLE or DISABLE.   
1097:Drivers/STM32F4xx_StdPeriph_Driver/src/stm32f4xx_usart.c ****   * @retval None
1098:Drivers/STM32F4xx_StdPeriph_Driver/src/stm32f4xx_usart.c ****   */
1099:Drivers/STM32F4xx_StdPeriph_Driver/src/stm32f4xx_usart.c **** void USART_DMACmd(USART_TypeDef* USARTx, uint16_t USART_DMAReq, FunctionalState NewState)
1100:Drivers/STM32F4xx_StdPeriph_Driver/src/stm32f4xx_usart.c **** {
 1279              		.loc 1 1100 1 is_stmt 1 view -0
 1280              		.cfi_startproc
 1281              		@ args = 0, pretend = 0, frame = 0
 1282              		@ frame_needed = 0, uses_anonymous_args = 0
 1283              		@ link register save eliminated.
1101:Drivers/STM32F4xx_StdPeriph_Driver/src/stm32f4xx_usart.c ****   /* Check the parameters */
1102:Drivers/STM32F4xx_StdPeriph_Driver/src/stm32f4xx_usart.c ****   assert_param(IS_USART_ALL_PERIPH(USARTx));
 1284              		.loc 1 1102 3 view .LVU344
1103:Drivers/STM32F4xx_StdPeriph_Driver/src/stm32f4xx_usart.c ****   assert_param(IS_USART_DMAREQ(USART_DMAReq));  
 1285              		.loc 1 1103 3 view .LVU345
1104:Drivers/STM32F4xx_StdPeriph_Driver/src/stm32f4xx_usart.c ****   assert_param(IS_FUNCTIONAL_STATE(NewState)); 
 1286              		.loc 1 1104 3 view .LVU346
1105:Drivers/STM32F4xx_StdPeriph_Driver/src/stm32f4xx_usart.c **** 
1106:Drivers/STM32F4xx_StdPeriph_Driver/src/stm32f4xx_usart.c ****   if (NewState != DISABLE)
 1287              		.loc 1 1106 3 view .LVU347
 1288              		.loc 1 1106 6 is_stmt 0 view .LVU348
 1289 0000 22B1     		cbz	r2, .L75
1107:Drivers/STM32F4xx_StdPeriph_Driver/src/stm32f4xx_usart.c ****   {
1108:Drivers/STM32F4xx_StdPeriph_Driver/src/stm32f4xx_usart.c ****     /* Enable the DMA transfer for selected requests by setting the DMAT and/or
1109:Drivers/STM32F4xx_StdPeriph_Driver/src/stm32f4xx_usart.c ****        DMAR bits in the USART CR3 register */
1110:Drivers/STM32F4xx_StdPeriph_Driver/src/stm32f4xx_usart.c ****     USARTx->CR3 |= USART_DMAReq;
 1290              		.loc 1 1110 5 is_stmt 1 view .LVU349
ARM GAS  /tmp/cc396ZZ5.s 			page 43


 1291              		.loc 1 1110 17 is_stmt 0 view .LVU350
 1292 0002 838A     		ldrh	r3, [r0, #20]
 1293 0004 9BB2     		uxth	r3, r3
 1294 0006 1943     		orrs	r1, r1, r3
 1295              	.LVL100:
 1296              		.loc 1 1110 17 view .LVU351
 1297 0008 8182     		strh	r1, [r0, #20]	@ movhi
 1298 000a 7047     		bx	lr
 1299              	.LVL101:
 1300              	.L75:
1111:Drivers/STM32F4xx_StdPeriph_Driver/src/stm32f4xx_usart.c ****   }
1112:Drivers/STM32F4xx_StdPeriph_Driver/src/stm32f4xx_usart.c ****   else
1113:Drivers/STM32F4xx_StdPeriph_Driver/src/stm32f4xx_usart.c ****   {
1114:Drivers/STM32F4xx_StdPeriph_Driver/src/stm32f4xx_usart.c ****     /* Disable the DMA transfer for selected requests by clearing the DMAT and/or
1115:Drivers/STM32F4xx_StdPeriph_Driver/src/stm32f4xx_usart.c ****        DMAR bits in the USART CR3 register */
1116:Drivers/STM32F4xx_StdPeriph_Driver/src/stm32f4xx_usart.c ****     USARTx->CR3 &= (uint16_t)~USART_DMAReq;
 1301              		.loc 1 1116 5 is_stmt 1 view .LVU352
 1302              		.loc 1 1116 17 is_stmt 0 view .LVU353
 1303 000c 838A     		ldrh	r3, [r0, #20]
 1304              		.loc 1 1116 20 view .LVU354
 1305 000e C943     		mvns	r1, r1
 1306              	.LVL102:
 1307              		.loc 1 1116 20 view .LVU355
 1308 0010 89B2     		uxth	r1, r1
 1309              		.loc 1 1116 17 view .LVU356
 1310 0012 1940     		ands	r1, r1, r3
 1311 0014 8182     		strh	r1, [r0, #20]	@ movhi
1117:Drivers/STM32F4xx_StdPeriph_Driver/src/stm32f4xx_usart.c ****   }
1118:Drivers/STM32F4xx_StdPeriph_Driver/src/stm32f4xx_usart.c **** }
 1312              		.loc 1 1118 1 view .LVU357
 1313 0016 7047     		bx	lr
 1314              		.cfi_endproc
 1315              	.LFE146:
 1317              		.section	.text.USART_ITConfig,"ax",%progbits
 1318              		.align	1
 1319              		.global	USART_ITConfig
 1320              		.syntax unified
 1321              		.thumb
 1322              		.thumb_func
 1323              		.fpu fpv4-sp-d16
 1325              	USART_ITConfig:
 1326              	.LVL103:
 1327              	.LFB147:
1119:Drivers/STM32F4xx_StdPeriph_Driver/src/stm32f4xx_usart.c **** 
1120:Drivers/STM32F4xx_StdPeriph_Driver/src/stm32f4xx_usart.c **** /**
1121:Drivers/STM32F4xx_StdPeriph_Driver/src/stm32f4xx_usart.c ****   * @}
1122:Drivers/STM32F4xx_StdPeriph_Driver/src/stm32f4xx_usart.c ****   */
1123:Drivers/STM32F4xx_StdPeriph_Driver/src/stm32f4xx_usart.c ****   
1124:Drivers/STM32F4xx_StdPeriph_Driver/src/stm32f4xx_usart.c **** /** @defgroup USART_Group9 Interrupts and flags management functions
1125:Drivers/STM32F4xx_StdPeriph_Driver/src/stm32f4xx_usart.c ****  *  @brief   Interrupts and flags management functions 
1126:Drivers/STM32F4xx_StdPeriph_Driver/src/stm32f4xx_usart.c ****  *
1127:Drivers/STM32F4xx_StdPeriph_Driver/src/stm32f4xx_usart.c **** @verbatim   
1128:Drivers/STM32F4xx_StdPeriph_Driver/src/stm32f4xx_usart.c ****  ===============================================================================
1129:Drivers/STM32F4xx_StdPeriph_Driver/src/stm32f4xx_usart.c ****             ##### Interrupts and flags management functions #####
1130:Drivers/STM32F4xx_StdPeriph_Driver/src/stm32f4xx_usart.c ****  ===============================================================================  
1131:Drivers/STM32F4xx_StdPeriph_Driver/src/stm32f4xx_usart.c ****     [..]
1132:Drivers/STM32F4xx_StdPeriph_Driver/src/stm32f4xx_usart.c ****     This subsection provides a set of functions allowing to configure the USART 
ARM GAS  /tmp/cc396ZZ5.s 			page 44


1133:Drivers/STM32F4xx_StdPeriph_Driver/src/stm32f4xx_usart.c ****     Interrupts sources, DMA channels requests and check or clear the flags or 
1134:Drivers/STM32F4xx_StdPeriph_Driver/src/stm32f4xx_usart.c ****     pending bits status.
1135:Drivers/STM32F4xx_StdPeriph_Driver/src/stm32f4xx_usart.c ****     The user should identify which mode will be used in his application to manage 
1136:Drivers/STM32F4xx_StdPeriph_Driver/src/stm32f4xx_usart.c ****     the communication: Polling mode, Interrupt mode or DMA mode. 
1137:Drivers/STM32F4xx_StdPeriph_Driver/src/stm32f4xx_usart.c ****     
1138:Drivers/STM32F4xx_StdPeriph_Driver/src/stm32f4xx_usart.c ****     *** Polling Mode ***
1139:Drivers/STM32F4xx_StdPeriph_Driver/src/stm32f4xx_usart.c ****     ====================
1140:Drivers/STM32F4xx_StdPeriph_Driver/src/stm32f4xx_usart.c ****     [..]
1141:Drivers/STM32F4xx_StdPeriph_Driver/src/stm32f4xx_usart.c ****     In Polling Mode, the SPI communication can be managed by 10 flags:
1142:Drivers/STM32F4xx_StdPeriph_Driver/src/stm32f4xx_usart.c ****       (#) USART_FLAG_TXE : to indicate the status of the transmit buffer register
1143:Drivers/STM32F4xx_StdPeriph_Driver/src/stm32f4xx_usart.c ****       (#) USART_FLAG_RXNE : to indicate the status of the receive buffer register
1144:Drivers/STM32F4xx_StdPeriph_Driver/src/stm32f4xx_usart.c ****       (#) USART_FLAG_TC : to indicate the status of the transmit operation
1145:Drivers/STM32F4xx_StdPeriph_Driver/src/stm32f4xx_usart.c ****       (#) USART_FLAG_IDLE : to indicate the status of the Idle Line             
1146:Drivers/STM32F4xx_StdPeriph_Driver/src/stm32f4xx_usart.c ****       (#) USART_FLAG_CTS : to indicate the status of the nCTS input
1147:Drivers/STM32F4xx_StdPeriph_Driver/src/stm32f4xx_usart.c ****       (#) USART_FLAG_LBD : to indicate the status of the LIN break detection
1148:Drivers/STM32F4xx_StdPeriph_Driver/src/stm32f4xx_usart.c ****       (#) USART_FLAG_NE : to indicate if a noise error occur
1149:Drivers/STM32F4xx_StdPeriph_Driver/src/stm32f4xx_usart.c ****       (#) USART_FLAG_FE : to indicate if a frame error occur
1150:Drivers/STM32F4xx_StdPeriph_Driver/src/stm32f4xx_usart.c ****       (#) USART_FLAG_PE : to indicate if a parity error occur
1151:Drivers/STM32F4xx_StdPeriph_Driver/src/stm32f4xx_usart.c ****       (#) USART_FLAG_ORE : to indicate if an Overrun error occur
1152:Drivers/STM32F4xx_StdPeriph_Driver/src/stm32f4xx_usart.c ****     [..]
1153:Drivers/STM32F4xx_StdPeriph_Driver/src/stm32f4xx_usart.c ****     In this Mode it is advised to use the following functions:
1154:Drivers/STM32F4xx_StdPeriph_Driver/src/stm32f4xx_usart.c ****       (+) FlagStatus USART_GetFlagStatus(USART_TypeDef* USARTx, uint16_t USART_FLAG);
1155:Drivers/STM32F4xx_StdPeriph_Driver/src/stm32f4xx_usart.c ****       (+) void USART_ClearFlag(USART_TypeDef* USARTx, uint16_t USART_FLAG);
1156:Drivers/STM32F4xx_StdPeriph_Driver/src/stm32f4xx_usart.c **** 
1157:Drivers/STM32F4xx_StdPeriph_Driver/src/stm32f4xx_usart.c ****     *** Interrupt Mode ***
1158:Drivers/STM32F4xx_StdPeriph_Driver/src/stm32f4xx_usart.c ****     ======================
1159:Drivers/STM32F4xx_StdPeriph_Driver/src/stm32f4xx_usart.c ****     [..]
1160:Drivers/STM32F4xx_StdPeriph_Driver/src/stm32f4xx_usart.c ****     In Interrupt Mode, the USART communication can be managed by 8 interrupt sources
1161:Drivers/STM32F4xx_StdPeriph_Driver/src/stm32f4xx_usart.c ****     and 10 pending bits: 
1162:Drivers/STM32F4xx_StdPeriph_Driver/src/stm32f4xx_usart.c **** 
1163:Drivers/STM32F4xx_StdPeriph_Driver/src/stm32f4xx_usart.c ****       (#) Pending Bits:
1164:Drivers/STM32F4xx_StdPeriph_Driver/src/stm32f4xx_usart.c **** 
1165:Drivers/STM32F4xx_StdPeriph_Driver/src/stm32f4xx_usart.c ****         (##) USART_IT_TXE : to indicate the status of the transmit buffer register
1166:Drivers/STM32F4xx_StdPeriph_Driver/src/stm32f4xx_usart.c ****         (##) USART_IT_RXNE : to indicate the status of the receive buffer register
1167:Drivers/STM32F4xx_StdPeriph_Driver/src/stm32f4xx_usart.c ****         (##) USART_IT_TC : to indicate the status of the transmit operation
1168:Drivers/STM32F4xx_StdPeriph_Driver/src/stm32f4xx_usart.c ****         (##) USART_IT_IDLE : to indicate the status of the Idle Line             
1169:Drivers/STM32F4xx_StdPeriph_Driver/src/stm32f4xx_usart.c ****         (##) USART_IT_CTS : to indicate the status of the nCTS input
1170:Drivers/STM32F4xx_StdPeriph_Driver/src/stm32f4xx_usart.c ****         (##) USART_IT_LBD : to indicate the status of the LIN break detection
1171:Drivers/STM32F4xx_StdPeriph_Driver/src/stm32f4xx_usart.c ****         (##) USART_IT_NE : to indicate if a noise error occur
1172:Drivers/STM32F4xx_StdPeriph_Driver/src/stm32f4xx_usart.c ****         (##) USART_IT_FE : to indicate if a frame error occur
1173:Drivers/STM32F4xx_StdPeriph_Driver/src/stm32f4xx_usart.c ****         (##) USART_IT_PE : to indicate if a parity error occur
1174:Drivers/STM32F4xx_StdPeriph_Driver/src/stm32f4xx_usart.c ****         (##) USART_IT_ORE : to indicate if an Overrun error occur
1175:Drivers/STM32F4xx_StdPeriph_Driver/src/stm32f4xx_usart.c **** 
1176:Drivers/STM32F4xx_StdPeriph_Driver/src/stm32f4xx_usart.c ****       (#) Interrupt Source:
1177:Drivers/STM32F4xx_StdPeriph_Driver/src/stm32f4xx_usart.c **** 
1178:Drivers/STM32F4xx_StdPeriph_Driver/src/stm32f4xx_usart.c ****         (##) USART_IT_TXE : specifies the interrupt source for the Tx buffer empty 
1179:Drivers/STM32F4xx_StdPeriph_Driver/src/stm32f4xx_usart.c ****                             interrupt. 
1180:Drivers/STM32F4xx_StdPeriph_Driver/src/stm32f4xx_usart.c ****         (##) USART_IT_RXNE : specifies the interrupt source for the Rx buffer not 
1181:Drivers/STM32F4xx_StdPeriph_Driver/src/stm32f4xx_usart.c ****                              empty interrupt.
1182:Drivers/STM32F4xx_StdPeriph_Driver/src/stm32f4xx_usart.c ****         (##) USART_IT_TC : specifies the interrupt source for the Transmit complete 
1183:Drivers/STM32F4xx_StdPeriph_Driver/src/stm32f4xx_usart.c ****                            interrupt. 
1184:Drivers/STM32F4xx_StdPeriph_Driver/src/stm32f4xx_usart.c ****         (##) USART_IT_IDLE : specifies the interrupt source for the Idle Line interrupt.           
1185:Drivers/STM32F4xx_StdPeriph_Driver/src/stm32f4xx_usart.c ****         (##) USART_IT_CTS : specifies the interrupt source for the CTS interrupt. 
1186:Drivers/STM32F4xx_StdPeriph_Driver/src/stm32f4xx_usart.c ****         (##) USART_IT_LBD : specifies the interrupt source for the LIN break detection
1187:Drivers/STM32F4xx_StdPeriph_Driver/src/stm32f4xx_usart.c ****                             interrupt. 
1188:Drivers/STM32F4xx_StdPeriph_Driver/src/stm32f4xx_usart.c ****         (##) USART_IT_PE : specifies the interrupt source for the parity error interrupt. 
1189:Drivers/STM32F4xx_StdPeriph_Driver/src/stm32f4xx_usart.c ****         (##) USART_IT_ERR :  specifies the interrupt source for the errors interrupt.
ARM GAS  /tmp/cc396ZZ5.s 			page 45


1190:Drivers/STM32F4xx_StdPeriph_Driver/src/stm32f4xx_usart.c **** 
1191:Drivers/STM32F4xx_StdPeriph_Driver/src/stm32f4xx_usart.c ****       -@@- Some parameters are coded in order to use them as interrupt source 
1192:Drivers/STM32F4xx_StdPeriph_Driver/src/stm32f4xx_usart.c ****           or as pending bits.
1193:Drivers/STM32F4xx_StdPeriph_Driver/src/stm32f4xx_usart.c ****     [..]
1194:Drivers/STM32F4xx_StdPeriph_Driver/src/stm32f4xx_usart.c ****     In this Mode it is advised to use the following functions:
1195:Drivers/STM32F4xx_StdPeriph_Driver/src/stm32f4xx_usart.c ****       (+) void USART_ITConfig(USART_TypeDef* USARTx, uint16_t USART_IT, FunctionalState NewState);
1196:Drivers/STM32F4xx_StdPeriph_Driver/src/stm32f4xx_usart.c ****       (+) ITStatus USART_GetITStatus(USART_TypeDef* USARTx, uint16_t USART_IT);
1197:Drivers/STM32F4xx_StdPeriph_Driver/src/stm32f4xx_usart.c ****       (+) void USART_ClearITPendingBit(USART_TypeDef* USARTx, uint16_t USART_IT);
1198:Drivers/STM32F4xx_StdPeriph_Driver/src/stm32f4xx_usart.c **** 
1199:Drivers/STM32F4xx_StdPeriph_Driver/src/stm32f4xx_usart.c ****     *** DMA Mode ***
1200:Drivers/STM32F4xx_StdPeriph_Driver/src/stm32f4xx_usart.c ****     ================
1201:Drivers/STM32F4xx_StdPeriph_Driver/src/stm32f4xx_usart.c ****     [..]
1202:Drivers/STM32F4xx_StdPeriph_Driver/src/stm32f4xx_usart.c ****     In DMA Mode, the USART communication can be managed by 2 DMA Channel requests:
1203:Drivers/STM32F4xx_StdPeriph_Driver/src/stm32f4xx_usart.c ****       (#) USART_DMAReq_Tx: specifies the Tx buffer DMA transfer request
1204:Drivers/STM32F4xx_StdPeriph_Driver/src/stm32f4xx_usart.c ****       (#) USART_DMAReq_Rx: specifies the Rx buffer DMA transfer request
1205:Drivers/STM32F4xx_StdPeriph_Driver/src/stm32f4xx_usart.c ****     [..]
1206:Drivers/STM32F4xx_StdPeriph_Driver/src/stm32f4xx_usart.c ****     In this Mode it is advised to use the following function:
1207:Drivers/STM32F4xx_StdPeriph_Driver/src/stm32f4xx_usart.c ****       (+) void USART_DMACmd(USART_TypeDef* USARTx, uint16_t USART_DMAReq, FunctionalState NewState)
1208:Drivers/STM32F4xx_StdPeriph_Driver/src/stm32f4xx_usart.c **** 
1209:Drivers/STM32F4xx_StdPeriph_Driver/src/stm32f4xx_usart.c **** @endverbatim
1210:Drivers/STM32F4xx_StdPeriph_Driver/src/stm32f4xx_usart.c ****   * @{
1211:Drivers/STM32F4xx_StdPeriph_Driver/src/stm32f4xx_usart.c ****   */
1212:Drivers/STM32F4xx_StdPeriph_Driver/src/stm32f4xx_usart.c **** 
1213:Drivers/STM32F4xx_StdPeriph_Driver/src/stm32f4xx_usart.c **** /**
1214:Drivers/STM32F4xx_StdPeriph_Driver/src/stm32f4xx_usart.c ****   * @brief  Enables or disables the specified USART interrupts.
1215:Drivers/STM32F4xx_StdPeriph_Driver/src/stm32f4xx_usart.c ****   * @param  USARTx: where x can be 1, 2, 3, 4, 5, 6, 7 or 8 to select the USART or 
1216:Drivers/STM32F4xx_StdPeriph_Driver/src/stm32f4xx_usart.c ****   *         UART peripheral.
1217:Drivers/STM32F4xx_StdPeriph_Driver/src/stm32f4xx_usart.c ****   * @param  USART_IT: specifies the USART interrupt sources to be enabled or disabled.
1218:Drivers/STM32F4xx_StdPeriph_Driver/src/stm32f4xx_usart.c ****   *          This parameter can be one of the following values:
1219:Drivers/STM32F4xx_StdPeriph_Driver/src/stm32f4xx_usart.c ****   *            @arg USART_IT_CTS:  CTS change interrupt
1220:Drivers/STM32F4xx_StdPeriph_Driver/src/stm32f4xx_usart.c ****   *            @arg USART_IT_LBD:  LIN Break detection interrupt
1221:Drivers/STM32F4xx_StdPeriph_Driver/src/stm32f4xx_usart.c ****   *            @arg USART_IT_TXE:  Transmit Data Register empty interrupt
1222:Drivers/STM32F4xx_StdPeriph_Driver/src/stm32f4xx_usart.c ****   *            @arg USART_IT_TC:   Transmission complete interrupt
1223:Drivers/STM32F4xx_StdPeriph_Driver/src/stm32f4xx_usart.c ****   *            @arg USART_IT_RXNE: Receive Data register not empty interrupt
1224:Drivers/STM32F4xx_StdPeriph_Driver/src/stm32f4xx_usart.c ****   *            @arg USART_IT_IDLE: Idle line detection interrupt
1225:Drivers/STM32F4xx_StdPeriph_Driver/src/stm32f4xx_usart.c ****   *            @arg USART_IT_PE:   Parity Error interrupt
1226:Drivers/STM32F4xx_StdPeriph_Driver/src/stm32f4xx_usart.c ****   *            @arg USART_IT_ERR:  Error interrupt(Frame error, noise error, overrun error)
1227:Drivers/STM32F4xx_StdPeriph_Driver/src/stm32f4xx_usart.c ****   * @param  NewState: new state of the specified USARTx interrupts.
1228:Drivers/STM32F4xx_StdPeriph_Driver/src/stm32f4xx_usart.c ****   *          This parameter can be: ENABLE or DISABLE.
1229:Drivers/STM32F4xx_StdPeriph_Driver/src/stm32f4xx_usart.c ****   * @retval None
1230:Drivers/STM32F4xx_StdPeriph_Driver/src/stm32f4xx_usart.c ****   */
1231:Drivers/STM32F4xx_StdPeriph_Driver/src/stm32f4xx_usart.c **** void USART_ITConfig(USART_TypeDef* USARTx, uint16_t USART_IT, FunctionalState NewState)
1232:Drivers/STM32F4xx_StdPeriph_Driver/src/stm32f4xx_usart.c **** {
 1328              		.loc 1 1232 1 is_stmt 1 view -0
 1329              		.cfi_startproc
 1330              		@ args = 0, pretend = 0, frame = 0
 1331              		@ frame_needed = 0, uses_anonymous_args = 0
 1332              		@ link register save eliminated.
1233:Drivers/STM32F4xx_StdPeriph_Driver/src/stm32f4xx_usart.c ****   uint32_t usartreg = 0x00, itpos = 0x00, itmask = 0x00;
 1333              		.loc 1 1233 3 view .LVU359
1234:Drivers/STM32F4xx_StdPeriph_Driver/src/stm32f4xx_usart.c ****   uint32_t usartxbase = 0x00;
 1334              		.loc 1 1234 3 view .LVU360
1235:Drivers/STM32F4xx_StdPeriph_Driver/src/stm32f4xx_usart.c ****   /* Check the parameters */
1236:Drivers/STM32F4xx_StdPeriph_Driver/src/stm32f4xx_usart.c ****   assert_param(IS_USART_ALL_PERIPH(USARTx));
 1335              		.loc 1 1236 3 view .LVU361
1237:Drivers/STM32F4xx_StdPeriph_Driver/src/stm32f4xx_usart.c ****   assert_param(IS_USART_CONFIG_IT(USART_IT));
 1336              		.loc 1 1237 3 view .LVU362
ARM GAS  /tmp/cc396ZZ5.s 			page 46


1238:Drivers/STM32F4xx_StdPeriph_Driver/src/stm32f4xx_usart.c ****   assert_param(IS_FUNCTIONAL_STATE(NewState));
 1337              		.loc 1 1238 3 view .LVU363
1239:Drivers/STM32F4xx_StdPeriph_Driver/src/stm32f4xx_usart.c **** 
1240:Drivers/STM32F4xx_StdPeriph_Driver/src/stm32f4xx_usart.c ****   /* The CTS interrupt is not available for UART4 and UART5 */
1241:Drivers/STM32F4xx_StdPeriph_Driver/src/stm32f4xx_usart.c ****   if (USART_IT == USART_IT_CTS)
 1338              		.loc 1 1241 3 view .LVU364
1242:Drivers/STM32F4xx_StdPeriph_Driver/src/stm32f4xx_usart.c ****   {
1243:Drivers/STM32F4xx_StdPeriph_Driver/src/stm32f4xx_usart.c ****     assert_param(IS_USART_1236_PERIPH(USARTx));
 1339              		.loc 1 1243 5 view .LVU365
1244:Drivers/STM32F4xx_StdPeriph_Driver/src/stm32f4xx_usart.c ****   } 
1245:Drivers/STM32F4xx_StdPeriph_Driver/src/stm32f4xx_usart.c ****     
1246:Drivers/STM32F4xx_StdPeriph_Driver/src/stm32f4xx_usart.c ****   usartxbase = (uint32_t)USARTx;
 1340              		.loc 1 1246 3 view .LVU366
1247:Drivers/STM32F4xx_StdPeriph_Driver/src/stm32f4xx_usart.c **** 
1248:Drivers/STM32F4xx_StdPeriph_Driver/src/stm32f4xx_usart.c ****   /* Get the USART register index */
1249:Drivers/STM32F4xx_StdPeriph_Driver/src/stm32f4xx_usart.c ****   usartreg = (((uint8_t)USART_IT) >> 0x05);
 1341              		.loc 1 1249 3 view .LVU367
 1342              		.loc 1 1249 35 is_stmt 0 view .LVU368
 1343 0000 C1F3421C 		ubfx	ip, r1, #5, #3
 1344              	.LVL104:
1250:Drivers/STM32F4xx_StdPeriph_Driver/src/stm32f4xx_usart.c **** 
1251:Drivers/STM32F4xx_StdPeriph_Driver/src/stm32f4xx_usart.c ****   /* Get the interrupt position */
1252:Drivers/STM32F4xx_StdPeriph_Driver/src/stm32f4xx_usart.c ****   itpos = USART_IT & IT_MASK;
 1345              		.loc 1 1252 3 is_stmt 1 view .LVU369
 1346              		.loc 1 1252 9 is_stmt 0 view .LVU370
 1347 0004 01F01F01 		and	r1, r1, #31
 1348              	.LVL105:
1253:Drivers/STM32F4xx_StdPeriph_Driver/src/stm32f4xx_usart.c ****   itmask = (((uint32_t)0x01) << itpos);
 1349              		.loc 1 1253 3 is_stmt 1 view .LVU371
 1350              		.loc 1 1253 10 is_stmt 0 view .LVU372
 1351 0008 0123     		movs	r3, #1
 1352 000a 03FA01F1 		lsl	r1, r3, r1
 1353              	.LVL106:
1254:Drivers/STM32F4xx_StdPeriph_Driver/src/stm32f4xx_usart.c ****     
1255:Drivers/STM32F4xx_StdPeriph_Driver/src/stm32f4xx_usart.c ****   if (usartreg == 0x01) /* The IT is in CR1 register */
 1354              		.loc 1 1255 3 is_stmt 1 view .LVU373
 1355              		.loc 1 1255 6 is_stmt 0 view .LVU374
 1356 000e 9C45     		cmp	ip, r3
 1357 0010 08D0     		beq	.L83
1256:Drivers/STM32F4xx_StdPeriph_Driver/src/stm32f4xx_usart.c ****   {
1257:Drivers/STM32F4xx_StdPeriph_Driver/src/stm32f4xx_usart.c ****     usartxbase += 0x0C;
1258:Drivers/STM32F4xx_StdPeriph_Driver/src/stm32f4xx_usart.c ****   }
1259:Drivers/STM32F4xx_StdPeriph_Driver/src/stm32f4xx_usart.c ****   else if (usartreg == 0x02) /* The IT is in CR2 register */
 1358              		.loc 1 1259 8 is_stmt 1 view .LVU375
 1359              		.loc 1 1259 11 is_stmt 0 view .LVU376
 1360 0012 BCF1020F 		cmp	ip, #2
 1361 0016 07D0     		beq	.L84
1260:Drivers/STM32F4xx_StdPeriph_Driver/src/stm32f4xx_usart.c ****   {
1261:Drivers/STM32F4xx_StdPeriph_Driver/src/stm32f4xx_usart.c ****     usartxbase += 0x10;
1262:Drivers/STM32F4xx_StdPeriph_Driver/src/stm32f4xx_usart.c ****   }
1263:Drivers/STM32F4xx_StdPeriph_Driver/src/stm32f4xx_usart.c ****   else /* The IT is in CR3 register */
1264:Drivers/STM32F4xx_StdPeriph_Driver/src/stm32f4xx_usart.c ****   {
1265:Drivers/STM32F4xx_StdPeriph_Driver/src/stm32f4xx_usart.c ****     usartxbase += 0x14; 
 1362              		.loc 1 1265 5 is_stmt 1 view .LVU377
 1363              		.loc 1 1265 16 is_stmt 0 view .LVU378
 1364 0018 1430     		adds	r0, r0, #20
 1365              	.LVL107:
ARM GAS  /tmp/cc396ZZ5.s 			page 47


 1366              	.L79:
1266:Drivers/STM32F4xx_StdPeriph_Driver/src/stm32f4xx_usart.c ****   }
1267:Drivers/STM32F4xx_StdPeriph_Driver/src/stm32f4xx_usart.c ****   if (NewState != DISABLE)
 1367              		.loc 1 1267 3 is_stmt 1 view .LVU379
 1368              		.loc 1 1267 6 is_stmt 0 view .LVU380
 1369 001a 3AB1     		cbz	r2, .L81
1268:Drivers/STM32F4xx_StdPeriph_Driver/src/stm32f4xx_usart.c ****   {
1269:Drivers/STM32F4xx_StdPeriph_Driver/src/stm32f4xx_usart.c ****     *(__IO uint32_t*)usartxbase  |= itmask;
 1370              		.loc 1 1269 5 is_stmt 1 view .LVU381
 1371              		.loc 1 1269 34 is_stmt 0 view .LVU382
 1372 001c 0368     		ldr	r3, [r0]
 1373 001e 1943     		orrs	r1, r1, r3
 1374              	.LVL108:
 1375              		.loc 1 1269 34 view .LVU383
 1376 0020 0160     		str	r1, [r0]
 1377 0022 7047     		bx	lr
 1378              	.LVL109:
 1379              	.L83:
1257:Drivers/STM32F4xx_StdPeriph_Driver/src/stm32f4xx_usart.c ****   }
 1380              		.loc 1 1257 5 is_stmt 1 view .LVU384
1257:Drivers/STM32F4xx_StdPeriph_Driver/src/stm32f4xx_usart.c ****   }
 1381              		.loc 1 1257 16 is_stmt 0 view .LVU385
 1382 0024 0C30     		adds	r0, r0, #12
 1383              	.LVL110:
1257:Drivers/STM32F4xx_StdPeriph_Driver/src/stm32f4xx_usart.c ****   }
 1384              		.loc 1 1257 16 view .LVU386
 1385 0026 F8E7     		b	.L79
 1386              	.LVL111:
 1387              	.L84:
1261:Drivers/STM32F4xx_StdPeriph_Driver/src/stm32f4xx_usart.c ****   }
 1388              		.loc 1 1261 5 is_stmt 1 view .LVU387
1261:Drivers/STM32F4xx_StdPeriph_Driver/src/stm32f4xx_usart.c ****   }
 1389              		.loc 1 1261 16 is_stmt 0 view .LVU388
 1390 0028 1030     		adds	r0, r0, #16
 1391              	.LVL112:
1261:Drivers/STM32F4xx_StdPeriph_Driver/src/stm32f4xx_usart.c ****   }
 1392              		.loc 1 1261 16 view .LVU389
 1393 002a F6E7     		b	.L79
 1394              	.LVL113:
 1395              	.L81:
1270:Drivers/STM32F4xx_StdPeriph_Driver/src/stm32f4xx_usart.c ****   }
1271:Drivers/STM32F4xx_StdPeriph_Driver/src/stm32f4xx_usart.c ****   else
1272:Drivers/STM32F4xx_StdPeriph_Driver/src/stm32f4xx_usart.c ****   {
1273:Drivers/STM32F4xx_StdPeriph_Driver/src/stm32f4xx_usart.c ****     *(__IO uint32_t*)usartxbase &= ~itmask;
 1396              		.loc 1 1273 5 is_stmt 1 view .LVU390
 1397              		.loc 1 1273 33 is_stmt 0 view .LVU391
 1398 002c 0368     		ldr	r3, [r0]
 1399 002e 23EA0101 		bic	r1, r3, r1
 1400              	.LVL114:
 1401              		.loc 1 1273 33 view .LVU392
 1402 0032 0160     		str	r1, [r0]
1274:Drivers/STM32F4xx_StdPeriph_Driver/src/stm32f4xx_usart.c ****   }
1275:Drivers/STM32F4xx_StdPeriph_Driver/src/stm32f4xx_usart.c **** }
 1403              		.loc 1 1275 1 view .LVU393
 1404 0034 7047     		bx	lr
 1405              		.cfi_endproc
 1406              	.LFE147:
ARM GAS  /tmp/cc396ZZ5.s 			page 48


 1408              		.section	.text.USART_GetFlagStatus,"ax",%progbits
 1409              		.align	1
 1410              		.global	USART_GetFlagStatus
 1411              		.syntax unified
 1412              		.thumb
 1413              		.thumb_func
 1414              		.fpu fpv4-sp-d16
 1416              	USART_GetFlagStatus:
 1417              	.LVL115:
 1418              	.LFB148:
1276:Drivers/STM32F4xx_StdPeriph_Driver/src/stm32f4xx_usart.c **** 
1277:Drivers/STM32F4xx_StdPeriph_Driver/src/stm32f4xx_usart.c **** /**
1278:Drivers/STM32F4xx_StdPeriph_Driver/src/stm32f4xx_usart.c ****   * @brief  Checks whether the specified USART flag is set or not.
1279:Drivers/STM32F4xx_StdPeriph_Driver/src/stm32f4xx_usart.c ****   * @param  USARTx: where x can be 1, 2, 3, 4, 5, 6, 7 or 8 to select the USART or 
1280:Drivers/STM32F4xx_StdPeriph_Driver/src/stm32f4xx_usart.c ****   *         UART peripheral.
1281:Drivers/STM32F4xx_StdPeriph_Driver/src/stm32f4xx_usart.c ****   * @param  USART_FLAG: specifies the flag to check.
1282:Drivers/STM32F4xx_StdPeriph_Driver/src/stm32f4xx_usart.c ****   *          This parameter can be one of the following values:
1283:Drivers/STM32F4xx_StdPeriph_Driver/src/stm32f4xx_usart.c ****   *            @arg USART_FLAG_CTS:  CTS Change flag (not available for UART4 and UART5)
1284:Drivers/STM32F4xx_StdPeriph_Driver/src/stm32f4xx_usart.c ****   *            @arg USART_FLAG_LBD:  LIN Break detection flag
1285:Drivers/STM32F4xx_StdPeriph_Driver/src/stm32f4xx_usart.c ****   *            @arg USART_FLAG_TXE:  Transmit data register empty flag
1286:Drivers/STM32F4xx_StdPeriph_Driver/src/stm32f4xx_usart.c ****   *            @arg USART_FLAG_TC:   Transmission Complete flag
1287:Drivers/STM32F4xx_StdPeriph_Driver/src/stm32f4xx_usart.c ****   *            @arg USART_FLAG_RXNE: Receive data register not empty flag
1288:Drivers/STM32F4xx_StdPeriph_Driver/src/stm32f4xx_usart.c ****   *            @arg USART_FLAG_IDLE: Idle Line detection flag
1289:Drivers/STM32F4xx_StdPeriph_Driver/src/stm32f4xx_usart.c ****   *            @arg USART_FLAG_ORE:  OverRun Error flag
1290:Drivers/STM32F4xx_StdPeriph_Driver/src/stm32f4xx_usart.c ****   *            @arg USART_FLAG_NE:   Noise Error flag
1291:Drivers/STM32F4xx_StdPeriph_Driver/src/stm32f4xx_usart.c ****   *            @arg USART_FLAG_FE:   Framing Error flag
1292:Drivers/STM32F4xx_StdPeriph_Driver/src/stm32f4xx_usart.c ****   *            @arg USART_FLAG_PE:   Parity Error flag
1293:Drivers/STM32F4xx_StdPeriph_Driver/src/stm32f4xx_usart.c ****   * @retval The new state of USART_FLAG (SET or RESET).
1294:Drivers/STM32F4xx_StdPeriph_Driver/src/stm32f4xx_usart.c ****   */
1295:Drivers/STM32F4xx_StdPeriph_Driver/src/stm32f4xx_usart.c **** FlagStatus USART_GetFlagStatus(USART_TypeDef* USARTx, uint16_t USART_FLAG)
1296:Drivers/STM32F4xx_StdPeriph_Driver/src/stm32f4xx_usart.c **** {
 1419              		.loc 1 1296 1 is_stmt 1 view -0
 1420              		.cfi_startproc
 1421              		@ args = 0, pretend = 0, frame = 0
 1422              		@ frame_needed = 0, uses_anonymous_args = 0
 1423              		@ link register save eliminated.
1297:Drivers/STM32F4xx_StdPeriph_Driver/src/stm32f4xx_usart.c ****   FlagStatus bitstatus = RESET;
 1424              		.loc 1 1297 3 view .LVU395
1298:Drivers/STM32F4xx_StdPeriph_Driver/src/stm32f4xx_usart.c ****   /* Check the parameters */
1299:Drivers/STM32F4xx_StdPeriph_Driver/src/stm32f4xx_usart.c ****   assert_param(IS_USART_ALL_PERIPH(USARTx));
 1425              		.loc 1 1299 3 view .LVU396
1300:Drivers/STM32F4xx_StdPeriph_Driver/src/stm32f4xx_usart.c ****   assert_param(IS_USART_FLAG(USART_FLAG));
 1426              		.loc 1 1300 3 view .LVU397
1301:Drivers/STM32F4xx_StdPeriph_Driver/src/stm32f4xx_usart.c **** 
1302:Drivers/STM32F4xx_StdPeriph_Driver/src/stm32f4xx_usart.c ****   /* The CTS flag is not available for UART4 and UART5 */
1303:Drivers/STM32F4xx_StdPeriph_Driver/src/stm32f4xx_usart.c ****   if (USART_FLAG == USART_FLAG_CTS)
 1427              		.loc 1 1303 3 view .LVU398
1304:Drivers/STM32F4xx_StdPeriph_Driver/src/stm32f4xx_usart.c ****   {
1305:Drivers/STM32F4xx_StdPeriph_Driver/src/stm32f4xx_usart.c ****     assert_param(IS_USART_1236_PERIPH(USARTx));
 1428              		.loc 1 1305 5 view .LVU399
1306:Drivers/STM32F4xx_StdPeriph_Driver/src/stm32f4xx_usart.c ****   } 
1307:Drivers/STM32F4xx_StdPeriph_Driver/src/stm32f4xx_usart.c ****     
1308:Drivers/STM32F4xx_StdPeriph_Driver/src/stm32f4xx_usart.c ****   if ((USARTx->SR & USART_FLAG) != (uint16_t)RESET)
 1429              		.loc 1 1308 3 view .LVU400
 1430              		.loc 1 1308 14 is_stmt 0 view .LVU401
 1431 0000 0388     		ldrh	r3, [r0]
 1432              		.loc 1 1308 6 view .LVU402
ARM GAS  /tmp/cc396ZZ5.s 			page 49


 1433 0002 1942     		tst	r1, r3
 1434 0004 01D0     		beq	.L87
1309:Drivers/STM32F4xx_StdPeriph_Driver/src/stm32f4xx_usart.c ****   {
1310:Drivers/STM32F4xx_StdPeriph_Driver/src/stm32f4xx_usart.c ****     bitstatus = SET;
 1435              		.loc 1 1310 15 view .LVU403
 1436 0006 0120     		movs	r0, #1
 1437              	.LVL116:
 1438              		.loc 1 1310 15 view .LVU404
 1439 0008 7047     		bx	lr
 1440              	.LVL117:
 1441              	.L87:
1311:Drivers/STM32F4xx_StdPeriph_Driver/src/stm32f4xx_usart.c ****   }
1312:Drivers/STM32F4xx_StdPeriph_Driver/src/stm32f4xx_usart.c ****   else
1313:Drivers/STM32F4xx_StdPeriph_Driver/src/stm32f4xx_usart.c ****   {
1314:Drivers/STM32F4xx_StdPeriph_Driver/src/stm32f4xx_usart.c ****     bitstatus = RESET;
 1442              		.loc 1 1314 15 view .LVU405
 1443 000a 0020     		movs	r0, #0
 1444              	.LVL118:
1315:Drivers/STM32F4xx_StdPeriph_Driver/src/stm32f4xx_usart.c ****   }
1316:Drivers/STM32F4xx_StdPeriph_Driver/src/stm32f4xx_usart.c ****   return bitstatus;
 1445              		.loc 1 1316 3 is_stmt 1 view .LVU406
1317:Drivers/STM32F4xx_StdPeriph_Driver/src/stm32f4xx_usart.c **** }
 1446              		.loc 1 1317 1 is_stmt 0 view .LVU407
 1447 000c 7047     		bx	lr
 1448              		.cfi_endproc
 1449              	.LFE148:
 1451              		.section	.text.USART_ClearFlag,"ax",%progbits
 1452              		.align	1
 1453              		.global	USART_ClearFlag
 1454              		.syntax unified
 1455              		.thumb
 1456              		.thumb_func
 1457              		.fpu fpv4-sp-d16
 1459              	USART_ClearFlag:
 1460              	.LVL119:
 1461              	.LFB149:
1318:Drivers/STM32F4xx_StdPeriph_Driver/src/stm32f4xx_usart.c **** 
1319:Drivers/STM32F4xx_StdPeriph_Driver/src/stm32f4xx_usart.c **** /**
1320:Drivers/STM32F4xx_StdPeriph_Driver/src/stm32f4xx_usart.c ****   * @brief  Clears the USARTx's pending flags.
1321:Drivers/STM32F4xx_StdPeriph_Driver/src/stm32f4xx_usart.c ****   * @param  USARTx: where x can be 1, 2, 3, 4, 5, 6, 7 or 8 to select the USART or 
1322:Drivers/STM32F4xx_StdPeriph_Driver/src/stm32f4xx_usart.c ****   *         UART peripheral.
1323:Drivers/STM32F4xx_StdPeriph_Driver/src/stm32f4xx_usart.c ****   * @param  USART_FLAG: specifies the flag to clear.
1324:Drivers/STM32F4xx_StdPeriph_Driver/src/stm32f4xx_usart.c ****   *          This parameter can be any combination of the following values:
1325:Drivers/STM32F4xx_StdPeriph_Driver/src/stm32f4xx_usart.c ****   *            @arg USART_FLAG_CTS:  CTS Change flag (not available for UART4 and UART5).
1326:Drivers/STM32F4xx_StdPeriph_Driver/src/stm32f4xx_usart.c ****   *            @arg USART_FLAG_LBD:  LIN Break detection flag.
1327:Drivers/STM32F4xx_StdPeriph_Driver/src/stm32f4xx_usart.c ****   *            @arg USART_FLAG_TC:   Transmission Complete flag.
1328:Drivers/STM32F4xx_StdPeriph_Driver/src/stm32f4xx_usart.c ****   *            @arg USART_FLAG_RXNE: Receive data register not empty flag.
1329:Drivers/STM32F4xx_StdPeriph_Driver/src/stm32f4xx_usart.c ****   *   
1330:Drivers/STM32F4xx_StdPeriph_Driver/src/stm32f4xx_usart.c ****   * @note   PE (Parity error), FE (Framing error), NE (Noise error), ORE (OverRun 
1331:Drivers/STM32F4xx_StdPeriph_Driver/src/stm32f4xx_usart.c ****   *          error) and IDLE (Idle line detected) flags are cleared by software 
1332:Drivers/STM32F4xx_StdPeriph_Driver/src/stm32f4xx_usart.c ****   *          sequence: a read operation to USART_SR register (USART_GetFlagStatus()) 
1333:Drivers/STM32F4xx_StdPeriph_Driver/src/stm32f4xx_usart.c ****   *          followed by a read operation to USART_DR register (USART_ReceiveData()).
1334:Drivers/STM32F4xx_StdPeriph_Driver/src/stm32f4xx_usart.c ****   * @note   RXNE flag can be also cleared by a read to the USART_DR register 
1335:Drivers/STM32F4xx_StdPeriph_Driver/src/stm32f4xx_usart.c ****   *          (USART_ReceiveData()).
1336:Drivers/STM32F4xx_StdPeriph_Driver/src/stm32f4xx_usart.c ****   * @note   TC flag can be also cleared by software sequence: a read operation to 
1337:Drivers/STM32F4xx_StdPeriph_Driver/src/stm32f4xx_usart.c ****   *          USART_SR register (USART_GetFlagStatus()) followed by a write operation
1338:Drivers/STM32F4xx_StdPeriph_Driver/src/stm32f4xx_usart.c ****   *          to USART_DR register (USART_SendData()).
ARM GAS  /tmp/cc396ZZ5.s 			page 50


1339:Drivers/STM32F4xx_StdPeriph_Driver/src/stm32f4xx_usart.c ****   * @note   TXE flag is cleared only by a write to the USART_DR register 
1340:Drivers/STM32F4xx_StdPeriph_Driver/src/stm32f4xx_usart.c ****   *          (USART_SendData()).
1341:Drivers/STM32F4xx_StdPeriph_Driver/src/stm32f4xx_usart.c ****   *   
1342:Drivers/STM32F4xx_StdPeriph_Driver/src/stm32f4xx_usart.c ****   * @retval None
1343:Drivers/STM32F4xx_StdPeriph_Driver/src/stm32f4xx_usart.c ****   */
1344:Drivers/STM32F4xx_StdPeriph_Driver/src/stm32f4xx_usart.c **** void USART_ClearFlag(USART_TypeDef* USARTx, uint16_t USART_FLAG)
1345:Drivers/STM32F4xx_StdPeriph_Driver/src/stm32f4xx_usart.c **** {
 1462              		.loc 1 1345 1 is_stmt 1 view -0
 1463              		.cfi_startproc
 1464              		@ args = 0, pretend = 0, frame = 0
 1465              		@ frame_needed = 0, uses_anonymous_args = 0
 1466              		@ link register save eliminated.
1346:Drivers/STM32F4xx_StdPeriph_Driver/src/stm32f4xx_usart.c ****   /* Check the parameters */
1347:Drivers/STM32F4xx_StdPeriph_Driver/src/stm32f4xx_usart.c ****   assert_param(IS_USART_ALL_PERIPH(USARTx));
 1467              		.loc 1 1347 3 view .LVU409
1348:Drivers/STM32F4xx_StdPeriph_Driver/src/stm32f4xx_usart.c ****   assert_param(IS_USART_CLEAR_FLAG(USART_FLAG));
 1468              		.loc 1 1348 3 view .LVU410
1349:Drivers/STM32F4xx_StdPeriph_Driver/src/stm32f4xx_usart.c **** 
1350:Drivers/STM32F4xx_StdPeriph_Driver/src/stm32f4xx_usart.c ****   /* The CTS flag is not available for UART4 and UART5 */
1351:Drivers/STM32F4xx_StdPeriph_Driver/src/stm32f4xx_usart.c ****   if ((USART_FLAG & USART_FLAG_CTS) == USART_FLAG_CTS)
 1469              		.loc 1 1351 3 view .LVU411
1352:Drivers/STM32F4xx_StdPeriph_Driver/src/stm32f4xx_usart.c ****   {
1353:Drivers/STM32F4xx_StdPeriph_Driver/src/stm32f4xx_usart.c ****     assert_param(IS_USART_1236_PERIPH(USARTx));
 1470              		.loc 1 1353 5 view .LVU412
1354:Drivers/STM32F4xx_StdPeriph_Driver/src/stm32f4xx_usart.c ****   } 
1355:Drivers/STM32F4xx_StdPeriph_Driver/src/stm32f4xx_usart.c ****        
1356:Drivers/STM32F4xx_StdPeriph_Driver/src/stm32f4xx_usart.c ****   USARTx->SR = (uint16_t)~USART_FLAG;
 1471              		.loc 1 1356 3 view .LVU413
 1472              		.loc 1 1356 16 is_stmt 0 view .LVU414
 1473 0000 C943     		mvns	r1, r1
 1474              	.LVL120:
 1475              		.loc 1 1356 16 view .LVU415
 1476 0002 89B2     		uxth	r1, r1
 1477              		.loc 1 1356 14 view .LVU416
 1478 0004 0180     		strh	r1, [r0]	@ movhi
1357:Drivers/STM32F4xx_StdPeriph_Driver/src/stm32f4xx_usart.c **** }
 1479              		.loc 1 1357 1 view .LVU417
 1480 0006 7047     		bx	lr
 1481              		.cfi_endproc
 1482              	.LFE149:
 1484              		.section	.text.USART_GetITStatus,"ax",%progbits
 1485              		.align	1
 1486              		.global	USART_GetITStatus
 1487              		.syntax unified
 1488              		.thumb
 1489              		.thumb_func
 1490              		.fpu fpv4-sp-d16
 1492              	USART_GetITStatus:
 1493              	.LVL121:
 1494              	.LFB150:
1358:Drivers/STM32F4xx_StdPeriph_Driver/src/stm32f4xx_usart.c **** 
1359:Drivers/STM32F4xx_StdPeriph_Driver/src/stm32f4xx_usart.c **** /**
1360:Drivers/STM32F4xx_StdPeriph_Driver/src/stm32f4xx_usart.c ****   * @brief  Checks whether the specified USART interrupt has occurred or not.
1361:Drivers/STM32F4xx_StdPeriph_Driver/src/stm32f4xx_usart.c ****   * @param  USARTx: where x can be 1, 2, 3, 4, 5, 6, 7 or 8 to select the USART or 
1362:Drivers/STM32F4xx_StdPeriph_Driver/src/stm32f4xx_usart.c ****   *         UART peripheral.
1363:Drivers/STM32F4xx_StdPeriph_Driver/src/stm32f4xx_usart.c ****   * @param  USART_IT: specifies the USART interrupt source to check.
1364:Drivers/STM32F4xx_StdPeriph_Driver/src/stm32f4xx_usart.c ****   *          This parameter can be one of the following values:
ARM GAS  /tmp/cc396ZZ5.s 			page 51


1365:Drivers/STM32F4xx_StdPeriph_Driver/src/stm32f4xx_usart.c ****   *            @arg USART_IT_CTS:  CTS change interrupt (not available for UART4 and UART5)
1366:Drivers/STM32F4xx_StdPeriph_Driver/src/stm32f4xx_usart.c ****   *            @arg USART_IT_LBD:  LIN Break detection interrupt
1367:Drivers/STM32F4xx_StdPeriph_Driver/src/stm32f4xx_usart.c ****   *            @arg USART_IT_TXE:  Transmit Data Register empty interrupt
1368:Drivers/STM32F4xx_StdPeriph_Driver/src/stm32f4xx_usart.c ****   *            @arg USART_IT_TC:   Transmission complete interrupt
1369:Drivers/STM32F4xx_StdPeriph_Driver/src/stm32f4xx_usart.c ****   *            @arg USART_IT_RXNE: Receive Data register not empty interrupt
1370:Drivers/STM32F4xx_StdPeriph_Driver/src/stm32f4xx_usart.c ****   *            @arg USART_IT_IDLE: Idle line detection interrupt
1371:Drivers/STM32F4xx_StdPeriph_Driver/src/stm32f4xx_usart.c ****   *            @arg USART_IT_ORE_RX : OverRun Error interrupt if the RXNEIE bit is set
1372:Drivers/STM32F4xx_StdPeriph_Driver/src/stm32f4xx_usart.c ****   *            @arg USART_IT_ORE_ER : OverRun Error interrupt if the EIE bit is set  
1373:Drivers/STM32F4xx_StdPeriph_Driver/src/stm32f4xx_usart.c ****   *            @arg USART_IT_NE:   Noise Error interrupt
1374:Drivers/STM32F4xx_StdPeriph_Driver/src/stm32f4xx_usart.c ****   *            @arg USART_IT_FE:   Framing Error interrupt
1375:Drivers/STM32F4xx_StdPeriph_Driver/src/stm32f4xx_usart.c ****   *            @arg USART_IT_PE:   Parity Error interrupt
1376:Drivers/STM32F4xx_StdPeriph_Driver/src/stm32f4xx_usart.c ****   * @retval The new state of USART_IT (SET or RESET).
1377:Drivers/STM32F4xx_StdPeriph_Driver/src/stm32f4xx_usart.c ****   */
1378:Drivers/STM32F4xx_StdPeriph_Driver/src/stm32f4xx_usart.c **** ITStatus USART_GetITStatus(USART_TypeDef* USARTx, uint16_t USART_IT)
1379:Drivers/STM32F4xx_StdPeriph_Driver/src/stm32f4xx_usart.c **** {
 1495              		.loc 1 1379 1 is_stmt 1 view -0
 1496              		.cfi_startproc
 1497              		@ args = 0, pretend = 0, frame = 0
 1498              		@ frame_needed = 0, uses_anonymous_args = 0
 1499              		@ link register save eliminated.
1380:Drivers/STM32F4xx_StdPeriph_Driver/src/stm32f4xx_usart.c ****   uint32_t bitpos = 0x00, itmask = 0x00, usartreg = 0x00;
 1500              		.loc 1 1380 3 view .LVU419
1381:Drivers/STM32F4xx_StdPeriph_Driver/src/stm32f4xx_usart.c ****   ITStatus bitstatus = RESET;
 1501              		.loc 1 1381 3 view .LVU420
1382:Drivers/STM32F4xx_StdPeriph_Driver/src/stm32f4xx_usart.c ****   /* Check the parameters */
1383:Drivers/STM32F4xx_StdPeriph_Driver/src/stm32f4xx_usart.c ****   assert_param(IS_USART_ALL_PERIPH(USARTx));
 1502              		.loc 1 1383 3 view .LVU421
1384:Drivers/STM32F4xx_StdPeriph_Driver/src/stm32f4xx_usart.c ****   assert_param(IS_USART_GET_IT(USART_IT)); 
 1503              		.loc 1 1384 3 view .LVU422
1385:Drivers/STM32F4xx_StdPeriph_Driver/src/stm32f4xx_usart.c **** 
1386:Drivers/STM32F4xx_StdPeriph_Driver/src/stm32f4xx_usart.c ****   /* The CTS interrupt is not available for UART4 and UART5 */ 
1387:Drivers/STM32F4xx_StdPeriph_Driver/src/stm32f4xx_usart.c ****   if (USART_IT == USART_IT_CTS)
 1504              		.loc 1 1387 3 view .LVU423
1388:Drivers/STM32F4xx_StdPeriph_Driver/src/stm32f4xx_usart.c ****   {
1389:Drivers/STM32F4xx_StdPeriph_Driver/src/stm32f4xx_usart.c ****     assert_param(IS_USART_1236_PERIPH(USARTx));
 1505              		.loc 1 1389 5 view .LVU424
1390:Drivers/STM32F4xx_StdPeriph_Driver/src/stm32f4xx_usart.c ****   } 
1391:Drivers/STM32F4xx_StdPeriph_Driver/src/stm32f4xx_usart.c ****     
1392:Drivers/STM32F4xx_StdPeriph_Driver/src/stm32f4xx_usart.c ****   /* Get the USART register index */
1393:Drivers/STM32F4xx_StdPeriph_Driver/src/stm32f4xx_usart.c ****   usartreg = (((uint8_t)USART_IT) >> 0x05);
 1506              		.loc 1 1393 3 view .LVU425
 1507              		.loc 1 1393 35 is_stmt 0 view .LVU426
 1508 0000 C1F34212 		ubfx	r2, r1, #5, #3
 1509              	.LVL122:
1394:Drivers/STM32F4xx_StdPeriph_Driver/src/stm32f4xx_usart.c ****   /* Get the interrupt position */
1395:Drivers/STM32F4xx_StdPeriph_Driver/src/stm32f4xx_usart.c ****   itmask = USART_IT & IT_MASK;
 1510              		.loc 1 1395 3 is_stmt 1 view .LVU427
 1511              		.loc 1 1395 10 is_stmt 0 view .LVU428
 1512 0004 01F01F0C 		and	ip, r1, #31
 1513              	.LVL123:
1396:Drivers/STM32F4xx_StdPeriph_Driver/src/stm32f4xx_usart.c ****   itmask = (uint32_t)0x01 << itmask;
 1514              		.loc 1 1396 3 is_stmt 1 view .LVU429
 1515              		.loc 1 1396 10 is_stmt 0 view .LVU430
 1516 0008 0123     		movs	r3, #1
 1517 000a 03FA0CF3 		lsl	r3, r3, ip
 1518              	.LVL124:
1397:Drivers/STM32F4xx_StdPeriph_Driver/src/stm32f4xx_usart.c ****   
ARM GAS  /tmp/cc396ZZ5.s 			page 52


1398:Drivers/STM32F4xx_StdPeriph_Driver/src/stm32f4xx_usart.c ****   if (usartreg == 0x01) /* The IT  is in CR1 register */
 1519              		.loc 1 1398 3 is_stmt 1 view .LVU431
 1520              		.loc 1 1398 6 is_stmt 0 view .LVU432
 1521 000e 012A     		cmp	r2, #1
 1522 0010 0FD0     		beq	.L96
1399:Drivers/STM32F4xx_StdPeriph_Driver/src/stm32f4xx_usart.c ****   {
1400:Drivers/STM32F4xx_StdPeriph_Driver/src/stm32f4xx_usart.c ****     itmask &= USARTx->CR1;
1401:Drivers/STM32F4xx_StdPeriph_Driver/src/stm32f4xx_usart.c ****   }
1402:Drivers/STM32F4xx_StdPeriph_Driver/src/stm32f4xx_usart.c ****   else if (usartreg == 0x02) /* The IT  is in CR2 register */
 1523              		.loc 1 1402 8 is_stmt 1 view .LVU433
 1524              		.loc 1 1402 11 is_stmt 0 view .LVU434
 1525 0012 022A     		cmp	r2, #2
 1526 0014 11D0     		beq	.L97
1403:Drivers/STM32F4xx_StdPeriph_Driver/src/stm32f4xx_usart.c ****   {
1404:Drivers/STM32F4xx_StdPeriph_Driver/src/stm32f4xx_usart.c ****     itmask &= USARTx->CR2;
1405:Drivers/STM32F4xx_StdPeriph_Driver/src/stm32f4xx_usart.c ****   }
1406:Drivers/STM32F4xx_StdPeriph_Driver/src/stm32f4xx_usart.c ****   else /* The IT  is in CR3 register */
1407:Drivers/STM32F4xx_StdPeriph_Driver/src/stm32f4xx_usart.c ****   {
1408:Drivers/STM32F4xx_StdPeriph_Driver/src/stm32f4xx_usart.c ****     itmask &= USARTx->CR3;
 1527              		.loc 1 1408 5 is_stmt 1 view .LVU435
 1528              		.loc 1 1408 21 is_stmt 0 view .LVU436
 1529 0016 828A     		ldrh	r2, [r0, #20]
 1530              	.LVL125:
 1531              		.loc 1 1408 21 view .LVU437
 1532 0018 92B2     		uxth	r2, r2
 1533              		.loc 1 1408 12 view .LVU438
 1534 001a 1340     		ands	r3, r3, r2
 1535              	.LVL126:
 1536              	.L91:
1409:Drivers/STM32F4xx_StdPeriph_Driver/src/stm32f4xx_usart.c ****   }
1410:Drivers/STM32F4xx_StdPeriph_Driver/src/stm32f4xx_usart.c ****   
1411:Drivers/STM32F4xx_StdPeriph_Driver/src/stm32f4xx_usart.c ****   bitpos = USART_IT >> 0x08;
 1537              		.loc 1 1411 3 is_stmt 1 view .LVU439
 1538              		.loc 1 1411 21 is_stmt 0 view .LVU440
 1539 001c 090A     		lsrs	r1, r1, #8
 1540              	.LVL127:
1412:Drivers/STM32F4xx_StdPeriph_Driver/src/stm32f4xx_usart.c ****   bitpos = (uint32_t)0x01 << bitpos;
 1541              		.loc 1 1412 3 is_stmt 1 view .LVU441
 1542              		.loc 1 1412 10 is_stmt 0 view .LVU442
 1543 001e 0122     		movs	r2, #1
 1544 0020 02FA01F1 		lsl	r1, r2, r1
 1545              	.LVL128:
1413:Drivers/STM32F4xx_StdPeriph_Driver/src/stm32f4xx_usart.c ****   bitpos &= USARTx->SR;
 1546              		.loc 1 1413 3 is_stmt 1 view .LVU443
 1547              		.loc 1 1413 19 is_stmt 0 view .LVU444
 1548 0024 0288     		ldrh	r2, [r0]
 1549 0026 92B2     		uxth	r2, r2
 1550              		.loc 1 1413 10 view .LVU445
 1551 0028 0A40     		ands	r2, r2, r1
 1552              	.LVL129:
1414:Drivers/STM32F4xx_StdPeriph_Driver/src/stm32f4xx_usart.c ****   if ((itmask != (uint16_t)RESET)&&(bitpos != (uint16_t)RESET))
 1553              		.loc 1 1414 3 is_stmt 1 view .LVU446
 1554              		.loc 1 1414 6 is_stmt 0 view .LVU447
 1555 002a 53B1     		cbz	r3, .L94
 1556              		.loc 1 1414 34 discriminator 1 view .LVU448
 1557 002c 5AB9     		cbnz	r2, .L95
1415:Drivers/STM32F4xx_StdPeriph_Driver/src/stm32f4xx_usart.c ****   {
ARM GAS  /tmp/cc396ZZ5.s 			page 53


1416:Drivers/STM32F4xx_StdPeriph_Driver/src/stm32f4xx_usart.c ****     bitstatus = SET;
1417:Drivers/STM32F4xx_StdPeriph_Driver/src/stm32f4xx_usart.c ****   }
1418:Drivers/STM32F4xx_StdPeriph_Driver/src/stm32f4xx_usart.c ****   else
1419:Drivers/STM32F4xx_StdPeriph_Driver/src/stm32f4xx_usart.c ****   {
1420:Drivers/STM32F4xx_StdPeriph_Driver/src/stm32f4xx_usart.c ****     bitstatus = RESET;
 1558              		.loc 1 1420 15 view .LVU449
 1559 002e 0020     		movs	r0, #0
 1560              	.LVL130:
 1561              		.loc 1 1420 15 view .LVU450
 1562 0030 7047     		bx	lr
 1563              	.LVL131:
 1564              	.L96:
1400:Drivers/STM32F4xx_StdPeriph_Driver/src/stm32f4xx_usart.c ****   }
 1565              		.loc 1 1400 5 is_stmt 1 view .LVU451
1400:Drivers/STM32F4xx_StdPeriph_Driver/src/stm32f4xx_usart.c ****   }
 1566              		.loc 1 1400 21 is_stmt 0 view .LVU452
 1567 0032 8289     		ldrh	r2, [r0, #12]
 1568              	.LVL132:
1400:Drivers/STM32F4xx_StdPeriph_Driver/src/stm32f4xx_usart.c ****   }
 1569              		.loc 1 1400 21 view .LVU453
 1570 0034 92B2     		uxth	r2, r2
1400:Drivers/STM32F4xx_StdPeriph_Driver/src/stm32f4xx_usart.c ****   }
 1571              		.loc 1 1400 12 view .LVU454
 1572 0036 1340     		ands	r3, r3, r2
 1573              	.LVL133:
1400:Drivers/STM32F4xx_StdPeriph_Driver/src/stm32f4xx_usart.c ****   }
 1574              		.loc 1 1400 12 view .LVU455
 1575 0038 F0E7     		b	.L91
 1576              	.LVL134:
 1577              	.L97:
1404:Drivers/STM32F4xx_StdPeriph_Driver/src/stm32f4xx_usart.c ****   }
 1578              		.loc 1 1404 5 is_stmt 1 view .LVU456
1404:Drivers/STM32F4xx_StdPeriph_Driver/src/stm32f4xx_usart.c ****   }
 1579              		.loc 1 1404 21 is_stmt 0 view .LVU457
 1580 003a 028A     		ldrh	r2, [r0, #16]
 1581              	.LVL135:
1404:Drivers/STM32F4xx_StdPeriph_Driver/src/stm32f4xx_usart.c ****   }
 1582              		.loc 1 1404 21 view .LVU458
 1583 003c 92B2     		uxth	r2, r2
1404:Drivers/STM32F4xx_StdPeriph_Driver/src/stm32f4xx_usart.c ****   }
 1584              		.loc 1 1404 12 view .LVU459
 1585 003e 1340     		ands	r3, r3, r2
 1586              	.LVL136:
1404:Drivers/STM32F4xx_StdPeriph_Driver/src/stm32f4xx_usart.c ****   }
 1587              		.loc 1 1404 12 view .LVU460
 1588 0040 ECE7     		b	.L91
 1589              	.LVL137:
 1590              	.L94:
 1591              		.loc 1 1420 15 view .LVU461
 1592 0042 0020     		movs	r0, #0
 1593              	.LVL138:
 1594              		.loc 1 1420 15 view .LVU462
 1595 0044 7047     		bx	lr
 1596              	.LVL139:
 1597              	.L95:
1416:Drivers/STM32F4xx_StdPeriph_Driver/src/stm32f4xx_usart.c ****   }
 1598              		.loc 1 1416 15 view .LVU463
ARM GAS  /tmp/cc396ZZ5.s 			page 54


 1599 0046 0120     		movs	r0, #1
 1600              	.LVL140:
1421:Drivers/STM32F4xx_StdPeriph_Driver/src/stm32f4xx_usart.c ****   }
1422:Drivers/STM32F4xx_StdPeriph_Driver/src/stm32f4xx_usart.c ****   
1423:Drivers/STM32F4xx_StdPeriph_Driver/src/stm32f4xx_usart.c ****   return bitstatus;  
 1601              		.loc 1 1423 3 is_stmt 1 view .LVU464
1424:Drivers/STM32F4xx_StdPeriph_Driver/src/stm32f4xx_usart.c **** }
 1602              		.loc 1 1424 1 is_stmt 0 view .LVU465
 1603 0048 7047     		bx	lr
 1604              		.cfi_endproc
 1605              	.LFE150:
 1607              		.section	.text.USART_ClearITPendingBit,"ax",%progbits
 1608              		.align	1
 1609              		.global	USART_ClearITPendingBit
 1610              		.syntax unified
 1611              		.thumb
 1612              		.thumb_func
 1613              		.fpu fpv4-sp-d16
 1615              	USART_ClearITPendingBit:
 1616              	.LVL141:
 1617              	.LFB151:
1425:Drivers/STM32F4xx_StdPeriph_Driver/src/stm32f4xx_usart.c **** 
1426:Drivers/STM32F4xx_StdPeriph_Driver/src/stm32f4xx_usart.c **** /**
1427:Drivers/STM32F4xx_StdPeriph_Driver/src/stm32f4xx_usart.c ****   * @brief  Clears the USARTx's interrupt pending bits.
1428:Drivers/STM32F4xx_StdPeriph_Driver/src/stm32f4xx_usart.c ****   * @param  USARTx: where x can be 1, 2, 3, 4, 5, 6, 7 or 8 to select the USART or 
1429:Drivers/STM32F4xx_StdPeriph_Driver/src/stm32f4xx_usart.c ****   *         UART peripheral.
1430:Drivers/STM32F4xx_StdPeriph_Driver/src/stm32f4xx_usart.c ****   * @param  USART_IT: specifies the interrupt pending bit to clear.
1431:Drivers/STM32F4xx_StdPeriph_Driver/src/stm32f4xx_usart.c ****   *          This parameter can be one of the following values:
1432:Drivers/STM32F4xx_StdPeriph_Driver/src/stm32f4xx_usart.c ****   *            @arg USART_IT_CTS:  CTS change interrupt (not available for UART4 and UART5)
1433:Drivers/STM32F4xx_StdPeriph_Driver/src/stm32f4xx_usart.c ****   *            @arg USART_IT_LBD:  LIN Break detection interrupt
1434:Drivers/STM32F4xx_StdPeriph_Driver/src/stm32f4xx_usart.c ****   *            @arg USART_IT_TC:   Transmission complete interrupt. 
1435:Drivers/STM32F4xx_StdPeriph_Driver/src/stm32f4xx_usart.c ****   *            @arg USART_IT_RXNE: Receive Data register not empty interrupt.
1436:Drivers/STM32F4xx_StdPeriph_Driver/src/stm32f4xx_usart.c ****   *
1437:Drivers/STM32F4xx_StdPeriph_Driver/src/stm32f4xx_usart.c ****   * @note   PE (Parity error), FE (Framing error), NE (Noise error), ORE (OverRun 
1438:Drivers/STM32F4xx_StdPeriph_Driver/src/stm32f4xx_usart.c ****   *          error) and IDLE (Idle line detected) pending bits are cleared by 
1439:Drivers/STM32F4xx_StdPeriph_Driver/src/stm32f4xx_usart.c ****   *          software sequence: a read operation to USART_SR register 
1440:Drivers/STM32F4xx_StdPeriph_Driver/src/stm32f4xx_usart.c ****   *          (USART_GetITStatus()) followed by a read operation to USART_DR register 
1441:Drivers/STM32F4xx_StdPeriph_Driver/src/stm32f4xx_usart.c ****   *          (USART_ReceiveData()).
1442:Drivers/STM32F4xx_StdPeriph_Driver/src/stm32f4xx_usart.c ****   * @note   RXNE pending bit can be also cleared by a read to the USART_DR register 
1443:Drivers/STM32F4xx_StdPeriph_Driver/src/stm32f4xx_usart.c ****   *          (USART_ReceiveData()).
1444:Drivers/STM32F4xx_StdPeriph_Driver/src/stm32f4xx_usart.c ****   * @note   TC pending bit can be also cleared by software sequence: a read 
1445:Drivers/STM32F4xx_StdPeriph_Driver/src/stm32f4xx_usart.c ****   *          operation to USART_SR register (USART_GetITStatus()) followed by a write 
1446:Drivers/STM32F4xx_StdPeriph_Driver/src/stm32f4xx_usart.c ****   *          operation to USART_DR register (USART_SendData()).
1447:Drivers/STM32F4xx_StdPeriph_Driver/src/stm32f4xx_usart.c ****   * @note   TXE pending bit is cleared only by a write to the USART_DR register 
1448:Drivers/STM32F4xx_StdPeriph_Driver/src/stm32f4xx_usart.c ****   *          (USART_SendData()).
1449:Drivers/STM32F4xx_StdPeriph_Driver/src/stm32f4xx_usart.c ****   *  
1450:Drivers/STM32F4xx_StdPeriph_Driver/src/stm32f4xx_usart.c ****   * @retval None
1451:Drivers/STM32F4xx_StdPeriph_Driver/src/stm32f4xx_usart.c ****   */
1452:Drivers/STM32F4xx_StdPeriph_Driver/src/stm32f4xx_usart.c **** void USART_ClearITPendingBit(USART_TypeDef* USARTx, uint16_t USART_IT)
1453:Drivers/STM32F4xx_StdPeriph_Driver/src/stm32f4xx_usart.c **** {
 1618              		.loc 1 1453 1 is_stmt 1 view -0
 1619              		.cfi_startproc
 1620              		@ args = 0, pretend = 0, frame = 0
 1621              		@ frame_needed = 0, uses_anonymous_args = 0
 1622              		@ link register save eliminated.
1454:Drivers/STM32F4xx_StdPeriph_Driver/src/stm32f4xx_usart.c ****   uint16_t bitpos = 0x00, itmask = 0x00;
 1623              		.loc 1 1454 3 view .LVU467
ARM GAS  /tmp/cc396ZZ5.s 			page 55


1455:Drivers/STM32F4xx_StdPeriph_Driver/src/stm32f4xx_usart.c ****   /* Check the parameters */
1456:Drivers/STM32F4xx_StdPeriph_Driver/src/stm32f4xx_usart.c ****   assert_param(IS_USART_ALL_PERIPH(USARTx));
 1624              		.loc 1 1456 3 view .LVU468
1457:Drivers/STM32F4xx_StdPeriph_Driver/src/stm32f4xx_usart.c ****   assert_param(IS_USART_CLEAR_IT(USART_IT)); 
 1625              		.loc 1 1457 3 view .LVU469
1458:Drivers/STM32F4xx_StdPeriph_Driver/src/stm32f4xx_usart.c **** 
1459:Drivers/STM32F4xx_StdPeriph_Driver/src/stm32f4xx_usart.c ****   /* The CTS interrupt is not available for UART4 and UART5 */
1460:Drivers/STM32F4xx_StdPeriph_Driver/src/stm32f4xx_usart.c ****   if (USART_IT == USART_IT_CTS)
 1626              		.loc 1 1460 3 view .LVU470
1461:Drivers/STM32F4xx_StdPeriph_Driver/src/stm32f4xx_usart.c ****   {
1462:Drivers/STM32F4xx_StdPeriph_Driver/src/stm32f4xx_usart.c ****     assert_param(IS_USART_1236_PERIPH(USARTx));
 1627              		.loc 1 1462 5 view .LVU471
1463:Drivers/STM32F4xx_StdPeriph_Driver/src/stm32f4xx_usart.c ****   } 
1464:Drivers/STM32F4xx_StdPeriph_Driver/src/stm32f4xx_usart.c ****     
1465:Drivers/STM32F4xx_StdPeriph_Driver/src/stm32f4xx_usart.c ****   bitpos = USART_IT >> 0x08;
 1628              		.loc 1 1465 3 view .LVU472
 1629              		.loc 1 1465 10 is_stmt 0 view .LVU473
 1630 0000 090A     		lsrs	r1, r1, #8
 1631              	.LVL142:
1466:Drivers/STM32F4xx_StdPeriph_Driver/src/stm32f4xx_usart.c ****   itmask = ((uint16_t)0x01 << (uint16_t)bitpos);
 1632              		.loc 1 1466 3 is_stmt 1 view .LVU474
 1633              		.loc 1 1466 28 is_stmt 0 view .LVU475
 1634 0002 0123     		movs	r3, #1
 1635 0004 8B40     		lsls	r3, r3, r1
 1636              		.loc 1 1466 10 view .LVU476
 1637 0006 9BB2     		uxth	r3, r3
 1638              	.LVL143:
1467:Drivers/STM32F4xx_StdPeriph_Driver/src/stm32f4xx_usart.c ****   USARTx->SR = (uint16_t)~itmask;
 1639              		.loc 1 1467 3 is_stmt 1 view .LVU477
 1640              		.loc 1 1467 16 is_stmt 0 view .LVU478
 1641 0008 DB43     		mvns	r3, r3
 1642              	.LVL144:
 1643              		.loc 1 1467 16 view .LVU479
 1644 000a 9BB2     		uxth	r3, r3
 1645              	.LVL145:
 1646              		.loc 1 1467 14 view .LVU480
 1647 000c 0380     		strh	r3, [r0]	@ movhi
1468:Drivers/STM32F4xx_StdPeriph_Driver/src/stm32f4xx_usart.c **** }
 1648              		.loc 1 1468 1 view .LVU481
 1649 000e 7047     		bx	lr
 1650              		.cfi_endproc
 1651              	.LFE151:
 1653              		.text
 1654              	.Letext0:
 1655              		.file 2 "/usr/lib/gcc/arm-none-eabi/10.3.1/include/stdint.h"
 1656              		.file 3 "Drivers/CMSIS/Device/ST/STM32F4xx/Include/stm32f4xx.h"
 1657              		.file 4 "Drivers/STM32F4xx_StdPeriph_Driver/inc/stm32f4xx_rcc.h"
 1658              		.file 5 "Drivers/STM32F4xx_StdPeriph_Driver/inc/stm32f4xx_usart.h"
ARM GAS  /tmp/cc396ZZ5.s 			page 56

