ARM GAS  /tmp/ccCq7nsR.s 			page 1


   1              		.cpu cortex-m4
   2              		.eabi_attribute 27, 1
   3              		.eabi_attribute 28, 1
   4              		.eabi_attribute 20, 1
   5              		.eabi_attribute 21, 1
   6              		.eabi_attribute 23, 3
   7              		.eabi_attribute 24, 1
   8              		.eabi_attribute 25, 1
   9              		.eabi_attribute 26, 1
  10              		.eabi_attribute 30, 1
  11              		.eabi_attribute 34, 1
  12              		.eabi_attribute 18, 4
  13              		.file	"stm32f4xx_exti.c"
  14              		.text
  15              	.Ltext0:
  16              		.cfi_sections	.debug_frame
  17              		.section	.text.EXTI_DeInit,"ax",%progbits
  18              		.align	1
  19              		.global	EXTI_DeInit
  20              		.arch armv7e-m
  21              		.syntax unified
  22              		.thumb
  23              		.thumb_func
  24              		.fpu fpv4-sp-d16
  26              	EXTI_DeInit:
  27              	.LFB123:
  28              		.file 1 "Drivers/STM32F4xx_StdPeriph_Driver/src/stm32f4xx_exti.c"
   1:Drivers/STM32F4xx_StdPeriph_Driver/src/stm32f4xx_exti.c **** /**
   2:Drivers/STM32F4xx_StdPeriph_Driver/src/stm32f4xx_exti.c ****   ******************************************************************************
   3:Drivers/STM32F4xx_StdPeriph_Driver/src/stm32f4xx_exti.c ****   * @file    stm32f4xx_exti.c
   4:Drivers/STM32F4xx_StdPeriph_Driver/src/stm32f4xx_exti.c ****   * @author  MCD Application Team
   5:Drivers/STM32F4xx_StdPeriph_Driver/src/stm32f4xx_exti.c ****   * @version V1.6.1
   6:Drivers/STM32F4xx_StdPeriph_Driver/src/stm32f4xx_exti.c ****   * @date    21-October-2015
   7:Drivers/STM32F4xx_StdPeriph_Driver/src/stm32f4xx_exti.c ****   * @brief   This file provides firmware functions to manage the following 
   8:Drivers/STM32F4xx_StdPeriph_Driver/src/stm32f4xx_exti.c ****   *          functionalities of the EXTI peripheral:
   9:Drivers/STM32F4xx_StdPeriph_Driver/src/stm32f4xx_exti.c ****   *           + Initialization and Configuration
  10:Drivers/STM32F4xx_StdPeriph_Driver/src/stm32f4xx_exti.c ****   *           + Interrupts and flags management
  11:Drivers/STM32F4xx_StdPeriph_Driver/src/stm32f4xx_exti.c ****   *
  12:Drivers/STM32F4xx_StdPeriph_Driver/src/stm32f4xx_exti.c **** @verbatim  
  13:Drivers/STM32F4xx_StdPeriph_Driver/src/stm32f4xx_exti.c **** 
  14:Drivers/STM32F4xx_StdPeriph_Driver/src/stm32f4xx_exti.c ****  ===============================================================================
  15:Drivers/STM32F4xx_StdPeriph_Driver/src/stm32f4xx_exti.c ****                               ##### EXTI features #####
  16:Drivers/STM32F4xx_StdPeriph_Driver/src/stm32f4xx_exti.c ****  ===============================================================================
  17:Drivers/STM32F4xx_StdPeriph_Driver/src/stm32f4xx_exti.c **** 
  18:Drivers/STM32F4xx_StdPeriph_Driver/src/stm32f4xx_exti.c ****  [..] External interrupt/event lines are mapped as following:
  19:Drivers/STM32F4xx_StdPeriph_Driver/src/stm32f4xx_exti.c ****    (#) All available GPIO pins are connected to the 16 external 
  20:Drivers/STM32F4xx_StdPeriph_Driver/src/stm32f4xx_exti.c ****        interrupt/event lines from EXTI0 to EXTI15.
  21:Drivers/STM32F4xx_StdPeriph_Driver/src/stm32f4xx_exti.c ****    (#) EXTI line 16 is connected to the PVD Output
  22:Drivers/STM32F4xx_StdPeriph_Driver/src/stm32f4xx_exti.c ****    (#) EXTI line 17 is connected to the RTC Alarm event
  23:Drivers/STM32F4xx_StdPeriph_Driver/src/stm32f4xx_exti.c ****    (#) EXTI line 18 is connected to the USB OTG FS Wakeup from suspend event
  24:Drivers/STM32F4xx_StdPeriph_Driver/src/stm32f4xx_exti.c ****    (#) EXTI line 19 is connected to the Ethernet Wakeup event
  25:Drivers/STM32F4xx_StdPeriph_Driver/src/stm32f4xx_exti.c ****    (#) EXTI line 20 is connected to the USB OTG HS (configured in FS) Wakeup event 
  26:Drivers/STM32F4xx_StdPeriph_Driver/src/stm32f4xx_exti.c ****    (#) EXTI line 21 is connected to the RTC Tamper and Time Stamp events
  27:Drivers/STM32F4xx_StdPeriph_Driver/src/stm32f4xx_exti.c ****    (#) EXTI line 22 is connected to the RTC Wakeup event
  28:Drivers/STM32F4xx_StdPeriph_Driver/src/stm32f4xx_exti.c ****    (#) EXTI line 23 is connected to the LPTIM Wakeup event 
  29:Drivers/STM32F4xx_StdPeriph_Driver/src/stm32f4xx_exti.c **** 
  30:Drivers/STM32F4xx_StdPeriph_Driver/src/stm32f4xx_exti.c ****                        ##### How to use this driver #####
ARM GAS  /tmp/ccCq7nsR.s 			page 2


  31:Drivers/STM32F4xx_StdPeriph_Driver/src/stm32f4xx_exti.c ****  ===============================================================================
  32:Drivers/STM32F4xx_StdPeriph_Driver/src/stm32f4xx_exti.c ****  
  33:Drivers/STM32F4xx_StdPeriph_Driver/src/stm32f4xx_exti.c ****  [..] In order to use an I/O pin as an external interrupt source, follow steps 
  34:Drivers/STM32F4xx_StdPeriph_Driver/src/stm32f4xx_exti.c ****       below:
  35:Drivers/STM32F4xx_StdPeriph_Driver/src/stm32f4xx_exti.c ****    (#) Configure the I/O in input mode using GPIO_Init()
  36:Drivers/STM32F4xx_StdPeriph_Driver/src/stm32f4xx_exti.c ****    (#) Select the input source pin for the EXTI line using SYSCFG_EXTILineConfig()
  37:Drivers/STM32F4xx_StdPeriph_Driver/src/stm32f4xx_exti.c ****    (#) Select the mode(interrupt, event) and configure the trigger 
  38:Drivers/STM32F4xx_StdPeriph_Driver/src/stm32f4xx_exti.c ****        selection (Rising, falling or both) using EXTI_Init()
  39:Drivers/STM32F4xx_StdPeriph_Driver/src/stm32f4xx_exti.c ****    (#) Configure NVIC IRQ channel mapped to the EXTI line using NVIC_Init()
  40:Drivers/STM32F4xx_StdPeriph_Driver/src/stm32f4xx_exti.c **** 
  41:Drivers/STM32F4xx_StdPeriph_Driver/src/stm32f4xx_exti.c ****  [..]     
  42:Drivers/STM32F4xx_StdPeriph_Driver/src/stm32f4xx_exti.c ****    (@) SYSCFG APB clock must be enabled to get write access to SYSCFG_EXTICRx
  43:Drivers/STM32F4xx_StdPeriph_Driver/src/stm32f4xx_exti.c ****        registers using RCC_APB2PeriphClockCmd(RCC_APB2Periph_SYSCFG, ENABLE);
  44:Drivers/STM32F4xx_StdPeriph_Driver/src/stm32f4xx_exti.c **** 
  45:Drivers/STM32F4xx_StdPeriph_Driver/src/stm32f4xx_exti.c **** @endverbatim
  46:Drivers/STM32F4xx_StdPeriph_Driver/src/stm32f4xx_exti.c ****   *
  47:Drivers/STM32F4xx_StdPeriph_Driver/src/stm32f4xx_exti.c ****   ******************************************************************************
  48:Drivers/STM32F4xx_StdPeriph_Driver/src/stm32f4xx_exti.c ****   * @attention
  49:Drivers/STM32F4xx_StdPeriph_Driver/src/stm32f4xx_exti.c ****   *
  50:Drivers/STM32F4xx_StdPeriph_Driver/src/stm32f4xx_exti.c ****   * <h2><center>&copy; COPYRIGHT 2015 STMicroelectronics</center></h2>
  51:Drivers/STM32F4xx_StdPeriph_Driver/src/stm32f4xx_exti.c ****   *
  52:Drivers/STM32F4xx_StdPeriph_Driver/src/stm32f4xx_exti.c ****   * Licensed under MCD-ST Liberty SW License Agreement V2, (the "License");
  53:Drivers/STM32F4xx_StdPeriph_Driver/src/stm32f4xx_exti.c ****   * You may not use this file except in compliance with the License.
  54:Drivers/STM32F4xx_StdPeriph_Driver/src/stm32f4xx_exti.c ****   * You may obtain a copy of the License at:
  55:Drivers/STM32F4xx_StdPeriph_Driver/src/stm32f4xx_exti.c ****   *
  56:Drivers/STM32F4xx_StdPeriph_Driver/src/stm32f4xx_exti.c ****   *        http://www.st.com/software_license_agreement_liberty_v2
  57:Drivers/STM32F4xx_StdPeriph_Driver/src/stm32f4xx_exti.c ****   *
  58:Drivers/STM32F4xx_StdPeriph_Driver/src/stm32f4xx_exti.c ****   * Unless required by applicable law or agreed to in writing, software 
  59:Drivers/STM32F4xx_StdPeriph_Driver/src/stm32f4xx_exti.c ****   * distributed under the License is distributed on an "AS IS" BASIS, 
  60:Drivers/STM32F4xx_StdPeriph_Driver/src/stm32f4xx_exti.c ****   * WITHOUT WARRANTIES OR CONDITIONS OF ANY KIND, either express or implied.
  61:Drivers/STM32F4xx_StdPeriph_Driver/src/stm32f4xx_exti.c ****   * See the License for the specific language governing permissions and
  62:Drivers/STM32F4xx_StdPeriph_Driver/src/stm32f4xx_exti.c ****   * limitations under the License.
  63:Drivers/STM32F4xx_StdPeriph_Driver/src/stm32f4xx_exti.c ****   *
  64:Drivers/STM32F4xx_StdPeriph_Driver/src/stm32f4xx_exti.c ****   ******************************************************************************
  65:Drivers/STM32F4xx_StdPeriph_Driver/src/stm32f4xx_exti.c ****   */
  66:Drivers/STM32F4xx_StdPeriph_Driver/src/stm32f4xx_exti.c **** 
  67:Drivers/STM32F4xx_StdPeriph_Driver/src/stm32f4xx_exti.c **** /* Includes ------------------------------------------------------------------*/
  68:Drivers/STM32F4xx_StdPeriph_Driver/src/stm32f4xx_exti.c **** #include "stm32f4xx_exti.h"
  69:Drivers/STM32F4xx_StdPeriph_Driver/src/stm32f4xx_exti.c **** 
  70:Drivers/STM32F4xx_StdPeriph_Driver/src/stm32f4xx_exti.c **** /** @addtogroup STM32F4xx_StdPeriph_Driver
  71:Drivers/STM32F4xx_StdPeriph_Driver/src/stm32f4xx_exti.c ****   * @{
  72:Drivers/STM32F4xx_StdPeriph_Driver/src/stm32f4xx_exti.c ****   */
  73:Drivers/STM32F4xx_StdPeriph_Driver/src/stm32f4xx_exti.c **** 
  74:Drivers/STM32F4xx_StdPeriph_Driver/src/stm32f4xx_exti.c **** /** @defgroup EXTI 
  75:Drivers/STM32F4xx_StdPeriph_Driver/src/stm32f4xx_exti.c ****   * @brief EXTI driver modules
  76:Drivers/STM32F4xx_StdPeriph_Driver/src/stm32f4xx_exti.c ****   * @{
  77:Drivers/STM32F4xx_StdPeriph_Driver/src/stm32f4xx_exti.c ****   */
  78:Drivers/STM32F4xx_StdPeriph_Driver/src/stm32f4xx_exti.c **** 
  79:Drivers/STM32F4xx_StdPeriph_Driver/src/stm32f4xx_exti.c **** /* Private typedef -----------------------------------------------------------*/
  80:Drivers/STM32F4xx_StdPeriph_Driver/src/stm32f4xx_exti.c **** /* Private define ------------------------------------------------------------*/
  81:Drivers/STM32F4xx_StdPeriph_Driver/src/stm32f4xx_exti.c **** 
  82:Drivers/STM32F4xx_StdPeriph_Driver/src/stm32f4xx_exti.c **** #define EXTI_LINENONE    ((uint32_t)0x00000)  /* No interrupt selected */
  83:Drivers/STM32F4xx_StdPeriph_Driver/src/stm32f4xx_exti.c **** 
  84:Drivers/STM32F4xx_StdPeriph_Driver/src/stm32f4xx_exti.c **** /* Private macro -------------------------------------------------------------*/
  85:Drivers/STM32F4xx_StdPeriph_Driver/src/stm32f4xx_exti.c **** /* Private variables ---------------------------------------------------------*/
  86:Drivers/STM32F4xx_StdPeriph_Driver/src/stm32f4xx_exti.c **** /* Private function prototypes -----------------------------------------------*/
  87:Drivers/STM32F4xx_StdPeriph_Driver/src/stm32f4xx_exti.c **** /* Private functions ---------------------------------------------------------*/
ARM GAS  /tmp/ccCq7nsR.s 			page 3


  88:Drivers/STM32F4xx_StdPeriph_Driver/src/stm32f4xx_exti.c **** 
  89:Drivers/STM32F4xx_StdPeriph_Driver/src/stm32f4xx_exti.c **** /** @defgroup EXTI_Private_Functions
  90:Drivers/STM32F4xx_StdPeriph_Driver/src/stm32f4xx_exti.c ****   * @{
  91:Drivers/STM32F4xx_StdPeriph_Driver/src/stm32f4xx_exti.c ****   */
  92:Drivers/STM32F4xx_StdPeriph_Driver/src/stm32f4xx_exti.c **** 
  93:Drivers/STM32F4xx_StdPeriph_Driver/src/stm32f4xx_exti.c **** /** @defgroup EXTI_Group1 Initialization and Configuration functions
  94:Drivers/STM32F4xx_StdPeriph_Driver/src/stm32f4xx_exti.c ****  *  @brief   Initialization and Configuration functions 
  95:Drivers/STM32F4xx_StdPeriph_Driver/src/stm32f4xx_exti.c ****  *
  96:Drivers/STM32F4xx_StdPeriph_Driver/src/stm32f4xx_exti.c **** @verbatim   
  97:Drivers/STM32F4xx_StdPeriph_Driver/src/stm32f4xx_exti.c ****  ===============================================================================
  98:Drivers/STM32F4xx_StdPeriph_Driver/src/stm32f4xx_exti.c ****              ##### Initialization and Configuration functions #####
  99:Drivers/STM32F4xx_StdPeriph_Driver/src/stm32f4xx_exti.c ****  ===============================================================================
 100:Drivers/STM32F4xx_StdPeriph_Driver/src/stm32f4xx_exti.c **** 
 101:Drivers/STM32F4xx_StdPeriph_Driver/src/stm32f4xx_exti.c **** @endverbatim
 102:Drivers/STM32F4xx_StdPeriph_Driver/src/stm32f4xx_exti.c ****   * @{
 103:Drivers/STM32F4xx_StdPeriph_Driver/src/stm32f4xx_exti.c ****   */
 104:Drivers/STM32F4xx_StdPeriph_Driver/src/stm32f4xx_exti.c **** 
 105:Drivers/STM32F4xx_StdPeriph_Driver/src/stm32f4xx_exti.c **** /**
 106:Drivers/STM32F4xx_StdPeriph_Driver/src/stm32f4xx_exti.c ****   * @brief  Deinitializes the EXTI peripheral registers to their default reset values.
 107:Drivers/STM32F4xx_StdPeriph_Driver/src/stm32f4xx_exti.c ****   * @param  None
 108:Drivers/STM32F4xx_StdPeriph_Driver/src/stm32f4xx_exti.c ****   * @retval None
 109:Drivers/STM32F4xx_StdPeriph_Driver/src/stm32f4xx_exti.c ****   */
 110:Drivers/STM32F4xx_StdPeriph_Driver/src/stm32f4xx_exti.c **** void EXTI_DeInit(void)
 111:Drivers/STM32F4xx_StdPeriph_Driver/src/stm32f4xx_exti.c **** {
  29              		.loc 1 111 1 view -0
  30              		.cfi_startproc
  31              		@ args = 0, pretend = 0, frame = 0
  32              		@ frame_needed = 0, uses_anonymous_args = 0
  33              		@ link register save eliminated.
 112:Drivers/STM32F4xx_StdPeriph_Driver/src/stm32f4xx_exti.c ****   EXTI->IMR = 0x00000000;
  34              		.loc 1 112 3 view .LVU1
  35              		.loc 1 112 13 is_stmt 0 view .LVU2
  36 0000 044B     		ldr	r3, .L2
  37 0002 0022     		movs	r2, #0
  38 0004 1A60     		str	r2, [r3]
 113:Drivers/STM32F4xx_StdPeriph_Driver/src/stm32f4xx_exti.c ****   EXTI->EMR = 0x00000000;
  39              		.loc 1 113 3 is_stmt 1 view .LVU3
  40              		.loc 1 113 13 is_stmt 0 view .LVU4
  41 0006 5A60     		str	r2, [r3, #4]
 114:Drivers/STM32F4xx_StdPeriph_Driver/src/stm32f4xx_exti.c ****   EXTI->RTSR = 0x00000000;
  42              		.loc 1 114 3 is_stmt 1 view .LVU5
  43              		.loc 1 114 14 is_stmt 0 view .LVU6
  44 0008 9A60     		str	r2, [r3, #8]
 115:Drivers/STM32F4xx_StdPeriph_Driver/src/stm32f4xx_exti.c ****   EXTI->FTSR = 0x00000000;
  45              		.loc 1 115 3 is_stmt 1 view .LVU7
  46              		.loc 1 115 14 is_stmt 0 view .LVU8
  47 000a DA60     		str	r2, [r3, #12]
 116:Drivers/STM32F4xx_StdPeriph_Driver/src/stm32f4xx_exti.c ****   EXTI->PR = 0x007FFFFF;
  48              		.loc 1 116 3 is_stmt 1 view .LVU9
  49              		.loc 1 116 12 is_stmt 0 view .LVU10
  50 000c 024A     		ldr	r2, .L2+4
  51 000e 5A61     		str	r2, [r3, #20]
 117:Drivers/STM32F4xx_StdPeriph_Driver/src/stm32f4xx_exti.c **** }
  52              		.loc 1 117 1 view .LVU11
  53 0010 7047     		bx	lr
  54              	.L3:
  55 0012 00BF     		.align	2
ARM GAS  /tmp/ccCq7nsR.s 			page 4


  56              	.L2:
  57 0014 003C0140 		.word	1073822720
  58 0018 FFFF7F00 		.word	8388607
  59              		.cfi_endproc
  60              	.LFE123:
  62              		.section	.text.EXTI_Init,"ax",%progbits
  63              		.align	1
  64              		.global	EXTI_Init
  65              		.syntax unified
  66              		.thumb
  67              		.thumb_func
  68              		.fpu fpv4-sp-d16
  70              	EXTI_Init:
  71              	.LVL0:
  72              	.LFB124:
 118:Drivers/STM32F4xx_StdPeriph_Driver/src/stm32f4xx_exti.c **** 
 119:Drivers/STM32F4xx_StdPeriph_Driver/src/stm32f4xx_exti.c **** /**
 120:Drivers/STM32F4xx_StdPeriph_Driver/src/stm32f4xx_exti.c ****   * @brief  Initializes the EXTI peripheral according to the specified
 121:Drivers/STM32F4xx_StdPeriph_Driver/src/stm32f4xx_exti.c ****   *         parameters in the EXTI_InitStruct.
 122:Drivers/STM32F4xx_StdPeriph_Driver/src/stm32f4xx_exti.c ****   * @param  EXTI_InitStruct: pointer to a EXTI_InitTypeDef structure
 123:Drivers/STM32F4xx_StdPeriph_Driver/src/stm32f4xx_exti.c ****   *         that contains the configuration information for the EXTI peripheral.
 124:Drivers/STM32F4xx_StdPeriph_Driver/src/stm32f4xx_exti.c ****   * @retval None
 125:Drivers/STM32F4xx_StdPeriph_Driver/src/stm32f4xx_exti.c ****   */
 126:Drivers/STM32F4xx_StdPeriph_Driver/src/stm32f4xx_exti.c **** void EXTI_Init(EXTI_InitTypeDef* EXTI_InitStruct)
 127:Drivers/STM32F4xx_StdPeriph_Driver/src/stm32f4xx_exti.c **** {
  73              		.loc 1 127 1 is_stmt 1 view -0
  74              		.cfi_startproc
  75              		@ args = 0, pretend = 0, frame = 0
  76              		@ frame_needed = 0, uses_anonymous_args = 0
  77              		@ link register save eliminated.
 128:Drivers/STM32F4xx_StdPeriph_Driver/src/stm32f4xx_exti.c ****   uint32_t tmp = 0;
  78              		.loc 1 128 3 view .LVU13
 129:Drivers/STM32F4xx_StdPeriph_Driver/src/stm32f4xx_exti.c **** 
 130:Drivers/STM32F4xx_StdPeriph_Driver/src/stm32f4xx_exti.c ****   /* Check the parameters */
 131:Drivers/STM32F4xx_StdPeriph_Driver/src/stm32f4xx_exti.c ****   assert_param(IS_EXTI_MODE(EXTI_InitStruct->EXTI_Mode));
  79              		.loc 1 131 3 view .LVU14
 132:Drivers/STM32F4xx_StdPeriph_Driver/src/stm32f4xx_exti.c ****   assert_param(IS_EXTI_TRIGGER(EXTI_InitStruct->EXTI_Trigger));
  80              		.loc 1 132 3 view .LVU15
 133:Drivers/STM32F4xx_StdPeriph_Driver/src/stm32f4xx_exti.c ****   assert_param(IS_EXTI_LINE(EXTI_InitStruct->EXTI_Line));  
  81              		.loc 1 133 3 view .LVU16
 134:Drivers/STM32F4xx_StdPeriph_Driver/src/stm32f4xx_exti.c ****   assert_param(IS_FUNCTIONAL_STATE(EXTI_InitStruct->EXTI_LineCmd));
  82              		.loc 1 134 3 view .LVU17
 135:Drivers/STM32F4xx_StdPeriph_Driver/src/stm32f4xx_exti.c **** 
 136:Drivers/STM32F4xx_StdPeriph_Driver/src/stm32f4xx_exti.c ****   tmp = (uint32_t)EXTI_BASE;
  83              		.loc 1 136 3 view .LVU18
 137:Drivers/STM32F4xx_StdPeriph_Driver/src/stm32f4xx_exti.c ****      
 138:Drivers/STM32F4xx_StdPeriph_Driver/src/stm32f4xx_exti.c ****   if (EXTI_InitStruct->EXTI_LineCmd != DISABLE)
  84              		.loc 1 138 3 view .LVU19
  85              		.loc 1 138 22 is_stmt 0 view .LVU20
  86 0000 8379     		ldrb	r3, [r0, #6]	@ zero_extendqisi2
  87              		.loc 1 138 6 view .LVU21
  88 0002 002B     		cmp	r3, #0
  89 0004 36D0     		beq	.L5
 127:Drivers/STM32F4xx_StdPeriph_Driver/src/stm32f4xx_exti.c ****   uint32_t tmp = 0;
  90              		.loc 1 127 1 view .LVU22
  91 0006 10B4     		push	{r4}
  92              		.cfi_def_cfa_offset 4
ARM GAS  /tmp/ccCq7nsR.s 			page 5


  93              		.cfi_offset 4, -4
 139:Drivers/STM32F4xx_StdPeriph_Driver/src/stm32f4xx_exti.c ****   {
 140:Drivers/STM32F4xx_StdPeriph_Driver/src/stm32f4xx_exti.c ****     /* Clear EXTI line configuration */
 141:Drivers/STM32F4xx_StdPeriph_Driver/src/stm32f4xx_exti.c ****     EXTI->IMR &= ~EXTI_InitStruct->EXTI_Line;
  94              		.loc 1 141 5 is_stmt 1 view .LVU23
  95              		.loc 1 141 15 is_stmt 0 view .LVU24
  96 0008 204B     		ldr	r3, .L13
  97 000a 1A68     		ldr	r2, [r3]
  98              		.loc 1 141 34 view .LVU25
  99 000c 0168     		ldr	r1, [r0]
 100              		.loc 1 141 15 view .LVU26
 101 000e 22EA0102 		bic	r2, r2, r1
 102 0012 1A60     		str	r2, [r3]
 142:Drivers/STM32F4xx_StdPeriph_Driver/src/stm32f4xx_exti.c ****     EXTI->EMR &= ~EXTI_InitStruct->EXTI_Line;
 103              		.loc 1 142 5 is_stmt 1 view .LVU27
 104              		.loc 1 142 15 is_stmt 0 view .LVU28
 105 0014 5A68     		ldr	r2, [r3, #4]
 106              		.loc 1 142 34 view .LVU29
 107 0016 0168     		ldr	r1, [r0]
 108              		.loc 1 142 15 view .LVU30
 109 0018 22EA0102 		bic	r2, r2, r1
 110 001c 5A60     		str	r2, [r3, #4]
 143:Drivers/STM32F4xx_StdPeriph_Driver/src/stm32f4xx_exti.c ****     
 144:Drivers/STM32F4xx_StdPeriph_Driver/src/stm32f4xx_exti.c ****     tmp += EXTI_InitStruct->EXTI_Mode;
 111              		.loc 1 144 5 is_stmt 1 view .LVU31
 112              		.loc 1 144 27 is_stmt 0 view .LVU32
 113 001e 0279     		ldrb	r2, [r0, #4]	@ zero_extendqisi2
 114              		.loc 1 144 9 view .LVU33
 115 0020 02F18042 		add	r2, r2, #1073741824
 116 0024 02F59E32 		add	r2, r2, #80896
 117              	.LVL1:
 145:Drivers/STM32F4xx_StdPeriph_Driver/src/stm32f4xx_exti.c **** 
 146:Drivers/STM32F4xx_StdPeriph_Driver/src/stm32f4xx_exti.c ****     *(__IO uint32_t *) tmp |= EXTI_InitStruct->EXTI_Line;
 118              		.loc 1 146 5 is_stmt 1 view .LVU34
 119              		.loc 1 146 28 is_stmt 0 view .LVU35
 120 0028 1168     		ldr	r1, [r2]
 121 002a 0468     		ldr	r4, [r0]
 122 002c 2143     		orrs	r1, r1, r4
 123 002e 1160     		str	r1, [r2]
 147:Drivers/STM32F4xx_StdPeriph_Driver/src/stm32f4xx_exti.c **** 
 148:Drivers/STM32F4xx_StdPeriph_Driver/src/stm32f4xx_exti.c ****     /* Clear Rising Falling edge configuration */
 149:Drivers/STM32F4xx_StdPeriph_Driver/src/stm32f4xx_exti.c ****     EXTI->RTSR &= ~EXTI_InitStruct->EXTI_Line;
 124              		.loc 1 149 5 is_stmt 1 view .LVU36
 125              		.loc 1 149 16 is_stmt 0 view .LVU37
 126 0030 9A68     		ldr	r2, [r3, #8]
 127              	.LVL2:
 128              		.loc 1 149 35 view .LVU38
 129 0032 0168     		ldr	r1, [r0]
 130              		.loc 1 149 16 view .LVU39
 131 0034 22EA0102 		bic	r2, r2, r1
 132 0038 9A60     		str	r2, [r3, #8]
 150:Drivers/STM32F4xx_StdPeriph_Driver/src/stm32f4xx_exti.c ****     EXTI->FTSR &= ~EXTI_InitStruct->EXTI_Line;
 133              		.loc 1 150 5 is_stmt 1 view .LVU40
 134              		.loc 1 150 16 is_stmt 0 view .LVU41
 135 003a DA68     		ldr	r2, [r3, #12]
 136              		.loc 1 150 35 view .LVU42
 137 003c 0168     		ldr	r1, [r0]
ARM GAS  /tmp/ccCq7nsR.s 			page 6


 138              		.loc 1 150 16 view .LVU43
 139 003e 22EA0102 		bic	r2, r2, r1
 140 0042 DA60     		str	r2, [r3, #12]
 151:Drivers/STM32F4xx_StdPeriph_Driver/src/stm32f4xx_exti.c ****     
 152:Drivers/STM32F4xx_StdPeriph_Driver/src/stm32f4xx_exti.c ****     /* Select the trigger for the selected external interrupts */
 153:Drivers/STM32F4xx_StdPeriph_Driver/src/stm32f4xx_exti.c ****     if (EXTI_InitStruct->EXTI_Trigger == EXTI_Trigger_Rising_Falling)
 141              		.loc 1 153 5 is_stmt 1 view .LVU44
 142              		.loc 1 153 24 is_stmt 0 view .LVU45
 143 0044 4379     		ldrb	r3, [r0, #5]	@ zero_extendqisi2
 144              		.loc 1 153 8 view .LVU46
 145 0046 102B     		cmp	r3, #16
 146 0048 0AD0     		beq	.L12
 154:Drivers/STM32F4xx_StdPeriph_Driver/src/stm32f4xx_exti.c ****     {
 155:Drivers/STM32F4xx_StdPeriph_Driver/src/stm32f4xx_exti.c ****       /* Rising Falling edge */
 156:Drivers/STM32F4xx_StdPeriph_Driver/src/stm32f4xx_exti.c ****       EXTI->RTSR |= EXTI_InitStruct->EXTI_Line;
 157:Drivers/STM32F4xx_StdPeriph_Driver/src/stm32f4xx_exti.c ****       EXTI->FTSR |= EXTI_InitStruct->EXTI_Line;
 158:Drivers/STM32F4xx_StdPeriph_Driver/src/stm32f4xx_exti.c ****     }
 159:Drivers/STM32F4xx_StdPeriph_Driver/src/stm32f4xx_exti.c ****     else
 160:Drivers/STM32F4xx_StdPeriph_Driver/src/stm32f4xx_exti.c ****     {
 161:Drivers/STM32F4xx_StdPeriph_Driver/src/stm32f4xx_exti.c ****       tmp = (uint32_t)EXTI_BASE;
 147              		.loc 1 161 7 is_stmt 1 view .LVU47
 148              	.LVL3:
 162:Drivers/STM32F4xx_StdPeriph_Driver/src/stm32f4xx_exti.c ****       tmp += EXTI_InitStruct->EXTI_Trigger;
 149              		.loc 1 162 7 view .LVU48
 150              		.loc 1 162 11 is_stmt 0 view .LVU49
 151 004a 03F18043 		add	r3, r3, #1073741824
 152 004e 03F59E33 		add	r3, r3, #80896
 153              	.LVL4:
 163:Drivers/STM32F4xx_StdPeriph_Driver/src/stm32f4xx_exti.c **** 
 164:Drivers/STM32F4xx_StdPeriph_Driver/src/stm32f4xx_exti.c ****       *(__IO uint32_t *) tmp |= EXTI_InitStruct->EXTI_Line;
 154              		.loc 1 164 7 is_stmt 1 view .LVU50
 155              		.loc 1 164 30 is_stmt 0 view .LVU51
 156 0052 1A68     		ldr	r2, [r3]
 157              		.loc 1 164 48 view .LVU52
 158 0054 0168     		ldr	r1, [r0]
 159              		.loc 1 164 30 view .LVU53
 160 0056 0A43     		orrs	r2, r2, r1
 161 0058 1A60     		str	r2, [r3]
 162              	.LVL5:
 163              	.L4:
 165:Drivers/STM32F4xx_StdPeriph_Driver/src/stm32f4xx_exti.c ****     }
 166:Drivers/STM32F4xx_StdPeriph_Driver/src/stm32f4xx_exti.c ****   }
 167:Drivers/STM32F4xx_StdPeriph_Driver/src/stm32f4xx_exti.c ****   else
 168:Drivers/STM32F4xx_StdPeriph_Driver/src/stm32f4xx_exti.c ****   {
 169:Drivers/STM32F4xx_StdPeriph_Driver/src/stm32f4xx_exti.c ****     tmp += EXTI_InitStruct->EXTI_Mode;
 170:Drivers/STM32F4xx_StdPeriph_Driver/src/stm32f4xx_exti.c **** 
 171:Drivers/STM32F4xx_StdPeriph_Driver/src/stm32f4xx_exti.c ****     /* Disable the selected external lines */
 172:Drivers/STM32F4xx_StdPeriph_Driver/src/stm32f4xx_exti.c ****     *(__IO uint32_t *) tmp &= ~EXTI_InitStruct->EXTI_Line;
 173:Drivers/STM32F4xx_StdPeriph_Driver/src/stm32f4xx_exti.c ****   }
 174:Drivers/STM32F4xx_StdPeriph_Driver/src/stm32f4xx_exti.c **** }
 164              		.loc 1 174 1 view .LVU54
 165 005a 5DF8044B 		ldr	r4, [sp], #4
 166              		.cfi_remember_state
 167              		.cfi_restore 4
 168              		.cfi_def_cfa_offset 0
 169 005e 7047     		bx	lr
 170              	.L12:
ARM GAS  /tmp/ccCq7nsR.s 			page 7


 171              		.cfi_restore_state
 156:Drivers/STM32F4xx_StdPeriph_Driver/src/stm32f4xx_exti.c ****       EXTI->FTSR |= EXTI_InitStruct->EXTI_Line;
 172              		.loc 1 156 7 is_stmt 1 view .LVU55
 156:Drivers/STM32F4xx_StdPeriph_Driver/src/stm32f4xx_exti.c ****       EXTI->FTSR |= EXTI_InitStruct->EXTI_Line;
 173              		.loc 1 156 18 is_stmt 0 view .LVU56
 174 0060 0A4B     		ldr	r3, .L13
 175 0062 9A68     		ldr	r2, [r3, #8]
 156:Drivers/STM32F4xx_StdPeriph_Driver/src/stm32f4xx_exti.c ****       EXTI->FTSR |= EXTI_InitStruct->EXTI_Line;
 176              		.loc 1 156 36 view .LVU57
 177 0064 0168     		ldr	r1, [r0]
 156:Drivers/STM32F4xx_StdPeriph_Driver/src/stm32f4xx_exti.c ****       EXTI->FTSR |= EXTI_InitStruct->EXTI_Line;
 178              		.loc 1 156 18 view .LVU58
 179 0066 0A43     		orrs	r2, r2, r1
 180 0068 9A60     		str	r2, [r3, #8]
 157:Drivers/STM32F4xx_StdPeriph_Driver/src/stm32f4xx_exti.c ****     }
 181              		.loc 1 157 7 is_stmt 1 view .LVU59
 157:Drivers/STM32F4xx_StdPeriph_Driver/src/stm32f4xx_exti.c ****     }
 182              		.loc 1 157 18 is_stmt 0 view .LVU60
 183 006a DA68     		ldr	r2, [r3, #12]
 157:Drivers/STM32F4xx_StdPeriph_Driver/src/stm32f4xx_exti.c ****     }
 184              		.loc 1 157 36 view .LVU61
 185 006c 0168     		ldr	r1, [r0]
 157:Drivers/STM32F4xx_StdPeriph_Driver/src/stm32f4xx_exti.c ****     }
 186              		.loc 1 157 18 view .LVU62
 187 006e 0A43     		orrs	r2, r2, r1
 188 0070 DA60     		str	r2, [r3, #12]
 189 0072 F2E7     		b	.L4
 190              	.LVL6:
 191              	.L5:
 192              		.cfi_def_cfa_offset 0
 193              		.cfi_restore 4
 169:Drivers/STM32F4xx_StdPeriph_Driver/src/stm32f4xx_exti.c **** 
 194              		.loc 1 169 5 is_stmt 1 view .LVU63
 169:Drivers/STM32F4xx_StdPeriph_Driver/src/stm32f4xx_exti.c **** 
 195              		.loc 1 169 27 is_stmt 0 view .LVU64
 196 0074 0379     		ldrb	r3, [r0, #4]	@ zero_extendqisi2
 169:Drivers/STM32F4xx_StdPeriph_Driver/src/stm32f4xx_exti.c **** 
 197              		.loc 1 169 9 view .LVU65
 198 0076 03F18043 		add	r3, r3, #1073741824
 199 007a 03F59E33 		add	r3, r3, #80896
 200              	.LVL7:
 172:Drivers/STM32F4xx_StdPeriph_Driver/src/stm32f4xx_exti.c ****   }
 201              		.loc 1 172 5 is_stmt 1 view .LVU66
 172:Drivers/STM32F4xx_StdPeriph_Driver/src/stm32f4xx_exti.c ****   }
 202              		.loc 1 172 28 is_stmt 0 view .LVU67
 203 007e 1A68     		ldr	r2, [r3]
 172:Drivers/STM32F4xx_StdPeriph_Driver/src/stm32f4xx_exti.c ****   }
 204              		.loc 1 172 47 view .LVU68
 205 0080 0168     		ldr	r1, [r0]
 172:Drivers/STM32F4xx_StdPeriph_Driver/src/stm32f4xx_exti.c ****   }
 206              		.loc 1 172 28 view .LVU69
 207 0082 22EA0102 		bic	r2, r2, r1
 208 0086 1A60     		str	r2, [r3]
 209 0088 7047     		bx	lr
 210              	.L14:
 211 008a 00BF     		.align	2
 212              	.L13:
ARM GAS  /tmp/ccCq7nsR.s 			page 8


 213 008c 003C0140 		.word	1073822720
 214              		.cfi_endproc
 215              	.LFE124:
 217              		.section	.text.EXTI_StructInit,"ax",%progbits
 218              		.align	1
 219              		.global	EXTI_StructInit
 220              		.syntax unified
 221              		.thumb
 222              		.thumb_func
 223              		.fpu fpv4-sp-d16
 225              	EXTI_StructInit:
 226              	.LVL8:
 227              	.LFB125:
 175:Drivers/STM32F4xx_StdPeriph_Driver/src/stm32f4xx_exti.c **** 
 176:Drivers/STM32F4xx_StdPeriph_Driver/src/stm32f4xx_exti.c **** /**
 177:Drivers/STM32F4xx_StdPeriph_Driver/src/stm32f4xx_exti.c ****   * @brief  Fills each EXTI_InitStruct member with its reset value.
 178:Drivers/STM32F4xx_StdPeriph_Driver/src/stm32f4xx_exti.c ****   * @param  EXTI_InitStruct: pointer to a EXTI_InitTypeDef structure which will
 179:Drivers/STM32F4xx_StdPeriph_Driver/src/stm32f4xx_exti.c ****   *         be initialized.
 180:Drivers/STM32F4xx_StdPeriph_Driver/src/stm32f4xx_exti.c ****   * @retval None
 181:Drivers/STM32F4xx_StdPeriph_Driver/src/stm32f4xx_exti.c ****   */
 182:Drivers/STM32F4xx_StdPeriph_Driver/src/stm32f4xx_exti.c **** void EXTI_StructInit(EXTI_InitTypeDef* EXTI_InitStruct)
 183:Drivers/STM32F4xx_StdPeriph_Driver/src/stm32f4xx_exti.c **** {
 228              		.loc 1 183 1 is_stmt 1 view -0
 229              		.cfi_startproc
 230              		@ args = 0, pretend = 0, frame = 0
 231              		@ frame_needed = 0, uses_anonymous_args = 0
 232              		@ link register save eliminated.
 184:Drivers/STM32F4xx_StdPeriph_Driver/src/stm32f4xx_exti.c ****   EXTI_InitStruct->EXTI_Line = EXTI_LINENONE;
 233              		.loc 1 184 3 view .LVU71
 234              		.loc 1 184 30 is_stmt 0 view .LVU72
 235 0000 0023     		movs	r3, #0
 236 0002 0360     		str	r3, [r0]
 185:Drivers/STM32F4xx_StdPeriph_Driver/src/stm32f4xx_exti.c ****   EXTI_InitStruct->EXTI_Mode = EXTI_Mode_Interrupt;
 237              		.loc 1 185 3 is_stmt 1 view .LVU73
 238              		.loc 1 185 30 is_stmt 0 view .LVU74
 239 0004 0371     		strb	r3, [r0, #4]
 186:Drivers/STM32F4xx_StdPeriph_Driver/src/stm32f4xx_exti.c ****   EXTI_InitStruct->EXTI_Trigger = EXTI_Trigger_Falling;
 240              		.loc 1 186 3 is_stmt 1 view .LVU75
 241              		.loc 1 186 33 is_stmt 0 view .LVU76
 242 0006 0C22     		movs	r2, #12
 243 0008 4271     		strb	r2, [r0, #5]
 187:Drivers/STM32F4xx_StdPeriph_Driver/src/stm32f4xx_exti.c ****   EXTI_InitStruct->EXTI_LineCmd = DISABLE;
 244              		.loc 1 187 3 is_stmt 1 view .LVU77
 245              		.loc 1 187 33 is_stmt 0 view .LVU78
 246 000a 8371     		strb	r3, [r0, #6]
 188:Drivers/STM32F4xx_StdPeriph_Driver/src/stm32f4xx_exti.c **** }
 247              		.loc 1 188 1 view .LVU79
 248 000c 7047     		bx	lr
 249              		.cfi_endproc
 250              	.LFE125:
 252              		.section	.text.EXTI_GenerateSWInterrupt,"ax",%progbits
 253              		.align	1
 254              		.global	EXTI_GenerateSWInterrupt
 255              		.syntax unified
 256              		.thumb
 257              		.thumb_func
 258              		.fpu fpv4-sp-d16
ARM GAS  /tmp/ccCq7nsR.s 			page 9


 260              	EXTI_GenerateSWInterrupt:
 261              	.LVL9:
 262              	.LFB126:
 189:Drivers/STM32F4xx_StdPeriph_Driver/src/stm32f4xx_exti.c **** 
 190:Drivers/STM32F4xx_StdPeriph_Driver/src/stm32f4xx_exti.c **** /**
 191:Drivers/STM32F4xx_StdPeriph_Driver/src/stm32f4xx_exti.c ****   * @brief  Generates a Software interrupt on selected EXTI line.
 192:Drivers/STM32F4xx_StdPeriph_Driver/src/stm32f4xx_exti.c ****   * @param  EXTI_Line: specifies the EXTI line on which the software interrupt
 193:Drivers/STM32F4xx_StdPeriph_Driver/src/stm32f4xx_exti.c ****   *         will be generated.
 194:Drivers/STM32F4xx_StdPeriph_Driver/src/stm32f4xx_exti.c ****   *         This parameter can be any combination of EXTI_Linex where x can be (0..22)
 195:Drivers/STM32F4xx_StdPeriph_Driver/src/stm32f4xx_exti.c ****   * @retval None
 196:Drivers/STM32F4xx_StdPeriph_Driver/src/stm32f4xx_exti.c ****   */
 197:Drivers/STM32F4xx_StdPeriph_Driver/src/stm32f4xx_exti.c **** void EXTI_GenerateSWInterrupt(uint32_t EXTI_Line)
 198:Drivers/STM32F4xx_StdPeriph_Driver/src/stm32f4xx_exti.c **** {
 263              		.loc 1 198 1 is_stmt 1 view -0
 264              		.cfi_startproc
 265              		@ args = 0, pretend = 0, frame = 0
 266              		@ frame_needed = 0, uses_anonymous_args = 0
 267              		@ link register save eliminated.
 199:Drivers/STM32F4xx_StdPeriph_Driver/src/stm32f4xx_exti.c ****   /* Check the parameters */
 200:Drivers/STM32F4xx_StdPeriph_Driver/src/stm32f4xx_exti.c ****   assert_param(IS_EXTI_LINE(EXTI_Line));
 268              		.loc 1 200 3 view .LVU81
 201:Drivers/STM32F4xx_StdPeriph_Driver/src/stm32f4xx_exti.c ****   
 202:Drivers/STM32F4xx_StdPeriph_Driver/src/stm32f4xx_exti.c ****   EXTI->SWIER |= EXTI_Line;
 269              		.loc 1 202 3 view .LVU82
 270              		.loc 1 202 15 is_stmt 0 view .LVU83
 271 0000 024A     		ldr	r2, .L17
 272 0002 1369     		ldr	r3, [r2, #16]
 273 0004 0343     		orrs	r3, r3, r0
 274 0006 1361     		str	r3, [r2, #16]
 203:Drivers/STM32F4xx_StdPeriph_Driver/src/stm32f4xx_exti.c **** }
 275              		.loc 1 203 1 view .LVU84
 276 0008 7047     		bx	lr
 277              	.L18:
 278 000a 00BF     		.align	2
 279              	.L17:
 280 000c 003C0140 		.word	1073822720
 281              		.cfi_endproc
 282              	.LFE126:
 284              		.section	.text.EXTI_GetFlagStatus,"ax",%progbits
 285              		.align	1
 286              		.global	EXTI_GetFlagStatus
 287              		.syntax unified
 288              		.thumb
 289              		.thumb_func
 290              		.fpu fpv4-sp-d16
 292              	EXTI_GetFlagStatus:
 293              	.LVL10:
 294              	.LFB127:
 204:Drivers/STM32F4xx_StdPeriph_Driver/src/stm32f4xx_exti.c **** 
 205:Drivers/STM32F4xx_StdPeriph_Driver/src/stm32f4xx_exti.c **** /**
 206:Drivers/STM32F4xx_StdPeriph_Driver/src/stm32f4xx_exti.c ****   * @}
 207:Drivers/STM32F4xx_StdPeriph_Driver/src/stm32f4xx_exti.c ****   */
 208:Drivers/STM32F4xx_StdPeriph_Driver/src/stm32f4xx_exti.c **** 
 209:Drivers/STM32F4xx_StdPeriph_Driver/src/stm32f4xx_exti.c **** /** @defgroup EXTI_Group2 Interrupts and flags management functions
 210:Drivers/STM32F4xx_StdPeriph_Driver/src/stm32f4xx_exti.c ****  *  @brief   Interrupts and flags management functions 
 211:Drivers/STM32F4xx_StdPeriph_Driver/src/stm32f4xx_exti.c ****  *
 212:Drivers/STM32F4xx_StdPeriph_Driver/src/stm32f4xx_exti.c **** @verbatim   
ARM GAS  /tmp/ccCq7nsR.s 			page 10


 213:Drivers/STM32F4xx_StdPeriph_Driver/src/stm32f4xx_exti.c ****  ===============================================================================
 214:Drivers/STM32F4xx_StdPeriph_Driver/src/stm32f4xx_exti.c ****              ##### Interrupts and flags management functions #####
 215:Drivers/STM32F4xx_StdPeriph_Driver/src/stm32f4xx_exti.c ****  ===============================================================================
 216:Drivers/STM32F4xx_StdPeriph_Driver/src/stm32f4xx_exti.c **** 
 217:Drivers/STM32F4xx_StdPeriph_Driver/src/stm32f4xx_exti.c **** @endverbatim
 218:Drivers/STM32F4xx_StdPeriph_Driver/src/stm32f4xx_exti.c ****   * @{
 219:Drivers/STM32F4xx_StdPeriph_Driver/src/stm32f4xx_exti.c ****   */
 220:Drivers/STM32F4xx_StdPeriph_Driver/src/stm32f4xx_exti.c **** 
 221:Drivers/STM32F4xx_StdPeriph_Driver/src/stm32f4xx_exti.c **** /**
 222:Drivers/STM32F4xx_StdPeriph_Driver/src/stm32f4xx_exti.c ****   * @brief  Checks whether the specified EXTI line flag is set or not.
 223:Drivers/STM32F4xx_StdPeriph_Driver/src/stm32f4xx_exti.c ****   * @param  EXTI_Line: specifies the EXTI line flag to check.
 224:Drivers/STM32F4xx_StdPeriph_Driver/src/stm32f4xx_exti.c ****   *          This parameter can be EXTI_Linex where x can be(0..22)
 225:Drivers/STM32F4xx_StdPeriph_Driver/src/stm32f4xx_exti.c ****   * @retval The new state of EXTI_Line (SET or RESET).
 226:Drivers/STM32F4xx_StdPeriph_Driver/src/stm32f4xx_exti.c ****   */
 227:Drivers/STM32F4xx_StdPeriph_Driver/src/stm32f4xx_exti.c **** FlagStatus EXTI_GetFlagStatus(uint32_t EXTI_Line)
 228:Drivers/STM32F4xx_StdPeriph_Driver/src/stm32f4xx_exti.c **** {
 295              		.loc 1 228 1 is_stmt 1 view -0
 296              		.cfi_startproc
 297              		@ args = 0, pretend = 0, frame = 0
 298              		@ frame_needed = 0, uses_anonymous_args = 0
 299              		@ link register save eliminated.
 229:Drivers/STM32F4xx_StdPeriph_Driver/src/stm32f4xx_exti.c ****   FlagStatus bitstatus = RESET;
 300              		.loc 1 229 3 view .LVU86
 230:Drivers/STM32F4xx_StdPeriph_Driver/src/stm32f4xx_exti.c ****   /* Check the parameters */
 231:Drivers/STM32F4xx_StdPeriph_Driver/src/stm32f4xx_exti.c ****   assert_param(IS_GET_EXTI_LINE(EXTI_Line));
 301              		.loc 1 231 3 view .LVU87
 232:Drivers/STM32F4xx_StdPeriph_Driver/src/stm32f4xx_exti.c ****   
 233:Drivers/STM32F4xx_StdPeriph_Driver/src/stm32f4xx_exti.c ****   if ((EXTI->PR & EXTI_Line) != (uint32_t)RESET)
 302              		.loc 1 233 3 view .LVU88
 303              		.loc 1 233 12 is_stmt 0 view .LVU89
 304 0000 034B     		ldr	r3, .L22
 305 0002 5B69     		ldr	r3, [r3, #20]
 306              		.loc 1 233 6 view .LVU90
 307 0004 0342     		tst	r3, r0
 308 0006 01D0     		beq	.L21
 234:Drivers/STM32F4xx_StdPeriph_Driver/src/stm32f4xx_exti.c ****   {
 235:Drivers/STM32F4xx_StdPeriph_Driver/src/stm32f4xx_exti.c ****     bitstatus = SET;
 309              		.loc 1 235 15 view .LVU91
 310 0008 0120     		movs	r0, #1
 311              	.LVL11:
 312              		.loc 1 235 15 view .LVU92
 313 000a 7047     		bx	lr
 314              	.LVL12:
 315              	.L21:
 236:Drivers/STM32F4xx_StdPeriph_Driver/src/stm32f4xx_exti.c ****   }
 237:Drivers/STM32F4xx_StdPeriph_Driver/src/stm32f4xx_exti.c ****   else
 238:Drivers/STM32F4xx_StdPeriph_Driver/src/stm32f4xx_exti.c ****   {
 239:Drivers/STM32F4xx_StdPeriph_Driver/src/stm32f4xx_exti.c ****     bitstatus = RESET;
 316              		.loc 1 239 15 view .LVU93
 317 000c 0020     		movs	r0, #0
 318              	.LVL13:
 240:Drivers/STM32F4xx_StdPeriph_Driver/src/stm32f4xx_exti.c ****   }
 241:Drivers/STM32F4xx_StdPeriph_Driver/src/stm32f4xx_exti.c ****   return bitstatus;
 319              		.loc 1 241 3 is_stmt 1 view .LVU94
 242:Drivers/STM32F4xx_StdPeriph_Driver/src/stm32f4xx_exti.c **** }
 320              		.loc 1 242 1 is_stmt 0 view .LVU95
 321 000e 7047     		bx	lr
ARM GAS  /tmp/ccCq7nsR.s 			page 11


 322              	.L23:
 323              		.align	2
 324              	.L22:
 325 0010 003C0140 		.word	1073822720
 326              		.cfi_endproc
 327              	.LFE127:
 329              		.section	.text.EXTI_ClearFlag,"ax",%progbits
 330              		.align	1
 331              		.global	EXTI_ClearFlag
 332              		.syntax unified
 333              		.thumb
 334              		.thumb_func
 335              		.fpu fpv4-sp-d16
 337              	EXTI_ClearFlag:
 338              	.LVL14:
 339              	.LFB128:
 243:Drivers/STM32F4xx_StdPeriph_Driver/src/stm32f4xx_exti.c **** 
 244:Drivers/STM32F4xx_StdPeriph_Driver/src/stm32f4xx_exti.c **** /**
 245:Drivers/STM32F4xx_StdPeriph_Driver/src/stm32f4xx_exti.c ****   * @brief  Clears the EXTI's line pending flags.
 246:Drivers/STM32F4xx_StdPeriph_Driver/src/stm32f4xx_exti.c ****   * @param  EXTI_Line: specifies the EXTI lines flags to clear.
 247:Drivers/STM32F4xx_StdPeriph_Driver/src/stm32f4xx_exti.c ****   *          This parameter can be any combination of EXTI_Linex where x can be (0..22)
 248:Drivers/STM32F4xx_StdPeriph_Driver/src/stm32f4xx_exti.c ****   * @retval None
 249:Drivers/STM32F4xx_StdPeriph_Driver/src/stm32f4xx_exti.c ****   */
 250:Drivers/STM32F4xx_StdPeriph_Driver/src/stm32f4xx_exti.c **** void EXTI_ClearFlag(uint32_t EXTI_Line)
 251:Drivers/STM32F4xx_StdPeriph_Driver/src/stm32f4xx_exti.c **** {
 340              		.loc 1 251 1 is_stmt 1 view -0
 341              		.cfi_startproc
 342              		@ args = 0, pretend = 0, frame = 0
 343              		@ frame_needed = 0, uses_anonymous_args = 0
 344              		@ link register save eliminated.
 252:Drivers/STM32F4xx_StdPeriph_Driver/src/stm32f4xx_exti.c ****   /* Check the parameters */
 253:Drivers/STM32F4xx_StdPeriph_Driver/src/stm32f4xx_exti.c ****   assert_param(IS_EXTI_LINE(EXTI_Line));
 345              		.loc 1 253 3 view .LVU97
 254:Drivers/STM32F4xx_StdPeriph_Driver/src/stm32f4xx_exti.c ****   
 255:Drivers/STM32F4xx_StdPeriph_Driver/src/stm32f4xx_exti.c ****   EXTI->PR = EXTI_Line;
 346              		.loc 1 255 3 view .LVU98
 347              		.loc 1 255 12 is_stmt 0 view .LVU99
 348 0000 014B     		ldr	r3, .L25
 349 0002 5861     		str	r0, [r3, #20]
 256:Drivers/STM32F4xx_StdPeriph_Driver/src/stm32f4xx_exti.c **** }
 350              		.loc 1 256 1 view .LVU100
 351 0004 7047     		bx	lr
 352              	.L26:
 353 0006 00BF     		.align	2
 354              	.L25:
 355 0008 003C0140 		.word	1073822720
 356              		.cfi_endproc
 357              	.LFE128:
 359              		.section	.text.EXTI_GetITStatus,"ax",%progbits
 360              		.align	1
 361              		.global	EXTI_GetITStatus
 362              		.syntax unified
 363              		.thumb
 364              		.thumb_func
 365              		.fpu fpv4-sp-d16
 367              	EXTI_GetITStatus:
 368              	.LVL15:
ARM GAS  /tmp/ccCq7nsR.s 			page 12


 369              	.LFB129:
 257:Drivers/STM32F4xx_StdPeriph_Driver/src/stm32f4xx_exti.c **** 
 258:Drivers/STM32F4xx_StdPeriph_Driver/src/stm32f4xx_exti.c **** /**
 259:Drivers/STM32F4xx_StdPeriph_Driver/src/stm32f4xx_exti.c ****   * @brief  Checks whether the specified EXTI line is asserted or not.
 260:Drivers/STM32F4xx_StdPeriph_Driver/src/stm32f4xx_exti.c ****   * @param  EXTI_Line: specifies the EXTI line to check.
 261:Drivers/STM32F4xx_StdPeriph_Driver/src/stm32f4xx_exti.c ****   *          This parameter can be EXTI_Linex where x can be(0..22)
 262:Drivers/STM32F4xx_StdPeriph_Driver/src/stm32f4xx_exti.c ****   * @retval The new state of EXTI_Line (SET or RESET).
 263:Drivers/STM32F4xx_StdPeriph_Driver/src/stm32f4xx_exti.c ****   */
 264:Drivers/STM32F4xx_StdPeriph_Driver/src/stm32f4xx_exti.c **** ITStatus EXTI_GetITStatus(uint32_t EXTI_Line)
 265:Drivers/STM32F4xx_StdPeriph_Driver/src/stm32f4xx_exti.c **** {
 370              		.loc 1 265 1 is_stmt 1 view -0
 371              		.cfi_startproc
 372              		@ args = 0, pretend = 0, frame = 0
 373              		@ frame_needed = 0, uses_anonymous_args = 0
 374              		@ link register save eliminated.
 266:Drivers/STM32F4xx_StdPeriph_Driver/src/stm32f4xx_exti.c ****   FlagStatus bitstatus = RESET;
 375              		.loc 1 266 3 view .LVU102
 267:Drivers/STM32F4xx_StdPeriph_Driver/src/stm32f4xx_exti.c ****   /* Check the parameters */
 268:Drivers/STM32F4xx_StdPeriph_Driver/src/stm32f4xx_exti.c ****   assert_param(IS_GET_EXTI_LINE(EXTI_Line));
 376              		.loc 1 268 3 view .LVU103
 269:Drivers/STM32F4xx_StdPeriph_Driver/src/stm32f4xx_exti.c ****   
 270:Drivers/STM32F4xx_StdPeriph_Driver/src/stm32f4xx_exti.c ****   if ((EXTI->PR & EXTI_Line) != (uint32_t)RESET)
 377              		.loc 1 270 3 view .LVU104
 378              		.loc 1 270 12 is_stmt 0 view .LVU105
 379 0000 034B     		ldr	r3, .L30
 380 0002 5B69     		ldr	r3, [r3, #20]
 381              		.loc 1 270 6 view .LVU106
 382 0004 0342     		tst	r3, r0
 383 0006 01D0     		beq	.L29
 271:Drivers/STM32F4xx_StdPeriph_Driver/src/stm32f4xx_exti.c ****   {
 272:Drivers/STM32F4xx_StdPeriph_Driver/src/stm32f4xx_exti.c ****     bitstatus = SET;
 384              		.loc 1 272 15 view .LVU107
 385 0008 0120     		movs	r0, #1
 386              	.LVL16:
 387              		.loc 1 272 15 view .LVU108
 388 000a 7047     		bx	lr
 389              	.LVL17:
 390              	.L29:
 273:Drivers/STM32F4xx_StdPeriph_Driver/src/stm32f4xx_exti.c ****   }
 274:Drivers/STM32F4xx_StdPeriph_Driver/src/stm32f4xx_exti.c ****   else
 275:Drivers/STM32F4xx_StdPeriph_Driver/src/stm32f4xx_exti.c ****   {
 276:Drivers/STM32F4xx_StdPeriph_Driver/src/stm32f4xx_exti.c ****     bitstatus = RESET;
 391              		.loc 1 276 15 view .LVU109
 392 000c 0020     		movs	r0, #0
 393              	.LVL18:
 277:Drivers/STM32F4xx_StdPeriph_Driver/src/stm32f4xx_exti.c ****   }
 278:Drivers/STM32F4xx_StdPeriph_Driver/src/stm32f4xx_exti.c ****   return bitstatus;
 394              		.loc 1 278 3 is_stmt 1 view .LVU110
 279:Drivers/STM32F4xx_StdPeriph_Driver/src/stm32f4xx_exti.c ****   
 280:Drivers/STM32F4xx_StdPeriph_Driver/src/stm32f4xx_exti.c **** }
 395              		.loc 1 280 1 is_stmt 0 view .LVU111
 396 000e 7047     		bx	lr
 397              	.L31:
 398              		.align	2
 399              	.L30:
 400 0010 003C0140 		.word	1073822720
 401              		.cfi_endproc
ARM GAS  /tmp/ccCq7nsR.s 			page 13


 402              	.LFE129:
 404              		.section	.text.EXTI_ClearITPendingBit,"ax",%progbits
 405              		.align	1
 406              		.global	EXTI_ClearITPendingBit
 407              		.syntax unified
 408              		.thumb
 409              		.thumb_func
 410              		.fpu fpv4-sp-d16
 412              	EXTI_ClearITPendingBit:
 413              	.LVL19:
 414              	.LFB130:
 281:Drivers/STM32F4xx_StdPeriph_Driver/src/stm32f4xx_exti.c **** 
 282:Drivers/STM32F4xx_StdPeriph_Driver/src/stm32f4xx_exti.c **** /**
 283:Drivers/STM32F4xx_StdPeriph_Driver/src/stm32f4xx_exti.c ****   * @brief  Clears the EXTI's line pending bits.
 284:Drivers/STM32F4xx_StdPeriph_Driver/src/stm32f4xx_exti.c ****   * @param  EXTI_Line: specifies the EXTI lines to clear.
 285:Drivers/STM32F4xx_StdPeriph_Driver/src/stm32f4xx_exti.c ****   *          This parameter can be any combination of EXTI_Linex where x can be (0..22)
 286:Drivers/STM32F4xx_StdPeriph_Driver/src/stm32f4xx_exti.c ****   * @retval None
 287:Drivers/STM32F4xx_StdPeriph_Driver/src/stm32f4xx_exti.c ****   */
 288:Drivers/STM32F4xx_StdPeriph_Driver/src/stm32f4xx_exti.c **** void EXTI_ClearITPendingBit(uint32_t EXTI_Line)
 289:Drivers/STM32F4xx_StdPeriph_Driver/src/stm32f4xx_exti.c **** {
 415              		.loc 1 289 1 is_stmt 1 view -0
 416              		.cfi_startproc
 417              		@ args = 0, pretend = 0, frame = 0
 418              		@ frame_needed = 0, uses_anonymous_args = 0
 419              		@ link register save eliminated.
 290:Drivers/STM32F4xx_StdPeriph_Driver/src/stm32f4xx_exti.c ****   /* Check the parameters */
 291:Drivers/STM32F4xx_StdPeriph_Driver/src/stm32f4xx_exti.c ****   assert_param(IS_EXTI_LINE(EXTI_Line));
 420              		.loc 1 291 3 view .LVU113
 292:Drivers/STM32F4xx_StdPeriph_Driver/src/stm32f4xx_exti.c ****   
 293:Drivers/STM32F4xx_StdPeriph_Driver/src/stm32f4xx_exti.c ****   EXTI->PR = EXTI_Line;
 421              		.loc 1 293 3 view .LVU114
 422              		.loc 1 293 12 is_stmt 0 view .LVU115
 423 0000 014B     		ldr	r3, .L33
 424 0002 5861     		str	r0, [r3, #20]
 294:Drivers/STM32F4xx_StdPeriph_Driver/src/stm32f4xx_exti.c **** }
 425              		.loc 1 294 1 view .LVU116
 426 0004 7047     		bx	lr
 427              	.L34:
 428 0006 00BF     		.align	2
 429              	.L33:
 430 0008 003C0140 		.word	1073822720
 431              		.cfi_endproc
 432              	.LFE130:
 434              		.text
 435              	.Letext0:
 436              		.file 2 "/usr/lib/gcc/arm-none-eabi/10.3.1/include/stdint.h"
 437              		.file 3 "Drivers/CMSIS/Device/ST/STM32F4xx/Include/stm32f4xx.h"
 438              		.file 4 "Drivers/STM32F4xx_StdPeriph_Driver/inc/stm32f4xx_exti.h"
ARM GAS  /tmp/ccCq7nsR.s 			page 14


DEFINED SYMBOLS
                            *ABS*:0000000000000000 stm32f4xx_exti.c
     /tmp/ccCq7nsR.s:18     .text.EXTI_DeInit:0000000000000000 $t
     /tmp/ccCq7nsR.s:26     .text.EXTI_DeInit:0000000000000000 EXTI_DeInit
     /tmp/ccCq7nsR.s:57     .text.EXTI_DeInit:0000000000000014 $d
     /tmp/ccCq7nsR.s:63     .text.EXTI_Init:0000000000000000 $t
     /tmp/ccCq7nsR.s:70     .text.EXTI_Init:0000000000000000 EXTI_Init
     /tmp/ccCq7nsR.s:213    .text.EXTI_Init:000000000000008c $d
     /tmp/ccCq7nsR.s:218    .text.EXTI_StructInit:0000000000000000 $t
     /tmp/ccCq7nsR.s:225    .text.EXTI_StructInit:0000000000000000 EXTI_StructInit
     /tmp/ccCq7nsR.s:253    .text.EXTI_GenerateSWInterrupt:0000000000000000 $t
     /tmp/ccCq7nsR.s:260    .text.EXTI_GenerateSWInterrupt:0000000000000000 EXTI_GenerateSWInterrupt
     /tmp/ccCq7nsR.s:280    .text.EXTI_GenerateSWInterrupt:000000000000000c $d
     /tmp/ccCq7nsR.s:285    .text.EXTI_GetFlagStatus:0000000000000000 $t
     /tmp/ccCq7nsR.s:292    .text.EXTI_GetFlagStatus:0000000000000000 EXTI_GetFlagStatus
     /tmp/ccCq7nsR.s:325    .text.EXTI_GetFlagStatus:0000000000000010 $d
     /tmp/ccCq7nsR.s:330    .text.EXTI_ClearFlag:0000000000000000 $t
     /tmp/ccCq7nsR.s:337    .text.EXTI_ClearFlag:0000000000000000 EXTI_ClearFlag
     /tmp/ccCq7nsR.s:355    .text.EXTI_ClearFlag:0000000000000008 $d
     /tmp/ccCq7nsR.s:360    .text.EXTI_GetITStatus:0000000000000000 $t
     /tmp/ccCq7nsR.s:367    .text.EXTI_GetITStatus:0000000000000000 EXTI_GetITStatus
     /tmp/ccCq7nsR.s:400    .text.EXTI_GetITStatus:0000000000000010 $d
     /tmp/ccCq7nsR.s:405    .text.EXTI_ClearITPendingBit:0000000000000000 $t
     /tmp/ccCq7nsR.s:412    .text.EXTI_ClearITPendingBit:0000000000000000 EXTI_ClearITPendingBit
     /tmp/ccCq7nsR.s:430    .text.EXTI_ClearITPendingBit:0000000000000008 $d

NO UNDEFINED SYMBOLS
