ARM GAS  /tmp/ccrEtUgi.s 			page 1


   1              		.cpu cortex-m4
   2              		.eabi_attribute 27, 1
   3              		.eabi_attribute 28, 1
   4              		.eabi_attribute 20, 1
   5              		.eabi_attribute 21, 1
   6              		.eabi_attribute 23, 3
   7              		.eabi_attribute 24, 1
   8              		.eabi_attribute 25, 1
   9              		.eabi_attribute 26, 1
  10              		.eabi_attribute 30, 1
  11              		.eabi_attribute 34, 1
  12              		.eabi_attribute 18, 4
  13              		.file	"stm32f4xx_crc.c"
  14              		.text
  15              	.Ltext0:
  16              		.cfi_sections	.debug_frame
  17              		.section	.text.CRC_ResetDR,"ax",%progbits
  18              		.align	1
  19              		.global	CRC_ResetDR
  20              		.arch armv7e-m
  21              		.syntax unified
  22              		.thumb
  23              		.thumb_func
  24              		.fpu fpv4-sp-d16
  26              	CRC_ResetDR:
  27              	.LFB123:
  28              		.file 1 "Drivers/STM32F4xx_StdPeriph_Driver/src/stm32f4xx_crc.c"
   1:Drivers/STM32F4xx_StdPeriph_Driver/src/stm32f4xx_crc.c **** /**
   2:Drivers/STM32F4xx_StdPeriph_Driver/src/stm32f4xx_crc.c ****   ******************************************************************************
   3:Drivers/STM32F4xx_StdPeriph_Driver/src/stm32f4xx_crc.c ****   * @file    stm32f4xx_crc.c
   4:Drivers/STM32F4xx_StdPeriph_Driver/src/stm32f4xx_crc.c ****   * @author  MCD Application Team
   5:Drivers/STM32F4xx_StdPeriph_Driver/src/stm32f4xx_crc.c ****   * @version V1.6.1
   6:Drivers/STM32F4xx_StdPeriph_Driver/src/stm32f4xx_crc.c ****   * @date    21-October-2015
   7:Drivers/STM32F4xx_StdPeriph_Driver/src/stm32f4xx_crc.c ****   * @brief   This file provides all the CRC firmware functions.
   8:Drivers/STM32F4xx_StdPeriph_Driver/src/stm32f4xx_crc.c ****   ******************************************************************************
   9:Drivers/STM32F4xx_StdPeriph_Driver/src/stm32f4xx_crc.c ****   * @attention
  10:Drivers/STM32F4xx_StdPeriph_Driver/src/stm32f4xx_crc.c ****   *
  11:Drivers/STM32F4xx_StdPeriph_Driver/src/stm32f4xx_crc.c ****   * <h2><center>&copy; COPYRIGHT 2015 STMicroelectronics</center></h2>
  12:Drivers/STM32F4xx_StdPeriph_Driver/src/stm32f4xx_crc.c ****   *
  13:Drivers/STM32F4xx_StdPeriph_Driver/src/stm32f4xx_crc.c ****   * Licensed under MCD-ST Liberty SW License Agreement V2, (the "License");
  14:Drivers/STM32F4xx_StdPeriph_Driver/src/stm32f4xx_crc.c ****   * You may not use this file except in compliance with the License.
  15:Drivers/STM32F4xx_StdPeriph_Driver/src/stm32f4xx_crc.c ****   * You may obtain a copy of the License at:
  16:Drivers/STM32F4xx_StdPeriph_Driver/src/stm32f4xx_crc.c ****   *
  17:Drivers/STM32F4xx_StdPeriph_Driver/src/stm32f4xx_crc.c ****   *        http://www.st.com/software_license_agreement_liberty_v2
  18:Drivers/STM32F4xx_StdPeriph_Driver/src/stm32f4xx_crc.c ****   *
  19:Drivers/STM32F4xx_StdPeriph_Driver/src/stm32f4xx_crc.c ****   * Unless required by applicable law or agreed to in writing, software 
  20:Drivers/STM32F4xx_StdPeriph_Driver/src/stm32f4xx_crc.c ****   * distributed under the License is distributed on an "AS IS" BASIS, 
  21:Drivers/STM32F4xx_StdPeriph_Driver/src/stm32f4xx_crc.c ****   * WITHOUT WARRANTIES OR CONDITIONS OF ANY KIND, either express or implied.
  22:Drivers/STM32F4xx_StdPeriph_Driver/src/stm32f4xx_crc.c ****   * See the License for the specific language governing permissions and
  23:Drivers/STM32F4xx_StdPeriph_Driver/src/stm32f4xx_crc.c ****   * limitations under the License.
  24:Drivers/STM32F4xx_StdPeriph_Driver/src/stm32f4xx_crc.c ****   *
  25:Drivers/STM32F4xx_StdPeriph_Driver/src/stm32f4xx_crc.c ****   ******************************************************************************
  26:Drivers/STM32F4xx_StdPeriph_Driver/src/stm32f4xx_crc.c ****   */
  27:Drivers/STM32F4xx_StdPeriph_Driver/src/stm32f4xx_crc.c **** 
  28:Drivers/STM32F4xx_StdPeriph_Driver/src/stm32f4xx_crc.c **** /* Includes ------------------------------------------------------------------*/
  29:Drivers/STM32F4xx_StdPeriph_Driver/src/stm32f4xx_crc.c **** #include "stm32f4xx_crc.h"
  30:Drivers/STM32F4xx_StdPeriph_Driver/src/stm32f4xx_crc.c **** 
ARM GAS  /tmp/ccrEtUgi.s 			page 2


  31:Drivers/STM32F4xx_StdPeriph_Driver/src/stm32f4xx_crc.c **** /** @addtogroup STM32F4xx_StdPeriph_Driver
  32:Drivers/STM32F4xx_StdPeriph_Driver/src/stm32f4xx_crc.c ****   * @{
  33:Drivers/STM32F4xx_StdPeriph_Driver/src/stm32f4xx_crc.c ****   */
  34:Drivers/STM32F4xx_StdPeriph_Driver/src/stm32f4xx_crc.c **** 
  35:Drivers/STM32F4xx_StdPeriph_Driver/src/stm32f4xx_crc.c **** /** @defgroup CRC 
  36:Drivers/STM32F4xx_StdPeriph_Driver/src/stm32f4xx_crc.c ****   * @brief CRC driver modules
  37:Drivers/STM32F4xx_StdPeriph_Driver/src/stm32f4xx_crc.c ****   * @{
  38:Drivers/STM32F4xx_StdPeriph_Driver/src/stm32f4xx_crc.c ****   */
  39:Drivers/STM32F4xx_StdPeriph_Driver/src/stm32f4xx_crc.c **** 
  40:Drivers/STM32F4xx_StdPeriph_Driver/src/stm32f4xx_crc.c **** /* Private typedef -----------------------------------------------------------*/
  41:Drivers/STM32F4xx_StdPeriph_Driver/src/stm32f4xx_crc.c **** /* Private define ------------------------------------------------------------*/
  42:Drivers/STM32F4xx_StdPeriph_Driver/src/stm32f4xx_crc.c **** /* Private macro -------------------------------------------------------------*/
  43:Drivers/STM32F4xx_StdPeriph_Driver/src/stm32f4xx_crc.c **** /* Private variables ---------------------------------------------------------*/
  44:Drivers/STM32F4xx_StdPeriph_Driver/src/stm32f4xx_crc.c **** /* Private function prototypes -----------------------------------------------*/
  45:Drivers/STM32F4xx_StdPeriph_Driver/src/stm32f4xx_crc.c **** /* Private functions ---------------------------------------------------------*/
  46:Drivers/STM32F4xx_StdPeriph_Driver/src/stm32f4xx_crc.c **** 
  47:Drivers/STM32F4xx_StdPeriph_Driver/src/stm32f4xx_crc.c **** /** @defgroup CRC_Private_Functions
  48:Drivers/STM32F4xx_StdPeriph_Driver/src/stm32f4xx_crc.c ****   * @{
  49:Drivers/STM32F4xx_StdPeriph_Driver/src/stm32f4xx_crc.c ****   */
  50:Drivers/STM32F4xx_StdPeriph_Driver/src/stm32f4xx_crc.c **** 
  51:Drivers/STM32F4xx_StdPeriph_Driver/src/stm32f4xx_crc.c **** /**
  52:Drivers/STM32F4xx_StdPeriph_Driver/src/stm32f4xx_crc.c ****   * @brief  Resets the CRC Data register (DR).
  53:Drivers/STM32F4xx_StdPeriph_Driver/src/stm32f4xx_crc.c ****   * @param  None
  54:Drivers/STM32F4xx_StdPeriph_Driver/src/stm32f4xx_crc.c ****   * @retval None
  55:Drivers/STM32F4xx_StdPeriph_Driver/src/stm32f4xx_crc.c ****   */
  56:Drivers/STM32F4xx_StdPeriph_Driver/src/stm32f4xx_crc.c **** void CRC_ResetDR(void)
  57:Drivers/STM32F4xx_StdPeriph_Driver/src/stm32f4xx_crc.c **** {
  29              		.loc 1 57 1 view -0
  30              		.cfi_startproc
  31              		@ args = 0, pretend = 0, frame = 0
  32              		@ frame_needed = 0, uses_anonymous_args = 0
  33              		@ link register save eliminated.
  58:Drivers/STM32F4xx_StdPeriph_Driver/src/stm32f4xx_crc.c ****   /* Reset CRC generator */
  59:Drivers/STM32F4xx_StdPeriph_Driver/src/stm32f4xx_crc.c ****   CRC->CR = CRC_CR_RESET;
  34              		.loc 1 59 3 view .LVU1
  35              		.loc 1 59 11 is_stmt 0 view .LVU2
  36 0000 014B     		ldr	r3, .L2
  37 0002 0122     		movs	r2, #1
  38 0004 9A60     		str	r2, [r3, #8]
  60:Drivers/STM32F4xx_StdPeriph_Driver/src/stm32f4xx_crc.c **** }
  39              		.loc 1 60 1 view .LVU3
  40 0006 7047     		bx	lr
  41              	.L3:
  42              		.align	2
  43              	.L2:
  44 0008 00300240 		.word	1073885184
  45              		.cfi_endproc
  46              	.LFE123:
  48              		.section	.text.CRC_CalcCRC,"ax",%progbits
  49              		.align	1
  50              		.global	CRC_CalcCRC
  51              		.syntax unified
  52              		.thumb
  53              		.thumb_func
  54              		.fpu fpv4-sp-d16
  56              	CRC_CalcCRC:
  57              	.LVL0:
ARM GAS  /tmp/ccrEtUgi.s 			page 3


  58              	.LFB124:
  61:Drivers/STM32F4xx_StdPeriph_Driver/src/stm32f4xx_crc.c **** 
  62:Drivers/STM32F4xx_StdPeriph_Driver/src/stm32f4xx_crc.c **** /**
  63:Drivers/STM32F4xx_StdPeriph_Driver/src/stm32f4xx_crc.c ****   * @brief  Computes the 32-bit CRC of a given data word(32-bit).
  64:Drivers/STM32F4xx_StdPeriph_Driver/src/stm32f4xx_crc.c ****   * @param  Data: data word(32-bit) to compute its CRC
  65:Drivers/STM32F4xx_StdPeriph_Driver/src/stm32f4xx_crc.c ****   * @retval 32-bit CRC
  66:Drivers/STM32F4xx_StdPeriph_Driver/src/stm32f4xx_crc.c ****   */
  67:Drivers/STM32F4xx_StdPeriph_Driver/src/stm32f4xx_crc.c **** uint32_t CRC_CalcCRC(uint32_t Data)
  68:Drivers/STM32F4xx_StdPeriph_Driver/src/stm32f4xx_crc.c **** {
  59              		.loc 1 68 1 is_stmt 1 view -0
  60              		.cfi_startproc
  61              		@ args = 0, pretend = 0, frame = 0
  62              		@ frame_needed = 0, uses_anonymous_args = 0
  63              		@ link register save eliminated.
  69:Drivers/STM32F4xx_StdPeriph_Driver/src/stm32f4xx_crc.c ****   CRC->DR = Data;
  64              		.loc 1 69 3 view .LVU5
  65              		.loc 1 69 11 is_stmt 0 view .LVU6
  66 0000 014B     		ldr	r3, .L5
  67 0002 1860     		str	r0, [r3]
  70:Drivers/STM32F4xx_StdPeriph_Driver/src/stm32f4xx_crc.c ****   
  71:Drivers/STM32F4xx_StdPeriph_Driver/src/stm32f4xx_crc.c ****   return (CRC->DR);
  68              		.loc 1 71 3 is_stmt 1 view .LVU7
  69              		.loc 1 71 14 is_stmt 0 view .LVU8
  70 0004 1868     		ldr	r0, [r3]
  71              	.LVL1:
  72:Drivers/STM32F4xx_StdPeriph_Driver/src/stm32f4xx_crc.c **** }
  72              		.loc 1 72 1 view .LVU9
  73 0006 7047     		bx	lr
  74              	.L6:
  75              		.align	2
  76              	.L5:
  77 0008 00300240 		.word	1073885184
  78              		.cfi_endproc
  79              	.LFE124:
  81              		.section	.text.CRC_CalcBlockCRC,"ax",%progbits
  82              		.align	1
  83              		.global	CRC_CalcBlockCRC
  84              		.syntax unified
  85              		.thumb
  86              		.thumb_func
  87              		.fpu fpv4-sp-d16
  89              	CRC_CalcBlockCRC:
  90              	.LVL2:
  91              	.LFB125:
  73:Drivers/STM32F4xx_StdPeriph_Driver/src/stm32f4xx_crc.c **** 
  74:Drivers/STM32F4xx_StdPeriph_Driver/src/stm32f4xx_crc.c **** /**
  75:Drivers/STM32F4xx_StdPeriph_Driver/src/stm32f4xx_crc.c ****   * @brief  Computes the 32-bit CRC of a given buffer of data word(32-bit).
  76:Drivers/STM32F4xx_StdPeriph_Driver/src/stm32f4xx_crc.c ****   * @param  pBuffer: pointer to the buffer containing the data to be computed
  77:Drivers/STM32F4xx_StdPeriph_Driver/src/stm32f4xx_crc.c ****   * @param  BufferLength: length of the buffer to be computed					
  78:Drivers/STM32F4xx_StdPeriph_Driver/src/stm32f4xx_crc.c ****   * @retval 32-bit CRC
  79:Drivers/STM32F4xx_StdPeriph_Driver/src/stm32f4xx_crc.c ****   */
  80:Drivers/STM32F4xx_StdPeriph_Driver/src/stm32f4xx_crc.c **** uint32_t CRC_CalcBlockCRC(uint32_t pBuffer[], uint32_t BufferLength)
  81:Drivers/STM32F4xx_StdPeriph_Driver/src/stm32f4xx_crc.c **** {
  92              		.loc 1 81 1 is_stmt 1 view -0
  93              		.cfi_startproc
  94              		@ args = 0, pretend = 0, frame = 0
  95              		@ frame_needed = 0, uses_anonymous_args = 0
ARM GAS  /tmp/ccrEtUgi.s 			page 4


  96              		@ link register save eliminated.
  82:Drivers/STM32F4xx_StdPeriph_Driver/src/stm32f4xx_crc.c ****   uint32_t index = 0;
  97              		.loc 1 82 3 view .LVU11
  83:Drivers/STM32F4xx_StdPeriph_Driver/src/stm32f4xx_crc.c ****   
  84:Drivers/STM32F4xx_StdPeriph_Driver/src/stm32f4xx_crc.c ****   for(index = 0; index < BufferLength; index++)
  98              		.loc 1 84 3 view .LVU12
  99              		.loc 1 84 13 is_stmt 0 view .LVU13
 100 0000 0023     		movs	r3, #0
 101              	.LVL3:
 102              		.loc 1 84 18 is_stmt 1 view .LVU14
 103              		.loc 1 84 3 is_stmt 0 view .LVU15
 104 0002 8B42     		cmp	r3, r1
 105 0004 0CD2     		bcs	.L14
  81:Drivers/STM32F4xx_StdPeriph_Driver/src/stm32f4xx_crc.c ****   uint32_t index = 0;
 106              		.loc 1 81 1 view .LVU16
 107 0006 10B4     		push	{r4}
 108              		.cfi_def_cfa_offset 4
 109              		.cfi_offset 4, -4
 110              	.L9:
  85:Drivers/STM32F4xx_StdPeriph_Driver/src/stm32f4xx_crc.c ****   {
  86:Drivers/STM32F4xx_StdPeriph_Driver/src/stm32f4xx_crc.c ****     CRC->DR = pBuffer[index];
 111              		.loc 1 86 5 is_stmt 1 discriminator 3 view .LVU17
 112              		.loc 1 86 13 is_stmt 0 discriminator 3 view .LVU18
 113 0008 074A     		ldr	r2, .L15
 114 000a 50F82340 		ldr	r4, [r0, r3, lsl #2]
 115 000e 1460     		str	r4, [r2]
  84:Drivers/STM32F4xx_StdPeriph_Driver/src/stm32f4xx_crc.c ****   {
 116              		.loc 1 84 40 is_stmt 1 discriminator 3 view .LVU19
  84:Drivers/STM32F4xx_StdPeriph_Driver/src/stm32f4xx_crc.c ****   {
 117              		.loc 1 84 45 is_stmt 0 discriminator 3 view .LVU20
 118 0010 0133     		adds	r3, r3, #1
 119              	.LVL4:
  84:Drivers/STM32F4xx_StdPeriph_Driver/src/stm32f4xx_crc.c ****   {
 120              		.loc 1 84 18 is_stmt 1 discriminator 3 view .LVU21
  84:Drivers/STM32F4xx_StdPeriph_Driver/src/stm32f4xx_crc.c ****   {
 121              		.loc 1 84 3 is_stmt 0 discriminator 3 view .LVU22
 122 0012 8B42     		cmp	r3, r1
 123 0014 F8D3     		bcc	.L9
  87:Drivers/STM32F4xx_StdPeriph_Driver/src/stm32f4xx_crc.c ****   }
  88:Drivers/STM32F4xx_StdPeriph_Driver/src/stm32f4xx_crc.c ****   return (CRC->DR);
 124              		.loc 1 88 3 is_stmt 1 view .LVU23
 125              		.loc 1 88 14 is_stmt 0 view .LVU24
 126 0016 044B     		ldr	r3, .L15
 127              	.LVL5:
 128              		.loc 1 88 14 view .LVU25
 129 0018 1868     		ldr	r0, [r3]
 130              	.LVL6:
  89:Drivers/STM32F4xx_StdPeriph_Driver/src/stm32f4xx_crc.c **** }
 131              		.loc 1 89 1 view .LVU26
 132 001a 5DF8044B 		ldr	r4, [sp], #4
 133              		.cfi_restore 4
 134              		.cfi_def_cfa_offset 0
 135 001e 7047     		bx	lr
 136              	.LVL7:
 137              	.L14:
  88:Drivers/STM32F4xx_StdPeriph_Driver/src/stm32f4xx_crc.c **** }
 138              		.loc 1 88 3 is_stmt 1 view .LVU27
ARM GAS  /tmp/ccrEtUgi.s 			page 5


  88:Drivers/STM32F4xx_StdPeriph_Driver/src/stm32f4xx_crc.c **** }
 139              		.loc 1 88 14 is_stmt 0 view .LVU28
 140 0020 014B     		ldr	r3, .L15
 141              	.LVL8:
  88:Drivers/STM32F4xx_StdPeriph_Driver/src/stm32f4xx_crc.c **** }
 142              		.loc 1 88 14 view .LVU29
 143 0022 1868     		ldr	r0, [r3]
 144              	.LVL9:
 145              		.loc 1 89 1 view .LVU30
 146 0024 7047     		bx	lr
 147              	.L16:
 148 0026 00BF     		.align	2
 149              	.L15:
 150 0028 00300240 		.word	1073885184
 151              		.cfi_endproc
 152              	.LFE125:
 154              		.section	.text.CRC_GetCRC,"ax",%progbits
 155              		.align	1
 156              		.global	CRC_GetCRC
 157              		.syntax unified
 158              		.thumb
 159              		.thumb_func
 160              		.fpu fpv4-sp-d16
 162              	CRC_GetCRC:
 163              	.LFB126:
  90:Drivers/STM32F4xx_StdPeriph_Driver/src/stm32f4xx_crc.c **** 
  91:Drivers/STM32F4xx_StdPeriph_Driver/src/stm32f4xx_crc.c **** /**
  92:Drivers/STM32F4xx_StdPeriph_Driver/src/stm32f4xx_crc.c ****   * @brief  Returns the current CRC value.
  93:Drivers/STM32F4xx_StdPeriph_Driver/src/stm32f4xx_crc.c ****   * @param  None
  94:Drivers/STM32F4xx_StdPeriph_Driver/src/stm32f4xx_crc.c ****   * @retval 32-bit CRC
  95:Drivers/STM32F4xx_StdPeriph_Driver/src/stm32f4xx_crc.c ****   */
  96:Drivers/STM32F4xx_StdPeriph_Driver/src/stm32f4xx_crc.c **** uint32_t CRC_GetCRC(void)
  97:Drivers/STM32F4xx_StdPeriph_Driver/src/stm32f4xx_crc.c **** {
 164              		.loc 1 97 1 is_stmt 1 view -0
 165              		.cfi_startproc
 166              		@ args = 0, pretend = 0, frame = 0
 167              		@ frame_needed = 0, uses_anonymous_args = 0
 168              		@ link register save eliminated.
  98:Drivers/STM32F4xx_StdPeriph_Driver/src/stm32f4xx_crc.c ****   return (CRC->DR);
 169              		.loc 1 98 3 view .LVU32
 170              		.loc 1 98 14 is_stmt 0 view .LVU33
 171 0000 014B     		ldr	r3, .L18
 172 0002 1868     		ldr	r0, [r3]
  99:Drivers/STM32F4xx_StdPeriph_Driver/src/stm32f4xx_crc.c **** }
 173              		.loc 1 99 1 view .LVU34
 174 0004 7047     		bx	lr
 175              	.L19:
 176 0006 00BF     		.align	2
 177              	.L18:
 178 0008 00300240 		.word	1073885184
 179              		.cfi_endproc
 180              	.LFE126:
 182              		.section	.text.CRC_SetIDRegister,"ax",%progbits
 183              		.align	1
 184              		.global	CRC_SetIDRegister
 185              		.syntax unified
 186              		.thumb
ARM GAS  /tmp/ccrEtUgi.s 			page 6


 187              		.thumb_func
 188              		.fpu fpv4-sp-d16
 190              	CRC_SetIDRegister:
 191              	.LVL10:
 192              	.LFB127:
 100:Drivers/STM32F4xx_StdPeriph_Driver/src/stm32f4xx_crc.c **** 
 101:Drivers/STM32F4xx_StdPeriph_Driver/src/stm32f4xx_crc.c **** /**
 102:Drivers/STM32F4xx_StdPeriph_Driver/src/stm32f4xx_crc.c ****   * @brief  Stores a 8-bit data in the Independent Data(ID) register.
 103:Drivers/STM32F4xx_StdPeriph_Driver/src/stm32f4xx_crc.c ****   * @param  IDValue: 8-bit value to be stored in the ID register 					
 104:Drivers/STM32F4xx_StdPeriph_Driver/src/stm32f4xx_crc.c ****   * @retval None
 105:Drivers/STM32F4xx_StdPeriph_Driver/src/stm32f4xx_crc.c ****   */
 106:Drivers/STM32F4xx_StdPeriph_Driver/src/stm32f4xx_crc.c **** void CRC_SetIDRegister(uint8_t IDValue)
 107:Drivers/STM32F4xx_StdPeriph_Driver/src/stm32f4xx_crc.c **** {
 193              		.loc 1 107 1 is_stmt 1 view -0
 194              		.cfi_startproc
 195              		@ args = 0, pretend = 0, frame = 0
 196              		@ frame_needed = 0, uses_anonymous_args = 0
 197              		@ link register save eliminated.
 108:Drivers/STM32F4xx_StdPeriph_Driver/src/stm32f4xx_crc.c ****   CRC->IDR = IDValue;
 198              		.loc 1 108 3 view .LVU36
 199              		.loc 1 108 12 is_stmt 0 view .LVU37
 200 0000 014B     		ldr	r3, .L21
 201 0002 1871     		strb	r0, [r3, #4]
 109:Drivers/STM32F4xx_StdPeriph_Driver/src/stm32f4xx_crc.c **** }
 202              		.loc 1 109 1 view .LVU38
 203 0004 7047     		bx	lr
 204              	.L22:
 205 0006 00BF     		.align	2
 206              	.L21:
 207 0008 00300240 		.word	1073885184
 208              		.cfi_endproc
 209              	.LFE127:
 211              		.section	.text.CRC_GetIDRegister,"ax",%progbits
 212              		.align	1
 213              		.global	CRC_GetIDRegister
 214              		.syntax unified
 215              		.thumb
 216              		.thumb_func
 217              		.fpu fpv4-sp-d16
 219              	CRC_GetIDRegister:
 220              	.LFB128:
 110:Drivers/STM32F4xx_StdPeriph_Driver/src/stm32f4xx_crc.c **** 
 111:Drivers/STM32F4xx_StdPeriph_Driver/src/stm32f4xx_crc.c **** /**
 112:Drivers/STM32F4xx_StdPeriph_Driver/src/stm32f4xx_crc.c ****   * @brief  Returns the 8-bit data stored in the Independent Data(ID) register
 113:Drivers/STM32F4xx_StdPeriph_Driver/src/stm32f4xx_crc.c ****   * @param  None
 114:Drivers/STM32F4xx_StdPeriph_Driver/src/stm32f4xx_crc.c ****   * @retval 8-bit value of the ID register 
 115:Drivers/STM32F4xx_StdPeriph_Driver/src/stm32f4xx_crc.c ****   */
 116:Drivers/STM32F4xx_StdPeriph_Driver/src/stm32f4xx_crc.c **** uint8_t CRC_GetIDRegister(void)
 117:Drivers/STM32F4xx_StdPeriph_Driver/src/stm32f4xx_crc.c **** {
 221              		.loc 1 117 1 is_stmt 1 view -0
 222              		.cfi_startproc
 223              		@ args = 0, pretend = 0, frame = 0
 224              		@ frame_needed = 0, uses_anonymous_args = 0
 225              		@ link register save eliminated.
 118:Drivers/STM32F4xx_StdPeriph_Driver/src/stm32f4xx_crc.c ****   return (CRC->IDR);
 226              		.loc 1 118 3 view .LVU40
 227              		.loc 1 118 14 is_stmt 0 view .LVU41
ARM GAS  /tmp/ccrEtUgi.s 			page 7


 228 0000 014B     		ldr	r3, .L24
 229 0002 1879     		ldrb	r0, [r3, #4]	@ zero_extendqisi2
 119:Drivers/STM32F4xx_StdPeriph_Driver/src/stm32f4xx_crc.c **** }
 230              		.loc 1 119 1 view .LVU42
 231 0004 7047     		bx	lr
 232              	.L25:
 233 0006 00BF     		.align	2
 234              	.L24:
 235 0008 00300240 		.word	1073885184
 236              		.cfi_endproc
 237              	.LFE128:
 239              		.text
 240              	.Letext0:
 241              		.file 2 "/usr/lib/gcc/arm-none-eabi/10.3.1/include/stdint.h"
 242              		.file 3 "Drivers/CMSIS/Device/ST/STM32F4xx/Include/stm32f4xx.h"
ARM GAS  /tmp/ccrEtUgi.s 			page 8

