ARM GAS  /tmp/ccjGnpiF.s 			page 1


   1              		.cpu cortex-m4
   2              		.eabi_attribute 27, 1
   3              		.eabi_attribute 28, 1
   4              		.eabi_attribute 20, 1
   5              		.eabi_attribute 21, 1
   6              		.eabi_attribute 23, 3
   7              		.eabi_attribute 24, 1
   8              		.eabi_attribute 25, 1
   9              		.eabi_attribute 26, 1
  10              		.eabi_attribute 30, 1
  11              		.eabi_attribute 34, 1
  12              		.eabi_attribute 18, 4
  13              		.file	"stm32f4xx_cryp_aes.c"
  14              		.text
  15              	.Ltext0:
  16              		.cfi_sections	.debug_frame
  17              		.section	.text.CRYP_AES_ECB,"ax",%progbits
  18              		.align	1
  19              		.global	CRYP_AES_ECB
  20              		.arch armv7e-m
  21              		.syntax unified
  22              		.thumb
  23              		.thumb_func
  24              		.fpu fpv4-sp-d16
  26              	CRYP_AES_ECB:
  27              	.LVL0:
  28              	.LFB123:
  29              		.file 1 "Drivers/STM32F4xx_StdPeriph_Driver/src/stm32f4xx_cryp_aes.c"
   1:Drivers/STM32F4xx_StdPeriph_Driver/src/stm32f4xx_cryp_aes.c **** /**
   2:Drivers/STM32F4xx_StdPeriph_Driver/src/stm32f4xx_cryp_aes.c ****   ******************************************************************************
   3:Drivers/STM32F4xx_StdPeriph_Driver/src/stm32f4xx_cryp_aes.c ****   * @file    stm32f4xx_cryp_aes.c
   4:Drivers/STM32F4xx_StdPeriph_Driver/src/stm32f4xx_cryp_aes.c ****   * @author  MCD Application Team
   5:Drivers/STM32F4xx_StdPeriph_Driver/src/stm32f4xx_cryp_aes.c ****   * @version V1.6.1
   6:Drivers/STM32F4xx_StdPeriph_Driver/src/stm32f4xx_cryp_aes.c ****   * @date    21-October-2015
   7:Drivers/STM32F4xx_StdPeriph_Driver/src/stm32f4xx_cryp_aes.c ****   * @brief   This file provides high level functions to encrypt and decrypt an 
   8:Drivers/STM32F4xx_StdPeriph_Driver/src/stm32f4xx_cryp_aes.c ****   *          input message using AES in ECB/CBC/CTR/GCM/CCM modes.
   9:Drivers/STM32F4xx_StdPeriph_Driver/src/stm32f4xx_cryp_aes.c ****   *          It uses the stm32f4xx_cryp.c/.h drivers to access the STM32F4xx CRYP
  10:Drivers/STM32F4xx_StdPeriph_Driver/src/stm32f4xx_cryp_aes.c ****   *          peripheral.
  11:Drivers/STM32F4xx_StdPeriph_Driver/src/stm32f4xx_cryp_aes.c ****   *          AES-ECB/CBC/CTR/GCM/CCM modes are available on STM32F437x Devices.
  12:Drivers/STM32F4xx_StdPeriph_Driver/src/stm32f4xx_cryp_aes.c ****   *          For STM32F41xx Devices, only AES-ECB/CBC/CTR modes are available.
  13:Drivers/STM32F4xx_StdPeriph_Driver/src/stm32f4xx_cryp_aes.c ****   *
  14:Drivers/STM32F4xx_StdPeriph_Driver/src/stm32f4xx_cryp_aes.c **** @verbatim
  15:Drivers/STM32F4xx_StdPeriph_Driver/src/stm32f4xx_cryp_aes.c ****  ===================================================================
  16:Drivers/STM32F4xx_StdPeriph_Driver/src/stm32f4xx_cryp_aes.c ****                   ##### How to use this driver #####
  17:Drivers/STM32F4xx_StdPeriph_Driver/src/stm32f4xx_cryp_aes.c ****  ===================================================================
  18:Drivers/STM32F4xx_StdPeriph_Driver/src/stm32f4xx_cryp_aes.c ****  [..]
  19:Drivers/STM32F4xx_StdPeriph_Driver/src/stm32f4xx_cryp_aes.c ****    (#) Enable The CRYP controller clock using 
  20:Drivers/STM32F4xx_StdPeriph_Driver/src/stm32f4xx_cryp_aes.c ****       RCC_AHB2PeriphClockCmd(RCC_AHB2Periph_CRYP, ENABLE); function.
  21:Drivers/STM32F4xx_StdPeriph_Driver/src/stm32f4xx_cryp_aes.c ****   
  22:Drivers/STM32F4xx_StdPeriph_Driver/src/stm32f4xx_cryp_aes.c ****    (#) Encrypt and decrypt using AES in ECB Mode using CRYP_AES_ECB() function.
  23:Drivers/STM32F4xx_StdPeriph_Driver/src/stm32f4xx_cryp_aes.c ****   
  24:Drivers/STM32F4xx_StdPeriph_Driver/src/stm32f4xx_cryp_aes.c ****    (#) Encrypt and decrypt using AES in CBC Mode using CRYP_AES_CBC() function.
  25:Drivers/STM32F4xx_StdPeriph_Driver/src/stm32f4xx_cryp_aes.c ****   
  26:Drivers/STM32F4xx_StdPeriph_Driver/src/stm32f4xx_cryp_aes.c ****    (#) Encrypt and decrypt using AES in CTR Mode using CRYP_AES_CTR() function.
  27:Drivers/STM32F4xx_StdPeriph_Driver/src/stm32f4xx_cryp_aes.c **** 
  28:Drivers/STM32F4xx_StdPeriph_Driver/src/stm32f4xx_cryp_aes.c ****    (#) Encrypt and decrypt using AES in GCM Mode using CRYP_AES_GCM() function.
  29:Drivers/STM32F4xx_StdPeriph_Driver/src/stm32f4xx_cryp_aes.c ****    
ARM GAS  /tmp/ccjGnpiF.s 			page 2


  30:Drivers/STM32F4xx_StdPeriph_Driver/src/stm32f4xx_cryp_aes.c ****    (#) Encrypt and decrypt using AES in CCM Mode using CRYP_AES_CCM() function.
  31:Drivers/STM32F4xx_StdPeriph_Driver/src/stm32f4xx_cryp_aes.c ****      
  32:Drivers/STM32F4xx_StdPeriph_Driver/src/stm32f4xx_cryp_aes.c **** @endverbatim
  33:Drivers/STM32F4xx_StdPeriph_Driver/src/stm32f4xx_cryp_aes.c ****   *
  34:Drivers/STM32F4xx_StdPeriph_Driver/src/stm32f4xx_cryp_aes.c ****   ******************************************************************************
  35:Drivers/STM32F4xx_StdPeriph_Driver/src/stm32f4xx_cryp_aes.c ****   * @attention
  36:Drivers/STM32F4xx_StdPeriph_Driver/src/stm32f4xx_cryp_aes.c ****   *
  37:Drivers/STM32F4xx_StdPeriph_Driver/src/stm32f4xx_cryp_aes.c ****   * <h2><center>&copy; COPYRIGHT 2015 STMicroelectronics</center></h2>
  38:Drivers/STM32F4xx_StdPeriph_Driver/src/stm32f4xx_cryp_aes.c ****   *
  39:Drivers/STM32F4xx_StdPeriph_Driver/src/stm32f4xx_cryp_aes.c ****   * Licensed under MCD-ST Liberty SW License Agreement V2, (the "License");
  40:Drivers/STM32F4xx_StdPeriph_Driver/src/stm32f4xx_cryp_aes.c ****   * You may not use this file except in compliance with the License.
  41:Drivers/STM32F4xx_StdPeriph_Driver/src/stm32f4xx_cryp_aes.c ****   * You may obtain a copy of the License at:
  42:Drivers/STM32F4xx_StdPeriph_Driver/src/stm32f4xx_cryp_aes.c ****   *
  43:Drivers/STM32F4xx_StdPeriph_Driver/src/stm32f4xx_cryp_aes.c ****   *        http://www.st.com/software_license_agreement_liberty_v2
  44:Drivers/STM32F4xx_StdPeriph_Driver/src/stm32f4xx_cryp_aes.c ****   *
  45:Drivers/STM32F4xx_StdPeriph_Driver/src/stm32f4xx_cryp_aes.c ****   * Unless required by applicable law or agreed to in writing, software 
  46:Drivers/STM32F4xx_StdPeriph_Driver/src/stm32f4xx_cryp_aes.c ****   * distributed under the License is distributed on an "AS IS" BASIS, 
  47:Drivers/STM32F4xx_StdPeriph_Driver/src/stm32f4xx_cryp_aes.c ****   * WITHOUT WARRANTIES OR CONDITIONS OF ANY KIND, either express or implied.
  48:Drivers/STM32F4xx_StdPeriph_Driver/src/stm32f4xx_cryp_aes.c ****   * See the License for the specific language governing permissions and
  49:Drivers/STM32F4xx_StdPeriph_Driver/src/stm32f4xx_cryp_aes.c ****   * limitations under the License.
  50:Drivers/STM32F4xx_StdPeriph_Driver/src/stm32f4xx_cryp_aes.c ****   *
  51:Drivers/STM32F4xx_StdPeriph_Driver/src/stm32f4xx_cryp_aes.c ****   ******************************************************************************  
  52:Drivers/STM32F4xx_StdPeriph_Driver/src/stm32f4xx_cryp_aes.c ****   */
  53:Drivers/STM32F4xx_StdPeriph_Driver/src/stm32f4xx_cryp_aes.c **** 
  54:Drivers/STM32F4xx_StdPeriph_Driver/src/stm32f4xx_cryp_aes.c **** /* Includes ------------------------------------------------------------------*/
  55:Drivers/STM32F4xx_StdPeriph_Driver/src/stm32f4xx_cryp_aes.c **** #include "stm32f4xx_cryp.h"
  56:Drivers/STM32F4xx_StdPeriph_Driver/src/stm32f4xx_cryp_aes.c **** 
  57:Drivers/STM32F4xx_StdPeriph_Driver/src/stm32f4xx_cryp_aes.c **** /** @addtogroup STM32F4xx_StdPeriph_Driver
  58:Drivers/STM32F4xx_StdPeriph_Driver/src/stm32f4xx_cryp_aes.c ****   * @{
  59:Drivers/STM32F4xx_StdPeriph_Driver/src/stm32f4xx_cryp_aes.c ****   */
  60:Drivers/STM32F4xx_StdPeriph_Driver/src/stm32f4xx_cryp_aes.c **** 
  61:Drivers/STM32F4xx_StdPeriph_Driver/src/stm32f4xx_cryp_aes.c **** /** @defgroup CRYP 
  62:Drivers/STM32F4xx_StdPeriph_Driver/src/stm32f4xx_cryp_aes.c ****   * @brief CRYP driver modules
  63:Drivers/STM32F4xx_StdPeriph_Driver/src/stm32f4xx_cryp_aes.c ****   * @{
  64:Drivers/STM32F4xx_StdPeriph_Driver/src/stm32f4xx_cryp_aes.c ****   */
  65:Drivers/STM32F4xx_StdPeriph_Driver/src/stm32f4xx_cryp_aes.c **** 
  66:Drivers/STM32F4xx_StdPeriph_Driver/src/stm32f4xx_cryp_aes.c **** /* Private typedef -----------------------------------------------------------*/
  67:Drivers/STM32F4xx_StdPeriph_Driver/src/stm32f4xx_cryp_aes.c **** /* Private define ------------------------------------------------------------*/
  68:Drivers/STM32F4xx_StdPeriph_Driver/src/stm32f4xx_cryp_aes.c **** #define AESBUSY_TIMEOUT    ((uint32_t) 0x00010000)
  69:Drivers/STM32F4xx_StdPeriph_Driver/src/stm32f4xx_cryp_aes.c **** 
  70:Drivers/STM32F4xx_StdPeriph_Driver/src/stm32f4xx_cryp_aes.c **** /* Private macro -------------------------------------------------------------*/
  71:Drivers/STM32F4xx_StdPeriph_Driver/src/stm32f4xx_cryp_aes.c **** /* Private variables ---------------------------------------------------------*/
  72:Drivers/STM32F4xx_StdPeriph_Driver/src/stm32f4xx_cryp_aes.c **** /* Private function prototypes -----------------------------------------------*/
  73:Drivers/STM32F4xx_StdPeriph_Driver/src/stm32f4xx_cryp_aes.c **** /* Private functions ---------------------------------------------------------*/
  74:Drivers/STM32F4xx_StdPeriph_Driver/src/stm32f4xx_cryp_aes.c **** 
  75:Drivers/STM32F4xx_StdPeriph_Driver/src/stm32f4xx_cryp_aes.c **** /** @defgroup CRYP_Private_Functions
  76:Drivers/STM32F4xx_StdPeriph_Driver/src/stm32f4xx_cryp_aes.c ****   * @{
  77:Drivers/STM32F4xx_StdPeriph_Driver/src/stm32f4xx_cryp_aes.c ****   */ 
  78:Drivers/STM32F4xx_StdPeriph_Driver/src/stm32f4xx_cryp_aes.c **** 
  79:Drivers/STM32F4xx_StdPeriph_Driver/src/stm32f4xx_cryp_aes.c **** /** @defgroup CRYP_Group6 High Level AES functions
  80:Drivers/STM32F4xx_StdPeriph_Driver/src/stm32f4xx_cryp_aes.c ****  *  @brief   High Level AES functions 
  81:Drivers/STM32F4xx_StdPeriph_Driver/src/stm32f4xx_cryp_aes.c ****  *
  82:Drivers/STM32F4xx_StdPeriph_Driver/src/stm32f4xx_cryp_aes.c **** @verbatim   
  83:Drivers/STM32F4xx_StdPeriph_Driver/src/stm32f4xx_cryp_aes.c ****  ===============================================================================
  84:Drivers/STM32F4xx_StdPeriph_Driver/src/stm32f4xx_cryp_aes.c ****                        ##### High Level AES functions #####
  85:Drivers/STM32F4xx_StdPeriph_Driver/src/stm32f4xx_cryp_aes.c ****  ===============================================================================
  86:Drivers/STM32F4xx_StdPeriph_Driver/src/stm32f4xx_cryp_aes.c **** 
ARM GAS  /tmp/ccjGnpiF.s 			page 3


  87:Drivers/STM32F4xx_StdPeriph_Driver/src/stm32f4xx_cryp_aes.c **** @endverbatim
  88:Drivers/STM32F4xx_StdPeriph_Driver/src/stm32f4xx_cryp_aes.c ****   * @{
  89:Drivers/STM32F4xx_StdPeriph_Driver/src/stm32f4xx_cryp_aes.c ****   */
  90:Drivers/STM32F4xx_StdPeriph_Driver/src/stm32f4xx_cryp_aes.c **** 
  91:Drivers/STM32F4xx_StdPeriph_Driver/src/stm32f4xx_cryp_aes.c **** /**
  92:Drivers/STM32F4xx_StdPeriph_Driver/src/stm32f4xx_cryp_aes.c ****   * @brief  Encrypt and decrypt using AES in ECB Mode
  93:Drivers/STM32F4xx_StdPeriph_Driver/src/stm32f4xx_cryp_aes.c ****   * @param  Mode: encryption or decryption Mode.
  94:Drivers/STM32F4xx_StdPeriph_Driver/src/stm32f4xx_cryp_aes.c ****   *          This parameter can be one of the following values:
  95:Drivers/STM32F4xx_StdPeriph_Driver/src/stm32f4xx_cryp_aes.c ****   *            @arg MODE_ENCRYPT: Encryption
  96:Drivers/STM32F4xx_StdPeriph_Driver/src/stm32f4xx_cryp_aes.c ****   *            @arg MODE_DECRYPT: Decryption
  97:Drivers/STM32F4xx_StdPeriph_Driver/src/stm32f4xx_cryp_aes.c ****   * @param  Key: Key used for AES algorithm.
  98:Drivers/STM32F4xx_StdPeriph_Driver/src/stm32f4xx_cryp_aes.c ****   * @param  Keysize: length of the Key, must be a 128, 192 or 256.
  99:Drivers/STM32F4xx_StdPeriph_Driver/src/stm32f4xx_cryp_aes.c ****   * @param  Input: pointer to the Input buffer.
 100:Drivers/STM32F4xx_StdPeriph_Driver/src/stm32f4xx_cryp_aes.c ****   * @param  Ilength: length of the Input buffer, must be a multiple of 16.
 101:Drivers/STM32F4xx_StdPeriph_Driver/src/stm32f4xx_cryp_aes.c ****   * @param  Output: pointer to the returned buffer.
 102:Drivers/STM32F4xx_StdPeriph_Driver/src/stm32f4xx_cryp_aes.c ****   * @retval An ErrorStatus enumeration value:
 103:Drivers/STM32F4xx_StdPeriph_Driver/src/stm32f4xx_cryp_aes.c ****   *          - SUCCESS: Operation done
 104:Drivers/STM32F4xx_StdPeriph_Driver/src/stm32f4xx_cryp_aes.c ****   *          - ERROR: Operation failed
 105:Drivers/STM32F4xx_StdPeriph_Driver/src/stm32f4xx_cryp_aes.c ****   */
 106:Drivers/STM32F4xx_StdPeriph_Driver/src/stm32f4xx_cryp_aes.c **** ErrorStatus CRYP_AES_ECB(uint8_t Mode, uint8_t* Key, uint16_t Keysize,
 107:Drivers/STM32F4xx_StdPeriph_Driver/src/stm32f4xx_cryp_aes.c ****                          uint8_t* Input, uint32_t Ilength, uint8_t* Output)
 108:Drivers/STM32F4xx_StdPeriph_Driver/src/stm32f4xx_cryp_aes.c **** {
  30              		.loc 1 108 1 view -0
  31              		.cfi_startproc
  32              		@ args = 8, pretend = 0, frame = 56
  33              		@ frame_needed = 0, uses_anonymous_args = 0
  34              		.loc 1 108 1 is_stmt 0 view .LVU1
  35 0000 2DE9F043 		push	{r4, r5, r6, r7, r8, r9, lr}
  36              		.cfi_def_cfa_offset 28
  37              		.cfi_offset 4, -28
  38              		.cfi_offset 5, -24
  39              		.cfi_offset 6, -20
  40              		.cfi_offset 7, -16
  41              		.cfi_offset 8, -12
  42              		.cfi_offset 9, -8
  43              		.cfi_offset 14, -4
  44 0004 8FB0     		sub	sp, sp, #60
  45              		.cfi_def_cfa_offset 88
  46 0006 0646     		mov	r6, r0
  47 0008 0D46     		mov	r5, r1
  48 000a 9146     		mov	r9, r2
  49 000c DDF85880 		ldr	r8, [sp, #88]
 109:Drivers/STM32F4xx_StdPeriph_Driver/src/stm32f4xx_cryp_aes.c ****   CRYP_InitTypeDef AES_CRYP_InitStructure;
  50              		.loc 1 109 3 is_stmt 1 view .LVU2
 110:Drivers/STM32F4xx_StdPeriph_Driver/src/stm32f4xx_cryp_aes.c ****   CRYP_KeyInitTypeDef AES_CRYP_KeyInitStructure;
  51              		.loc 1 110 3 view .LVU3
 111:Drivers/STM32F4xx_StdPeriph_Driver/src/stm32f4xx_cryp_aes.c ****   __IO uint32_t counter = 0;
  52              		.loc 1 111 3 view .LVU4
  53              		.loc 1 111 17 is_stmt 0 view .LVU5
  54 0010 0022     		movs	r2, #0
  55              	.LVL1:
  56              		.loc 1 111 17 view .LVU6
  57 0012 0192     		str	r2, [sp, #4]
 112:Drivers/STM32F4xx_StdPeriph_Driver/src/stm32f4xx_cryp_aes.c ****   uint32_t busystatus = 0;
  58              		.loc 1 112 3 is_stmt 1 view .LVU7
  59              	.LVL2:
 113:Drivers/STM32F4xx_StdPeriph_Driver/src/stm32f4xx_cryp_aes.c ****   ErrorStatus status = SUCCESS;
ARM GAS  /tmp/ccjGnpiF.s 			page 4


  60              		.loc 1 113 3 view .LVU8
 114:Drivers/STM32F4xx_StdPeriph_Driver/src/stm32f4xx_cryp_aes.c ****   uint32_t keyaddr    = (uint32_t)Key;
  61              		.loc 1 114 3 view .LVU9
 115:Drivers/STM32F4xx_StdPeriph_Driver/src/stm32f4xx_cryp_aes.c ****   uint32_t inputaddr  = (uint32_t)Input;
  62              		.loc 1 115 3 view .LVU10
  63              		.loc 1 115 12 is_stmt 0 view .LVU11
  64 0014 1C46     		mov	r4, r3
  65              	.LVL3:
 116:Drivers/STM32F4xx_StdPeriph_Driver/src/stm32f4xx_cryp_aes.c ****   uint32_t outputaddr = (uint32_t)Output;
  66              		.loc 1 116 3 is_stmt 1 view .LVU12
  67              		.loc 1 116 12 is_stmt 0 view .LVU13
  68 0016 179F     		ldr	r7, [sp, #92]
  69              	.LVL4:
 117:Drivers/STM32F4xx_StdPeriph_Driver/src/stm32f4xx_cryp_aes.c ****   uint32_t i = 0;
  70              		.loc 1 117 3 is_stmt 1 view .LVU14
 118:Drivers/STM32F4xx_StdPeriph_Driver/src/stm32f4xx_cryp_aes.c **** 
 119:Drivers/STM32F4xx_StdPeriph_Driver/src/stm32f4xx_cryp_aes.c ****   /* Crypto structures initialisation*/
 120:Drivers/STM32F4xx_StdPeriph_Driver/src/stm32f4xx_cryp_aes.c ****   CRYP_KeyStructInit(&AES_CRYP_KeyInitStructure);
  71              		.loc 1 120 3 view .LVU15
  72 0018 02A8     		add	r0, sp, #8
  73              	.LVL5:
  74              		.loc 1 120 3 is_stmt 0 view .LVU16
  75 001a FFF7FEFF 		bl	CRYP_KeyStructInit
  76              	.LVL6:
 121:Drivers/STM32F4xx_StdPeriph_Driver/src/stm32f4xx_cryp_aes.c **** 
 122:Drivers/STM32F4xx_StdPeriph_Driver/src/stm32f4xx_cryp_aes.c ****   switch(Keysize)
  77              		.loc 1 122 3 is_stmt 1 view .LVU17
  78 001e B9F1C00F 		cmp	r9, #192
  79 0022 39D0     		beq	.L2
  80 0024 B9F5807F 		cmp	r9, #256
  81 0028 4CD0     		beq	.L3
  82 002a B9F1800F 		cmp	r9, #128
  83 002e 24D0     		beq	.L18
  84              	.LVL7:
  85              	.L4:
 123:Drivers/STM32F4xx_StdPeriph_Driver/src/stm32f4xx_cryp_aes.c ****   {
 124:Drivers/STM32F4xx_StdPeriph_Driver/src/stm32f4xx_cryp_aes.c ****     case 128:
 125:Drivers/STM32F4xx_StdPeriph_Driver/src/stm32f4xx_cryp_aes.c ****     AES_CRYP_InitStructure.CRYP_KeySize = CRYP_KeySize_128b;
 126:Drivers/STM32F4xx_StdPeriph_Driver/src/stm32f4xx_cryp_aes.c ****     AES_CRYP_KeyInitStructure.CRYP_Key2Left = __REV(*(uint32_t*)(keyaddr));
 127:Drivers/STM32F4xx_StdPeriph_Driver/src/stm32f4xx_cryp_aes.c ****     keyaddr+=4;
 128:Drivers/STM32F4xx_StdPeriph_Driver/src/stm32f4xx_cryp_aes.c ****     AES_CRYP_KeyInitStructure.CRYP_Key2Right= __REV(*(uint32_t*)(keyaddr));
 129:Drivers/STM32F4xx_StdPeriph_Driver/src/stm32f4xx_cryp_aes.c ****     keyaddr+=4;
 130:Drivers/STM32F4xx_StdPeriph_Driver/src/stm32f4xx_cryp_aes.c ****     AES_CRYP_KeyInitStructure.CRYP_Key3Left = __REV(*(uint32_t*)(keyaddr));
 131:Drivers/STM32F4xx_StdPeriph_Driver/src/stm32f4xx_cryp_aes.c ****     keyaddr+=4;
 132:Drivers/STM32F4xx_StdPeriph_Driver/src/stm32f4xx_cryp_aes.c ****     AES_CRYP_KeyInitStructure.CRYP_Key3Right= __REV(*(uint32_t*)(keyaddr));
 133:Drivers/STM32F4xx_StdPeriph_Driver/src/stm32f4xx_cryp_aes.c ****     break;
 134:Drivers/STM32F4xx_StdPeriph_Driver/src/stm32f4xx_cryp_aes.c ****     case 192:
 135:Drivers/STM32F4xx_StdPeriph_Driver/src/stm32f4xx_cryp_aes.c ****     AES_CRYP_InitStructure.CRYP_KeySize  = CRYP_KeySize_192b;
 136:Drivers/STM32F4xx_StdPeriph_Driver/src/stm32f4xx_cryp_aes.c ****     AES_CRYP_KeyInitStructure.CRYP_Key1Left = __REV(*(uint32_t*)(keyaddr));
 137:Drivers/STM32F4xx_StdPeriph_Driver/src/stm32f4xx_cryp_aes.c ****     keyaddr+=4;
 138:Drivers/STM32F4xx_StdPeriph_Driver/src/stm32f4xx_cryp_aes.c ****     AES_CRYP_KeyInitStructure.CRYP_Key1Right= __REV(*(uint32_t*)(keyaddr));
 139:Drivers/STM32F4xx_StdPeriph_Driver/src/stm32f4xx_cryp_aes.c ****     keyaddr+=4;
 140:Drivers/STM32F4xx_StdPeriph_Driver/src/stm32f4xx_cryp_aes.c ****     AES_CRYP_KeyInitStructure.CRYP_Key2Left = __REV(*(uint32_t*)(keyaddr));
 141:Drivers/STM32F4xx_StdPeriph_Driver/src/stm32f4xx_cryp_aes.c ****     keyaddr+=4;
 142:Drivers/STM32F4xx_StdPeriph_Driver/src/stm32f4xx_cryp_aes.c ****     AES_CRYP_KeyInitStructure.CRYP_Key2Right= __REV(*(uint32_t*)(keyaddr));
 143:Drivers/STM32F4xx_StdPeriph_Driver/src/stm32f4xx_cryp_aes.c ****     keyaddr+=4;
 144:Drivers/STM32F4xx_StdPeriph_Driver/src/stm32f4xx_cryp_aes.c ****     AES_CRYP_KeyInitStructure.CRYP_Key3Left = __REV(*(uint32_t*)(keyaddr));
ARM GAS  /tmp/ccjGnpiF.s 			page 5


 145:Drivers/STM32F4xx_StdPeriph_Driver/src/stm32f4xx_cryp_aes.c ****     keyaddr+=4;
 146:Drivers/STM32F4xx_StdPeriph_Driver/src/stm32f4xx_cryp_aes.c ****     AES_CRYP_KeyInitStructure.CRYP_Key3Right= __REV(*(uint32_t*)(keyaddr));
 147:Drivers/STM32F4xx_StdPeriph_Driver/src/stm32f4xx_cryp_aes.c ****     break;
 148:Drivers/STM32F4xx_StdPeriph_Driver/src/stm32f4xx_cryp_aes.c ****     case 256:
 149:Drivers/STM32F4xx_StdPeriph_Driver/src/stm32f4xx_cryp_aes.c ****     AES_CRYP_InitStructure.CRYP_KeySize  = CRYP_KeySize_256b;
 150:Drivers/STM32F4xx_StdPeriph_Driver/src/stm32f4xx_cryp_aes.c ****     AES_CRYP_KeyInitStructure.CRYP_Key0Left = __REV(*(uint32_t*)(keyaddr));
 151:Drivers/STM32F4xx_StdPeriph_Driver/src/stm32f4xx_cryp_aes.c ****     keyaddr+=4;
 152:Drivers/STM32F4xx_StdPeriph_Driver/src/stm32f4xx_cryp_aes.c ****     AES_CRYP_KeyInitStructure.CRYP_Key0Right= __REV(*(uint32_t*)(keyaddr));
 153:Drivers/STM32F4xx_StdPeriph_Driver/src/stm32f4xx_cryp_aes.c ****     keyaddr+=4;
 154:Drivers/STM32F4xx_StdPeriph_Driver/src/stm32f4xx_cryp_aes.c ****     AES_CRYP_KeyInitStructure.CRYP_Key1Left = __REV(*(uint32_t*)(keyaddr));
 155:Drivers/STM32F4xx_StdPeriph_Driver/src/stm32f4xx_cryp_aes.c ****     keyaddr+=4;
 156:Drivers/STM32F4xx_StdPeriph_Driver/src/stm32f4xx_cryp_aes.c ****     AES_CRYP_KeyInitStructure.CRYP_Key1Right= __REV(*(uint32_t*)(keyaddr));
 157:Drivers/STM32F4xx_StdPeriph_Driver/src/stm32f4xx_cryp_aes.c ****     keyaddr+=4;
 158:Drivers/STM32F4xx_StdPeriph_Driver/src/stm32f4xx_cryp_aes.c ****     AES_CRYP_KeyInitStructure.CRYP_Key2Left = __REV(*(uint32_t*)(keyaddr));
 159:Drivers/STM32F4xx_StdPeriph_Driver/src/stm32f4xx_cryp_aes.c ****     keyaddr+=4;
 160:Drivers/STM32F4xx_StdPeriph_Driver/src/stm32f4xx_cryp_aes.c ****     AES_CRYP_KeyInitStructure.CRYP_Key2Right= __REV(*(uint32_t*)(keyaddr));
 161:Drivers/STM32F4xx_StdPeriph_Driver/src/stm32f4xx_cryp_aes.c ****     keyaddr+=4;
 162:Drivers/STM32F4xx_StdPeriph_Driver/src/stm32f4xx_cryp_aes.c ****     AES_CRYP_KeyInitStructure.CRYP_Key3Left = __REV(*(uint32_t*)(keyaddr));
 163:Drivers/STM32F4xx_StdPeriph_Driver/src/stm32f4xx_cryp_aes.c ****     keyaddr+=4;
 164:Drivers/STM32F4xx_StdPeriph_Driver/src/stm32f4xx_cryp_aes.c ****     AES_CRYP_KeyInitStructure.CRYP_Key3Right= __REV(*(uint32_t*)(keyaddr));
 165:Drivers/STM32F4xx_StdPeriph_Driver/src/stm32f4xx_cryp_aes.c ****     break;
 166:Drivers/STM32F4xx_StdPeriph_Driver/src/stm32f4xx_cryp_aes.c ****     default:
 167:Drivers/STM32F4xx_StdPeriph_Driver/src/stm32f4xx_cryp_aes.c ****     break;
 168:Drivers/STM32F4xx_StdPeriph_Driver/src/stm32f4xx_cryp_aes.c ****   }
 169:Drivers/STM32F4xx_StdPeriph_Driver/src/stm32f4xx_cryp_aes.c **** 
 170:Drivers/STM32F4xx_StdPeriph_Driver/src/stm32f4xx_cryp_aes.c ****   /*------------------ AES Decryption ------------------*/
 171:Drivers/STM32F4xx_StdPeriph_Driver/src/stm32f4xx_cryp_aes.c ****   if(Mode == MODE_DECRYPT) /* AES decryption */
  86              		.loc 1 171 3 view .LVU18
  87              		.loc 1 171 5 is_stmt 0 view .LVU19
  88 0030 002E     		cmp	r6, #0
  89 0032 63D1     		bne	.L5
 172:Drivers/STM32F4xx_StdPeriph_Driver/src/stm32f4xx_cryp_aes.c ****   {
 173:Drivers/STM32F4xx_StdPeriph_Driver/src/stm32f4xx_cryp_aes.c ****     /* Flush IN/OUT FIFOs */
 174:Drivers/STM32F4xx_StdPeriph_Driver/src/stm32f4xx_cryp_aes.c ****     CRYP_FIFOFlush();
  90              		.loc 1 174 5 is_stmt 1 view .LVU20
  91 0034 FFF7FEFF 		bl	CRYP_FIFOFlush
  92              	.LVL8:
 175:Drivers/STM32F4xx_StdPeriph_Driver/src/stm32f4xx_cryp_aes.c **** 
 176:Drivers/STM32F4xx_StdPeriph_Driver/src/stm32f4xx_cryp_aes.c ****     /* Crypto Init for Key preparation for decryption process */
 177:Drivers/STM32F4xx_StdPeriph_Driver/src/stm32f4xx_cryp_aes.c ****     AES_CRYP_InitStructure.CRYP_AlgoDir = CRYP_AlgoDir_Decrypt;
  93              		.loc 1 177 5 view .LVU21
  94              		.loc 1 177 41 is_stmt 0 view .LVU22
  95 0038 0423     		movs	r3, #4
  96 003a 0A93     		str	r3, [sp, #40]
 178:Drivers/STM32F4xx_StdPeriph_Driver/src/stm32f4xx_cryp_aes.c ****     AES_CRYP_InitStructure.CRYP_AlgoMode = CRYP_AlgoMode_AES_Key;
  97              		.loc 1 178 5 is_stmt 1 view .LVU23
  98              		.loc 1 178 42 is_stmt 0 view .LVU24
  99 003c 3823     		movs	r3, #56
 100 003e 0B93     		str	r3, [sp, #44]
 179:Drivers/STM32F4xx_StdPeriph_Driver/src/stm32f4xx_cryp_aes.c ****     AES_CRYP_InitStructure.CRYP_DataType = CRYP_DataType_32b;
 101              		.loc 1 179 5 is_stmt 1 view .LVU25
 102              		.loc 1 179 42 is_stmt 0 view .LVU26
 103 0040 0023     		movs	r3, #0
 104 0042 0C93     		str	r3, [sp, #48]
 180:Drivers/STM32F4xx_StdPeriph_Driver/src/stm32f4xx_cryp_aes.c ****     CRYP_Init(&AES_CRYP_InitStructure);
 105              		.loc 1 180 5 is_stmt 1 view .LVU27
 106 0044 0AA8     		add	r0, sp, #40
ARM GAS  /tmp/ccjGnpiF.s 			page 6


 107 0046 FFF7FEFF 		bl	CRYP_Init
 108              	.LVL9:
 181:Drivers/STM32F4xx_StdPeriph_Driver/src/stm32f4xx_cryp_aes.c **** 
 182:Drivers/STM32F4xx_StdPeriph_Driver/src/stm32f4xx_cryp_aes.c ****     /* Key Initialisation */
 183:Drivers/STM32F4xx_StdPeriph_Driver/src/stm32f4xx_cryp_aes.c ****     CRYP_KeyInit(&AES_CRYP_KeyInitStructure);
 109              		.loc 1 183 5 view .LVU28
 110 004a 02A8     		add	r0, sp, #8
 111 004c FFF7FEFF 		bl	CRYP_KeyInit
 112              	.LVL10:
 184:Drivers/STM32F4xx_StdPeriph_Driver/src/stm32f4xx_cryp_aes.c **** 
 185:Drivers/STM32F4xx_StdPeriph_Driver/src/stm32f4xx_cryp_aes.c ****     /* Enable Crypto processor */
 186:Drivers/STM32F4xx_StdPeriph_Driver/src/stm32f4xx_cryp_aes.c ****     CRYP_Cmd(ENABLE);
 113              		.loc 1 186 5 view .LVU29
 114 0050 0120     		movs	r0, #1
 115 0052 FFF7FEFF 		bl	CRYP_Cmd
 116              	.LVL11:
 117              	.L7:
 187:Drivers/STM32F4xx_StdPeriph_Driver/src/stm32f4xx_cryp_aes.c **** 
 188:Drivers/STM32F4xx_StdPeriph_Driver/src/stm32f4xx_cryp_aes.c ****     /* wait until the Busy flag is RESET */
 189:Drivers/STM32F4xx_StdPeriph_Driver/src/stm32f4xx_cryp_aes.c ****     do
 118              		.loc 1 189 5 discriminator 2 view .LVU30
 190:Drivers/STM32F4xx_StdPeriph_Driver/src/stm32f4xx_cryp_aes.c ****     {
 191:Drivers/STM32F4xx_StdPeriph_Driver/src/stm32f4xx_cryp_aes.c ****       busystatus = CRYP_GetFlagStatus(CRYP_FLAG_BUSY);
 119              		.loc 1 191 7 discriminator 2 view .LVU31
 120              		.loc 1 191 20 is_stmt 0 discriminator 2 view .LVU32
 121 0056 1020     		movs	r0, #16
 122 0058 FFF7FEFF 		bl	CRYP_GetFlagStatus
 123              	.LVL12:
 192:Drivers/STM32F4xx_StdPeriph_Driver/src/stm32f4xx_cryp_aes.c ****       counter++;
 124              		.loc 1 192 7 is_stmt 1 discriminator 2 view .LVU33
 125              		.loc 1 192 14 is_stmt 0 discriminator 2 view .LVU34
 126 005c 019B     		ldr	r3, [sp, #4]
 127 005e 0133     		adds	r3, r3, #1
 128 0060 0193     		str	r3, [sp, #4]
 193:Drivers/STM32F4xx_StdPeriph_Driver/src/stm32f4xx_cryp_aes.c ****     }while ((counter != AESBUSY_TIMEOUT) && (busystatus != RESET));
 129              		.loc 1 193 12 is_stmt 1 discriminator 2 view .LVU35
 130              		.loc 1 193 22 is_stmt 0 discriminator 2 view .LVU36
 131 0062 019B     		ldr	r3, [sp, #4]
 132              		.loc 1 193 5 discriminator 2 view .LVU37
 133 0064 B3F5803F 		cmp	r3, #65536
 134 0068 01D0     		beq	.L6
 135              		.loc 1 193 42 discriminator 1 view .LVU38
 136 006a 0028     		cmp	r0, #0
 137 006c F3D1     		bne	.L7
 138              	.L6:
 194:Drivers/STM32F4xx_StdPeriph_Driver/src/stm32f4xx_cryp_aes.c **** 
 195:Drivers/STM32F4xx_StdPeriph_Driver/src/stm32f4xx_cryp_aes.c ****     if (busystatus != RESET)
 139              		.loc 1 195 5 is_stmt 1 view .LVU39
 140              		.loc 1 195 8 is_stmt 0 view .LVU40
 141 006e 0028     		cmp	r0, #0
 142 0070 4AD1     		bne	.L8
 196:Drivers/STM32F4xx_StdPeriph_Driver/src/stm32f4xx_cryp_aes.c ****    {
 197:Drivers/STM32F4xx_StdPeriph_Driver/src/stm32f4xx_cryp_aes.c ****        status = ERROR;
 198:Drivers/STM32F4xx_StdPeriph_Driver/src/stm32f4xx_cryp_aes.c ****     }
 199:Drivers/STM32F4xx_StdPeriph_Driver/src/stm32f4xx_cryp_aes.c ****     else
 200:Drivers/STM32F4xx_StdPeriph_Driver/src/stm32f4xx_cryp_aes.c ****     {
 201:Drivers/STM32F4xx_StdPeriph_Driver/src/stm32f4xx_cryp_aes.c ****       /* Crypto Init for decryption process */  
ARM GAS  /tmp/ccjGnpiF.s 			page 7


 202:Drivers/STM32F4xx_StdPeriph_Driver/src/stm32f4xx_cryp_aes.c ****       AES_CRYP_InitStructure.CRYP_AlgoDir = CRYP_AlgoDir_Decrypt;
 143              		.loc 1 202 7 is_stmt 1 view .LVU41
 144              		.loc 1 202 43 is_stmt 0 view .LVU42
 145 0072 0423     		movs	r3, #4
 146 0074 0A93     		str	r3, [sp, #40]
 113:Drivers/STM32F4xx_StdPeriph_Driver/src/stm32f4xx_cryp_aes.c ****   uint32_t keyaddr    = (uint32_t)Key;
 147              		.loc 1 113 15 view .LVU43
 148 0076 0126     		movs	r6, #1
 149 0078 46E0     		b	.L8
 150              	.LVL13:
 151              	.L18:
 125:Drivers/STM32F4xx_StdPeriph_Driver/src/stm32f4xx_cryp_aes.c ****     AES_CRYP_KeyInitStructure.CRYP_Key2Left = __REV(*(uint32_t*)(keyaddr));
 152              		.loc 1 125 5 is_stmt 1 view .LVU44
 125:Drivers/STM32F4xx_StdPeriph_Driver/src/stm32f4xx_cryp_aes.c ****     AES_CRYP_KeyInitStructure.CRYP_Key2Left = __REV(*(uint32_t*)(keyaddr));
 153              		.loc 1 125 41 is_stmt 0 view .LVU45
 154 007a 0023     		movs	r3, #0
 155 007c 0D93     		str	r3, [sp, #52]
 126:Drivers/STM32F4xx_StdPeriph_Driver/src/stm32f4xx_cryp_aes.c ****     keyaddr+=4;
 156              		.loc 1 126 5 is_stmt 1 view .LVU46
 126:Drivers/STM32F4xx_StdPeriph_Driver/src/stm32f4xx_cryp_aes.c ****     keyaddr+=4;
 157              		.loc 1 126 47 is_stmt 0 view .LVU47
 158 007e 2B68     		ldr	r3, [r5]
 159              	.LVL14:
 160              	.LBB230:
 161              	.LBI230:
 162              		.file 2 "Drivers/CMSIS/Include/core_cmInstr.h"
   1:Drivers/CMSIS/Include/core_cmInstr.h **** /**************************************************************************//**
   2:Drivers/CMSIS/Include/core_cmInstr.h ****  * @file     core_cmInstr.h
   3:Drivers/CMSIS/Include/core_cmInstr.h ****  * @brief    CMSIS Cortex-M Core Instruction Access Header File
   4:Drivers/CMSIS/Include/core_cmInstr.h ****  * @version  V4.10
   5:Drivers/CMSIS/Include/core_cmInstr.h ****  * @date     18. March 2015
   6:Drivers/CMSIS/Include/core_cmInstr.h ****  *
   7:Drivers/CMSIS/Include/core_cmInstr.h ****  * @note
   8:Drivers/CMSIS/Include/core_cmInstr.h ****  *
   9:Drivers/CMSIS/Include/core_cmInstr.h ****  ******************************************************************************/
  10:Drivers/CMSIS/Include/core_cmInstr.h **** /* Copyright (c) 2009 - 2014 ARM LIMITED
  11:Drivers/CMSIS/Include/core_cmInstr.h **** 
  12:Drivers/CMSIS/Include/core_cmInstr.h ****    All rights reserved.
  13:Drivers/CMSIS/Include/core_cmInstr.h ****    Redistribution and use in source and binary forms, with or without
  14:Drivers/CMSIS/Include/core_cmInstr.h ****    modification, are permitted provided that the following conditions are met:
  15:Drivers/CMSIS/Include/core_cmInstr.h ****    - Redistributions of source code must retain the above copyright
  16:Drivers/CMSIS/Include/core_cmInstr.h ****      notice, this list of conditions and the following disclaimer.
  17:Drivers/CMSIS/Include/core_cmInstr.h ****    - Redistributions in binary form must reproduce the above copyright
  18:Drivers/CMSIS/Include/core_cmInstr.h ****      notice, this list of conditions and the following disclaimer in the
  19:Drivers/CMSIS/Include/core_cmInstr.h ****      documentation and/or other materials provided with the distribution.
  20:Drivers/CMSIS/Include/core_cmInstr.h ****    - Neither the name of ARM nor the names of its contributors may be used
  21:Drivers/CMSIS/Include/core_cmInstr.h ****      to endorse or promote products derived from this software without
  22:Drivers/CMSIS/Include/core_cmInstr.h ****      specific prior written permission.
  23:Drivers/CMSIS/Include/core_cmInstr.h ****    *
  24:Drivers/CMSIS/Include/core_cmInstr.h ****    THIS SOFTWARE IS PROVIDED BY THE COPYRIGHT HOLDERS AND CONTRIBUTORS "AS IS"
  25:Drivers/CMSIS/Include/core_cmInstr.h ****    AND ANY EXPRESS OR IMPLIED WARRANTIES, INCLUDING, BUT NOT LIMITED TO, THE
  26:Drivers/CMSIS/Include/core_cmInstr.h ****    IMPLIED WARRANTIES OF MERCHANTABILITY AND FITNESS FOR A PARTICULAR PURPOSE
  27:Drivers/CMSIS/Include/core_cmInstr.h ****    ARE DISCLAIMED. IN NO EVENT SHALL COPYRIGHT HOLDERS AND CONTRIBUTORS BE
  28:Drivers/CMSIS/Include/core_cmInstr.h ****    LIABLE FOR ANY DIRECT, INDIRECT, INCIDENTAL, SPECIAL, EXEMPLARY, OR
  29:Drivers/CMSIS/Include/core_cmInstr.h ****    CONSEQUENTIAL DAMAGES (INCLUDING, BUT NOT LIMITED TO, PROCUREMENT OF
  30:Drivers/CMSIS/Include/core_cmInstr.h ****    SUBSTITUTE GOODS OR SERVICES; LOSS OF USE, DATA, OR PROFITS; OR BUSINESS
  31:Drivers/CMSIS/Include/core_cmInstr.h ****    INTERRUPTION) HOWEVER CAUSED AND ON ANY THEORY OF LIABILITY, WHETHER IN
ARM GAS  /tmp/ccjGnpiF.s 			page 8


  32:Drivers/CMSIS/Include/core_cmInstr.h ****    CONTRACT, STRICT LIABILITY, OR TORT (INCLUDING NEGLIGENCE OR OTHERWISE)
  33:Drivers/CMSIS/Include/core_cmInstr.h ****    ARISING IN ANY WAY OUT OF THE USE OF THIS SOFTWARE, EVEN IF ADVISED OF THE
  34:Drivers/CMSIS/Include/core_cmInstr.h ****    POSSIBILITY OF SUCH DAMAGE.
  35:Drivers/CMSIS/Include/core_cmInstr.h ****    ---------------------------------------------------------------------------*/
  36:Drivers/CMSIS/Include/core_cmInstr.h **** 
  37:Drivers/CMSIS/Include/core_cmInstr.h **** 
  38:Drivers/CMSIS/Include/core_cmInstr.h **** #ifndef __CORE_CMINSTR_H
  39:Drivers/CMSIS/Include/core_cmInstr.h **** #define __CORE_CMINSTR_H
  40:Drivers/CMSIS/Include/core_cmInstr.h **** 
  41:Drivers/CMSIS/Include/core_cmInstr.h **** 
  42:Drivers/CMSIS/Include/core_cmInstr.h **** /* ##########################  Core Instruction Access  ######################### */
  43:Drivers/CMSIS/Include/core_cmInstr.h **** /** \defgroup CMSIS_Core_InstructionInterface CMSIS Core Instruction Interface
  44:Drivers/CMSIS/Include/core_cmInstr.h ****   Access to dedicated instructions
  45:Drivers/CMSIS/Include/core_cmInstr.h ****   @{
  46:Drivers/CMSIS/Include/core_cmInstr.h **** */
  47:Drivers/CMSIS/Include/core_cmInstr.h **** 
  48:Drivers/CMSIS/Include/core_cmInstr.h **** #if   defined ( __CC_ARM ) /*------------------RealView Compiler -----------------*/
  49:Drivers/CMSIS/Include/core_cmInstr.h **** /* ARM armcc specific functions */
  50:Drivers/CMSIS/Include/core_cmInstr.h **** 
  51:Drivers/CMSIS/Include/core_cmInstr.h **** #if (__ARMCC_VERSION < 400677)
  52:Drivers/CMSIS/Include/core_cmInstr.h ****   #error "Please use ARM Compiler Toolchain V4.0.677 or later!"
  53:Drivers/CMSIS/Include/core_cmInstr.h **** #endif
  54:Drivers/CMSIS/Include/core_cmInstr.h **** 
  55:Drivers/CMSIS/Include/core_cmInstr.h **** 
  56:Drivers/CMSIS/Include/core_cmInstr.h **** /** \brief  No Operation
  57:Drivers/CMSIS/Include/core_cmInstr.h **** 
  58:Drivers/CMSIS/Include/core_cmInstr.h ****     No Operation does nothing. This instruction can be used for code alignment purposes.
  59:Drivers/CMSIS/Include/core_cmInstr.h ****  */
  60:Drivers/CMSIS/Include/core_cmInstr.h **** #define __NOP                             __nop
  61:Drivers/CMSIS/Include/core_cmInstr.h **** 
  62:Drivers/CMSIS/Include/core_cmInstr.h **** 
  63:Drivers/CMSIS/Include/core_cmInstr.h **** /** \brief  Wait For Interrupt
  64:Drivers/CMSIS/Include/core_cmInstr.h **** 
  65:Drivers/CMSIS/Include/core_cmInstr.h ****     Wait For Interrupt is a hint instruction that suspends execution
  66:Drivers/CMSIS/Include/core_cmInstr.h ****     until one of a number of events occurs.
  67:Drivers/CMSIS/Include/core_cmInstr.h ****  */
  68:Drivers/CMSIS/Include/core_cmInstr.h **** #define __WFI                             __wfi
  69:Drivers/CMSIS/Include/core_cmInstr.h **** 
  70:Drivers/CMSIS/Include/core_cmInstr.h **** 
  71:Drivers/CMSIS/Include/core_cmInstr.h **** /** \brief  Wait For Event
  72:Drivers/CMSIS/Include/core_cmInstr.h **** 
  73:Drivers/CMSIS/Include/core_cmInstr.h ****     Wait For Event is a hint instruction that permits the processor to enter
  74:Drivers/CMSIS/Include/core_cmInstr.h ****     a low-power state until one of a number of events occurs.
  75:Drivers/CMSIS/Include/core_cmInstr.h ****  */
  76:Drivers/CMSIS/Include/core_cmInstr.h **** #define __WFE                             __wfe
  77:Drivers/CMSIS/Include/core_cmInstr.h **** 
  78:Drivers/CMSIS/Include/core_cmInstr.h **** 
  79:Drivers/CMSIS/Include/core_cmInstr.h **** /** \brief  Send Event
  80:Drivers/CMSIS/Include/core_cmInstr.h **** 
  81:Drivers/CMSIS/Include/core_cmInstr.h ****     Send Event is a hint instruction. It causes an event to be signaled to the CPU.
  82:Drivers/CMSIS/Include/core_cmInstr.h ****  */
  83:Drivers/CMSIS/Include/core_cmInstr.h **** #define __SEV                             __sev
  84:Drivers/CMSIS/Include/core_cmInstr.h **** 
  85:Drivers/CMSIS/Include/core_cmInstr.h **** 
  86:Drivers/CMSIS/Include/core_cmInstr.h **** /** \brief  Instruction Synchronization Barrier
  87:Drivers/CMSIS/Include/core_cmInstr.h **** 
  88:Drivers/CMSIS/Include/core_cmInstr.h ****     Instruction Synchronization Barrier flushes the pipeline in the processor,
ARM GAS  /tmp/ccjGnpiF.s 			page 9


  89:Drivers/CMSIS/Include/core_cmInstr.h ****     so that all instructions following the ISB are fetched from cache or
  90:Drivers/CMSIS/Include/core_cmInstr.h ****     memory, after the instruction has been completed.
  91:Drivers/CMSIS/Include/core_cmInstr.h ****  */
  92:Drivers/CMSIS/Include/core_cmInstr.h **** #define __ISB() do {\
  93:Drivers/CMSIS/Include/core_cmInstr.h ****                    __schedule_barrier();\
  94:Drivers/CMSIS/Include/core_cmInstr.h ****                    __isb(0xF);\
  95:Drivers/CMSIS/Include/core_cmInstr.h ****                    __schedule_barrier();\
  96:Drivers/CMSIS/Include/core_cmInstr.h ****                 } while (0)
  97:Drivers/CMSIS/Include/core_cmInstr.h **** 
  98:Drivers/CMSIS/Include/core_cmInstr.h **** /** \brief  Data Synchronization Barrier
  99:Drivers/CMSIS/Include/core_cmInstr.h **** 
 100:Drivers/CMSIS/Include/core_cmInstr.h ****     This function acts as a special kind of Data Memory Barrier.
 101:Drivers/CMSIS/Include/core_cmInstr.h ****     It completes when all explicit memory accesses before this instruction complete.
 102:Drivers/CMSIS/Include/core_cmInstr.h ****  */
 103:Drivers/CMSIS/Include/core_cmInstr.h **** #define __DSB() do {\
 104:Drivers/CMSIS/Include/core_cmInstr.h ****                    __schedule_barrier();\
 105:Drivers/CMSIS/Include/core_cmInstr.h ****                    __dsb(0xF);\
 106:Drivers/CMSIS/Include/core_cmInstr.h ****                    __schedule_barrier();\
 107:Drivers/CMSIS/Include/core_cmInstr.h ****                 } while (0)
 108:Drivers/CMSIS/Include/core_cmInstr.h **** 
 109:Drivers/CMSIS/Include/core_cmInstr.h **** /** \brief  Data Memory Barrier
 110:Drivers/CMSIS/Include/core_cmInstr.h **** 
 111:Drivers/CMSIS/Include/core_cmInstr.h ****     This function ensures the apparent order of the explicit memory operations before
 112:Drivers/CMSIS/Include/core_cmInstr.h ****     and after the instruction, without ensuring their completion.
 113:Drivers/CMSIS/Include/core_cmInstr.h ****  */
 114:Drivers/CMSIS/Include/core_cmInstr.h **** #define __DMB() do {\
 115:Drivers/CMSIS/Include/core_cmInstr.h ****                    __schedule_barrier();\
 116:Drivers/CMSIS/Include/core_cmInstr.h ****                    __dmb(0xF);\
 117:Drivers/CMSIS/Include/core_cmInstr.h ****                    __schedule_barrier();\
 118:Drivers/CMSIS/Include/core_cmInstr.h ****                 } while (0)
 119:Drivers/CMSIS/Include/core_cmInstr.h **** 
 120:Drivers/CMSIS/Include/core_cmInstr.h **** /** \brief  Reverse byte order (32 bit)
 121:Drivers/CMSIS/Include/core_cmInstr.h **** 
 122:Drivers/CMSIS/Include/core_cmInstr.h ****     This function reverses the byte order in integer value.
 123:Drivers/CMSIS/Include/core_cmInstr.h **** 
 124:Drivers/CMSIS/Include/core_cmInstr.h ****     \param [in]    value  Value to reverse
 125:Drivers/CMSIS/Include/core_cmInstr.h ****     \return               Reversed value
 126:Drivers/CMSIS/Include/core_cmInstr.h ****  */
 127:Drivers/CMSIS/Include/core_cmInstr.h **** #define __REV                             __rev
 128:Drivers/CMSIS/Include/core_cmInstr.h **** 
 129:Drivers/CMSIS/Include/core_cmInstr.h **** 
 130:Drivers/CMSIS/Include/core_cmInstr.h **** /** \brief  Reverse byte order (16 bit)
 131:Drivers/CMSIS/Include/core_cmInstr.h **** 
 132:Drivers/CMSIS/Include/core_cmInstr.h ****     This function reverses the byte order in two unsigned short values.
 133:Drivers/CMSIS/Include/core_cmInstr.h **** 
 134:Drivers/CMSIS/Include/core_cmInstr.h ****     \param [in]    value  Value to reverse
 135:Drivers/CMSIS/Include/core_cmInstr.h ****     \return               Reversed value
 136:Drivers/CMSIS/Include/core_cmInstr.h ****  */
 137:Drivers/CMSIS/Include/core_cmInstr.h **** #ifndef __NO_EMBEDDED_ASM
 138:Drivers/CMSIS/Include/core_cmInstr.h **** __attribute__((section(".rev16_text"))) __STATIC_INLINE __ASM uint32_t __REV16(uint32_t value)
 139:Drivers/CMSIS/Include/core_cmInstr.h **** {
 140:Drivers/CMSIS/Include/core_cmInstr.h ****   rev16 r0, r0
 141:Drivers/CMSIS/Include/core_cmInstr.h ****   bx lr
 142:Drivers/CMSIS/Include/core_cmInstr.h **** }
 143:Drivers/CMSIS/Include/core_cmInstr.h **** #endif
 144:Drivers/CMSIS/Include/core_cmInstr.h **** 
 145:Drivers/CMSIS/Include/core_cmInstr.h **** /** \brief  Reverse byte order in signed short value
ARM GAS  /tmp/ccjGnpiF.s 			page 10


 146:Drivers/CMSIS/Include/core_cmInstr.h **** 
 147:Drivers/CMSIS/Include/core_cmInstr.h ****     This function reverses the byte order in a signed short value with sign extension to integer.
 148:Drivers/CMSIS/Include/core_cmInstr.h **** 
 149:Drivers/CMSIS/Include/core_cmInstr.h ****     \param [in]    value  Value to reverse
 150:Drivers/CMSIS/Include/core_cmInstr.h ****     \return               Reversed value
 151:Drivers/CMSIS/Include/core_cmInstr.h ****  */
 152:Drivers/CMSIS/Include/core_cmInstr.h **** #ifndef __NO_EMBEDDED_ASM
 153:Drivers/CMSIS/Include/core_cmInstr.h **** __attribute__((section(".revsh_text"))) __STATIC_INLINE __ASM int32_t __REVSH(int32_t value)
 154:Drivers/CMSIS/Include/core_cmInstr.h **** {
 155:Drivers/CMSIS/Include/core_cmInstr.h ****   revsh r0, r0
 156:Drivers/CMSIS/Include/core_cmInstr.h ****   bx lr
 157:Drivers/CMSIS/Include/core_cmInstr.h **** }
 158:Drivers/CMSIS/Include/core_cmInstr.h **** #endif
 159:Drivers/CMSIS/Include/core_cmInstr.h **** 
 160:Drivers/CMSIS/Include/core_cmInstr.h **** 
 161:Drivers/CMSIS/Include/core_cmInstr.h **** /** \brief  Rotate Right in unsigned value (32 bit)
 162:Drivers/CMSIS/Include/core_cmInstr.h **** 
 163:Drivers/CMSIS/Include/core_cmInstr.h ****     This function Rotate Right (immediate) provides the value of the contents of a register rotated
 164:Drivers/CMSIS/Include/core_cmInstr.h **** 
 165:Drivers/CMSIS/Include/core_cmInstr.h ****     \param [in]    value  Value to rotate
 166:Drivers/CMSIS/Include/core_cmInstr.h ****     \param [in]    value  Number of Bits to rotate
 167:Drivers/CMSIS/Include/core_cmInstr.h ****     \return               Rotated value
 168:Drivers/CMSIS/Include/core_cmInstr.h ****  */
 169:Drivers/CMSIS/Include/core_cmInstr.h **** #define __ROR                             __ror
 170:Drivers/CMSIS/Include/core_cmInstr.h **** 
 171:Drivers/CMSIS/Include/core_cmInstr.h **** 
 172:Drivers/CMSIS/Include/core_cmInstr.h **** /** \brief  Breakpoint
 173:Drivers/CMSIS/Include/core_cmInstr.h **** 
 174:Drivers/CMSIS/Include/core_cmInstr.h ****     This function causes the processor to enter Debug state.
 175:Drivers/CMSIS/Include/core_cmInstr.h ****     Debug tools can use this to investigate system state when the instruction at a particular addre
 176:Drivers/CMSIS/Include/core_cmInstr.h **** 
 177:Drivers/CMSIS/Include/core_cmInstr.h ****     \param [in]    value  is ignored by the processor.
 178:Drivers/CMSIS/Include/core_cmInstr.h ****                    If required, a debugger can use it to store additional information about the bre
 179:Drivers/CMSIS/Include/core_cmInstr.h ****  */
 180:Drivers/CMSIS/Include/core_cmInstr.h **** #define __BKPT(value)                       __breakpoint(value)
 181:Drivers/CMSIS/Include/core_cmInstr.h **** 
 182:Drivers/CMSIS/Include/core_cmInstr.h **** 
 183:Drivers/CMSIS/Include/core_cmInstr.h **** /** \brief  Reverse bit order of value
 184:Drivers/CMSIS/Include/core_cmInstr.h **** 
 185:Drivers/CMSIS/Include/core_cmInstr.h ****     This function reverses the bit order of the given value.
 186:Drivers/CMSIS/Include/core_cmInstr.h **** 
 187:Drivers/CMSIS/Include/core_cmInstr.h ****     \param [in]    value  Value to reverse
 188:Drivers/CMSIS/Include/core_cmInstr.h ****     \return               Reversed value
 189:Drivers/CMSIS/Include/core_cmInstr.h ****  */
 190:Drivers/CMSIS/Include/core_cmInstr.h **** #if       (__CORTEX_M >= 0x03) || (__CORTEX_SC >= 300)
 191:Drivers/CMSIS/Include/core_cmInstr.h ****   #define __RBIT                          __rbit
 192:Drivers/CMSIS/Include/core_cmInstr.h **** #else
 193:Drivers/CMSIS/Include/core_cmInstr.h **** __attribute__((always_inline)) __STATIC_INLINE uint32_t __RBIT(uint32_t value)
 194:Drivers/CMSIS/Include/core_cmInstr.h **** {
 195:Drivers/CMSIS/Include/core_cmInstr.h ****   uint32_t result;
 196:Drivers/CMSIS/Include/core_cmInstr.h ****   int32_t s = 4 /*sizeof(v)*/ * 8 - 1; // extra shift needed at end
 197:Drivers/CMSIS/Include/core_cmInstr.h **** 
 198:Drivers/CMSIS/Include/core_cmInstr.h ****   result = value;                      // r will be reversed bits of v; first get LSB of v
 199:Drivers/CMSIS/Include/core_cmInstr.h ****   for (value >>= 1; value; value >>= 1)
 200:Drivers/CMSIS/Include/core_cmInstr.h ****   {
 201:Drivers/CMSIS/Include/core_cmInstr.h ****     result <<= 1;
 202:Drivers/CMSIS/Include/core_cmInstr.h ****     result |= value & 1;
ARM GAS  /tmp/ccjGnpiF.s 			page 11


 203:Drivers/CMSIS/Include/core_cmInstr.h ****     s--;
 204:Drivers/CMSIS/Include/core_cmInstr.h ****   }
 205:Drivers/CMSIS/Include/core_cmInstr.h ****   result <<= s;                       // shift when v's highest bits are zero
 206:Drivers/CMSIS/Include/core_cmInstr.h ****   return(result);
 207:Drivers/CMSIS/Include/core_cmInstr.h **** }
 208:Drivers/CMSIS/Include/core_cmInstr.h **** #endif
 209:Drivers/CMSIS/Include/core_cmInstr.h **** 
 210:Drivers/CMSIS/Include/core_cmInstr.h **** 
 211:Drivers/CMSIS/Include/core_cmInstr.h **** /** \brief  Count leading zeros
 212:Drivers/CMSIS/Include/core_cmInstr.h **** 
 213:Drivers/CMSIS/Include/core_cmInstr.h ****     This function counts the number of leading zeros of a data value.
 214:Drivers/CMSIS/Include/core_cmInstr.h **** 
 215:Drivers/CMSIS/Include/core_cmInstr.h ****     \param [in]  value  Value to count the leading zeros
 216:Drivers/CMSIS/Include/core_cmInstr.h ****     \return             number of leading zeros in value
 217:Drivers/CMSIS/Include/core_cmInstr.h ****  */
 218:Drivers/CMSIS/Include/core_cmInstr.h **** #define __CLZ                             __clz
 219:Drivers/CMSIS/Include/core_cmInstr.h **** 
 220:Drivers/CMSIS/Include/core_cmInstr.h **** 
 221:Drivers/CMSIS/Include/core_cmInstr.h **** #if       (__CORTEX_M >= 0x03) || (__CORTEX_SC >= 300)
 222:Drivers/CMSIS/Include/core_cmInstr.h **** 
 223:Drivers/CMSIS/Include/core_cmInstr.h **** /** \brief  LDR Exclusive (8 bit)
 224:Drivers/CMSIS/Include/core_cmInstr.h **** 
 225:Drivers/CMSIS/Include/core_cmInstr.h ****     This function executes a exclusive LDR instruction for 8 bit value.
 226:Drivers/CMSIS/Include/core_cmInstr.h **** 
 227:Drivers/CMSIS/Include/core_cmInstr.h ****     \param [in]    ptr  Pointer to data
 228:Drivers/CMSIS/Include/core_cmInstr.h ****     \return             value of type uint8_t at (*ptr)
 229:Drivers/CMSIS/Include/core_cmInstr.h ****  */
 230:Drivers/CMSIS/Include/core_cmInstr.h **** #define __LDREXB(ptr)                     ((uint8_t ) __ldrex(ptr))
 231:Drivers/CMSIS/Include/core_cmInstr.h **** 
 232:Drivers/CMSIS/Include/core_cmInstr.h **** 
 233:Drivers/CMSIS/Include/core_cmInstr.h **** /** \brief  LDR Exclusive (16 bit)
 234:Drivers/CMSIS/Include/core_cmInstr.h **** 
 235:Drivers/CMSIS/Include/core_cmInstr.h ****     This function executes a exclusive LDR instruction for 16 bit values.
 236:Drivers/CMSIS/Include/core_cmInstr.h **** 
 237:Drivers/CMSIS/Include/core_cmInstr.h ****     \param [in]    ptr  Pointer to data
 238:Drivers/CMSIS/Include/core_cmInstr.h ****     \return        value of type uint16_t at (*ptr)
 239:Drivers/CMSIS/Include/core_cmInstr.h ****  */
 240:Drivers/CMSIS/Include/core_cmInstr.h **** #define __LDREXH(ptr)                     ((uint16_t) __ldrex(ptr))
 241:Drivers/CMSIS/Include/core_cmInstr.h **** 
 242:Drivers/CMSIS/Include/core_cmInstr.h **** 
 243:Drivers/CMSIS/Include/core_cmInstr.h **** /** \brief  LDR Exclusive (32 bit)
 244:Drivers/CMSIS/Include/core_cmInstr.h **** 
 245:Drivers/CMSIS/Include/core_cmInstr.h ****     This function executes a exclusive LDR instruction for 32 bit values.
 246:Drivers/CMSIS/Include/core_cmInstr.h **** 
 247:Drivers/CMSIS/Include/core_cmInstr.h ****     \param [in]    ptr  Pointer to data
 248:Drivers/CMSIS/Include/core_cmInstr.h ****     \return        value of type uint32_t at (*ptr)
 249:Drivers/CMSIS/Include/core_cmInstr.h ****  */
 250:Drivers/CMSIS/Include/core_cmInstr.h **** #define __LDREXW(ptr)                     ((uint32_t ) __ldrex(ptr))
 251:Drivers/CMSIS/Include/core_cmInstr.h **** 
 252:Drivers/CMSIS/Include/core_cmInstr.h **** 
 253:Drivers/CMSIS/Include/core_cmInstr.h **** /** \brief  STR Exclusive (8 bit)
 254:Drivers/CMSIS/Include/core_cmInstr.h **** 
 255:Drivers/CMSIS/Include/core_cmInstr.h ****     This function executes a exclusive STR instruction for 8 bit values.
 256:Drivers/CMSIS/Include/core_cmInstr.h **** 
 257:Drivers/CMSIS/Include/core_cmInstr.h ****     \param [in]  value  Value to store
 258:Drivers/CMSIS/Include/core_cmInstr.h ****     \param [in]    ptr  Pointer to location
 259:Drivers/CMSIS/Include/core_cmInstr.h ****     \return          0  Function succeeded
ARM GAS  /tmp/ccjGnpiF.s 			page 12


 260:Drivers/CMSIS/Include/core_cmInstr.h ****     \return          1  Function failed
 261:Drivers/CMSIS/Include/core_cmInstr.h ****  */
 262:Drivers/CMSIS/Include/core_cmInstr.h **** #define __STREXB(value, ptr)              __strex(value, ptr)
 263:Drivers/CMSIS/Include/core_cmInstr.h **** 
 264:Drivers/CMSIS/Include/core_cmInstr.h **** 
 265:Drivers/CMSIS/Include/core_cmInstr.h **** /** \brief  STR Exclusive (16 bit)
 266:Drivers/CMSIS/Include/core_cmInstr.h **** 
 267:Drivers/CMSIS/Include/core_cmInstr.h ****     This function executes a exclusive STR instruction for 16 bit values.
 268:Drivers/CMSIS/Include/core_cmInstr.h **** 
 269:Drivers/CMSIS/Include/core_cmInstr.h ****     \param [in]  value  Value to store
 270:Drivers/CMSIS/Include/core_cmInstr.h ****     \param [in]    ptr  Pointer to location
 271:Drivers/CMSIS/Include/core_cmInstr.h ****     \return          0  Function succeeded
 272:Drivers/CMSIS/Include/core_cmInstr.h ****     \return          1  Function failed
 273:Drivers/CMSIS/Include/core_cmInstr.h ****  */
 274:Drivers/CMSIS/Include/core_cmInstr.h **** #define __STREXH(value, ptr)              __strex(value, ptr)
 275:Drivers/CMSIS/Include/core_cmInstr.h **** 
 276:Drivers/CMSIS/Include/core_cmInstr.h **** 
 277:Drivers/CMSIS/Include/core_cmInstr.h **** /** \brief  STR Exclusive (32 bit)
 278:Drivers/CMSIS/Include/core_cmInstr.h **** 
 279:Drivers/CMSIS/Include/core_cmInstr.h ****     This function executes a exclusive STR instruction for 32 bit values.
 280:Drivers/CMSIS/Include/core_cmInstr.h **** 
 281:Drivers/CMSIS/Include/core_cmInstr.h ****     \param [in]  value  Value to store
 282:Drivers/CMSIS/Include/core_cmInstr.h ****     \param [in]    ptr  Pointer to location
 283:Drivers/CMSIS/Include/core_cmInstr.h ****     \return          0  Function succeeded
 284:Drivers/CMSIS/Include/core_cmInstr.h ****     \return          1  Function failed
 285:Drivers/CMSIS/Include/core_cmInstr.h ****  */
 286:Drivers/CMSIS/Include/core_cmInstr.h **** #define __STREXW(value, ptr)              __strex(value, ptr)
 287:Drivers/CMSIS/Include/core_cmInstr.h **** 
 288:Drivers/CMSIS/Include/core_cmInstr.h **** 
 289:Drivers/CMSIS/Include/core_cmInstr.h **** /** \brief  Remove the exclusive lock
 290:Drivers/CMSIS/Include/core_cmInstr.h **** 
 291:Drivers/CMSIS/Include/core_cmInstr.h ****     This function removes the exclusive lock which is created by LDREX.
 292:Drivers/CMSIS/Include/core_cmInstr.h **** 
 293:Drivers/CMSIS/Include/core_cmInstr.h ****  */
 294:Drivers/CMSIS/Include/core_cmInstr.h **** #define __CLREX                           __clrex
 295:Drivers/CMSIS/Include/core_cmInstr.h **** 
 296:Drivers/CMSIS/Include/core_cmInstr.h **** 
 297:Drivers/CMSIS/Include/core_cmInstr.h **** /** \brief  Signed Saturate
 298:Drivers/CMSIS/Include/core_cmInstr.h **** 
 299:Drivers/CMSIS/Include/core_cmInstr.h ****     This function saturates a signed value.
 300:Drivers/CMSIS/Include/core_cmInstr.h **** 
 301:Drivers/CMSIS/Include/core_cmInstr.h ****     \param [in]  value  Value to be saturated
 302:Drivers/CMSIS/Include/core_cmInstr.h ****     \param [in]    sat  Bit position to saturate to (1..32)
 303:Drivers/CMSIS/Include/core_cmInstr.h ****     \return             Saturated value
 304:Drivers/CMSIS/Include/core_cmInstr.h ****  */
 305:Drivers/CMSIS/Include/core_cmInstr.h **** #define __SSAT                            __ssat
 306:Drivers/CMSIS/Include/core_cmInstr.h **** 
 307:Drivers/CMSIS/Include/core_cmInstr.h **** 
 308:Drivers/CMSIS/Include/core_cmInstr.h **** /** \brief  Unsigned Saturate
 309:Drivers/CMSIS/Include/core_cmInstr.h **** 
 310:Drivers/CMSIS/Include/core_cmInstr.h ****     This function saturates an unsigned value.
 311:Drivers/CMSIS/Include/core_cmInstr.h **** 
 312:Drivers/CMSIS/Include/core_cmInstr.h ****     \param [in]  value  Value to be saturated
 313:Drivers/CMSIS/Include/core_cmInstr.h ****     \param [in]    sat  Bit position to saturate to (0..31)
 314:Drivers/CMSIS/Include/core_cmInstr.h ****     \return             Saturated value
 315:Drivers/CMSIS/Include/core_cmInstr.h ****  */
 316:Drivers/CMSIS/Include/core_cmInstr.h **** #define __USAT                            __usat
ARM GAS  /tmp/ccjGnpiF.s 			page 13


 317:Drivers/CMSIS/Include/core_cmInstr.h **** 
 318:Drivers/CMSIS/Include/core_cmInstr.h **** 
 319:Drivers/CMSIS/Include/core_cmInstr.h **** /** \brief  Rotate Right with Extend (32 bit)
 320:Drivers/CMSIS/Include/core_cmInstr.h **** 
 321:Drivers/CMSIS/Include/core_cmInstr.h ****     This function moves each bit of a bitstring right by one bit.
 322:Drivers/CMSIS/Include/core_cmInstr.h ****     The carry input is shifted in at the left end of the bitstring.
 323:Drivers/CMSIS/Include/core_cmInstr.h **** 
 324:Drivers/CMSIS/Include/core_cmInstr.h ****     \param [in]    value  Value to rotate
 325:Drivers/CMSIS/Include/core_cmInstr.h ****     \return               Rotated value
 326:Drivers/CMSIS/Include/core_cmInstr.h ****  */
 327:Drivers/CMSIS/Include/core_cmInstr.h **** #ifndef __NO_EMBEDDED_ASM
 328:Drivers/CMSIS/Include/core_cmInstr.h **** __attribute__((section(".rrx_text"))) __STATIC_INLINE __ASM uint32_t __RRX(uint32_t value)
 329:Drivers/CMSIS/Include/core_cmInstr.h **** {
 330:Drivers/CMSIS/Include/core_cmInstr.h ****   rrx r0, r0
 331:Drivers/CMSIS/Include/core_cmInstr.h ****   bx lr
 332:Drivers/CMSIS/Include/core_cmInstr.h **** }
 333:Drivers/CMSIS/Include/core_cmInstr.h **** #endif
 334:Drivers/CMSIS/Include/core_cmInstr.h **** 
 335:Drivers/CMSIS/Include/core_cmInstr.h **** 
 336:Drivers/CMSIS/Include/core_cmInstr.h **** /** \brief  LDRT Unprivileged (8 bit)
 337:Drivers/CMSIS/Include/core_cmInstr.h **** 
 338:Drivers/CMSIS/Include/core_cmInstr.h ****     This function executes a Unprivileged LDRT instruction for 8 bit value.
 339:Drivers/CMSIS/Include/core_cmInstr.h **** 
 340:Drivers/CMSIS/Include/core_cmInstr.h ****     \param [in]    ptr  Pointer to data
 341:Drivers/CMSIS/Include/core_cmInstr.h ****     \return             value of type uint8_t at (*ptr)
 342:Drivers/CMSIS/Include/core_cmInstr.h ****  */
 343:Drivers/CMSIS/Include/core_cmInstr.h **** #define __LDRBT(ptr)                      ((uint8_t )  __ldrt(ptr))
 344:Drivers/CMSIS/Include/core_cmInstr.h **** 
 345:Drivers/CMSIS/Include/core_cmInstr.h **** 
 346:Drivers/CMSIS/Include/core_cmInstr.h **** /** \brief  LDRT Unprivileged (16 bit)
 347:Drivers/CMSIS/Include/core_cmInstr.h **** 
 348:Drivers/CMSIS/Include/core_cmInstr.h ****     This function executes a Unprivileged LDRT instruction for 16 bit values.
 349:Drivers/CMSIS/Include/core_cmInstr.h **** 
 350:Drivers/CMSIS/Include/core_cmInstr.h ****     \param [in]    ptr  Pointer to data
 351:Drivers/CMSIS/Include/core_cmInstr.h ****     \return        value of type uint16_t at (*ptr)
 352:Drivers/CMSIS/Include/core_cmInstr.h ****  */
 353:Drivers/CMSIS/Include/core_cmInstr.h **** #define __LDRHT(ptr)                      ((uint16_t)  __ldrt(ptr))
 354:Drivers/CMSIS/Include/core_cmInstr.h **** 
 355:Drivers/CMSIS/Include/core_cmInstr.h **** 
 356:Drivers/CMSIS/Include/core_cmInstr.h **** /** \brief  LDRT Unprivileged (32 bit)
 357:Drivers/CMSIS/Include/core_cmInstr.h **** 
 358:Drivers/CMSIS/Include/core_cmInstr.h ****     This function executes a Unprivileged LDRT instruction for 32 bit values.
 359:Drivers/CMSIS/Include/core_cmInstr.h **** 
 360:Drivers/CMSIS/Include/core_cmInstr.h ****     \param [in]    ptr  Pointer to data
 361:Drivers/CMSIS/Include/core_cmInstr.h ****     \return        value of type uint32_t at (*ptr)
 362:Drivers/CMSIS/Include/core_cmInstr.h ****  */
 363:Drivers/CMSIS/Include/core_cmInstr.h **** #define __LDRT(ptr)                       ((uint32_t ) __ldrt(ptr))
 364:Drivers/CMSIS/Include/core_cmInstr.h **** 
 365:Drivers/CMSIS/Include/core_cmInstr.h **** 
 366:Drivers/CMSIS/Include/core_cmInstr.h **** /** \brief  STRT Unprivileged (8 bit)
 367:Drivers/CMSIS/Include/core_cmInstr.h **** 
 368:Drivers/CMSIS/Include/core_cmInstr.h ****     This function executes a Unprivileged STRT instruction for 8 bit values.
 369:Drivers/CMSIS/Include/core_cmInstr.h **** 
 370:Drivers/CMSIS/Include/core_cmInstr.h ****     \param [in]  value  Value to store
 371:Drivers/CMSIS/Include/core_cmInstr.h ****     \param [in]    ptr  Pointer to location
 372:Drivers/CMSIS/Include/core_cmInstr.h ****  */
 373:Drivers/CMSIS/Include/core_cmInstr.h **** #define __STRBT(value, ptr)               __strt(value, ptr)
ARM GAS  /tmp/ccjGnpiF.s 			page 14


 374:Drivers/CMSIS/Include/core_cmInstr.h **** 
 375:Drivers/CMSIS/Include/core_cmInstr.h **** 
 376:Drivers/CMSIS/Include/core_cmInstr.h **** /** \brief  STRT Unprivileged (16 bit)
 377:Drivers/CMSIS/Include/core_cmInstr.h **** 
 378:Drivers/CMSIS/Include/core_cmInstr.h ****     This function executes a Unprivileged STRT instruction for 16 bit values.
 379:Drivers/CMSIS/Include/core_cmInstr.h **** 
 380:Drivers/CMSIS/Include/core_cmInstr.h ****     \param [in]  value  Value to store
 381:Drivers/CMSIS/Include/core_cmInstr.h ****     \param [in]    ptr  Pointer to location
 382:Drivers/CMSIS/Include/core_cmInstr.h ****  */
 383:Drivers/CMSIS/Include/core_cmInstr.h **** #define __STRHT(value, ptr)               __strt(value, ptr)
 384:Drivers/CMSIS/Include/core_cmInstr.h **** 
 385:Drivers/CMSIS/Include/core_cmInstr.h **** 
 386:Drivers/CMSIS/Include/core_cmInstr.h **** /** \brief  STRT Unprivileged (32 bit)
 387:Drivers/CMSIS/Include/core_cmInstr.h **** 
 388:Drivers/CMSIS/Include/core_cmInstr.h ****     This function executes a Unprivileged STRT instruction for 32 bit values.
 389:Drivers/CMSIS/Include/core_cmInstr.h **** 
 390:Drivers/CMSIS/Include/core_cmInstr.h ****     \param [in]  value  Value to store
 391:Drivers/CMSIS/Include/core_cmInstr.h ****     \param [in]    ptr  Pointer to location
 392:Drivers/CMSIS/Include/core_cmInstr.h ****  */
 393:Drivers/CMSIS/Include/core_cmInstr.h **** #define __STRT(value, ptr)                __strt(value, ptr)
 394:Drivers/CMSIS/Include/core_cmInstr.h **** 
 395:Drivers/CMSIS/Include/core_cmInstr.h **** #endif /* (__CORTEX_M >= 0x03) || (__CORTEX_SC >= 300) */
 396:Drivers/CMSIS/Include/core_cmInstr.h **** 
 397:Drivers/CMSIS/Include/core_cmInstr.h **** 
 398:Drivers/CMSIS/Include/core_cmInstr.h **** #elif defined ( __GNUC__ ) /*------------------ GNU Compiler ---------------------*/
 399:Drivers/CMSIS/Include/core_cmInstr.h **** /* GNU gcc specific functions */
 400:Drivers/CMSIS/Include/core_cmInstr.h **** 
 401:Drivers/CMSIS/Include/core_cmInstr.h **** /* Define macros for porting to both thumb1 and thumb2.
 402:Drivers/CMSIS/Include/core_cmInstr.h ****  * For thumb1, use low register (r0-r7), specified by constrant "l"
 403:Drivers/CMSIS/Include/core_cmInstr.h ****  * Otherwise, use general registers, specified by constrant "r" */
 404:Drivers/CMSIS/Include/core_cmInstr.h **** #if defined (__thumb__) && !defined (__thumb2__)
 405:Drivers/CMSIS/Include/core_cmInstr.h **** #define __CMSIS_GCC_OUT_REG(r) "=l" (r)
 406:Drivers/CMSIS/Include/core_cmInstr.h **** #define __CMSIS_GCC_USE_REG(r) "l" (r)
 407:Drivers/CMSIS/Include/core_cmInstr.h **** #else
 408:Drivers/CMSIS/Include/core_cmInstr.h **** #define __CMSIS_GCC_OUT_REG(r) "=r" (r)
 409:Drivers/CMSIS/Include/core_cmInstr.h **** #define __CMSIS_GCC_USE_REG(r) "r" (r)
 410:Drivers/CMSIS/Include/core_cmInstr.h **** #endif
 411:Drivers/CMSIS/Include/core_cmInstr.h **** 
 412:Drivers/CMSIS/Include/core_cmInstr.h **** /** \brief  No Operation
 413:Drivers/CMSIS/Include/core_cmInstr.h **** 
 414:Drivers/CMSIS/Include/core_cmInstr.h ****     No Operation does nothing. This instruction can be used for code alignment purposes.
 415:Drivers/CMSIS/Include/core_cmInstr.h ****  */
 416:Drivers/CMSIS/Include/core_cmInstr.h **** __attribute__((always_inline)) __STATIC_INLINE void __NOP(void)
 417:Drivers/CMSIS/Include/core_cmInstr.h **** {
 418:Drivers/CMSIS/Include/core_cmInstr.h ****   __ASM volatile ("nop");
 419:Drivers/CMSIS/Include/core_cmInstr.h **** }
 420:Drivers/CMSIS/Include/core_cmInstr.h **** 
 421:Drivers/CMSIS/Include/core_cmInstr.h **** 
 422:Drivers/CMSIS/Include/core_cmInstr.h **** /** \brief  Wait For Interrupt
 423:Drivers/CMSIS/Include/core_cmInstr.h **** 
 424:Drivers/CMSIS/Include/core_cmInstr.h ****     Wait For Interrupt is a hint instruction that suspends execution
 425:Drivers/CMSIS/Include/core_cmInstr.h ****     until one of a number of events occurs.
 426:Drivers/CMSIS/Include/core_cmInstr.h ****  */
 427:Drivers/CMSIS/Include/core_cmInstr.h **** __attribute__((always_inline)) __STATIC_INLINE void __WFI(void)
 428:Drivers/CMSIS/Include/core_cmInstr.h **** {
 429:Drivers/CMSIS/Include/core_cmInstr.h ****   __ASM volatile ("wfi");
 430:Drivers/CMSIS/Include/core_cmInstr.h **** }
ARM GAS  /tmp/ccjGnpiF.s 			page 15


 431:Drivers/CMSIS/Include/core_cmInstr.h **** 
 432:Drivers/CMSIS/Include/core_cmInstr.h **** 
 433:Drivers/CMSIS/Include/core_cmInstr.h **** /** \brief  Wait For Event
 434:Drivers/CMSIS/Include/core_cmInstr.h **** 
 435:Drivers/CMSIS/Include/core_cmInstr.h ****     Wait For Event is a hint instruction that permits the processor to enter
 436:Drivers/CMSIS/Include/core_cmInstr.h ****     a low-power state until one of a number of events occurs.
 437:Drivers/CMSIS/Include/core_cmInstr.h ****  */
 438:Drivers/CMSIS/Include/core_cmInstr.h **** __attribute__((always_inline)) __STATIC_INLINE void __WFE(void)
 439:Drivers/CMSIS/Include/core_cmInstr.h **** {
 440:Drivers/CMSIS/Include/core_cmInstr.h ****   __ASM volatile ("wfe");
 441:Drivers/CMSIS/Include/core_cmInstr.h **** }
 442:Drivers/CMSIS/Include/core_cmInstr.h **** 
 443:Drivers/CMSIS/Include/core_cmInstr.h **** 
 444:Drivers/CMSIS/Include/core_cmInstr.h **** /** \brief  Send Event
 445:Drivers/CMSIS/Include/core_cmInstr.h **** 
 446:Drivers/CMSIS/Include/core_cmInstr.h ****     Send Event is a hint instruction. It causes an event to be signaled to the CPU.
 447:Drivers/CMSIS/Include/core_cmInstr.h ****  */
 448:Drivers/CMSIS/Include/core_cmInstr.h **** __attribute__((always_inline)) __STATIC_INLINE void __SEV(void)
 449:Drivers/CMSIS/Include/core_cmInstr.h **** {
 450:Drivers/CMSIS/Include/core_cmInstr.h ****   __ASM volatile ("sev");
 451:Drivers/CMSIS/Include/core_cmInstr.h **** }
 452:Drivers/CMSIS/Include/core_cmInstr.h **** 
 453:Drivers/CMSIS/Include/core_cmInstr.h **** 
 454:Drivers/CMSIS/Include/core_cmInstr.h **** /** \brief  Instruction Synchronization Barrier
 455:Drivers/CMSIS/Include/core_cmInstr.h **** 
 456:Drivers/CMSIS/Include/core_cmInstr.h ****     Instruction Synchronization Barrier flushes the pipeline in the processor,
 457:Drivers/CMSIS/Include/core_cmInstr.h ****     so that all instructions following the ISB are fetched from cache or
 458:Drivers/CMSIS/Include/core_cmInstr.h ****     memory, after the instruction has been completed.
 459:Drivers/CMSIS/Include/core_cmInstr.h ****  */
 460:Drivers/CMSIS/Include/core_cmInstr.h **** __attribute__((always_inline)) __STATIC_INLINE void __ISB(void)
 461:Drivers/CMSIS/Include/core_cmInstr.h **** {
 462:Drivers/CMSIS/Include/core_cmInstr.h ****   __ASM volatile ("isb 0xF":::"memory");
 463:Drivers/CMSIS/Include/core_cmInstr.h **** }
 464:Drivers/CMSIS/Include/core_cmInstr.h **** 
 465:Drivers/CMSIS/Include/core_cmInstr.h **** 
 466:Drivers/CMSIS/Include/core_cmInstr.h **** /** \brief  Data Synchronization Barrier
 467:Drivers/CMSIS/Include/core_cmInstr.h **** 
 468:Drivers/CMSIS/Include/core_cmInstr.h ****     This function acts as a special kind of Data Memory Barrier.
 469:Drivers/CMSIS/Include/core_cmInstr.h ****     It completes when all explicit memory accesses before this instruction complete.
 470:Drivers/CMSIS/Include/core_cmInstr.h ****  */
 471:Drivers/CMSIS/Include/core_cmInstr.h **** __attribute__((always_inline)) __STATIC_INLINE void __DSB(void)
 472:Drivers/CMSIS/Include/core_cmInstr.h **** {
 473:Drivers/CMSIS/Include/core_cmInstr.h ****   __ASM volatile ("dsb 0xF":::"memory");
 474:Drivers/CMSIS/Include/core_cmInstr.h **** }
 475:Drivers/CMSIS/Include/core_cmInstr.h **** 
 476:Drivers/CMSIS/Include/core_cmInstr.h **** 
 477:Drivers/CMSIS/Include/core_cmInstr.h **** /** \brief  Data Memory Barrier
 478:Drivers/CMSIS/Include/core_cmInstr.h **** 
 479:Drivers/CMSIS/Include/core_cmInstr.h ****     This function ensures the apparent order of the explicit memory operations before
 480:Drivers/CMSIS/Include/core_cmInstr.h ****     and after the instruction, without ensuring their completion.
 481:Drivers/CMSIS/Include/core_cmInstr.h ****  */
 482:Drivers/CMSIS/Include/core_cmInstr.h **** __attribute__((always_inline)) __STATIC_INLINE void __DMB(void)
 483:Drivers/CMSIS/Include/core_cmInstr.h **** {
 484:Drivers/CMSIS/Include/core_cmInstr.h ****   __ASM volatile ("dmb 0xF":::"memory");
 485:Drivers/CMSIS/Include/core_cmInstr.h **** }
 486:Drivers/CMSIS/Include/core_cmInstr.h **** 
 487:Drivers/CMSIS/Include/core_cmInstr.h **** 
ARM GAS  /tmp/ccjGnpiF.s 			page 16


 488:Drivers/CMSIS/Include/core_cmInstr.h **** /** \brief  Reverse byte order (32 bit)
 489:Drivers/CMSIS/Include/core_cmInstr.h **** 
 490:Drivers/CMSIS/Include/core_cmInstr.h ****     This function reverses the byte order in integer value.
 491:Drivers/CMSIS/Include/core_cmInstr.h **** 
 492:Drivers/CMSIS/Include/core_cmInstr.h ****     \param [in]    value  Value to reverse
 493:Drivers/CMSIS/Include/core_cmInstr.h ****     \return               Reversed value
 494:Drivers/CMSIS/Include/core_cmInstr.h ****  */
 495:Drivers/CMSIS/Include/core_cmInstr.h **** __attribute__((always_inline)) __STATIC_INLINE uint32_t __REV(uint32_t value)
 163              		.loc 2 495 57 is_stmt 1 view .LVU48
 164              	.LBB231:
 496:Drivers/CMSIS/Include/core_cmInstr.h **** {
 497:Drivers/CMSIS/Include/core_cmInstr.h **** #if (__GNUC__ > 4) || (__GNUC__ == 4 && __GNUC_MINOR__ >= 5)
 498:Drivers/CMSIS/Include/core_cmInstr.h ****   return __builtin_bswap32(value);
 165              		.loc 2 498 3 view .LVU49
 166              		.loc 2 498 10 is_stmt 0 view .LVU50
 167 0080 1BBA     		rev	r3, r3
 168              	.LVL15:
 169              		.loc 2 498 10 view .LVU51
 170              	.LBE231:
 171              	.LBE230:
 126:Drivers/STM32F4xx_StdPeriph_Driver/src/stm32f4xx_cryp_aes.c ****     keyaddr+=4;
 172              		.loc 1 126 45 view .LVU52
 173 0082 0693     		str	r3, [sp, #24]
 127:Drivers/STM32F4xx_StdPeriph_Driver/src/stm32f4xx_cryp_aes.c ****     AES_CRYP_KeyInitStructure.CRYP_Key2Right= __REV(*(uint32_t*)(keyaddr));
 174              		.loc 1 127 5 is_stmt 1 view .LVU53
 175              	.LVL16:
 128:Drivers/STM32F4xx_StdPeriph_Driver/src/stm32f4xx_cryp_aes.c ****     keyaddr+=4;
 176              		.loc 1 128 5 view .LVU54
 128:Drivers/STM32F4xx_StdPeriph_Driver/src/stm32f4xx_cryp_aes.c ****     keyaddr+=4;
 177              		.loc 1 128 47 is_stmt 0 view .LVU55
 178 0084 6B68     		ldr	r3, [r5, #4]
 179              	.LVL17:
 180              	.LBB232:
 181              	.LBI232:
 495:Drivers/CMSIS/Include/core_cmInstr.h **** {
 182              		.loc 2 495 57 is_stmt 1 view .LVU56
 183              	.LBB233:
 184              		.loc 2 498 3 view .LVU57
 185              		.loc 2 498 10 is_stmt 0 view .LVU58
 186 0086 1BBA     		rev	r3, r3
 187              	.LVL18:
 188              		.loc 2 498 10 view .LVU59
 189              	.LBE233:
 190              	.LBE232:
 128:Drivers/STM32F4xx_StdPeriph_Driver/src/stm32f4xx_cryp_aes.c ****     keyaddr+=4;
 191              		.loc 1 128 45 view .LVU60
 192 0088 0793     		str	r3, [sp, #28]
 129:Drivers/STM32F4xx_StdPeriph_Driver/src/stm32f4xx_cryp_aes.c ****     AES_CRYP_KeyInitStructure.CRYP_Key3Left = __REV(*(uint32_t*)(keyaddr));
 193              		.loc 1 129 5 is_stmt 1 view .LVU61
 194              	.LVL19:
 130:Drivers/STM32F4xx_StdPeriph_Driver/src/stm32f4xx_cryp_aes.c ****     keyaddr+=4;
 195              		.loc 1 130 5 view .LVU62
 130:Drivers/STM32F4xx_StdPeriph_Driver/src/stm32f4xx_cryp_aes.c ****     keyaddr+=4;
 196              		.loc 1 130 47 is_stmt 0 view .LVU63
 197 008a AB68     		ldr	r3, [r5, #8]
 198              	.LVL20:
 199              	.LBB234:
ARM GAS  /tmp/ccjGnpiF.s 			page 17


 200              	.LBI234:
 495:Drivers/CMSIS/Include/core_cmInstr.h **** {
 201              		.loc 2 495 57 is_stmt 1 view .LVU64
 202              	.LBB235:
 203              		.loc 2 498 3 view .LVU65
 204              		.loc 2 498 10 is_stmt 0 view .LVU66
 205 008c 1BBA     		rev	r3, r3
 206              	.LVL21:
 207              		.loc 2 498 10 view .LVU67
 208              	.LBE235:
 209              	.LBE234:
 130:Drivers/STM32F4xx_StdPeriph_Driver/src/stm32f4xx_cryp_aes.c ****     keyaddr+=4;
 210              		.loc 1 130 45 view .LVU68
 211 008e 0893     		str	r3, [sp, #32]
 131:Drivers/STM32F4xx_StdPeriph_Driver/src/stm32f4xx_cryp_aes.c ****     AES_CRYP_KeyInitStructure.CRYP_Key3Right= __REV(*(uint32_t*)(keyaddr));
 212              		.loc 1 131 5 is_stmt 1 view .LVU69
 213              	.LVL22:
 132:Drivers/STM32F4xx_StdPeriph_Driver/src/stm32f4xx_cryp_aes.c ****     break;
 214              		.loc 1 132 5 view .LVU70
 132:Drivers/STM32F4xx_StdPeriph_Driver/src/stm32f4xx_cryp_aes.c ****     break;
 215              		.loc 1 132 47 is_stmt 0 view .LVU71
 216 0090 EB68     		ldr	r3, [r5, #12]
 217              	.LVL23:
 218              	.LBB236:
 219              	.LBI236:
 495:Drivers/CMSIS/Include/core_cmInstr.h **** {
 220              		.loc 2 495 57 is_stmt 1 view .LVU72
 221              	.LBB237:
 222              		.loc 2 498 3 view .LVU73
 223              		.loc 2 498 10 is_stmt 0 view .LVU74
 224 0092 1BBA     		rev	r3, r3
 225              	.LVL24:
 226              		.loc 2 498 10 view .LVU75
 227              	.LBE237:
 228              	.LBE236:
 132:Drivers/STM32F4xx_StdPeriph_Driver/src/stm32f4xx_cryp_aes.c ****     break;
 229              		.loc 1 132 45 view .LVU76
 230 0094 0993     		str	r3, [sp, #36]
 133:Drivers/STM32F4xx_StdPeriph_Driver/src/stm32f4xx_cryp_aes.c ****     case 192:
 231              		.loc 1 133 5 is_stmt 1 view .LVU77
 232 0096 CBE7     		b	.L4
 233              	.LVL25:
 234              	.L2:
 135:Drivers/STM32F4xx_StdPeriph_Driver/src/stm32f4xx_cryp_aes.c ****     AES_CRYP_KeyInitStructure.CRYP_Key1Left = __REV(*(uint32_t*)(keyaddr));
 235              		.loc 1 135 5 view .LVU78
 135:Drivers/STM32F4xx_StdPeriph_Driver/src/stm32f4xx_cryp_aes.c ****     AES_CRYP_KeyInitStructure.CRYP_Key1Left = __REV(*(uint32_t*)(keyaddr));
 236              		.loc 1 135 42 is_stmt 0 view .LVU79
 237 0098 4FF48073 		mov	r3, #256
 238 009c 0D93     		str	r3, [sp, #52]
 136:Drivers/STM32F4xx_StdPeriph_Driver/src/stm32f4xx_cryp_aes.c ****     keyaddr+=4;
 239              		.loc 1 136 5 is_stmt 1 view .LVU80
 136:Drivers/STM32F4xx_StdPeriph_Driver/src/stm32f4xx_cryp_aes.c ****     keyaddr+=4;
 240              		.loc 1 136 47 is_stmt 0 view .LVU81
 241 009e 2B68     		ldr	r3, [r5]
 242              	.LVL26:
 243              	.LBB238:
 244              	.LBI238:
ARM GAS  /tmp/ccjGnpiF.s 			page 18


 495:Drivers/CMSIS/Include/core_cmInstr.h **** {
 245              		.loc 2 495 57 is_stmt 1 view .LVU82
 246              	.LBB239:
 247              		.loc 2 498 3 view .LVU83
 248              		.loc 2 498 10 is_stmt 0 view .LVU84
 249 00a0 1BBA     		rev	r3, r3
 250              	.LVL27:
 251              		.loc 2 498 10 view .LVU85
 252              	.LBE239:
 253              	.LBE238:
 136:Drivers/STM32F4xx_StdPeriph_Driver/src/stm32f4xx_cryp_aes.c ****     keyaddr+=4;
 254              		.loc 1 136 45 view .LVU86
 255 00a2 0493     		str	r3, [sp, #16]
 137:Drivers/STM32F4xx_StdPeriph_Driver/src/stm32f4xx_cryp_aes.c ****     AES_CRYP_KeyInitStructure.CRYP_Key1Right= __REV(*(uint32_t*)(keyaddr));
 256              		.loc 1 137 5 is_stmt 1 view .LVU87
 257              	.LVL28:
 138:Drivers/STM32F4xx_StdPeriph_Driver/src/stm32f4xx_cryp_aes.c ****     keyaddr+=4;
 258              		.loc 1 138 5 view .LVU88
 138:Drivers/STM32F4xx_StdPeriph_Driver/src/stm32f4xx_cryp_aes.c ****     keyaddr+=4;
 259              		.loc 1 138 47 is_stmt 0 view .LVU89
 260 00a4 6B68     		ldr	r3, [r5, #4]
 261              	.LVL29:
 262              	.LBB240:
 263              	.LBI240:
 495:Drivers/CMSIS/Include/core_cmInstr.h **** {
 264              		.loc 2 495 57 is_stmt 1 view .LVU90
 265              	.LBB241:
 266              		.loc 2 498 3 view .LVU91
 267              		.loc 2 498 10 is_stmt 0 view .LVU92
 268 00a6 1BBA     		rev	r3, r3
 269              	.LVL30:
 270              		.loc 2 498 10 view .LVU93
 271              	.LBE241:
 272              	.LBE240:
 138:Drivers/STM32F4xx_StdPeriph_Driver/src/stm32f4xx_cryp_aes.c ****     keyaddr+=4;
 273              		.loc 1 138 45 view .LVU94
 274 00a8 0593     		str	r3, [sp, #20]
 139:Drivers/STM32F4xx_StdPeriph_Driver/src/stm32f4xx_cryp_aes.c ****     AES_CRYP_KeyInitStructure.CRYP_Key2Left = __REV(*(uint32_t*)(keyaddr));
 275              		.loc 1 139 5 is_stmt 1 view .LVU95
 276              	.LVL31:
 140:Drivers/STM32F4xx_StdPeriph_Driver/src/stm32f4xx_cryp_aes.c ****     keyaddr+=4;
 277              		.loc 1 140 5 view .LVU96
 140:Drivers/STM32F4xx_StdPeriph_Driver/src/stm32f4xx_cryp_aes.c ****     keyaddr+=4;
 278              		.loc 1 140 47 is_stmt 0 view .LVU97
 279 00aa AB68     		ldr	r3, [r5, #8]
 280              	.LVL32:
 281              	.LBB242:
 282              	.LBI242:
 495:Drivers/CMSIS/Include/core_cmInstr.h **** {
 283              		.loc 2 495 57 is_stmt 1 view .LVU98
 284              	.LBB243:
 285              		.loc 2 498 3 view .LVU99
 286              		.loc 2 498 10 is_stmt 0 view .LVU100
 287 00ac 1BBA     		rev	r3, r3
 288              	.LVL33:
 289              		.loc 2 498 10 view .LVU101
 290              	.LBE243:
ARM GAS  /tmp/ccjGnpiF.s 			page 19


 291              	.LBE242:
 140:Drivers/STM32F4xx_StdPeriph_Driver/src/stm32f4xx_cryp_aes.c ****     keyaddr+=4;
 292              		.loc 1 140 45 view .LVU102
 293 00ae 0693     		str	r3, [sp, #24]
 141:Drivers/STM32F4xx_StdPeriph_Driver/src/stm32f4xx_cryp_aes.c ****     AES_CRYP_KeyInitStructure.CRYP_Key2Right= __REV(*(uint32_t*)(keyaddr));
 294              		.loc 1 141 5 is_stmt 1 view .LVU103
 295              	.LVL34:
 142:Drivers/STM32F4xx_StdPeriph_Driver/src/stm32f4xx_cryp_aes.c ****     keyaddr+=4;
 296              		.loc 1 142 5 view .LVU104
 142:Drivers/STM32F4xx_StdPeriph_Driver/src/stm32f4xx_cryp_aes.c ****     keyaddr+=4;
 297              		.loc 1 142 47 is_stmt 0 view .LVU105
 298 00b0 EB68     		ldr	r3, [r5, #12]
 299              	.LVL35:
 300              	.LBB244:
 301              	.LBI244:
 495:Drivers/CMSIS/Include/core_cmInstr.h **** {
 302              		.loc 2 495 57 is_stmt 1 view .LVU106
 303              	.LBB245:
 304              		.loc 2 498 3 view .LVU107
 305              		.loc 2 498 10 is_stmt 0 view .LVU108
 306 00b2 1BBA     		rev	r3, r3
 307              	.LVL36:
 308              		.loc 2 498 10 view .LVU109
 309              	.LBE245:
 310              	.LBE244:
 142:Drivers/STM32F4xx_StdPeriph_Driver/src/stm32f4xx_cryp_aes.c ****     keyaddr+=4;
 311              		.loc 1 142 45 view .LVU110
 312 00b4 0793     		str	r3, [sp, #28]
 143:Drivers/STM32F4xx_StdPeriph_Driver/src/stm32f4xx_cryp_aes.c ****     AES_CRYP_KeyInitStructure.CRYP_Key3Left = __REV(*(uint32_t*)(keyaddr));
 313              		.loc 1 143 5 is_stmt 1 view .LVU111
 314              	.LVL37:
 144:Drivers/STM32F4xx_StdPeriph_Driver/src/stm32f4xx_cryp_aes.c ****     keyaddr+=4;
 315              		.loc 1 144 5 view .LVU112
 144:Drivers/STM32F4xx_StdPeriph_Driver/src/stm32f4xx_cryp_aes.c ****     keyaddr+=4;
 316              		.loc 1 144 47 is_stmt 0 view .LVU113
 317 00b6 2B69     		ldr	r3, [r5, #16]
 318              	.LVL38:
 319              	.LBB246:
 320              	.LBI246:
 495:Drivers/CMSIS/Include/core_cmInstr.h **** {
 321              		.loc 2 495 57 is_stmt 1 view .LVU114
 322              	.LBB247:
 323              		.loc 2 498 3 view .LVU115
 324              		.loc 2 498 10 is_stmt 0 view .LVU116
 325 00b8 1BBA     		rev	r3, r3
 326              	.LVL39:
 327              		.loc 2 498 10 view .LVU117
 328              	.LBE247:
 329              	.LBE246:
 144:Drivers/STM32F4xx_StdPeriph_Driver/src/stm32f4xx_cryp_aes.c ****     keyaddr+=4;
 330              		.loc 1 144 45 view .LVU118
 331 00ba 0893     		str	r3, [sp, #32]
 145:Drivers/STM32F4xx_StdPeriph_Driver/src/stm32f4xx_cryp_aes.c ****     AES_CRYP_KeyInitStructure.CRYP_Key3Right= __REV(*(uint32_t*)(keyaddr));
 332              		.loc 1 145 5 is_stmt 1 view .LVU119
 333              	.LVL40:
 146:Drivers/STM32F4xx_StdPeriph_Driver/src/stm32f4xx_cryp_aes.c ****     break;
 334              		.loc 1 146 5 view .LVU120
ARM GAS  /tmp/ccjGnpiF.s 			page 20


 146:Drivers/STM32F4xx_StdPeriph_Driver/src/stm32f4xx_cryp_aes.c ****     break;
 335              		.loc 1 146 47 is_stmt 0 view .LVU121
 336 00bc 6B69     		ldr	r3, [r5, #20]
 337              	.LVL41:
 338              	.LBB248:
 339              	.LBI248:
 495:Drivers/CMSIS/Include/core_cmInstr.h **** {
 340              		.loc 2 495 57 is_stmt 1 view .LVU122
 341              	.LBB249:
 342              		.loc 2 498 3 view .LVU123
 343              		.loc 2 498 10 is_stmt 0 view .LVU124
 344 00be 1BBA     		rev	r3, r3
 345              	.LVL42:
 346              		.loc 2 498 10 view .LVU125
 347              	.LBE249:
 348              	.LBE248:
 146:Drivers/STM32F4xx_StdPeriph_Driver/src/stm32f4xx_cryp_aes.c ****     break;
 349              		.loc 1 146 45 view .LVU126
 350 00c0 0993     		str	r3, [sp, #36]
 147:Drivers/STM32F4xx_StdPeriph_Driver/src/stm32f4xx_cryp_aes.c ****     case 256:
 351              		.loc 1 147 5 is_stmt 1 view .LVU127
 352 00c2 B5E7     		b	.L4
 353              	.LVL43:
 354              	.L3:
 149:Drivers/STM32F4xx_StdPeriph_Driver/src/stm32f4xx_cryp_aes.c ****     AES_CRYP_KeyInitStructure.CRYP_Key0Left = __REV(*(uint32_t*)(keyaddr));
 355              		.loc 1 149 5 view .LVU128
 149:Drivers/STM32F4xx_StdPeriph_Driver/src/stm32f4xx_cryp_aes.c ****     AES_CRYP_KeyInitStructure.CRYP_Key0Left = __REV(*(uint32_t*)(keyaddr));
 356              		.loc 1 149 42 is_stmt 0 view .LVU129
 357 00c4 4FF40073 		mov	r3, #512
 358 00c8 0D93     		str	r3, [sp, #52]
 150:Drivers/STM32F4xx_StdPeriph_Driver/src/stm32f4xx_cryp_aes.c ****     keyaddr+=4;
 359              		.loc 1 150 5 is_stmt 1 view .LVU130
 150:Drivers/STM32F4xx_StdPeriph_Driver/src/stm32f4xx_cryp_aes.c ****     keyaddr+=4;
 360              		.loc 1 150 47 is_stmt 0 view .LVU131
 361 00ca 2B68     		ldr	r3, [r5]
 362              	.LVL44:
 363              	.LBB250:
 364              	.LBI250:
 495:Drivers/CMSIS/Include/core_cmInstr.h **** {
 365              		.loc 2 495 57 is_stmt 1 view .LVU132
 366              	.LBB251:
 367              		.loc 2 498 3 view .LVU133
 368              		.loc 2 498 10 is_stmt 0 view .LVU134
 369 00cc 1BBA     		rev	r3, r3
 370              	.LVL45:
 371              		.loc 2 498 10 view .LVU135
 372              	.LBE251:
 373              	.LBE250:
 150:Drivers/STM32F4xx_StdPeriph_Driver/src/stm32f4xx_cryp_aes.c ****     keyaddr+=4;
 374              		.loc 1 150 45 view .LVU136
 375 00ce 0293     		str	r3, [sp, #8]
 151:Drivers/STM32F4xx_StdPeriph_Driver/src/stm32f4xx_cryp_aes.c ****     AES_CRYP_KeyInitStructure.CRYP_Key0Right= __REV(*(uint32_t*)(keyaddr));
 376              		.loc 1 151 5 is_stmt 1 view .LVU137
 377              	.LVL46:
 152:Drivers/STM32F4xx_StdPeriph_Driver/src/stm32f4xx_cryp_aes.c ****     keyaddr+=4;
 378              		.loc 1 152 5 view .LVU138
 152:Drivers/STM32F4xx_StdPeriph_Driver/src/stm32f4xx_cryp_aes.c ****     keyaddr+=4;
ARM GAS  /tmp/ccjGnpiF.s 			page 21


 379              		.loc 1 152 47 is_stmt 0 view .LVU139
 380 00d0 6B68     		ldr	r3, [r5, #4]
 381              	.LVL47:
 382              	.LBB252:
 383              	.LBI252:
 495:Drivers/CMSIS/Include/core_cmInstr.h **** {
 384              		.loc 2 495 57 is_stmt 1 view .LVU140
 385              	.LBB253:
 386              		.loc 2 498 3 view .LVU141
 387              		.loc 2 498 10 is_stmt 0 view .LVU142
 388 00d2 1BBA     		rev	r3, r3
 389              	.LVL48:
 390              		.loc 2 498 10 view .LVU143
 391              	.LBE253:
 392              	.LBE252:
 152:Drivers/STM32F4xx_StdPeriph_Driver/src/stm32f4xx_cryp_aes.c ****     keyaddr+=4;
 393              		.loc 1 152 45 view .LVU144
 394 00d4 0393     		str	r3, [sp, #12]
 153:Drivers/STM32F4xx_StdPeriph_Driver/src/stm32f4xx_cryp_aes.c ****     AES_CRYP_KeyInitStructure.CRYP_Key1Left = __REV(*(uint32_t*)(keyaddr));
 395              		.loc 1 153 5 is_stmt 1 view .LVU145
 396              	.LVL49:
 154:Drivers/STM32F4xx_StdPeriph_Driver/src/stm32f4xx_cryp_aes.c ****     keyaddr+=4;
 397              		.loc 1 154 5 view .LVU146
 154:Drivers/STM32F4xx_StdPeriph_Driver/src/stm32f4xx_cryp_aes.c ****     keyaddr+=4;
 398              		.loc 1 154 47 is_stmt 0 view .LVU147
 399 00d6 AB68     		ldr	r3, [r5, #8]
 400              	.LVL50:
 401              	.LBB254:
 402              	.LBI254:
 495:Drivers/CMSIS/Include/core_cmInstr.h **** {
 403              		.loc 2 495 57 is_stmt 1 view .LVU148
 404              	.LBB255:
 405              		.loc 2 498 3 view .LVU149
 406              		.loc 2 498 10 is_stmt 0 view .LVU150
 407 00d8 1BBA     		rev	r3, r3
 408              	.LVL51:
 409              		.loc 2 498 10 view .LVU151
 410              	.LBE255:
 411              	.LBE254:
 154:Drivers/STM32F4xx_StdPeriph_Driver/src/stm32f4xx_cryp_aes.c ****     keyaddr+=4;
 412              		.loc 1 154 45 view .LVU152
 413 00da 0493     		str	r3, [sp, #16]
 155:Drivers/STM32F4xx_StdPeriph_Driver/src/stm32f4xx_cryp_aes.c ****     AES_CRYP_KeyInitStructure.CRYP_Key1Right= __REV(*(uint32_t*)(keyaddr));
 414              		.loc 1 155 5 is_stmt 1 view .LVU153
 415              	.LVL52:
 156:Drivers/STM32F4xx_StdPeriph_Driver/src/stm32f4xx_cryp_aes.c ****     keyaddr+=4;
 416              		.loc 1 156 5 view .LVU154
 156:Drivers/STM32F4xx_StdPeriph_Driver/src/stm32f4xx_cryp_aes.c ****     keyaddr+=4;
 417              		.loc 1 156 47 is_stmt 0 view .LVU155
 418 00dc EB68     		ldr	r3, [r5, #12]
 419              	.LVL53:
 420              	.LBB256:
 421              	.LBI256:
 495:Drivers/CMSIS/Include/core_cmInstr.h **** {
 422              		.loc 2 495 57 is_stmt 1 view .LVU156
 423              	.LBB257:
 424              		.loc 2 498 3 view .LVU157
ARM GAS  /tmp/ccjGnpiF.s 			page 22


 425              		.loc 2 498 10 is_stmt 0 view .LVU158
 426 00de 1BBA     		rev	r3, r3
 427              	.LVL54:
 428              		.loc 2 498 10 view .LVU159
 429              	.LBE257:
 430              	.LBE256:
 156:Drivers/STM32F4xx_StdPeriph_Driver/src/stm32f4xx_cryp_aes.c ****     keyaddr+=4;
 431              		.loc 1 156 45 view .LVU160
 432 00e0 0593     		str	r3, [sp, #20]
 157:Drivers/STM32F4xx_StdPeriph_Driver/src/stm32f4xx_cryp_aes.c ****     AES_CRYP_KeyInitStructure.CRYP_Key2Left = __REV(*(uint32_t*)(keyaddr));
 433              		.loc 1 157 5 is_stmt 1 view .LVU161
 434              	.LVL55:
 158:Drivers/STM32F4xx_StdPeriph_Driver/src/stm32f4xx_cryp_aes.c ****     keyaddr+=4;
 435              		.loc 1 158 5 view .LVU162
 158:Drivers/STM32F4xx_StdPeriph_Driver/src/stm32f4xx_cryp_aes.c ****     keyaddr+=4;
 436              		.loc 1 158 47 is_stmt 0 view .LVU163
 437 00e2 2B69     		ldr	r3, [r5, #16]
 438              	.LVL56:
 439              	.LBB258:
 440              	.LBI258:
 495:Drivers/CMSIS/Include/core_cmInstr.h **** {
 441              		.loc 2 495 57 is_stmt 1 view .LVU164
 442              	.LBB259:
 443              		.loc 2 498 3 view .LVU165
 444              		.loc 2 498 10 is_stmt 0 view .LVU166
 445 00e4 1BBA     		rev	r3, r3
 446              	.LVL57:
 447              		.loc 2 498 10 view .LVU167
 448              	.LBE259:
 449              	.LBE258:
 158:Drivers/STM32F4xx_StdPeriph_Driver/src/stm32f4xx_cryp_aes.c ****     keyaddr+=4;
 450              		.loc 1 158 45 view .LVU168
 451 00e6 0693     		str	r3, [sp, #24]
 159:Drivers/STM32F4xx_StdPeriph_Driver/src/stm32f4xx_cryp_aes.c ****     AES_CRYP_KeyInitStructure.CRYP_Key2Right= __REV(*(uint32_t*)(keyaddr));
 452              		.loc 1 159 5 is_stmt 1 view .LVU169
 453              	.LVL58:
 160:Drivers/STM32F4xx_StdPeriph_Driver/src/stm32f4xx_cryp_aes.c ****     keyaddr+=4;
 454              		.loc 1 160 5 view .LVU170
 160:Drivers/STM32F4xx_StdPeriph_Driver/src/stm32f4xx_cryp_aes.c ****     keyaddr+=4;
 455              		.loc 1 160 47 is_stmt 0 view .LVU171
 456 00e8 6B69     		ldr	r3, [r5, #20]
 457              	.LVL59:
 458              	.LBB260:
 459              	.LBI260:
 495:Drivers/CMSIS/Include/core_cmInstr.h **** {
 460              		.loc 2 495 57 is_stmt 1 view .LVU172
 461              	.LBB261:
 462              		.loc 2 498 3 view .LVU173
 463              		.loc 2 498 10 is_stmt 0 view .LVU174
 464 00ea 1BBA     		rev	r3, r3
 465              	.LVL60:
 466              		.loc 2 498 10 view .LVU175
 467              	.LBE261:
 468              	.LBE260:
 160:Drivers/STM32F4xx_StdPeriph_Driver/src/stm32f4xx_cryp_aes.c ****     keyaddr+=4;
 469              		.loc 1 160 45 view .LVU176
 470 00ec 0793     		str	r3, [sp, #28]
ARM GAS  /tmp/ccjGnpiF.s 			page 23


 161:Drivers/STM32F4xx_StdPeriph_Driver/src/stm32f4xx_cryp_aes.c ****     AES_CRYP_KeyInitStructure.CRYP_Key3Left = __REV(*(uint32_t*)(keyaddr));
 471              		.loc 1 161 5 is_stmt 1 view .LVU177
 472              	.LVL61:
 162:Drivers/STM32F4xx_StdPeriph_Driver/src/stm32f4xx_cryp_aes.c ****     keyaddr+=4;
 473              		.loc 1 162 5 view .LVU178
 162:Drivers/STM32F4xx_StdPeriph_Driver/src/stm32f4xx_cryp_aes.c ****     keyaddr+=4;
 474              		.loc 1 162 47 is_stmt 0 view .LVU179
 475 00ee AB69     		ldr	r3, [r5, #24]
 476              	.LVL62:
 477              	.LBB262:
 478              	.LBI262:
 495:Drivers/CMSIS/Include/core_cmInstr.h **** {
 479              		.loc 2 495 57 is_stmt 1 view .LVU180
 480              	.LBB263:
 481              		.loc 2 498 3 view .LVU181
 482              		.loc 2 498 10 is_stmt 0 view .LVU182
 483 00f0 1BBA     		rev	r3, r3
 484              	.LVL63:
 485              		.loc 2 498 10 view .LVU183
 486              	.LBE263:
 487              	.LBE262:
 162:Drivers/STM32F4xx_StdPeriph_Driver/src/stm32f4xx_cryp_aes.c ****     keyaddr+=4;
 488              		.loc 1 162 45 view .LVU184
 489 00f2 0893     		str	r3, [sp, #32]
 163:Drivers/STM32F4xx_StdPeriph_Driver/src/stm32f4xx_cryp_aes.c ****     AES_CRYP_KeyInitStructure.CRYP_Key3Right= __REV(*(uint32_t*)(keyaddr));
 490              		.loc 1 163 5 is_stmt 1 view .LVU185
 491              	.LVL64:
 164:Drivers/STM32F4xx_StdPeriph_Driver/src/stm32f4xx_cryp_aes.c ****     break;
 492              		.loc 1 164 5 view .LVU186
 164:Drivers/STM32F4xx_StdPeriph_Driver/src/stm32f4xx_cryp_aes.c ****     break;
 493              		.loc 1 164 47 is_stmt 0 view .LVU187
 494 00f4 EB69     		ldr	r3, [r5, #28]
 495              	.LVL65:
 496              	.LBB264:
 497              	.LBI264:
 495:Drivers/CMSIS/Include/core_cmInstr.h **** {
 498              		.loc 2 495 57 is_stmt 1 view .LVU188
 499              	.LBB265:
 500              		.loc 2 498 3 view .LVU189
 501              		.loc 2 498 10 is_stmt 0 view .LVU190
 502 00f6 1BBA     		rev	r3, r3
 503              	.LVL66:
 504              		.loc 2 498 10 view .LVU191
 505              	.LBE265:
 506              	.LBE264:
 164:Drivers/STM32F4xx_StdPeriph_Driver/src/stm32f4xx_cryp_aes.c ****     break;
 507              		.loc 1 164 45 view .LVU192
 508 00f8 0993     		str	r3, [sp, #36]
 165:Drivers/STM32F4xx_StdPeriph_Driver/src/stm32f4xx_cryp_aes.c ****     default:
 509              		.loc 1 165 5 is_stmt 1 view .LVU193
 510 00fa 99E7     		b	.L4
 511              	.LVL67:
 512              	.L5:
 203:Drivers/STM32F4xx_StdPeriph_Driver/src/stm32f4xx_cryp_aes.c ****     }
 204:Drivers/STM32F4xx_StdPeriph_Driver/src/stm32f4xx_cryp_aes.c ****   }
 205:Drivers/STM32F4xx_StdPeriph_Driver/src/stm32f4xx_cryp_aes.c ****   /*------------------ AES Encryption ------------------*/
 206:Drivers/STM32F4xx_StdPeriph_Driver/src/stm32f4xx_cryp_aes.c ****   else /* AES encryption */
ARM GAS  /tmp/ccjGnpiF.s 			page 24


 207:Drivers/STM32F4xx_StdPeriph_Driver/src/stm32f4xx_cryp_aes.c ****   {
 208:Drivers/STM32F4xx_StdPeriph_Driver/src/stm32f4xx_cryp_aes.c **** 
 209:Drivers/STM32F4xx_StdPeriph_Driver/src/stm32f4xx_cryp_aes.c ****     CRYP_KeyInit(&AES_CRYP_KeyInitStructure);
 513              		.loc 1 209 5 view .LVU194
 514 00fc 02A8     		add	r0, sp, #8
 515 00fe FFF7FEFF 		bl	CRYP_KeyInit
 516              	.LVL68:
 210:Drivers/STM32F4xx_StdPeriph_Driver/src/stm32f4xx_cryp_aes.c **** 
 211:Drivers/STM32F4xx_StdPeriph_Driver/src/stm32f4xx_cryp_aes.c ****     /* Crypto Init for Encryption process */
 212:Drivers/STM32F4xx_StdPeriph_Driver/src/stm32f4xx_cryp_aes.c ****     AES_CRYP_InitStructure.CRYP_AlgoDir  = CRYP_AlgoDir_Encrypt;
 517              		.loc 1 212 5 view .LVU195
 518              		.loc 1 212 42 is_stmt 0 view .LVU196
 519 0102 0023     		movs	r3, #0
 520 0104 0A93     		str	r3, [sp, #40]
 113:Drivers/STM32F4xx_StdPeriph_Driver/src/stm32f4xx_cryp_aes.c ****   uint32_t keyaddr    = (uint32_t)Key;
 521              		.loc 1 113 15 view .LVU197
 522 0106 0126     		movs	r6, #1
 523              	.LVL69:
 524              	.L8:
 213:Drivers/STM32F4xx_StdPeriph_Driver/src/stm32f4xx_cryp_aes.c ****   }
 214:Drivers/STM32F4xx_StdPeriph_Driver/src/stm32f4xx_cryp_aes.c **** 
 215:Drivers/STM32F4xx_StdPeriph_Driver/src/stm32f4xx_cryp_aes.c ****   AES_CRYP_InitStructure.CRYP_AlgoMode = CRYP_AlgoMode_AES_ECB;
 525              		.loc 1 215 3 is_stmt 1 view .LVU198
 526              		.loc 1 215 40 is_stmt 0 view .LVU199
 527 0108 2023     		movs	r3, #32
 528 010a 0B93     		str	r3, [sp, #44]
 216:Drivers/STM32F4xx_StdPeriph_Driver/src/stm32f4xx_cryp_aes.c ****   AES_CRYP_InitStructure.CRYP_DataType = CRYP_DataType_8b;
 529              		.loc 1 216 3 is_stmt 1 view .LVU200
 530              		.loc 1 216 40 is_stmt 0 view .LVU201
 531 010c 8023     		movs	r3, #128
 532 010e 0C93     		str	r3, [sp, #48]
 217:Drivers/STM32F4xx_StdPeriph_Driver/src/stm32f4xx_cryp_aes.c ****   CRYP_Init(&AES_CRYP_InitStructure);
 533              		.loc 1 217 3 is_stmt 1 view .LVU202
 534 0110 0AA8     		add	r0, sp, #40
 535 0112 FFF7FEFF 		bl	CRYP_Init
 536              	.LVL70:
 218:Drivers/STM32F4xx_StdPeriph_Driver/src/stm32f4xx_cryp_aes.c **** 
 219:Drivers/STM32F4xx_StdPeriph_Driver/src/stm32f4xx_cryp_aes.c ****   /* Flush IN/OUT FIFOs */
 220:Drivers/STM32F4xx_StdPeriph_Driver/src/stm32f4xx_cryp_aes.c ****   CRYP_FIFOFlush();
 537              		.loc 1 220 3 view .LVU203
 538 0116 FFF7FEFF 		bl	CRYP_FIFOFlush
 539              	.LVL71:
 221:Drivers/STM32F4xx_StdPeriph_Driver/src/stm32f4xx_cryp_aes.c **** 
 222:Drivers/STM32F4xx_StdPeriph_Driver/src/stm32f4xx_cryp_aes.c ****   /* Enable Crypto processor */
 223:Drivers/STM32F4xx_StdPeriph_Driver/src/stm32f4xx_cryp_aes.c ****   CRYP_Cmd(ENABLE);
 540              		.loc 1 223 3 view .LVU204
 541 011a 0120     		movs	r0, #1
 542 011c FFF7FEFF 		bl	CRYP_Cmd
 543              	.LVL72:
 224:Drivers/STM32F4xx_StdPeriph_Driver/src/stm32f4xx_cryp_aes.c **** 
 225:Drivers/STM32F4xx_StdPeriph_Driver/src/stm32f4xx_cryp_aes.c ****   if(CRYP_GetCmdStatus() == DISABLE)
 544              		.loc 1 225 3 view .LVU205
 545              		.loc 1 225 6 is_stmt 0 view .LVU206
 546 0120 FFF7FEFF 		bl	CRYP_GetCmdStatus
 547              	.LVL73:
 548              		.loc 1 225 5 view .LVU207
 549 0124 0028     		cmp	r0, #0
ARM GAS  /tmp/ccjGnpiF.s 			page 25


 550 0126 35D0     		beq	.L9
 226:Drivers/STM32F4xx_StdPeriph_Driver/src/stm32f4xx_cryp_aes.c ****   {
 227:Drivers/STM32F4xx_StdPeriph_Driver/src/stm32f4xx_cryp_aes.c ****     /* The CRYP peripheral clock is not enabled or the device doesn't embed 
 228:Drivers/STM32F4xx_StdPeriph_Driver/src/stm32f4xx_cryp_aes.c ****        the CRYP peripheral (please check the device sales type. */
 229:Drivers/STM32F4xx_StdPeriph_Driver/src/stm32f4xx_cryp_aes.c ****     return(ERROR);
 230:Drivers/STM32F4xx_StdPeriph_Driver/src/stm32f4xx_cryp_aes.c ****   }
 231:Drivers/STM32F4xx_StdPeriph_Driver/src/stm32f4xx_cryp_aes.c ****   
 232:Drivers/STM32F4xx_StdPeriph_Driver/src/stm32f4xx_cryp_aes.c ****   for(i=0; ((i<Ilength) && (status != ERROR)); i+=16)
 551              		.loc 1 232 8 view .LVU208
 552 0128 0025     		movs	r5, #0
 553              	.LVL74:
 554              		.loc 1 232 8 view .LVU209
 555 012a 02E0     		b	.L10
 556              	.LVL75:
 557              	.L11:
 233:Drivers/STM32F4xx_StdPeriph_Driver/src/stm32f4xx_cryp_aes.c ****   {
 234:Drivers/STM32F4xx_StdPeriph_Driver/src/stm32f4xx_cryp_aes.c **** 
 235:Drivers/STM32F4xx_StdPeriph_Driver/src/stm32f4xx_cryp_aes.c ****     /* Write the Input block in the IN FIFO */
 236:Drivers/STM32F4xx_StdPeriph_Driver/src/stm32f4xx_cryp_aes.c ****     CRYP_DataIn(*(uint32_t*)(inputaddr));
 237:Drivers/STM32F4xx_StdPeriph_Driver/src/stm32f4xx_cryp_aes.c ****     inputaddr+=4;
 238:Drivers/STM32F4xx_StdPeriph_Driver/src/stm32f4xx_cryp_aes.c ****     CRYP_DataIn(*(uint32_t*)(inputaddr));
 239:Drivers/STM32F4xx_StdPeriph_Driver/src/stm32f4xx_cryp_aes.c ****     inputaddr+=4;
 240:Drivers/STM32F4xx_StdPeriph_Driver/src/stm32f4xx_cryp_aes.c ****     CRYP_DataIn(*(uint32_t*)(inputaddr));
 241:Drivers/STM32F4xx_StdPeriph_Driver/src/stm32f4xx_cryp_aes.c ****     inputaddr+=4;
 242:Drivers/STM32F4xx_StdPeriph_Driver/src/stm32f4xx_cryp_aes.c ****     CRYP_DataIn(*(uint32_t*)(inputaddr));
 243:Drivers/STM32F4xx_StdPeriph_Driver/src/stm32f4xx_cryp_aes.c ****     inputaddr+=4;
 244:Drivers/STM32F4xx_StdPeriph_Driver/src/stm32f4xx_cryp_aes.c **** 
 245:Drivers/STM32F4xx_StdPeriph_Driver/src/stm32f4xx_cryp_aes.c ****     /* Wait until the complete message has been processed */
 246:Drivers/STM32F4xx_StdPeriph_Driver/src/stm32f4xx_cryp_aes.c ****     counter = 0;
 247:Drivers/STM32F4xx_StdPeriph_Driver/src/stm32f4xx_cryp_aes.c ****     do
 248:Drivers/STM32F4xx_StdPeriph_Driver/src/stm32f4xx_cryp_aes.c ****     {
 249:Drivers/STM32F4xx_StdPeriph_Driver/src/stm32f4xx_cryp_aes.c ****       busystatus = CRYP_GetFlagStatus(CRYP_FLAG_BUSY);
 250:Drivers/STM32F4xx_StdPeriph_Driver/src/stm32f4xx_cryp_aes.c ****       counter++;
 251:Drivers/STM32F4xx_StdPeriph_Driver/src/stm32f4xx_cryp_aes.c ****     }while ((counter != AESBUSY_TIMEOUT) && (busystatus != RESET));
 252:Drivers/STM32F4xx_StdPeriph_Driver/src/stm32f4xx_cryp_aes.c **** 
 253:Drivers/STM32F4xx_StdPeriph_Driver/src/stm32f4xx_cryp_aes.c ****     if (busystatus != RESET)
 558              		.loc 1 253 5 is_stmt 1 view .LVU210
 559              		.loc 1 253 8 is_stmt 0 view .LVU211
 560 012c 00B3     		cbz	r0, .L19
 254:Drivers/STM32F4xx_StdPeriph_Driver/src/stm32f4xx_cryp_aes.c ****    {
 255:Drivers/STM32F4xx_StdPeriph_Driver/src/stm32f4xx_cryp_aes.c ****        status = ERROR;
 561              		.loc 1 255 15 view .LVU212
 562 012e 0026     		movs	r6, #0
 563              	.LVL76:
 564              	.L13:
 232:Drivers/STM32F4xx_StdPeriph_Driver/src/stm32f4xx_cryp_aes.c ****   {
 565              		.loc 1 232 48 is_stmt 1 discriminator 2 view .LVU213
 232:Drivers/STM32F4xx_StdPeriph_Driver/src/stm32f4xx_cryp_aes.c ****   {
 566              		.loc 1 232 49 is_stmt 0 discriminator 2 view .LVU214
 567 0130 1035     		adds	r5, r5, #16
 568              	.LVL77:
 569              	.L10:
 232:Drivers/STM32F4xx_StdPeriph_Driver/src/stm32f4xx_cryp_aes.c ****   {
 570              		.loc 1 232 12 is_stmt 1 discriminator 1 view .LVU215
 232:Drivers/STM32F4xx_StdPeriph_Driver/src/stm32f4xx_cryp_aes.c ****   {
 571              		.loc 1 232 3 is_stmt 0 discriminator 1 view .LVU216
 572 0132 4545     		cmp	r5, r8
ARM GAS  /tmp/ccjGnpiF.s 			page 26


 573 0134 2AD2     		bcs	.L14
 232:Drivers/STM32F4xx_StdPeriph_Driver/src/stm32f4xx_cryp_aes.c ****   {
 574              		.loc 1 232 25 discriminator 3 view .LVU217
 575 0136 4EB3     		cbz	r6, .L14
 236:Drivers/STM32F4xx_StdPeriph_Driver/src/stm32f4xx_cryp_aes.c ****     inputaddr+=4;
 576              		.loc 1 236 5 is_stmt 1 view .LVU218
 577 0138 2068     		ldr	r0, [r4]
 578 013a FFF7FEFF 		bl	CRYP_DataIn
 579              	.LVL78:
 237:Drivers/STM32F4xx_StdPeriph_Driver/src/stm32f4xx_cryp_aes.c ****     CRYP_DataIn(*(uint32_t*)(inputaddr));
 580              		.loc 1 237 5 view .LVU219
 238:Drivers/STM32F4xx_StdPeriph_Driver/src/stm32f4xx_cryp_aes.c ****     inputaddr+=4;
 581              		.loc 1 238 5 view .LVU220
 582 013e 6068     		ldr	r0, [r4, #4]
 583 0140 FFF7FEFF 		bl	CRYP_DataIn
 584              	.LVL79:
 239:Drivers/STM32F4xx_StdPeriph_Driver/src/stm32f4xx_cryp_aes.c ****     CRYP_DataIn(*(uint32_t*)(inputaddr));
 585              		.loc 1 239 5 view .LVU221
 240:Drivers/STM32F4xx_StdPeriph_Driver/src/stm32f4xx_cryp_aes.c ****     inputaddr+=4;
 586              		.loc 1 240 5 view .LVU222
 587 0144 A068     		ldr	r0, [r4, #8]
 588 0146 FFF7FEFF 		bl	CRYP_DataIn
 589              	.LVL80:
 241:Drivers/STM32F4xx_StdPeriph_Driver/src/stm32f4xx_cryp_aes.c ****     CRYP_DataIn(*(uint32_t*)(inputaddr));
 590              		.loc 1 241 5 view .LVU223
 242:Drivers/STM32F4xx_StdPeriph_Driver/src/stm32f4xx_cryp_aes.c ****     inputaddr+=4;
 591              		.loc 1 242 5 view .LVU224
 592 014a E068     		ldr	r0, [r4, #12]
 593 014c FFF7FEFF 		bl	CRYP_DataIn
 594              	.LVL81:
 243:Drivers/STM32F4xx_StdPeriph_Driver/src/stm32f4xx_cryp_aes.c **** 
 595              		.loc 1 243 5 view .LVU225
 243:Drivers/STM32F4xx_StdPeriph_Driver/src/stm32f4xx_cryp_aes.c **** 
 596              		.loc 1 243 14 is_stmt 0 view .LVU226
 597 0150 1034     		adds	r4, r4, #16
 598              	.LVL82:
 246:Drivers/STM32F4xx_StdPeriph_Driver/src/stm32f4xx_cryp_aes.c ****     do
 599              		.loc 1 246 5 is_stmt 1 view .LVU227
 246:Drivers/STM32F4xx_StdPeriph_Driver/src/stm32f4xx_cryp_aes.c ****     do
 600              		.loc 1 246 13 is_stmt 0 view .LVU228
 601 0152 0023     		movs	r3, #0
 602 0154 0193     		str	r3, [sp, #4]
 603              	.L12:
 247:Drivers/STM32F4xx_StdPeriph_Driver/src/stm32f4xx_cryp_aes.c ****     {
 604              		.loc 1 247 5 is_stmt 1 discriminator 2 view .LVU229
 249:Drivers/STM32F4xx_StdPeriph_Driver/src/stm32f4xx_cryp_aes.c ****       counter++;
 605              		.loc 1 249 7 discriminator 2 view .LVU230
 249:Drivers/STM32F4xx_StdPeriph_Driver/src/stm32f4xx_cryp_aes.c ****       counter++;
 606              		.loc 1 249 20 is_stmt 0 discriminator 2 view .LVU231
 607 0156 1020     		movs	r0, #16
 608 0158 FFF7FEFF 		bl	CRYP_GetFlagStatus
 609              	.LVL83:
 250:Drivers/STM32F4xx_StdPeriph_Driver/src/stm32f4xx_cryp_aes.c ****     }while ((counter != AESBUSY_TIMEOUT) && (busystatus != RESET));
 610              		.loc 1 250 7 is_stmt 1 discriminator 2 view .LVU232
 250:Drivers/STM32F4xx_StdPeriph_Driver/src/stm32f4xx_cryp_aes.c ****     }while ((counter != AESBUSY_TIMEOUT) && (busystatus != RESET));
 611              		.loc 1 250 14 is_stmt 0 discriminator 2 view .LVU233
 612 015c 019A     		ldr	r2, [sp, #4]
ARM GAS  /tmp/ccjGnpiF.s 			page 27


 613 015e 0132     		adds	r2, r2, #1
 614 0160 0192     		str	r2, [sp, #4]
 251:Drivers/STM32F4xx_StdPeriph_Driver/src/stm32f4xx_cryp_aes.c **** 
 615              		.loc 1 251 12 is_stmt 1 discriminator 2 view .LVU234
 251:Drivers/STM32F4xx_StdPeriph_Driver/src/stm32f4xx_cryp_aes.c **** 
 616              		.loc 1 251 22 is_stmt 0 discriminator 2 view .LVU235
 617 0162 019B     		ldr	r3, [sp, #4]
 251:Drivers/STM32F4xx_StdPeriph_Driver/src/stm32f4xx_cryp_aes.c **** 
 618              		.loc 1 251 5 discriminator 2 view .LVU236
 619 0164 B3F5803F 		cmp	r3, #65536
 620 0168 E0D0     		beq	.L11
 251:Drivers/STM32F4xx_StdPeriph_Driver/src/stm32f4xx_cryp_aes.c **** 
 621              		.loc 1 251 42 discriminator 1 view .LVU237
 622 016a 0028     		cmp	r0, #0
 623 016c F3D1     		bne	.L12
 624 016e DDE7     		b	.L11
 625              	.L19:
 256:Drivers/STM32F4xx_StdPeriph_Driver/src/stm32f4xx_cryp_aes.c ****     }
 257:Drivers/STM32F4xx_StdPeriph_Driver/src/stm32f4xx_cryp_aes.c ****     else
 258:Drivers/STM32F4xx_StdPeriph_Driver/src/stm32f4xx_cryp_aes.c ****     {
 259:Drivers/STM32F4xx_StdPeriph_Driver/src/stm32f4xx_cryp_aes.c **** 
 260:Drivers/STM32F4xx_StdPeriph_Driver/src/stm32f4xx_cryp_aes.c ****       /* Read the Output block from the Output FIFO */
 261:Drivers/STM32F4xx_StdPeriph_Driver/src/stm32f4xx_cryp_aes.c ****       *(uint32_t*)(outputaddr) = CRYP_DataOut();
 626              		.loc 1 261 7 is_stmt 1 view .LVU238
 627              		.loc 1 261 34 is_stmt 0 view .LVU239
 628 0170 FFF7FEFF 		bl	CRYP_DataOut
 629              	.LVL84:
 630              		.loc 1 261 32 view .LVU240
 631 0174 3860     		str	r0, [r7]
 262:Drivers/STM32F4xx_StdPeriph_Driver/src/stm32f4xx_cryp_aes.c ****       outputaddr+=4;
 632              		.loc 1 262 7 is_stmt 1 view .LVU241
 633              	.LVL85:
 263:Drivers/STM32F4xx_StdPeriph_Driver/src/stm32f4xx_cryp_aes.c ****       *(uint32_t*)(outputaddr) = CRYP_DataOut();
 634              		.loc 1 263 7 view .LVU242
 635              		.loc 1 263 34 is_stmt 0 view .LVU243
 636 0176 FFF7FEFF 		bl	CRYP_DataOut
 637              	.LVL86:
 638              		.loc 1 263 32 view .LVU244
 639 017a 7860     		str	r0, [r7, #4]
 264:Drivers/STM32F4xx_StdPeriph_Driver/src/stm32f4xx_cryp_aes.c ****       outputaddr+=4;
 640              		.loc 1 264 7 is_stmt 1 view .LVU245
 641              	.LVL87:
 265:Drivers/STM32F4xx_StdPeriph_Driver/src/stm32f4xx_cryp_aes.c ****       *(uint32_t*)(outputaddr) = CRYP_DataOut();
 642              		.loc 1 265 7 view .LVU246
 643              		.loc 1 265 34 is_stmt 0 view .LVU247
 644 017c FFF7FEFF 		bl	CRYP_DataOut
 645              	.LVL88:
 646              		.loc 1 265 32 view .LVU248
 647 0180 B860     		str	r0, [r7, #8]
 266:Drivers/STM32F4xx_StdPeriph_Driver/src/stm32f4xx_cryp_aes.c ****       outputaddr+=4;
 648              		.loc 1 266 7 is_stmt 1 view .LVU249
 649              	.LVL89:
 267:Drivers/STM32F4xx_StdPeriph_Driver/src/stm32f4xx_cryp_aes.c ****       *(uint32_t*)(outputaddr) = CRYP_DataOut(); 
 650              		.loc 1 267 7 view .LVU250
 651              		.loc 1 267 34 is_stmt 0 view .LVU251
 652 0182 FFF7FEFF 		bl	CRYP_DataOut
 653              	.LVL90:
ARM GAS  /tmp/ccjGnpiF.s 			page 28


 654              		.loc 1 267 32 view .LVU252
 655 0186 F860     		str	r0, [r7, #12]
 268:Drivers/STM32F4xx_StdPeriph_Driver/src/stm32f4xx_cryp_aes.c ****       outputaddr+=4;
 656              		.loc 1 268 7 is_stmt 1 view .LVU253
 657              		.loc 1 268 17 is_stmt 0 view .LVU254
 658 0188 1037     		adds	r7, r7, #16
 659              	.LVL91:
 660              		.loc 1 268 17 view .LVU255
 661 018a D1E7     		b	.L13
 662              	.L14:
 269:Drivers/STM32F4xx_StdPeriph_Driver/src/stm32f4xx_cryp_aes.c ****     }
 270:Drivers/STM32F4xx_StdPeriph_Driver/src/stm32f4xx_cryp_aes.c ****   }
 271:Drivers/STM32F4xx_StdPeriph_Driver/src/stm32f4xx_cryp_aes.c **** 
 272:Drivers/STM32F4xx_StdPeriph_Driver/src/stm32f4xx_cryp_aes.c ****   /* Disable Crypto */
 273:Drivers/STM32F4xx_StdPeriph_Driver/src/stm32f4xx_cryp_aes.c ****   CRYP_Cmd(DISABLE);
 663              		.loc 1 273 3 is_stmt 1 view .LVU256
 664 018c 0020     		movs	r0, #0
 665 018e FFF7FEFF 		bl	CRYP_Cmd
 666              	.LVL92:
 274:Drivers/STM32F4xx_StdPeriph_Driver/src/stm32f4xx_cryp_aes.c **** 
 275:Drivers/STM32F4xx_StdPeriph_Driver/src/stm32f4xx_cryp_aes.c ****   return status; 
 667              		.loc 1 275 3 view .LVU257
 668              		.loc 1 275 10 is_stmt 0 view .LVU258
 669 0192 3046     		mov	r0, r6
 670              	.LVL93:
 671              	.L9:
 276:Drivers/STM32F4xx_StdPeriph_Driver/src/stm32f4xx_cryp_aes.c **** }
 672              		.loc 1 276 1 view .LVU259
 673 0194 0FB0     		add	sp, sp, #60
 674              		.cfi_def_cfa_offset 28
 675              		@ sp needed
 676 0196 BDE8F083 		pop	{r4, r5, r6, r7, r8, r9, pc}
 677              		.loc 1 276 1 view .LVU260
 678              		.cfi_endproc
 679              	.LFE123:
 681              		.section	.text.CRYP_AES_CBC,"ax",%progbits
 682              		.align	1
 683              		.global	CRYP_AES_CBC
 684              		.syntax unified
 685              		.thumb
 686              		.thumb_func
 687              		.fpu fpv4-sp-d16
 689              	CRYP_AES_CBC:
 690              	.LVL94:
 691              	.LFB124:
 277:Drivers/STM32F4xx_StdPeriph_Driver/src/stm32f4xx_cryp_aes.c **** 
 278:Drivers/STM32F4xx_StdPeriph_Driver/src/stm32f4xx_cryp_aes.c **** /**
 279:Drivers/STM32F4xx_StdPeriph_Driver/src/stm32f4xx_cryp_aes.c ****   * @brief  Encrypt and decrypt using AES in CBC Mode
 280:Drivers/STM32F4xx_StdPeriph_Driver/src/stm32f4xx_cryp_aes.c ****   * @param  Mode: encryption or decryption Mode.
 281:Drivers/STM32F4xx_StdPeriph_Driver/src/stm32f4xx_cryp_aes.c ****   *          This parameter can be one of the following values:
 282:Drivers/STM32F4xx_StdPeriph_Driver/src/stm32f4xx_cryp_aes.c ****   *            @arg MODE_ENCRYPT: Encryption
 283:Drivers/STM32F4xx_StdPeriph_Driver/src/stm32f4xx_cryp_aes.c ****   *            @arg MODE_DECRYPT: Decryption
 284:Drivers/STM32F4xx_StdPeriph_Driver/src/stm32f4xx_cryp_aes.c ****   * @param  InitVectors: Initialisation Vectors used for AES algorithm.
 285:Drivers/STM32F4xx_StdPeriph_Driver/src/stm32f4xx_cryp_aes.c ****   * @param  Key: Key used for AES algorithm.
 286:Drivers/STM32F4xx_StdPeriph_Driver/src/stm32f4xx_cryp_aes.c ****   * @param  Keysize: length of the Key, must be a 128, 192 or 256.
 287:Drivers/STM32F4xx_StdPeriph_Driver/src/stm32f4xx_cryp_aes.c ****   * @param  Input: pointer to the Input buffer.
 288:Drivers/STM32F4xx_StdPeriph_Driver/src/stm32f4xx_cryp_aes.c ****   * @param  Ilength: length of the Input buffer, must be a multiple of 16.
ARM GAS  /tmp/ccjGnpiF.s 			page 29


 289:Drivers/STM32F4xx_StdPeriph_Driver/src/stm32f4xx_cryp_aes.c ****   * @param  Output: pointer to the returned buffer.
 290:Drivers/STM32F4xx_StdPeriph_Driver/src/stm32f4xx_cryp_aes.c ****   * @retval An ErrorStatus enumeration value:
 291:Drivers/STM32F4xx_StdPeriph_Driver/src/stm32f4xx_cryp_aes.c ****   *          - SUCCESS: Operation done
 292:Drivers/STM32F4xx_StdPeriph_Driver/src/stm32f4xx_cryp_aes.c ****   *          - ERROR: Operation failed
 293:Drivers/STM32F4xx_StdPeriph_Driver/src/stm32f4xx_cryp_aes.c ****   */
 294:Drivers/STM32F4xx_StdPeriph_Driver/src/stm32f4xx_cryp_aes.c **** ErrorStatus CRYP_AES_CBC(uint8_t Mode, uint8_t InitVectors[16], uint8_t *Key,
 295:Drivers/STM32F4xx_StdPeriph_Driver/src/stm32f4xx_cryp_aes.c ****                          uint16_t Keysize, uint8_t *Input, uint32_t Ilength,
 296:Drivers/STM32F4xx_StdPeriph_Driver/src/stm32f4xx_cryp_aes.c ****                          uint8_t *Output)
 297:Drivers/STM32F4xx_StdPeriph_Driver/src/stm32f4xx_cryp_aes.c **** {
 692              		.loc 1 297 1 is_stmt 1 view -0
 693              		.cfi_startproc
 694              		@ args = 12, pretend = 0, frame = 72
 695              		@ frame_needed = 0, uses_anonymous_args = 0
 696              		.loc 1 297 1 is_stmt 0 view .LVU262
 697 0000 2DE9F047 		push	{r4, r5, r6, r7, r8, r9, r10, lr}
 698              		.cfi_def_cfa_offset 32
 699              		.cfi_offset 4, -32
 700              		.cfi_offset 5, -28
 701              		.cfi_offset 6, -24
 702              		.cfi_offset 7, -20
 703              		.cfi_offset 8, -16
 704              		.cfi_offset 9, -12
 705              		.cfi_offset 10, -8
 706              		.cfi_offset 14, -4
 707 0004 92B0     		sub	sp, sp, #72
 708              		.cfi_def_cfa_offset 104
 709 0006 0646     		mov	r6, r0
 710 0008 0D46     		mov	r5, r1
 711 000a 9146     		mov	r9, r2
 712 000c 9A46     		mov	r10, r3
 713 000e DDF86C80 		ldr	r8, [sp, #108]
 298:Drivers/STM32F4xx_StdPeriph_Driver/src/stm32f4xx_cryp_aes.c ****   CRYP_InitTypeDef AES_CRYP_InitStructure;
 714              		.loc 1 298 3 is_stmt 1 view .LVU263
 299:Drivers/STM32F4xx_StdPeriph_Driver/src/stm32f4xx_cryp_aes.c ****   CRYP_KeyInitTypeDef AES_CRYP_KeyInitStructure;
 715              		.loc 1 299 3 view .LVU264
 300:Drivers/STM32F4xx_StdPeriph_Driver/src/stm32f4xx_cryp_aes.c ****   CRYP_IVInitTypeDef AES_CRYP_IVInitStructure;
 716              		.loc 1 300 3 view .LVU265
 301:Drivers/STM32F4xx_StdPeriph_Driver/src/stm32f4xx_cryp_aes.c ****   __IO uint32_t counter = 0;
 717              		.loc 1 301 3 view .LVU266
 718              		.loc 1 301 17 is_stmt 0 view .LVU267
 719 0012 0023     		movs	r3, #0
 720              	.LVL95:
 721              		.loc 1 301 17 view .LVU268
 722 0014 0193     		str	r3, [sp, #4]
 302:Drivers/STM32F4xx_StdPeriph_Driver/src/stm32f4xx_cryp_aes.c ****   uint32_t busystatus = 0;
 723              		.loc 1 302 3 is_stmt 1 view .LVU269
 724              	.LVL96:
 303:Drivers/STM32F4xx_StdPeriph_Driver/src/stm32f4xx_cryp_aes.c ****   ErrorStatus status = SUCCESS;
 725              		.loc 1 303 3 view .LVU270
 304:Drivers/STM32F4xx_StdPeriph_Driver/src/stm32f4xx_cryp_aes.c ****   uint32_t keyaddr    = (uint32_t)Key;
 726              		.loc 1 304 3 view .LVU271
 305:Drivers/STM32F4xx_StdPeriph_Driver/src/stm32f4xx_cryp_aes.c ****   uint32_t inputaddr  = (uint32_t)Input;
 727              		.loc 1 305 3 view .LVU272
 728              		.loc 1 305 12 is_stmt 0 view .LVU273
 729 0016 1A9C     		ldr	r4, [sp, #104]
 730              	.LVL97:
 306:Drivers/STM32F4xx_StdPeriph_Driver/src/stm32f4xx_cryp_aes.c ****   uint32_t outputaddr = (uint32_t)Output;
ARM GAS  /tmp/ccjGnpiF.s 			page 30


 731              		.loc 1 306 3 is_stmt 1 view .LVU274
 732              		.loc 1 306 12 is_stmt 0 view .LVU275
 733 0018 1C9F     		ldr	r7, [sp, #112]
 734              	.LVL98:
 307:Drivers/STM32F4xx_StdPeriph_Driver/src/stm32f4xx_cryp_aes.c ****   uint32_t ivaddr = (uint32_t)InitVectors;
 735              		.loc 1 307 3 is_stmt 1 view .LVU276
 308:Drivers/STM32F4xx_StdPeriph_Driver/src/stm32f4xx_cryp_aes.c ****   uint32_t i = 0;
 736              		.loc 1 308 3 view .LVU277
 309:Drivers/STM32F4xx_StdPeriph_Driver/src/stm32f4xx_cryp_aes.c **** 
 310:Drivers/STM32F4xx_StdPeriph_Driver/src/stm32f4xx_cryp_aes.c ****   /* Crypto structures initialisation*/
 311:Drivers/STM32F4xx_StdPeriph_Driver/src/stm32f4xx_cryp_aes.c ****   CRYP_KeyStructInit(&AES_CRYP_KeyInitStructure);
 737              		.loc 1 311 3 view .LVU278
 738 001a 06A8     		add	r0, sp, #24
 739              	.LVL99:
 740              		.loc 1 311 3 is_stmt 0 view .LVU279
 741 001c FFF7FEFF 		bl	CRYP_KeyStructInit
 742              	.LVL100:
 312:Drivers/STM32F4xx_StdPeriph_Driver/src/stm32f4xx_cryp_aes.c **** 
 313:Drivers/STM32F4xx_StdPeriph_Driver/src/stm32f4xx_cryp_aes.c ****   switch(Keysize)
 743              		.loc 1 313 3 is_stmt 1 view .LVU280
 744 0020 BAF1C00F 		cmp	r10, #192
 745 0024 49D0     		beq	.L21
 746 0026 BAF5807F 		cmp	r10, #256
 747 002a 62D0     		beq	.L22
 748 002c BAF1800F 		cmp	r10, #128
 749 0030 30D0     		beq	.L37
 750              	.LVL101:
 751              	.L23:
 314:Drivers/STM32F4xx_StdPeriph_Driver/src/stm32f4xx_cryp_aes.c ****   {
 315:Drivers/STM32F4xx_StdPeriph_Driver/src/stm32f4xx_cryp_aes.c ****     case 128:
 316:Drivers/STM32F4xx_StdPeriph_Driver/src/stm32f4xx_cryp_aes.c ****     AES_CRYP_InitStructure.CRYP_KeySize = CRYP_KeySize_128b;
 317:Drivers/STM32F4xx_StdPeriph_Driver/src/stm32f4xx_cryp_aes.c ****     AES_CRYP_KeyInitStructure.CRYP_Key2Left = __REV(*(uint32_t*)(keyaddr));
 318:Drivers/STM32F4xx_StdPeriph_Driver/src/stm32f4xx_cryp_aes.c ****     keyaddr+=4;
 319:Drivers/STM32F4xx_StdPeriph_Driver/src/stm32f4xx_cryp_aes.c ****     AES_CRYP_KeyInitStructure.CRYP_Key2Right= __REV(*(uint32_t*)(keyaddr));
 320:Drivers/STM32F4xx_StdPeriph_Driver/src/stm32f4xx_cryp_aes.c ****     keyaddr+=4;
 321:Drivers/STM32F4xx_StdPeriph_Driver/src/stm32f4xx_cryp_aes.c ****     AES_CRYP_KeyInitStructure.CRYP_Key3Left = __REV(*(uint32_t*)(keyaddr));
 322:Drivers/STM32F4xx_StdPeriph_Driver/src/stm32f4xx_cryp_aes.c ****     keyaddr+=4;
 323:Drivers/STM32F4xx_StdPeriph_Driver/src/stm32f4xx_cryp_aes.c ****     AES_CRYP_KeyInitStructure.CRYP_Key3Right= __REV(*(uint32_t*)(keyaddr));
 324:Drivers/STM32F4xx_StdPeriph_Driver/src/stm32f4xx_cryp_aes.c ****     break;
 325:Drivers/STM32F4xx_StdPeriph_Driver/src/stm32f4xx_cryp_aes.c ****     case 192:
 326:Drivers/STM32F4xx_StdPeriph_Driver/src/stm32f4xx_cryp_aes.c ****     AES_CRYP_InitStructure.CRYP_KeySize  = CRYP_KeySize_192b;
 327:Drivers/STM32F4xx_StdPeriph_Driver/src/stm32f4xx_cryp_aes.c ****     AES_CRYP_KeyInitStructure.CRYP_Key1Left = __REV(*(uint32_t*)(keyaddr));
 328:Drivers/STM32F4xx_StdPeriph_Driver/src/stm32f4xx_cryp_aes.c ****     keyaddr+=4;
 329:Drivers/STM32F4xx_StdPeriph_Driver/src/stm32f4xx_cryp_aes.c ****     AES_CRYP_KeyInitStructure.CRYP_Key1Right= __REV(*(uint32_t*)(keyaddr));
 330:Drivers/STM32F4xx_StdPeriph_Driver/src/stm32f4xx_cryp_aes.c ****     keyaddr+=4;
 331:Drivers/STM32F4xx_StdPeriph_Driver/src/stm32f4xx_cryp_aes.c ****     AES_CRYP_KeyInitStructure.CRYP_Key2Left = __REV(*(uint32_t*)(keyaddr));
 332:Drivers/STM32F4xx_StdPeriph_Driver/src/stm32f4xx_cryp_aes.c ****     keyaddr+=4;
 333:Drivers/STM32F4xx_StdPeriph_Driver/src/stm32f4xx_cryp_aes.c ****     AES_CRYP_KeyInitStructure.CRYP_Key2Right= __REV(*(uint32_t*)(keyaddr));
 334:Drivers/STM32F4xx_StdPeriph_Driver/src/stm32f4xx_cryp_aes.c ****     keyaddr+=4;
 335:Drivers/STM32F4xx_StdPeriph_Driver/src/stm32f4xx_cryp_aes.c ****     AES_CRYP_KeyInitStructure.CRYP_Key3Left = __REV(*(uint32_t*)(keyaddr));
 336:Drivers/STM32F4xx_StdPeriph_Driver/src/stm32f4xx_cryp_aes.c ****     keyaddr+=4;
 337:Drivers/STM32F4xx_StdPeriph_Driver/src/stm32f4xx_cryp_aes.c ****     AES_CRYP_KeyInitStructure.CRYP_Key3Right= __REV(*(uint32_t*)(keyaddr));
 338:Drivers/STM32F4xx_StdPeriph_Driver/src/stm32f4xx_cryp_aes.c ****     break;
 339:Drivers/STM32F4xx_StdPeriph_Driver/src/stm32f4xx_cryp_aes.c ****     case 256:
 340:Drivers/STM32F4xx_StdPeriph_Driver/src/stm32f4xx_cryp_aes.c ****     AES_CRYP_InitStructure.CRYP_KeySize  = CRYP_KeySize_256b;
 341:Drivers/STM32F4xx_StdPeriph_Driver/src/stm32f4xx_cryp_aes.c ****     AES_CRYP_KeyInitStructure.CRYP_Key0Left = __REV(*(uint32_t*)(keyaddr));
 342:Drivers/STM32F4xx_StdPeriph_Driver/src/stm32f4xx_cryp_aes.c ****     keyaddr+=4;
ARM GAS  /tmp/ccjGnpiF.s 			page 31


 343:Drivers/STM32F4xx_StdPeriph_Driver/src/stm32f4xx_cryp_aes.c ****     AES_CRYP_KeyInitStructure.CRYP_Key0Right= __REV(*(uint32_t*)(keyaddr));
 344:Drivers/STM32F4xx_StdPeriph_Driver/src/stm32f4xx_cryp_aes.c ****     keyaddr+=4;
 345:Drivers/STM32F4xx_StdPeriph_Driver/src/stm32f4xx_cryp_aes.c ****     AES_CRYP_KeyInitStructure.CRYP_Key1Left = __REV(*(uint32_t*)(keyaddr));
 346:Drivers/STM32F4xx_StdPeriph_Driver/src/stm32f4xx_cryp_aes.c ****     keyaddr+=4;
 347:Drivers/STM32F4xx_StdPeriph_Driver/src/stm32f4xx_cryp_aes.c ****     AES_CRYP_KeyInitStructure.CRYP_Key1Right= __REV(*(uint32_t*)(keyaddr));
 348:Drivers/STM32F4xx_StdPeriph_Driver/src/stm32f4xx_cryp_aes.c ****     keyaddr+=4;
 349:Drivers/STM32F4xx_StdPeriph_Driver/src/stm32f4xx_cryp_aes.c ****     AES_CRYP_KeyInitStructure.CRYP_Key2Left = __REV(*(uint32_t*)(keyaddr));
 350:Drivers/STM32F4xx_StdPeriph_Driver/src/stm32f4xx_cryp_aes.c ****     keyaddr+=4;
 351:Drivers/STM32F4xx_StdPeriph_Driver/src/stm32f4xx_cryp_aes.c ****     AES_CRYP_KeyInitStructure.CRYP_Key2Right= __REV(*(uint32_t*)(keyaddr));
 352:Drivers/STM32F4xx_StdPeriph_Driver/src/stm32f4xx_cryp_aes.c ****     keyaddr+=4;
 353:Drivers/STM32F4xx_StdPeriph_Driver/src/stm32f4xx_cryp_aes.c ****     AES_CRYP_KeyInitStructure.CRYP_Key3Left = __REV(*(uint32_t*)(keyaddr));
 354:Drivers/STM32F4xx_StdPeriph_Driver/src/stm32f4xx_cryp_aes.c ****     keyaddr+=4;
 355:Drivers/STM32F4xx_StdPeriph_Driver/src/stm32f4xx_cryp_aes.c ****     AES_CRYP_KeyInitStructure.CRYP_Key3Right= __REV(*(uint32_t*)(keyaddr));
 356:Drivers/STM32F4xx_StdPeriph_Driver/src/stm32f4xx_cryp_aes.c ****     break;
 357:Drivers/STM32F4xx_StdPeriph_Driver/src/stm32f4xx_cryp_aes.c ****     default:
 358:Drivers/STM32F4xx_StdPeriph_Driver/src/stm32f4xx_cryp_aes.c ****     break;
 359:Drivers/STM32F4xx_StdPeriph_Driver/src/stm32f4xx_cryp_aes.c ****   }
 360:Drivers/STM32F4xx_StdPeriph_Driver/src/stm32f4xx_cryp_aes.c **** 
 361:Drivers/STM32F4xx_StdPeriph_Driver/src/stm32f4xx_cryp_aes.c ****   /* CRYP Initialization Vectors */
 362:Drivers/STM32F4xx_StdPeriph_Driver/src/stm32f4xx_cryp_aes.c ****   AES_CRYP_IVInitStructure.CRYP_IV0Left = __REV(*(uint32_t*)(ivaddr));
 752              		.loc 1 362 3 view .LVU281
 753              		.loc 1 362 43 is_stmt 0 view .LVU282
 754 0032 2B68     		ldr	r3, [r5]
 755              	.LVL102:
 756              	.LBB266:
 757              	.LBI266:
 495:Drivers/CMSIS/Include/core_cmInstr.h **** {
 758              		.loc 2 495 57 is_stmt 1 view .LVU283
 759              	.LBB267:
 760              		.loc 2 498 3 view .LVU284
 761              		.loc 2 498 10 is_stmt 0 view .LVU285
 762 0034 1BBA     		rev	r3, r3
 763              	.LVL103:
 764              		.loc 2 498 10 view .LVU286
 765              	.LBE267:
 766              	.LBE266:
 767              		.loc 1 362 41 view .LVU287
 768 0036 0293     		str	r3, [sp, #8]
 363:Drivers/STM32F4xx_StdPeriph_Driver/src/stm32f4xx_cryp_aes.c ****   ivaddr+=4;
 769              		.loc 1 363 3 is_stmt 1 view .LVU288
 770              	.LVL104:
 364:Drivers/STM32F4xx_StdPeriph_Driver/src/stm32f4xx_cryp_aes.c ****   AES_CRYP_IVInitStructure.CRYP_IV0Right= __REV(*(uint32_t*)(ivaddr));
 771              		.loc 1 364 3 view .LVU289
 772              		.loc 1 364 43 is_stmt 0 view .LVU290
 773 0038 6B68     		ldr	r3, [r5, #4]
 774              	.LVL105:
 775              	.LBB268:
 776              	.LBI268:
 495:Drivers/CMSIS/Include/core_cmInstr.h **** {
 777              		.loc 2 495 57 is_stmt 1 view .LVU291
 778              	.LBB269:
 779              		.loc 2 498 3 view .LVU292
 780              		.loc 2 498 10 is_stmt 0 view .LVU293
 781 003a 1BBA     		rev	r3, r3
 782              	.LVL106:
 783              		.loc 2 498 10 view .LVU294
 784              	.LBE269:
ARM GAS  /tmp/ccjGnpiF.s 			page 32


 785              	.LBE268:
 786              		.loc 1 364 41 view .LVU295
 787 003c 0393     		str	r3, [sp, #12]
 365:Drivers/STM32F4xx_StdPeriph_Driver/src/stm32f4xx_cryp_aes.c ****   ivaddr+=4;
 788              		.loc 1 365 3 is_stmt 1 view .LVU296
 789              	.LVL107:
 366:Drivers/STM32F4xx_StdPeriph_Driver/src/stm32f4xx_cryp_aes.c ****   AES_CRYP_IVInitStructure.CRYP_IV1Left = __REV(*(uint32_t*)(ivaddr));
 790              		.loc 1 366 3 view .LVU297
 791              		.loc 1 366 43 is_stmt 0 view .LVU298
 792 003e AB68     		ldr	r3, [r5, #8]
 793              	.LVL108:
 794              	.LBB270:
 795              	.LBI270:
 495:Drivers/CMSIS/Include/core_cmInstr.h **** {
 796              		.loc 2 495 57 is_stmt 1 view .LVU299
 797              	.LBB271:
 798              		.loc 2 498 3 view .LVU300
 799              		.loc 2 498 10 is_stmt 0 view .LVU301
 800 0040 1BBA     		rev	r3, r3
 801              	.LVL109:
 802              		.loc 2 498 10 view .LVU302
 803              	.LBE271:
 804              	.LBE270:
 805              		.loc 1 366 41 view .LVU303
 806 0042 0493     		str	r3, [sp, #16]
 367:Drivers/STM32F4xx_StdPeriph_Driver/src/stm32f4xx_cryp_aes.c ****   ivaddr+=4;
 807              		.loc 1 367 3 is_stmt 1 view .LVU304
 808              	.LVL110:
 368:Drivers/STM32F4xx_StdPeriph_Driver/src/stm32f4xx_cryp_aes.c ****   AES_CRYP_IVInitStructure.CRYP_IV1Right= __REV(*(uint32_t*)(ivaddr));
 809              		.loc 1 368 3 view .LVU305
 810              		.loc 1 368 43 is_stmt 0 view .LVU306
 811 0044 EB68     		ldr	r3, [r5, #12]
 812              	.LVL111:
 813              	.LBB272:
 814              	.LBI272:
 495:Drivers/CMSIS/Include/core_cmInstr.h **** {
 815              		.loc 2 495 57 is_stmt 1 view .LVU307
 816              	.LBB273:
 817              		.loc 2 498 3 view .LVU308
 818              		.loc 2 498 10 is_stmt 0 view .LVU309
 819 0046 1BBA     		rev	r3, r3
 820              	.LVL112:
 821              		.loc 2 498 10 view .LVU310
 822              	.LBE273:
 823              	.LBE272:
 824              		.loc 1 368 41 view .LVU311
 825 0048 0593     		str	r3, [sp, #20]
 369:Drivers/STM32F4xx_StdPeriph_Driver/src/stm32f4xx_cryp_aes.c **** 
 370:Drivers/STM32F4xx_StdPeriph_Driver/src/stm32f4xx_cryp_aes.c **** 
 371:Drivers/STM32F4xx_StdPeriph_Driver/src/stm32f4xx_cryp_aes.c ****   /*------------------ AES Decryption ------------------*/
 372:Drivers/STM32F4xx_StdPeriph_Driver/src/stm32f4xx_cryp_aes.c ****   if(Mode == MODE_DECRYPT) /* AES decryption */
 826              		.loc 1 372 3 is_stmt 1 view .LVU312
 827              		.loc 1 372 5 is_stmt 0 view .LVU313
 828 004a 002E     		cmp	r6, #0
 829 004c 75D1     		bne	.L24
 373:Drivers/STM32F4xx_StdPeriph_Driver/src/stm32f4xx_cryp_aes.c ****   {
 374:Drivers/STM32F4xx_StdPeriph_Driver/src/stm32f4xx_cryp_aes.c ****     /* Flush IN/OUT FIFOs */
ARM GAS  /tmp/ccjGnpiF.s 			page 33


 375:Drivers/STM32F4xx_StdPeriph_Driver/src/stm32f4xx_cryp_aes.c ****     CRYP_FIFOFlush();
 830              		.loc 1 375 5 is_stmt 1 view .LVU314
 831 004e FFF7FEFF 		bl	CRYP_FIFOFlush
 832              	.LVL113:
 376:Drivers/STM32F4xx_StdPeriph_Driver/src/stm32f4xx_cryp_aes.c **** 
 377:Drivers/STM32F4xx_StdPeriph_Driver/src/stm32f4xx_cryp_aes.c ****     /* Crypto Init for Key preparation for decryption process */
 378:Drivers/STM32F4xx_StdPeriph_Driver/src/stm32f4xx_cryp_aes.c ****     AES_CRYP_InitStructure.CRYP_AlgoDir = CRYP_AlgoDir_Decrypt;
 833              		.loc 1 378 5 view .LVU315
 834              		.loc 1 378 41 is_stmt 0 view .LVU316
 835 0052 0423     		movs	r3, #4
 836 0054 0E93     		str	r3, [sp, #56]
 379:Drivers/STM32F4xx_StdPeriph_Driver/src/stm32f4xx_cryp_aes.c ****     AES_CRYP_InitStructure.CRYP_AlgoMode = CRYP_AlgoMode_AES_Key;
 837              		.loc 1 379 5 is_stmt 1 view .LVU317
 838              		.loc 1 379 42 is_stmt 0 view .LVU318
 839 0056 3823     		movs	r3, #56
 840 0058 0F93     		str	r3, [sp, #60]
 380:Drivers/STM32F4xx_StdPeriph_Driver/src/stm32f4xx_cryp_aes.c ****     AES_CRYP_InitStructure.CRYP_DataType = CRYP_DataType_32b;
 841              		.loc 1 380 5 is_stmt 1 view .LVU319
 842              		.loc 1 380 42 is_stmt 0 view .LVU320
 843 005a 0023     		movs	r3, #0
 844 005c 1093     		str	r3, [sp, #64]
 381:Drivers/STM32F4xx_StdPeriph_Driver/src/stm32f4xx_cryp_aes.c **** 
 382:Drivers/STM32F4xx_StdPeriph_Driver/src/stm32f4xx_cryp_aes.c ****     CRYP_Init(&AES_CRYP_InitStructure);
 845              		.loc 1 382 5 is_stmt 1 view .LVU321
 846 005e 0EA8     		add	r0, sp, #56
 847 0060 FFF7FEFF 		bl	CRYP_Init
 848              	.LVL114:
 383:Drivers/STM32F4xx_StdPeriph_Driver/src/stm32f4xx_cryp_aes.c **** 
 384:Drivers/STM32F4xx_StdPeriph_Driver/src/stm32f4xx_cryp_aes.c ****     /* Key Initialisation */
 385:Drivers/STM32F4xx_StdPeriph_Driver/src/stm32f4xx_cryp_aes.c ****     CRYP_KeyInit(&AES_CRYP_KeyInitStructure);
 849              		.loc 1 385 5 view .LVU322
 850 0064 06A8     		add	r0, sp, #24
 851 0066 FFF7FEFF 		bl	CRYP_KeyInit
 852              	.LVL115:
 386:Drivers/STM32F4xx_StdPeriph_Driver/src/stm32f4xx_cryp_aes.c **** 
 387:Drivers/STM32F4xx_StdPeriph_Driver/src/stm32f4xx_cryp_aes.c ****     /* Enable Crypto processor */
 388:Drivers/STM32F4xx_StdPeriph_Driver/src/stm32f4xx_cryp_aes.c ****     CRYP_Cmd(ENABLE);
 853              		.loc 1 388 5 view .LVU323
 854 006a 0120     		movs	r0, #1
 855 006c FFF7FEFF 		bl	CRYP_Cmd
 856              	.LVL116:
 857              	.L26:
 389:Drivers/STM32F4xx_StdPeriph_Driver/src/stm32f4xx_cryp_aes.c **** 
 390:Drivers/STM32F4xx_StdPeriph_Driver/src/stm32f4xx_cryp_aes.c ****     /* wait until the Busy flag is RESET */
 391:Drivers/STM32F4xx_StdPeriph_Driver/src/stm32f4xx_cryp_aes.c ****     do
 858              		.loc 1 391 5 discriminator 2 view .LVU324
 392:Drivers/STM32F4xx_StdPeriph_Driver/src/stm32f4xx_cryp_aes.c ****     {
 393:Drivers/STM32F4xx_StdPeriph_Driver/src/stm32f4xx_cryp_aes.c ****       busystatus = CRYP_GetFlagStatus(CRYP_FLAG_BUSY);
 859              		.loc 1 393 7 discriminator 2 view .LVU325
 860              		.loc 1 393 20 is_stmt 0 discriminator 2 view .LVU326
 861 0070 1020     		movs	r0, #16
 862 0072 FFF7FEFF 		bl	CRYP_GetFlagStatus
 863              	.LVL117:
 394:Drivers/STM32F4xx_StdPeriph_Driver/src/stm32f4xx_cryp_aes.c ****       counter++;
 864              		.loc 1 394 7 is_stmt 1 discriminator 2 view .LVU327
 865              		.loc 1 394 14 is_stmt 0 discriminator 2 view .LVU328
 866 0076 019B     		ldr	r3, [sp, #4]
ARM GAS  /tmp/ccjGnpiF.s 			page 34


 867 0078 0133     		adds	r3, r3, #1
 868 007a 0193     		str	r3, [sp, #4]
 395:Drivers/STM32F4xx_StdPeriph_Driver/src/stm32f4xx_cryp_aes.c ****     }while ((counter != AESBUSY_TIMEOUT) && (busystatus != RESET));
 869              		.loc 1 395 12 is_stmt 1 discriminator 2 view .LVU329
 870              		.loc 1 395 22 is_stmt 0 discriminator 2 view .LVU330
 871 007c 019B     		ldr	r3, [sp, #4]
 872              		.loc 1 395 5 discriminator 2 view .LVU331
 873 007e B3F5803F 		cmp	r3, #65536
 874 0082 01D0     		beq	.L25
 875              		.loc 1 395 42 discriminator 1 view .LVU332
 876 0084 0028     		cmp	r0, #0
 877 0086 F3D1     		bne	.L26
 878              	.L25:
 396:Drivers/STM32F4xx_StdPeriph_Driver/src/stm32f4xx_cryp_aes.c **** 
 397:Drivers/STM32F4xx_StdPeriph_Driver/src/stm32f4xx_cryp_aes.c ****     if (busystatus != RESET)
 879              		.loc 1 397 5 is_stmt 1 view .LVU333
 880              		.loc 1 397 8 is_stmt 0 view .LVU334
 881 0088 0028     		cmp	r0, #0
 882 008a 5CD1     		bne	.L27
 398:Drivers/STM32F4xx_StdPeriph_Driver/src/stm32f4xx_cryp_aes.c ****    {
 399:Drivers/STM32F4xx_StdPeriph_Driver/src/stm32f4xx_cryp_aes.c ****        status = ERROR;
 400:Drivers/STM32F4xx_StdPeriph_Driver/src/stm32f4xx_cryp_aes.c ****     }
 401:Drivers/STM32F4xx_StdPeriph_Driver/src/stm32f4xx_cryp_aes.c ****     else
 402:Drivers/STM32F4xx_StdPeriph_Driver/src/stm32f4xx_cryp_aes.c ****     {
 403:Drivers/STM32F4xx_StdPeriph_Driver/src/stm32f4xx_cryp_aes.c ****       /* Crypto Init for decryption process */  
 404:Drivers/STM32F4xx_StdPeriph_Driver/src/stm32f4xx_cryp_aes.c ****       AES_CRYP_InitStructure.CRYP_AlgoDir = CRYP_AlgoDir_Decrypt;
 883              		.loc 1 404 7 is_stmt 1 view .LVU335
 884              		.loc 1 404 43 is_stmt 0 view .LVU336
 885 008c 0423     		movs	r3, #4
 886 008e 0E93     		str	r3, [sp, #56]
 303:Drivers/STM32F4xx_StdPeriph_Driver/src/stm32f4xx_cryp_aes.c ****   uint32_t keyaddr    = (uint32_t)Key;
 887              		.loc 1 303 15 view .LVU337
 888 0090 0126     		movs	r6, #1
 889 0092 58E0     		b	.L27
 890              	.LVL118:
 891              	.L37:
 316:Drivers/STM32F4xx_StdPeriph_Driver/src/stm32f4xx_cryp_aes.c ****     AES_CRYP_KeyInitStructure.CRYP_Key2Left = __REV(*(uint32_t*)(keyaddr));
 892              		.loc 1 316 5 is_stmt 1 view .LVU338
 316:Drivers/STM32F4xx_StdPeriph_Driver/src/stm32f4xx_cryp_aes.c ****     AES_CRYP_KeyInitStructure.CRYP_Key2Left = __REV(*(uint32_t*)(keyaddr));
 893              		.loc 1 316 41 is_stmt 0 view .LVU339
 894 0094 0023     		movs	r3, #0
 895 0096 1193     		str	r3, [sp, #68]
 317:Drivers/STM32F4xx_StdPeriph_Driver/src/stm32f4xx_cryp_aes.c ****     keyaddr+=4;
 896              		.loc 1 317 5 is_stmt 1 view .LVU340
 317:Drivers/STM32F4xx_StdPeriph_Driver/src/stm32f4xx_cryp_aes.c ****     keyaddr+=4;
 897              		.loc 1 317 47 is_stmt 0 view .LVU341
 898 0098 D9F80030 		ldr	r3, [r9]
 899              	.LVL119:
 900              	.LBB274:
 901              	.LBI274:
 495:Drivers/CMSIS/Include/core_cmInstr.h **** {
 902              		.loc 2 495 57 is_stmt 1 view .LVU342
 903              	.LBB275:
 904              		.loc 2 498 3 view .LVU343
 905              		.loc 2 498 10 is_stmt 0 view .LVU344
 906 009c 1BBA     		rev	r3, r3
 907              	.LVL120:
ARM GAS  /tmp/ccjGnpiF.s 			page 35


 908              		.loc 2 498 10 view .LVU345
 909              	.LBE275:
 910              	.LBE274:
 317:Drivers/STM32F4xx_StdPeriph_Driver/src/stm32f4xx_cryp_aes.c ****     keyaddr+=4;
 911              		.loc 1 317 45 view .LVU346
 912 009e 0A93     		str	r3, [sp, #40]
 318:Drivers/STM32F4xx_StdPeriph_Driver/src/stm32f4xx_cryp_aes.c ****     AES_CRYP_KeyInitStructure.CRYP_Key2Right= __REV(*(uint32_t*)(keyaddr));
 913              		.loc 1 318 5 is_stmt 1 view .LVU347
 914              	.LVL121:
 319:Drivers/STM32F4xx_StdPeriph_Driver/src/stm32f4xx_cryp_aes.c ****     keyaddr+=4;
 915              		.loc 1 319 5 view .LVU348
 319:Drivers/STM32F4xx_StdPeriph_Driver/src/stm32f4xx_cryp_aes.c ****     keyaddr+=4;
 916              		.loc 1 319 47 is_stmt 0 view .LVU349
 917 00a0 D9F80430 		ldr	r3, [r9, #4]
 918              	.LVL122:
 919              	.LBB276:
 920              	.LBI276:
 495:Drivers/CMSIS/Include/core_cmInstr.h **** {
 921              		.loc 2 495 57 is_stmt 1 view .LVU350
 922              	.LBB277:
 923              		.loc 2 498 3 view .LVU351
 924              		.loc 2 498 10 is_stmt 0 view .LVU352
 925 00a4 1BBA     		rev	r3, r3
 926              	.LVL123:
 927              		.loc 2 498 10 view .LVU353
 928              	.LBE277:
 929              	.LBE276:
 319:Drivers/STM32F4xx_StdPeriph_Driver/src/stm32f4xx_cryp_aes.c ****     keyaddr+=4;
 930              		.loc 1 319 45 view .LVU354
 931 00a6 0B93     		str	r3, [sp, #44]
 320:Drivers/STM32F4xx_StdPeriph_Driver/src/stm32f4xx_cryp_aes.c ****     AES_CRYP_KeyInitStructure.CRYP_Key3Left = __REV(*(uint32_t*)(keyaddr));
 932              		.loc 1 320 5 is_stmt 1 view .LVU355
 933              	.LVL124:
 321:Drivers/STM32F4xx_StdPeriph_Driver/src/stm32f4xx_cryp_aes.c ****     keyaddr+=4;
 934              		.loc 1 321 5 view .LVU356
 321:Drivers/STM32F4xx_StdPeriph_Driver/src/stm32f4xx_cryp_aes.c ****     keyaddr+=4;
 935              		.loc 1 321 47 is_stmt 0 view .LVU357
 936 00a8 D9F80830 		ldr	r3, [r9, #8]
 937              	.LVL125:
 938              	.LBB278:
 939              	.LBI278:
 495:Drivers/CMSIS/Include/core_cmInstr.h **** {
 940              		.loc 2 495 57 is_stmt 1 view .LVU358
 941              	.LBB279:
 942              		.loc 2 498 3 view .LVU359
 943              		.loc 2 498 10 is_stmt 0 view .LVU360
 944 00ac 1BBA     		rev	r3, r3
 945              	.LVL126:
 946              		.loc 2 498 10 view .LVU361
 947              	.LBE279:
 948              	.LBE278:
 321:Drivers/STM32F4xx_StdPeriph_Driver/src/stm32f4xx_cryp_aes.c ****     keyaddr+=4;
 949              		.loc 1 321 45 view .LVU362
 950 00ae 0C93     		str	r3, [sp, #48]
 322:Drivers/STM32F4xx_StdPeriph_Driver/src/stm32f4xx_cryp_aes.c ****     AES_CRYP_KeyInitStructure.CRYP_Key3Right= __REV(*(uint32_t*)(keyaddr));
 951              		.loc 1 322 5 is_stmt 1 view .LVU363
 952              	.LVL127:
ARM GAS  /tmp/ccjGnpiF.s 			page 36


 323:Drivers/STM32F4xx_StdPeriph_Driver/src/stm32f4xx_cryp_aes.c ****     break;
 953              		.loc 1 323 5 view .LVU364
 323:Drivers/STM32F4xx_StdPeriph_Driver/src/stm32f4xx_cryp_aes.c ****     break;
 954              		.loc 1 323 47 is_stmt 0 view .LVU365
 955 00b0 D9F80C30 		ldr	r3, [r9, #12]
 956              	.LVL128:
 957              	.LBB280:
 958              	.LBI280:
 495:Drivers/CMSIS/Include/core_cmInstr.h **** {
 959              		.loc 2 495 57 is_stmt 1 view .LVU366
 960              	.LBB281:
 961              		.loc 2 498 3 view .LVU367
 962              		.loc 2 498 10 is_stmt 0 view .LVU368
 963 00b4 1BBA     		rev	r3, r3
 964              	.LVL129:
 965              		.loc 2 498 10 view .LVU369
 966              	.LBE281:
 967              	.LBE280:
 323:Drivers/STM32F4xx_StdPeriph_Driver/src/stm32f4xx_cryp_aes.c ****     break;
 968              		.loc 1 323 45 view .LVU370
 969 00b6 0D93     		str	r3, [sp, #52]
 324:Drivers/STM32F4xx_StdPeriph_Driver/src/stm32f4xx_cryp_aes.c ****     case 192:
 970              		.loc 1 324 5 is_stmt 1 view .LVU371
 971 00b8 BBE7     		b	.L23
 972              	.LVL130:
 973              	.L21:
 326:Drivers/STM32F4xx_StdPeriph_Driver/src/stm32f4xx_cryp_aes.c ****     AES_CRYP_KeyInitStructure.CRYP_Key1Left = __REV(*(uint32_t*)(keyaddr));
 974              		.loc 1 326 5 view .LVU372
 326:Drivers/STM32F4xx_StdPeriph_Driver/src/stm32f4xx_cryp_aes.c ****     AES_CRYP_KeyInitStructure.CRYP_Key1Left = __REV(*(uint32_t*)(keyaddr));
 975              		.loc 1 326 42 is_stmt 0 view .LVU373
 976 00ba 4FF48073 		mov	r3, #256
 977 00be 1193     		str	r3, [sp, #68]
 327:Drivers/STM32F4xx_StdPeriph_Driver/src/stm32f4xx_cryp_aes.c ****     keyaddr+=4;
 978              		.loc 1 327 5 is_stmt 1 view .LVU374
 327:Drivers/STM32F4xx_StdPeriph_Driver/src/stm32f4xx_cryp_aes.c ****     keyaddr+=4;
 979              		.loc 1 327 47 is_stmt 0 view .LVU375
 980 00c0 D9F80030 		ldr	r3, [r9]
 981              	.LVL131:
 982              	.LBB282:
 983              	.LBI282:
 495:Drivers/CMSIS/Include/core_cmInstr.h **** {
 984              		.loc 2 495 57 is_stmt 1 view .LVU376
 985              	.LBB283:
 986              		.loc 2 498 3 view .LVU377
 987              		.loc 2 498 10 is_stmt 0 view .LVU378
 988 00c4 1BBA     		rev	r3, r3
 989              	.LVL132:
 990              		.loc 2 498 10 view .LVU379
 991              	.LBE283:
 992              	.LBE282:
 327:Drivers/STM32F4xx_StdPeriph_Driver/src/stm32f4xx_cryp_aes.c ****     keyaddr+=4;
 993              		.loc 1 327 45 view .LVU380
 994 00c6 0893     		str	r3, [sp, #32]
 328:Drivers/STM32F4xx_StdPeriph_Driver/src/stm32f4xx_cryp_aes.c ****     AES_CRYP_KeyInitStructure.CRYP_Key1Right= __REV(*(uint32_t*)(keyaddr));
 995              		.loc 1 328 5 is_stmt 1 view .LVU381
 996              	.LVL133:
 329:Drivers/STM32F4xx_StdPeriph_Driver/src/stm32f4xx_cryp_aes.c ****     keyaddr+=4;
ARM GAS  /tmp/ccjGnpiF.s 			page 37


 997              		.loc 1 329 5 view .LVU382
 329:Drivers/STM32F4xx_StdPeriph_Driver/src/stm32f4xx_cryp_aes.c ****     keyaddr+=4;
 998              		.loc 1 329 47 is_stmt 0 view .LVU383
 999 00c8 D9F80430 		ldr	r3, [r9, #4]
 1000              	.LVL134:
 1001              	.LBB284:
 1002              	.LBI284:
 495:Drivers/CMSIS/Include/core_cmInstr.h **** {
 1003              		.loc 2 495 57 is_stmt 1 view .LVU384
 1004              	.LBB285:
 1005              		.loc 2 498 3 view .LVU385
 1006              		.loc 2 498 10 is_stmt 0 view .LVU386
 1007 00cc 1BBA     		rev	r3, r3
 1008              	.LVL135:
 1009              		.loc 2 498 10 view .LVU387
 1010              	.LBE285:
 1011              	.LBE284:
 329:Drivers/STM32F4xx_StdPeriph_Driver/src/stm32f4xx_cryp_aes.c ****     keyaddr+=4;
 1012              		.loc 1 329 45 view .LVU388
 1013 00ce 0993     		str	r3, [sp, #36]
 330:Drivers/STM32F4xx_StdPeriph_Driver/src/stm32f4xx_cryp_aes.c ****     AES_CRYP_KeyInitStructure.CRYP_Key2Left = __REV(*(uint32_t*)(keyaddr));
 1014              		.loc 1 330 5 is_stmt 1 view .LVU389
 1015              	.LVL136:
 331:Drivers/STM32F4xx_StdPeriph_Driver/src/stm32f4xx_cryp_aes.c ****     keyaddr+=4;
 1016              		.loc 1 331 5 view .LVU390
 331:Drivers/STM32F4xx_StdPeriph_Driver/src/stm32f4xx_cryp_aes.c ****     keyaddr+=4;
 1017              		.loc 1 331 47 is_stmt 0 view .LVU391
 1018 00d0 D9F80830 		ldr	r3, [r9, #8]
 1019              	.LVL137:
 1020              	.LBB286:
 1021              	.LBI286:
 495:Drivers/CMSIS/Include/core_cmInstr.h **** {
 1022              		.loc 2 495 57 is_stmt 1 view .LVU392
 1023              	.LBB287:
 1024              		.loc 2 498 3 view .LVU393
 1025              		.loc 2 498 10 is_stmt 0 view .LVU394
 1026 00d4 1BBA     		rev	r3, r3
 1027              	.LVL138:
 1028              		.loc 2 498 10 view .LVU395
 1029              	.LBE287:
 1030              	.LBE286:
 331:Drivers/STM32F4xx_StdPeriph_Driver/src/stm32f4xx_cryp_aes.c ****     keyaddr+=4;
 1031              		.loc 1 331 45 view .LVU396
 1032 00d6 0A93     		str	r3, [sp, #40]
 332:Drivers/STM32F4xx_StdPeriph_Driver/src/stm32f4xx_cryp_aes.c ****     AES_CRYP_KeyInitStructure.CRYP_Key2Right= __REV(*(uint32_t*)(keyaddr));
 1033              		.loc 1 332 5 is_stmt 1 view .LVU397
 1034              	.LVL139:
 333:Drivers/STM32F4xx_StdPeriph_Driver/src/stm32f4xx_cryp_aes.c ****     keyaddr+=4;
 1035              		.loc 1 333 5 view .LVU398
 333:Drivers/STM32F4xx_StdPeriph_Driver/src/stm32f4xx_cryp_aes.c ****     keyaddr+=4;
 1036              		.loc 1 333 47 is_stmt 0 view .LVU399
 1037 00d8 D9F80C30 		ldr	r3, [r9, #12]
 1038              	.LVL140:
 1039              	.LBB288:
 1040              	.LBI288:
 495:Drivers/CMSIS/Include/core_cmInstr.h **** {
 1041              		.loc 2 495 57 is_stmt 1 view .LVU400
ARM GAS  /tmp/ccjGnpiF.s 			page 38


 1042              	.LBB289:
 1043              		.loc 2 498 3 view .LVU401
 1044              		.loc 2 498 10 is_stmt 0 view .LVU402
 1045 00dc 1BBA     		rev	r3, r3
 1046              	.LVL141:
 1047              		.loc 2 498 10 view .LVU403
 1048              	.LBE289:
 1049              	.LBE288:
 333:Drivers/STM32F4xx_StdPeriph_Driver/src/stm32f4xx_cryp_aes.c ****     keyaddr+=4;
 1050              		.loc 1 333 45 view .LVU404
 1051 00de 0B93     		str	r3, [sp, #44]
 334:Drivers/STM32F4xx_StdPeriph_Driver/src/stm32f4xx_cryp_aes.c ****     AES_CRYP_KeyInitStructure.CRYP_Key3Left = __REV(*(uint32_t*)(keyaddr));
 1052              		.loc 1 334 5 is_stmt 1 view .LVU405
 1053              	.LVL142:
 335:Drivers/STM32F4xx_StdPeriph_Driver/src/stm32f4xx_cryp_aes.c ****     keyaddr+=4;
 1054              		.loc 1 335 5 view .LVU406
 335:Drivers/STM32F4xx_StdPeriph_Driver/src/stm32f4xx_cryp_aes.c ****     keyaddr+=4;
 1055              		.loc 1 335 47 is_stmt 0 view .LVU407
 1056 00e0 D9F81030 		ldr	r3, [r9, #16]
 1057              	.LVL143:
 1058              	.LBB290:
 1059              	.LBI290:
 495:Drivers/CMSIS/Include/core_cmInstr.h **** {
 1060              		.loc 2 495 57 is_stmt 1 view .LVU408
 1061              	.LBB291:
 1062              		.loc 2 498 3 view .LVU409
 1063              		.loc 2 498 10 is_stmt 0 view .LVU410
 1064 00e4 1BBA     		rev	r3, r3
 1065              	.LVL144:
 1066              		.loc 2 498 10 view .LVU411
 1067              	.LBE291:
 1068              	.LBE290:
 335:Drivers/STM32F4xx_StdPeriph_Driver/src/stm32f4xx_cryp_aes.c ****     keyaddr+=4;
 1069              		.loc 1 335 45 view .LVU412
 1070 00e6 0C93     		str	r3, [sp, #48]
 336:Drivers/STM32F4xx_StdPeriph_Driver/src/stm32f4xx_cryp_aes.c ****     AES_CRYP_KeyInitStructure.CRYP_Key3Right= __REV(*(uint32_t*)(keyaddr));
 1071              		.loc 1 336 5 is_stmt 1 view .LVU413
 1072              	.LVL145:
 337:Drivers/STM32F4xx_StdPeriph_Driver/src/stm32f4xx_cryp_aes.c ****     break;
 1073              		.loc 1 337 5 view .LVU414
 337:Drivers/STM32F4xx_StdPeriph_Driver/src/stm32f4xx_cryp_aes.c ****     break;
 1074              		.loc 1 337 47 is_stmt 0 view .LVU415
 1075 00e8 D9F81430 		ldr	r3, [r9, #20]
 1076              	.LVL146:
 1077              	.LBB292:
 1078              	.LBI292:
 495:Drivers/CMSIS/Include/core_cmInstr.h **** {
 1079              		.loc 2 495 57 is_stmt 1 view .LVU416
 1080              	.LBB293:
 1081              		.loc 2 498 3 view .LVU417
 1082              		.loc 2 498 10 is_stmt 0 view .LVU418
 1083 00ec 1BBA     		rev	r3, r3
 1084              	.LVL147:
 1085              		.loc 2 498 10 view .LVU419
 1086              	.LBE293:
 1087              	.LBE292:
 337:Drivers/STM32F4xx_StdPeriph_Driver/src/stm32f4xx_cryp_aes.c ****     break;
ARM GAS  /tmp/ccjGnpiF.s 			page 39


 1088              		.loc 1 337 45 view .LVU420
 1089 00ee 0D93     		str	r3, [sp, #52]
 338:Drivers/STM32F4xx_StdPeriph_Driver/src/stm32f4xx_cryp_aes.c ****     case 256:
 1090              		.loc 1 338 5 is_stmt 1 view .LVU421
 1091 00f0 9FE7     		b	.L23
 1092              	.LVL148:
 1093              	.L22:
 340:Drivers/STM32F4xx_StdPeriph_Driver/src/stm32f4xx_cryp_aes.c ****     AES_CRYP_KeyInitStructure.CRYP_Key0Left = __REV(*(uint32_t*)(keyaddr));
 1094              		.loc 1 340 5 view .LVU422
 340:Drivers/STM32F4xx_StdPeriph_Driver/src/stm32f4xx_cryp_aes.c ****     AES_CRYP_KeyInitStructure.CRYP_Key0Left = __REV(*(uint32_t*)(keyaddr));
 1095              		.loc 1 340 42 is_stmt 0 view .LVU423
 1096 00f2 4FF40073 		mov	r3, #512
 1097 00f6 1193     		str	r3, [sp, #68]
 341:Drivers/STM32F4xx_StdPeriph_Driver/src/stm32f4xx_cryp_aes.c ****     keyaddr+=4;
 1098              		.loc 1 341 5 is_stmt 1 view .LVU424
 341:Drivers/STM32F4xx_StdPeriph_Driver/src/stm32f4xx_cryp_aes.c ****     keyaddr+=4;
 1099              		.loc 1 341 47 is_stmt 0 view .LVU425
 1100 00f8 D9F80030 		ldr	r3, [r9]
 1101              	.LVL149:
 1102              	.LBB294:
 1103              	.LBI294:
 495:Drivers/CMSIS/Include/core_cmInstr.h **** {
 1104              		.loc 2 495 57 is_stmt 1 view .LVU426
 1105              	.LBB295:
 1106              		.loc 2 498 3 view .LVU427
 1107              		.loc 2 498 10 is_stmt 0 view .LVU428
 1108 00fc 1BBA     		rev	r3, r3
 1109              	.LVL150:
 1110              		.loc 2 498 10 view .LVU429
 1111              	.LBE295:
 1112              	.LBE294:
 341:Drivers/STM32F4xx_StdPeriph_Driver/src/stm32f4xx_cryp_aes.c ****     keyaddr+=4;
 1113              		.loc 1 341 45 view .LVU430
 1114 00fe 0693     		str	r3, [sp, #24]
 342:Drivers/STM32F4xx_StdPeriph_Driver/src/stm32f4xx_cryp_aes.c ****     AES_CRYP_KeyInitStructure.CRYP_Key0Right= __REV(*(uint32_t*)(keyaddr));
 1115              		.loc 1 342 5 is_stmt 1 view .LVU431
 1116              	.LVL151:
 343:Drivers/STM32F4xx_StdPeriph_Driver/src/stm32f4xx_cryp_aes.c ****     keyaddr+=4;
 1117              		.loc 1 343 5 view .LVU432
 343:Drivers/STM32F4xx_StdPeriph_Driver/src/stm32f4xx_cryp_aes.c ****     keyaddr+=4;
 1118              		.loc 1 343 47 is_stmt 0 view .LVU433
 1119 0100 D9F80430 		ldr	r3, [r9, #4]
 1120              	.LVL152:
 1121              	.LBB296:
 1122              	.LBI296:
 495:Drivers/CMSIS/Include/core_cmInstr.h **** {
 1123              		.loc 2 495 57 is_stmt 1 view .LVU434
 1124              	.LBB297:
 1125              		.loc 2 498 3 view .LVU435
 1126              		.loc 2 498 10 is_stmt 0 view .LVU436
 1127 0104 1BBA     		rev	r3, r3
 1128              	.LVL153:
 1129              		.loc 2 498 10 view .LVU437
 1130              	.LBE297:
 1131              	.LBE296:
 343:Drivers/STM32F4xx_StdPeriph_Driver/src/stm32f4xx_cryp_aes.c ****     keyaddr+=4;
 1132              		.loc 1 343 45 view .LVU438
ARM GAS  /tmp/ccjGnpiF.s 			page 40


 1133 0106 0793     		str	r3, [sp, #28]
 344:Drivers/STM32F4xx_StdPeriph_Driver/src/stm32f4xx_cryp_aes.c ****     AES_CRYP_KeyInitStructure.CRYP_Key1Left = __REV(*(uint32_t*)(keyaddr));
 1134              		.loc 1 344 5 is_stmt 1 view .LVU439
 1135              	.LVL154:
 345:Drivers/STM32F4xx_StdPeriph_Driver/src/stm32f4xx_cryp_aes.c ****     keyaddr+=4;
 1136              		.loc 1 345 5 view .LVU440
 345:Drivers/STM32F4xx_StdPeriph_Driver/src/stm32f4xx_cryp_aes.c ****     keyaddr+=4;
 1137              		.loc 1 345 47 is_stmt 0 view .LVU441
 1138 0108 D9F80830 		ldr	r3, [r9, #8]
 1139              	.LVL155:
 1140              	.LBB298:
 1141              	.LBI298:
 495:Drivers/CMSIS/Include/core_cmInstr.h **** {
 1142              		.loc 2 495 57 is_stmt 1 view .LVU442
 1143              	.LBB299:
 1144              		.loc 2 498 3 view .LVU443
 1145              		.loc 2 498 10 is_stmt 0 view .LVU444
 1146 010c 1BBA     		rev	r3, r3
 1147              	.LVL156:
 1148              		.loc 2 498 10 view .LVU445
 1149              	.LBE299:
 1150              	.LBE298:
 345:Drivers/STM32F4xx_StdPeriph_Driver/src/stm32f4xx_cryp_aes.c ****     keyaddr+=4;
 1151              		.loc 1 345 45 view .LVU446
 1152 010e 0893     		str	r3, [sp, #32]
 346:Drivers/STM32F4xx_StdPeriph_Driver/src/stm32f4xx_cryp_aes.c ****     AES_CRYP_KeyInitStructure.CRYP_Key1Right= __REV(*(uint32_t*)(keyaddr));
 1153              		.loc 1 346 5 is_stmt 1 view .LVU447
 1154              	.LVL157:
 347:Drivers/STM32F4xx_StdPeriph_Driver/src/stm32f4xx_cryp_aes.c ****     keyaddr+=4;
 1155              		.loc 1 347 5 view .LVU448
 347:Drivers/STM32F4xx_StdPeriph_Driver/src/stm32f4xx_cryp_aes.c ****     keyaddr+=4;
 1156              		.loc 1 347 47 is_stmt 0 view .LVU449
 1157 0110 D9F80C30 		ldr	r3, [r9, #12]
 1158              	.LVL158:
 1159              	.LBB300:
 1160              	.LBI300:
 495:Drivers/CMSIS/Include/core_cmInstr.h **** {
 1161              		.loc 2 495 57 is_stmt 1 view .LVU450
 1162              	.LBB301:
 1163              		.loc 2 498 3 view .LVU451
 1164              		.loc 2 498 10 is_stmt 0 view .LVU452
 1165 0114 1BBA     		rev	r3, r3
 1166              	.LVL159:
 1167              		.loc 2 498 10 view .LVU453
 1168              	.LBE301:
 1169              	.LBE300:
 347:Drivers/STM32F4xx_StdPeriph_Driver/src/stm32f4xx_cryp_aes.c ****     keyaddr+=4;
 1170              		.loc 1 347 45 view .LVU454
 1171 0116 0993     		str	r3, [sp, #36]
 348:Drivers/STM32F4xx_StdPeriph_Driver/src/stm32f4xx_cryp_aes.c ****     AES_CRYP_KeyInitStructure.CRYP_Key2Left = __REV(*(uint32_t*)(keyaddr));
 1172              		.loc 1 348 5 is_stmt 1 view .LVU455
 1173              	.LVL160:
 349:Drivers/STM32F4xx_StdPeriph_Driver/src/stm32f4xx_cryp_aes.c ****     keyaddr+=4;
 1174              		.loc 1 349 5 view .LVU456
 349:Drivers/STM32F4xx_StdPeriph_Driver/src/stm32f4xx_cryp_aes.c ****     keyaddr+=4;
 1175              		.loc 1 349 47 is_stmt 0 view .LVU457
 1176 0118 D9F81030 		ldr	r3, [r9, #16]
ARM GAS  /tmp/ccjGnpiF.s 			page 41


 1177              	.LVL161:
 1178              	.LBB302:
 1179              	.LBI302:
 495:Drivers/CMSIS/Include/core_cmInstr.h **** {
 1180              		.loc 2 495 57 is_stmt 1 view .LVU458
 1181              	.LBB303:
 1182              		.loc 2 498 3 view .LVU459
 1183              		.loc 2 498 10 is_stmt 0 view .LVU460
 1184 011c 1BBA     		rev	r3, r3
 1185              	.LVL162:
 1186              		.loc 2 498 10 view .LVU461
 1187              	.LBE303:
 1188              	.LBE302:
 349:Drivers/STM32F4xx_StdPeriph_Driver/src/stm32f4xx_cryp_aes.c ****     keyaddr+=4;
 1189              		.loc 1 349 45 view .LVU462
 1190 011e 0A93     		str	r3, [sp, #40]
 350:Drivers/STM32F4xx_StdPeriph_Driver/src/stm32f4xx_cryp_aes.c ****     AES_CRYP_KeyInitStructure.CRYP_Key2Right= __REV(*(uint32_t*)(keyaddr));
 1191              		.loc 1 350 5 is_stmt 1 view .LVU463
 1192              	.LVL163:
 351:Drivers/STM32F4xx_StdPeriph_Driver/src/stm32f4xx_cryp_aes.c ****     keyaddr+=4;
 1193              		.loc 1 351 5 view .LVU464
 351:Drivers/STM32F4xx_StdPeriph_Driver/src/stm32f4xx_cryp_aes.c ****     keyaddr+=4;
 1194              		.loc 1 351 47 is_stmt 0 view .LVU465
 1195 0120 D9F81430 		ldr	r3, [r9, #20]
 1196              	.LVL164:
 1197              	.LBB304:
 1198              	.LBI304:
 495:Drivers/CMSIS/Include/core_cmInstr.h **** {
 1199              		.loc 2 495 57 is_stmt 1 view .LVU466
 1200              	.LBB305:
 1201              		.loc 2 498 3 view .LVU467
 1202              		.loc 2 498 10 is_stmt 0 view .LVU468
 1203 0124 1BBA     		rev	r3, r3
 1204              	.LVL165:
 1205              		.loc 2 498 10 view .LVU469
 1206              	.LBE305:
 1207              	.LBE304:
 351:Drivers/STM32F4xx_StdPeriph_Driver/src/stm32f4xx_cryp_aes.c ****     keyaddr+=4;
 1208              		.loc 1 351 45 view .LVU470
 1209 0126 0B93     		str	r3, [sp, #44]
 352:Drivers/STM32F4xx_StdPeriph_Driver/src/stm32f4xx_cryp_aes.c ****     AES_CRYP_KeyInitStructure.CRYP_Key3Left = __REV(*(uint32_t*)(keyaddr));
 1210              		.loc 1 352 5 is_stmt 1 view .LVU471
 1211              	.LVL166:
 353:Drivers/STM32F4xx_StdPeriph_Driver/src/stm32f4xx_cryp_aes.c ****     keyaddr+=4;
 1212              		.loc 1 353 5 view .LVU472
 353:Drivers/STM32F4xx_StdPeriph_Driver/src/stm32f4xx_cryp_aes.c ****     keyaddr+=4;
 1213              		.loc 1 353 47 is_stmt 0 view .LVU473
 1214 0128 D9F81830 		ldr	r3, [r9, #24]
 1215              	.LVL167:
 1216              	.LBB306:
 1217              	.LBI306:
 495:Drivers/CMSIS/Include/core_cmInstr.h **** {
 1218              		.loc 2 495 57 is_stmt 1 view .LVU474
 1219              	.LBB307:
 1220              		.loc 2 498 3 view .LVU475
 1221              		.loc 2 498 10 is_stmt 0 view .LVU476
 1222 012c 1BBA     		rev	r3, r3
ARM GAS  /tmp/ccjGnpiF.s 			page 42


 1223              	.LVL168:
 1224              		.loc 2 498 10 view .LVU477
 1225              	.LBE307:
 1226              	.LBE306:
 353:Drivers/STM32F4xx_StdPeriph_Driver/src/stm32f4xx_cryp_aes.c ****     keyaddr+=4;
 1227              		.loc 1 353 45 view .LVU478
 1228 012e 0C93     		str	r3, [sp, #48]
 354:Drivers/STM32F4xx_StdPeriph_Driver/src/stm32f4xx_cryp_aes.c ****     AES_CRYP_KeyInitStructure.CRYP_Key3Right= __REV(*(uint32_t*)(keyaddr));
 1229              		.loc 1 354 5 is_stmt 1 view .LVU479
 1230              	.LVL169:
 355:Drivers/STM32F4xx_StdPeriph_Driver/src/stm32f4xx_cryp_aes.c ****     break;
 1231              		.loc 1 355 5 view .LVU480
 355:Drivers/STM32F4xx_StdPeriph_Driver/src/stm32f4xx_cryp_aes.c ****     break;
 1232              		.loc 1 355 47 is_stmt 0 view .LVU481
 1233 0130 D9F81C30 		ldr	r3, [r9, #28]
 1234              	.LVL170:
 1235              	.LBB308:
 1236              	.LBI308:
 495:Drivers/CMSIS/Include/core_cmInstr.h **** {
 1237              		.loc 2 495 57 is_stmt 1 view .LVU482
 1238              	.LBB309:
 1239              		.loc 2 498 3 view .LVU483
 1240              		.loc 2 498 10 is_stmt 0 view .LVU484
 1241 0134 1BBA     		rev	r3, r3
 1242              	.LVL171:
 1243              		.loc 2 498 10 view .LVU485
 1244              	.LBE309:
 1245              	.LBE308:
 355:Drivers/STM32F4xx_StdPeriph_Driver/src/stm32f4xx_cryp_aes.c ****     break;
 1246              		.loc 1 355 45 view .LVU486
 1247 0136 0D93     		str	r3, [sp, #52]
 356:Drivers/STM32F4xx_StdPeriph_Driver/src/stm32f4xx_cryp_aes.c ****     default:
 1248              		.loc 1 356 5 is_stmt 1 view .LVU487
 1249 0138 7BE7     		b	.L23
 1250              	.LVL172:
 1251              	.L24:
 405:Drivers/STM32F4xx_StdPeriph_Driver/src/stm32f4xx_cryp_aes.c ****     }
 406:Drivers/STM32F4xx_StdPeriph_Driver/src/stm32f4xx_cryp_aes.c ****   }
 407:Drivers/STM32F4xx_StdPeriph_Driver/src/stm32f4xx_cryp_aes.c ****   /*------------------ AES Encryption ------------------*/
 408:Drivers/STM32F4xx_StdPeriph_Driver/src/stm32f4xx_cryp_aes.c ****   else /* AES encryption */
 409:Drivers/STM32F4xx_StdPeriph_Driver/src/stm32f4xx_cryp_aes.c ****   {
 410:Drivers/STM32F4xx_StdPeriph_Driver/src/stm32f4xx_cryp_aes.c ****     CRYP_KeyInit(&AES_CRYP_KeyInitStructure);
 1252              		.loc 1 410 5 view .LVU488
 1253 013a 06A8     		add	r0, sp, #24
 1254 013c FFF7FEFF 		bl	CRYP_KeyInit
 1255              	.LVL173:
 411:Drivers/STM32F4xx_StdPeriph_Driver/src/stm32f4xx_cryp_aes.c **** 
 412:Drivers/STM32F4xx_StdPeriph_Driver/src/stm32f4xx_cryp_aes.c ****     /* Crypto Init for Encryption process */
 413:Drivers/STM32F4xx_StdPeriph_Driver/src/stm32f4xx_cryp_aes.c ****     AES_CRYP_InitStructure.CRYP_AlgoDir  = CRYP_AlgoDir_Encrypt;
 1256              		.loc 1 413 5 view .LVU489
 1257              		.loc 1 413 42 is_stmt 0 view .LVU490
 1258 0140 0023     		movs	r3, #0
 1259 0142 0E93     		str	r3, [sp, #56]
 303:Drivers/STM32F4xx_StdPeriph_Driver/src/stm32f4xx_cryp_aes.c ****   uint32_t keyaddr    = (uint32_t)Key;
 1260              		.loc 1 303 15 view .LVU491
 1261 0144 0126     		movs	r6, #1
 1262              	.LVL174:
ARM GAS  /tmp/ccjGnpiF.s 			page 43


 1263              	.L27:
 414:Drivers/STM32F4xx_StdPeriph_Driver/src/stm32f4xx_cryp_aes.c ****   }
 415:Drivers/STM32F4xx_StdPeriph_Driver/src/stm32f4xx_cryp_aes.c ****   AES_CRYP_InitStructure.CRYP_AlgoMode = CRYP_AlgoMode_AES_CBC;
 1264              		.loc 1 415 3 is_stmt 1 view .LVU492
 1265              		.loc 1 415 40 is_stmt 0 view .LVU493
 1266 0146 2823     		movs	r3, #40
 1267 0148 0F93     		str	r3, [sp, #60]
 416:Drivers/STM32F4xx_StdPeriph_Driver/src/stm32f4xx_cryp_aes.c ****   AES_CRYP_InitStructure.CRYP_DataType = CRYP_DataType_8b;
 1268              		.loc 1 416 3 is_stmt 1 view .LVU494
 1269              		.loc 1 416 40 is_stmt 0 view .LVU495
 1270 014a 8023     		movs	r3, #128
 1271 014c 1093     		str	r3, [sp, #64]
 417:Drivers/STM32F4xx_StdPeriph_Driver/src/stm32f4xx_cryp_aes.c ****   CRYP_Init(&AES_CRYP_InitStructure);
 1272              		.loc 1 417 3 is_stmt 1 view .LVU496
 1273 014e 0EA8     		add	r0, sp, #56
 1274 0150 FFF7FEFF 		bl	CRYP_Init
 1275              	.LVL175:
 418:Drivers/STM32F4xx_StdPeriph_Driver/src/stm32f4xx_cryp_aes.c **** 
 419:Drivers/STM32F4xx_StdPeriph_Driver/src/stm32f4xx_cryp_aes.c ****   /* CRYP Initialization Vectors */
 420:Drivers/STM32F4xx_StdPeriph_Driver/src/stm32f4xx_cryp_aes.c ****   CRYP_IVInit(&AES_CRYP_IVInitStructure);
 1276              		.loc 1 420 3 view .LVU497
 1277 0154 02A8     		add	r0, sp, #8
 1278 0156 FFF7FEFF 		bl	CRYP_IVInit
 1279              	.LVL176:
 421:Drivers/STM32F4xx_StdPeriph_Driver/src/stm32f4xx_cryp_aes.c **** 
 422:Drivers/STM32F4xx_StdPeriph_Driver/src/stm32f4xx_cryp_aes.c ****   /* Flush IN/OUT FIFOs */
 423:Drivers/STM32F4xx_StdPeriph_Driver/src/stm32f4xx_cryp_aes.c ****   CRYP_FIFOFlush();
 1280              		.loc 1 423 3 view .LVU498
 1281 015a FFF7FEFF 		bl	CRYP_FIFOFlush
 1282              	.LVL177:
 424:Drivers/STM32F4xx_StdPeriph_Driver/src/stm32f4xx_cryp_aes.c **** 
 425:Drivers/STM32F4xx_StdPeriph_Driver/src/stm32f4xx_cryp_aes.c ****   /* Enable Crypto processor */
 426:Drivers/STM32F4xx_StdPeriph_Driver/src/stm32f4xx_cryp_aes.c ****   CRYP_Cmd(ENABLE);
 1283              		.loc 1 426 3 view .LVU499
 1284 015e 0120     		movs	r0, #1
 1285 0160 FFF7FEFF 		bl	CRYP_Cmd
 1286              	.LVL178:
 427:Drivers/STM32F4xx_StdPeriph_Driver/src/stm32f4xx_cryp_aes.c **** 
 428:Drivers/STM32F4xx_StdPeriph_Driver/src/stm32f4xx_cryp_aes.c ****   if(CRYP_GetCmdStatus() == DISABLE)
 1287              		.loc 1 428 3 view .LVU500
 1288              		.loc 1 428 6 is_stmt 0 view .LVU501
 1289 0164 FFF7FEFF 		bl	CRYP_GetCmdStatus
 1290              	.LVL179:
 1291              		.loc 1 428 5 view .LVU502
 1292 0168 0028     		cmp	r0, #0
 1293 016a 35D0     		beq	.L28
 429:Drivers/STM32F4xx_StdPeriph_Driver/src/stm32f4xx_cryp_aes.c ****   {
 430:Drivers/STM32F4xx_StdPeriph_Driver/src/stm32f4xx_cryp_aes.c ****     /* The CRYP peripheral clock is not enabled or the device doesn't embed 
 431:Drivers/STM32F4xx_StdPeriph_Driver/src/stm32f4xx_cryp_aes.c ****        the CRYP peripheral (please check the device sales type. */
 432:Drivers/STM32F4xx_StdPeriph_Driver/src/stm32f4xx_cryp_aes.c ****     return(ERROR);
 433:Drivers/STM32F4xx_StdPeriph_Driver/src/stm32f4xx_cryp_aes.c ****   }
 434:Drivers/STM32F4xx_StdPeriph_Driver/src/stm32f4xx_cryp_aes.c ****   
 435:Drivers/STM32F4xx_StdPeriph_Driver/src/stm32f4xx_cryp_aes.c ****   for(i=0; ((i<Ilength) && (status != ERROR)); i+=16)
 1294              		.loc 1 435 8 view .LVU503
 1295 016c 0025     		movs	r5, #0
 1296              	.LVL180:
 1297              		.loc 1 435 8 view .LVU504
ARM GAS  /tmp/ccjGnpiF.s 			page 44


 1298 016e 02E0     		b	.L29
 1299              	.LVL181:
 1300              	.L30:
 436:Drivers/STM32F4xx_StdPeriph_Driver/src/stm32f4xx_cryp_aes.c ****   {
 437:Drivers/STM32F4xx_StdPeriph_Driver/src/stm32f4xx_cryp_aes.c **** 
 438:Drivers/STM32F4xx_StdPeriph_Driver/src/stm32f4xx_cryp_aes.c ****     /* Write the Input block in the IN FIFO */
 439:Drivers/STM32F4xx_StdPeriph_Driver/src/stm32f4xx_cryp_aes.c ****     CRYP_DataIn(*(uint32_t*)(inputaddr));
 440:Drivers/STM32F4xx_StdPeriph_Driver/src/stm32f4xx_cryp_aes.c ****     inputaddr+=4;
 441:Drivers/STM32F4xx_StdPeriph_Driver/src/stm32f4xx_cryp_aes.c ****     CRYP_DataIn(*(uint32_t*)(inputaddr));
 442:Drivers/STM32F4xx_StdPeriph_Driver/src/stm32f4xx_cryp_aes.c ****     inputaddr+=4;
 443:Drivers/STM32F4xx_StdPeriph_Driver/src/stm32f4xx_cryp_aes.c ****     CRYP_DataIn(*(uint32_t*)(inputaddr));
 444:Drivers/STM32F4xx_StdPeriph_Driver/src/stm32f4xx_cryp_aes.c ****     inputaddr+=4;
 445:Drivers/STM32F4xx_StdPeriph_Driver/src/stm32f4xx_cryp_aes.c ****     CRYP_DataIn(*(uint32_t*)(inputaddr));
 446:Drivers/STM32F4xx_StdPeriph_Driver/src/stm32f4xx_cryp_aes.c ****     inputaddr+=4;
 447:Drivers/STM32F4xx_StdPeriph_Driver/src/stm32f4xx_cryp_aes.c ****     /* Wait until the complete message has been processed */
 448:Drivers/STM32F4xx_StdPeriph_Driver/src/stm32f4xx_cryp_aes.c ****     counter = 0;
 449:Drivers/STM32F4xx_StdPeriph_Driver/src/stm32f4xx_cryp_aes.c ****     do
 450:Drivers/STM32F4xx_StdPeriph_Driver/src/stm32f4xx_cryp_aes.c ****     {
 451:Drivers/STM32F4xx_StdPeriph_Driver/src/stm32f4xx_cryp_aes.c ****       busystatus = CRYP_GetFlagStatus(CRYP_FLAG_BUSY);
 452:Drivers/STM32F4xx_StdPeriph_Driver/src/stm32f4xx_cryp_aes.c ****       counter++;
 453:Drivers/STM32F4xx_StdPeriph_Driver/src/stm32f4xx_cryp_aes.c ****     }while ((counter != AESBUSY_TIMEOUT) && (busystatus != RESET));
 454:Drivers/STM32F4xx_StdPeriph_Driver/src/stm32f4xx_cryp_aes.c **** 
 455:Drivers/STM32F4xx_StdPeriph_Driver/src/stm32f4xx_cryp_aes.c ****     if (busystatus != RESET)
 1301              		.loc 1 455 5 is_stmt 1 view .LVU505
 1302              		.loc 1 455 8 is_stmt 0 view .LVU506
 1303 0170 00B3     		cbz	r0, .L38
 456:Drivers/STM32F4xx_StdPeriph_Driver/src/stm32f4xx_cryp_aes.c ****    {
 457:Drivers/STM32F4xx_StdPeriph_Driver/src/stm32f4xx_cryp_aes.c ****        status = ERROR;
 1304              		.loc 1 457 15 view .LVU507
 1305 0172 0026     		movs	r6, #0
 1306              	.LVL182:
 1307              	.L32:
 435:Drivers/STM32F4xx_StdPeriph_Driver/src/stm32f4xx_cryp_aes.c ****   {
 1308              		.loc 1 435 48 is_stmt 1 discriminator 2 view .LVU508
 435:Drivers/STM32F4xx_StdPeriph_Driver/src/stm32f4xx_cryp_aes.c ****   {
 1309              		.loc 1 435 49 is_stmt 0 discriminator 2 view .LVU509
 1310 0174 1035     		adds	r5, r5, #16
 1311              	.LVL183:
 1312              	.L29:
 435:Drivers/STM32F4xx_StdPeriph_Driver/src/stm32f4xx_cryp_aes.c ****   {
 1313              		.loc 1 435 12 is_stmt 1 discriminator 1 view .LVU510
 435:Drivers/STM32F4xx_StdPeriph_Driver/src/stm32f4xx_cryp_aes.c ****   {
 1314              		.loc 1 435 3 is_stmt 0 discriminator 1 view .LVU511
 1315 0176 4545     		cmp	r5, r8
 1316 0178 2AD2     		bcs	.L33
 435:Drivers/STM32F4xx_StdPeriph_Driver/src/stm32f4xx_cryp_aes.c ****   {
 1317              		.loc 1 435 25 discriminator 3 view .LVU512
 1318 017a 4EB3     		cbz	r6, .L33
 439:Drivers/STM32F4xx_StdPeriph_Driver/src/stm32f4xx_cryp_aes.c ****     inputaddr+=4;
 1319              		.loc 1 439 5 is_stmt 1 view .LVU513
 1320 017c 2068     		ldr	r0, [r4]
 1321 017e FFF7FEFF 		bl	CRYP_DataIn
 1322              	.LVL184:
 440:Drivers/STM32F4xx_StdPeriph_Driver/src/stm32f4xx_cryp_aes.c ****     CRYP_DataIn(*(uint32_t*)(inputaddr));
 1323              		.loc 1 440 5 view .LVU514
 441:Drivers/STM32F4xx_StdPeriph_Driver/src/stm32f4xx_cryp_aes.c ****     inputaddr+=4;
 1324              		.loc 1 441 5 view .LVU515
ARM GAS  /tmp/ccjGnpiF.s 			page 45


 1325 0182 6068     		ldr	r0, [r4, #4]
 1326 0184 FFF7FEFF 		bl	CRYP_DataIn
 1327              	.LVL185:
 442:Drivers/STM32F4xx_StdPeriph_Driver/src/stm32f4xx_cryp_aes.c ****     CRYP_DataIn(*(uint32_t*)(inputaddr));
 1328              		.loc 1 442 5 view .LVU516
 443:Drivers/STM32F4xx_StdPeriph_Driver/src/stm32f4xx_cryp_aes.c ****     inputaddr+=4;
 1329              		.loc 1 443 5 view .LVU517
 1330 0188 A068     		ldr	r0, [r4, #8]
 1331 018a FFF7FEFF 		bl	CRYP_DataIn
 1332              	.LVL186:
 444:Drivers/STM32F4xx_StdPeriph_Driver/src/stm32f4xx_cryp_aes.c ****     CRYP_DataIn(*(uint32_t*)(inputaddr));
 1333              		.loc 1 444 5 view .LVU518
 445:Drivers/STM32F4xx_StdPeriph_Driver/src/stm32f4xx_cryp_aes.c ****     inputaddr+=4;
 1334              		.loc 1 445 5 view .LVU519
 1335 018e E068     		ldr	r0, [r4, #12]
 1336 0190 FFF7FEFF 		bl	CRYP_DataIn
 1337              	.LVL187:
 446:Drivers/STM32F4xx_StdPeriph_Driver/src/stm32f4xx_cryp_aes.c ****     /* Wait until the complete message has been processed */
 1338              		.loc 1 446 5 view .LVU520
 446:Drivers/STM32F4xx_StdPeriph_Driver/src/stm32f4xx_cryp_aes.c ****     /* Wait until the complete message has been processed */
 1339              		.loc 1 446 14 is_stmt 0 view .LVU521
 1340 0194 1034     		adds	r4, r4, #16
 1341              	.LVL188:
 448:Drivers/STM32F4xx_StdPeriph_Driver/src/stm32f4xx_cryp_aes.c ****     do
 1342              		.loc 1 448 5 is_stmt 1 view .LVU522
 448:Drivers/STM32F4xx_StdPeriph_Driver/src/stm32f4xx_cryp_aes.c ****     do
 1343              		.loc 1 448 13 is_stmt 0 view .LVU523
 1344 0196 0023     		movs	r3, #0
 1345 0198 0193     		str	r3, [sp, #4]
 1346              	.L31:
 449:Drivers/STM32F4xx_StdPeriph_Driver/src/stm32f4xx_cryp_aes.c ****     {
 1347              		.loc 1 449 5 is_stmt 1 discriminator 2 view .LVU524
 451:Drivers/STM32F4xx_StdPeriph_Driver/src/stm32f4xx_cryp_aes.c ****       counter++;
 1348              		.loc 1 451 7 discriminator 2 view .LVU525
 451:Drivers/STM32F4xx_StdPeriph_Driver/src/stm32f4xx_cryp_aes.c ****       counter++;
 1349              		.loc 1 451 20 is_stmt 0 discriminator 2 view .LVU526
 1350 019a 1020     		movs	r0, #16
 1351 019c FFF7FEFF 		bl	CRYP_GetFlagStatus
 1352              	.LVL189:
 452:Drivers/STM32F4xx_StdPeriph_Driver/src/stm32f4xx_cryp_aes.c ****     }while ((counter != AESBUSY_TIMEOUT) && (busystatus != RESET));
 1353              		.loc 1 452 7 is_stmt 1 discriminator 2 view .LVU527
 452:Drivers/STM32F4xx_StdPeriph_Driver/src/stm32f4xx_cryp_aes.c ****     }while ((counter != AESBUSY_TIMEOUT) && (busystatus != RESET));
 1354              		.loc 1 452 14 is_stmt 0 discriminator 2 view .LVU528
 1355 01a0 019B     		ldr	r3, [sp, #4]
 1356 01a2 0133     		adds	r3, r3, #1
 1357 01a4 0193     		str	r3, [sp, #4]
 453:Drivers/STM32F4xx_StdPeriph_Driver/src/stm32f4xx_cryp_aes.c **** 
 1358              		.loc 1 453 12 is_stmt 1 discriminator 2 view .LVU529
 453:Drivers/STM32F4xx_StdPeriph_Driver/src/stm32f4xx_cryp_aes.c **** 
 1359              		.loc 1 453 22 is_stmt 0 discriminator 2 view .LVU530
 1360 01a6 019B     		ldr	r3, [sp, #4]
 453:Drivers/STM32F4xx_StdPeriph_Driver/src/stm32f4xx_cryp_aes.c **** 
 1361              		.loc 1 453 5 discriminator 2 view .LVU531
 1362 01a8 B3F5803F 		cmp	r3, #65536
 1363 01ac E0D0     		beq	.L30
 453:Drivers/STM32F4xx_StdPeriph_Driver/src/stm32f4xx_cryp_aes.c **** 
 1364              		.loc 1 453 42 discriminator 1 view .LVU532
ARM GAS  /tmp/ccjGnpiF.s 			page 46


 1365 01ae 0028     		cmp	r0, #0
 1366 01b0 F3D1     		bne	.L31
 1367 01b2 DDE7     		b	.L30
 1368              	.L38:
 458:Drivers/STM32F4xx_StdPeriph_Driver/src/stm32f4xx_cryp_aes.c ****     }
 459:Drivers/STM32F4xx_StdPeriph_Driver/src/stm32f4xx_cryp_aes.c ****     else
 460:Drivers/STM32F4xx_StdPeriph_Driver/src/stm32f4xx_cryp_aes.c ****     {
 461:Drivers/STM32F4xx_StdPeriph_Driver/src/stm32f4xx_cryp_aes.c **** 
 462:Drivers/STM32F4xx_StdPeriph_Driver/src/stm32f4xx_cryp_aes.c ****       /* Read the Output block from the Output FIFO */
 463:Drivers/STM32F4xx_StdPeriph_Driver/src/stm32f4xx_cryp_aes.c ****       *(uint32_t*)(outputaddr) = CRYP_DataOut();
 1369              		.loc 1 463 7 is_stmt 1 view .LVU533
 1370              		.loc 1 463 34 is_stmt 0 view .LVU534
 1371 01b4 FFF7FEFF 		bl	CRYP_DataOut
 1372              	.LVL190:
 1373              		.loc 1 463 32 view .LVU535
 1374 01b8 3860     		str	r0, [r7]
 464:Drivers/STM32F4xx_StdPeriph_Driver/src/stm32f4xx_cryp_aes.c ****       outputaddr+=4;
 1375              		.loc 1 464 7 is_stmt 1 view .LVU536
 1376              	.LVL191:
 465:Drivers/STM32F4xx_StdPeriph_Driver/src/stm32f4xx_cryp_aes.c ****       *(uint32_t*)(outputaddr) = CRYP_DataOut();
 1377              		.loc 1 465 7 view .LVU537
 1378              		.loc 1 465 34 is_stmt 0 view .LVU538
 1379 01ba FFF7FEFF 		bl	CRYP_DataOut
 1380              	.LVL192:
 1381              		.loc 1 465 32 view .LVU539
 1382 01be 7860     		str	r0, [r7, #4]
 466:Drivers/STM32F4xx_StdPeriph_Driver/src/stm32f4xx_cryp_aes.c ****       outputaddr+=4;
 1383              		.loc 1 466 7 is_stmt 1 view .LVU540
 1384              	.LVL193:
 467:Drivers/STM32F4xx_StdPeriph_Driver/src/stm32f4xx_cryp_aes.c ****       *(uint32_t*)(outputaddr) = CRYP_DataOut();
 1385              		.loc 1 467 7 view .LVU541
 1386              		.loc 1 467 34 is_stmt 0 view .LVU542
 1387 01c0 FFF7FEFF 		bl	CRYP_DataOut
 1388              	.LVL194:
 1389              		.loc 1 467 32 view .LVU543
 1390 01c4 B860     		str	r0, [r7, #8]
 468:Drivers/STM32F4xx_StdPeriph_Driver/src/stm32f4xx_cryp_aes.c ****       outputaddr+=4;
 1391              		.loc 1 468 7 is_stmt 1 view .LVU544
 1392              	.LVL195:
 469:Drivers/STM32F4xx_StdPeriph_Driver/src/stm32f4xx_cryp_aes.c ****       *(uint32_t*)(outputaddr) = CRYP_DataOut();
 1393              		.loc 1 469 7 view .LVU545
 1394              		.loc 1 469 34 is_stmt 0 view .LVU546
 1395 01c6 FFF7FEFF 		bl	CRYP_DataOut
 1396              	.LVL196:
 1397              		.loc 1 469 32 view .LVU547
 1398 01ca F860     		str	r0, [r7, #12]
 470:Drivers/STM32F4xx_StdPeriph_Driver/src/stm32f4xx_cryp_aes.c ****       outputaddr+=4;
 1399              		.loc 1 470 7 is_stmt 1 view .LVU548
 1400              		.loc 1 470 17 is_stmt 0 view .LVU549
 1401 01cc 1037     		adds	r7, r7, #16
 1402              	.LVL197:
 1403              		.loc 1 470 17 view .LVU550
 1404 01ce D1E7     		b	.L32
 1405              	.L33:
 471:Drivers/STM32F4xx_StdPeriph_Driver/src/stm32f4xx_cryp_aes.c ****     }
 472:Drivers/STM32F4xx_StdPeriph_Driver/src/stm32f4xx_cryp_aes.c ****   }
 473:Drivers/STM32F4xx_StdPeriph_Driver/src/stm32f4xx_cryp_aes.c **** 
ARM GAS  /tmp/ccjGnpiF.s 			page 47


 474:Drivers/STM32F4xx_StdPeriph_Driver/src/stm32f4xx_cryp_aes.c ****   /* Disable Crypto */
 475:Drivers/STM32F4xx_StdPeriph_Driver/src/stm32f4xx_cryp_aes.c ****   CRYP_Cmd(DISABLE);
 1406              		.loc 1 475 3 is_stmt 1 view .LVU551
 1407 01d0 0020     		movs	r0, #0
 1408 01d2 FFF7FEFF 		bl	CRYP_Cmd
 1409              	.LVL198:
 476:Drivers/STM32F4xx_StdPeriph_Driver/src/stm32f4xx_cryp_aes.c **** 
 477:Drivers/STM32F4xx_StdPeriph_Driver/src/stm32f4xx_cryp_aes.c ****   return status;
 1410              		.loc 1 477 3 view .LVU552
 1411              		.loc 1 477 10 is_stmt 0 view .LVU553
 1412 01d6 3046     		mov	r0, r6
 1413              	.LVL199:
 1414              	.L28:
 478:Drivers/STM32F4xx_StdPeriph_Driver/src/stm32f4xx_cryp_aes.c **** }
 1415              		.loc 1 478 1 view .LVU554
 1416 01d8 12B0     		add	sp, sp, #72
 1417              		.cfi_def_cfa_offset 32
 1418              		@ sp needed
 1419 01da BDE8F087 		pop	{r4, r5, r6, r7, r8, r9, r10, pc}
 1420              		.loc 1 478 1 view .LVU555
 1421              		.cfi_endproc
 1422              	.LFE124:
 1424              		.section	.text.CRYP_AES_CTR,"ax",%progbits
 1425              		.align	1
 1426              		.global	CRYP_AES_CTR
 1427              		.syntax unified
 1428              		.thumb
 1429              		.thumb_func
 1430              		.fpu fpv4-sp-d16
 1432              	CRYP_AES_CTR:
 1433              	.LVL200:
 1434              	.LFB125:
 479:Drivers/STM32F4xx_StdPeriph_Driver/src/stm32f4xx_cryp_aes.c **** 
 480:Drivers/STM32F4xx_StdPeriph_Driver/src/stm32f4xx_cryp_aes.c **** /**
 481:Drivers/STM32F4xx_StdPeriph_Driver/src/stm32f4xx_cryp_aes.c ****   * @brief  Encrypt and decrypt using AES in CTR Mode
 482:Drivers/STM32F4xx_StdPeriph_Driver/src/stm32f4xx_cryp_aes.c ****   * @param  Mode: encryption or decryption Mode.
 483:Drivers/STM32F4xx_StdPeriph_Driver/src/stm32f4xx_cryp_aes.c ****   *           This parameter can be one of the following values:
 484:Drivers/STM32F4xx_StdPeriph_Driver/src/stm32f4xx_cryp_aes.c ****   *            @arg MODE_ENCRYPT: Encryption
 485:Drivers/STM32F4xx_StdPeriph_Driver/src/stm32f4xx_cryp_aes.c ****   *            @arg MODE_DECRYPT: Decryption
 486:Drivers/STM32F4xx_StdPeriph_Driver/src/stm32f4xx_cryp_aes.c ****   * @param  InitVectors: Initialisation Vectors used for AES algorithm.
 487:Drivers/STM32F4xx_StdPeriph_Driver/src/stm32f4xx_cryp_aes.c ****   * @param  Key: Key used for AES algorithm.
 488:Drivers/STM32F4xx_StdPeriph_Driver/src/stm32f4xx_cryp_aes.c ****   * @param  Keysize: length of the Key, must be a 128, 192 or 256.
 489:Drivers/STM32F4xx_StdPeriph_Driver/src/stm32f4xx_cryp_aes.c ****   * @param  Input: pointer to the Input buffer.
 490:Drivers/STM32F4xx_StdPeriph_Driver/src/stm32f4xx_cryp_aes.c ****   * @param  Ilength: length of the Input buffer, must be a multiple of 16.
 491:Drivers/STM32F4xx_StdPeriph_Driver/src/stm32f4xx_cryp_aes.c ****   * @param  Output: pointer to the returned buffer.
 492:Drivers/STM32F4xx_StdPeriph_Driver/src/stm32f4xx_cryp_aes.c ****   * @retval An ErrorStatus enumeration value:
 493:Drivers/STM32F4xx_StdPeriph_Driver/src/stm32f4xx_cryp_aes.c ****   *          - SUCCESS: Operation done
 494:Drivers/STM32F4xx_StdPeriph_Driver/src/stm32f4xx_cryp_aes.c ****   *          - ERROR: Operation failed
 495:Drivers/STM32F4xx_StdPeriph_Driver/src/stm32f4xx_cryp_aes.c ****   */
 496:Drivers/STM32F4xx_StdPeriph_Driver/src/stm32f4xx_cryp_aes.c **** ErrorStatus CRYP_AES_CTR(uint8_t Mode, uint8_t InitVectors[16], uint8_t *Key, 
 497:Drivers/STM32F4xx_StdPeriph_Driver/src/stm32f4xx_cryp_aes.c ****                          uint16_t Keysize, uint8_t *Input, uint32_t Ilength,
 498:Drivers/STM32F4xx_StdPeriph_Driver/src/stm32f4xx_cryp_aes.c ****                          uint8_t *Output)
 499:Drivers/STM32F4xx_StdPeriph_Driver/src/stm32f4xx_cryp_aes.c **** {
 1435              		.loc 1 499 1 is_stmt 1 view -0
 1436              		.cfi_startproc
 1437              		@ args = 12, pretend = 0, frame = 72
 1438              		@ frame_needed = 0, uses_anonymous_args = 0
ARM GAS  /tmp/ccjGnpiF.s 			page 48


 1439              		.loc 1 499 1 is_stmt 0 view .LVU557
 1440 0000 2DE9F047 		push	{r4, r5, r6, r7, r8, r9, r10, lr}
 1441              		.cfi_def_cfa_offset 32
 1442              		.cfi_offset 4, -32
 1443              		.cfi_offset 5, -28
 1444              		.cfi_offset 6, -24
 1445              		.cfi_offset 7, -20
 1446              		.cfi_offset 8, -16
 1447              		.cfi_offset 9, -12
 1448              		.cfi_offset 10, -8
 1449              		.cfi_offset 14, -4
 1450 0004 92B0     		sub	sp, sp, #72
 1451              		.cfi_def_cfa_offset 104
 1452 0006 8246     		mov	r10, r0
 1453 0008 0D46     		mov	r5, r1
 1454 000a 1646     		mov	r6, r2
 1455 000c 9946     		mov	r9, r3
 1456 000e DDF86C80 		ldr	r8, [sp, #108]
 500:Drivers/STM32F4xx_StdPeriph_Driver/src/stm32f4xx_cryp_aes.c ****   CRYP_InitTypeDef AES_CRYP_InitStructure;
 1457              		.loc 1 500 3 is_stmt 1 view .LVU558
 501:Drivers/STM32F4xx_StdPeriph_Driver/src/stm32f4xx_cryp_aes.c ****   CRYP_KeyInitTypeDef AES_CRYP_KeyInitStructure;
 1458              		.loc 1 501 3 view .LVU559
 502:Drivers/STM32F4xx_StdPeriph_Driver/src/stm32f4xx_cryp_aes.c ****   CRYP_IVInitTypeDef AES_CRYP_IVInitStructure;
 1459              		.loc 1 502 3 view .LVU560
 503:Drivers/STM32F4xx_StdPeriph_Driver/src/stm32f4xx_cryp_aes.c ****   __IO uint32_t counter = 0;
 1460              		.loc 1 503 3 view .LVU561
 1461              		.loc 1 503 17 is_stmt 0 view .LVU562
 1462 0012 0023     		movs	r3, #0
 1463              	.LVL201:
 1464              		.loc 1 503 17 view .LVU563
 1465 0014 0193     		str	r3, [sp, #4]
 504:Drivers/STM32F4xx_StdPeriph_Driver/src/stm32f4xx_cryp_aes.c ****   uint32_t busystatus = 0;
 1466              		.loc 1 504 3 is_stmt 1 view .LVU564
 1467              	.LVL202:
 505:Drivers/STM32F4xx_StdPeriph_Driver/src/stm32f4xx_cryp_aes.c ****   ErrorStatus status = SUCCESS;
 1468              		.loc 1 505 3 view .LVU565
 506:Drivers/STM32F4xx_StdPeriph_Driver/src/stm32f4xx_cryp_aes.c ****   uint32_t keyaddr    = (uint32_t)Key;
 1469              		.loc 1 506 3 view .LVU566
 507:Drivers/STM32F4xx_StdPeriph_Driver/src/stm32f4xx_cryp_aes.c ****   uint32_t inputaddr  = (uint32_t)Input;
 1470              		.loc 1 507 3 view .LVU567
 1471              		.loc 1 507 12 is_stmt 0 view .LVU568
 1472 0016 1A9C     		ldr	r4, [sp, #104]
 1473              	.LVL203:
 508:Drivers/STM32F4xx_StdPeriph_Driver/src/stm32f4xx_cryp_aes.c ****   uint32_t outputaddr = (uint32_t)Output;
 1474              		.loc 1 508 3 is_stmt 1 view .LVU569
 1475              		.loc 1 508 12 is_stmt 0 view .LVU570
 1476 0018 1C9F     		ldr	r7, [sp, #112]
 1477              	.LVL204:
 509:Drivers/STM32F4xx_StdPeriph_Driver/src/stm32f4xx_cryp_aes.c ****   uint32_t ivaddr     = (uint32_t)InitVectors;
 1478              		.loc 1 509 3 is_stmt 1 view .LVU571
 510:Drivers/STM32F4xx_StdPeriph_Driver/src/stm32f4xx_cryp_aes.c ****   uint32_t i = 0;
 1479              		.loc 1 510 3 view .LVU572
 511:Drivers/STM32F4xx_StdPeriph_Driver/src/stm32f4xx_cryp_aes.c **** 
 512:Drivers/STM32F4xx_StdPeriph_Driver/src/stm32f4xx_cryp_aes.c ****   /* Crypto structures initialisation*/
 513:Drivers/STM32F4xx_StdPeriph_Driver/src/stm32f4xx_cryp_aes.c ****   CRYP_KeyStructInit(&AES_CRYP_KeyInitStructure);
 1480              		.loc 1 513 3 view .LVU573
 1481 001a 06A8     		add	r0, sp, #24
ARM GAS  /tmp/ccjGnpiF.s 			page 49


 1482              	.LVL205:
 1483              		.loc 1 513 3 is_stmt 0 view .LVU574
 1484 001c FFF7FEFF 		bl	CRYP_KeyStructInit
 1485              	.LVL206:
 514:Drivers/STM32F4xx_StdPeriph_Driver/src/stm32f4xx_cryp_aes.c **** 
 515:Drivers/STM32F4xx_StdPeriph_Driver/src/stm32f4xx_cryp_aes.c ****   switch(Keysize)
 1486              		.loc 1 515 3 is_stmt 1 view .LVU575
 1487 0020 B9F1C00F 		cmp	r9, #192
 1488 0024 3FD0     		beq	.L40
 1489 0026 B9F5807F 		cmp	r9, #256
 1490 002a 52D0     		beq	.L41
 1491 002c B9F1800F 		cmp	r9, #128
 1492 0030 2AD0     		beq	.L54
 1493              	.LVL207:
 1494              	.L42:
 516:Drivers/STM32F4xx_StdPeriph_Driver/src/stm32f4xx_cryp_aes.c ****   {
 517:Drivers/STM32F4xx_StdPeriph_Driver/src/stm32f4xx_cryp_aes.c ****     case 128:
 518:Drivers/STM32F4xx_StdPeriph_Driver/src/stm32f4xx_cryp_aes.c ****     AES_CRYP_InitStructure.CRYP_KeySize = CRYP_KeySize_128b;
 519:Drivers/STM32F4xx_StdPeriph_Driver/src/stm32f4xx_cryp_aes.c ****     AES_CRYP_KeyInitStructure.CRYP_Key2Left = __REV(*(uint32_t*)(keyaddr));
 520:Drivers/STM32F4xx_StdPeriph_Driver/src/stm32f4xx_cryp_aes.c ****     keyaddr+=4;
 521:Drivers/STM32F4xx_StdPeriph_Driver/src/stm32f4xx_cryp_aes.c ****     AES_CRYP_KeyInitStructure.CRYP_Key2Right= __REV(*(uint32_t*)(keyaddr));
 522:Drivers/STM32F4xx_StdPeriph_Driver/src/stm32f4xx_cryp_aes.c ****     keyaddr+=4;
 523:Drivers/STM32F4xx_StdPeriph_Driver/src/stm32f4xx_cryp_aes.c ****     AES_CRYP_KeyInitStructure.CRYP_Key3Left = __REV(*(uint32_t*)(keyaddr));
 524:Drivers/STM32F4xx_StdPeriph_Driver/src/stm32f4xx_cryp_aes.c ****     keyaddr+=4;
 525:Drivers/STM32F4xx_StdPeriph_Driver/src/stm32f4xx_cryp_aes.c ****     AES_CRYP_KeyInitStructure.CRYP_Key3Right= __REV(*(uint32_t*)(keyaddr));
 526:Drivers/STM32F4xx_StdPeriph_Driver/src/stm32f4xx_cryp_aes.c ****     break;
 527:Drivers/STM32F4xx_StdPeriph_Driver/src/stm32f4xx_cryp_aes.c ****     case 192:
 528:Drivers/STM32F4xx_StdPeriph_Driver/src/stm32f4xx_cryp_aes.c ****     AES_CRYP_InitStructure.CRYP_KeySize  = CRYP_KeySize_192b;
 529:Drivers/STM32F4xx_StdPeriph_Driver/src/stm32f4xx_cryp_aes.c ****     AES_CRYP_KeyInitStructure.CRYP_Key1Left = __REV(*(uint32_t*)(keyaddr));
 530:Drivers/STM32F4xx_StdPeriph_Driver/src/stm32f4xx_cryp_aes.c ****     keyaddr+=4;
 531:Drivers/STM32F4xx_StdPeriph_Driver/src/stm32f4xx_cryp_aes.c ****     AES_CRYP_KeyInitStructure.CRYP_Key1Right= __REV(*(uint32_t*)(keyaddr));
 532:Drivers/STM32F4xx_StdPeriph_Driver/src/stm32f4xx_cryp_aes.c ****     keyaddr+=4;
 533:Drivers/STM32F4xx_StdPeriph_Driver/src/stm32f4xx_cryp_aes.c ****     AES_CRYP_KeyInitStructure.CRYP_Key2Left = __REV(*(uint32_t*)(keyaddr));
 534:Drivers/STM32F4xx_StdPeriph_Driver/src/stm32f4xx_cryp_aes.c ****     keyaddr+=4;
 535:Drivers/STM32F4xx_StdPeriph_Driver/src/stm32f4xx_cryp_aes.c ****     AES_CRYP_KeyInitStructure.CRYP_Key2Right= __REV(*(uint32_t*)(keyaddr));
 536:Drivers/STM32F4xx_StdPeriph_Driver/src/stm32f4xx_cryp_aes.c ****     keyaddr+=4;
 537:Drivers/STM32F4xx_StdPeriph_Driver/src/stm32f4xx_cryp_aes.c ****     AES_CRYP_KeyInitStructure.CRYP_Key3Left = __REV(*(uint32_t*)(keyaddr));
 538:Drivers/STM32F4xx_StdPeriph_Driver/src/stm32f4xx_cryp_aes.c ****     keyaddr+=4;
 539:Drivers/STM32F4xx_StdPeriph_Driver/src/stm32f4xx_cryp_aes.c ****     AES_CRYP_KeyInitStructure.CRYP_Key3Right= __REV(*(uint32_t*)(keyaddr));
 540:Drivers/STM32F4xx_StdPeriph_Driver/src/stm32f4xx_cryp_aes.c ****     break;
 541:Drivers/STM32F4xx_StdPeriph_Driver/src/stm32f4xx_cryp_aes.c ****     case 256:
 542:Drivers/STM32F4xx_StdPeriph_Driver/src/stm32f4xx_cryp_aes.c ****     AES_CRYP_InitStructure.CRYP_KeySize  = CRYP_KeySize_256b;
 543:Drivers/STM32F4xx_StdPeriph_Driver/src/stm32f4xx_cryp_aes.c ****     AES_CRYP_KeyInitStructure.CRYP_Key0Left = __REV(*(uint32_t*)(keyaddr));
 544:Drivers/STM32F4xx_StdPeriph_Driver/src/stm32f4xx_cryp_aes.c ****     keyaddr+=4;
 545:Drivers/STM32F4xx_StdPeriph_Driver/src/stm32f4xx_cryp_aes.c ****     AES_CRYP_KeyInitStructure.CRYP_Key0Right= __REV(*(uint32_t*)(keyaddr));
 546:Drivers/STM32F4xx_StdPeriph_Driver/src/stm32f4xx_cryp_aes.c ****     keyaddr+=4;
 547:Drivers/STM32F4xx_StdPeriph_Driver/src/stm32f4xx_cryp_aes.c ****     AES_CRYP_KeyInitStructure.CRYP_Key1Left = __REV(*(uint32_t*)(keyaddr));
 548:Drivers/STM32F4xx_StdPeriph_Driver/src/stm32f4xx_cryp_aes.c ****     keyaddr+=4;
 549:Drivers/STM32F4xx_StdPeriph_Driver/src/stm32f4xx_cryp_aes.c ****     AES_CRYP_KeyInitStructure.CRYP_Key1Right= __REV(*(uint32_t*)(keyaddr));
 550:Drivers/STM32F4xx_StdPeriph_Driver/src/stm32f4xx_cryp_aes.c ****     keyaddr+=4;
 551:Drivers/STM32F4xx_StdPeriph_Driver/src/stm32f4xx_cryp_aes.c ****     AES_CRYP_KeyInitStructure.CRYP_Key2Left = __REV(*(uint32_t*)(keyaddr));
 552:Drivers/STM32F4xx_StdPeriph_Driver/src/stm32f4xx_cryp_aes.c ****     keyaddr+=4;
 553:Drivers/STM32F4xx_StdPeriph_Driver/src/stm32f4xx_cryp_aes.c ****     AES_CRYP_KeyInitStructure.CRYP_Key2Right= __REV(*(uint32_t*)(keyaddr));
 554:Drivers/STM32F4xx_StdPeriph_Driver/src/stm32f4xx_cryp_aes.c ****     keyaddr+=4;
 555:Drivers/STM32F4xx_StdPeriph_Driver/src/stm32f4xx_cryp_aes.c ****     AES_CRYP_KeyInitStructure.CRYP_Key3Left = __REV(*(uint32_t*)(keyaddr));
 556:Drivers/STM32F4xx_StdPeriph_Driver/src/stm32f4xx_cryp_aes.c ****     keyaddr+=4;
 557:Drivers/STM32F4xx_StdPeriph_Driver/src/stm32f4xx_cryp_aes.c ****     AES_CRYP_KeyInitStructure.CRYP_Key3Right= __REV(*(uint32_t*)(keyaddr));
ARM GAS  /tmp/ccjGnpiF.s 			page 50


 558:Drivers/STM32F4xx_StdPeriph_Driver/src/stm32f4xx_cryp_aes.c ****     break;
 559:Drivers/STM32F4xx_StdPeriph_Driver/src/stm32f4xx_cryp_aes.c ****     default:
 560:Drivers/STM32F4xx_StdPeriph_Driver/src/stm32f4xx_cryp_aes.c ****     break;
 561:Drivers/STM32F4xx_StdPeriph_Driver/src/stm32f4xx_cryp_aes.c ****   }
 562:Drivers/STM32F4xx_StdPeriph_Driver/src/stm32f4xx_cryp_aes.c ****   /* CRYP Initialization Vectors */
 563:Drivers/STM32F4xx_StdPeriph_Driver/src/stm32f4xx_cryp_aes.c ****   AES_CRYP_IVInitStructure.CRYP_IV0Left = __REV(*(uint32_t*)(ivaddr));
 1495              		.loc 1 563 3 view .LVU576
 1496              		.loc 1 563 43 is_stmt 0 view .LVU577
 1497 0032 2B68     		ldr	r3, [r5]
 1498              	.LVL208:
 1499              	.LBB310:
 1500              	.LBI310:
 495:Drivers/CMSIS/Include/core_cmInstr.h **** {
 1501              		.loc 2 495 57 is_stmt 1 view .LVU578
 1502              	.LBB311:
 1503              		.loc 2 498 3 view .LVU579
 1504              		.loc 2 498 10 is_stmt 0 view .LVU580
 1505 0034 1BBA     		rev	r3, r3
 1506              	.LVL209:
 1507              		.loc 2 498 10 view .LVU581
 1508              	.LBE311:
 1509              	.LBE310:
 1510              		.loc 1 563 41 view .LVU582
 1511 0036 0293     		str	r3, [sp, #8]
 564:Drivers/STM32F4xx_StdPeriph_Driver/src/stm32f4xx_cryp_aes.c ****   ivaddr+=4;
 1512              		.loc 1 564 3 is_stmt 1 view .LVU583
 1513              	.LVL210:
 565:Drivers/STM32F4xx_StdPeriph_Driver/src/stm32f4xx_cryp_aes.c ****   AES_CRYP_IVInitStructure.CRYP_IV0Right= __REV(*(uint32_t*)(ivaddr));
 1514              		.loc 1 565 3 view .LVU584
 1515              		.loc 1 565 43 is_stmt 0 view .LVU585
 1516 0038 6B68     		ldr	r3, [r5, #4]
 1517              	.LVL211:
 1518              	.LBB312:
 1519              	.LBI312:
 495:Drivers/CMSIS/Include/core_cmInstr.h **** {
 1520              		.loc 2 495 57 is_stmt 1 view .LVU586
 1521              	.LBB313:
 1522              		.loc 2 498 3 view .LVU587
 1523              		.loc 2 498 10 is_stmt 0 view .LVU588
 1524 003a 1BBA     		rev	r3, r3
 1525              	.LVL212:
 1526              		.loc 2 498 10 view .LVU589
 1527              	.LBE313:
 1528              	.LBE312:
 1529              		.loc 1 565 41 view .LVU590
 1530 003c 0393     		str	r3, [sp, #12]
 566:Drivers/STM32F4xx_StdPeriph_Driver/src/stm32f4xx_cryp_aes.c ****   ivaddr+=4;
 1531              		.loc 1 566 3 is_stmt 1 view .LVU591
 1532              	.LVL213:
 567:Drivers/STM32F4xx_StdPeriph_Driver/src/stm32f4xx_cryp_aes.c ****   AES_CRYP_IVInitStructure.CRYP_IV1Left = __REV(*(uint32_t*)(ivaddr));
 1533              		.loc 1 567 3 view .LVU592
 1534              		.loc 1 567 43 is_stmt 0 view .LVU593
 1535 003e AB68     		ldr	r3, [r5, #8]
 1536              	.LVL214:
 1537              	.LBB314:
 1538              	.LBI314:
 495:Drivers/CMSIS/Include/core_cmInstr.h **** {
ARM GAS  /tmp/ccjGnpiF.s 			page 51


 1539              		.loc 2 495 57 is_stmt 1 view .LVU594
 1540              	.LBB315:
 1541              		.loc 2 498 3 view .LVU595
 1542              		.loc 2 498 10 is_stmt 0 view .LVU596
 1543 0040 1BBA     		rev	r3, r3
 1544              	.LVL215:
 1545              		.loc 2 498 10 view .LVU597
 1546              	.LBE315:
 1547              	.LBE314:
 1548              		.loc 1 567 41 view .LVU598
 1549 0042 0493     		str	r3, [sp, #16]
 568:Drivers/STM32F4xx_StdPeriph_Driver/src/stm32f4xx_cryp_aes.c ****   ivaddr+=4;
 1550              		.loc 1 568 3 is_stmt 1 view .LVU599
 1551              	.LVL216:
 569:Drivers/STM32F4xx_StdPeriph_Driver/src/stm32f4xx_cryp_aes.c ****   AES_CRYP_IVInitStructure.CRYP_IV1Right= __REV(*(uint32_t*)(ivaddr));
 1552              		.loc 1 569 3 view .LVU600
 1553              		.loc 1 569 43 is_stmt 0 view .LVU601
 1554 0044 EB68     		ldr	r3, [r5, #12]
 1555              	.LVL217:
 1556              	.LBB316:
 1557              	.LBI316:
 495:Drivers/CMSIS/Include/core_cmInstr.h **** {
 1558              		.loc 2 495 57 is_stmt 1 view .LVU602
 1559              	.LBB317:
 1560              		.loc 2 498 3 view .LVU603
 1561              		.loc 2 498 10 is_stmt 0 view .LVU604
 1562 0046 1BBA     		rev	r3, r3
 1563              	.LVL218:
 1564              		.loc 2 498 10 view .LVU605
 1565              	.LBE317:
 1566              	.LBE316:
 1567              		.loc 1 569 41 view .LVU606
 1568 0048 0593     		str	r3, [sp, #20]
 570:Drivers/STM32F4xx_StdPeriph_Driver/src/stm32f4xx_cryp_aes.c **** 
 571:Drivers/STM32F4xx_StdPeriph_Driver/src/stm32f4xx_cryp_aes.c ****   /* Key Initialisation */
 572:Drivers/STM32F4xx_StdPeriph_Driver/src/stm32f4xx_cryp_aes.c ****   CRYP_KeyInit(&AES_CRYP_KeyInitStructure);
 1569              		.loc 1 572 3 is_stmt 1 view .LVU607
 1570 004a 06A8     		add	r0, sp, #24
 1571 004c FFF7FEFF 		bl	CRYP_KeyInit
 1572              	.LVL219:
 573:Drivers/STM32F4xx_StdPeriph_Driver/src/stm32f4xx_cryp_aes.c **** 
 574:Drivers/STM32F4xx_StdPeriph_Driver/src/stm32f4xx_cryp_aes.c ****   /*------------------ AES Decryption ------------------*/
 575:Drivers/STM32F4xx_StdPeriph_Driver/src/stm32f4xx_cryp_aes.c ****   if(Mode == MODE_DECRYPT) /* AES decryption */
 1573              		.loc 1 575 3 view .LVU608
 1574              		.loc 1 575 5 is_stmt 0 view .LVU609
 1575 0050 BAF1000F 		cmp	r10, #0
 1576 0054 59D1     		bne	.L43
 576:Drivers/STM32F4xx_StdPeriph_Driver/src/stm32f4xx_cryp_aes.c ****   {
 577:Drivers/STM32F4xx_StdPeriph_Driver/src/stm32f4xx_cryp_aes.c ****     /* Crypto Init for decryption process */
 578:Drivers/STM32F4xx_StdPeriph_Driver/src/stm32f4xx_cryp_aes.c ****     AES_CRYP_InitStructure.CRYP_AlgoDir = CRYP_AlgoDir_Decrypt;
 1577              		.loc 1 578 5 is_stmt 1 view .LVU610
 1578              		.loc 1 578 41 is_stmt 0 view .LVU611
 1579 0056 0423     		movs	r3, #4
 1580 0058 0E93     		str	r3, [sp, #56]
 1581              	.L44:
 579:Drivers/STM32F4xx_StdPeriph_Driver/src/stm32f4xx_cryp_aes.c ****   }
 580:Drivers/STM32F4xx_StdPeriph_Driver/src/stm32f4xx_cryp_aes.c ****   /*------------------ AES Encryption ------------------*/
ARM GAS  /tmp/ccjGnpiF.s 			page 52


 581:Drivers/STM32F4xx_StdPeriph_Driver/src/stm32f4xx_cryp_aes.c ****   else /* AES encryption */
 582:Drivers/STM32F4xx_StdPeriph_Driver/src/stm32f4xx_cryp_aes.c ****   {
 583:Drivers/STM32F4xx_StdPeriph_Driver/src/stm32f4xx_cryp_aes.c ****     /* Crypto Init for Encryption process */
 584:Drivers/STM32F4xx_StdPeriph_Driver/src/stm32f4xx_cryp_aes.c ****     AES_CRYP_InitStructure.CRYP_AlgoDir = CRYP_AlgoDir_Encrypt;
 585:Drivers/STM32F4xx_StdPeriph_Driver/src/stm32f4xx_cryp_aes.c ****   }
 586:Drivers/STM32F4xx_StdPeriph_Driver/src/stm32f4xx_cryp_aes.c ****   AES_CRYP_InitStructure.CRYP_AlgoMode = CRYP_AlgoMode_AES_CTR;
 1582              		.loc 1 586 3 is_stmt 1 view .LVU612
 1583              		.loc 1 586 40 is_stmt 0 view .LVU613
 1584 005a 3023     		movs	r3, #48
 1585 005c 0F93     		str	r3, [sp, #60]
 587:Drivers/STM32F4xx_StdPeriph_Driver/src/stm32f4xx_cryp_aes.c ****   AES_CRYP_InitStructure.CRYP_DataType = CRYP_DataType_8b;
 1586              		.loc 1 587 3 is_stmt 1 view .LVU614
 1587              		.loc 1 587 40 is_stmt 0 view .LVU615
 1588 005e 8023     		movs	r3, #128
 1589 0060 1093     		str	r3, [sp, #64]
 588:Drivers/STM32F4xx_StdPeriph_Driver/src/stm32f4xx_cryp_aes.c ****   CRYP_Init(&AES_CRYP_InitStructure);
 1590              		.loc 1 588 3 is_stmt 1 view .LVU616
 1591 0062 0EA8     		add	r0, sp, #56
 1592 0064 FFF7FEFF 		bl	CRYP_Init
 1593              	.LVL220:
 589:Drivers/STM32F4xx_StdPeriph_Driver/src/stm32f4xx_cryp_aes.c **** 
 590:Drivers/STM32F4xx_StdPeriph_Driver/src/stm32f4xx_cryp_aes.c ****   /* CRYP Initialization Vectors */
 591:Drivers/STM32F4xx_StdPeriph_Driver/src/stm32f4xx_cryp_aes.c ****   CRYP_IVInit(&AES_CRYP_IVInitStructure);
 1594              		.loc 1 591 3 view .LVU617
 1595 0068 02A8     		add	r0, sp, #8
 1596 006a FFF7FEFF 		bl	CRYP_IVInit
 1597              	.LVL221:
 592:Drivers/STM32F4xx_StdPeriph_Driver/src/stm32f4xx_cryp_aes.c **** 
 593:Drivers/STM32F4xx_StdPeriph_Driver/src/stm32f4xx_cryp_aes.c ****   /* Flush IN/OUT FIFOs */
 594:Drivers/STM32F4xx_StdPeriph_Driver/src/stm32f4xx_cryp_aes.c ****   CRYP_FIFOFlush();
 1598              		.loc 1 594 3 view .LVU618
 1599 006e FFF7FEFF 		bl	CRYP_FIFOFlush
 1600              	.LVL222:
 595:Drivers/STM32F4xx_StdPeriph_Driver/src/stm32f4xx_cryp_aes.c **** 
 596:Drivers/STM32F4xx_StdPeriph_Driver/src/stm32f4xx_cryp_aes.c ****   /* Enable Crypto processor */
 597:Drivers/STM32F4xx_StdPeriph_Driver/src/stm32f4xx_cryp_aes.c ****   CRYP_Cmd(ENABLE);
 1601              		.loc 1 597 3 view .LVU619
 1602 0072 0120     		movs	r0, #1
 1603 0074 FFF7FEFF 		bl	CRYP_Cmd
 1604              	.LVL223:
 598:Drivers/STM32F4xx_StdPeriph_Driver/src/stm32f4xx_cryp_aes.c **** 
 599:Drivers/STM32F4xx_StdPeriph_Driver/src/stm32f4xx_cryp_aes.c ****   if(CRYP_GetCmdStatus() == DISABLE)
 1605              		.loc 1 599 3 view .LVU620
 1606              		.loc 1 599 6 is_stmt 0 view .LVU621
 1607 0078 FFF7FEFF 		bl	CRYP_GetCmdStatus
 1608              	.LVL224:
 1609              		.loc 1 599 5 view .LVU622
 1610 007c 0646     		mov	r6, r0
 1611              	.LVL225:
 1612              		.loc 1 599 5 view .LVU623
 1613 007e 0028     		cmp	r0, #0
 1614 0080 79D0     		beq	.L45
 600:Drivers/STM32F4xx_StdPeriph_Driver/src/stm32f4xx_cryp_aes.c ****   {
 601:Drivers/STM32F4xx_StdPeriph_Driver/src/stm32f4xx_cryp_aes.c ****     /* The CRYP peripheral clock is not enabled or the device doesn't embed 
 602:Drivers/STM32F4xx_StdPeriph_Driver/src/stm32f4xx_cryp_aes.c ****        the CRYP peripheral (please check the device sales type. */
 603:Drivers/STM32F4xx_StdPeriph_Driver/src/stm32f4xx_cryp_aes.c ****     return(ERROR);
 604:Drivers/STM32F4xx_StdPeriph_Driver/src/stm32f4xx_cryp_aes.c ****   }
ARM GAS  /tmp/ccjGnpiF.s 			page 53


 605:Drivers/STM32F4xx_StdPeriph_Driver/src/stm32f4xx_cryp_aes.c ****   
 606:Drivers/STM32F4xx_StdPeriph_Driver/src/stm32f4xx_cryp_aes.c ****   for(i=0; ((i<Ilength) && (status != ERROR)); i+=16)
 1615              		.loc 1 606 8 view .LVU624
 1616 0082 0025     		movs	r5, #0
 1617              	.LVL226:
 505:Drivers/STM32F4xx_StdPeriph_Driver/src/stm32f4xx_cryp_aes.c ****   uint32_t keyaddr    = (uint32_t)Key;
 1618              		.loc 1 505 15 view .LVU625
 1619 0084 0126     		movs	r6, #1
 1620 0086 46E0     		b	.L46
 1621              	.LVL227:
 1622              	.L54:
 518:Drivers/STM32F4xx_StdPeriph_Driver/src/stm32f4xx_cryp_aes.c ****     AES_CRYP_KeyInitStructure.CRYP_Key2Left = __REV(*(uint32_t*)(keyaddr));
 1623              		.loc 1 518 5 is_stmt 1 view .LVU626
 518:Drivers/STM32F4xx_StdPeriph_Driver/src/stm32f4xx_cryp_aes.c ****     AES_CRYP_KeyInitStructure.CRYP_Key2Left = __REV(*(uint32_t*)(keyaddr));
 1624              		.loc 1 518 41 is_stmt 0 view .LVU627
 1625 0088 0023     		movs	r3, #0
 1626 008a 1193     		str	r3, [sp, #68]
 519:Drivers/STM32F4xx_StdPeriph_Driver/src/stm32f4xx_cryp_aes.c ****     keyaddr+=4;
 1627              		.loc 1 519 5 is_stmt 1 view .LVU628
 519:Drivers/STM32F4xx_StdPeriph_Driver/src/stm32f4xx_cryp_aes.c ****     keyaddr+=4;
 1628              		.loc 1 519 47 is_stmt 0 view .LVU629
 1629 008c 3368     		ldr	r3, [r6]
 1630              	.LVL228:
 1631              	.LBB318:
 1632              	.LBI318:
 495:Drivers/CMSIS/Include/core_cmInstr.h **** {
 1633              		.loc 2 495 57 is_stmt 1 view .LVU630
 1634              	.LBB319:
 1635              		.loc 2 498 3 view .LVU631
 1636              		.loc 2 498 10 is_stmt 0 view .LVU632
 1637 008e 1BBA     		rev	r3, r3
 1638              	.LVL229:
 1639              		.loc 2 498 10 view .LVU633
 1640              	.LBE319:
 1641              	.LBE318:
 519:Drivers/STM32F4xx_StdPeriph_Driver/src/stm32f4xx_cryp_aes.c ****     keyaddr+=4;
 1642              		.loc 1 519 45 view .LVU634
 1643 0090 0A93     		str	r3, [sp, #40]
 520:Drivers/STM32F4xx_StdPeriph_Driver/src/stm32f4xx_cryp_aes.c ****     AES_CRYP_KeyInitStructure.CRYP_Key2Right= __REV(*(uint32_t*)(keyaddr));
 1644              		.loc 1 520 5 is_stmt 1 view .LVU635
 1645              	.LVL230:
 521:Drivers/STM32F4xx_StdPeriph_Driver/src/stm32f4xx_cryp_aes.c ****     keyaddr+=4;
 1646              		.loc 1 521 5 view .LVU636
 521:Drivers/STM32F4xx_StdPeriph_Driver/src/stm32f4xx_cryp_aes.c ****     keyaddr+=4;
 1647              		.loc 1 521 47 is_stmt 0 view .LVU637
 1648 0092 7368     		ldr	r3, [r6, #4]
 1649              	.LVL231:
 1650              	.LBB320:
 1651              	.LBI320:
 495:Drivers/CMSIS/Include/core_cmInstr.h **** {
 1652              		.loc 2 495 57 is_stmt 1 view .LVU638
 1653              	.LBB321:
 1654              		.loc 2 498 3 view .LVU639
 1655              		.loc 2 498 10 is_stmt 0 view .LVU640
 1656 0094 1BBA     		rev	r3, r3
 1657              	.LVL232:
 1658              		.loc 2 498 10 view .LVU641
ARM GAS  /tmp/ccjGnpiF.s 			page 54


 1659              	.LBE321:
 1660              	.LBE320:
 521:Drivers/STM32F4xx_StdPeriph_Driver/src/stm32f4xx_cryp_aes.c ****     keyaddr+=4;
 1661              		.loc 1 521 45 view .LVU642
 1662 0096 0B93     		str	r3, [sp, #44]
 522:Drivers/STM32F4xx_StdPeriph_Driver/src/stm32f4xx_cryp_aes.c ****     AES_CRYP_KeyInitStructure.CRYP_Key3Left = __REV(*(uint32_t*)(keyaddr));
 1663              		.loc 1 522 5 is_stmt 1 view .LVU643
 1664              	.LVL233:
 523:Drivers/STM32F4xx_StdPeriph_Driver/src/stm32f4xx_cryp_aes.c ****     keyaddr+=4;
 1665              		.loc 1 523 5 view .LVU644
 523:Drivers/STM32F4xx_StdPeriph_Driver/src/stm32f4xx_cryp_aes.c ****     keyaddr+=4;
 1666              		.loc 1 523 47 is_stmt 0 view .LVU645
 1667 0098 B368     		ldr	r3, [r6, #8]
 1668              	.LVL234:
 1669              	.LBB322:
 1670              	.LBI322:
 495:Drivers/CMSIS/Include/core_cmInstr.h **** {
 1671              		.loc 2 495 57 is_stmt 1 view .LVU646
 1672              	.LBB323:
 1673              		.loc 2 498 3 view .LVU647
 1674              		.loc 2 498 10 is_stmt 0 view .LVU648
 1675 009a 1BBA     		rev	r3, r3
 1676              	.LVL235:
 1677              		.loc 2 498 10 view .LVU649
 1678              	.LBE323:
 1679              	.LBE322:
 523:Drivers/STM32F4xx_StdPeriph_Driver/src/stm32f4xx_cryp_aes.c ****     keyaddr+=4;
 1680              		.loc 1 523 45 view .LVU650
 1681 009c 0C93     		str	r3, [sp, #48]
 524:Drivers/STM32F4xx_StdPeriph_Driver/src/stm32f4xx_cryp_aes.c ****     AES_CRYP_KeyInitStructure.CRYP_Key3Right= __REV(*(uint32_t*)(keyaddr));
 1682              		.loc 1 524 5 is_stmt 1 view .LVU651
 1683              	.LVL236:
 525:Drivers/STM32F4xx_StdPeriph_Driver/src/stm32f4xx_cryp_aes.c ****     break;
 1684              		.loc 1 525 5 view .LVU652
 525:Drivers/STM32F4xx_StdPeriph_Driver/src/stm32f4xx_cryp_aes.c ****     break;
 1685              		.loc 1 525 47 is_stmt 0 view .LVU653
 1686 009e F368     		ldr	r3, [r6, #12]
 1687              	.LVL237:
 1688              	.LBB324:
 1689              	.LBI324:
 495:Drivers/CMSIS/Include/core_cmInstr.h **** {
 1690              		.loc 2 495 57 is_stmt 1 view .LVU654
 1691              	.LBB325:
 1692              		.loc 2 498 3 view .LVU655
 1693              		.loc 2 498 10 is_stmt 0 view .LVU656
 1694 00a0 1BBA     		rev	r3, r3
 1695              	.LVL238:
 1696              		.loc 2 498 10 view .LVU657
 1697              	.LBE325:
 1698              	.LBE324:
 525:Drivers/STM32F4xx_StdPeriph_Driver/src/stm32f4xx_cryp_aes.c ****     break;
 1699              		.loc 1 525 45 view .LVU658
 1700 00a2 0D93     		str	r3, [sp, #52]
 526:Drivers/STM32F4xx_StdPeriph_Driver/src/stm32f4xx_cryp_aes.c ****     case 192:
 1701              		.loc 1 526 5 is_stmt 1 view .LVU659
 1702 00a4 C5E7     		b	.L42
 1703              	.LVL239:
ARM GAS  /tmp/ccjGnpiF.s 			page 55


 1704              	.L40:
 528:Drivers/STM32F4xx_StdPeriph_Driver/src/stm32f4xx_cryp_aes.c ****     AES_CRYP_KeyInitStructure.CRYP_Key1Left = __REV(*(uint32_t*)(keyaddr));
 1705              		.loc 1 528 5 view .LVU660
 528:Drivers/STM32F4xx_StdPeriph_Driver/src/stm32f4xx_cryp_aes.c ****     AES_CRYP_KeyInitStructure.CRYP_Key1Left = __REV(*(uint32_t*)(keyaddr));
 1706              		.loc 1 528 42 is_stmt 0 view .LVU661
 1707 00a6 4FF48073 		mov	r3, #256
 1708 00aa 1193     		str	r3, [sp, #68]
 529:Drivers/STM32F4xx_StdPeriph_Driver/src/stm32f4xx_cryp_aes.c ****     keyaddr+=4;
 1709              		.loc 1 529 5 is_stmt 1 view .LVU662
 529:Drivers/STM32F4xx_StdPeriph_Driver/src/stm32f4xx_cryp_aes.c ****     keyaddr+=4;
 1710              		.loc 1 529 47 is_stmt 0 view .LVU663
 1711 00ac 3368     		ldr	r3, [r6]
 1712              	.LVL240:
 1713              	.LBB326:
 1714              	.LBI326:
 495:Drivers/CMSIS/Include/core_cmInstr.h **** {
 1715              		.loc 2 495 57 is_stmt 1 view .LVU664
 1716              	.LBB327:
 1717              		.loc 2 498 3 view .LVU665
 1718              		.loc 2 498 10 is_stmt 0 view .LVU666
 1719 00ae 1BBA     		rev	r3, r3
 1720              	.LVL241:
 1721              		.loc 2 498 10 view .LVU667
 1722              	.LBE327:
 1723              	.LBE326:
 529:Drivers/STM32F4xx_StdPeriph_Driver/src/stm32f4xx_cryp_aes.c ****     keyaddr+=4;
 1724              		.loc 1 529 45 view .LVU668
 1725 00b0 0893     		str	r3, [sp, #32]
 530:Drivers/STM32F4xx_StdPeriph_Driver/src/stm32f4xx_cryp_aes.c ****     AES_CRYP_KeyInitStructure.CRYP_Key1Right= __REV(*(uint32_t*)(keyaddr));
 1726              		.loc 1 530 5 is_stmt 1 view .LVU669
 1727              	.LVL242:
 531:Drivers/STM32F4xx_StdPeriph_Driver/src/stm32f4xx_cryp_aes.c ****     keyaddr+=4;
 1728              		.loc 1 531 5 view .LVU670
 531:Drivers/STM32F4xx_StdPeriph_Driver/src/stm32f4xx_cryp_aes.c ****     keyaddr+=4;
 1729              		.loc 1 531 47 is_stmt 0 view .LVU671
 1730 00b2 7368     		ldr	r3, [r6, #4]
 1731              	.LVL243:
 1732              	.LBB328:
 1733              	.LBI328:
 495:Drivers/CMSIS/Include/core_cmInstr.h **** {
 1734              		.loc 2 495 57 is_stmt 1 view .LVU672
 1735              	.LBB329:
 1736              		.loc 2 498 3 view .LVU673
 1737              		.loc 2 498 10 is_stmt 0 view .LVU674
 1738 00b4 1BBA     		rev	r3, r3
 1739              	.LVL244:
 1740              		.loc 2 498 10 view .LVU675
 1741              	.LBE329:
 1742              	.LBE328:
 531:Drivers/STM32F4xx_StdPeriph_Driver/src/stm32f4xx_cryp_aes.c ****     keyaddr+=4;
 1743              		.loc 1 531 45 view .LVU676
 1744 00b6 0993     		str	r3, [sp, #36]
 532:Drivers/STM32F4xx_StdPeriph_Driver/src/stm32f4xx_cryp_aes.c ****     AES_CRYP_KeyInitStructure.CRYP_Key2Left = __REV(*(uint32_t*)(keyaddr));
 1745              		.loc 1 532 5 is_stmt 1 view .LVU677
 1746              	.LVL245:
 533:Drivers/STM32F4xx_StdPeriph_Driver/src/stm32f4xx_cryp_aes.c ****     keyaddr+=4;
 1747              		.loc 1 533 5 view .LVU678
ARM GAS  /tmp/ccjGnpiF.s 			page 56


 533:Drivers/STM32F4xx_StdPeriph_Driver/src/stm32f4xx_cryp_aes.c ****     keyaddr+=4;
 1748              		.loc 1 533 47 is_stmt 0 view .LVU679
 1749 00b8 B368     		ldr	r3, [r6, #8]
 1750              	.LVL246:
 1751              	.LBB330:
 1752              	.LBI330:
 495:Drivers/CMSIS/Include/core_cmInstr.h **** {
 1753              		.loc 2 495 57 is_stmt 1 view .LVU680
 1754              	.LBB331:
 1755              		.loc 2 498 3 view .LVU681
 1756              		.loc 2 498 10 is_stmt 0 view .LVU682
 1757 00ba 1BBA     		rev	r3, r3
 1758              	.LVL247:
 1759              		.loc 2 498 10 view .LVU683
 1760              	.LBE331:
 1761              	.LBE330:
 533:Drivers/STM32F4xx_StdPeriph_Driver/src/stm32f4xx_cryp_aes.c ****     keyaddr+=4;
 1762              		.loc 1 533 45 view .LVU684
 1763 00bc 0A93     		str	r3, [sp, #40]
 534:Drivers/STM32F4xx_StdPeriph_Driver/src/stm32f4xx_cryp_aes.c ****     AES_CRYP_KeyInitStructure.CRYP_Key2Right= __REV(*(uint32_t*)(keyaddr));
 1764              		.loc 1 534 5 is_stmt 1 view .LVU685
 1765              	.LVL248:
 535:Drivers/STM32F4xx_StdPeriph_Driver/src/stm32f4xx_cryp_aes.c ****     keyaddr+=4;
 1766              		.loc 1 535 5 view .LVU686
 535:Drivers/STM32F4xx_StdPeriph_Driver/src/stm32f4xx_cryp_aes.c ****     keyaddr+=4;
 1767              		.loc 1 535 47 is_stmt 0 view .LVU687
 1768 00be F368     		ldr	r3, [r6, #12]
 1769              	.LVL249:
 1770              	.LBB332:
 1771              	.LBI332:
 495:Drivers/CMSIS/Include/core_cmInstr.h **** {
 1772              		.loc 2 495 57 is_stmt 1 view .LVU688
 1773              	.LBB333:
 1774              		.loc 2 498 3 view .LVU689
 1775              		.loc 2 498 10 is_stmt 0 view .LVU690
 1776 00c0 1BBA     		rev	r3, r3
 1777              	.LVL250:
 1778              		.loc 2 498 10 view .LVU691
 1779              	.LBE333:
 1780              	.LBE332:
 535:Drivers/STM32F4xx_StdPeriph_Driver/src/stm32f4xx_cryp_aes.c ****     keyaddr+=4;
 1781              		.loc 1 535 45 view .LVU692
 1782 00c2 0B93     		str	r3, [sp, #44]
 536:Drivers/STM32F4xx_StdPeriph_Driver/src/stm32f4xx_cryp_aes.c ****     AES_CRYP_KeyInitStructure.CRYP_Key3Left = __REV(*(uint32_t*)(keyaddr));
 1783              		.loc 1 536 5 is_stmt 1 view .LVU693
 1784              	.LVL251:
 537:Drivers/STM32F4xx_StdPeriph_Driver/src/stm32f4xx_cryp_aes.c ****     keyaddr+=4;
 1785              		.loc 1 537 5 view .LVU694
 537:Drivers/STM32F4xx_StdPeriph_Driver/src/stm32f4xx_cryp_aes.c ****     keyaddr+=4;
 1786              		.loc 1 537 47 is_stmt 0 view .LVU695
 1787 00c4 3369     		ldr	r3, [r6, #16]
 1788              	.LVL252:
 1789              	.LBB334:
 1790              	.LBI334:
 495:Drivers/CMSIS/Include/core_cmInstr.h **** {
 1791              		.loc 2 495 57 is_stmt 1 view .LVU696
 1792              	.LBB335:
ARM GAS  /tmp/ccjGnpiF.s 			page 57


 1793              		.loc 2 498 3 view .LVU697
 1794              		.loc 2 498 10 is_stmt 0 view .LVU698
 1795 00c6 1BBA     		rev	r3, r3
 1796              	.LVL253:
 1797              		.loc 2 498 10 view .LVU699
 1798              	.LBE335:
 1799              	.LBE334:
 537:Drivers/STM32F4xx_StdPeriph_Driver/src/stm32f4xx_cryp_aes.c ****     keyaddr+=4;
 1800              		.loc 1 537 45 view .LVU700
 1801 00c8 0C93     		str	r3, [sp, #48]
 538:Drivers/STM32F4xx_StdPeriph_Driver/src/stm32f4xx_cryp_aes.c ****     AES_CRYP_KeyInitStructure.CRYP_Key3Right= __REV(*(uint32_t*)(keyaddr));
 1802              		.loc 1 538 5 is_stmt 1 view .LVU701
 1803              	.LVL254:
 539:Drivers/STM32F4xx_StdPeriph_Driver/src/stm32f4xx_cryp_aes.c ****     break;
 1804              		.loc 1 539 5 view .LVU702
 539:Drivers/STM32F4xx_StdPeriph_Driver/src/stm32f4xx_cryp_aes.c ****     break;
 1805              		.loc 1 539 47 is_stmt 0 view .LVU703
 1806 00ca 7369     		ldr	r3, [r6, #20]
 1807              	.LVL255:
 1808              	.LBB336:
 1809              	.LBI336:
 495:Drivers/CMSIS/Include/core_cmInstr.h **** {
 1810              		.loc 2 495 57 is_stmt 1 view .LVU704
 1811              	.LBB337:
 1812              		.loc 2 498 3 view .LVU705
 1813              		.loc 2 498 10 is_stmt 0 view .LVU706
 1814 00cc 1BBA     		rev	r3, r3
 1815              	.LVL256:
 1816              		.loc 2 498 10 view .LVU707
 1817              	.LBE337:
 1818              	.LBE336:
 539:Drivers/STM32F4xx_StdPeriph_Driver/src/stm32f4xx_cryp_aes.c ****     break;
 1819              		.loc 1 539 45 view .LVU708
 1820 00ce 0D93     		str	r3, [sp, #52]
 540:Drivers/STM32F4xx_StdPeriph_Driver/src/stm32f4xx_cryp_aes.c ****     case 256:
 1821              		.loc 1 540 5 is_stmt 1 view .LVU709
 1822 00d0 AFE7     		b	.L42
 1823              	.LVL257:
 1824              	.L41:
 542:Drivers/STM32F4xx_StdPeriph_Driver/src/stm32f4xx_cryp_aes.c ****     AES_CRYP_KeyInitStructure.CRYP_Key0Left = __REV(*(uint32_t*)(keyaddr));
 1825              		.loc 1 542 5 view .LVU710
 542:Drivers/STM32F4xx_StdPeriph_Driver/src/stm32f4xx_cryp_aes.c ****     AES_CRYP_KeyInitStructure.CRYP_Key0Left = __REV(*(uint32_t*)(keyaddr));
 1826              		.loc 1 542 42 is_stmt 0 view .LVU711
 1827 00d2 4FF40073 		mov	r3, #512
 1828 00d6 1193     		str	r3, [sp, #68]
 543:Drivers/STM32F4xx_StdPeriph_Driver/src/stm32f4xx_cryp_aes.c ****     keyaddr+=4;
 1829              		.loc 1 543 5 is_stmt 1 view .LVU712
 543:Drivers/STM32F4xx_StdPeriph_Driver/src/stm32f4xx_cryp_aes.c ****     keyaddr+=4;
 1830              		.loc 1 543 47 is_stmt 0 view .LVU713
 1831 00d8 3368     		ldr	r3, [r6]
 1832              	.LVL258:
 1833              	.LBB338:
 1834              	.LBI338:
 495:Drivers/CMSIS/Include/core_cmInstr.h **** {
 1835              		.loc 2 495 57 is_stmt 1 view .LVU714
 1836              	.LBB339:
 1837              		.loc 2 498 3 view .LVU715
ARM GAS  /tmp/ccjGnpiF.s 			page 58


 1838              		.loc 2 498 10 is_stmt 0 view .LVU716
 1839 00da 1BBA     		rev	r3, r3
 1840              	.LVL259:
 1841              		.loc 2 498 10 view .LVU717
 1842              	.LBE339:
 1843              	.LBE338:
 543:Drivers/STM32F4xx_StdPeriph_Driver/src/stm32f4xx_cryp_aes.c ****     keyaddr+=4;
 1844              		.loc 1 543 45 view .LVU718
 1845 00dc 0693     		str	r3, [sp, #24]
 544:Drivers/STM32F4xx_StdPeriph_Driver/src/stm32f4xx_cryp_aes.c ****     AES_CRYP_KeyInitStructure.CRYP_Key0Right= __REV(*(uint32_t*)(keyaddr));
 1846              		.loc 1 544 5 is_stmt 1 view .LVU719
 1847              	.LVL260:
 545:Drivers/STM32F4xx_StdPeriph_Driver/src/stm32f4xx_cryp_aes.c ****     keyaddr+=4;
 1848              		.loc 1 545 5 view .LVU720
 545:Drivers/STM32F4xx_StdPeriph_Driver/src/stm32f4xx_cryp_aes.c ****     keyaddr+=4;
 1849              		.loc 1 545 47 is_stmt 0 view .LVU721
 1850 00de 7368     		ldr	r3, [r6, #4]
 1851              	.LVL261:
 1852              	.LBB340:
 1853              	.LBI340:
 495:Drivers/CMSIS/Include/core_cmInstr.h **** {
 1854              		.loc 2 495 57 is_stmt 1 view .LVU722
 1855              	.LBB341:
 1856              		.loc 2 498 3 view .LVU723
 1857              		.loc 2 498 10 is_stmt 0 view .LVU724
 1858 00e0 1BBA     		rev	r3, r3
 1859              	.LVL262:
 1860              		.loc 2 498 10 view .LVU725
 1861              	.LBE341:
 1862              	.LBE340:
 545:Drivers/STM32F4xx_StdPeriph_Driver/src/stm32f4xx_cryp_aes.c ****     keyaddr+=4;
 1863              		.loc 1 545 45 view .LVU726
 1864 00e2 0793     		str	r3, [sp, #28]
 546:Drivers/STM32F4xx_StdPeriph_Driver/src/stm32f4xx_cryp_aes.c ****     AES_CRYP_KeyInitStructure.CRYP_Key1Left = __REV(*(uint32_t*)(keyaddr));
 1865              		.loc 1 546 5 is_stmt 1 view .LVU727
 1866              	.LVL263:
 547:Drivers/STM32F4xx_StdPeriph_Driver/src/stm32f4xx_cryp_aes.c ****     keyaddr+=4;
 1867              		.loc 1 547 5 view .LVU728
 547:Drivers/STM32F4xx_StdPeriph_Driver/src/stm32f4xx_cryp_aes.c ****     keyaddr+=4;
 1868              		.loc 1 547 47 is_stmt 0 view .LVU729
 1869 00e4 B368     		ldr	r3, [r6, #8]
 1870              	.LVL264:
 1871              	.LBB342:
 1872              	.LBI342:
 495:Drivers/CMSIS/Include/core_cmInstr.h **** {
 1873              		.loc 2 495 57 is_stmt 1 view .LVU730
 1874              	.LBB343:
 1875              		.loc 2 498 3 view .LVU731
 1876              		.loc 2 498 10 is_stmt 0 view .LVU732
 1877 00e6 1BBA     		rev	r3, r3
 1878              	.LVL265:
 1879              		.loc 2 498 10 view .LVU733
 1880              	.LBE343:
 1881              	.LBE342:
 547:Drivers/STM32F4xx_StdPeriph_Driver/src/stm32f4xx_cryp_aes.c ****     keyaddr+=4;
 1882              		.loc 1 547 45 view .LVU734
 1883 00e8 0893     		str	r3, [sp, #32]
ARM GAS  /tmp/ccjGnpiF.s 			page 59


 548:Drivers/STM32F4xx_StdPeriph_Driver/src/stm32f4xx_cryp_aes.c ****     AES_CRYP_KeyInitStructure.CRYP_Key1Right= __REV(*(uint32_t*)(keyaddr));
 1884              		.loc 1 548 5 is_stmt 1 view .LVU735
 1885              	.LVL266:
 549:Drivers/STM32F4xx_StdPeriph_Driver/src/stm32f4xx_cryp_aes.c ****     keyaddr+=4;
 1886              		.loc 1 549 5 view .LVU736
 549:Drivers/STM32F4xx_StdPeriph_Driver/src/stm32f4xx_cryp_aes.c ****     keyaddr+=4;
 1887              		.loc 1 549 47 is_stmt 0 view .LVU737
 1888 00ea F368     		ldr	r3, [r6, #12]
 1889              	.LVL267:
 1890              	.LBB344:
 1891              	.LBI344:
 495:Drivers/CMSIS/Include/core_cmInstr.h **** {
 1892              		.loc 2 495 57 is_stmt 1 view .LVU738
 1893              	.LBB345:
 1894              		.loc 2 498 3 view .LVU739
 1895              		.loc 2 498 10 is_stmt 0 view .LVU740
 1896 00ec 1BBA     		rev	r3, r3
 1897              	.LVL268:
 1898              		.loc 2 498 10 view .LVU741
 1899              	.LBE345:
 1900              	.LBE344:
 549:Drivers/STM32F4xx_StdPeriph_Driver/src/stm32f4xx_cryp_aes.c ****     keyaddr+=4;
 1901              		.loc 1 549 45 view .LVU742
 1902 00ee 0993     		str	r3, [sp, #36]
 550:Drivers/STM32F4xx_StdPeriph_Driver/src/stm32f4xx_cryp_aes.c ****     AES_CRYP_KeyInitStructure.CRYP_Key2Left = __REV(*(uint32_t*)(keyaddr));
 1903              		.loc 1 550 5 is_stmt 1 view .LVU743
 1904              	.LVL269:
 551:Drivers/STM32F4xx_StdPeriph_Driver/src/stm32f4xx_cryp_aes.c ****     keyaddr+=4;
 1905              		.loc 1 551 5 view .LVU744
 551:Drivers/STM32F4xx_StdPeriph_Driver/src/stm32f4xx_cryp_aes.c ****     keyaddr+=4;
 1906              		.loc 1 551 47 is_stmt 0 view .LVU745
 1907 00f0 3369     		ldr	r3, [r6, #16]
 1908              	.LVL270:
 1909              	.LBB346:
 1910              	.LBI346:
 495:Drivers/CMSIS/Include/core_cmInstr.h **** {
 1911              		.loc 2 495 57 is_stmt 1 view .LVU746
 1912              	.LBB347:
 1913              		.loc 2 498 3 view .LVU747
 1914              		.loc 2 498 10 is_stmt 0 view .LVU748
 1915 00f2 1BBA     		rev	r3, r3
 1916              	.LVL271:
 1917              		.loc 2 498 10 view .LVU749
 1918              	.LBE347:
 1919              	.LBE346:
 551:Drivers/STM32F4xx_StdPeriph_Driver/src/stm32f4xx_cryp_aes.c ****     keyaddr+=4;
 1920              		.loc 1 551 45 view .LVU750
 1921 00f4 0A93     		str	r3, [sp, #40]
 552:Drivers/STM32F4xx_StdPeriph_Driver/src/stm32f4xx_cryp_aes.c ****     AES_CRYP_KeyInitStructure.CRYP_Key2Right= __REV(*(uint32_t*)(keyaddr));
 1922              		.loc 1 552 5 is_stmt 1 view .LVU751
 1923              	.LVL272:
 553:Drivers/STM32F4xx_StdPeriph_Driver/src/stm32f4xx_cryp_aes.c ****     keyaddr+=4;
 1924              		.loc 1 553 5 view .LVU752
 553:Drivers/STM32F4xx_StdPeriph_Driver/src/stm32f4xx_cryp_aes.c ****     keyaddr+=4;
 1925              		.loc 1 553 47 is_stmt 0 view .LVU753
 1926 00f6 7369     		ldr	r3, [r6, #20]
 1927              	.LVL273:
ARM GAS  /tmp/ccjGnpiF.s 			page 60


 1928              	.LBB348:
 1929              	.LBI348:
 495:Drivers/CMSIS/Include/core_cmInstr.h **** {
 1930              		.loc 2 495 57 is_stmt 1 view .LVU754
 1931              	.LBB349:
 1932              		.loc 2 498 3 view .LVU755
 1933              		.loc 2 498 10 is_stmt 0 view .LVU756
 1934 00f8 1BBA     		rev	r3, r3
 1935              	.LVL274:
 1936              		.loc 2 498 10 view .LVU757
 1937              	.LBE349:
 1938              	.LBE348:
 553:Drivers/STM32F4xx_StdPeriph_Driver/src/stm32f4xx_cryp_aes.c ****     keyaddr+=4;
 1939              		.loc 1 553 45 view .LVU758
 1940 00fa 0B93     		str	r3, [sp, #44]
 554:Drivers/STM32F4xx_StdPeriph_Driver/src/stm32f4xx_cryp_aes.c ****     AES_CRYP_KeyInitStructure.CRYP_Key3Left = __REV(*(uint32_t*)(keyaddr));
 1941              		.loc 1 554 5 is_stmt 1 view .LVU759
 1942              	.LVL275:
 555:Drivers/STM32F4xx_StdPeriph_Driver/src/stm32f4xx_cryp_aes.c ****     keyaddr+=4;
 1943              		.loc 1 555 5 view .LVU760
 555:Drivers/STM32F4xx_StdPeriph_Driver/src/stm32f4xx_cryp_aes.c ****     keyaddr+=4;
 1944              		.loc 1 555 47 is_stmt 0 view .LVU761
 1945 00fc B369     		ldr	r3, [r6, #24]
 1946              	.LVL276:
 1947              	.LBB350:
 1948              	.LBI350:
 495:Drivers/CMSIS/Include/core_cmInstr.h **** {
 1949              		.loc 2 495 57 is_stmt 1 view .LVU762
 1950              	.LBB351:
 1951              		.loc 2 498 3 view .LVU763
 1952              		.loc 2 498 10 is_stmt 0 view .LVU764
 1953 00fe 1BBA     		rev	r3, r3
 1954              	.LVL277:
 1955              		.loc 2 498 10 view .LVU765
 1956              	.LBE351:
 1957              	.LBE350:
 555:Drivers/STM32F4xx_StdPeriph_Driver/src/stm32f4xx_cryp_aes.c ****     keyaddr+=4;
 1958              		.loc 1 555 45 view .LVU766
 1959 0100 0C93     		str	r3, [sp, #48]
 556:Drivers/STM32F4xx_StdPeriph_Driver/src/stm32f4xx_cryp_aes.c ****     AES_CRYP_KeyInitStructure.CRYP_Key3Right= __REV(*(uint32_t*)(keyaddr));
 1960              		.loc 1 556 5 is_stmt 1 view .LVU767
 1961              	.LVL278:
 557:Drivers/STM32F4xx_StdPeriph_Driver/src/stm32f4xx_cryp_aes.c ****     break;
 1962              		.loc 1 557 5 view .LVU768
 557:Drivers/STM32F4xx_StdPeriph_Driver/src/stm32f4xx_cryp_aes.c ****     break;
 1963              		.loc 1 557 47 is_stmt 0 view .LVU769
 1964 0102 F369     		ldr	r3, [r6, #28]
 1965              	.LVL279:
 1966              	.LBB352:
 1967              	.LBI352:
 495:Drivers/CMSIS/Include/core_cmInstr.h **** {
 1968              		.loc 2 495 57 is_stmt 1 view .LVU770
 1969              	.LBB353:
 1970              		.loc 2 498 3 view .LVU771
 1971              		.loc 2 498 10 is_stmt 0 view .LVU772
 1972 0104 1BBA     		rev	r3, r3
 1973              	.LVL280:
ARM GAS  /tmp/ccjGnpiF.s 			page 61


 1974              		.loc 2 498 10 view .LVU773
 1975              	.LBE353:
 1976              	.LBE352:
 557:Drivers/STM32F4xx_StdPeriph_Driver/src/stm32f4xx_cryp_aes.c ****     break;
 1977              		.loc 1 557 45 view .LVU774
 1978 0106 0D93     		str	r3, [sp, #52]
 558:Drivers/STM32F4xx_StdPeriph_Driver/src/stm32f4xx_cryp_aes.c ****     default:
 1979              		.loc 1 558 5 is_stmt 1 view .LVU775
 1980 0108 93E7     		b	.L42
 1981              	.LVL281:
 1982              	.L43:
 584:Drivers/STM32F4xx_StdPeriph_Driver/src/stm32f4xx_cryp_aes.c ****   }
 1983              		.loc 1 584 5 view .LVU776
 584:Drivers/STM32F4xx_StdPeriph_Driver/src/stm32f4xx_cryp_aes.c ****   }
 1984              		.loc 1 584 41 is_stmt 0 view .LVU777
 1985 010a 0023     		movs	r3, #0
 1986 010c 0E93     		str	r3, [sp, #56]
 1987 010e A4E7     		b	.L44
 1988              	.LVL282:
 1989              	.L47:
 607:Drivers/STM32F4xx_StdPeriph_Driver/src/stm32f4xx_cryp_aes.c ****   {
 608:Drivers/STM32F4xx_StdPeriph_Driver/src/stm32f4xx_cryp_aes.c **** 
 609:Drivers/STM32F4xx_StdPeriph_Driver/src/stm32f4xx_cryp_aes.c ****     /* Write the Input block in the IN FIFO */
 610:Drivers/STM32F4xx_StdPeriph_Driver/src/stm32f4xx_cryp_aes.c ****     CRYP_DataIn(*(uint32_t*)(inputaddr));
 611:Drivers/STM32F4xx_StdPeriph_Driver/src/stm32f4xx_cryp_aes.c ****     inputaddr+=4;
 612:Drivers/STM32F4xx_StdPeriph_Driver/src/stm32f4xx_cryp_aes.c ****     CRYP_DataIn(*(uint32_t*)(inputaddr));
 613:Drivers/STM32F4xx_StdPeriph_Driver/src/stm32f4xx_cryp_aes.c ****     inputaddr+=4;
 614:Drivers/STM32F4xx_StdPeriph_Driver/src/stm32f4xx_cryp_aes.c ****     CRYP_DataIn(*(uint32_t*)(inputaddr));
 615:Drivers/STM32F4xx_StdPeriph_Driver/src/stm32f4xx_cryp_aes.c ****     inputaddr+=4;
 616:Drivers/STM32F4xx_StdPeriph_Driver/src/stm32f4xx_cryp_aes.c ****     CRYP_DataIn(*(uint32_t*)(inputaddr));
 617:Drivers/STM32F4xx_StdPeriph_Driver/src/stm32f4xx_cryp_aes.c ****     inputaddr+=4;
 618:Drivers/STM32F4xx_StdPeriph_Driver/src/stm32f4xx_cryp_aes.c ****     /* Wait until the complete message has been processed */
 619:Drivers/STM32F4xx_StdPeriph_Driver/src/stm32f4xx_cryp_aes.c ****     counter = 0;
 620:Drivers/STM32F4xx_StdPeriph_Driver/src/stm32f4xx_cryp_aes.c ****     do
 621:Drivers/STM32F4xx_StdPeriph_Driver/src/stm32f4xx_cryp_aes.c ****     {
 622:Drivers/STM32F4xx_StdPeriph_Driver/src/stm32f4xx_cryp_aes.c ****       busystatus = CRYP_GetFlagStatus(CRYP_FLAG_BUSY);
 623:Drivers/STM32F4xx_StdPeriph_Driver/src/stm32f4xx_cryp_aes.c ****       counter++;
 624:Drivers/STM32F4xx_StdPeriph_Driver/src/stm32f4xx_cryp_aes.c ****     }while ((counter != AESBUSY_TIMEOUT) && (busystatus != RESET));
 625:Drivers/STM32F4xx_StdPeriph_Driver/src/stm32f4xx_cryp_aes.c **** 
 626:Drivers/STM32F4xx_StdPeriph_Driver/src/stm32f4xx_cryp_aes.c ****     if (busystatus != RESET)
 1990              		.loc 1 626 5 is_stmt 1 view .LVU778
 1991              		.loc 1 626 8 is_stmt 0 view .LVU779
 1992 0110 00B3     		cbz	r0, .L55
 627:Drivers/STM32F4xx_StdPeriph_Driver/src/stm32f4xx_cryp_aes.c ****    {
 628:Drivers/STM32F4xx_StdPeriph_Driver/src/stm32f4xx_cryp_aes.c ****        status = ERROR;
 1993              		.loc 1 628 15 view .LVU780
 1994 0112 0026     		movs	r6, #0
 1995              	.LVL283:
 1996              	.L49:
 606:Drivers/STM32F4xx_StdPeriph_Driver/src/stm32f4xx_cryp_aes.c ****   {
 1997              		.loc 1 606 48 is_stmt 1 discriminator 2 view .LVU781
 606:Drivers/STM32F4xx_StdPeriph_Driver/src/stm32f4xx_cryp_aes.c ****   {
 1998              		.loc 1 606 49 is_stmt 0 discriminator 2 view .LVU782
 1999 0114 1035     		adds	r5, r5, #16
 2000              	.LVL284:
 2001              	.L46:
 606:Drivers/STM32F4xx_StdPeriph_Driver/src/stm32f4xx_cryp_aes.c ****   {
ARM GAS  /tmp/ccjGnpiF.s 			page 62


 2002              		.loc 1 606 12 is_stmt 1 discriminator 1 view .LVU783
 606:Drivers/STM32F4xx_StdPeriph_Driver/src/stm32f4xx_cryp_aes.c ****   {
 2003              		.loc 1 606 3 is_stmt 0 discriminator 1 view .LVU784
 2004 0116 4545     		cmp	r5, r8
 2005 0118 2AD2     		bcs	.L50
 606:Drivers/STM32F4xx_StdPeriph_Driver/src/stm32f4xx_cryp_aes.c ****   {
 2006              		.loc 1 606 25 discriminator 3 view .LVU785
 2007 011a 4EB3     		cbz	r6, .L50
 610:Drivers/STM32F4xx_StdPeriph_Driver/src/stm32f4xx_cryp_aes.c ****     inputaddr+=4;
 2008              		.loc 1 610 5 is_stmt 1 view .LVU786
 2009 011c 2068     		ldr	r0, [r4]
 2010 011e FFF7FEFF 		bl	CRYP_DataIn
 2011              	.LVL285:
 611:Drivers/STM32F4xx_StdPeriph_Driver/src/stm32f4xx_cryp_aes.c ****     CRYP_DataIn(*(uint32_t*)(inputaddr));
 2012              		.loc 1 611 5 view .LVU787
 612:Drivers/STM32F4xx_StdPeriph_Driver/src/stm32f4xx_cryp_aes.c ****     inputaddr+=4;
 2013              		.loc 1 612 5 view .LVU788
 2014 0122 6068     		ldr	r0, [r4, #4]
 2015 0124 FFF7FEFF 		bl	CRYP_DataIn
 2016              	.LVL286:
 613:Drivers/STM32F4xx_StdPeriph_Driver/src/stm32f4xx_cryp_aes.c ****     CRYP_DataIn(*(uint32_t*)(inputaddr));
 2017              		.loc 1 613 5 view .LVU789
 614:Drivers/STM32F4xx_StdPeriph_Driver/src/stm32f4xx_cryp_aes.c ****     inputaddr+=4;
 2018              		.loc 1 614 5 view .LVU790
 2019 0128 A068     		ldr	r0, [r4, #8]
 2020 012a FFF7FEFF 		bl	CRYP_DataIn
 2021              	.LVL287:
 615:Drivers/STM32F4xx_StdPeriph_Driver/src/stm32f4xx_cryp_aes.c ****     CRYP_DataIn(*(uint32_t*)(inputaddr));
 2022              		.loc 1 615 5 view .LVU791
 616:Drivers/STM32F4xx_StdPeriph_Driver/src/stm32f4xx_cryp_aes.c ****     inputaddr+=4;
 2023              		.loc 1 616 5 view .LVU792
 2024 012e E068     		ldr	r0, [r4, #12]
 2025 0130 FFF7FEFF 		bl	CRYP_DataIn
 2026              	.LVL288:
 617:Drivers/STM32F4xx_StdPeriph_Driver/src/stm32f4xx_cryp_aes.c ****     /* Wait until the complete message has been processed */
 2027              		.loc 1 617 5 view .LVU793
 617:Drivers/STM32F4xx_StdPeriph_Driver/src/stm32f4xx_cryp_aes.c ****     /* Wait until the complete message has been processed */
 2028              		.loc 1 617 14 is_stmt 0 view .LVU794
 2029 0134 1034     		adds	r4, r4, #16
 2030              	.LVL289:
 619:Drivers/STM32F4xx_StdPeriph_Driver/src/stm32f4xx_cryp_aes.c ****     do
 2031              		.loc 1 619 5 is_stmt 1 view .LVU795
 619:Drivers/STM32F4xx_StdPeriph_Driver/src/stm32f4xx_cryp_aes.c ****     do
 2032              		.loc 1 619 13 is_stmt 0 view .LVU796
 2033 0136 0023     		movs	r3, #0
 2034 0138 0193     		str	r3, [sp, #4]
 2035              	.L48:
 620:Drivers/STM32F4xx_StdPeriph_Driver/src/stm32f4xx_cryp_aes.c ****     {
 2036              		.loc 1 620 5 is_stmt 1 discriminator 2 view .LVU797
 622:Drivers/STM32F4xx_StdPeriph_Driver/src/stm32f4xx_cryp_aes.c ****       counter++;
 2037              		.loc 1 622 7 discriminator 2 view .LVU798
 622:Drivers/STM32F4xx_StdPeriph_Driver/src/stm32f4xx_cryp_aes.c ****       counter++;
 2038              		.loc 1 622 20 is_stmt 0 discriminator 2 view .LVU799
 2039 013a 1020     		movs	r0, #16
 2040 013c FFF7FEFF 		bl	CRYP_GetFlagStatus
 2041              	.LVL290:
 623:Drivers/STM32F4xx_StdPeriph_Driver/src/stm32f4xx_cryp_aes.c ****     }while ((counter != AESBUSY_TIMEOUT) && (busystatus != RESET));
ARM GAS  /tmp/ccjGnpiF.s 			page 63


 2042              		.loc 1 623 7 is_stmt 1 discriminator 2 view .LVU800
 623:Drivers/STM32F4xx_StdPeriph_Driver/src/stm32f4xx_cryp_aes.c ****     }while ((counter != AESBUSY_TIMEOUT) && (busystatus != RESET));
 2043              		.loc 1 623 14 is_stmt 0 discriminator 2 view .LVU801
 2044 0140 019B     		ldr	r3, [sp, #4]
 2045 0142 0133     		adds	r3, r3, #1
 2046 0144 0193     		str	r3, [sp, #4]
 624:Drivers/STM32F4xx_StdPeriph_Driver/src/stm32f4xx_cryp_aes.c **** 
 2047              		.loc 1 624 12 is_stmt 1 discriminator 2 view .LVU802
 624:Drivers/STM32F4xx_StdPeriph_Driver/src/stm32f4xx_cryp_aes.c **** 
 2048              		.loc 1 624 22 is_stmt 0 discriminator 2 view .LVU803
 2049 0146 019B     		ldr	r3, [sp, #4]
 624:Drivers/STM32F4xx_StdPeriph_Driver/src/stm32f4xx_cryp_aes.c **** 
 2050              		.loc 1 624 5 discriminator 2 view .LVU804
 2051 0148 B3F5803F 		cmp	r3, #65536
 2052 014c E0D0     		beq	.L47
 624:Drivers/STM32F4xx_StdPeriph_Driver/src/stm32f4xx_cryp_aes.c **** 
 2053              		.loc 1 624 42 discriminator 1 view .LVU805
 2054 014e 0028     		cmp	r0, #0
 2055 0150 F3D1     		bne	.L48
 2056 0152 DDE7     		b	.L47
 2057              	.L55:
 629:Drivers/STM32F4xx_StdPeriph_Driver/src/stm32f4xx_cryp_aes.c ****     }
 630:Drivers/STM32F4xx_StdPeriph_Driver/src/stm32f4xx_cryp_aes.c ****     else
 631:Drivers/STM32F4xx_StdPeriph_Driver/src/stm32f4xx_cryp_aes.c ****     {
 632:Drivers/STM32F4xx_StdPeriph_Driver/src/stm32f4xx_cryp_aes.c **** 
 633:Drivers/STM32F4xx_StdPeriph_Driver/src/stm32f4xx_cryp_aes.c ****       /* Read the Output block from the Output FIFO */
 634:Drivers/STM32F4xx_StdPeriph_Driver/src/stm32f4xx_cryp_aes.c ****       *(uint32_t*)(outputaddr) = CRYP_DataOut();
 2058              		.loc 1 634 7 is_stmt 1 view .LVU806
 2059              		.loc 1 634 34 is_stmt 0 view .LVU807
 2060 0154 FFF7FEFF 		bl	CRYP_DataOut
 2061              	.LVL291:
 2062              		.loc 1 634 32 view .LVU808
 2063 0158 3860     		str	r0, [r7]
 635:Drivers/STM32F4xx_StdPeriph_Driver/src/stm32f4xx_cryp_aes.c ****       outputaddr+=4;
 2064              		.loc 1 635 7 is_stmt 1 view .LVU809
 2065              	.LVL292:
 636:Drivers/STM32F4xx_StdPeriph_Driver/src/stm32f4xx_cryp_aes.c ****       *(uint32_t*)(outputaddr) = CRYP_DataOut();
 2066              		.loc 1 636 7 view .LVU810
 2067              		.loc 1 636 34 is_stmt 0 view .LVU811
 2068 015a FFF7FEFF 		bl	CRYP_DataOut
 2069              	.LVL293:
 2070              		.loc 1 636 32 view .LVU812
 2071 015e 7860     		str	r0, [r7, #4]
 637:Drivers/STM32F4xx_StdPeriph_Driver/src/stm32f4xx_cryp_aes.c ****       outputaddr+=4;
 2072              		.loc 1 637 7 is_stmt 1 view .LVU813
 2073              	.LVL294:
 638:Drivers/STM32F4xx_StdPeriph_Driver/src/stm32f4xx_cryp_aes.c ****       *(uint32_t*)(outputaddr) = CRYP_DataOut();
 2074              		.loc 1 638 7 view .LVU814
 2075              		.loc 1 638 34 is_stmt 0 view .LVU815
 2076 0160 FFF7FEFF 		bl	CRYP_DataOut
 2077              	.LVL295:
 2078              		.loc 1 638 32 view .LVU816
 2079 0164 B860     		str	r0, [r7, #8]
 639:Drivers/STM32F4xx_StdPeriph_Driver/src/stm32f4xx_cryp_aes.c ****       outputaddr+=4;
 2080              		.loc 1 639 7 is_stmt 1 view .LVU817
 2081              	.LVL296:
 640:Drivers/STM32F4xx_StdPeriph_Driver/src/stm32f4xx_cryp_aes.c ****       *(uint32_t*)(outputaddr) = CRYP_DataOut();
ARM GAS  /tmp/ccjGnpiF.s 			page 64


 2082              		.loc 1 640 7 view .LVU818
 2083              		.loc 1 640 34 is_stmt 0 view .LVU819
 2084 0166 FFF7FEFF 		bl	CRYP_DataOut
 2085              	.LVL297:
 2086              		.loc 1 640 32 view .LVU820
 2087 016a F860     		str	r0, [r7, #12]
 641:Drivers/STM32F4xx_StdPeriph_Driver/src/stm32f4xx_cryp_aes.c ****       outputaddr+=4;
 2088              		.loc 1 641 7 is_stmt 1 view .LVU821
 2089              		.loc 1 641 17 is_stmt 0 view .LVU822
 2090 016c 1037     		adds	r7, r7, #16
 2091              	.LVL298:
 2092              		.loc 1 641 17 view .LVU823
 2093 016e D1E7     		b	.L49
 2094              	.L50:
 642:Drivers/STM32F4xx_StdPeriph_Driver/src/stm32f4xx_cryp_aes.c ****     }
 643:Drivers/STM32F4xx_StdPeriph_Driver/src/stm32f4xx_cryp_aes.c ****   }
 644:Drivers/STM32F4xx_StdPeriph_Driver/src/stm32f4xx_cryp_aes.c ****   /* Disable Crypto */
 645:Drivers/STM32F4xx_StdPeriph_Driver/src/stm32f4xx_cryp_aes.c ****   CRYP_Cmd(DISABLE);
 2095              		.loc 1 645 3 is_stmt 1 view .LVU824
 2096 0170 0020     		movs	r0, #0
 2097 0172 FFF7FEFF 		bl	CRYP_Cmd
 2098              	.LVL299:
 646:Drivers/STM32F4xx_StdPeriph_Driver/src/stm32f4xx_cryp_aes.c **** 
 647:Drivers/STM32F4xx_StdPeriph_Driver/src/stm32f4xx_cryp_aes.c ****   return status;
 2099              		.loc 1 647 3 view .LVU825
 2100              	.L45:
 648:Drivers/STM32F4xx_StdPeriph_Driver/src/stm32f4xx_cryp_aes.c **** }
 2101              		.loc 1 648 1 is_stmt 0 view .LVU826
 2102 0176 3046     		mov	r0, r6
 2103 0178 12B0     		add	sp, sp, #72
 2104              		.cfi_def_cfa_offset 32
 2105              		@ sp needed
 2106 017a BDE8F087 		pop	{r4, r5, r6, r7, r8, r9, r10, pc}
 2107              		.loc 1 648 1 view .LVU827
 2108              		.cfi_endproc
 2109              	.LFE125:
 2111              		.section	.text.CRYP_AES_GCM,"ax",%progbits
 2112              		.align	1
 2113              		.global	CRYP_AES_GCM
 2114              		.syntax unified
 2115              		.thumb
 2116              		.thumb_func
 2117              		.fpu fpv4-sp-d16
 2119              	CRYP_AES_GCM:
 2120              	.LVL300:
 2121              	.LFB126:
 649:Drivers/STM32F4xx_StdPeriph_Driver/src/stm32f4xx_cryp_aes.c **** 
 650:Drivers/STM32F4xx_StdPeriph_Driver/src/stm32f4xx_cryp_aes.c **** /**
 651:Drivers/STM32F4xx_StdPeriph_Driver/src/stm32f4xx_cryp_aes.c ****   * @brief  Encrypt and decrypt using AES in GCM Mode. The GCM and CCM modes
 652:Drivers/STM32F4xx_StdPeriph_Driver/src/stm32f4xx_cryp_aes.c ****   *         are available only on STM32F437x Devices.
 653:Drivers/STM32F4xx_StdPeriph_Driver/src/stm32f4xx_cryp_aes.c ****   * @param  Mode: encryption or decryption Mode.
 654:Drivers/STM32F4xx_StdPeriph_Driver/src/stm32f4xx_cryp_aes.c ****   *          This parameter can be one of the following values:
 655:Drivers/STM32F4xx_StdPeriph_Driver/src/stm32f4xx_cryp_aes.c ****   *            @arg MODE_ENCRYPT: Encryption
 656:Drivers/STM32F4xx_StdPeriph_Driver/src/stm32f4xx_cryp_aes.c ****   *            @arg MODE_DECRYPT: Decryption
 657:Drivers/STM32F4xx_StdPeriph_Driver/src/stm32f4xx_cryp_aes.c ****   * @param  InitVectors: Initialisation Vectors used for AES algorithm.
 658:Drivers/STM32F4xx_StdPeriph_Driver/src/stm32f4xx_cryp_aes.c ****   * @param  Key: Key used for AES algorithm.
 659:Drivers/STM32F4xx_StdPeriph_Driver/src/stm32f4xx_cryp_aes.c ****   * @param  Keysize: length of the Key, must be a 128, 192 or 256.
ARM GAS  /tmp/ccjGnpiF.s 			page 65


 660:Drivers/STM32F4xx_StdPeriph_Driver/src/stm32f4xx_cryp_aes.c ****   * @param  Input: pointer to the Input buffer.
 661:Drivers/STM32F4xx_StdPeriph_Driver/src/stm32f4xx_cryp_aes.c ****   * @param  Ilength: length of the Input buffer in bytes, must be a multiple of 16.
 662:Drivers/STM32F4xx_StdPeriph_Driver/src/stm32f4xx_cryp_aes.c ****   * @param  Header: pointer to the header buffer.
 663:Drivers/STM32F4xx_StdPeriph_Driver/src/stm32f4xx_cryp_aes.c ****   * @param  Hlength: length of the header buffer in bytes, must be a multiple of 16.  
 664:Drivers/STM32F4xx_StdPeriph_Driver/src/stm32f4xx_cryp_aes.c ****   * @param  Output: pointer to the returned buffer.
 665:Drivers/STM32F4xx_StdPeriph_Driver/src/stm32f4xx_cryp_aes.c ****   * @param  AuthTAG: pointer to the authentication TAG buffer.
 666:Drivers/STM32F4xx_StdPeriph_Driver/src/stm32f4xx_cryp_aes.c ****   * @retval An ErrorStatus enumeration value:
 667:Drivers/STM32F4xx_StdPeriph_Driver/src/stm32f4xx_cryp_aes.c ****   *          - SUCCESS: Operation done
 668:Drivers/STM32F4xx_StdPeriph_Driver/src/stm32f4xx_cryp_aes.c ****   *          - ERROR: Operation failed
 669:Drivers/STM32F4xx_StdPeriph_Driver/src/stm32f4xx_cryp_aes.c ****   */
 670:Drivers/STM32F4xx_StdPeriph_Driver/src/stm32f4xx_cryp_aes.c **** ErrorStatus CRYP_AES_GCM(uint8_t Mode, uint8_t InitVectors[16],
 671:Drivers/STM32F4xx_StdPeriph_Driver/src/stm32f4xx_cryp_aes.c ****                          uint8_t *Key, uint16_t Keysize,
 672:Drivers/STM32F4xx_StdPeriph_Driver/src/stm32f4xx_cryp_aes.c ****                          uint8_t *Input, uint32_t ILength,
 673:Drivers/STM32F4xx_StdPeriph_Driver/src/stm32f4xx_cryp_aes.c ****                          uint8_t *Header, uint32_t HLength,
 674:Drivers/STM32F4xx_StdPeriph_Driver/src/stm32f4xx_cryp_aes.c ****                          uint8_t *Output, uint8_t *AuthTAG)
 675:Drivers/STM32F4xx_StdPeriph_Driver/src/stm32f4xx_cryp_aes.c **** {
 2122              		.loc 1 675 1 is_stmt 1 view -0
 2123              		.cfi_startproc
 2124              		@ args = 24, pretend = 0, frame = 88
 2125              		@ frame_needed = 0, uses_anonymous_args = 0
 2126              		.loc 1 675 1 is_stmt 0 view .LVU829
 2127 0000 2DE9F04F 		push	{r4, r5, r6, r7, r8, r9, r10, fp, lr}
 2128              		.cfi_def_cfa_offset 36
 2129              		.cfi_offset 4, -36
 2130              		.cfi_offset 5, -32
 2131              		.cfi_offset 6, -28
 2132              		.cfi_offset 7, -24
 2133              		.cfi_offset 8, -20
 2134              		.cfi_offset 9, -16
 2135              		.cfi_offset 10, -12
 2136              		.cfi_offset 11, -8
 2137              		.cfi_offset 14, -4
 2138 0004 97B0     		sub	sp, sp, #92
 2139              		.cfi_def_cfa_offset 128
 2140 0006 0190     		str	r0, [sp, #4]
 2141 0008 0F46     		mov	r7, r1
 2142 000a 1646     		mov	r6, r2
 2143 000c 9846     		mov	r8, r3
 2144 000e DDF88490 		ldr	r9, [sp, #132]
 2145 0012 DDF88CA0 		ldr	r10, [sp, #140]
 676:Drivers/STM32F4xx_StdPeriph_Driver/src/stm32f4xx_cryp_aes.c ****   CRYP_InitTypeDef AES_CRYP_InitStructure;
 2146              		.loc 1 676 3 is_stmt 1 view .LVU830
 677:Drivers/STM32F4xx_StdPeriph_Driver/src/stm32f4xx_cryp_aes.c ****   CRYP_KeyInitTypeDef AES_CRYP_KeyInitStructure;
 2147              		.loc 1 677 3 view .LVU831
 678:Drivers/STM32F4xx_StdPeriph_Driver/src/stm32f4xx_cryp_aes.c ****   CRYP_IVInitTypeDef AES_CRYP_IVInitStructure;
 2148              		.loc 1 678 3 view .LVU832
 679:Drivers/STM32F4xx_StdPeriph_Driver/src/stm32f4xx_cryp_aes.c ****   __IO uint32_t counter = 0;
 2149              		.loc 1 679 3 view .LVU833
 2150              		.loc 1 679 17 is_stmt 0 view .LVU834
 2151 0016 0023     		movs	r3, #0
 2152              	.LVL301:
 2153              		.loc 1 679 17 view .LVU835
 2154 0018 0593     		str	r3, [sp, #20]
 680:Drivers/STM32F4xx_StdPeriph_Driver/src/stm32f4xx_cryp_aes.c ****   uint32_t busystatus = 0;
 2155              		.loc 1 680 3 is_stmt 1 view .LVU836
 2156              	.LVL302:
 681:Drivers/STM32F4xx_StdPeriph_Driver/src/stm32f4xx_cryp_aes.c ****   ErrorStatus status = SUCCESS;
ARM GAS  /tmp/ccjGnpiF.s 			page 66


 2157              		.loc 1 681 3 view .LVU837
 682:Drivers/STM32F4xx_StdPeriph_Driver/src/stm32f4xx_cryp_aes.c ****   uint32_t keyaddr    = (uint32_t)Key;
 2158              		.loc 1 682 3 view .LVU838
 683:Drivers/STM32F4xx_StdPeriph_Driver/src/stm32f4xx_cryp_aes.c ****   uint32_t inputaddr  = (uint32_t)Input;
 2159              		.loc 1 683 3 view .LVU839
 2160              		.loc 1 683 12 is_stmt 0 view .LVU840
 2161 001a 209C     		ldr	r4, [sp, #128]
 2162              	.LVL303:
 684:Drivers/STM32F4xx_StdPeriph_Driver/src/stm32f4xx_cryp_aes.c ****   uint32_t outputaddr = (uint32_t)Output;
 2163              		.loc 1 684 3 is_stmt 1 view .LVU841
 2164              		.loc 1 684 12 is_stmt 0 view .LVU842
 2165 001c DDF890B0 		ldr	fp, [sp, #144]
 2166              	.LVL304:
 685:Drivers/STM32F4xx_StdPeriph_Driver/src/stm32f4xx_cryp_aes.c ****   uint32_t ivaddr     = (uint32_t)InitVectors;
 2167              		.loc 1 685 3 is_stmt 1 view .LVU843
 686:Drivers/STM32F4xx_StdPeriph_Driver/src/stm32f4xx_cryp_aes.c ****   uint32_t headeraddr = (uint32_t)Header;
 2168              		.loc 1 686 3 view .LVU844
 2169              		.loc 1 686 12 is_stmt 0 view .LVU845
 2170 0020 229D     		ldr	r5, [sp, #136]
 2171              	.LVL305:
 687:Drivers/STM32F4xx_StdPeriph_Driver/src/stm32f4xx_cryp_aes.c ****   uint32_t tagaddr = (uint32_t)AuthTAG;
 2172              		.loc 1 687 3 is_stmt 1 view .LVU846
 688:Drivers/STM32F4xx_StdPeriph_Driver/src/stm32f4xx_cryp_aes.c ****   uint64_t headerlength = HLength * 8;/* header length in bits */
 2173              		.loc 1 688 3 view .LVU847
 2174              		.loc 1 688 35 is_stmt 0 view .LVU848
 2175 0022 4FEACA03 		lsl	r3, r10, #3
 2176 0026 0293     		str	r3, [sp, #8]
 2177              	.LVL306:
 689:Drivers/STM32F4xx_StdPeriph_Driver/src/stm32f4xx_cryp_aes.c ****   uint64_t inputlength = ILength * 8;/* input length in bits */
 2178              		.loc 1 689 3 is_stmt 1 view .LVU849
 2179              		.loc 1 689 34 is_stmt 0 view .LVU850
 2180 0028 4FEAC903 		lsl	r3, r9, #3
 2181              	.LVL307:
 2182              		.loc 1 689 34 view .LVU851
 2183 002c 0393     		str	r3, [sp, #12]
 2184              	.LVL308:
 690:Drivers/STM32F4xx_StdPeriph_Driver/src/stm32f4xx_cryp_aes.c ****   uint32_t loopcounter = 0;
 2185              		.loc 1 690 3 is_stmt 1 view .LVU852
 691:Drivers/STM32F4xx_StdPeriph_Driver/src/stm32f4xx_cryp_aes.c **** 
 692:Drivers/STM32F4xx_StdPeriph_Driver/src/stm32f4xx_cryp_aes.c ****   /* Crypto structures initialisation*/
 693:Drivers/STM32F4xx_StdPeriph_Driver/src/stm32f4xx_cryp_aes.c ****   CRYP_KeyStructInit(&AES_CRYP_KeyInitStructure);
 2186              		.loc 1 693 3 view .LVU853
 2187 002e 0AA8     		add	r0, sp, #40
 2188              	.LVL309:
 2189              		.loc 1 693 3 is_stmt 0 view .LVU854
 2190 0030 FFF7FEFF 		bl	CRYP_KeyStructInit
 2191              	.LVL310:
 694:Drivers/STM32F4xx_StdPeriph_Driver/src/stm32f4xx_cryp_aes.c **** 
 695:Drivers/STM32F4xx_StdPeriph_Driver/src/stm32f4xx_cryp_aes.c ****   switch(Keysize)
 2192              		.loc 1 695 3 is_stmt 1 view .LVU855
 2193 0034 B8F1C00F 		cmp	r8, #192
 2194 0038 57D0     		beq	.L57
 2195 003a B8F5807F 		cmp	r8, #256
 2196 003e 6AD0     		beq	.L58
 2197 0040 B8F1800F 		cmp	r8, #128
 2198 0044 42D0     		beq	.L99
 2199              	.LVL311:
ARM GAS  /tmp/ccjGnpiF.s 			page 67


 2200              	.L59:
 696:Drivers/STM32F4xx_StdPeriph_Driver/src/stm32f4xx_cryp_aes.c ****   {
 697:Drivers/STM32F4xx_StdPeriph_Driver/src/stm32f4xx_cryp_aes.c ****     case 128:
 698:Drivers/STM32F4xx_StdPeriph_Driver/src/stm32f4xx_cryp_aes.c ****     AES_CRYP_InitStructure.CRYP_KeySize = CRYP_KeySize_128b;
 699:Drivers/STM32F4xx_StdPeriph_Driver/src/stm32f4xx_cryp_aes.c ****     AES_CRYP_KeyInitStructure.CRYP_Key2Left = __REV(*(uint32_t*)(keyaddr));
 700:Drivers/STM32F4xx_StdPeriph_Driver/src/stm32f4xx_cryp_aes.c ****     keyaddr+=4;
 701:Drivers/STM32F4xx_StdPeriph_Driver/src/stm32f4xx_cryp_aes.c ****     AES_CRYP_KeyInitStructure.CRYP_Key2Right= __REV(*(uint32_t*)(keyaddr));
 702:Drivers/STM32F4xx_StdPeriph_Driver/src/stm32f4xx_cryp_aes.c ****     keyaddr+=4;
 703:Drivers/STM32F4xx_StdPeriph_Driver/src/stm32f4xx_cryp_aes.c ****     AES_CRYP_KeyInitStructure.CRYP_Key3Left = __REV(*(uint32_t*)(keyaddr));
 704:Drivers/STM32F4xx_StdPeriph_Driver/src/stm32f4xx_cryp_aes.c ****     keyaddr+=4;
 705:Drivers/STM32F4xx_StdPeriph_Driver/src/stm32f4xx_cryp_aes.c ****     AES_CRYP_KeyInitStructure.CRYP_Key3Right= __REV(*(uint32_t*)(keyaddr));
 706:Drivers/STM32F4xx_StdPeriph_Driver/src/stm32f4xx_cryp_aes.c ****     break;
 707:Drivers/STM32F4xx_StdPeriph_Driver/src/stm32f4xx_cryp_aes.c ****     case 192:
 708:Drivers/STM32F4xx_StdPeriph_Driver/src/stm32f4xx_cryp_aes.c ****     AES_CRYP_InitStructure.CRYP_KeySize  = CRYP_KeySize_192b;
 709:Drivers/STM32F4xx_StdPeriph_Driver/src/stm32f4xx_cryp_aes.c ****     AES_CRYP_KeyInitStructure.CRYP_Key1Left = __REV(*(uint32_t*)(keyaddr));
 710:Drivers/STM32F4xx_StdPeriph_Driver/src/stm32f4xx_cryp_aes.c ****     keyaddr+=4;
 711:Drivers/STM32F4xx_StdPeriph_Driver/src/stm32f4xx_cryp_aes.c ****     AES_CRYP_KeyInitStructure.CRYP_Key1Right= __REV(*(uint32_t*)(keyaddr));
 712:Drivers/STM32F4xx_StdPeriph_Driver/src/stm32f4xx_cryp_aes.c ****     keyaddr+=4;
 713:Drivers/STM32F4xx_StdPeriph_Driver/src/stm32f4xx_cryp_aes.c ****     AES_CRYP_KeyInitStructure.CRYP_Key2Left = __REV(*(uint32_t*)(keyaddr));
 714:Drivers/STM32F4xx_StdPeriph_Driver/src/stm32f4xx_cryp_aes.c ****     keyaddr+=4;
 715:Drivers/STM32F4xx_StdPeriph_Driver/src/stm32f4xx_cryp_aes.c ****     AES_CRYP_KeyInitStructure.CRYP_Key2Right= __REV(*(uint32_t*)(keyaddr));
 716:Drivers/STM32F4xx_StdPeriph_Driver/src/stm32f4xx_cryp_aes.c ****     keyaddr+=4;
 717:Drivers/STM32F4xx_StdPeriph_Driver/src/stm32f4xx_cryp_aes.c ****     AES_CRYP_KeyInitStructure.CRYP_Key3Left = __REV(*(uint32_t*)(keyaddr));
 718:Drivers/STM32F4xx_StdPeriph_Driver/src/stm32f4xx_cryp_aes.c ****     keyaddr+=4;
 719:Drivers/STM32F4xx_StdPeriph_Driver/src/stm32f4xx_cryp_aes.c ****     AES_CRYP_KeyInitStructure.CRYP_Key3Right= __REV(*(uint32_t*)(keyaddr));
 720:Drivers/STM32F4xx_StdPeriph_Driver/src/stm32f4xx_cryp_aes.c ****     break;
 721:Drivers/STM32F4xx_StdPeriph_Driver/src/stm32f4xx_cryp_aes.c ****     case 256:
 722:Drivers/STM32F4xx_StdPeriph_Driver/src/stm32f4xx_cryp_aes.c ****     AES_CRYP_InitStructure.CRYP_KeySize  = CRYP_KeySize_256b;
 723:Drivers/STM32F4xx_StdPeriph_Driver/src/stm32f4xx_cryp_aes.c ****     AES_CRYP_KeyInitStructure.CRYP_Key0Left = __REV(*(uint32_t*)(keyaddr));
 724:Drivers/STM32F4xx_StdPeriph_Driver/src/stm32f4xx_cryp_aes.c ****     keyaddr+=4;
 725:Drivers/STM32F4xx_StdPeriph_Driver/src/stm32f4xx_cryp_aes.c ****     AES_CRYP_KeyInitStructure.CRYP_Key0Right= __REV(*(uint32_t*)(keyaddr));
 726:Drivers/STM32F4xx_StdPeriph_Driver/src/stm32f4xx_cryp_aes.c ****     keyaddr+=4;
 727:Drivers/STM32F4xx_StdPeriph_Driver/src/stm32f4xx_cryp_aes.c ****     AES_CRYP_KeyInitStructure.CRYP_Key1Left = __REV(*(uint32_t*)(keyaddr));
 728:Drivers/STM32F4xx_StdPeriph_Driver/src/stm32f4xx_cryp_aes.c ****     keyaddr+=4;
 729:Drivers/STM32F4xx_StdPeriph_Driver/src/stm32f4xx_cryp_aes.c ****     AES_CRYP_KeyInitStructure.CRYP_Key1Right= __REV(*(uint32_t*)(keyaddr));
 730:Drivers/STM32F4xx_StdPeriph_Driver/src/stm32f4xx_cryp_aes.c ****     keyaddr+=4;
 731:Drivers/STM32F4xx_StdPeriph_Driver/src/stm32f4xx_cryp_aes.c ****     AES_CRYP_KeyInitStructure.CRYP_Key2Left = __REV(*(uint32_t*)(keyaddr));
 732:Drivers/STM32F4xx_StdPeriph_Driver/src/stm32f4xx_cryp_aes.c ****     keyaddr+=4;
 733:Drivers/STM32F4xx_StdPeriph_Driver/src/stm32f4xx_cryp_aes.c ****     AES_CRYP_KeyInitStructure.CRYP_Key2Right= __REV(*(uint32_t*)(keyaddr));
 734:Drivers/STM32F4xx_StdPeriph_Driver/src/stm32f4xx_cryp_aes.c ****     keyaddr+=4;
 735:Drivers/STM32F4xx_StdPeriph_Driver/src/stm32f4xx_cryp_aes.c ****     AES_CRYP_KeyInitStructure.CRYP_Key3Left = __REV(*(uint32_t*)(keyaddr));
 736:Drivers/STM32F4xx_StdPeriph_Driver/src/stm32f4xx_cryp_aes.c ****     keyaddr+=4;
 737:Drivers/STM32F4xx_StdPeriph_Driver/src/stm32f4xx_cryp_aes.c ****     AES_CRYP_KeyInitStructure.CRYP_Key3Right= __REV(*(uint32_t*)(keyaddr));
 738:Drivers/STM32F4xx_StdPeriph_Driver/src/stm32f4xx_cryp_aes.c ****     break;
 739:Drivers/STM32F4xx_StdPeriph_Driver/src/stm32f4xx_cryp_aes.c ****     default:
 740:Drivers/STM32F4xx_StdPeriph_Driver/src/stm32f4xx_cryp_aes.c ****     break;
 741:Drivers/STM32F4xx_StdPeriph_Driver/src/stm32f4xx_cryp_aes.c ****   }
 742:Drivers/STM32F4xx_StdPeriph_Driver/src/stm32f4xx_cryp_aes.c ****   
 743:Drivers/STM32F4xx_StdPeriph_Driver/src/stm32f4xx_cryp_aes.c ****   /* CRYP Initialization Vectors */
 744:Drivers/STM32F4xx_StdPeriph_Driver/src/stm32f4xx_cryp_aes.c ****   AES_CRYP_IVInitStructure.CRYP_IV0Left = __REV(*(uint32_t*)(ivaddr));
 2201              		.loc 1 744 3 view .LVU856
 2202              		.loc 1 744 43 is_stmt 0 view .LVU857
 2203 0046 3B68     		ldr	r3, [r7]
 2204              	.LVL312:
 2205              	.LBB354:
 2206              	.LBI354:
 495:Drivers/CMSIS/Include/core_cmInstr.h **** {
ARM GAS  /tmp/ccjGnpiF.s 			page 68


 2207              		.loc 2 495 57 is_stmt 1 view .LVU858
 2208              	.LBB355:
 2209              		.loc 2 498 3 view .LVU859
 2210              		.loc 2 498 10 is_stmt 0 view .LVU860
 2211 0048 1BBA     		rev	r3, r3
 2212              	.LVL313:
 2213              		.loc 2 498 10 view .LVU861
 2214              	.LBE355:
 2215              	.LBE354:
 2216              		.loc 1 744 41 view .LVU862
 2217 004a 0693     		str	r3, [sp, #24]
 745:Drivers/STM32F4xx_StdPeriph_Driver/src/stm32f4xx_cryp_aes.c ****   ivaddr+=4;
 2218              		.loc 1 745 3 is_stmt 1 view .LVU863
 2219              	.LVL314:
 746:Drivers/STM32F4xx_StdPeriph_Driver/src/stm32f4xx_cryp_aes.c ****   AES_CRYP_IVInitStructure.CRYP_IV0Right= __REV(*(uint32_t*)(ivaddr));
 2220              		.loc 1 746 3 view .LVU864
 2221              		.loc 1 746 43 is_stmt 0 view .LVU865
 2222 004c 7B68     		ldr	r3, [r7, #4]
 2223              	.LVL315:
 2224              	.LBB356:
 2225              	.LBI356:
 495:Drivers/CMSIS/Include/core_cmInstr.h **** {
 2226              		.loc 2 495 57 is_stmt 1 view .LVU866
 2227              	.LBB357:
 2228              		.loc 2 498 3 view .LVU867
 2229              		.loc 2 498 10 is_stmt 0 view .LVU868
 2230 004e 1BBA     		rev	r3, r3
 2231              	.LVL316:
 2232              		.loc 2 498 10 view .LVU869
 2233              	.LBE357:
 2234              	.LBE356:
 2235              		.loc 1 746 41 view .LVU870
 2236 0050 0793     		str	r3, [sp, #28]
 747:Drivers/STM32F4xx_StdPeriph_Driver/src/stm32f4xx_cryp_aes.c ****   ivaddr+=4;
 2237              		.loc 1 747 3 is_stmt 1 view .LVU871
 2238              	.LVL317:
 748:Drivers/STM32F4xx_StdPeriph_Driver/src/stm32f4xx_cryp_aes.c ****   AES_CRYP_IVInitStructure.CRYP_IV1Left = __REV(*(uint32_t*)(ivaddr));
 2239              		.loc 1 748 3 view .LVU872
 2240              		.loc 1 748 43 is_stmt 0 view .LVU873
 2241 0052 BB68     		ldr	r3, [r7, #8]
 2242              	.LVL318:
 2243              	.LBB358:
 2244              	.LBI358:
 495:Drivers/CMSIS/Include/core_cmInstr.h **** {
 2245              		.loc 2 495 57 is_stmt 1 view .LVU874
 2246              	.LBB359:
 2247              		.loc 2 498 3 view .LVU875
 2248              		.loc 2 498 10 is_stmt 0 view .LVU876
 2249 0054 1BBA     		rev	r3, r3
 2250              	.LVL319:
 2251              		.loc 2 498 10 view .LVU877
 2252              	.LBE359:
 2253              	.LBE358:
 2254              		.loc 1 748 41 view .LVU878
 2255 0056 0893     		str	r3, [sp, #32]
 749:Drivers/STM32F4xx_StdPeriph_Driver/src/stm32f4xx_cryp_aes.c ****   ivaddr+=4;
 2256              		.loc 1 749 3 is_stmt 1 view .LVU879
ARM GAS  /tmp/ccjGnpiF.s 			page 69


 2257              	.LVL320:
 750:Drivers/STM32F4xx_StdPeriph_Driver/src/stm32f4xx_cryp_aes.c ****   AES_CRYP_IVInitStructure.CRYP_IV1Right= __REV(*(uint32_t*)(ivaddr));
 2258              		.loc 1 750 3 view .LVU880
 2259              		.loc 1 750 43 is_stmt 0 view .LVU881
 2260 0058 FB68     		ldr	r3, [r7, #12]
 2261              	.LVL321:
 2262              	.LBB360:
 2263              	.LBI360:
 495:Drivers/CMSIS/Include/core_cmInstr.h **** {
 2264              		.loc 2 495 57 is_stmt 1 view .LVU882
 2265              	.LBB361:
 2266              		.loc 2 498 3 view .LVU883
 2267              		.loc 2 498 10 is_stmt 0 view .LVU884
 2268 005a 1BBA     		rev	r3, r3
 2269              	.LVL322:
 2270              		.loc 2 498 10 view .LVU885
 2271              	.LBE361:
 2272              	.LBE360:
 2273              		.loc 1 750 41 view .LVU886
 2274 005c 0993     		str	r3, [sp, #36]
 751:Drivers/STM32F4xx_StdPeriph_Driver/src/stm32f4xx_cryp_aes.c ****   
 752:Drivers/STM32F4xx_StdPeriph_Driver/src/stm32f4xx_cryp_aes.c ****   /*------------------ AES Encryption ------------------*/
 753:Drivers/STM32F4xx_StdPeriph_Driver/src/stm32f4xx_cryp_aes.c ****   if(Mode == MODE_ENCRYPT) /* AES encryption */
 2275              		.loc 1 753 3 is_stmt 1 view .LVU887
 2276              		.loc 1 753 5 is_stmt 0 view .LVU888
 2277 005e 019B     		ldr	r3, [sp, #4]
 2278 0060 012B     		cmp	r3, #1
 2279 0062 74D0     		beq	.L100
 754:Drivers/STM32F4xx_StdPeriph_Driver/src/stm32f4xx_cryp_aes.c ****   {
 755:Drivers/STM32F4xx_StdPeriph_Driver/src/stm32f4xx_cryp_aes.c ****     /* Flush IN/OUT FIFOs */
 756:Drivers/STM32F4xx_StdPeriph_Driver/src/stm32f4xx_cryp_aes.c ****     CRYP_FIFOFlush();
 757:Drivers/STM32F4xx_StdPeriph_Driver/src/stm32f4xx_cryp_aes.c ****     
 758:Drivers/STM32F4xx_StdPeriph_Driver/src/stm32f4xx_cryp_aes.c ****     /* Key Initialisation */
 759:Drivers/STM32F4xx_StdPeriph_Driver/src/stm32f4xx_cryp_aes.c ****     CRYP_KeyInit(&AES_CRYP_KeyInitStructure);
 760:Drivers/STM32F4xx_StdPeriph_Driver/src/stm32f4xx_cryp_aes.c ****     
 761:Drivers/STM32F4xx_StdPeriph_Driver/src/stm32f4xx_cryp_aes.c ****     /* CRYP Initialization Vectors */
 762:Drivers/STM32F4xx_StdPeriph_Driver/src/stm32f4xx_cryp_aes.c ****     CRYP_IVInit(&AES_CRYP_IVInitStructure);
 763:Drivers/STM32F4xx_StdPeriph_Driver/src/stm32f4xx_cryp_aes.c ****     
 764:Drivers/STM32F4xx_StdPeriph_Driver/src/stm32f4xx_cryp_aes.c ****     /* Crypto Init for Key preparation for decryption process */
 765:Drivers/STM32F4xx_StdPeriph_Driver/src/stm32f4xx_cryp_aes.c ****     AES_CRYP_InitStructure.CRYP_AlgoDir = CRYP_AlgoDir_Encrypt;
 766:Drivers/STM32F4xx_StdPeriph_Driver/src/stm32f4xx_cryp_aes.c ****     AES_CRYP_InitStructure.CRYP_AlgoMode = CRYP_AlgoMode_AES_GCM;
 767:Drivers/STM32F4xx_StdPeriph_Driver/src/stm32f4xx_cryp_aes.c ****     AES_CRYP_InitStructure.CRYP_DataType = CRYP_DataType_8b;
 768:Drivers/STM32F4xx_StdPeriph_Driver/src/stm32f4xx_cryp_aes.c ****     CRYP_Init(&AES_CRYP_InitStructure);
 769:Drivers/STM32F4xx_StdPeriph_Driver/src/stm32f4xx_cryp_aes.c ****     
 770:Drivers/STM32F4xx_StdPeriph_Driver/src/stm32f4xx_cryp_aes.c ****     /***************************** Init phase *********************************/
 771:Drivers/STM32F4xx_StdPeriph_Driver/src/stm32f4xx_cryp_aes.c ****     /* Select init phase */
 772:Drivers/STM32F4xx_StdPeriph_Driver/src/stm32f4xx_cryp_aes.c ****     CRYP_PhaseConfig(CRYP_Phase_Init);
 773:Drivers/STM32F4xx_StdPeriph_Driver/src/stm32f4xx_cryp_aes.c ****     
 774:Drivers/STM32F4xx_StdPeriph_Driver/src/stm32f4xx_cryp_aes.c ****     /* Enable Crypto processor */
 775:Drivers/STM32F4xx_StdPeriph_Driver/src/stm32f4xx_cryp_aes.c ****     CRYP_Cmd(ENABLE);
 776:Drivers/STM32F4xx_StdPeriph_Driver/src/stm32f4xx_cryp_aes.c ****     
 777:Drivers/STM32F4xx_StdPeriph_Driver/src/stm32f4xx_cryp_aes.c ****     /* Wait for CRYPEN bit to be 0 */
 778:Drivers/STM32F4xx_StdPeriph_Driver/src/stm32f4xx_cryp_aes.c ****     while(CRYP_GetCmdStatus() == ENABLE)
 779:Drivers/STM32F4xx_StdPeriph_Driver/src/stm32f4xx_cryp_aes.c ****     {
 780:Drivers/STM32F4xx_StdPeriph_Driver/src/stm32f4xx_cryp_aes.c ****     }
 781:Drivers/STM32F4xx_StdPeriph_Driver/src/stm32f4xx_cryp_aes.c ****     
 782:Drivers/STM32F4xx_StdPeriph_Driver/src/stm32f4xx_cryp_aes.c ****     /***************************** header phase *******************************/
ARM GAS  /tmp/ccjGnpiF.s 			page 70


 783:Drivers/STM32F4xx_StdPeriph_Driver/src/stm32f4xx_cryp_aes.c ****     if(HLength != 0)
 784:Drivers/STM32F4xx_StdPeriph_Driver/src/stm32f4xx_cryp_aes.c ****     {
 785:Drivers/STM32F4xx_StdPeriph_Driver/src/stm32f4xx_cryp_aes.c ****       /* Select header phase */
