ARM GAS  /tmp/ccGdFbQ0.s 			page 1


   1              		.cpu cortex-m4
   2              		.arch armv7e-m
   3              		.fpu fpv4-sp-d16
   4              		.eabi_attribute 27, 1
   5              		.eabi_attribute 28, 1
   6              		.eabi_attribute 20, 1
   7              		.eabi_attribute 21, 1
   8              		.eabi_attribute 23, 3
   9              		.eabi_attribute 24, 1
  10              		.eabi_attribute 25, 1
  11              		.eabi_attribute 26, 1
  12              		.eabi_attribute 30, 1
  13              		.eabi_attribute 34, 1
  14              		.eabi_attribute 18, 4
  15              		.file	"stm32f4xx_i2c.c"
  16              		.text
  17              	.Ltext0:
  18              		.cfi_sections	.debug_frame
  19              		.section	.text.I2C_DeInit,"ax",%progbits
  20              		.align	1
  21              		.global	I2C_DeInit
  22              		.syntax unified
  23              		.thumb
  24              		.thumb_func
  26              	I2C_DeInit:
  27              	.LVL0:
  28              	.LFB123:
  29              		.file 1 "Drivers/STM32F4xx_StdPeriph_Driver/src/stm32f4xx_i2c.c"
   1:Drivers/STM32F4xx_StdPeriph_Driver/src/stm32f4xx_i2c.c **** /**
   2:Drivers/STM32F4xx_StdPeriph_Driver/src/stm32f4xx_i2c.c ****   ******************************************************************************
   3:Drivers/STM32F4xx_StdPeriph_Driver/src/stm32f4xx_i2c.c ****   * @file    stm32f4xx_i2c.c
   4:Drivers/STM32F4xx_StdPeriph_Driver/src/stm32f4xx_i2c.c ****   * @author  MCD Application Team
   5:Drivers/STM32F4xx_StdPeriph_Driver/src/stm32f4xx_i2c.c ****   * @version V1.6.1
   6:Drivers/STM32F4xx_StdPeriph_Driver/src/stm32f4xx_i2c.c ****   * @date    21-October-2015
   7:Drivers/STM32F4xx_StdPeriph_Driver/src/stm32f4xx_i2c.c ****   * @brief   This file provides firmware functions to manage the following 
   8:Drivers/STM32F4xx_StdPeriph_Driver/src/stm32f4xx_i2c.c ****   *          functionalities of the Inter-integrated circuit (I2C)
   9:Drivers/STM32F4xx_StdPeriph_Driver/src/stm32f4xx_i2c.c ****   *           + Initialization and Configuration
  10:Drivers/STM32F4xx_StdPeriph_Driver/src/stm32f4xx_i2c.c ****   *           + Data transfers
  11:Drivers/STM32F4xx_StdPeriph_Driver/src/stm32f4xx_i2c.c ****   *           + PEC management
  12:Drivers/STM32F4xx_StdPeriph_Driver/src/stm32f4xx_i2c.c ****   *           + DMA transfers management
  13:Drivers/STM32F4xx_StdPeriph_Driver/src/stm32f4xx_i2c.c ****   *           + Interrupts, events and flags management 
  14:Drivers/STM32F4xx_StdPeriph_Driver/src/stm32f4xx_i2c.c ****   *           
  15:Drivers/STM32F4xx_StdPeriph_Driver/src/stm32f4xx_i2c.c ****     @verbatim    
  16:Drivers/STM32F4xx_StdPeriph_Driver/src/stm32f4xx_i2c.c ****  ===============================================================================
  17:Drivers/STM32F4xx_StdPeriph_Driver/src/stm32f4xx_i2c.c ****                     ##### How to use this driver #####
  18:Drivers/STM32F4xx_StdPeriph_Driver/src/stm32f4xx_i2c.c ****  ===============================================================================
  19:Drivers/STM32F4xx_StdPeriph_Driver/src/stm32f4xx_i2c.c ****     [..]
  20:Drivers/STM32F4xx_StdPeriph_Driver/src/stm32f4xx_i2c.c ****       (#) Enable peripheral clock using RCC_APB1PeriphClockCmd(RCC_APB1Periph_I2Cx, ENABLE)
  21:Drivers/STM32F4xx_StdPeriph_Driver/src/stm32f4xx_i2c.c ****           function for I2C1, I2C2 or I2C3.
  22:Drivers/STM32F4xx_StdPeriph_Driver/src/stm32f4xx_i2c.c ****   
  23:Drivers/STM32F4xx_StdPeriph_Driver/src/stm32f4xx_i2c.c ****       (#) Enable SDA, SCL  and SMBA (when used) GPIO clocks using 
  24:Drivers/STM32F4xx_StdPeriph_Driver/src/stm32f4xx_i2c.c ****           RCC_AHBPeriphClockCmd() function. 
  25:Drivers/STM32F4xx_StdPeriph_Driver/src/stm32f4xx_i2c.c ****   
  26:Drivers/STM32F4xx_StdPeriph_Driver/src/stm32f4xx_i2c.c ****       (#) Peripherals alternate function: 
  27:Drivers/STM32F4xx_StdPeriph_Driver/src/stm32f4xx_i2c.c ****         (++) Connect the pin to the desired peripherals' Alternate 
  28:Drivers/STM32F4xx_StdPeriph_Driver/src/stm32f4xx_i2c.c ****              Function (AF) using GPIO_PinAFConfig() function
  29:Drivers/STM32F4xx_StdPeriph_Driver/src/stm32f4xx_i2c.c ****         (++) Configure the desired pin in alternate function by:
ARM GAS  /tmp/ccGdFbQ0.s 			page 2


  30:Drivers/STM32F4xx_StdPeriph_Driver/src/stm32f4xx_i2c.c ****              GPIO_InitStruct->GPIO_Mode = GPIO_Mode_AF
  31:Drivers/STM32F4xx_StdPeriph_Driver/src/stm32f4xx_i2c.c ****         (++) Select the type, pull-up/pull-down and output speed via 
  32:Drivers/STM32F4xx_StdPeriph_Driver/src/stm32f4xx_i2c.c ****              GPIO_PuPd, GPIO_OType and GPIO_Speed members
  33:Drivers/STM32F4xx_StdPeriph_Driver/src/stm32f4xx_i2c.c ****         (++) Call GPIO_Init() function
  34:Drivers/STM32F4xx_StdPeriph_Driver/src/stm32f4xx_i2c.c ****              Recommended configuration is Push-Pull, Pull-up, Open-Drain.
  35:Drivers/STM32F4xx_StdPeriph_Driver/src/stm32f4xx_i2c.c ****              Add an external pull up if necessary (typically 4.7 KOhm).      
  36:Drivers/STM32F4xx_StdPeriph_Driver/src/stm32f4xx_i2c.c ****           
  37:Drivers/STM32F4xx_StdPeriph_Driver/src/stm32f4xx_i2c.c ****       (#) Program the Mode, duty cycle , Own address, Ack, Speed and Acknowledged
  38:Drivers/STM32F4xx_StdPeriph_Driver/src/stm32f4xx_i2c.c ****           Address using the I2C_Init() function.
  39:Drivers/STM32F4xx_StdPeriph_Driver/src/stm32f4xx_i2c.c ****   
  40:Drivers/STM32F4xx_StdPeriph_Driver/src/stm32f4xx_i2c.c ****       (#) Optionally you can enable/configure the following parameters without
  41:Drivers/STM32F4xx_StdPeriph_Driver/src/stm32f4xx_i2c.c ****           re-initialization (i.e there is no need to call again I2C_Init() function):
  42:Drivers/STM32F4xx_StdPeriph_Driver/src/stm32f4xx_i2c.c ****         (++) Enable the acknowledge feature using I2C_AcknowledgeConfig() function
  43:Drivers/STM32F4xx_StdPeriph_Driver/src/stm32f4xx_i2c.c ****         (++) Enable the dual addressing mode using I2C_DualAddressCmd() function
  44:Drivers/STM32F4xx_StdPeriph_Driver/src/stm32f4xx_i2c.c ****         (++) Enable the general call using the I2C_GeneralCallCmd() function
  45:Drivers/STM32F4xx_StdPeriph_Driver/src/stm32f4xx_i2c.c ****         (++) Enable the clock stretching using I2C_StretchClockCmd() function
  46:Drivers/STM32F4xx_StdPeriph_Driver/src/stm32f4xx_i2c.c ****         (++) Enable the fast mode duty cycle using the I2C_FastModeDutyCycleConfig()
  47:Drivers/STM32F4xx_StdPeriph_Driver/src/stm32f4xx_i2c.c ****              function.
  48:Drivers/STM32F4xx_StdPeriph_Driver/src/stm32f4xx_i2c.c ****         (++) Configure the NACK position for Master Receiver mode in case of 
  49:Drivers/STM32F4xx_StdPeriph_Driver/src/stm32f4xx_i2c.c ****              2 bytes reception using the function I2C_NACKPositionConfig().  
  50:Drivers/STM32F4xx_StdPeriph_Driver/src/stm32f4xx_i2c.c ****         (++) Enable the PEC Calculation using I2C_CalculatePEC() function
  51:Drivers/STM32F4xx_StdPeriph_Driver/src/stm32f4xx_i2c.c ****         (++) For SMBus Mode: 
  52:Drivers/STM32F4xx_StdPeriph_Driver/src/stm32f4xx_i2c.c ****           (+++) Enable the Address Resolution Protocol (ARP) using I2C_ARPCmd() function
  53:Drivers/STM32F4xx_StdPeriph_Driver/src/stm32f4xx_i2c.c ****           (+++) Configure the SMBusAlert pin using I2C_SMBusAlertConfig() function
  54:Drivers/STM32F4xx_StdPeriph_Driver/src/stm32f4xx_i2c.c ****   
  55:Drivers/STM32F4xx_StdPeriph_Driver/src/stm32f4xx_i2c.c ****       (#) Enable the NVIC and the corresponding interrupt using the function 
  56:Drivers/STM32F4xx_StdPeriph_Driver/src/stm32f4xx_i2c.c ****           I2C_ITConfig() if you need to use interrupt mode. 
  57:Drivers/STM32F4xx_StdPeriph_Driver/src/stm32f4xx_i2c.c ****   
  58:Drivers/STM32F4xx_StdPeriph_Driver/src/stm32f4xx_i2c.c ****       (#) When using the DMA mode 
  59:Drivers/STM32F4xx_StdPeriph_Driver/src/stm32f4xx_i2c.c ****         (++) Configure the DMA using DMA_Init() function
  60:Drivers/STM32F4xx_StdPeriph_Driver/src/stm32f4xx_i2c.c ****         (++) Active the needed channel Request using I2C_DMACmd() or
  61:Drivers/STM32F4xx_StdPeriph_Driver/src/stm32f4xx_i2c.c ****              I2C_DMALastTransferCmd() function.
  62:Drivers/STM32F4xx_StdPeriph_Driver/src/stm32f4xx_i2c.c ****         -@@- When using DMA mode, I2C interrupts may be used at the same time to
  63:Drivers/STM32F4xx_StdPeriph_Driver/src/stm32f4xx_i2c.c ****              control the communication flow (Start/Stop/Ack... events and errors).
  64:Drivers/STM32F4xx_StdPeriph_Driver/src/stm32f4xx_i2c.c ****    
  65:Drivers/STM32F4xx_StdPeriph_Driver/src/stm32f4xx_i2c.c ****       (#) Enable the I2C using the I2C_Cmd() function.
  66:Drivers/STM32F4xx_StdPeriph_Driver/src/stm32f4xx_i2c.c ****    
  67:Drivers/STM32F4xx_StdPeriph_Driver/src/stm32f4xx_i2c.c ****       (#) Enable the DMA using the DMA_Cmd() function when using DMA mode in the 
  68:Drivers/STM32F4xx_StdPeriph_Driver/src/stm32f4xx_i2c.c ****           transfers. 
  69:Drivers/STM32F4xx_StdPeriph_Driver/src/stm32f4xx_i2c.c ****   
  70:Drivers/STM32F4xx_StdPeriph_Driver/src/stm32f4xx_i2c.c ****     @endverbatim  
  71:Drivers/STM32F4xx_StdPeriph_Driver/src/stm32f4xx_i2c.c ****   ******************************************************************************
  72:Drivers/STM32F4xx_StdPeriph_Driver/src/stm32f4xx_i2c.c ****   * @attention
  73:Drivers/STM32F4xx_StdPeriph_Driver/src/stm32f4xx_i2c.c ****   *
  74:Drivers/STM32F4xx_StdPeriph_Driver/src/stm32f4xx_i2c.c ****   * <h2><center>&copy; COPYRIGHT 2015 STMicroelectronics</center></h2>
  75:Drivers/STM32F4xx_StdPeriph_Driver/src/stm32f4xx_i2c.c ****   *
  76:Drivers/STM32F4xx_StdPeriph_Driver/src/stm32f4xx_i2c.c ****   * Licensed under MCD-ST Liberty SW License Agreement V2, (the "License");
  77:Drivers/STM32F4xx_StdPeriph_Driver/src/stm32f4xx_i2c.c ****   * You may not use this file except in compliance with the License.
  78:Drivers/STM32F4xx_StdPeriph_Driver/src/stm32f4xx_i2c.c ****   * You may obtain a copy of the License at:
  79:Drivers/STM32F4xx_StdPeriph_Driver/src/stm32f4xx_i2c.c ****   *
  80:Drivers/STM32F4xx_StdPeriph_Driver/src/stm32f4xx_i2c.c ****   *        http://www.st.com/software_license_agreement_liberty_v2
  81:Drivers/STM32F4xx_StdPeriph_Driver/src/stm32f4xx_i2c.c ****   *
  82:Drivers/STM32F4xx_StdPeriph_Driver/src/stm32f4xx_i2c.c ****   * Unless required by applicable law or agreed to in writing, software 
  83:Drivers/STM32F4xx_StdPeriph_Driver/src/stm32f4xx_i2c.c ****   * distributed under the License is distributed on an "AS IS" BASIS, 
  84:Drivers/STM32F4xx_StdPeriph_Driver/src/stm32f4xx_i2c.c ****   * WITHOUT WARRANTIES OR CONDITIONS OF ANY KIND, either express or implied.
  85:Drivers/STM32F4xx_StdPeriph_Driver/src/stm32f4xx_i2c.c ****   * See the License for the specific language governing permissions and
  86:Drivers/STM32F4xx_StdPeriph_Driver/src/stm32f4xx_i2c.c ****   * limitations under the License.
ARM GAS  /tmp/ccGdFbQ0.s 			page 3


  87:Drivers/STM32F4xx_StdPeriph_Driver/src/stm32f4xx_i2c.c ****   *
  88:Drivers/STM32F4xx_StdPeriph_Driver/src/stm32f4xx_i2c.c ****   ******************************************************************************  
  89:Drivers/STM32F4xx_StdPeriph_Driver/src/stm32f4xx_i2c.c ****   */ 
  90:Drivers/STM32F4xx_StdPeriph_Driver/src/stm32f4xx_i2c.c **** 
  91:Drivers/STM32F4xx_StdPeriph_Driver/src/stm32f4xx_i2c.c **** /* Includes ------------------------------------------------------------------*/
  92:Drivers/STM32F4xx_StdPeriph_Driver/src/stm32f4xx_i2c.c **** #include "stm32f4xx_i2c.h"
  93:Drivers/STM32F4xx_StdPeriph_Driver/src/stm32f4xx_i2c.c **** #include "stm32f4xx_rcc.h"
  94:Drivers/STM32F4xx_StdPeriph_Driver/src/stm32f4xx_i2c.c **** 
  95:Drivers/STM32F4xx_StdPeriph_Driver/src/stm32f4xx_i2c.c **** /** @addtogroup STM32F4xx_StdPeriph_Driver
  96:Drivers/STM32F4xx_StdPeriph_Driver/src/stm32f4xx_i2c.c ****   * @{
  97:Drivers/STM32F4xx_StdPeriph_Driver/src/stm32f4xx_i2c.c ****   */
  98:Drivers/STM32F4xx_StdPeriph_Driver/src/stm32f4xx_i2c.c **** 
  99:Drivers/STM32F4xx_StdPeriph_Driver/src/stm32f4xx_i2c.c **** /** @defgroup I2C 
 100:Drivers/STM32F4xx_StdPeriph_Driver/src/stm32f4xx_i2c.c ****   * @brief I2C driver modules
 101:Drivers/STM32F4xx_StdPeriph_Driver/src/stm32f4xx_i2c.c ****   * @{
 102:Drivers/STM32F4xx_StdPeriph_Driver/src/stm32f4xx_i2c.c ****   */ 
 103:Drivers/STM32F4xx_StdPeriph_Driver/src/stm32f4xx_i2c.c **** 
 104:Drivers/STM32F4xx_StdPeriph_Driver/src/stm32f4xx_i2c.c **** /* Private typedef -----------------------------------------------------------*/
 105:Drivers/STM32F4xx_StdPeriph_Driver/src/stm32f4xx_i2c.c **** /* Private define ------------------------------------------------------------*/
 106:Drivers/STM32F4xx_StdPeriph_Driver/src/stm32f4xx_i2c.c **** 
 107:Drivers/STM32F4xx_StdPeriph_Driver/src/stm32f4xx_i2c.c **** #define CR1_CLEAR_MASK    ((uint16_t)0xFBF5)      /*<! I2C registers Masks */
 108:Drivers/STM32F4xx_StdPeriph_Driver/src/stm32f4xx_i2c.c **** #define FLAG_MASK         ((uint32_t)0x00FFFFFF)  /*<! I2C FLAG mask */
 109:Drivers/STM32F4xx_StdPeriph_Driver/src/stm32f4xx_i2c.c **** #define ITEN_MASK         ((uint32_t)0x07000000)  /*<! I2C Interrupt Enable mask */
 110:Drivers/STM32F4xx_StdPeriph_Driver/src/stm32f4xx_i2c.c **** 
 111:Drivers/STM32F4xx_StdPeriph_Driver/src/stm32f4xx_i2c.c **** /* Private macro -------------------------------------------------------------*/
 112:Drivers/STM32F4xx_StdPeriph_Driver/src/stm32f4xx_i2c.c **** /* Private variables ---------------------------------------------------------*/
 113:Drivers/STM32F4xx_StdPeriph_Driver/src/stm32f4xx_i2c.c **** /* Private function prototypes -----------------------------------------------*/
 114:Drivers/STM32F4xx_StdPeriph_Driver/src/stm32f4xx_i2c.c **** /* Private functions ---------------------------------------------------------*/
 115:Drivers/STM32F4xx_StdPeriph_Driver/src/stm32f4xx_i2c.c **** 
 116:Drivers/STM32F4xx_StdPeriph_Driver/src/stm32f4xx_i2c.c **** /** @defgroup I2C_Private_Functions
 117:Drivers/STM32F4xx_StdPeriph_Driver/src/stm32f4xx_i2c.c ****   * @{
 118:Drivers/STM32F4xx_StdPeriph_Driver/src/stm32f4xx_i2c.c ****   */
 119:Drivers/STM32F4xx_StdPeriph_Driver/src/stm32f4xx_i2c.c **** 
 120:Drivers/STM32F4xx_StdPeriph_Driver/src/stm32f4xx_i2c.c **** /** @defgroup I2C_Group1 Initialization and Configuration functions
 121:Drivers/STM32F4xx_StdPeriph_Driver/src/stm32f4xx_i2c.c ****  *  @brief   Initialization and Configuration functions 
 122:Drivers/STM32F4xx_StdPeriph_Driver/src/stm32f4xx_i2c.c ****  *
 123:Drivers/STM32F4xx_StdPeriph_Driver/src/stm32f4xx_i2c.c **** @verbatim   
 124:Drivers/STM32F4xx_StdPeriph_Driver/src/stm32f4xx_i2c.c ****  ===============================================================================
 125:Drivers/STM32F4xx_StdPeriph_Driver/src/stm32f4xx_i2c.c ****             ##### Initialization and Configuration functions #####
 126:Drivers/STM32F4xx_StdPeriph_Driver/src/stm32f4xx_i2c.c ****  ===============================================================================  
 127:Drivers/STM32F4xx_StdPeriph_Driver/src/stm32f4xx_i2c.c **** 
 128:Drivers/STM32F4xx_StdPeriph_Driver/src/stm32f4xx_i2c.c **** @endverbatim
 129:Drivers/STM32F4xx_StdPeriph_Driver/src/stm32f4xx_i2c.c ****   * @{
 130:Drivers/STM32F4xx_StdPeriph_Driver/src/stm32f4xx_i2c.c ****   */
 131:Drivers/STM32F4xx_StdPeriph_Driver/src/stm32f4xx_i2c.c **** 
 132:Drivers/STM32F4xx_StdPeriph_Driver/src/stm32f4xx_i2c.c **** /**
 133:Drivers/STM32F4xx_StdPeriph_Driver/src/stm32f4xx_i2c.c ****   * @brief  Deinitialize the I2Cx peripheral registers to their default reset values.
 134:Drivers/STM32F4xx_StdPeriph_Driver/src/stm32f4xx_i2c.c ****   * @param  I2Cx: where x can be 1, 2 or 3 to select the I2C peripheral.
 135:Drivers/STM32F4xx_StdPeriph_Driver/src/stm32f4xx_i2c.c ****   * @retval None
 136:Drivers/STM32F4xx_StdPeriph_Driver/src/stm32f4xx_i2c.c ****   */
 137:Drivers/STM32F4xx_StdPeriph_Driver/src/stm32f4xx_i2c.c **** void I2C_DeInit(I2C_TypeDef* I2Cx)
 138:Drivers/STM32F4xx_StdPeriph_Driver/src/stm32f4xx_i2c.c **** {
  30              		.loc 1 138 1 view -0
  31              		.cfi_startproc
  32              		@ args = 0, pretend = 0, frame = 0
  33              		@ frame_needed = 0, uses_anonymous_args = 0
  34              		.loc 1 138 1 is_stmt 0 view .LVU1
ARM GAS  /tmp/ccGdFbQ0.s 			page 4


  35 0000 08B5     		push	{r3, lr}
  36              		.cfi_def_cfa_offset 8
  37              		.cfi_offset 3, -8
  38              		.cfi_offset 14, -4
 139:Drivers/STM32F4xx_StdPeriph_Driver/src/stm32f4xx_i2c.c ****   /* Check the parameters */
 140:Drivers/STM32F4xx_StdPeriph_Driver/src/stm32f4xx_i2c.c ****   assert_param(IS_I2C_ALL_PERIPH(I2Cx));
  39              		.loc 1 140 3 is_stmt 1 view .LVU2
 141:Drivers/STM32F4xx_StdPeriph_Driver/src/stm32f4xx_i2c.c **** 
 142:Drivers/STM32F4xx_StdPeriph_Driver/src/stm32f4xx_i2c.c ****   if (I2Cx == I2C1)
  40              		.loc 1 142 3 view .LVU3
  41              		.loc 1 142 6 is_stmt 0 view .LVU4
  42 0002 154B     		ldr	r3, .L9
  43 0004 9842     		cmp	r0, r3
  44 0006 06D0     		beq	.L6
 143:Drivers/STM32F4xx_StdPeriph_Driver/src/stm32f4xx_i2c.c ****   {
 144:Drivers/STM32F4xx_StdPeriph_Driver/src/stm32f4xx_i2c.c ****     /* Enable I2C1 reset state */
 145:Drivers/STM32F4xx_StdPeriph_Driver/src/stm32f4xx_i2c.c ****     RCC_APB1PeriphResetCmd(RCC_APB1Periph_I2C1, ENABLE);
 146:Drivers/STM32F4xx_StdPeriph_Driver/src/stm32f4xx_i2c.c ****     /* Release I2C1 from reset state */
 147:Drivers/STM32F4xx_StdPeriph_Driver/src/stm32f4xx_i2c.c ****     RCC_APB1PeriphResetCmd(RCC_APB1Periph_I2C1, DISABLE);    
 148:Drivers/STM32F4xx_StdPeriph_Driver/src/stm32f4xx_i2c.c ****   }
 149:Drivers/STM32F4xx_StdPeriph_Driver/src/stm32f4xx_i2c.c ****   else if (I2Cx == I2C2)
  45              		.loc 1 149 8 is_stmt 1 view .LVU5
  46              		.loc 1 149 11 is_stmt 0 view .LVU6
  47 0008 144B     		ldr	r3, .L9+4
  48 000a 9842     		cmp	r0, r3
  49 000c 0ED0     		beq	.L7
 150:Drivers/STM32F4xx_StdPeriph_Driver/src/stm32f4xx_i2c.c ****   {
 151:Drivers/STM32F4xx_StdPeriph_Driver/src/stm32f4xx_i2c.c ****     /* Enable I2C2 reset state */
 152:Drivers/STM32F4xx_StdPeriph_Driver/src/stm32f4xx_i2c.c ****     RCC_APB1PeriphResetCmd(RCC_APB1Periph_I2C2, ENABLE);
 153:Drivers/STM32F4xx_StdPeriph_Driver/src/stm32f4xx_i2c.c ****     /* Release I2C2 from reset state */
 154:Drivers/STM32F4xx_StdPeriph_Driver/src/stm32f4xx_i2c.c ****     RCC_APB1PeriphResetCmd(RCC_APB1Periph_I2C2, DISABLE);      
 155:Drivers/STM32F4xx_StdPeriph_Driver/src/stm32f4xx_i2c.c ****   }
 156:Drivers/STM32F4xx_StdPeriph_Driver/src/stm32f4xx_i2c.c ****   else 
 157:Drivers/STM32F4xx_StdPeriph_Driver/src/stm32f4xx_i2c.c ****   {
 158:Drivers/STM32F4xx_StdPeriph_Driver/src/stm32f4xx_i2c.c ****     if (I2Cx == I2C3)
  50              		.loc 1 158 5 is_stmt 1 view .LVU7
  51              		.loc 1 158 8 is_stmt 0 view .LVU8
  52 000e 144B     		ldr	r3, .L9+8
  53 0010 9842     		cmp	r0, r3
  54 0012 16D0     		beq	.L8
  55              	.LVL1:
  56              	.L1:
 159:Drivers/STM32F4xx_StdPeriph_Driver/src/stm32f4xx_i2c.c ****     {
 160:Drivers/STM32F4xx_StdPeriph_Driver/src/stm32f4xx_i2c.c ****       /* Enable I2C3 reset state */
 161:Drivers/STM32F4xx_StdPeriph_Driver/src/stm32f4xx_i2c.c ****       RCC_APB1PeriphResetCmd(RCC_APB1Periph_I2C3, ENABLE);
 162:Drivers/STM32F4xx_StdPeriph_Driver/src/stm32f4xx_i2c.c ****       /* Release I2C3 from reset state */
 163:Drivers/STM32F4xx_StdPeriph_Driver/src/stm32f4xx_i2c.c ****       RCC_APB1PeriphResetCmd(RCC_APB1Periph_I2C3, DISABLE);     
 164:Drivers/STM32F4xx_StdPeriph_Driver/src/stm32f4xx_i2c.c ****     }
 165:Drivers/STM32F4xx_StdPeriph_Driver/src/stm32f4xx_i2c.c ****   }
 166:Drivers/STM32F4xx_StdPeriph_Driver/src/stm32f4xx_i2c.c **** }
  57              		.loc 1 166 1 view .LVU9
  58 0014 08BD     		pop	{r3, pc}
  59              	.LVL2:
  60              	.L6:
 145:Drivers/STM32F4xx_StdPeriph_Driver/src/stm32f4xx_i2c.c ****     /* Release I2C1 from reset state */
  61              		.loc 1 145 5 is_stmt 1 view .LVU10
  62 0016 0121     		movs	r1, #1
ARM GAS  /tmp/ccGdFbQ0.s 			page 5


  63 0018 4FF40010 		mov	r0, #2097152
  64              	.LVL3:
 145:Drivers/STM32F4xx_StdPeriph_Driver/src/stm32f4xx_i2c.c ****     /* Release I2C1 from reset state */
  65              		.loc 1 145 5 is_stmt 0 view .LVU11
  66 001c FFF7FEFF 		bl	RCC_APB1PeriphResetCmd
  67              	.LVL4:
 147:Drivers/STM32F4xx_StdPeriph_Driver/src/stm32f4xx_i2c.c ****   }
  68              		.loc 1 147 5 is_stmt 1 view .LVU12
  69 0020 0021     		movs	r1, #0
  70 0022 4FF40010 		mov	r0, #2097152
  71 0026 FFF7FEFF 		bl	RCC_APB1PeriphResetCmd
  72              	.LVL5:
  73 002a F3E7     		b	.L1
  74              	.LVL6:
  75              	.L7:
 152:Drivers/STM32F4xx_StdPeriph_Driver/src/stm32f4xx_i2c.c ****     /* Release I2C2 from reset state */
  76              		.loc 1 152 5 view .LVU13
  77 002c 0121     		movs	r1, #1
  78 002e 4FF48000 		mov	r0, #4194304
  79              	.LVL7:
 152:Drivers/STM32F4xx_StdPeriph_Driver/src/stm32f4xx_i2c.c ****     /* Release I2C2 from reset state */
  80              		.loc 1 152 5 is_stmt 0 view .LVU14
  81 0032 FFF7FEFF 		bl	RCC_APB1PeriphResetCmd
  82              	.LVL8:
 154:Drivers/STM32F4xx_StdPeriph_Driver/src/stm32f4xx_i2c.c ****   }
  83              		.loc 1 154 5 is_stmt 1 view .LVU15
  84 0036 0021     		movs	r1, #0
  85 0038 4FF48000 		mov	r0, #4194304
  86 003c FFF7FEFF 		bl	RCC_APB1PeriphResetCmd
  87              	.LVL9:
  88 0040 E8E7     		b	.L1
  89              	.LVL10:
  90              	.L8:
 161:Drivers/STM32F4xx_StdPeriph_Driver/src/stm32f4xx_i2c.c ****       /* Release I2C3 from reset state */
  91              		.loc 1 161 7 view .LVU16
  92 0042 0121     		movs	r1, #1
  93 0044 4FF40000 		mov	r0, #8388608
  94              	.LVL11:
 161:Drivers/STM32F4xx_StdPeriph_Driver/src/stm32f4xx_i2c.c ****       /* Release I2C3 from reset state */
  95              		.loc 1 161 7 is_stmt 0 view .LVU17
  96 0048 FFF7FEFF 		bl	RCC_APB1PeriphResetCmd
  97              	.LVL12:
 163:Drivers/STM32F4xx_StdPeriph_Driver/src/stm32f4xx_i2c.c ****     }
  98              		.loc 1 163 7 is_stmt 1 view .LVU18
  99 004c 0021     		movs	r1, #0
 100 004e 4FF40000 		mov	r0, #8388608
 101 0052 FFF7FEFF 		bl	RCC_APB1PeriphResetCmd
 102              	.LVL13:
 103              		.loc 1 166 1 is_stmt 0 view .LVU19
 104 0056 DDE7     		b	.L1
 105              	.L10:
 106              		.align	2
 107              	.L9:
 108 0058 00540040 		.word	1073763328
 109 005c 00580040 		.word	1073764352
 110 0060 005C0040 		.word	1073765376
 111              		.cfi_endproc
ARM GAS  /tmp/ccGdFbQ0.s 			page 6


 112              	.LFE123:
 114              		.section	.text.I2C_Init,"ax",%progbits
 115              		.align	1
 116              		.global	I2C_Init
 117              		.syntax unified
 118              		.thumb
 119              		.thumb_func
 121              	I2C_Init:
 122              	.LVL14:
 123              	.LFB124:
 167:Drivers/STM32F4xx_StdPeriph_Driver/src/stm32f4xx_i2c.c **** 
 168:Drivers/STM32F4xx_StdPeriph_Driver/src/stm32f4xx_i2c.c **** /**
 169:Drivers/STM32F4xx_StdPeriph_Driver/src/stm32f4xx_i2c.c ****   * @brief  Initializes the I2Cx peripheral according to the specified 
 170:Drivers/STM32F4xx_StdPeriph_Driver/src/stm32f4xx_i2c.c ****   *         parameters in the I2C_InitStruct.
 171:Drivers/STM32F4xx_StdPeriph_Driver/src/stm32f4xx_i2c.c ****   *           
 172:Drivers/STM32F4xx_StdPeriph_Driver/src/stm32f4xx_i2c.c ****   * @note   To use the I2C at 400 KHz (in fast mode), the PCLK1 frequency 
 173:Drivers/STM32F4xx_StdPeriph_Driver/src/stm32f4xx_i2c.c ****   *         (I2C peripheral input clock) must be a multiple of 10 MHz.  
 174:Drivers/STM32F4xx_StdPeriph_Driver/src/stm32f4xx_i2c.c ****   *           
 175:Drivers/STM32F4xx_StdPeriph_Driver/src/stm32f4xx_i2c.c ****   * @param  I2Cx: where x can be 1, 2 or 3 to select the I2C peripheral.
 176:Drivers/STM32F4xx_StdPeriph_Driver/src/stm32f4xx_i2c.c ****   * @param  I2C_InitStruct: pointer to a I2C_InitTypeDef structure that contains 
 177:Drivers/STM32F4xx_StdPeriph_Driver/src/stm32f4xx_i2c.c ****   *         the configuration information for the specified I2C peripheral.
 178:Drivers/STM32F4xx_StdPeriph_Driver/src/stm32f4xx_i2c.c ****   * @retval None
 179:Drivers/STM32F4xx_StdPeriph_Driver/src/stm32f4xx_i2c.c ****   */
 180:Drivers/STM32F4xx_StdPeriph_Driver/src/stm32f4xx_i2c.c **** void I2C_Init(I2C_TypeDef* I2Cx, I2C_InitTypeDef* I2C_InitStruct)
 181:Drivers/STM32F4xx_StdPeriph_Driver/src/stm32f4xx_i2c.c **** {
 124              		.loc 1 181 1 is_stmt 1 view -0
 125              		.cfi_startproc
 126              		@ args = 0, pretend = 0, frame = 16
 127              		@ frame_needed = 0, uses_anonymous_args = 0
 128              		.loc 1 181 1 is_stmt 0 view .LVU21
 129 0000 70B5     		push	{r4, r5, r6, lr}
 130              		.cfi_def_cfa_offset 16
 131              		.cfi_offset 4, -16
 132              		.cfi_offset 5, -12
 133              		.cfi_offset 6, -8
 134              		.cfi_offset 14, -4
 135 0002 84B0     		sub	sp, sp, #16
 136              		.cfi_def_cfa_offset 32
 137 0004 0446     		mov	r4, r0
 138 0006 0D46     		mov	r5, r1
 182:Drivers/STM32F4xx_StdPeriph_Driver/src/stm32f4xx_i2c.c ****   uint16_t tmpreg = 0, freqrange = 0;
 139              		.loc 1 182 3 is_stmt 1 view .LVU22
 140              	.LVL15:
 183:Drivers/STM32F4xx_StdPeriph_Driver/src/stm32f4xx_i2c.c ****   uint16_t result = 0x04;
 141              		.loc 1 183 3 view .LVU23
 184:Drivers/STM32F4xx_StdPeriph_Driver/src/stm32f4xx_i2c.c ****   uint32_t pclk1 = 8000000;
 142              		.loc 1 184 3 view .LVU24
 185:Drivers/STM32F4xx_StdPeriph_Driver/src/stm32f4xx_i2c.c ****   RCC_ClocksTypeDef  rcc_clocks;
 143              		.loc 1 185 3 view .LVU25
 186:Drivers/STM32F4xx_StdPeriph_Driver/src/stm32f4xx_i2c.c ****   /* Check the parameters */
 187:Drivers/STM32F4xx_StdPeriph_Driver/src/stm32f4xx_i2c.c ****   assert_param(IS_I2C_ALL_PERIPH(I2Cx));
 144              		.loc 1 187 3 view .LVU26
 188:Drivers/STM32F4xx_StdPeriph_Driver/src/stm32f4xx_i2c.c ****   assert_param(IS_I2C_CLOCK_SPEED(I2C_InitStruct->I2C_ClockSpeed));
 145              		.loc 1 188 3 view .LVU27
 189:Drivers/STM32F4xx_StdPeriph_Driver/src/stm32f4xx_i2c.c ****   assert_param(IS_I2C_MODE(I2C_InitStruct->I2C_Mode));
 146              		.loc 1 189 3 view .LVU28
 190:Drivers/STM32F4xx_StdPeriph_Driver/src/stm32f4xx_i2c.c ****   assert_param(IS_I2C_DUTY_CYCLE(I2C_InitStruct->I2C_DutyCycle));
ARM GAS  /tmp/ccGdFbQ0.s 			page 7


 147              		.loc 1 190 3 view .LVU29
 191:Drivers/STM32F4xx_StdPeriph_Driver/src/stm32f4xx_i2c.c ****   assert_param(IS_I2C_OWN_ADDRESS1(I2C_InitStruct->I2C_OwnAddress1));
 148              		.loc 1 191 3 view .LVU30
 192:Drivers/STM32F4xx_StdPeriph_Driver/src/stm32f4xx_i2c.c ****   assert_param(IS_I2C_ACK_STATE(I2C_InitStruct->I2C_Ack));
 149              		.loc 1 192 3 view .LVU31
 193:Drivers/STM32F4xx_StdPeriph_Driver/src/stm32f4xx_i2c.c ****   assert_param(IS_I2C_ACKNOWLEDGE_ADDRESS(I2C_InitStruct->I2C_AcknowledgedAddress));
 150              		.loc 1 193 3 view .LVU32
 194:Drivers/STM32F4xx_StdPeriph_Driver/src/stm32f4xx_i2c.c **** 
 195:Drivers/STM32F4xx_StdPeriph_Driver/src/stm32f4xx_i2c.c **** /*---------------------------- I2Cx CR2 Configuration ------------------------*/
 196:Drivers/STM32F4xx_StdPeriph_Driver/src/stm32f4xx_i2c.c ****   /* Get the I2Cx CR2 value */
 197:Drivers/STM32F4xx_StdPeriph_Driver/src/stm32f4xx_i2c.c ****   tmpreg = I2Cx->CR2;
 151              		.loc 1 197 3 view .LVU33
 152              		.loc 1 197 10 is_stmt 0 view .LVU34
 153 0008 8688     		ldrh	r6, [r0, #4]
 154 000a B6B2     		uxth	r6, r6
 155              	.LVL16:
 198:Drivers/STM32F4xx_StdPeriph_Driver/src/stm32f4xx_i2c.c ****   /* Clear frequency FREQ[5:0] bits */
 199:Drivers/STM32F4xx_StdPeriph_Driver/src/stm32f4xx_i2c.c ****   tmpreg &= (uint16_t)~((uint16_t)I2C_CR2_FREQ);
 156              		.loc 1 199 3 is_stmt 1 view .LVU35
 157              		.loc 1 199 10 is_stmt 0 view .LVU36
 158 000c 26F03F06 		bic	r6, r6, #63
 159              	.LVL17:
 160              		.loc 1 199 10 view .LVU37
 161 0010 B6B2     		uxth	r6, r6
 162              	.LVL18:
 200:Drivers/STM32F4xx_StdPeriph_Driver/src/stm32f4xx_i2c.c ****   /* Get pclk1 frequency value */
 201:Drivers/STM32F4xx_StdPeriph_Driver/src/stm32f4xx_i2c.c ****   RCC_GetClocksFreq(&rcc_clocks);
 163              		.loc 1 201 3 is_stmt 1 view .LVU38
 164 0012 6846     		mov	r0, sp
 165              	.LVL19:
 166              		.loc 1 201 3 is_stmt 0 view .LVU39
 167 0014 FFF7FEFF 		bl	RCC_GetClocksFreq
 168              	.LVL20:
 202:Drivers/STM32F4xx_StdPeriph_Driver/src/stm32f4xx_i2c.c ****   pclk1 = rcc_clocks.PCLK1_Frequency;
 169              		.loc 1 202 3 is_stmt 1 view .LVU40
 170              		.loc 1 202 9 is_stmt 0 view .LVU41
 171 0018 0298     		ldr	r0, [sp, #8]
 172              	.LVL21:
 203:Drivers/STM32F4xx_StdPeriph_Driver/src/stm32f4xx_i2c.c ****   /* Set frequency bits depending on pclk1 value */
 204:Drivers/STM32F4xx_StdPeriph_Driver/src/stm32f4xx_i2c.c ****   freqrange = (uint16_t)(pclk1 / 1000000);
 173              		.loc 1 204 3 is_stmt 1 view .LVU42
 174              		.loc 1 204 32 is_stmt 0 view .LVU43
 175 001a 2D4B     		ldr	r3, .L21
 176 001c A3FB0023 		umull	r2, r3, r3, r0
 177 0020 990C     		lsrs	r1, r3, #18
 178              	.LVL22:
 205:Drivers/STM32F4xx_StdPeriph_Driver/src/stm32f4xx_i2c.c ****   tmpreg |= freqrange;
 179              		.loc 1 205 3 is_stmt 1 view .LVU44
 180              		.loc 1 205 10 is_stmt 0 view .LVU45
 181 0022 46EA9346 		orr	r6, r6, r3, lsr #18
 182              	.LVL23:
 206:Drivers/STM32F4xx_StdPeriph_Driver/src/stm32f4xx_i2c.c ****   /* Write to I2Cx CR2 */
 207:Drivers/STM32F4xx_StdPeriph_Driver/src/stm32f4xx_i2c.c ****   I2Cx->CR2 = tmpreg;
 183              		.loc 1 207 3 is_stmt 1 view .LVU46
 184              		.loc 1 207 13 is_stmt 0 view .LVU47
 185 0026 A680     		strh	r6, [r4, #4]	@ movhi
 208:Drivers/STM32F4xx_StdPeriph_Driver/src/stm32f4xx_i2c.c **** 
ARM GAS  /tmp/ccGdFbQ0.s 			page 8


 209:Drivers/STM32F4xx_StdPeriph_Driver/src/stm32f4xx_i2c.c **** /*---------------------------- I2Cx CCR Configuration ------------------------*/
 210:Drivers/STM32F4xx_StdPeriph_Driver/src/stm32f4xx_i2c.c ****   /* Disable the selected I2C peripheral to configure TRISE */
 211:Drivers/STM32F4xx_StdPeriph_Driver/src/stm32f4xx_i2c.c ****   I2Cx->CR1 &= (uint16_t)~((uint16_t)I2C_CR1_PE);
 186              		.loc 1 211 3 is_stmt 1 view .LVU48
 187              		.loc 1 211 13 is_stmt 0 view .LVU49
 188 0028 2288     		ldrh	r2, [r4]
 189 002a 92B2     		uxth	r2, r2
 190 002c 22F00102 		bic	r2, r2, #1
 191 0030 92B2     		uxth	r2, r2
 192 0032 2280     		strh	r2, [r4]	@ movhi
 212:Drivers/STM32F4xx_StdPeriph_Driver/src/stm32f4xx_i2c.c ****   /* Reset tmpreg value */
 213:Drivers/STM32F4xx_StdPeriph_Driver/src/stm32f4xx_i2c.c ****   /* Clear F/S, DUTY and CCR[11:0] bits */
 214:Drivers/STM32F4xx_StdPeriph_Driver/src/stm32f4xx_i2c.c ****   tmpreg = 0;
 193              		.loc 1 214 3 is_stmt 1 view .LVU50
 194              	.LVL24:
 215:Drivers/STM32F4xx_StdPeriph_Driver/src/stm32f4xx_i2c.c **** 
 216:Drivers/STM32F4xx_StdPeriph_Driver/src/stm32f4xx_i2c.c ****   /* Configure speed in standard mode */
 217:Drivers/STM32F4xx_StdPeriph_Driver/src/stm32f4xx_i2c.c ****   if (I2C_InitStruct->I2C_ClockSpeed <= 100000)
 195              		.loc 1 217 3 view .LVU51
 196              		.loc 1 217 21 is_stmt 0 view .LVU52
 197 0034 2B68     		ldr	r3, [r5]
 198              		.loc 1 217 6 view .LVU53
 199 0036 274A     		ldr	r2, .L21+4
 200 0038 9342     		cmp	r3, r2
 201 003a 22D8     		bhi	.L12
 202 003c 8C46     		mov	ip, r1
 218:Drivers/STM32F4xx_StdPeriph_Driver/src/stm32f4xx_i2c.c ****   {
 219:Drivers/STM32F4xx_StdPeriph_Driver/src/stm32f4xx_i2c.c ****     /* Standard mode speed calculate */
 220:Drivers/STM32F4xx_StdPeriph_Driver/src/stm32f4xx_i2c.c ****     result = (uint16_t)(pclk1 / (I2C_InitStruct->I2C_ClockSpeed << 1));
 203              		.loc 1 220 5 is_stmt 1 view .LVU54
 204              		.loc 1 220 65 is_stmt 0 view .LVU55
 205 003e 5B00     		lsls	r3, r3, #1
 206              		.loc 1 220 31 view .LVU56
 207 0040 B0FBF3F3 		udiv	r3, r0, r3
 208              		.loc 1 220 12 view .LVU57
 209 0044 9BB2     		uxth	r3, r3
 210              	.LVL25:
 221:Drivers/STM32F4xx_StdPeriph_Driver/src/stm32f4xx_i2c.c ****     /* Test if CCR value is under 0x4*/
 222:Drivers/STM32F4xx_StdPeriph_Driver/src/stm32f4xx_i2c.c ****     if (result < 0x04)
 211              		.loc 1 222 5 is_stmt 1 view .LVU58
 212              		.loc 1 222 8 is_stmt 0 view .LVU59
 213 0046 032B     		cmp	r3, #3
 214 0048 00D8     		bhi	.L13
 223:Drivers/STM32F4xx_StdPeriph_Driver/src/stm32f4xx_i2c.c ****     {
 224:Drivers/STM32F4xx_StdPeriph_Driver/src/stm32f4xx_i2c.c ****       /* Set minimum allowed value */
 225:Drivers/STM32F4xx_StdPeriph_Driver/src/stm32f4xx_i2c.c ****       result = 0x04;  
 215              		.loc 1 225 14 view .LVU60
 216 004a 0423     		movs	r3, #4
 217              	.LVL26:
 218              	.L13:
 226:Drivers/STM32F4xx_StdPeriph_Driver/src/stm32f4xx_i2c.c ****     }
 227:Drivers/STM32F4xx_StdPeriph_Driver/src/stm32f4xx_i2c.c ****     /* Set speed value for standard mode */
 228:Drivers/STM32F4xx_StdPeriph_Driver/src/stm32f4xx_i2c.c ****     tmpreg |= result;	  
 219              		.loc 1 228 5 is_stmt 1 view .LVU61
 229:Drivers/STM32F4xx_StdPeriph_Driver/src/stm32f4xx_i2c.c ****     /* Set Maximum Rise Time for standard mode */
 230:Drivers/STM32F4xx_StdPeriph_Driver/src/stm32f4xx_i2c.c ****     I2Cx->TRISE = freqrange + 1; 
 220              		.loc 1 230 5 view .LVU62
ARM GAS  /tmp/ccGdFbQ0.s 			page 9


 221              		.loc 1 230 29 is_stmt 0 view .LVU63
 222 004c 0CF1010C 		add	ip, ip, #1
 223              		.loc 1 230 17 view .LVU64
 224 0050 A4F820C0 		strh	ip, [r4, #32]	@ movhi
 225              	.LVL27:
 226              	.L14:
 231:Drivers/STM32F4xx_StdPeriph_Driver/src/stm32f4xx_i2c.c ****   }
 232:Drivers/STM32F4xx_StdPeriph_Driver/src/stm32f4xx_i2c.c ****   /* Configure speed in fast mode */
 233:Drivers/STM32F4xx_StdPeriph_Driver/src/stm32f4xx_i2c.c ****   /* To use the I2C at 400 KHz (in fast mode), the PCLK1 frequency (I2C peripheral
 234:Drivers/STM32F4xx_StdPeriph_Driver/src/stm32f4xx_i2c.c ****      input clock) must be a multiple of 10 MHz */
 235:Drivers/STM32F4xx_StdPeriph_Driver/src/stm32f4xx_i2c.c ****   else /*(I2C_InitStruct->I2C_ClockSpeed <= 400000)*/
 236:Drivers/STM32F4xx_StdPeriph_Driver/src/stm32f4xx_i2c.c ****   {
 237:Drivers/STM32F4xx_StdPeriph_Driver/src/stm32f4xx_i2c.c ****     if (I2C_InitStruct->I2C_DutyCycle == I2C_DutyCycle_2)
 238:Drivers/STM32F4xx_StdPeriph_Driver/src/stm32f4xx_i2c.c ****     {
 239:Drivers/STM32F4xx_StdPeriph_Driver/src/stm32f4xx_i2c.c ****       /* Fast mode speed calculate: Tlow/Thigh = 2 */
 240:Drivers/STM32F4xx_StdPeriph_Driver/src/stm32f4xx_i2c.c ****       result = (uint16_t)(pclk1 / (I2C_InitStruct->I2C_ClockSpeed * 3));
 241:Drivers/STM32F4xx_StdPeriph_Driver/src/stm32f4xx_i2c.c ****     }
 242:Drivers/STM32F4xx_StdPeriph_Driver/src/stm32f4xx_i2c.c ****     else /*I2C_InitStruct->I2C_DutyCycle == I2C_DutyCycle_16_9*/
 243:Drivers/STM32F4xx_StdPeriph_Driver/src/stm32f4xx_i2c.c ****     {
 244:Drivers/STM32F4xx_StdPeriph_Driver/src/stm32f4xx_i2c.c ****       /* Fast mode speed calculate: Tlow/Thigh = 16/9 */
 245:Drivers/STM32F4xx_StdPeriph_Driver/src/stm32f4xx_i2c.c ****       result = (uint16_t)(pclk1 / (I2C_InitStruct->I2C_ClockSpeed * 25));
 246:Drivers/STM32F4xx_StdPeriph_Driver/src/stm32f4xx_i2c.c ****       /* Set DUTY bit */
 247:Drivers/STM32F4xx_StdPeriph_Driver/src/stm32f4xx_i2c.c ****       result |= I2C_DutyCycle_16_9;
 248:Drivers/STM32F4xx_StdPeriph_Driver/src/stm32f4xx_i2c.c ****     }
 249:Drivers/STM32F4xx_StdPeriph_Driver/src/stm32f4xx_i2c.c **** 
 250:Drivers/STM32F4xx_StdPeriph_Driver/src/stm32f4xx_i2c.c ****     /* Test if CCR value is under 0x1*/
 251:Drivers/STM32F4xx_StdPeriph_Driver/src/stm32f4xx_i2c.c ****     if ((result & I2C_CCR_CCR) == 0)
 252:Drivers/STM32F4xx_StdPeriph_Driver/src/stm32f4xx_i2c.c ****     {
 253:Drivers/STM32F4xx_StdPeriph_Driver/src/stm32f4xx_i2c.c ****       /* Set minimum allowed value */
 254:Drivers/STM32F4xx_StdPeriph_Driver/src/stm32f4xx_i2c.c ****       result |= (uint16_t)0x0001;  
 255:Drivers/STM32F4xx_StdPeriph_Driver/src/stm32f4xx_i2c.c ****     }
 256:Drivers/STM32F4xx_StdPeriph_Driver/src/stm32f4xx_i2c.c ****     /* Set speed value and set F/S bit for fast mode */
 257:Drivers/STM32F4xx_StdPeriph_Driver/src/stm32f4xx_i2c.c ****     tmpreg |= (uint16_t)(result | I2C_CCR_FS);
 258:Drivers/STM32F4xx_StdPeriph_Driver/src/stm32f4xx_i2c.c ****     /* Set Maximum Rise Time for fast mode */
 259:Drivers/STM32F4xx_StdPeriph_Driver/src/stm32f4xx_i2c.c ****     I2Cx->TRISE = (uint16_t)(((freqrange * (uint16_t)300) / (uint16_t)1000) + (uint16_t)1);  
 260:Drivers/STM32F4xx_StdPeriph_Driver/src/stm32f4xx_i2c.c ****   }
 261:Drivers/STM32F4xx_StdPeriph_Driver/src/stm32f4xx_i2c.c **** 
 262:Drivers/STM32F4xx_StdPeriph_Driver/src/stm32f4xx_i2c.c ****   /* Write to I2Cx CCR */
 263:Drivers/STM32F4xx_StdPeriph_Driver/src/stm32f4xx_i2c.c ****   I2Cx->CCR = tmpreg;
 227              		.loc 1 263 3 is_stmt 1 view .LVU65
 228              		.loc 1 263 13 is_stmt 0 view .LVU66
 229 0054 A383     		strh	r3, [r4, #28]	@ movhi
 264:Drivers/STM32F4xx_StdPeriph_Driver/src/stm32f4xx_i2c.c ****   /* Enable the selected I2C peripheral */
 265:Drivers/STM32F4xx_StdPeriph_Driver/src/stm32f4xx_i2c.c ****   I2Cx->CR1 |= I2C_CR1_PE;
 230              		.loc 1 265 3 is_stmt 1 view .LVU67
 231              		.loc 1 265 13 is_stmt 0 view .LVU68
 232 0056 2388     		ldrh	r3, [r4]
 233              	.LVL28:
 234              		.loc 1 265 13 view .LVU69
 235 0058 9BB2     		uxth	r3, r3
 236 005a 43F00103 		orr	r3, r3, #1
 237 005e 2380     		strh	r3, [r4]	@ movhi
 238              	.LVL29:
 266:Drivers/STM32F4xx_StdPeriph_Driver/src/stm32f4xx_i2c.c **** 
 267:Drivers/STM32F4xx_StdPeriph_Driver/src/stm32f4xx_i2c.c **** /*---------------------------- I2Cx CR1 Configuration ------------------------*/
 268:Drivers/STM32F4xx_StdPeriph_Driver/src/stm32f4xx_i2c.c ****   /* Get the I2Cx CR1 value */
 269:Drivers/STM32F4xx_StdPeriph_Driver/src/stm32f4xx_i2c.c ****   tmpreg = I2Cx->CR1;
ARM GAS  /tmp/ccGdFbQ0.s 			page 10


 239              		.loc 1 269 3 is_stmt 1 view .LVU70
 240              		.loc 1 269 10 is_stmt 0 view .LVU71
 241 0060 2388     		ldrh	r3, [r4]
 242 0062 9BB2     		uxth	r3, r3
 243              	.LVL30:
 270:Drivers/STM32F4xx_StdPeriph_Driver/src/stm32f4xx_i2c.c ****   /* Clear ACK, SMBTYPE and  SMBUS bits */
 271:Drivers/STM32F4xx_StdPeriph_Driver/src/stm32f4xx_i2c.c ****   tmpreg &= CR1_CLEAR_MASK;
 244              		.loc 1 271 3 is_stmt 1 view .LVU72
 245              		.loc 1 271 10 is_stmt 0 view .LVU73
 246 0064 23F48163 		bic	r3, r3, #1032
 247              	.LVL31:
 248              		.loc 1 271 10 view .LVU74
 249 0068 23F00203 		bic	r3, r3, #2
 250              	.LVL32:
 272:Drivers/STM32F4xx_StdPeriph_Driver/src/stm32f4xx_i2c.c ****   /* Configure I2Cx: mode and acknowledgement */
 273:Drivers/STM32F4xx_StdPeriph_Driver/src/stm32f4xx_i2c.c ****   /* Set SMBTYPE and SMBUS bits according to I2C_Mode value */
 274:Drivers/STM32F4xx_StdPeriph_Driver/src/stm32f4xx_i2c.c ****   /* Set ACK bit according to I2C_Ack value */
 275:Drivers/STM32F4xx_StdPeriph_Driver/src/stm32f4xx_i2c.c ****   tmpreg |= (uint16_t)((uint32_t)I2C_InitStruct->I2C_Mode | I2C_InitStruct->I2C_Ack);
 251              		.loc 1 275 3 is_stmt 1 view .LVU75
 252              		.loc 1 275 48 is_stmt 0 view .LVU76
 253 006c AA88     		ldrh	r2, [r5, #4]
 254              		.loc 1 275 75 view .LVU77
 255 006e 6989     		ldrh	r1, [r5, #10]
 256              		.loc 1 275 13 view .LVU78
 257 0070 0A43     		orrs	r2, r2, r1
 258              		.loc 1 275 10 view .LVU79
 259 0072 1343     		orrs	r3, r3, r2
 260              	.LVL33:
 276:Drivers/STM32F4xx_StdPeriph_Driver/src/stm32f4xx_i2c.c ****   /* Write to I2Cx CR1 */
 277:Drivers/STM32F4xx_StdPeriph_Driver/src/stm32f4xx_i2c.c ****   I2Cx->CR1 = tmpreg;
 261              		.loc 1 277 3 is_stmt 1 view .LVU80
 262              		.loc 1 277 13 is_stmt 0 view .LVU81
 263 0074 2380     		strh	r3, [r4]	@ movhi
 278:Drivers/STM32F4xx_StdPeriph_Driver/src/stm32f4xx_i2c.c **** 
 279:Drivers/STM32F4xx_StdPeriph_Driver/src/stm32f4xx_i2c.c **** /*---------------------------- I2Cx OAR1 Configuration -----------------------*/
 280:Drivers/STM32F4xx_StdPeriph_Driver/src/stm32f4xx_i2c.c ****   /* Set I2Cx Own Address1 and acknowledged address */
 281:Drivers/STM32F4xx_StdPeriph_Driver/src/stm32f4xx_i2c.c ****   I2Cx->OAR1 = (I2C_InitStruct->I2C_AcknowledgedAddress | I2C_InitStruct->I2C_OwnAddress1);
 264              		.loc 1 281 3 is_stmt 1 view .LVU82
 265              		.loc 1 281 31 is_stmt 0 view .LVU83
 266 0076 AB89     		ldrh	r3, [r5, #12]
 267              	.LVL34:
 268              		.loc 1 281 73 view .LVU84
 269 0078 2A89     		ldrh	r2, [r5, #8]
 270              		.loc 1 281 14 view .LVU85
 271 007a 1343     		orrs	r3, r3, r2
 272 007c 2381     		strh	r3, [r4, #8]	@ movhi
 273              	.LVL35:
 282:Drivers/STM32F4xx_StdPeriph_Driver/src/stm32f4xx_i2c.c **** }
 274              		.loc 1 282 1 view .LVU86
 275 007e 04B0     		add	sp, sp, #16
 276              		.cfi_remember_state
 277              		.cfi_def_cfa_offset 16
 278              		@ sp needed
 279 0080 70BD     		pop	{r4, r5, r6, pc}
 280              	.LVL36:
 281              	.L12:
 282              		.cfi_restore_state
ARM GAS  /tmp/ccGdFbQ0.s 			page 11


 237:Drivers/STM32F4xx_StdPeriph_Driver/src/stm32f4xx_i2c.c ****     {
 283              		.loc 1 237 5 is_stmt 1 view .LVU87
 237:Drivers/STM32F4xx_StdPeriph_Driver/src/stm32f4xx_i2c.c ****     {
 284              		.loc 1 237 23 is_stmt 0 view .LVU88
 285 0082 EE88     		ldrh	r6, [r5, #6]
 237:Drivers/STM32F4xx_StdPeriph_Driver/src/stm32f4xx_i2c.c ****     {
 286              		.loc 1 237 8 view .LVU89
 287 0084 4BF6FF72 		movw	r2, #49151
 288 0088 9642     		cmp	r6, r2
 289 008a 1BD0     		beq	.L20
 245:Drivers/STM32F4xx_StdPeriph_Driver/src/stm32f4xx_i2c.c ****       /* Set DUTY bit */
 290              		.loc 1 245 7 is_stmt 1 view .LVU90
 245:Drivers/STM32F4xx_StdPeriph_Driver/src/stm32f4xx_i2c.c ****       /* Set DUTY bit */
 291              		.loc 1 245 67 is_stmt 0 view .LVU91
 292 008c 03EB8303 		add	r3, r3, r3, lsl #2
 293 0090 03EB8303 		add	r3, r3, r3, lsl #2
 245:Drivers/STM32F4xx_StdPeriph_Driver/src/stm32f4xx_i2c.c ****       /* Set DUTY bit */
 294              		.loc 1 245 33 view .LVU92
 295 0094 B0FBF3F3 		udiv	r3, r0, r3
 245:Drivers/STM32F4xx_StdPeriph_Driver/src/stm32f4xx_i2c.c ****       /* Set DUTY bit */
 296              		.loc 1 245 14 view .LVU93
 297 0098 9BB2     		uxth	r3, r3
 298              	.LVL37:
 247:Drivers/STM32F4xx_StdPeriph_Driver/src/stm32f4xx_i2c.c ****     }
 299              		.loc 1 247 7 is_stmt 1 view .LVU94
 247:Drivers/STM32F4xx_StdPeriph_Driver/src/stm32f4xx_i2c.c ****     }
 300              		.loc 1 247 14 is_stmt 0 view .LVU95
 301 009a 43F48043 		orr	r3, r3, #16384
 302              	.LVL38:
 303              	.L16:
 251:Drivers/STM32F4xx_StdPeriph_Driver/src/stm32f4xx_i2c.c ****     {
 304              		.loc 1 251 5 is_stmt 1 view .LVU96
 251:Drivers/STM32F4xx_StdPeriph_Driver/src/stm32f4xx_i2c.c ****     {
 305              		.loc 1 251 8 is_stmt 0 view .LVU97
 306 009e C3F30B02 		ubfx	r2, r3, #0, #12
 307 00a2 0AB9     		cbnz	r2, .L17
 254:Drivers/STM32F4xx_StdPeriph_Driver/src/stm32f4xx_i2c.c ****     }
 308              		.loc 1 254 7 is_stmt 1 view .LVU98
 254:Drivers/STM32F4xx_StdPeriph_Driver/src/stm32f4xx_i2c.c ****     }
 309              		.loc 1 254 14 is_stmt 0 view .LVU99
 310 00a4 43F00103 		orr	r3, r3, #1
 311              	.LVL39:
 312              	.L17:
 257:Drivers/STM32F4xx_StdPeriph_Driver/src/stm32f4xx_i2c.c ****     /* Set Maximum Rise Time for fast mode */
 313              		.loc 1 257 5 is_stmt 1 view .LVU100
 257:Drivers/STM32F4xx_StdPeriph_Driver/src/stm32f4xx_i2c.c ****     /* Set Maximum Rise Time for fast mode */
 314              		.loc 1 257 12 is_stmt 0 view .LVU101
 315 00a8 43F40043 		orr	r3, r3, #32768
 316              	.LVL40:
 259:Drivers/STM32F4xx_StdPeriph_Driver/src/stm32f4xx_i2c.c ****   }
 317              		.loc 1 259 5 is_stmt 1 view .LVU102
 259:Drivers/STM32F4xx_StdPeriph_Driver/src/stm32f4xx_i2c.c ****   }
 318              		.loc 1 259 42 is_stmt 0 view .LVU103
 319 00ac 4FF49672 		mov	r2, #300
 320 00b0 01FB02F2 		mul	r2, r1, r2
 259:Drivers/STM32F4xx_StdPeriph_Driver/src/stm32f4xx_i2c.c ****   }
 321              		.loc 1 259 59 view .LVU104
ARM GAS  /tmp/ccGdFbQ0.s 			page 12


 322 00b4 0849     		ldr	r1, .L21+8
 323              	.LVL41:
 259:Drivers/STM32F4xx_StdPeriph_Driver/src/stm32f4xx_i2c.c ****   }
 324              		.loc 1 259 59 view .LVU105
 325 00b6 81FB0212 		smull	r1, r2, r1, r2
 326 00ba 9211     		asrs	r2, r2, #6
 259:Drivers/STM32F4xx_StdPeriph_Driver/src/stm32f4xx_i2c.c ****   }
 327              		.loc 1 259 19 view .LVU106
 328 00bc 0132     		adds	r2, r2, #1
 329 00be 92B2     		uxth	r2, r2
 259:Drivers/STM32F4xx_StdPeriph_Driver/src/stm32f4xx_i2c.c ****   }
 330              		.loc 1 259 17 view .LVU107
 331 00c0 2284     		strh	r2, [r4, #32]	@ movhi
 332 00c2 C7E7     		b	.L14
 333              	.LVL42:
 334              	.L20:
 240:Drivers/STM32F4xx_StdPeriph_Driver/src/stm32f4xx_i2c.c ****     }
 335              		.loc 1 240 7 is_stmt 1 view .LVU108
 240:Drivers/STM32F4xx_StdPeriph_Driver/src/stm32f4xx_i2c.c ****     }
 336              		.loc 1 240 67 is_stmt 0 view .LVU109
 337 00c4 03EB4303 		add	r3, r3, r3, lsl #1
 240:Drivers/STM32F4xx_StdPeriph_Driver/src/stm32f4xx_i2c.c ****     }
 338              		.loc 1 240 33 view .LVU110
 339 00c8 B0FBF3F3 		udiv	r3, r0, r3
 240:Drivers/STM32F4xx_StdPeriph_Driver/src/stm32f4xx_i2c.c ****     }
 340              		.loc 1 240 14 view .LVU111
 341 00cc 9BB2     		uxth	r3, r3
 342              	.LVL43:
 240:Drivers/STM32F4xx_StdPeriph_Driver/src/stm32f4xx_i2c.c ****     }
 343              		.loc 1 240 14 view .LVU112
 344 00ce E6E7     		b	.L16
 345              	.L22:
 346              		.align	2
 347              	.L21:
 348 00d0 83DE1B43 		.word	1125899907
 349 00d4 A0860100 		.word	100000
 350 00d8 D34D6210 		.word	274877907
 351              		.cfi_endproc
 352              	.LFE124:
 354              		.section	.text.I2C_StructInit,"ax",%progbits
 355              		.align	1
 356              		.global	I2C_StructInit
 357              		.syntax unified
 358              		.thumb
 359              		.thumb_func
 361              	I2C_StructInit:
 362              	.LVL44:
 363              	.LFB125:
 283:Drivers/STM32F4xx_StdPeriph_Driver/src/stm32f4xx_i2c.c **** 
 284:Drivers/STM32F4xx_StdPeriph_Driver/src/stm32f4xx_i2c.c **** /**
 285:Drivers/STM32F4xx_StdPeriph_Driver/src/stm32f4xx_i2c.c ****   * @brief  Fills each I2C_InitStruct member with its default value.
 286:Drivers/STM32F4xx_StdPeriph_Driver/src/stm32f4xx_i2c.c ****   * @param  I2C_InitStruct: pointer to an I2C_InitTypeDef structure which will be initialized.
 287:Drivers/STM32F4xx_StdPeriph_Driver/src/stm32f4xx_i2c.c ****   * @retval None
 288:Drivers/STM32F4xx_StdPeriph_Driver/src/stm32f4xx_i2c.c ****   */
 289:Drivers/STM32F4xx_StdPeriph_Driver/src/stm32f4xx_i2c.c **** void I2C_StructInit(I2C_InitTypeDef* I2C_InitStruct)
 290:Drivers/STM32F4xx_StdPeriph_Driver/src/stm32f4xx_i2c.c **** {
 364              		.loc 1 290 1 is_stmt 1 view -0
ARM GAS  /tmp/ccGdFbQ0.s 			page 13


 365              		.cfi_startproc
 366              		@ args = 0, pretend = 0, frame = 0
 367              		@ frame_needed = 0, uses_anonymous_args = 0
 368              		@ link register save eliminated.
 291:Drivers/STM32F4xx_StdPeriph_Driver/src/stm32f4xx_i2c.c **** /*---------------- Reset I2C init structure parameters values ----------------*/
 292:Drivers/STM32F4xx_StdPeriph_Driver/src/stm32f4xx_i2c.c ****   /* initialize the I2C_ClockSpeed member */
 293:Drivers/STM32F4xx_StdPeriph_Driver/src/stm32f4xx_i2c.c ****   I2C_InitStruct->I2C_ClockSpeed = 5000;
 369              		.loc 1 293 3 view .LVU114
 370              		.loc 1 293 34 is_stmt 0 view .LVU115
 371 0000 41F28833 		movw	r3, #5000
 372 0004 0360     		str	r3, [r0]
 294:Drivers/STM32F4xx_StdPeriph_Driver/src/stm32f4xx_i2c.c ****   /* Initialize the I2C_Mode member */
 295:Drivers/STM32F4xx_StdPeriph_Driver/src/stm32f4xx_i2c.c ****   I2C_InitStruct->I2C_Mode = I2C_Mode_I2C;
 373              		.loc 1 295 3 is_stmt 1 view .LVU116
 374              		.loc 1 295 28 is_stmt 0 view .LVU117
 375 0006 0023     		movs	r3, #0
 376 0008 8380     		strh	r3, [r0, #4]	@ movhi
 296:Drivers/STM32F4xx_StdPeriph_Driver/src/stm32f4xx_i2c.c ****   /* Initialize the I2C_DutyCycle member */
 297:Drivers/STM32F4xx_StdPeriph_Driver/src/stm32f4xx_i2c.c ****   I2C_InitStruct->I2C_DutyCycle = I2C_DutyCycle_2;
 377              		.loc 1 297 3 is_stmt 1 view .LVU118
 378              		.loc 1 297 33 is_stmt 0 view .LVU119
 379 000a 4BF6FF72 		movw	r2, #49151
 380 000e C280     		strh	r2, [r0, #6]	@ movhi
 298:Drivers/STM32F4xx_StdPeriph_Driver/src/stm32f4xx_i2c.c ****   /* Initialize the I2C_OwnAddress1 member */
 299:Drivers/STM32F4xx_StdPeriph_Driver/src/stm32f4xx_i2c.c ****   I2C_InitStruct->I2C_OwnAddress1 = 0;
 381              		.loc 1 299 3 is_stmt 1 view .LVU120
 382              		.loc 1 299 35 is_stmt 0 view .LVU121
 383 0010 0381     		strh	r3, [r0, #8]	@ movhi
 300:Drivers/STM32F4xx_StdPeriph_Driver/src/stm32f4xx_i2c.c ****   /* Initialize the I2C_Ack member */
 301:Drivers/STM32F4xx_StdPeriph_Driver/src/stm32f4xx_i2c.c ****   I2C_InitStruct->I2C_Ack = I2C_Ack_Disable;
 384              		.loc 1 301 3 is_stmt 1 view .LVU122
 385              		.loc 1 301 27 is_stmt 0 view .LVU123
 386 0012 4381     		strh	r3, [r0, #10]	@ movhi
 302:Drivers/STM32F4xx_StdPeriph_Driver/src/stm32f4xx_i2c.c ****   /* Initialize the I2C_AcknowledgedAddress member */
 303:Drivers/STM32F4xx_StdPeriph_Driver/src/stm32f4xx_i2c.c ****   I2C_InitStruct->I2C_AcknowledgedAddress = I2C_AcknowledgedAddress_7bit;
 387              		.loc 1 303 3 is_stmt 1 view .LVU124
 388              		.loc 1 303 43 is_stmt 0 view .LVU125
 389 0014 4FF48043 		mov	r3, #16384
 390 0018 8381     		strh	r3, [r0, #12]	@ movhi
 304:Drivers/STM32F4xx_StdPeriph_Driver/src/stm32f4xx_i2c.c **** }
 391              		.loc 1 304 1 view .LVU126
 392 001a 7047     		bx	lr
 393              		.cfi_endproc
 394              	.LFE125:
 396              		.section	.text.I2C_Cmd,"ax",%progbits
 397              		.align	1
 398              		.global	I2C_Cmd
 399              		.syntax unified
 400              		.thumb
 401              		.thumb_func
 403              	I2C_Cmd:
 404              	.LVL45:
 405              	.LFB126:
 305:Drivers/STM32F4xx_StdPeriph_Driver/src/stm32f4xx_i2c.c **** 
 306:Drivers/STM32F4xx_StdPeriph_Driver/src/stm32f4xx_i2c.c **** /**
 307:Drivers/STM32F4xx_StdPeriph_Driver/src/stm32f4xx_i2c.c ****   * @brief  Enables or disables the specified I2C peripheral.
 308:Drivers/STM32F4xx_StdPeriph_Driver/src/stm32f4xx_i2c.c ****   * @param  I2Cx: where x can be 1, 2 or 3 to select the I2C peripheral.
ARM GAS  /tmp/ccGdFbQ0.s 			page 14


 309:Drivers/STM32F4xx_StdPeriph_Driver/src/stm32f4xx_i2c.c ****   * @param  NewState: new state of the I2Cx peripheral. 
 310:Drivers/STM32F4xx_StdPeriph_Driver/src/stm32f4xx_i2c.c ****   *          This parameter can be: ENABLE or DISABLE.
 311:Drivers/STM32F4xx_StdPeriph_Driver/src/stm32f4xx_i2c.c ****   * @retval None
 312:Drivers/STM32F4xx_StdPeriph_Driver/src/stm32f4xx_i2c.c ****   */
 313:Drivers/STM32F4xx_StdPeriph_Driver/src/stm32f4xx_i2c.c **** void I2C_Cmd(I2C_TypeDef* I2Cx, FunctionalState NewState)
 314:Drivers/STM32F4xx_StdPeriph_Driver/src/stm32f4xx_i2c.c **** {
 406              		.loc 1 314 1 is_stmt 1 view -0
 407              		.cfi_startproc
 408              		@ args = 0, pretend = 0, frame = 0
 409              		@ frame_needed = 0, uses_anonymous_args = 0
 410              		@ link register save eliminated.
 315:Drivers/STM32F4xx_StdPeriph_Driver/src/stm32f4xx_i2c.c ****   /* Check the parameters */
 316:Drivers/STM32F4xx_StdPeriph_Driver/src/stm32f4xx_i2c.c ****   assert_param(IS_I2C_ALL_PERIPH(I2Cx));
 411              		.loc 1 316 3 view .LVU128
 317:Drivers/STM32F4xx_StdPeriph_Driver/src/stm32f4xx_i2c.c ****   assert_param(IS_FUNCTIONAL_STATE(NewState));
 412              		.loc 1 317 3 view .LVU129
 318:Drivers/STM32F4xx_StdPeriph_Driver/src/stm32f4xx_i2c.c ****   if (NewState != DISABLE)
 413              		.loc 1 318 3 view .LVU130
 414              		.loc 1 318 6 is_stmt 0 view .LVU131
 415 0000 29B1     		cbz	r1, .L25
 319:Drivers/STM32F4xx_StdPeriph_Driver/src/stm32f4xx_i2c.c ****   {
 320:Drivers/STM32F4xx_StdPeriph_Driver/src/stm32f4xx_i2c.c ****     /* Enable the selected I2C peripheral */
 321:Drivers/STM32F4xx_StdPeriph_Driver/src/stm32f4xx_i2c.c ****     I2Cx->CR1 |= I2C_CR1_PE;
 416              		.loc 1 321 5 is_stmt 1 view .LVU132
 417              		.loc 1 321 15 is_stmt 0 view .LVU133
 418 0002 0388     		ldrh	r3, [r0]
 419 0004 9BB2     		uxth	r3, r3
 420 0006 43F00103 		orr	r3, r3, #1
 421 000a 0380     		strh	r3, [r0]	@ movhi
 422 000c 7047     		bx	lr
 423              	.L25:
 322:Drivers/STM32F4xx_StdPeriph_Driver/src/stm32f4xx_i2c.c ****   }
 323:Drivers/STM32F4xx_StdPeriph_Driver/src/stm32f4xx_i2c.c ****   else
 324:Drivers/STM32F4xx_StdPeriph_Driver/src/stm32f4xx_i2c.c ****   {
 325:Drivers/STM32F4xx_StdPeriph_Driver/src/stm32f4xx_i2c.c ****     /* Disable the selected I2C peripheral */
 326:Drivers/STM32F4xx_StdPeriph_Driver/src/stm32f4xx_i2c.c ****     I2Cx->CR1 &= (uint16_t)~((uint16_t)I2C_CR1_PE);
 424              		.loc 1 326 5 is_stmt 1 view .LVU134
 425              		.loc 1 326 15 is_stmt 0 view .LVU135
 426 000e 0388     		ldrh	r3, [r0]
 427 0010 9BB2     		uxth	r3, r3
 428 0012 23F00103 		bic	r3, r3, #1
 429 0016 9BB2     		uxth	r3, r3
 430 0018 0380     		strh	r3, [r0]	@ movhi
 327:Drivers/STM32F4xx_StdPeriph_Driver/src/stm32f4xx_i2c.c ****   }
 328:Drivers/STM32F4xx_StdPeriph_Driver/src/stm32f4xx_i2c.c **** }
 431              		.loc 1 328 1 view .LVU136
 432 001a 7047     		bx	lr
 433              		.cfi_endproc
 434              	.LFE126:
 436              		.section	.text.I2C_AnalogFilterCmd,"ax",%progbits
 437              		.align	1
 438              		.global	I2C_AnalogFilterCmd
 439              		.syntax unified
 440              		.thumb
 441              		.thumb_func
 443              	I2C_AnalogFilterCmd:
 444              	.LVL46:
ARM GAS  /tmp/ccGdFbQ0.s 			page 15


 445              	.LFB127:
 329:Drivers/STM32F4xx_StdPeriph_Driver/src/stm32f4xx_i2c.c **** 
 330:Drivers/STM32F4xx_StdPeriph_Driver/src/stm32f4xx_i2c.c **** /**
 331:Drivers/STM32F4xx_StdPeriph_Driver/src/stm32f4xx_i2c.c ****   * @brief  Enables or disables the Analog filter of I2C peripheral.
 332:Drivers/STM32F4xx_StdPeriph_Driver/src/stm32f4xx_i2c.c ****   * 
 333:Drivers/STM32F4xx_StdPeriph_Driver/src/stm32f4xx_i2c.c ****   * @note   This function can be used only for STM32F42xxx/STM3243xxx, STM32F401xx, STM32F410xx and
 334:Drivers/STM32F4xx_StdPeriph_Driver/src/stm32f4xx_i2c.c ****   *        
 335:Drivers/STM32F4xx_StdPeriph_Driver/src/stm32f4xx_i2c.c ****   * @param  I2Cx: where x can be 1, 2 or 3 to select the I2C peripheral.
 336:Drivers/STM32F4xx_StdPeriph_Driver/src/stm32f4xx_i2c.c ****   * @param  NewState: new state of the Analog filter. 
 337:Drivers/STM32F4xx_StdPeriph_Driver/src/stm32f4xx_i2c.c ****   *          This parameter can be: ENABLE or DISABLE.
 338:Drivers/STM32F4xx_StdPeriph_Driver/src/stm32f4xx_i2c.c ****   * @note   This function should be called before initializing and enabling
 339:Drivers/STM32F4xx_StdPeriph_Driver/src/stm32f4xx_i2c.c ****             the I2C Peripheral.
 340:Drivers/STM32F4xx_StdPeriph_Driver/src/stm32f4xx_i2c.c ****   * @retval None
 341:Drivers/STM32F4xx_StdPeriph_Driver/src/stm32f4xx_i2c.c ****   */
 342:Drivers/STM32F4xx_StdPeriph_Driver/src/stm32f4xx_i2c.c **** void I2C_AnalogFilterCmd(I2C_TypeDef* I2Cx, FunctionalState NewState)
 343:Drivers/STM32F4xx_StdPeriph_Driver/src/stm32f4xx_i2c.c **** {
 446              		.loc 1 343 1 is_stmt 1 view -0
 447              		.cfi_startproc
 448              		@ args = 0, pretend = 0, frame = 0
 449              		@ frame_needed = 0, uses_anonymous_args = 0
 450              		@ link register save eliminated.
 344:Drivers/STM32F4xx_StdPeriph_Driver/src/stm32f4xx_i2c.c ****   /* Check the parameters */
 345:Drivers/STM32F4xx_StdPeriph_Driver/src/stm32f4xx_i2c.c ****   assert_param(IS_I2C_ALL_PERIPH(I2Cx));
 451              		.loc 1 345 3 view .LVU138
 346:Drivers/STM32F4xx_StdPeriph_Driver/src/stm32f4xx_i2c.c ****   assert_param(IS_FUNCTIONAL_STATE(NewState));
 452              		.loc 1 346 3 view .LVU139
 347:Drivers/STM32F4xx_StdPeriph_Driver/src/stm32f4xx_i2c.c ****   if (NewState != DISABLE)
 453              		.loc 1 347 3 view .LVU140
 454              		.loc 1 347 6 is_stmt 0 view .LVU141
 455 0000 31B1     		cbz	r1, .L28
 348:Drivers/STM32F4xx_StdPeriph_Driver/src/stm32f4xx_i2c.c ****   {
 349:Drivers/STM32F4xx_StdPeriph_Driver/src/stm32f4xx_i2c.c ****     /* Enable the analog filter */
 350:Drivers/STM32F4xx_StdPeriph_Driver/src/stm32f4xx_i2c.c ****     I2Cx->FLTR &= (uint16_t)~((uint16_t)I2C_FLTR_ANOFF);    
 456              		.loc 1 350 5 is_stmt 1 view .LVU142
 457              		.loc 1 350 16 is_stmt 0 view .LVU143
 458 0002 838C     		ldrh	r3, [r0, #36]
 459 0004 9BB2     		uxth	r3, r3
 460 0006 23F01003 		bic	r3, r3, #16
 461 000a 9BB2     		uxth	r3, r3
 462 000c 8384     		strh	r3, [r0, #36]	@ movhi
 463 000e 7047     		bx	lr
 464              	.L28:
 351:Drivers/STM32F4xx_StdPeriph_Driver/src/stm32f4xx_i2c.c ****   }
 352:Drivers/STM32F4xx_StdPeriph_Driver/src/stm32f4xx_i2c.c ****   else
 353:Drivers/STM32F4xx_StdPeriph_Driver/src/stm32f4xx_i2c.c ****   {
 354:Drivers/STM32F4xx_StdPeriph_Driver/src/stm32f4xx_i2c.c ****     /* Disable the analog filter */
 355:Drivers/STM32F4xx_StdPeriph_Driver/src/stm32f4xx_i2c.c ****     I2Cx->FLTR |= I2C_FLTR_ANOFF;
 465              		.loc 1 355 5 is_stmt 1 view .LVU144
 466              		.loc 1 355 16 is_stmt 0 view .LVU145
 467 0010 838C     		ldrh	r3, [r0, #36]
 468 0012 9BB2     		uxth	r3, r3
 469 0014 43F01003 		orr	r3, r3, #16
 470 0018 8384     		strh	r3, [r0, #36]	@ movhi
 356:Drivers/STM32F4xx_StdPeriph_Driver/src/stm32f4xx_i2c.c ****   }
 357:Drivers/STM32F4xx_StdPeriph_Driver/src/stm32f4xx_i2c.c **** }
 471              		.loc 1 357 1 view .LVU146
 472 001a 7047     		bx	lr
ARM GAS  /tmp/ccGdFbQ0.s 			page 16


 473              		.cfi_endproc
 474              	.LFE127:
 476              		.section	.text.I2C_DigitalFilterConfig,"ax",%progbits
 477              		.align	1
 478              		.global	I2C_DigitalFilterConfig
 479              		.syntax unified
 480              		.thumb
 481              		.thumb_func
 483              	I2C_DigitalFilterConfig:
 484              	.LVL47:
 485              	.LFB128:
 358:Drivers/STM32F4xx_StdPeriph_Driver/src/stm32f4xx_i2c.c **** 
 359:Drivers/STM32F4xx_StdPeriph_Driver/src/stm32f4xx_i2c.c **** /**
 360:Drivers/STM32F4xx_StdPeriph_Driver/src/stm32f4xx_i2c.c ****   * @brief  Configures the Digital noise filter of I2C peripheral.
 361:Drivers/STM32F4xx_StdPeriph_Driver/src/stm32f4xx_i2c.c ****   * 
 362:Drivers/STM32F4xx_StdPeriph_Driver/src/stm32f4xx_i2c.c ****   * @note   This function can be used only for STM32F42xxx/STM3243xxx, STM32F401xx, STM32F410xx and
 363:Drivers/STM32F4xx_StdPeriph_Driver/src/stm32f4xx_i2c.c ****   *       
 364:Drivers/STM32F4xx_StdPeriph_Driver/src/stm32f4xx_i2c.c ****   * @param  I2Cx: where x can be 1, 2 or 3 to select the I2C peripheral.
 365:Drivers/STM32F4xx_StdPeriph_Driver/src/stm32f4xx_i2c.c ****   * @param  I2C_DigitalFilter: Coefficient of digital noise filter. 
 366:Drivers/STM32F4xx_StdPeriph_Driver/src/stm32f4xx_i2c.c ****   *          This parameter can be a number between 0x00 and 0x0F.
 367:Drivers/STM32F4xx_StdPeriph_Driver/src/stm32f4xx_i2c.c ****   * @note   This function should be called before initializing and enabling
 368:Drivers/STM32F4xx_StdPeriph_Driver/src/stm32f4xx_i2c.c ****             the I2C Peripheral.
 369:Drivers/STM32F4xx_StdPeriph_Driver/src/stm32f4xx_i2c.c ****   * @retval None
 370:Drivers/STM32F4xx_StdPeriph_Driver/src/stm32f4xx_i2c.c ****   */
 371:Drivers/STM32F4xx_StdPeriph_Driver/src/stm32f4xx_i2c.c **** void I2C_DigitalFilterConfig(I2C_TypeDef* I2Cx, uint16_t I2C_DigitalFilter)
 372:Drivers/STM32F4xx_StdPeriph_Driver/src/stm32f4xx_i2c.c **** {
 486              		.loc 1 372 1 is_stmt 1 view -0
 487              		.cfi_startproc
 488              		@ args = 0, pretend = 0, frame = 0
 489              		@ frame_needed = 0, uses_anonymous_args = 0
 490              		@ link register save eliminated.
 373:Drivers/STM32F4xx_StdPeriph_Driver/src/stm32f4xx_i2c.c ****   uint16_t tmpreg = 0;
 491              		.loc 1 373 3 view .LVU148
 374:Drivers/STM32F4xx_StdPeriph_Driver/src/stm32f4xx_i2c.c ****   
 375:Drivers/STM32F4xx_StdPeriph_Driver/src/stm32f4xx_i2c.c ****   /* Check the parameters */
 376:Drivers/STM32F4xx_StdPeriph_Driver/src/stm32f4xx_i2c.c ****   assert_param(IS_I2C_ALL_PERIPH(I2Cx));
 492              		.loc 1 376 3 view .LVU149
 377:Drivers/STM32F4xx_StdPeriph_Driver/src/stm32f4xx_i2c.c ****   assert_param(IS_I2C_DIGITAL_FILTER(I2C_DigitalFilter));
 493              		.loc 1 377 3 view .LVU150
 378:Drivers/STM32F4xx_StdPeriph_Driver/src/stm32f4xx_i2c.c ****   
 379:Drivers/STM32F4xx_StdPeriph_Driver/src/stm32f4xx_i2c.c ****   /* Get the old register value */
 380:Drivers/STM32F4xx_StdPeriph_Driver/src/stm32f4xx_i2c.c ****   tmpreg = I2Cx->FLTR;
 494              		.loc 1 380 3 view .LVU151
 495              		.loc 1 380 10 is_stmt 0 view .LVU152
 496 0000 838C     		ldrh	r3, [r0, #36]
 497 0002 9BB2     		uxth	r3, r3
 498              	.LVL48:
 381:Drivers/STM32F4xx_StdPeriph_Driver/src/stm32f4xx_i2c.c ****   
 382:Drivers/STM32F4xx_StdPeriph_Driver/src/stm32f4xx_i2c.c ****   /* Reset I2Cx DNF bit [3:0] */
 383:Drivers/STM32F4xx_StdPeriph_Driver/src/stm32f4xx_i2c.c ****   tmpreg &= (uint16_t)~((uint16_t)I2C_FLTR_DNF);
 499              		.loc 1 383 3 is_stmt 1 view .LVU153
 500              		.loc 1 383 10 is_stmt 0 view .LVU154
 501 0004 23F00F03 		bic	r3, r3, #15
 502              	.LVL49:
 384:Drivers/STM32F4xx_StdPeriph_Driver/src/stm32f4xx_i2c.c ****   
 385:Drivers/STM32F4xx_StdPeriph_Driver/src/stm32f4xx_i2c.c ****   /* Set I2Cx DNF coefficient */
 386:Drivers/STM32F4xx_StdPeriph_Driver/src/stm32f4xx_i2c.c ****   tmpreg |= (uint16_t)((uint16_t)I2C_DigitalFilter & I2C_FLTR_DNF);
ARM GAS  /tmp/ccGdFbQ0.s 			page 17


 503              		.loc 1 386 3 is_stmt 1 view .LVU155
 504              		.loc 1 386 13 is_stmt 0 view .LVU156
 505 0008 01F00F01 		and	r1, r1, #15
 506              	.LVL50:
 507              		.loc 1 386 10 view .LVU157
 508 000c 0B43     		orrs	r3, r3, r1
 509              	.LVL51:
 387:Drivers/STM32F4xx_StdPeriph_Driver/src/stm32f4xx_i2c.c ****   
 388:Drivers/STM32F4xx_StdPeriph_Driver/src/stm32f4xx_i2c.c ****   /* Store the new register value */
 389:Drivers/STM32F4xx_StdPeriph_Driver/src/stm32f4xx_i2c.c ****   I2Cx->FLTR = tmpreg;
 510              		.loc 1 389 3 is_stmt 1 view .LVU158
 511              		.loc 1 389 14 is_stmt 0 view .LVU159
 512 000e 8384     		strh	r3, [r0, #36]	@ movhi
 390:Drivers/STM32F4xx_StdPeriph_Driver/src/stm32f4xx_i2c.c **** }
 513              		.loc 1 390 1 view .LVU160
 514 0010 7047     		bx	lr
 515              		.cfi_endproc
 516              	.LFE128:
 518              		.section	.text.I2C_GenerateSTART,"ax",%progbits
 519              		.align	1
 520              		.global	I2C_GenerateSTART
 521              		.syntax unified
 522              		.thumb
 523              		.thumb_func
 525              	I2C_GenerateSTART:
 526              	.LVL52:
 527              	.LFB129:
 391:Drivers/STM32F4xx_StdPeriph_Driver/src/stm32f4xx_i2c.c **** 
 392:Drivers/STM32F4xx_StdPeriph_Driver/src/stm32f4xx_i2c.c **** /**
 393:Drivers/STM32F4xx_StdPeriph_Driver/src/stm32f4xx_i2c.c ****   * @brief  Generates I2Cx communication START condition.
 394:Drivers/STM32F4xx_StdPeriph_Driver/src/stm32f4xx_i2c.c ****   * @param  I2Cx: where x can be 1, 2 or 3 to select the I2C peripheral.
 395:Drivers/STM32F4xx_StdPeriph_Driver/src/stm32f4xx_i2c.c ****   * @param  NewState: new state of the I2C START condition generation.
 396:Drivers/STM32F4xx_StdPeriph_Driver/src/stm32f4xx_i2c.c ****   *          This parameter can be: ENABLE or DISABLE.
 397:Drivers/STM32F4xx_StdPeriph_Driver/src/stm32f4xx_i2c.c ****   * @retval None.
 398:Drivers/STM32F4xx_StdPeriph_Driver/src/stm32f4xx_i2c.c ****   */
 399:Drivers/STM32F4xx_StdPeriph_Driver/src/stm32f4xx_i2c.c **** void I2C_GenerateSTART(I2C_TypeDef* I2Cx, FunctionalState NewState)
 400:Drivers/STM32F4xx_StdPeriph_Driver/src/stm32f4xx_i2c.c **** {
 528              		.loc 1 400 1 is_stmt 1 view -0
 529              		.cfi_startproc
 530              		@ args = 0, pretend = 0, frame = 0
 531              		@ frame_needed = 0, uses_anonymous_args = 0
 532              		@ link register save eliminated.
 401:Drivers/STM32F4xx_StdPeriph_Driver/src/stm32f4xx_i2c.c ****   /* Check the parameters */
 402:Drivers/STM32F4xx_StdPeriph_Driver/src/stm32f4xx_i2c.c ****   assert_param(IS_I2C_ALL_PERIPH(I2Cx));
 533              		.loc 1 402 3 view .LVU162
 403:Drivers/STM32F4xx_StdPeriph_Driver/src/stm32f4xx_i2c.c ****   assert_param(IS_FUNCTIONAL_STATE(NewState));
 534              		.loc 1 403 3 view .LVU163
 404:Drivers/STM32F4xx_StdPeriph_Driver/src/stm32f4xx_i2c.c ****   if (NewState != DISABLE)
 535              		.loc 1 404 3 view .LVU164
 536              		.loc 1 404 6 is_stmt 0 view .LVU165
 537 0000 29B1     		cbz	r1, .L32
 405:Drivers/STM32F4xx_StdPeriph_Driver/src/stm32f4xx_i2c.c ****   {
 406:Drivers/STM32F4xx_StdPeriph_Driver/src/stm32f4xx_i2c.c ****     /* Generate a START condition */
 407:Drivers/STM32F4xx_StdPeriph_Driver/src/stm32f4xx_i2c.c ****     I2Cx->CR1 |= I2C_CR1_START;
 538              		.loc 1 407 5 is_stmt 1 view .LVU166
 539              		.loc 1 407 15 is_stmt 0 view .LVU167
 540 0002 0388     		ldrh	r3, [r0]
ARM GAS  /tmp/ccGdFbQ0.s 			page 18


 541 0004 9BB2     		uxth	r3, r3
 542 0006 43F48073 		orr	r3, r3, #256
 543 000a 0380     		strh	r3, [r0]	@ movhi
 544 000c 7047     		bx	lr
 545              	.L32:
 408:Drivers/STM32F4xx_StdPeriph_Driver/src/stm32f4xx_i2c.c ****   }
 409:Drivers/STM32F4xx_StdPeriph_Driver/src/stm32f4xx_i2c.c ****   else
 410:Drivers/STM32F4xx_StdPeriph_Driver/src/stm32f4xx_i2c.c ****   {
 411:Drivers/STM32F4xx_StdPeriph_Driver/src/stm32f4xx_i2c.c ****     /* Disable the START condition generation */
 412:Drivers/STM32F4xx_StdPeriph_Driver/src/stm32f4xx_i2c.c ****     I2Cx->CR1 &= (uint16_t)~((uint16_t)I2C_CR1_START);
 546              		.loc 1 412 5 is_stmt 1 view .LVU168
 547              		.loc 1 412 15 is_stmt 0 view .LVU169
 548 000e 0388     		ldrh	r3, [r0]
 549 0010 9BB2     		uxth	r3, r3
 550 0012 23F48073 		bic	r3, r3, #256
 551 0016 9BB2     		uxth	r3, r3
 552 0018 0380     		strh	r3, [r0]	@ movhi
 413:Drivers/STM32F4xx_StdPeriph_Driver/src/stm32f4xx_i2c.c ****   }
 414:Drivers/STM32F4xx_StdPeriph_Driver/src/stm32f4xx_i2c.c **** }
 553              		.loc 1 414 1 view .LVU170
 554 001a 7047     		bx	lr
 555              		.cfi_endproc
 556              	.LFE129:
 558              		.section	.text.I2C_GenerateSTOP,"ax",%progbits
 559              		.align	1
 560              		.global	I2C_GenerateSTOP
 561              		.syntax unified
 562              		.thumb
 563              		.thumb_func
 565              	I2C_GenerateSTOP:
 566              	.LVL53:
 567              	.LFB130:
 415:Drivers/STM32F4xx_StdPeriph_Driver/src/stm32f4xx_i2c.c **** 
 416:Drivers/STM32F4xx_StdPeriph_Driver/src/stm32f4xx_i2c.c **** /**
 417:Drivers/STM32F4xx_StdPeriph_Driver/src/stm32f4xx_i2c.c ****   * @brief  Generates I2Cx communication STOP condition.
 418:Drivers/STM32F4xx_StdPeriph_Driver/src/stm32f4xx_i2c.c ****   * @param  I2Cx: where x can be 1, 2 or 3 to select the I2C peripheral.
 419:Drivers/STM32F4xx_StdPeriph_Driver/src/stm32f4xx_i2c.c ****   * @param  NewState: new state of the I2C STOP condition generation.
 420:Drivers/STM32F4xx_StdPeriph_Driver/src/stm32f4xx_i2c.c ****   *          This parameter can be: ENABLE or DISABLE.
 421:Drivers/STM32F4xx_StdPeriph_Driver/src/stm32f4xx_i2c.c ****   * @retval None.
 422:Drivers/STM32F4xx_StdPeriph_Driver/src/stm32f4xx_i2c.c ****   */
 423:Drivers/STM32F4xx_StdPeriph_Driver/src/stm32f4xx_i2c.c **** void I2C_GenerateSTOP(I2C_TypeDef* I2Cx, FunctionalState NewState)
 424:Drivers/STM32F4xx_StdPeriph_Driver/src/stm32f4xx_i2c.c **** {
 568              		.loc 1 424 1 is_stmt 1 view -0
 569              		.cfi_startproc
 570              		@ args = 0, pretend = 0, frame = 0
 571              		@ frame_needed = 0, uses_anonymous_args = 0
 572              		@ link register save eliminated.
 425:Drivers/STM32F4xx_StdPeriph_Driver/src/stm32f4xx_i2c.c ****   /* Check the parameters */
 426:Drivers/STM32F4xx_StdPeriph_Driver/src/stm32f4xx_i2c.c ****   assert_param(IS_I2C_ALL_PERIPH(I2Cx));
 573              		.loc 1 426 3 view .LVU172
 427:Drivers/STM32F4xx_StdPeriph_Driver/src/stm32f4xx_i2c.c ****   assert_param(IS_FUNCTIONAL_STATE(NewState));
 574              		.loc 1 427 3 view .LVU173
 428:Drivers/STM32F4xx_StdPeriph_Driver/src/stm32f4xx_i2c.c ****   if (NewState != DISABLE)
 575              		.loc 1 428 3 view .LVU174
 576              		.loc 1 428 6 is_stmt 0 view .LVU175
 577 0000 29B1     		cbz	r1, .L35
 429:Drivers/STM32F4xx_StdPeriph_Driver/src/stm32f4xx_i2c.c ****   {
ARM GAS  /tmp/ccGdFbQ0.s 			page 19


 430:Drivers/STM32F4xx_StdPeriph_Driver/src/stm32f4xx_i2c.c ****     /* Generate a STOP condition */
 431:Drivers/STM32F4xx_StdPeriph_Driver/src/stm32f4xx_i2c.c ****     I2Cx->CR1 |= I2C_CR1_STOP;
 578              		.loc 1 431 5 is_stmt 1 view .LVU176
 579              		.loc 1 431 15 is_stmt 0 view .LVU177
 580 0002 0388     		ldrh	r3, [r0]
 581 0004 9BB2     		uxth	r3, r3
 582 0006 43F40073 		orr	r3, r3, #512
 583 000a 0380     		strh	r3, [r0]	@ movhi
 584 000c 7047     		bx	lr
 585              	.L35:
 432:Drivers/STM32F4xx_StdPeriph_Driver/src/stm32f4xx_i2c.c ****   }
 433:Drivers/STM32F4xx_StdPeriph_Driver/src/stm32f4xx_i2c.c ****   else
 434:Drivers/STM32F4xx_StdPeriph_Driver/src/stm32f4xx_i2c.c ****   {
 435:Drivers/STM32F4xx_StdPeriph_Driver/src/stm32f4xx_i2c.c ****     /* Disable the STOP condition generation */
 436:Drivers/STM32F4xx_StdPeriph_Driver/src/stm32f4xx_i2c.c ****     I2Cx->CR1 &= (uint16_t)~((uint16_t)I2C_CR1_STOP);
 586              		.loc 1 436 5 is_stmt 1 view .LVU178
 587              		.loc 1 436 15 is_stmt 0 view .LVU179
 588 000e 0388     		ldrh	r3, [r0]
 589 0010 9BB2     		uxth	r3, r3
 590 0012 23F40073 		bic	r3, r3, #512
 591 0016 9BB2     		uxth	r3, r3
 592 0018 0380     		strh	r3, [r0]	@ movhi
 437:Drivers/STM32F4xx_StdPeriph_Driver/src/stm32f4xx_i2c.c ****   }
 438:Drivers/STM32F4xx_StdPeriph_Driver/src/stm32f4xx_i2c.c **** }
 593              		.loc 1 438 1 view .LVU180
 594 001a 7047     		bx	lr
 595              		.cfi_endproc
 596              	.LFE130:
 598              		.section	.text.I2C_Send7bitAddress,"ax",%progbits
 599              		.align	1
 600              		.global	I2C_Send7bitAddress
 601              		.syntax unified
 602              		.thumb
 603              		.thumb_func
 605              	I2C_Send7bitAddress:
 606              	.LVL54:
 607              	.LFB131:
 439:Drivers/STM32F4xx_StdPeriph_Driver/src/stm32f4xx_i2c.c **** 
 440:Drivers/STM32F4xx_StdPeriph_Driver/src/stm32f4xx_i2c.c **** /**
 441:Drivers/STM32F4xx_StdPeriph_Driver/src/stm32f4xx_i2c.c ****   * @brief  Transmits the address byte to select the slave device.
 442:Drivers/STM32F4xx_StdPeriph_Driver/src/stm32f4xx_i2c.c ****   * @param  I2Cx: where x can be 1, 2 or 3 to select the I2C peripheral.
 443:Drivers/STM32F4xx_StdPeriph_Driver/src/stm32f4xx_i2c.c ****   * @param  Address: specifies the slave address which will be transmitted
 444:Drivers/STM32F4xx_StdPeriph_Driver/src/stm32f4xx_i2c.c ****   * @param  I2C_Direction: specifies whether the I2C device will be a Transmitter
 445:Drivers/STM32F4xx_StdPeriph_Driver/src/stm32f4xx_i2c.c ****   *         or a Receiver. 
 446:Drivers/STM32F4xx_StdPeriph_Driver/src/stm32f4xx_i2c.c ****   *          This parameter can be one of the following values
 447:Drivers/STM32F4xx_StdPeriph_Driver/src/stm32f4xx_i2c.c ****   *            @arg I2C_Direction_Transmitter: Transmitter mode
 448:Drivers/STM32F4xx_StdPeriph_Driver/src/stm32f4xx_i2c.c ****   *            @arg I2C_Direction_Receiver: Receiver mode
 449:Drivers/STM32F4xx_StdPeriph_Driver/src/stm32f4xx_i2c.c ****   * @retval None.
 450:Drivers/STM32F4xx_StdPeriph_Driver/src/stm32f4xx_i2c.c ****   */
 451:Drivers/STM32F4xx_StdPeriph_Driver/src/stm32f4xx_i2c.c **** void I2C_Send7bitAddress(I2C_TypeDef* I2Cx, uint8_t Address, uint8_t I2C_Direction)
 452:Drivers/STM32F4xx_StdPeriph_Driver/src/stm32f4xx_i2c.c **** {
 608              		.loc 1 452 1 is_stmt 1 view -0
 609              		.cfi_startproc
 610              		@ args = 0, pretend = 0, frame = 0
 611              		@ frame_needed = 0, uses_anonymous_args = 0
 612              		@ link register save eliminated.
 453:Drivers/STM32F4xx_StdPeriph_Driver/src/stm32f4xx_i2c.c ****   /* Check the parameters */
ARM GAS  /tmp/ccGdFbQ0.s 			page 20


 454:Drivers/STM32F4xx_StdPeriph_Driver/src/stm32f4xx_i2c.c ****   assert_param(IS_I2C_ALL_PERIPH(I2Cx));
 613              		.loc 1 454 3 view .LVU182
 455:Drivers/STM32F4xx_StdPeriph_Driver/src/stm32f4xx_i2c.c ****   assert_param(IS_I2C_DIRECTION(I2C_Direction));
 614              		.loc 1 455 3 view .LVU183
 456:Drivers/STM32F4xx_StdPeriph_Driver/src/stm32f4xx_i2c.c ****   /* Test on the direction to set/reset the read/write bit */
 457:Drivers/STM32F4xx_StdPeriph_Driver/src/stm32f4xx_i2c.c ****   if (I2C_Direction != I2C_Direction_Transmitter)
 615              		.loc 1 457 3 view .LVU184
 616              		.loc 1 457 6 is_stmt 0 view .LVU185
 617 0000 22B1     		cbz	r2, .L38
 458:Drivers/STM32F4xx_StdPeriph_Driver/src/stm32f4xx_i2c.c ****   {
 459:Drivers/STM32F4xx_StdPeriph_Driver/src/stm32f4xx_i2c.c ****     /* Set the address bit0 for read */
 460:Drivers/STM32F4xx_StdPeriph_Driver/src/stm32f4xx_i2c.c ****     Address |= I2C_OAR1_ADD0;
 618              		.loc 1 460 5 is_stmt 1 view .LVU186
 619              		.loc 1 460 13 is_stmt 0 view .LVU187
 620 0002 41F00101 		orr	r1, r1, #1
 621              	.LVL55:
 622              	.L39:
 461:Drivers/STM32F4xx_StdPeriph_Driver/src/stm32f4xx_i2c.c ****   }
 462:Drivers/STM32F4xx_StdPeriph_Driver/src/stm32f4xx_i2c.c ****   else
 463:Drivers/STM32F4xx_StdPeriph_Driver/src/stm32f4xx_i2c.c ****   {
 464:Drivers/STM32F4xx_StdPeriph_Driver/src/stm32f4xx_i2c.c ****     /* Reset the address bit0 for write */
 465:Drivers/STM32F4xx_StdPeriph_Driver/src/stm32f4xx_i2c.c ****     Address &= (uint8_t)~((uint8_t)I2C_OAR1_ADD0);
 466:Drivers/STM32F4xx_StdPeriph_Driver/src/stm32f4xx_i2c.c ****   }
 467:Drivers/STM32F4xx_StdPeriph_Driver/src/stm32f4xx_i2c.c ****   /* Send the address */
 468:Drivers/STM32F4xx_StdPeriph_Driver/src/stm32f4xx_i2c.c ****   I2Cx->DR = Address;
 623              		.loc 1 468 3 is_stmt 1 view .LVU188
 624              		.loc 1 468 12 is_stmt 0 view .LVU189
 625 0006 89B2     		uxth	r1, r1
 626              	.LVL56:
 627              		.loc 1 468 12 view .LVU190
 628 0008 0182     		strh	r1, [r0, #16]	@ movhi
 469:Drivers/STM32F4xx_StdPeriph_Driver/src/stm32f4xx_i2c.c **** }
 629              		.loc 1 469 1 view .LVU191
 630 000a 7047     		bx	lr
 631              	.LVL57:
 632              	.L38:
 465:Drivers/STM32F4xx_StdPeriph_Driver/src/stm32f4xx_i2c.c ****   }
 633              		.loc 1 465 5 is_stmt 1 view .LVU192
 465:Drivers/STM32F4xx_StdPeriph_Driver/src/stm32f4xx_i2c.c ****   }
 634              		.loc 1 465 13 is_stmt 0 view .LVU193
 635 000c 01F0FE01 		and	r1, r1, #254
 636              	.LVL58:
 465:Drivers/STM32F4xx_StdPeriph_Driver/src/stm32f4xx_i2c.c ****   }
 637              		.loc 1 465 13 view .LVU194
 638 0010 F9E7     		b	.L39
 639              		.cfi_endproc
 640              	.LFE131:
 642              		.section	.text.I2C_AcknowledgeConfig,"ax",%progbits
 643              		.align	1
 644              		.global	I2C_AcknowledgeConfig
 645              		.syntax unified
 646              		.thumb
 647              		.thumb_func
 649              	I2C_AcknowledgeConfig:
 650              	.LVL59:
 651              	.LFB132:
 470:Drivers/STM32F4xx_StdPeriph_Driver/src/stm32f4xx_i2c.c **** 
ARM GAS  /tmp/ccGdFbQ0.s 			page 21


 471:Drivers/STM32F4xx_StdPeriph_Driver/src/stm32f4xx_i2c.c **** /**
 472:Drivers/STM32F4xx_StdPeriph_Driver/src/stm32f4xx_i2c.c ****   * @brief  Enables or disables the specified I2C acknowledge feature.
 473:Drivers/STM32F4xx_StdPeriph_Driver/src/stm32f4xx_i2c.c ****   * @param  I2Cx: where x can be 1, 2 or 3 to select the I2C peripheral.
 474:Drivers/STM32F4xx_StdPeriph_Driver/src/stm32f4xx_i2c.c ****   * @param  NewState: new state of the I2C Acknowledgement.
 475:Drivers/STM32F4xx_StdPeriph_Driver/src/stm32f4xx_i2c.c ****   *          This parameter can be: ENABLE or DISABLE.
 476:Drivers/STM32F4xx_StdPeriph_Driver/src/stm32f4xx_i2c.c ****   * @retval None.
 477:Drivers/STM32F4xx_StdPeriph_Driver/src/stm32f4xx_i2c.c ****   */
 478:Drivers/STM32F4xx_StdPeriph_Driver/src/stm32f4xx_i2c.c **** void I2C_AcknowledgeConfig(I2C_TypeDef* I2Cx, FunctionalState NewState)
 479:Drivers/STM32F4xx_StdPeriph_Driver/src/stm32f4xx_i2c.c **** {
 652              		.loc 1 479 1 is_stmt 1 view -0
 653              		.cfi_startproc
 654              		@ args = 0, pretend = 0, frame = 0
 655              		@ frame_needed = 0, uses_anonymous_args = 0
 656              		@ link register save eliminated.
 480:Drivers/STM32F4xx_StdPeriph_Driver/src/stm32f4xx_i2c.c ****   /* Check the parameters */
 481:Drivers/STM32F4xx_StdPeriph_Driver/src/stm32f4xx_i2c.c ****   assert_param(IS_I2C_ALL_PERIPH(I2Cx));
 657              		.loc 1 481 3 view .LVU196
 482:Drivers/STM32F4xx_StdPeriph_Driver/src/stm32f4xx_i2c.c ****   assert_param(IS_FUNCTIONAL_STATE(NewState));
 658              		.loc 1 482 3 view .LVU197
 483:Drivers/STM32F4xx_StdPeriph_Driver/src/stm32f4xx_i2c.c ****   if (NewState != DISABLE)
 659              		.loc 1 483 3 view .LVU198
 660              		.loc 1 483 6 is_stmt 0 view .LVU199
 661 0000 29B1     		cbz	r1, .L41
 484:Drivers/STM32F4xx_StdPeriph_Driver/src/stm32f4xx_i2c.c ****   {
 485:Drivers/STM32F4xx_StdPeriph_Driver/src/stm32f4xx_i2c.c ****     /* Enable the acknowledgement */
 486:Drivers/STM32F4xx_StdPeriph_Driver/src/stm32f4xx_i2c.c ****     I2Cx->CR1 |= I2C_CR1_ACK;
 662              		.loc 1 486 5 is_stmt 1 view .LVU200
 663              		.loc 1 486 15 is_stmt 0 view .LVU201
 664 0002 0388     		ldrh	r3, [r0]
 665 0004 9BB2     		uxth	r3, r3
 666 0006 43F48063 		orr	r3, r3, #1024
 667 000a 0380     		strh	r3, [r0]	@ movhi
 668 000c 7047     		bx	lr
 669              	.L41:
 487:Drivers/STM32F4xx_StdPeriph_Driver/src/stm32f4xx_i2c.c ****   }
 488:Drivers/STM32F4xx_StdPeriph_Driver/src/stm32f4xx_i2c.c ****   else
 489:Drivers/STM32F4xx_StdPeriph_Driver/src/stm32f4xx_i2c.c ****   {
 490:Drivers/STM32F4xx_StdPeriph_Driver/src/stm32f4xx_i2c.c ****     /* Disable the acknowledgement */
 491:Drivers/STM32F4xx_StdPeriph_Driver/src/stm32f4xx_i2c.c ****     I2Cx->CR1 &= (uint16_t)~((uint16_t)I2C_CR1_ACK);
 670              		.loc 1 491 5 is_stmt 1 view .LVU202
 671              		.loc 1 491 15 is_stmt 0 view .LVU203
 672 000e 0388     		ldrh	r3, [r0]
 673 0010 9BB2     		uxth	r3, r3
 674 0012 23F48063 		bic	r3, r3, #1024
 675 0016 9BB2     		uxth	r3, r3
 676 0018 0380     		strh	r3, [r0]	@ movhi
 492:Drivers/STM32F4xx_StdPeriph_Driver/src/stm32f4xx_i2c.c ****   }
 493:Drivers/STM32F4xx_StdPeriph_Driver/src/stm32f4xx_i2c.c **** }
 677              		.loc 1 493 1 view .LVU204
 678 001a 7047     		bx	lr
 679              		.cfi_endproc
 680              	.LFE132:
 682              		.section	.text.I2C_OwnAddress2Config,"ax",%progbits
 683              		.align	1
 684              		.global	I2C_OwnAddress2Config
 685              		.syntax unified
 686              		.thumb
ARM GAS  /tmp/ccGdFbQ0.s 			page 22


 687              		.thumb_func
 689              	I2C_OwnAddress2Config:
 690              	.LVL60:
 691              	.LFB133:
 494:Drivers/STM32F4xx_StdPeriph_Driver/src/stm32f4xx_i2c.c **** 
 495:Drivers/STM32F4xx_StdPeriph_Driver/src/stm32f4xx_i2c.c **** /**
 496:Drivers/STM32F4xx_StdPeriph_Driver/src/stm32f4xx_i2c.c ****   * @brief  Configures the specified I2C own address2.
 497:Drivers/STM32F4xx_StdPeriph_Driver/src/stm32f4xx_i2c.c ****   * @param  I2Cx: where x can be 1, 2 or 3 to select the I2C peripheral.
 498:Drivers/STM32F4xx_StdPeriph_Driver/src/stm32f4xx_i2c.c ****   * @param  Address: specifies the 7bit I2C own address2.
 499:Drivers/STM32F4xx_StdPeriph_Driver/src/stm32f4xx_i2c.c ****   * @retval None.
 500:Drivers/STM32F4xx_StdPeriph_Driver/src/stm32f4xx_i2c.c ****   */
 501:Drivers/STM32F4xx_StdPeriph_Driver/src/stm32f4xx_i2c.c **** void I2C_OwnAddress2Config(I2C_TypeDef* I2Cx, uint8_t Address)
 502:Drivers/STM32F4xx_StdPeriph_Driver/src/stm32f4xx_i2c.c **** {
 692              		.loc 1 502 1 is_stmt 1 view -0
 693              		.cfi_startproc
 694              		@ args = 0, pretend = 0, frame = 0
 695              		@ frame_needed = 0, uses_anonymous_args = 0
 696              		@ link register save eliminated.
 503:Drivers/STM32F4xx_StdPeriph_Driver/src/stm32f4xx_i2c.c ****   uint16_t tmpreg = 0;
 697              		.loc 1 503 3 view .LVU206
 504:Drivers/STM32F4xx_StdPeriph_Driver/src/stm32f4xx_i2c.c **** 
 505:Drivers/STM32F4xx_StdPeriph_Driver/src/stm32f4xx_i2c.c ****   /* Check the parameters */
 506:Drivers/STM32F4xx_StdPeriph_Driver/src/stm32f4xx_i2c.c ****   assert_param(IS_I2C_ALL_PERIPH(I2Cx));
 698              		.loc 1 506 3 view .LVU207
 507:Drivers/STM32F4xx_StdPeriph_Driver/src/stm32f4xx_i2c.c **** 
 508:Drivers/STM32F4xx_StdPeriph_Driver/src/stm32f4xx_i2c.c ****   /* Get the old register value */
 509:Drivers/STM32F4xx_StdPeriph_Driver/src/stm32f4xx_i2c.c ****   tmpreg = I2Cx->OAR2;
 699              		.loc 1 509 3 view .LVU208
 700              		.loc 1 509 10 is_stmt 0 view .LVU209
 701 0000 8389     		ldrh	r3, [r0, #12]
 702 0002 9BB2     		uxth	r3, r3
 703              	.LVL61:
 510:Drivers/STM32F4xx_StdPeriph_Driver/src/stm32f4xx_i2c.c **** 
 511:Drivers/STM32F4xx_StdPeriph_Driver/src/stm32f4xx_i2c.c ****   /* Reset I2Cx Own address2 bit [7:1] */
 512:Drivers/STM32F4xx_StdPeriph_Driver/src/stm32f4xx_i2c.c ****   tmpreg &= (uint16_t)~((uint16_t)I2C_OAR2_ADD2);
 704              		.loc 1 512 3 is_stmt 1 view .LVU210
 705              		.loc 1 512 10 is_stmt 0 view .LVU211
 706 0004 23F0FE03 		bic	r3, r3, #254
 707              	.LVL62:
 513:Drivers/STM32F4xx_StdPeriph_Driver/src/stm32f4xx_i2c.c **** 
 514:Drivers/STM32F4xx_StdPeriph_Driver/src/stm32f4xx_i2c.c ****   /* Set I2Cx Own address2 */
 515:Drivers/STM32F4xx_StdPeriph_Driver/src/stm32f4xx_i2c.c ****   tmpreg |= (uint16_t)((uint16_t)Address & (uint16_t)0x00FE);
 708              		.loc 1 515 3 is_stmt 1 view .LVU212
 709              		.loc 1 515 13 is_stmt 0 view .LVU213
 710 0008 01F0FE01 		and	r1, r1, #254
 711              	.LVL63:
 712              		.loc 1 515 10 view .LVU214
 713 000c 0B43     		orrs	r3, r3, r1
 714              	.LVL64:
 516:Drivers/STM32F4xx_StdPeriph_Driver/src/stm32f4xx_i2c.c **** 
 517:Drivers/STM32F4xx_StdPeriph_Driver/src/stm32f4xx_i2c.c ****   /* Store the new register value */
 518:Drivers/STM32F4xx_StdPeriph_Driver/src/stm32f4xx_i2c.c ****   I2Cx->OAR2 = tmpreg;
 715              		.loc 1 518 3 is_stmt 1 view .LVU215
 716              		.loc 1 518 14 is_stmt 0 view .LVU216
 717 000e 8381     		strh	r3, [r0, #12]	@ movhi
 519:Drivers/STM32F4xx_StdPeriph_Driver/src/stm32f4xx_i2c.c **** }
 718              		.loc 1 519 1 view .LVU217
ARM GAS  /tmp/ccGdFbQ0.s 			page 23


 719 0010 7047     		bx	lr
 720              		.cfi_endproc
 721              	.LFE133:
 723              		.section	.text.I2C_DualAddressCmd,"ax",%progbits
 724              		.align	1
 725              		.global	I2C_DualAddressCmd
 726              		.syntax unified
 727              		.thumb
 728              		.thumb_func
 730              	I2C_DualAddressCmd:
 731              	.LVL65:
 732              	.LFB134:
 520:Drivers/STM32F4xx_StdPeriph_Driver/src/stm32f4xx_i2c.c **** 
 521:Drivers/STM32F4xx_StdPeriph_Driver/src/stm32f4xx_i2c.c **** /**
 522:Drivers/STM32F4xx_StdPeriph_Driver/src/stm32f4xx_i2c.c ****   * @brief  Enables or disables the specified I2C dual addressing mode.
 523:Drivers/STM32F4xx_StdPeriph_Driver/src/stm32f4xx_i2c.c ****   * @param  I2Cx: where x can be 1, 2 or 3 to select the I2C peripheral.
 524:Drivers/STM32F4xx_StdPeriph_Driver/src/stm32f4xx_i2c.c ****   * @param  NewState: new state of the I2C dual addressing mode.
 525:Drivers/STM32F4xx_StdPeriph_Driver/src/stm32f4xx_i2c.c ****   *          This parameter can be: ENABLE or DISABLE.
 526:Drivers/STM32F4xx_StdPeriph_Driver/src/stm32f4xx_i2c.c ****   * @retval None
 527:Drivers/STM32F4xx_StdPeriph_Driver/src/stm32f4xx_i2c.c ****   */
 528:Drivers/STM32F4xx_StdPeriph_Driver/src/stm32f4xx_i2c.c **** void I2C_DualAddressCmd(I2C_TypeDef* I2Cx, FunctionalState NewState)
 529:Drivers/STM32F4xx_StdPeriph_Driver/src/stm32f4xx_i2c.c **** {
 733              		.loc 1 529 1 is_stmt 1 view -0
 734              		.cfi_startproc
 735              		@ args = 0, pretend = 0, frame = 0
 736              		@ frame_needed = 0, uses_anonymous_args = 0
 737              		@ link register save eliminated.
 530:Drivers/STM32F4xx_StdPeriph_Driver/src/stm32f4xx_i2c.c ****   /* Check the parameters */
 531:Drivers/STM32F4xx_StdPeriph_Driver/src/stm32f4xx_i2c.c ****   assert_param(IS_I2C_ALL_PERIPH(I2Cx));
 738              		.loc 1 531 3 view .LVU219
 532:Drivers/STM32F4xx_StdPeriph_Driver/src/stm32f4xx_i2c.c ****   assert_param(IS_FUNCTIONAL_STATE(NewState));
 739              		.loc 1 532 3 view .LVU220
 533:Drivers/STM32F4xx_StdPeriph_Driver/src/stm32f4xx_i2c.c ****   if (NewState != DISABLE)
 740              		.loc 1 533 3 view .LVU221
 741              		.loc 1 533 6 is_stmt 0 view .LVU222
 742 0000 29B1     		cbz	r1, .L45
 534:Drivers/STM32F4xx_StdPeriph_Driver/src/stm32f4xx_i2c.c ****   {
 535:Drivers/STM32F4xx_StdPeriph_Driver/src/stm32f4xx_i2c.c ****     /* Enable dual addressing mode */
 536:Drivers/STM32F4xx_StdPeriph_Driver/src/stm32f4xx_i2c.c ****     I2Cx->OAR2 |= I2C_OAR2_ENDUAL;
 743              		.loc 1 536 5 is_stmt 1 view .LVU223
 744              		.loc 1 536 16 is_stmt 0 view .LVU224
 745 0002 8389     		ldrh	r3, [r0, #12]
 746 0004 9BB2     		uxth	r3, r3
 747 0006 43F00103 		orr	r3, r3, #1
 748 000a 8381     		strh	r3, [r0, #12]	@ movhi
 749 000c 7047     		bx	lr
 750              	.L45:
 537:Drivers/STM32F4xx_StdPeriph_Driver/src/stm32f4xx_i2c.c ****   }
 538:Drivers/STM32F4xx_StdPeriph_Driver/src/stm32f4xx_i2c.c ****   else
 539:Drivers/STM32F4xx_StdPeriph_Driver/src/stm32f4xx_i2c.c ****   {
 540:Drivers/STM32F4xx_StdPeriph_Driver/src/stm32f4xx_i2c.c ****     /* Disable dual addressing mode */
 541:Drivers/STM32F4xx_StdPeriph_Driver/src/stm32f4xx_i2c.c ****     I2Cx->OAR2 &= (uint16_t)~((uint16_t)I2C_OAR2_ENDUAL);
 751              		.loc 1 541 5 is_stmt 1 view .LVU225
 752              		.loc 1 541 16 is_stmt 0 view .LVU226
 753 000e 8389     		ldrh	r3, [r0, #12]
 754 0010 9BB2     		uxth	r3, r3
 755 0012 23F00103 		bic	r3, r3, #1
ARM GAS  /tmp/ccGdFbQ0.s 			page 24


 756 0016 9BB2     		uxth	r3, r3
 757 0018 8381     		strh	r3, [r0, #12]	@ movhi
 542:Drivers/STM32F4xx_StdPeriph_Driver/src/stm32f4xx_i2c.c ****   }
 543:Drivers/STM32F4xx_StdPeriph_Driver/src/stm32f4xx_i2c.c **** }
 758              		.loc 1 543 1 view .LVU227
 759 001a 7047     		bx	lr
 760              		.cfi_endproc
 761              	.LFE134:
 763              		.section	.text.I2C_GeneralCallCmd,"ax",%progbits
 764              		.align	1
 765              		.global	I2C_GeneralCallCmd
 766              		.syntax unified
 767              		.thumb
 768              		.thumb_func
 770              	I2C_GeneralCallCmd:
 771              	.LVL66:
 772              	.LFB135:
 544:Drivers/STM32F4xx_StdPeriph_Driver/src/stm32f4xx_i2c.c **** 
 545:Drivers/STM32F4xx_StdPeriph_Driver/src/stm32f4xx_i2c.c **** /**
 546:Drivers/STM32F4xx_StdPeriph_Driver/src/stm32f4xx_i2c.c ****   * @brief  Enables or disables the specified I2C general call feature.
 547:Drivers/STM32F4xx_StdPeriph_Driver/src/stm32f4xx_i2c.c ****   * @param  I2Cx: where x can be 1, 2 or 3 to select the I2C peripheral.
 548:Drivers/STM32F4xx_StdPeriph_Driver/src/stm32f4xx_i2c.c ****   * @param  NewState: new state of the I2C General call.
 549:Drivers/STM32F4xx_StdPeriph_Driver/src/stm32f4xx_i2c.c ****   *          This parameter can be: ENABLE or DISABLE.
 550:Drivers/STM32F4xx_StdPeriph_Driver/src/stm32f4xx_i2c.c ****   * @retval None
 551:Drivers/STM32F4xx_StdPeriph_Driver/src/stm32f4xx_i2c.c ****   */
 552:Drivers/STM32F4xx_StdPeriph_Driver/src/stm32f4xx_i2c.c **** void I2C_GeneralCallCmd(I2C_TypeDef* I2Cx, FunctionalState NewState)
 553:Drivers/STM32F4xx_StdPeriph_Driver/src/stm32f4xx_i2c.c **** {
 773              		.loc 1 553 1 is_stmt 1 view -0
 774              		.cfi_startproc
 775              		@ args = 0, pretend = 0, frame = 0
 776              		@ frame_needed = 0, uses_anonymous_args = 0
 777              		@ link register save eliminated.
 554:Drivers/STM32F4xx_StdPeriph_Driver/src/stm32f4xx_i2c.c ****   /* Check the parameters */
 555:Drivers/STM32F4xx_StdPeriph_Driver/src/stm32f4xx_i2c.c ****   assert_param(IS_I2C_ALL_PERIPH(I2Cx));
 778              		.loc 1 555 3 view .LVU229
 556:Drivers/STM32F4xx_StdPeriph_Driver/src/stm32f4xx_i2c.c ****   assert_param(IS_FUNCTIONAL_STATE(NewState));
 779              		.loc 1 556 3 view .LVU230
 557:Drivers/STM32F4xx_StdPeriph_Driver/src/stm32f4xx_i2c.c ****   if (NewState != DISABLE)
 780              		.loc 1 557 3 view .LVU231
 781              		.loc 1 557 6 is_stmt 0 view .LVU232
 782 0000 29B1     		cbz	r1, .L48
 558:Drivers/STM32F4xx_StdPeriph_Driver/src/stm32f4xx_i2c.c ****   {
 559:Drivers/STM32F4xx_StdPeriph_Driver/src/stm32f4xx_i2c.c ****     /* Enable general call */
 560:Drivers/STM32F4xx_StdPeriph_Driver/src/stm32f4xx_i2c.c ****     I2Cx->CR1 |= I2C_CR1_ENGC;
 783              		.loc 1 560 5 is_stmt 1 view .LVU233
 784              		.loc 1 560 15 is_stmt 0 view .LVU234
 785 0002 0388     		ldrh	r3, [r0]
 786 0004 9BB2     		uxth	r3, r3
 787 0006 43F04003 		orr	r3, r3, #64
 788 000a 0380     		strh	r3, [r0]	@ movhi
 789 000c 7047     		bx	lr
 790              	.L48:
 561:Drivers/STM32F4xx_StdPeriph_Driver/src/stm32f4xx_i2c.c ****   }
 562:Drivers/STM32F4xx_StdPeriph_Driver/src/stm32f4xx_i2c.c ****   else
 563:Drivers/STM32F4xx_StdPeriph_Driver/src/stm32f4xx_i2c.c ****   {
 564:Drivers/STM32F4xx_StdPeriph_Driver/src/stm32f4xx_i2c.c ****     /* Disable general call */
 565:Drivers/STM32F4xx_StdPeriph_Driver/src/stm32f4xx_i2c.c ****     I2Cx->CR1 &= (uint16_t)~((uint16_t)I2C_CR1_ENGC);
ARM GAS  /tmp/ccGdFbQ0.s 			page 25


 791              		.loc 1 565 5 is_stmt 1 view .LVU235
 792              		.loc 1 565 15 is_stmt 0 view .LVU236
 793 000e 0388     		ldrh	r3, [r0]
 794 0010 9BB2     		uxth	r3, r3
 795 0012 23F04003 		bic	r3, r3, #64
 796 0016 9BB2     		uxth	r3, r3
 797 0018 0380     		strh	r3, [r0]	@ movhi
 566:Drivers/STM32F4xx_StdPeriph_Driver/src/stm32f4xx_i2c.c ****   }
 567:Drivers/STM32F4xx_StdPeriph_Driver/src/stm32f4xx_i2c.c **** }
 798              		.loc 1 567 1 view .LVU237
 799 001a 7047     		bx	lr
 800              		.cfi_endproc
 801              	.LFE135:
 803              		.section	.text.I2C_SoftwareResetCmd,"ax",%progbits
 804              		.align	1
 805              		.global	I2C_SoftwareResetCmd
 806              		.syntax unified
 807              		.thumb
 808              		.thumb_func
 810              	I2C_SoftwareResetCmd:
 811              	.LVL67:
 812              	.LFB136:
 568:Drivers/STM32F4xx_StdPeriph_Driver/src/stm32f4xx_i2c.c **** 
 569:Drivers/STM32F4xx_StdPeriph_Driver/src/stm32f4xx_i2c.c **** /**
 570:Drivers/STM32F4xx_StdPeriph_Driver/src/stm32f4xx_i2c.c ****   * @brief  Enables or disables the specified I2C software reset.
 571:Drivers/STM32F4xx_StdPeriph_Driver/src/stm32f4xx_i2c.c ****   * @note   When software reset is enabled, the I2C IOs are released (this can
 572:Drivers/STM32F4xx_StdPeriph_Driver/src/stm32f4xx_i2c.c ****   *         be useful to recover from bus errors).  
 573:Drivers/STM32F4xx_StdPeriph_Driver/src/stm32f4xx_i2c.c ****   * @param  I2Cx: where x can be 1, 2 or 3 to select the I2C peripheral.
 574:Drivers/STM32F4xx_StdPeriph_Driver/src/stm32f4xx_i2c.c ****   * @param  NewState: new state of the I2C software reset.
 575:Drivers/STM32F4xx_StdPeriph_Driver/src/stm32f4xx_i2c.c ****   *          This parameter can be: ENABLE or DISABLE.
 576:Drivers/STM32F4xx_StdPeriph_Driver/src/stm32f4xx_i2c.c ****   * @retval None
 577:Drivers/STM32F4xx_StdPeriph_Driver/src/stm32f4xx_i2c.c ****   */
 578:Drivers/STM32F4xx_StdPeriph_Driver/src/stm32f4xx_i2c.c **** void I2C_SoftwareResetCmd(I2C_TypeDef* I2Cx, FunctionalState NewState)
 579:Drivers/STM32F4xx_StdPeriph_Driver/src/stm32f4xx_i2c.c **** {
 813              		.loc 1 579 1 is_stmt 1 view -0
 814              		.cfi_startproc
 815              		@ args = 0, pretend = 0, frame = 0
 816              		@ frame_needed = 0, uses_anonymous_args = 0
 817              		@ link register save eliminated.
 580:Drivers/STM32F4xx_StdPeriph_Driver/src/stm32f4xx_i2c.c ****   /* Check the parameters */
 581:Drivers/STM32F4xx_StdPeriph_Driver/src/stm32f4xx_i2c.c ****   assert_param(IS_I2C_ALL_PERIPH(I2Cx));
 818              		.loc 1 581 3 view .LVU239
 582:Drivers/STM32F4xx_StdPeriph_Driver/src/stm32f4xx_i2c.c ****   assert_param(IS_FUNCTIONAL_STATE(NewState));
 819              		.loc 1 582 3 view .LVU240
 583:Drivers/STM32F4xx_StdPeriph_Driver/src/stm32f4xx_i2c.c ****   if (NewState != DISABLE)
 820              		.loc 1 583 3 view .LVU241
 821              		.loc 1 583 6 is_stmt 0 view .LVU242
 822 0000 39B1     		cbz	r1, .L51
 584:Drivers/STM32F4xx_StdPeriph_Driver/src/stm32f4xx_i2c.c ****   {
 585:Drivers/STM32F4xx_StdPeriph_Driver/src/stm32f4xx_i2c.c ****     /* Peripheral under reset */
 586:Drivers/STM32F4xx_StdPeriph_Driver/src/stm32f4xx_i2c.c ****     I2Cx->CR1 |= I2C_CR1_SWRST;
 823              		.loc 1 586 5 is_stmt 1 view .LVU243
 824              		.loc 1 586 15 is_stmt 0 view .LVU244
 825 0002 0388     		ldrh	r3, [r0]
 826 0004 6FEA4343 		mvn	r3, r3, lsl #17
 827 0008 6FEA5343 		mvn	r3, r3, lsr #17
 828 000c 9BB2     		uxth	r3, r3
ARM GAS  /tmp/ccGdFbQ0.s 			page 26


 829 000e 0380     		strh	r3, [r0]	@ movhi
 830 0010 7047     		bx	lr
 831              	.L51:
 587:Drivers/STM32F4xx_StdPeriph_Driver/src/stm32f4xx_i2c.c ****   }
 588:Drivers/STM32F4xx_StdPeriph_Driver/src/stm32f4xx_i2c.c ****   else
 589:Drivers/STM32F4xx_StdPeriph_Driver/src/stm32f4xx_i2c.c ****   {
 590:Drivers/STM32F4xx_StdPeriph_Driver/src/stm32f4xx_i2c.c ****     /* Peripheral not under reset */
 591:Drivers/STM32F4xx_StdPeriph_Driver/src/stm32f4xx_i2c.c ****     I2Cx->CR1 &= (uint16_t)~((uint16_t)I2C_CR1_SWRST);
 832              		.loc 1 591 5 is_stmt 1 view .LVU245
 833              		.loc 1 591 15 is_stmt 0 view .LVU246
 834 0012 0388     		ldrh	r3, [r0]
 835 0014 C3F30E03 		ubfx	r3, r3, #0, #15
 836 0018 0380     		strh	r3, [r0]	@ movhi
 592:Drivers/STM32F4xx_StdPeriph_Driver/src/stm32f4xx_i2c.c ****   }
 593:Drivers/STM32F4xx_StdPeriph_Driver/src/stm32f4xx_i2c.c **** }
 837              		.loc 1 593 1 view .LVU247
 838 001a 7047     		bx	lr
 839              		.cfi_endproc
 840              	.LFE136:
 842              		.section	.text.I2C_StretchClockCmd,"ax",%progbits
 843              		.align	1
 844              		.global	I2C_StretchClockCmd
 845              		.syntax unified
 846              		.thumb
 847              		.thumb_func
 849              	I2C_StretchClockCmd:
 850              	.LVL68:
 851              	.LFB137:
 594:Drivers/STM32F4xx_StdPeriph_Driver/src/stm32f4xx_i2c.c **** 
 595:Drivers/STM32F4xx_StdPeriph_Driver/src/stm32f4xx_i2c.c **** /**
 596:Drivers/STM32F4xx_StdPeriph_Driver/src/stm32f4xx_i2c.c ****   * @brief  Enables or disables the specified I2C Clock stretching.
 597:Drivers/STM32F4xx_StdPeriph_Driver/src/stm32f4xx_i2c.c ****   * @param  I2Cx: where x can be 1, 2 or 3 to select the I2C peripheral.
 598:Drivers/STM32F4xx_StdPeriph_Driver/src/stm32f4xx_i2c.c ****   * @param  NewState: new state of the I2Cx Clock stretching.
 599:Drivers/STM32F4xx_StdPeriph_Driver/src/stm32f4xx_i2c.c ****   *          This parameter can be: ENABLE or DISABLE.
 600:Drivers/STM32F4xx_StdPeriph_Driver/src/stm32f4xx_i2c.c ****   * @retval None
 601:Drivers/STM32F4xx_StdPeriph_Driver/src/stm32f4xx_i2c.c ****   */
 602:Drivers/STM32F4xx_StdPeriph_Driver/src/stm32f4xx_i2c.c **** void I2C_StretchClockCmd(I2C_TypeDef* I2Cx, FunctionalState NewState)
 603:Drivers/STM32F4xx_StdPeriph_Driver/src/stm32f4xx_i2c.c **** {
 852              		.loc 1 603 1 is_stmt 1 view -0
 853              		.cfi_startproc
 854              		@ args = 0, pretend = 0, frame = 0
 855              		@ frame_needed = 0, uses_anonymous_args = 0
 856              		@ link register save eliminated.
 604:Drivers/STM32F4xx_StdPeriph_Driver/src/stm32f4xx_i2c.c ****   /* Check the parameters */
 605:Drivers/STM32F4xx_StdPeriph_Driver/src/stm32f4xx_i2c.c ****   assert_param(IS_I2C_ALL_PERIPH(I2Cx));
 857              		.loc 1 605 3 view .LVU249
 606:Drivers/STM32F4xx_StdPeriph_Driver/src/stm32f4xx_i2c.c ****   assert_param(IS_FUNCTIONAL_STATE(NewState));
 858              		.loc 1 606 3 view .LVU250
 607:Drivers/STM32F4xx_StdPeriph_Driver/src/stm32f4xx_i2c.c ****   if (NewState == DISABLE)
 859              		.loc 1 607 3 view .LVU251
 860              		.loc 1 607 6 is_stmt 0 view .LVU252
 861 0000 29B9     		cbnz	r1, .L54
 608:Drivers/STM32F4xx_StdPeriph_Driver/src/stm32f4xx_i2c.c ****   {
 609:Drivers/STM32F4xx_StdPeriph_Driver/src/stm32f4xx_i2c.c ****     /* Enable the selected I2C Clock stretching */
 610:Drivers/STM32F4xx_StdPeriph_Driver/src/stm32f4xx_i2c.c ****     I2Cx->CR1 |= I2C_CR1_NOSTRETCH;
 862              		.loc 1 610 5 is_stmt 1 view .LVU253
 863              		.loc 1 610 15 is_stmt 0 view .LVU254
ARM GAS  /tmp/ccGdFbQ0.s 			page 27


 864 0002 0388     		ldrh	r3, [r0]
 865 0004 9BB2     		uxth	r3, r3
 866 0006 43F08003 		orr	r3, r3, #128
 867 000a 0380     		strh	r3, [r0]	@ movhi
 868 000c 7047     		bx	lr
 869              	.L54:
 611:Drivers/STM32F4xx_StdPeriph_Driver/src/stm32f4xx_i2c.c ****   }
 612:Drivers/STM32F4xx_StdPeriph_Driver/src/stm32f4xx_i2c.c ****   else
 613:Drivers/STM32F4xx_StdPeriph_Driver/src/stm32f4xx_i2c.c ****   {
 614:Drivers/STM32F4xx_StdPeriph_Driver/src/stm32f4xx_i2c.c ****     /* Disable the selected I2C Clock stretching */
 615:Drivers/STM32F4xx_StdPeriph_Driver/src/stm32f4xx_i2c.c ****     I2Cx->CR1 &= (uint16_t)~((uint16_t)I2C_CR1_NOSTRETCH);
 870              		.loc 1 615 5 is_stmt 1 view .LVU255
 871              		.loc 1 615 15 is_stmt 0 view .LVU256
 872 000e 0388     		ldrh	r3, [r0]
 873 0010 9BB2     		uxth	r3, r3
 874 0012 23F08003 		bic	r3, r3, #128
 875 0016 9BB2     		uxth	r3, r3
 876 0018 0380     		strh	r3, [r0]	@ movhi
 616:Drivers/STM32F4xx_StdPeriph_Driver/src/stm32f4xx_i2c.c ****   }
 617:Drivers/STM32F4xx_StdPeriph_Driver/src/stm32f4xx_i2c.c **** }
 877              		.loc 1 617 1 view .LVU257
 878 001a 7047     		bx	lr
 879              		.cfi_endproc
 880              	.LFE137:
 882              		.section	.text.I2C_FastModeDutyCycleConfig,"ax",%progbits
 883              		.align	1
 884              		.global	I2C_FastModeDutyCycleConfig
 885              		.syntax unified
 886              		.thumb
 887              		.thumb_func
 889              	I2C_FastModeDutyCycleConfig:
 890              	.LVL69:
 891              	.LFB138:
 618:Drivers/STM32F4xx_StdPeriph_Driver/src/stm32f4xx_i2c.c **** 
 619:Drivers/STM32F4xx_StdPeriph_Driver/src/stm32f4xx_i2c.c **** /**
 620:Drivers/STM32F4xx_StdPeriph_Driver/src/stm32f4xx_i2c.c ****   * @brief  Selects the specified I2C fast mode duty cycle.
 621:Drivers/STM32F4xx_StdPeriph_Driver/src/stm32f4xx_i2c.c ****   * @param  I2Cx: where x can be 1, 2 or 3 to select the I2C peripheral.
 622:Drivers/STM32F4xx_StdPeriph_Driver/src/stm32f4xx_i2c.c ****   * @param  I2C_DutyCycle: specifies the fast mode duty cycle.
 623:Drivers/STM32F4xx_StdPeriph_Driver/src/stm32f4xx_i2c.c ****   *          This parameter can be one of the following values:
 624:Drivers/STM32F4xx_StdPeriph_Driver/src/stm32f4xx_i2c.c ****   *            @arg I2C_DutyCycle_2: I2C fast mode Tlow/Thigh = 2
 625:Drivers/STM32F4xx_StdPeriph_Driver/src/stm32f4xx_i2c.c ****   *            @arg I2C_DutyCycle_16_9: I2C fast mode Tlow/Thigh = 16/9
 626:Drivers/STM32F4xx_StdPeriph_Driver/src/stm32f4xx_i2c.c ****   * @retval None
 627:Drivers/STM32F4xx_StdPeriph_Driver/src/stm32f4xx_i2c.c ****   */
 628:Drivers/STM32F4xx_StdPeriph_Driver/src/stm32f4xx_i2c.c **** void I2C_FastModeDutyCycleConfig(I2C_TypeDef* I2Cx, uint16_t I2C_DutyCycle)
 629:Drivers/STM32F4xx_StdPeriph_Driver/src/stm32f4xx_i2c.c **** {
 892              		.loc 1 629 1 is_stmt 1 view -0
 893              		.cfi_startproc
 894              		@ args = 0, pretend = 0, frame = 0
 895              		@ frame_needed = 0, uses_anonymous_args = 0
 896              		@ link register save eliminated.
 630:Drivers/STM32F4xx_StdPeriph_Driver/src/stm32f4xx_i2c.c ****   /* Check the parameters */
 631:Drivers/STM32F4xx_StdPeriph_Driver/src/stm32f4xx_i2c.c ****   assert_param(IS_I2C_ALL_PERIPH(I2Cx));
 897              		.loc 1 631 3 view .LVU259
 632:Drivers/STM32F4xx_StdPeriph_Driver/src/stm32f4xx_i2c.c ****   assert_param(IS_I2C_DUTY_CYCLE(I2C_DutyCycle));
 898              		.loc 1 632 3 view .LVU260
 633:Drivers/STM32F4xx_StdPeriph_Driver/src/stm32f4xx_i2c.c ****   if (I2C_DutyCycle != I2C_DutyCycle_16_9)
 899              		.loc 1 633 3 view .LVU261
ARM GAS  /tmp/ccGdFbQ0.s 			page 28


 900              		.loc 1 633 6 is_stmt 0 view .LVU262
 901 0000 B1F5804F 		cmp	r1, #16384
 902 0004 06D0     		beq	.L57
 634:Drivers/STM32F4xx_StdPeriph_Driver/src/stm32f4xx_i2c.c ****   {
 635:Drivers/STM32F4xx_StdPeriph_Driver/src/stm32f4xx_i2c.c ****     /* I2C fast mode Tlow/Thigh=2 */
 636:Drivers/STM32F4xx_StdPeriph_Driver/src/stm32f4xx_i2c.c ****     I2Cx->CCR &= I2C_DutyCycle_2;
 903              		.loc 1 636 5 is_stmt 1 view .LVU263
 904              		.loc 1 636 15 is_stmt 0 view .LVU264
 905 0006 838B     		ldrh	r3, [r0, #28]
 906 0008 9BB2     		uxth	r3, r3
 907 000a 23F48043 		bic	r3, r3, #16384
 908 000e 9BB2     		uxth	r3, r3
 909 0010 8383     		strh	r3, [r0, #28]	@ movhi
 910 0012 7047     		bx	lr
 911              	.L57:
 637:Drivers/STM32F4xx_StdPeriph_Driver/src/stm32f4xx_i2c.c ****   }
 638:Drivers/STM32F4xx_StdPeriph_Driver/src/stm32f4xx_i2c.c ****   else
 639:Drivers/STM32F4xx_StdPeriph_Driver/src/stm32f4xx_i2c.c ****   {
 640:Drivers/STM32F4xx_StdPeriph_Driver/src/stm32f4xx_i2c.c ****     /* I2C fast mode Tlow/Thigh=16/9 */
 641:Drivers/STM32F4xx_StdPeriph_Driver/src/stm32f4xx_i2c.c ****     I2Cx->CCR |= I2C_DutyCycle_16_9;
 912              		.loc 1 641 5 is_stmt 1 view .LVU265
 913              		.loc 1 641 15 is_stmt 0 view .LVU266
 914 0014 838B     		ldrh	r3, [r0, #28]
 915 0016 9BB2     		uxth	r3, r3
 916 0018 43F48043 		orr	r3, r3, #16384
 917 001c 8383     		strh	r3, [r0, #28]	@ movhi
 642:Drivers/STM32F4xx_StdPeriph_Driver/src/stm32f4xx_i2c.c ****   }
 643:Drivers/STM32F4xx_StdPeriph_Driver/src/stm32f4xx_i2c.c **** }
 918              		.loc 1 643 1 view .LVU267
 919 001e 7047     		bx	lr
 920              		.cfi_endproc
 921              	.LFE138:
 923              		.section	.text.I2C_NACKPositionConfig,"ax",%progbits
 924              		.align	1
 925              		.global	I2C_NACKPositionConfig
 926              		.syntax unified
 927              		.thumb
 928              		.thumb_func
 930              	I2C_NACKPositionConfig:
 931              	.LVL70:
 932              	.LFB139:
 644:Drivers/STM32F4xx_StdPeriph_Driver/src/stm32f4xx_i2c.c **** 
 645:Drivers/STM32F4xx_StdPeriph_Driver/src/stm32f4xx_i2c.c **** /**
 646:Drivers/STM32F4xx_StdPeriph_Driver/src/stm32f4xx_i2c.c ****   * @brief  Selects the specified I2C NACK position in master receiver mode.
 647:Drivers/STM32F4xx_StdPeriph_Driver/src/stm32f4xx_i2c.c ****   * @note   This function is useful in I2C Master Receiver mode when the number
 648:Drivers/STM32F4xx_StdPeriph_Driver/src/stm32f4xx_i2c.c ****   *         of data to be received is equal to 2. In this case, this function 
 649:Drivers/STM32F4xx_StdPeriph_Driver/src/stm32f4xx_i2c.c ****   *         should be called (with parameter I2C_NACKPosition_Next) before data 
 650:Drivers/STM32F4xx_StdPeriph_Driver/src/stm32f4xx_i2c.c ****   *         reception starts,as described in the 2-byte reception procedure 
 651:Drivers/STM32F4xx_StdPeriph_Driver/src/stm32f4xx_i2c.c ****   *         recommended in Reference Manual in Section: Master receiver.                
 652:Drivers/STM32F4xx_StdPeriph_Driver/src/stm32f4xx_i2c.c ****   * @param  I2Cx: where x can be 1, 2 or 3 to select the I2C peripheral.
 653:Drivers/STM32F4xx_StdPeriph_Driver/src/stm32f4xx_i2c.c ****   * @param  I2C_NACKPosition: specifies the NACK position. 
 654:Drivers/STM32F4xx_StdPeriph_Driver/src/stm32f4xx_i2c.c ****   *          This parameter can be one of the following values:
 655:Drivers/STM32F4xx_StdPeriph_Driver/src/stm32f4xx_i2c.c ****   *            @arg I2C_NACKPosition_Next: indicates that the next byte will be the last
 656:Drivers/STM32F4xx_StdPeriph_Driver/src/stm32f4xx_i2c.c ****   *                                        received byte.  
 657:Drivers/STM32F4xx_StdPeriph_Driver/src/stm32f4xx_i2c.c ****   *            @arg I2C_NACKPosition_Current: indicates that current byte is the last 
 658:Drivers/STM32F4xx_StdPeriph_Driver/src/stm32f4xx_i2c.c ****   *                                           received byte.
 659:Drivers/STM32F4xx_StdPeriph_Driver/src/stm32f4xx_i2c.c ****   *            
ARM GAS  /tmp/ccGdFbQ0.s 			page 29


 660:Drivers/STM32F4xx_StdPeriph_Driver/src/stm32f4xx_i2c.c ****   * @note    This function configures the same bit (POS) as I2C_PECPositionConfig() 
 661:Drivers/STM32F4xx_StdPeriph_Driver/src/stm32f4xx_i2c.c ****   *          but is intended to be used in I2C mode while I2C_PECPositionConfig() 
 662:Drivers/STM32F4xx_StdPeriph_Driver/src/stm32f4xx_i2c.c ****   *          is intended to used in SMBUS mode. 
 663:Drivers/STM32F4xx_StdPeriph_Driver/src/stm32f4xx_i2c.c ****   *            
 664:Drivers/STM32F4xx_StdPeriph_Driver/src/stm32f4xx_i2c.c ****   * @retval None
 665:Drivers/STM32F4xx_StdPeriph_Driver/src/stm32f4xx_i2c.c ****   */
 666:Drivers/STM32F4xx_StdPeriph_Driver/src/stm32f4xx_i2c.c **** void I2C_NACKPositionConfig(I2C_TypeDef* I2Cx, uint16_t I2C_NACKPosition)
 667:Drivers/STM32F4xx_StdPeriph_Driver/src/stm32f4xx_i2c.c **** {
 933              		.loc 1 667 1 is_stmt 1 view -0
 934              		.cfi_startproc
 935              		@ args = 0, pretend = 0, frame = 0
 936              		@ frame_needed = 0, uses_anonymous_args = 0
 937              		@ link register save eliminated.
 668:Drivers/STM32F4xx_StdPeriph_Driver/src/stm32f4xx_i2c.c ****   /* Check the parameters */
 669:Drivers/STM32F4xx_StdPeriph_Driver/src/stm32f4xx_i2c.c ****   assert_param(IS_I2C_ALL_PERIPH(I2Cx));
 938              		.loc 1 669 3 view .LVU269
 670:Drivers/STM32F4xx_StdPeriph_Driver/src/stm32f4xx_i2c.c ****   assert_param(IS_I2C_NACK_POSITION(I2C_NACKPosition));
 939              		.loc 1 670 3 view .LVU270
 671:Drivers/STM32F4xx_StdPeriph_Driver/src/stm32f4xx_i2c.c ****   
 672:Drivers/STM32F4xx_StdPeriph_Driver/src/stm32f4xx_i2c.c ****   /* Check the input parameter */
 673:Drivers/STM32F4xx_StdPeriph_Driver/src/stm32f4xx_i2c.c ****   if (I2C_NACKPosition == I2C_NACKPosition_Next)
 940              		.loc 1 673 3 view .LVU271
 941              		.loc 1 673 6 is_stmt 0 view .LVU272
 942 0000 B1F5006F 		cmp	r1, #2048
 943 0004 06D0     		beq	.L62
 674:Drivers/STM32F4xx_StdPeriph_Driver/src/stm32f4xx_i2c.c ****   {
 675:Drivers/STM32F4xx_StdPeriph_Driver/src/stm32f4xx_i2c.c ****     /* Next byte in shift register is the last received byte */
 676:Drivers/STM32F4xx_StdPeriph_Driver/src/stm32f4xx_i2c.c ****     I2Cx->CR1 |= I2C_NACKPosition_Next;
 677:Drivers/STM32F4xx_StdPeriph_Driver/src/stm32f4xx_i2c.c ****   }
 678:Drivers/STM32F4xx_StdPeriph_Driver/src/stm32f4xx_i2c.c ****   else
 679:Drivers/STM32F4xx_StdPeriph_Driver/src/stm32f4xx_i2c.c ****   {
 680:Drivers/STM32F4xx_StdPeriph_Driver/src/stm32f4xx_i2c.c ****     /* Current byte in shift register is the last received byte */
 681:Drivers/STM32F4xx_StdPeriph_Driver/src/stm32f4xx_i2c.c ****     I2Cx->CR1 &= I2C_NACKPosition_Current;
 944              		.loc 1 681 5 is_stmt 1 view .LVU273
 945              		.loc 1 681 15 is_stmt 0 view .LVU274
 946 0006 0388     		ldrh	r3, [r0]
 947 0008 9BB2     		uxth	r3, r3
 948 000a 23F40063 		bic	r3, r3, #2048
 949 000e 9BB2     		uxth	r3, r3
 950 0010 0380     		strh	r3, [r0]	@ movhi
 682:Drivers/STM32F4xx_StdPeriph_Driver/src/stm32f4xx_i2c.c ****   }
 683:Drivers/STM32F4xx_StdPeriph_Driver/src/stm32f4xx_i2c.c **** }
 951              		.loc 1 683 1 view .LVU275
 952 0012 7047     		bx	lr
 953              	.L62:
 676:Drivers/STM32F4xx_StdPeriph_Driver/src/stm32f4xx_i2c.c ****   }
 954              		.loc 1 676 5 is_stmt 1 view .LVU276
 676:Drivers/STM32F4xx_StdPeriph_Driver/src/stm32f4xx_i2c.c ****   }
 955              		.loc 1 676 15 is_stmt 0 view .LVU277
 956 0014 0388     		ldrh	r3, [r0]
 957 0016 9BB2     		uxth	r3, r3
 958 0018 43F40063 		orr	r3, r3, #2048
 959 001c 0380     		strh	r3, [r0]	@ movhi
 960 001e 7047     		bx	lr
 961              		.cfi_endproc
 962              	.LFE139:
 964              		.section	.text.I2C_SMBusAlertConfig,"ax",%progbits
ARM GAS  /tmp/ccGdFbQ0.s 			page 30


 965              		.align	1
 966              		.global	I2C_SMBusAlertConfig
 967              		.syntax unified
 968              		.thumb
 969              		.thumb_func
 971              	I2C_SMBusAlertConfig:
 972              	.LVL71:
 973              	.LFB140:
 684:Drivers/STM32F4xx_StdPeriph_Driver/src/stm32f4xx_i2c.c **** 
 685:Drivers/STM32F4xx_StdPeriph_Driver/src/stm32f4xx_i2c.c **** /**
 686:Drivers/STM32F4xx_StdPeriph_Driver/src/stm32f4xx_i2c.c ****   * @brief  Drives the SMBusAlert pin high or low for the specified I2C.
 687:Drivers/STM32F4xx_StdPeriph_Driver/src/stm32f4xx_i2c.c ****   * @param  I2Cx: where x can be 1, 2 or 3 to select the I2C peripheral.
 688:Drivers/STM32F4xx_StdPeriph_Driver/src/stm32f4xx_i2c.c ****   * @param  I2C_SMBusAlert: specifies SMBAlert pin level. 
 689:Drivers/STM32F4xx_StdPeriph_Driver/src/stm32f4xx_i2c.c ****   *          This parameter can be one of the following values:
 690:Drivers/STM32F4xx_StdPeriph_Driver/src/stm32f4xx_i2c.c ****   *            @arg I2C_SMBusAlert_Low: SMBAlert pin driven low
 691:Drivers/STM32F4xx_StdPeriph_Driver/src/stm32f4xx_i2c.c ****   *            @arg I2C_SMBusAlert_High: SMBAlert pin driven high
 692:Drivers/STM32F4xx_StdPeriph_Driver/src/stm32f4xx_i2c.c ****   * @retval None
 693:Drivers/STM32F4xx_StdPeriph_Driver/src/stm32f4xx_i2c.c ****   */
 694:Drivers/STM32F4xx_StdPeriph_Driver/src/stm32f4xx_i2c.c **** void I2C_SMBusAlertConfig(I2C_TypeDef* I2Cx, uint16_t I2C_SMBusAlert)
 695:Drivers/STM32F4xx_StdPeriph_Driver/src/stm32f4xx_i2c.c **** {
 974              		.loc 1 695 1 is_stmt 1 view -0
 975              		.cfi_startproc
 976              		@ args = 0, pretend = 0, frame = 0
 977              		@ frame_needed = 0, uses_anonymous_args = 0
 978              		@ link register save eliminated.
 696:Drivers/STM32F4xx_StdPeriph_Driver/src/stm32f4xx_i2c.c ****   /* Check the parameters */
 697:Drivers/STM32F4xx_StdPeriph_Driver/src/stm32f4xx_i2c.c ****   assert_param(IS_I2C_ALL_PERIPH(I2Cx));
 979              		.loc 1 697 3 view .LVU279
 698:Drivers/STM32F4xx_StdPeriph_Driver/src/stm32f4xx_i2c.c ****   assert_param(IS_I2C_SMBUS_ALERT(I2C_SMBusAlert));
 980              		.loc 1 698 3 view .LVU280
 699:Drivers/STM32F4xx_StdPeriph_Driver/src/stm32f4xx_i2c.c ****   if (I2C_SMBusAlert == I2C_SMBusAlert_Low)
 981              		.loc 1 699 3 view .LVU281
 982              		.loc 1 699 6 is_stmt 0 view .LVU282
 983 0000 B1F5005F 		cmp	r1, #8192
 984 0004 06D0     		beq	.L66
 700:Drivers/STM32F4xx_StdPeriph_Driver/src/stm32f4xx_i2c.c ****   {
 701:Drivers/STM32F4xx_StdPeriph_Driver/src/stm32f4xx_i2c.c ****     /* Drive the SMBusAlert pin Low */
 702:Drivers/STM32F4xx_StdPeriph_Driver/src/stm32f4xx_i2c.c ****     I2Cx->CR1 |= I2C_SMBusAlert_Low;
 703:Drivers/STM32F4xx_StdPeriph_Driver/src/stm32f4xx_i2c.c ****   }
 704:Drivers/STM32F4xx_StdPeriph_Driver/src/stm32f4xx_i2c.c ****   else
 705:Drivers/STM32F4xx_StdPeriph_Driver/src/stm32f4xx_i2c.c ****   {
 706:Drivers/STM32F4xx_StdPeriph_Driver/src/stm32f4xx_i2c.c ****     /* Drive the SMBusAlert pin High  */
 707:Drivers/STM32F4xx_StdPeriph_Driver/src/stm32f4xx_i2c.c ****     I2Cx->CR1 &= I2C_SMBusAlert_High;
 985              		.loc 1 707 5 is_stmt 1 view .LVU283
 986              		.loc 1 707 15 is_stmt 0 view .LVU284
 987 0006 0388     		ldrh	r3, [r0]
 988 0008 9BB2     		uxth	r3, r3
 989 000a 23F40053 		bic	r3, r3, #8192
 990 000e 9BB2     		uxth	r3, r3
 991 0010 0380     		strh	r3, [r0]	@ movhi
 708:Drivers/STM32F4xx_StdPeriph_Driver/src/stm32f4xx_i2c.c ****   }
 709:Drivers/STM32F4xx_StdPeriph_Driver/src/stm32f4xx_i2c.c **** }
 992              		.loc 1 709 1 view .LVU285
 993 0012 7047     		bx	lr
 994              	.L66:
 702:Drivers/STM32F4xx_StdPeriph_Driver/src/stm32f4xx_i2c.c ****   }
 995              		.loc 1 702 5 is_stmt 1 view .LVU286
ARM GAS  /tmp/ccGdFbQ0.s 			page 31


 702:Drivers/STM32F4xx_StdPeriph_Driver/src/stm32f4xx_i2c.c ****   }
 996              		.loc 1 702 15 is_stmt 0 view .LVU287
 997 0014 0388     		ldrh	r3, [r0]
 998 0016 9BB2     		uxth	r3, r3
 999 0018 43F40053 		orr	r3, r3, #8192
 1000 001c 0380     		strh	r3, [r0]	@ movhi
 1001 001e 7047     		bx	lr
 1002              		.cfi_endproc
 1003              	.LFE140:
 1005              		.section	.text.I2C_ARPCmd,"ax",%progbits
 1006              		.align	1
 1007              		.global	I2C_ARPCmd
 1008              		.syntax unified
 1009              		.thumb
 1010              		.thumb_func
 1012              	I2C_ARPCmd:
 1013              	.LVL72:
 1014              	.LFB141:
 710:Drivers/STM32F4xx_StdPeriph_Driver/src/stm32f4xx_i2c.c **** 
 711:Drivers/STM32F4xx_StdPeriph_Driver/src/stm32f4xx_i2c.c **** /**
 712:Drivers/STM32F4xx_StdPeriph_Driver/src/stm32f4xx_i2c.c ****   * @brief  Enables or disables the specified I2C ARP.
 713:Drivers/STM32F4xx_StdPeriph_Driver/src/stm32f4xx_i2c.c ****   * @param  I2Cx: where x can be 1, 2 or 3 to select the I2C peripheral.
 714:Drivers/STM32F4xx_StdPeriph_Driver/src/stm32f4xx_i2c.c ****   * @param  NewState: new state of the I2Cx ARP. 
 715:Drivers/STM32F4xx_StdPeriph_Driver/src/stm32f4xx_i2c.c ****   *          This parameter can be: ENABLE or DISABLE.
 716:Drivers/STM32F4xx_StdPeriph_Driver/src/stm32f4xx_i2c.c ****   * @retval None
 717:Drivers/STM32F4xx_StdPeriph_Driver/src/stm32f4xx_i2c.c ****   */
 718:Drivers/STM32F4xx_StdPeriph_Driver/src/stm32f4xx_i2c.c **** void I2C_ARPCmd(I2C_TypeDef* I2Cx, FunctionalState NewState)
 719:Drivers/STM32F4xx_StdPeriph_Driver/src/stm32f4xx_i2c.c **** {
 1015              		.loc 1 719 1 is_stmt 1 view -0
 1016              		.cfi_startproc
 1017              		@ args = 0, pretend = 0, frame = 0
 1018              		@ frame_needed = 0, uses_anonymous_args = 0
 1019              		@ link register save eliminated.
 720:Drivers/STM32F4xx_StdPeriph_Driver/src/stm32f4xx_i2c.c ****   /* Check the parameters */
 721:Drivers/STM32F4xx_StdPeriph_Driver/src/stm32f4xx_i2c.c ****   assert_param(IS_I2C_ALL_PERIPH(I2Cx));
 1020              		.loc 1 721 3 view .LVU289
 722:Drivers/STM32F4xx_StdPeriph_Driver/src/stm32f4xx_i2c.c ****   assert_param(IS_FUNCTIONAL_STATE(NewState));
 1021              		.loc 1 722 3 view .LVU290
 723:Drivers/STM32F4xx_StdPeriph_Driver/src/stm32f4xx_i2c.c ****   if (NewState != DISABLE)
 1022              		.loc 1 723 3 view .LVU291
 1023              		.loc 1 723 6 is_stmt 0 view .LVU292
 1024 0000 29B1     		cbz	r1, .L68
 724:Drivers/STM32F4xx_StdPeriph_Driver/src/stm32f4xx_i2c.c ****   {
 725:Drivers/STM32F4xx_StdPeriph_Driver/src/stm32f4xx_i2c.c ****     /* Enable the selected I2C ARP */
 726:Drivers/STM32F4xx_StdPeriph_Driver/src/stm32f4xx_i2c.c ****     I2Cx->CR1 |= I2C_CR1_ENARP;
 1025              		.loc 1 726 5 is_stmt 1 view .LVU293
 1026              		.loc 1 726 15 is_stmt 0 view .LVU294
 1027 0002 0388     		ldrh	r3, [r0]
 1028 0004 9BB2     		uxth	r3, r3
 1029 0006 43F01003 		orr	r3, r3, #16
 1030 000a 0380     		strh	r3, [r0]	@ movhi
 1031 000c 7047     		bx	lr
 1032              	.L68:
 727:Drivers/STM32F4xx_StdPeriph_Driver/src/stm32f4xx_i2c.c ****   }
 728:Drivers/STM32F4xx_StdPeriph_Driver/src/stm32f4xx_i2c.c ****   else
 729:Drivers/STM32F4xx_StdPeriph_Driver/src/stm32f4xx_i2c.c ****   {
 730:Drivers/STM32F4xx_StdPeriph_Driver/src/stm32f4xx_i2c.c ****     /* Disable the selected I2C ARP */
ARM GAS  /tmp/ccGdFbQ0.s 			page 32


 731:Drivers/STM32F4xx_StdPeriph_Driver/src/stm32f4xx_i2c.c ****     I2Cx->CR1 &= (uint16_t)~((uint16_t)I2C_CR1_ENARP);
 1033              		.loc 1 731 5 is_stmt 1 view .LVU295
 1034              		.loc 1 731 15 is_stmt 0 view .LVU296
 1035 000e 0388     		ldrh	r3, [r0]
 1036 0010 9BB2     		uxth	r3, r3
 1037 0012 23F01003 		bic	r3, r3, #16
 1038 0016 9BB2     		uxth	r3, r3
 1039 0018 0380     		strh	r3, [r0]	@ movhi
 732:Drivers/STM32F4xx_StdPeriph_Driver/src/stm32f4xx_i2c.c ****   }
 733:Drivers/STM32F4xx_StdPeriph_Driver/src/stm32f4xx_i2c.c **** }
 1040              		.loc 1 733 1 view .LVU297
 1041 001a 7047     		bx	lr
 1042              		.cfi_endproc
 1043              	.LFE141:
 1045              		.section	.text.I2C_SendData,"ax",%progbits
 1046              		.align	1
 1047              		.global	I2C_SendData
 1048              		.syntax unified
 1049              		.thumb
 1050              		.thumb_func
 1052              	I2C_SendData:
 1053              	.LVL73:
 1054              	.LFB142:
 734:Drivers/STM32F4xx_StdPeriph_Driver/src/stm32f4xx_i2c.c **** /**
 735:Drivers/STM32F4xx_StdPeriph_Driver/src/stm32f4xx_i2c.c ****   * @}
 736:Drivers/STM32F4xx_StdPeriph_Driver/src/stm32f4xx_i2c.c ****   */
 737:Drivers/STM32F4xx_StdPeriph_Driver/src/stm32f4xx_i2c.c **** 
 738:Drivers/STM32F4xx_StdPeriph_Driver/src/stm32f4xx_i2c.c **** /** @defgroup I2C_Group2 Data transfers functions
 739:Drivers/STM32F4xx_StdPeriph_Driver/src/stm32f4xx_i2c.c ****  *  @brief   Data transfers functions 
 740:Drivers/STM32F4xx_StdPeriph_Driver/src/stm32f4xx_i2c.c ****  *
 741:Drivers/STM32F4xx_StdPeriph_Driver/src/stm32f4xx_i2c.c **** @verbatim   
 742:Drivers/STM32F4xx_StdPeriph_Driver/src/stm32f4xx_i2c.c ****  ===============================================================================
 743:Drivers/STM32F4xx_StdPeriph_Driver/src/stm32f4xx_i2c.c ****                   ##### Data transfers functions #####
 744:Drivers/STM32F4xx_StdPeriph_Driver/src/stm32f4xx_i2c.c ****  ===============================================================================  
 745:Drivers/STM32F4xx_StdPeriph_Driver/src/stm32f4xx_i2c.c **** 
 746:Drivers/STM32F4xx_StdPeriph_Driver/src/stm32f4xx_i2c.c **** @endverbatim
 747:Drivers/STM32F4xx_StdPeriph_Driver/src/stm32f4xx_i2c.c ****   * @{
 748:Drivers/STM32F4xx_StdPeriph_Driver/src/stm32f4xx_i2c.c ****   */
 749:Drivers/STM32F4xx_StdPeriph_Driver/src/stm32f4xx_i2c.c **** 
 750:Drivers/STM32F4xx_StdPeriph_Driver/src/stm32f4xx_i2c.c **** /**
 751:Drivers/STM32F4xx_StdPeriph_Driver/src/stm32f4xx_i2c.c ****   * @brief  Sends a data byte through the I2Cx peripheral.
 752:Drivers/STM32F4xx_StdPeriph_Driver/src/stm32f4xx_i2c.c ****   * @param  I2Cx: where x can be 1, 2 or 3 to select the I2C peripheral.
 753:Drivers/STM32F4xx_StdPeriph_Driver/src/stm32f4xx_i2c.c ****   * @param  Data: Byte to be transmitted..
 754:Drivers/STM32F4xx_StdPeriph_Driver/src/stm32f4xx_i2c.c ****   * @retval None
 755:Drivers/STM32F4xx_StdPeriph_Driver/src/stm32f4xx_i2c.c ****   */
 756:Drivers/STM32F4xx_StdPeriph_Driver/src/stm32f4xx_i2c.c **** void I2C_SendData(I2C_TypeDef* I2Cx, uint8_t Data)
 757:Drivers/STM32F4xx_StdPeriph_Driver/src/stm32f4xx_i2c.c **** {
 1055              		.loc 1 757 1 is_stmt 1 view -0
 1056              		.cfi_startproc
 1057              		@ args = 0, pretend = 0, frame = 0
 1058              		@ frame_needed = 0, uses_anonymous_args = 0
 1059              		@ link register save eliminated.
 758:Drivers/STM32F4xx_StdPeriph_Driver/src/stm32f4xx_i2c.c ****   /* Check the parameters */
 759:Drivers/STM32F4xx_StdPeriph_Driver/src/stm32f4xx_i2c.c ****   assert_param(IS_I2C_ALL_PERIPH(I2Cx));
 1060              		.loc 1 759 3 view .LVU299
 760:Drivers/STM32F4xx_StdPeriph_Driver/src/stm32f4xx_i2c.c ****   /* Write in the DR register the data to be sent */
 761:Drivers/STM32F4xx_StdPeriph_Driver/src/stm32f4xx_i2c.c ****   I2Cx->DR = Data;
ARM GAS  /tmp/ccGdFbQ0.s 			page 33


 1061              		.loc 1 761 3 view .LVU300
 1062              		.loc 1 761 12 is_stmt 0 view .LVU301
 1063 0000 0182     		strh	r1, [r0, #16]	@ movhi
 762:Drivers/STM32F4xx_StdPeriph_Driver/src/stm32f4xx_i2c.c **** }
 1064              		.loc 1 762 1 view .LVU302
 1065 0002 7047     		bx	lr
 1066              		.cfi_endproc
 1067              	.LFE142:
 1069              		.section	.text.I2C_ReceiveData,"ax",%progbits
 1070              		.align	1
 1071              		.global	I2C_ReceiveData
 1072              		.syntax unified
 1073              		.thumb
 1074              		.thumb_func
 1076              	I2C_ReceiveData:
 1077              	.LVL74:
 1078              	.LFB143:
 763:Drivers/STM32F4xx_StdPeriph_Driver/src/stm32f4xx_i2c.c **** 
 764:Drivers/STM32F4xx_StdPeriph_Driver/src/stm32f4xx_i2c.c **** /**
 765:Drivers/STM32F4xx_StdPeriph_Driver/src/stm32f4xx_i2c.c ****   * @brief  Returns the most recent received data by the I2Cx peripheral.
 766:Drivers/STM32F4xx_StdPeriph_Driver/src/stm32f4xx_i2c.c ****   * @param  I2Cx: where x can be 1, 2 or 3 to select the I2C peripheral.
 767:Drivers/STM32F4xx_StdPeriph_Driver/src/stm32f4xx_i2c.c ****   * @retval The value of the received data.
 768:Drivers/STM32F4xx_StdPeriph_Driver/src/stm32f4xx_i2c.c ****   */
 769:Drivers/STM32F4xx_StdPeriph_Driver/src/stm32f4xx_i2c.c **** uint8_t I2C_ReceiveData(I2C_TypeDef* I2Cx)
 770:Drivers/STM32F4xx_StdPeriph_Driver/src/stm32f4xx_i2c.c **** {
 1079              		.loc 1 770 1 is_stmt 1 view -0
 1080              		.cfi_startproc
 1081              		@ args = 0, pretend = 0, frame = 0
 1082              		@ frame_needed = 0, uses_anonymous_args = 0
 1083              		@ link register save eliminated.
 771:Drivers/STM32F4xx_StdPeriph_Driver/src/stm32f4xx_i2c.c ****   /* Check the parameters */
 772:Drivers/STM32F4xx_StdPeriph_Driver/src/stm32f4xx_i2c.c ****   assert_param(IS_I2C_ALL_PERIPH(I2Cx));
 1084              		.loc 1 772 3 view .LVU304
 773:Drivers/STM32F4xx_StdPeriph_Driver/src/stm32f4xx_i2c.c ****   /* Return the data in the DR register */
 774:Drivers/STM32F4xx_StdPeriph_Driver/src/stm32f4xx_i2c.c ****   return (uint8_t)I2Cx->DR;
 1085              		.loc 1 774 3 view .LVU305
 1086              		.loc 1 774 23 is_stmt 0 view .LVU306
 1087 0000 008A     		ldrh	r0, [r0, #16]
 1088              	.LVL75:
 775:Drivers/STM32F4xx_StdPeriph_Driver/src/stm32f4xx_i2c.c **** }
 1089              		.loc 1 775 1 view .LVU307
 1090 0002 C0B2     		uxtb	r0, r0
 1091 0004 7047     		bx	lr
 1092              		.cfi_endproc
 1093              	.LFE143:
 1095              		.section	.text.I2C_TransmitPEC,"ax",%progbits
 1096              		.align	1
 1097              		.global	I2C_TransmitPEC
 1098              		.syntax unified
 1099              		.thumb
 1100              		.thumb_func
 1102              	I2C_TransmitPEC:
 1103              	.LVL76:
 1104              	.LFB144:
 776:Drivers/STM32F4xx_StdPeriph_Driver/src/stm32f4xx_i2c.c **** 
 777:Drivers/STM32F4xx_StdPeriph_Driver/src/stm32f4xx_i2c.c **** /**
 778:Drivers/STM32F4xx_StdPeriph_Driver/src/stm32f4xx_i2c.c ****   * @}
ARM GAS  /tmp/ccGdFbQ0.s 			page 34


 779:Drivers/STM32F4xx_StdPeriph_Driver/src/stm32f4xx_i2c.c ****   */
 780:Drivers/STM32F4xx_StdPeriph_Driver/src/stm32f4xx_i2c.c **** 
 781:Drivers/STM32F4xx_StdPeriph_Driver/src/stm32f4xx_i2c.c **** /** @defgroup I2C_Group3 PEC management functions
 782:Drivers/STM32F4xx_StdPeriph_Driver/src/stm32f4xx_i2c.c ****  *  @brief   PEC management functions 
 783:Drivers/STM32F4xx_StdPeriph_Driver/src/stm32f4xx_i2c.c ****  *
 784:Drivers/STM32F4xx_StdPeriph_Driver/src/stm32f4xx_i2c.c **** @verbatim   
 785:Drivers/STM32F4xx_StdPeriph_Driver/src/stm32f4xx_i2c.c ****  ===============================================================================
 786:Drivers/STM32F4xx_StdPeriph_Driver/src/stm32f4xx_i2c.c ****                   ##### PEC management functions #####
 787:Drivers/STM32F4xx_StdPeriph_Driver/src/stm32f4xx_i2c.c ****  ===============================================================================  
 788:Drivers/STM32F4xx_StdPeriph_Driver/src/stm32f4xx_i2c.c **** 
 789:Drivers/STM32F4xx_StdPeriph_Driver/src/stm32f4xx_i2c.c **** @endverbatim
 790:Drivers/STM32F4xx_StdPeriph_Driver/src/stm32f4xx_i2c.c ****   * @{
 791:Drivers/STM32F4xx_StdPeriph_Driver/src/stm32f4xx_i2c.c ****   */
 792:Drivers/STM32F4xx_StdPeriph_Driver/src/stm32f4xx_i2c.c **** 
 793:Drivers/STM32F4xx_StdPeriph_Driver/src/stm32f4xx_i2c.c **** /**
 794:Drivers/STM32F4xx_StdPeriph_Driver/src/stm32f4xx_i2c.c ****   * @brief  Enables or disables the specified I2C PEC transfer.
 795:Drivers/STM32F4xx_StdPeriph_Driver/src/stm32f4xx_i2c.c ****   * @param  I2Cx: where x can be 1, 2 or 3 to select the I2C peripheral.
 796:Drivers/STM32F4xx_StdPeriph_Driver/src/stm32f4xx_i2c.c ****   * @param  NewState: new state of the I2C PEC transmission.
 797:Drivers/STM32F4xx_StdPeriph_Driver/src/stm32f4xx_i2c.c ****   *          This parameter can be: ENABLE or DISABLE.
 798:Drivers/STM32F4xx_StdPeriph_Driver/src/stm32f4xx_i2c.c ****   * @retval None
 799:Drivers/STM32F4xx_StdPeriph_Driver/src/stm32f4xx_i2c.c ****   */
 800:Drivers/STM32F4xx_StdPeriph_Driver/src/stm32f4xx_i2c.c **** void I2C_TransmitPEC(I2C_TypeDef* I2Cx, FunctionalState NewState)
 801:Drivers/STM32F4xx_StdPeriph_Driver/src/stm32f4xx_i2c.c **** {
 1105              		.loc 1 801 1 is_stmt 1 view -0
 1106              		.cfi_startproc
 1107              		@ args = 0, pretend = 0, frame = 0
 1108              		@ frame_needed = 0, uses_anonymous_args = 0
 1109              		@ link register save eliminated.
 802:Drivers/STM32F4xx_StdPeriph_Driver/src/stm32f4xx_i2c.c ****   /* Check the parameters */
 803:Drivers/STM32F4xx_StdPeriph_Driver/src/stm32f4xx_i2c.c ****   assert_param(IS_I2C_ALL_PERIPH(I2Cx));
 1110              		.loc 1 803 3 view .LVU309
 804:Drivers/STM32F4xx_StdPeriph_Driver/src/stm32f4xx_i2c.c ****   assert_param(IS_FUNCTIONAL_STATE(NewState));
 1111              		.loc 1 804 3 view .LVU310
 805:Drivers/STM32F4xx_StdPeriph_Driver/src/stm32f4xx_i2c.c ****   if (NewState != DISABLE)
 1112              		.loc 1 805 3 view .LVU311
 1113              		.loc 1 805 6 is_stmt 0 view .LVU312
 1114 0000 29B1     		cbz	r1, .L73
 806:Drivers/STM32F4xx_StdPeriph_Driver/src/stm32f4xx_i2c.c ****   {
 807:Drivers/STM32F4xx_StdPeriph_Driver/src/stm32f4xx_i2c.c ****     /* Enable the selected I2C PEC transmission */
 808:Drivers/STM32F4xx_StdPeriph_Driver/src/stm32f4xx_i2c.c ****     I2Cx->CR1 |= I2C_CR1_PEC;
 1115              		.loc 1 808 5 is_stmt 1 view .LVU313
 1116              		.loc 1 808 15 is_stmt 0 view .LVU314
 1117 0002 0388     		ldrh	r3, [r0]
 1118 0004 9BB2     		uxth	r3, r3
 1119 0006 43F48053 		orr	r3, r3, #4096
 1120 000a 0380     		strh	r3, [r0]	@ movhi
 1121 000c 7047     		bx	lr
 1122              	.L73:
 809:Drivers/STM32F4xx_StdPeriph_Driver/src/stm32f4xx_i2c.c ****   }
 810:Drivers/STM32F4xx_StdPeriph_Driver/src/stm32f4xx_i2c.c ****   else
 811:Drivers/STM32F4xx_StdPeriph_Driver/src/stm32f4xx_i2c.c ****   {
 812:Drivers/STM32F4xx_StdPeriph_Driver/src/stm32f4xx_i2c.c ****     /* Disable the selected I2C PEC transmission */
 813:Drivers/STM32F4xx_StdPeriph_Driver/src/stm32f4xx_i2c.c ****     I2Cx->CR1 &= (uint16_t)~((uint16_t)I2C_CR1_PEC);
 1123              		.loc 1 813 5 is_stmt 1 view .LVU315
 1124              		.loc 1 813 15 is_stmt 0 view .LVU316
 1125 000e 0388     		ldrh	r3, [r0]
 1126 0010 9BB2     		uxth	r3, r3
ARM GAS  /tmp/ccGdFbQ0.s 			page 35


 1127 0012 23F48053 		bic	r3, r3, #4096
 1128 0016 9BB2     		uxth	r3, r3
 1129 0018 0380     		strh	r3, [r0]	@ movhi
 814:Drivers/STM32F4xx_StdPeriph_Driver/src/stm32f4xx_i2c.c ****   }
 815:Drivers/STM32F4xx_StdPeriph_Driver/src/stm32f4xx_i2c.c **** }
 1130              		.loc 1 815 1 view .LVU317
 1131 001a 7047     		bx	lr
 1132              		.cfi_endproc
 1133              	.LFE144:
 1135              		.section	.text.I2C_PECPositionConfig,"ax",%progbits
 1136              		.align	1
 1137              		.global	I2C_PECPositionConfig
 1138              		.syntax unified
 1139              		.thumb
 1140              		.thumb_func
 1142              	I2C_PECPositionConfig:
 1143              	.LVL77:
 1144              	.LFB145:
 816:Drivers/STM32F4xx_StdPeriph_Driver/src/stm32f4xx_i2c.c **** 
 817:Drivers/STM32F4xx_StdPeriph_Driver/src/stm32f4xx_i2c.c **** /**
 818:Drivers/STM32F4xx_StdPeriph_Driver/src/stm32f4xx_i2c.c ****   * @brief  Selects the specified I2C PEC position.
 819:Drivers/STM32F4xx_StdPeriph_Driver/src/stm32f4xx_i2c.c ****   * @param  I2Cx: where x can be 1, 2 or 3 to select the I2C peripheral.
 820:Drivers/STM32F4xx_StdPeriph_Driver/src/stm32f4xx_i2c.c ****   * @param  I2C_PECPosition: specifies the PEC position. 
 821:Drivers/STM32F4xx_StdPeriph_Driver/src/stm32f4xx_i2c.c ****   *          This parameter can be one of the following values:
 822:Drivers/STM32F4xx_StdPeriph_Driver/src/stm32f4xx_i2c.c ****   *            @arg I2C_PECPosition_Next: indicates that the next byte is PEC
 823:Drivers/STM32F4xx_StdPeriph_Driver/src/stm32f4xx_i2c.c ****   *            @arg I2C_PECPosition_Current: indicates that current byte is PEC
 824:Drivers/STM32F4xx_StdPeriph_Driver/src/stm32f4xx_i2c.c ****   *       
 825:Drivers/STM32F4xx_StdPeriph_Driver/src/stm32f4xx_i2c.c ****   * @note    This function configures the same bit (POS) as I2C_NACKPositionConfig()
 826:Drivers/STM32F4xx_StdPeriph_Driver/src/stm32f4xx_i2c.c ****   *          but is intended to be used in SMBUS mode while I2C_NACKPositionConfig() 
 827:Drivers/STM32F4xx_StdPeriph_Driver/src/stm32f4xx_i2c.c ****   *          is intended to used in I2C mode.
 828:Drivers/STM32F4xx_StdPeriph_Driver/src/stm32f4xx_i2c.c ****   *                
 829:Drivers/STM32F4xx_StdPeriph_Driver/src/stm32f4xx_i2c.c ****   * @retval None
 830:Drivers/STM32F4xx_StdPeriph_Driver/src/stm32f4xx_i2c.c ****   */
 831:Drivers/STM32F4xx_StdPeriph_Driver/src/stm32f4xx_i2c.c **** void I2C_PECPositionConfig(I2C_TypeDef* I2Cx, uint16_t I2C_PECPosition)
 832:Drivers/STM32F4xx_StdPeriph_Driver/src/stm32f4xx_i2c.c **** {
 1145              		.loc 1 832 1 is_stmt 1 view -0
 1146              		.cfi_startproc
 1147              		@ args = 0, pretend = 0, frame = 0
 1148              		@ frame_needed = 0, uses_anonymous_args = 0
 1149              		@ link register save eliminated.
 833:Drivers/STM32F4xx_StdPeriph_Driver/src/stm32f4xx_i2c.c ****   /* Check the parameters */
 834:Drivers/STM32F4xx_StdPeriph_Driver/src/stm32f4xx_i2c.c ****   assert_param(IS_I2C_ALL_PERIPH(I2Cx));
 1150              		.loc 1 834 3 view .LVU319
 835:Drivers/STM32F4xx_StdPeriph_Driver/src/stm32f4xx_i2c.c ****   assert_param(IS_I2C_PEC_POSITION(I2C_PECPosition));
 1151              		.loc 1 835 3 view .LVU320
 836:Drivers/STM32F4xx_StdPeriph_Driver/src/stm32f4xx_i2c.c ****   if (I2C_PECPosition == I2C_PECPosition_Next)
 1152              		.loc 1 836 3 view .LVU321
 1153              		.loc 1 836 6 is_stmt 0 view .LVU322
 1154 0000 B1F5006F 		cmp	r1, #2048
 1155 0004 06D0     		beq	.L78
 837:Drivers/STM32F4xx_StdPeriph_Driver/src/stm32f4xx_i2c.c ****   {
 838:Drivers/STM32F4xx_StdPeriph_Driver/src/stm32f4xx_i2c.c ****     /* Next byte in shift register is PEC */
 839:Drivers/STM32F4xx_StdPeriph_Driver/src/stm32f4xx_i2c.c ****     I2Cx->CR1 |= I2C_PECPosition_Next;
 840:Drivers/STM32F4xx_StdPeriph_Driver/src/stm32f4xx_i2c.c ****   }
 841:Drivers/STM32F4xx_StdPeriph_Driver/src/stm32f4xx_i2c.c ****   else
 842:Drivers/STM32F4xx_StdPeriph_Driver/src/stm32f4xx_i2c.c ****   {
 843:Drivers/STM32F4xx_StdPeriph_Driver/src/stm32f4xx_i2c.c ****     /* Current byte in shift register is PEC */
ARM GAS  /tmp/ccGdFbQ0.s 			page 36


 844:Drivers/STM32F4xx_StdPeriph_Driver/src/stm32f4xx_i2c.c ****     I2Cx->CR1 &= I2C_PECPosition_Current;
 1156              		.loc 1 844 5 is_stmt 1 view .LVU323
 1157              		.loc 1 844 15 is_stmt 0 view .LVU324
 1158 0006 0388     		ldrh	r3, [r0]
 1159 0008 9BB2     		uxth	r3, r3
 1160 000a 23F40063 		bic	r3, r3, #2048
 1161 000e 9BB2     		uxth	r3, r3
 1162 0010 0380     		strh	r3, [r0]	@ movhi
 845:Drivers/STM32F4xx_StdPeriph_Driver/src/stm32f4xx_i2c.c ****   }
 846:Drivers/STM32F4xx_StdPeriph_Driver/src/stm32f4xx_i2c.c **** }
 1163              		.loc 1 846 1 view .LVU325
 1164 0012 7047     		bx	lr
 1165              	.L78:
 839:Drivers/STM32F4xx_StdPeriph_Driver/src/stm32f4xx_i2c.c ****   }
 1166              		.loc 1 839 5 is_stmt 1 view .LVU326
 839:Drivers/STM32F4xx_StdPeriph_Driver/src/stm32f4xx_i2c.c ****   }
 1167              		.loc 1 839 15 is_stmt 0 view .LVU327
 1168 0014 0388     		ldrh	r3, [r0]
 1169 0016 9BB2     		uxth	r3, r3
 1170 0018 43F40063 		orr	r3, r3, #2048
 1171 001c 0380     		strh	r3, [r0]	@ movhi
 1172 001e 7047     		bx	lr
 1173              		.cfi_endproc
 1174              	.LFE145:
 1176              		.section	.text.I2C_CalculatePEC,"ax",%progbits
 1177              		.align	1
 1178              		.global	I2C_CalculatePEC
 1179              		.syntax unified
 1180              		.thumb
 1181              		.thumb_func
 1183              	I2C_CalculatePEC:
 1184              	.LVL78:
 1185              	.LFB146:
 847:Drivers/STM32F4xx_StdPeriph_Driver/src/stm32f4xx_i2c.c **** 
 848:Drivers/STM32F4xx_StdPeriph_Driver/src/stm32f4xx_i2c.c **** /**
 849:Drivers/STM32F4xx_StdPeriph_Driver/src/stm32f4xx_i2c.c ****   * @brief  Enables or disables the PEC value calculation of the transferred bytes.
 850:Drivers/STM32F4xx_StdPeriph_Driver/src/stm32f4xx_i2c.c ****   * @param  I2Cx: where x can be 1, 2 or 3 to select the I2C peripheral.
 851:Drivers/STM32F4xx_StdPeriph_Driver/src/stm32f4xx_i2c.c ****   * @param  NewState: new state of the I2Cx PEC value calculation.
 852:Drivers/STM32F4xx_StdPeriph_Driver/src/stm32f4xx_i2c.c ****   *          This parameter can be: ENABLE or DISABLE.
 853:Drivers/STM32F4xx_StdPeriph_Driver/src/stm32f4xx_i2c.c ****   * @retval None
 854:Drivers/STM32F4xx_StdPeriph_Driver/src/stm32f4xx_i2c.c ****   */
 855:Drivers/STM32F4xx_StdPeriph_Driver/src/stm32f4xx_i2c.c **** void I2C_CalculatePEC(I2C_TypeDef* I2Cx, FunctionalState NewState)
 856:Drivers/STM32F4xx_StdPeriph_Driver/src/stm32f4xx_i2c.c **** {
 1186              		.loc 1 856 1 is_stmt 1 view -0
 1187              		.cfi_startproc
 1188              		@ args = 0, pretend = 0, frame = 0
 1189              		@ frame_needed = 0, uses_anonymous_args = 0
 1190              		@ link register save eliminated.
 857:Drivers/STM32F4xx_StdPeriph_Driver/src/stm32f4xx_i2c.c ****   /* Check the parameters */
 858:Drivers/STM32F4xx_StdPeriph_Driver/src/stm32f4xx_i2c.c ****   assert_param(IS_I2C_ALL_PERIPH(I2Cx));
 1191              		.loc 1 858 3 view .LVU329
 859:Drivers/STM32F4xx_StdPeriph_Driver/src/stm32f4xx_i2c.c ****   assert_param(IS_FUNCTIONAL_STATE(NewState));
 1192              		.loc 1 859 3 view .LVU330
 860:Drivers/STM32F4xx_StdPeriph_Driver/src/stm32f4xx_i2c.c ****   if (NewState != DISABLE)
 1193              		.loc 1 860 3 view .LVU331
 1194              		.loc 1 860 6 is_stmt 0 view .LVU332
 1195 0000 29B1     		cbz	r1, .L80
ARM GAS  /tmp/ccGdFbQ0.s 			page 37


 861:Drivers/STM32F4xx_StdPeriph_Driver/src/stm32f4xx_i2c.c ****   {
 862:Drivers/STM32F4xx_StdPeriph_Driver/src/stm32f4xx_i2c.c ****     /* Enable the selected I2C PEC calculation */
 863:Drivers/STM32F4xx_StdPeriph_Driver/src/stm32f4xx_i2c.c ****     I2Cx->CR1 |= I2C_CR1_ENPEC;
 1196              		.loc 1 863 5 is_stmt 1 view .LVU333
 1197              		.loc 1 863 15 is_stmt 0 view .LVU334
 1198 0002 0388     		ldrh	r3, [r0]
 1199 0004 9BB2     		uxth	r3, r3
 1200 0006 43F02003 		orr	r3, r3, #32
 1201 000a 0380     		strh	r3, [r0]	@ movhi
 1202 000c 7047     		bx	lr
 1203              	.L80:
 864:Drivers/STM32F4xx_StdPeriph_Driver/src/stm32f4xx_i2c.c ****   }
 865:Drivers/STM32F4xx_StdPeriph_Driver/src/stm32f4xx_i2c.c ****   else
 866:Drivers/STM32F4xx_StdPeriph_Driver/src/stm32f4xx_i2c.c ****   {
 867:Drivers/STM32F4xx_StdPeriph_Driver/src/stm32f4xx_i2c.c ****     /* Disable the selected I2C PEC calculation */
 868:Drivers/STM32F4xx_StdPeriph_Driver/src/stm32f4xx_i2c.c ****     I2Cx->CR1 &= (uint16_t)~((uint16_t)I2C_CR1_ENPEC);
 1204              		.loc 1 868 5 is_stmt 1 view .LVU335
 1205              		.loc 1 868 15 is_stmt 0 view .LVU336
 1206 000e 0388     		ldrh	r3, [r0]
 1207 0010 9BB2     		uxth	r3, r3
 1208 0012 23F02003 		bic	r3, r3, #32
 1209 0016 9BB2     		uxth	r3, r3
 1210 0018 0380     		strh	r3, [r0]	@ movhi
 869:Drivers/STM32F4xx_StdPeriph_Driver/src/stm32f4xx_i2c.c ****   }
 870:Drivers/STM32F4xx_StdPeriph_Driver/src/stm32f4xx_i2c.c **** }
 1211              		.loc 1 870 1 view .LVU337
 1212 001a 7047     		bx	lr
 1213              		.cfi_endproc
 1214              	.LFE146:
 1216              		.section	.text.I2C_GetPEC,"ax",%progbits
 1217              		.align	1
 1218              		.global	I2C_GetPEC
 1219              		.syntax unified
 1220              		.thumb
 1221              		.thumb_func
 1223              	I2C_GetPEC:
 1224              	.LVL79:
 1225              	.LFB147:
 871:Drivers/STM32F4xx_StdPeriph_Driver/src/stm32f4xx_i2c.c **** 
 872:Drivers/STM32F4xx_StdPeriph_Driver/src/stm32f4xx_i2c.c **** /**
 873:Drivers/STM32F4xx_StdPeriph_Driver/src/stm32f4xx_i2c.c ****   * @brief  Returns the PEC value for the specified I2C.
 874:Drivers/STM32F4xx_StdPeriph_Driver/src/stm32f4xx_i2c.c ****   * @param  I2Cx: where x can be 1, 2 or 3 to select the I2C peripheral.
 875:Drivers/STM32F4xx_StdPeriph_Driver/src/stm32f4xx_i2c.c ****   * @retval The PEC value.
 876:Drivers/STM32F4xx_StdPeriph_Driver/src/stm32f4xx_i2c.c ****   */
 877:Drivers/STM32F4xx_StdPeriph_Driver/src/stm32f4xx_i2c.c **** uint8_t I2C_GetPEC(I2C_TypeDef* I2Cx)
 878:Drivers/STM32F4xx_StdPeriph_Driver/src/stm32f4xx_i2c.c **** {
 1226              		.loc 1 878 1 is_stmt 1 view -0
 1227              		.cfi_startproc
 1228              		@ args = 0, pretend = 0, frame = 0
 1229              		@ frame_needed = 0, uses_anonymous_args = 0
 1230              		@ link register save eliminated.
 879:Drivers/STM32F4xx_StdPeriph_Driver/src/stm32f4xx_i2c.c ****   /* Check the parameters */
 880:Drivers/STM32F4xx_StdPeriph_Driver/src/stm32f4xx_i2c.c ****   assert_param(IS_I2C_ALL_PERIPH(I2Cx));
 1231              		.loc 1 880 3 view .LVU339
 881:Drivers/STM32F4xx_StdPeriph_Driver/src/stm32f4xx_i2c.c ****   /* Return the selected I2C PEC value */
 882:Drivers/STM32F4xx_StdPeriph_Driver/src/stm32f4xx_i2c.c ****   return ((I2Cx->SR2) >> 8);
 1232              		.loc 1 882 3 view .LVU340
ARM GAS  /tmp/ccGdFbQ0.s 			page 38


 1233              		.loc 1 882 16 is_stmt 0 view .LVU341
 1234 0000 008B     		ldrh	r0, [r0, #24]
 1235              	.LVL80:
 883:Drivers/STM32F4xx_StdPeriph_Driver/src/stm32f4xx_i2c.c **** }
 1236              		.loc 1 883 1 view .LVU342
 1237 0002 C0F30720 		ubfx	r0, r0, #8, #8
 1238 0006 7047     		bx	lr
 1239              		.cfi_endproc
 1240              	.LFE147:
 1242              		.section	.text.I2C_DMACmd,"ax",%progbits
 1243              		.align	1
 1244              		.global	I2C_DMACmd
 1245              		.syntax unified
 1246              		.thumb
 1247              		.thumb_func
 1249              	I2C_DMACmd:
 1250              	.LVL81:
 1251              	.LFB148:
 884:Drivers/STM32F4xx_StdPeriph_Driver/src/stm32f4xx_i2c.c **** 
 885:Drivers/STM32F4xx_StdPeriph_Driver/src/stm32f4xx_i2c.c **** /**
 886:Drivers/STM32F4xx_StdPeriph_Driver/src/stm32f4xx_i2c.c ****   * @}
 887:Drivers/STM32F4xx_StdPeriph_Driver/src/stm32f4xx_i2c.c ****   */
 888:Drivers/STM32F4xx_StdPeriph_Driver/src/stm32f4xx_i2c.c **** 
 889:Drivers/STM32F4xx_StdPeriph_Driver/src/stm32f4xx_i2c.c **** /** @defgroup I2C_Group4 DMA transfers management functions
 890:Drivers/STM32F4xx_StdPeriph_Driver/src/stm32f4xx_i2c.c ****  *  @brief   DMA transfers management functions 
 891:Drivers/STM32F4xx_StdPeriph_Driver/src/stm32f4xx_i2c.c ****  *
 892:Drivers/STM32F4xx_StdPeriph_Driver/src/stm32f4xx_i2c.c **** @verbatim   
 893:Drivers/STM32F4xx_StdPeriph_Driver/src/stm32f4xx_i2c.c ****  ===============================================================================
 894:Drivers/STM32F4xx_StdPeriph_Driver/src/stm32f4xx_i2c.c ****                 ##### DMA transfers management functions #####
 895:Drivers/STM32F4xx_StdPeriph_Driver/src/stm32f4xx_i2c.c ****  ===============================================================================  
 896:Drivers/STM32F4xx_StdPeriph_Driver/src/stm32f4xx_i2c.c ****   This section provides functions allowing to configure the I2C DMA channels 
 897:Drivers/STM32F4xx_StdPeriph_Driver/src/stm32f4xx_i2c.c ****   requests.
 898:Drivers/STM32F4xx_StdPeriph_Driver/src/stm32f4xx_i2c.c ****   
 899:Drivers/STM32F4xx_StdPeriph_Driver/src/stm32f4xx_i2c.c **** @endverbatim
 900:Drivers/STM32F4xx_StdPeriph_Driver/src/stm32f4xx_i2c.c ****   * @{
 901:Drivers/STM32F4xx_StdPeriph_Driver/src/stm32f4xx_i2c.c ****   */
 902:Drivers/STM32F4xx_StdPeriph_Driver/src/stm32f4xx_i2c.c **** 
 903:Drivers/STM32F4xx_StdPeriph_Driver/src/stm32f4xx_i2c.c **** /**
 904:Drivers/STM32F4xx_StdPeriph_Driver/src/stm32f4xx_i2c.c ****   * @brief  Enables or disables the specified I2C DMA requests.
 905:Drivers/STM32F4xx_StdPeriph_Driver/src/stm32f4xx_i2c.c ****   * @param  I2Cx: where x can be 1, 2 or 3 to select the I2C peripheral.
 906:Drivers/STM32F4xx_StdPeriph_Driver/src/stm32f4xx_i2c.c ****   * @param  NewState: new state of the I2C DMA transfer.
 907:Drivers/STM32F4xx_StdPeriph_Driver/src/stm32f4xx_i2c.c ****   *          This parameter can be: ENABLE or DISABLE.
 908:Drivers/STM32F4xx_StdPeriph_Driver/src/stm32f4xx_i2c.c ****   * @retval None
 909:Drivers/STM32F4xx_StdPeriph_Driver/src/stm32f4xx_i2c.c ****   */
 910:Drivers/STM32F4xx_StdPeriph_Driver/src/stm32f4xx_i2c.c **** void I2C_DMACmd(I2C_TypeDef* I2Cx, FunctionalState NewState)
 911:Drivers/STM32F4xx_StdPeriph_Driver/src/stm32f4xx_i2c.c **** {
 1252              		.loc 1 911 1 is_stmt 1 view -0
 1253              		.cfi_startproc
 1254              		@ args = 0, pretend = 0, frame = 0
 1255              		@ frame_needed = 0, uses_anonymous_args = 0
 1256              		@ link register save eliminated.
 912:Drivers/STM32F4xx_StdPeriph_Driver/src/stm32f4xx_i2c.c ****   /* Check the parameters */
 913:Drivers/STM32F4xx_StdPeriph_Driver/src/stm32f4xx_i2c.c ****   assert_param(IS_I2C_ALL_PERIPH(I2Cx));
 1257              		.loc 1 913 3 view .LVU344
 914:Drivers/STM32F4xx_StdPeriph_Driver/src/stm32f4xx_i2c.c ****   assert_param(IS_FUNCTIONAL_STATE(NewState));
 1258              		.loc 1 914 3 view .LVU345
 915:Drivers/STM32F4xx_StdPeriph_Driver/src/stm32f4xx_i2c.c ****   if (NewState != DISABLE)
ARM GAS  /tmp/ccGdFbQ0.s 			page 39


 1259              		.loc 1 915 3 view .LVU346
 1260              		.loc 1 915 6 is_stmt 0 view .LVU347
 1261 0000 29B1     		cbz	r1, .L84
 916:Drivers/STM32F4xx_StdPeriph_Driver/src/stm32f4xx_i2c.c ****   {
 917:Drivers/STM32F4xx_StdPeriph_Driver/src/stm32f4xx_i2c.c ****     /* Enable the selected I2C DMA requests */
 918:Drivers/STM32F4xx_StdPeriph_Driver/src/stm32f4xx_i2c.c ****     I2Cx->CR2 |= I2C_CR2_DMAEN;
 1262              		.loc 1 918 5 is_stmt 1 view .LVU348
 1263              		.loc 1 918 15 is_stmt 0 view .LVU349
 1264 0002 8388     		ldrh	r3, [r0, #4]
 1265 0004 9BB2     		uxth	r3, r3
 1266 0006 43F40063 		orr	r3, r3, #2048
 1267 000a 8380     		strh	r3, [r0, #4]	@ movhi
 1268 000c 7047     		bx	lr
 1269              	.L84:
 919:Drivers/STM32F4xx_StdPeriph_Driver/src/stm32f4xx_i2c.c ****   }
 920:Drivers/STM32F4xx_StdPeriph_Driver/src/stm32f4xx_i2c.c ****   else
 921:Drivers/STM32F4xx_StdPeriph_Driver/src/stm32f4xx_i2c.c ****   {
 922:Drivers/STM32F4xx_StdPeriph_Driver/src/stm32f4xx_i2c.c ****     /* Disable the selected I2C DMA requests */
 923:Drivers/STM32F4xx_StdPeriph_Driver/src/stm32f4xx_i2c.c ****     I2Cx->CR2 &= (uint16_t)~((uint16_t)I2C_CR2_DMAEN);
 1270              		.loc 1 923 5 is_stmt 1 view .LVU350
 1271              		.loc 1 923 15 is_stmt 0 view .LVU351
 1272 000e 8388     		ldrh	r3, [r0, #4]
 1273 0010 9BB2     		uxth	r3, r3
 1274 0012 23F40063 		bic	r3, r3, #2048
 1275 0016 9BB2     		uxth	r3, r3
 1276 0018 8380     		strh	r3, [r0, #4]	@ movhi
 924:Drivers/STM32F4xx_StdPeriph_Driver/src/stm32f4xx_i2c.c ****   }
 925:Drivers/STM32F4xx_StdPeriph_Driver/src/stm32f4xx_i2c.c **** }
 1277              		.loc 1 925 1 view .LVU352
 1278 001a 7047     		bx	lr
 1279              		.cfi_endproc
 1280              	.LFE148:
 1282              		.section	.text.I2C_DMALastTransferCmd,"ax",%progbits
 1283              		.align	1
 1284              		.global	I2C_DMALastTransferCmd
 1285              		.syntax unified
 1286              		.thumb
 1287              		.thumb_func
 1289              	I2C_DMALastTransferCmd:
 1290              	.LVL82:
 1291              	.LFB149:
 926:Drivers/STM32F4xx_StdPeriph_Driver/src/stm32f4xx_i2c.c **** 
 927:Drivers/STM32F4xx_StdPeriph_Driver/src/stm32f4xx_i2c.c **** /**
 928:Drivers/STM32F4xx_StdPeriph_Driver/src/stm32f4xx_i2c.c ****   * @brief  Specifies that the next DMA transfer is the last one.
 929:Drivers/STM32F4xx_StdPeriph_Driver/src/stm32f4xx_i2c.c ****   * @param  I2Cx: where x can be 1, 2 or 3 to select the I2C peripheral.
 930:Drivers/STM32F4xx_StdPeriph_Driver/src/stm32f4xx_i2c.c ****   * @param  NewState: new state of the I2C DMA last transfer.
 931:Drivers/STM32F4xx_StdPeriph_Driver/src/stm32f4xx_i2c.c ****   *          This parameter can be: ENABLE or DISABLE.
 932:Drivers/STM32F4xx_StdPeriph_Driver/src/stm32f4xx_i2c.c ****   * @retval None
 933:Drivers/STM32F4xx_StdPeriph_Driver/src/stm32f4xx_i2c.c ****   */
 934:Drivers/STM32F4xx_StdPeriph_Driver/src/stm32f4xx_i2c.c **** void I2C_DMALastTransferCmd(I2C_TypeDef* I2Cx, FunctionalState NewState)
 935:Drivers/STM32F4xx_StdPeriph_Driver/src/stm32f4xx_i2c.c **** {
 1292              		.loc 1 935 1 is_stmt 1 view -0
 1293              		.cfi_startproc
 1294              		@ args = 0, pretend = 0, frame = 0
 1295              		@ frame_needed = 0, uses_anonymous_args = 0
 1296              		@ link register save eliminated.
 936:Drivers/STM32F4xx_StdPeriph_Driver/src/stm32f4xx_i2c.c ****   /* Check the parameters */
ARM GAS  /tmp/ccGdFbQ0.s 			page 40


 937:Drivers/STM32F4xx_StdPeriph_Driver/src/stm32f4xx_i2c.c ****   assert_param(IS_I2C_ALL_PERIPH(I2Cx));
 1297              		.loc 1 937 3 view .LVU354
 938:Drivers/STM32F4xx_StdPeriph_Driver/src/stm32f4xx_i2c.c ****   assert_param(IS_FUNCTIONAL_STATE(NewState));
 1298              		.loc 1 938 3 view .LVU355
 939:Drivers/STM32F4xx_StdPeriph_Driver/src/stm32f4xx_i2c.c ****   if (NewState != DISABLE)
 1299              		.loc 1 939 3 view .LVU356
 1300              		.loc 1 939 6 is_stmt 0 view .LVU357
 1301 0000 29B1     		cbz	r1, .L87
 940:Drivers/STM32F4xx_StdPeriph_Driver/src/stm32f4xx_i2c.c ****   {
 941:Drivers/STM32F4xx_StdPeriph_Driver/src/stm32f4xx_i2c.c ****     /* Next DMA transfer is the last transfer */
 942:Drivers/STM32F4xx_StdPeriph_Driver/src/stm32f4xx_i2c.c ****     I2Cx->CR2 |= I2C_CR2_LAST;
 1302              		.loc 1 942 5 is_stmt 1 view .LVU358
 1303              		.loc 1 942 15 is_stmt 0 view .LVU359
 1304 0002 8388     		ldrh	r3, [r0, #4]
 1305 0004 9BB2     		uxth	r3, r3
 1306 0006 43F48053 		orr	r3, r3, #4096
 1307 000a 8380     		strh	r3, [r0, #4]	@ movhi
 1308 000c 7047     		bx	lr
 1309              	.L87:
 943:Drivers/STM32F4xx_StdPeriph_Driver/src/stm32f4xx_i2c.c ****   }
 944:Drivers/STM32F4xx_StdPeriph_Driver/src/stm32f4xx_i2c.c ****   else
 945:Drivers/STM32F4xx_StdPeriph_Driver/src/stm32f4xx_i2c.c ****   {
 946:Drivers/STM32F4xx_StdPeriph_Driver/src/stm32f4xx_i2c.c ****     /* Next DMA transfer is not the last transfer */
 947:Drivers/STM32F4xx_StdPeriph_Driver/src/stm32f4xx_i2c.c ****     I2Cx->CR2 &= (uint16_t)~((uint16_t)I2C_CR2_LAST);
 1310              		.loc 1 947 5 is_stmt 1 view .LVU360
 1311              		.loc 1 947 15 is_stmt 0 view .LVU361
 1312 000e 8388     		ldrh	r3, [r0, #4]
 1313 0010 9BB2     		uxth	r3, r3
 1314 0012 23F48053 		bic	r3, r3, #4096
 1315 0016 9BB2     		uxth	r3, r3
 1316 0018 8380     		strh	r3, [r0, #4]	@ movhi
 948:Drivers/STM32F4xx_StdPeriph_Driver/src/stm32f4xx_i2c.c ****   }
 949:Drivers/STM32F4xx_StdPeriph_Driver/src/stm32f4xx_i2c.c **** }
 1317              		.loc 1 949 1 view .LVU362
 1318 001a 7047     		bx	lr
 1319              		.cfi_endproc
 1320              	.LFE149:
 1322              		.section	.text.I2C_ReadRegister,"ax",%progbits
 1323              		.align	1
 1324              		.global	I2C_ReadRegister
 1325              		.syntax unified
 1326              		.thumb
 1327              		.thumb_func
 1329              	I2C_ReadRegister:
 1330              	.LVL83:
 1331              	.LFB150:
 950:Drivers/STM32F4xx_StdPeriph_Driver/src/stm32f4xx_i2c.c **** 
 951:Drivers/STM32F4xx_StdPeriph_Driver/src/stm32f4xx_i2c.c **** /**
 952:Drivers/STM32F4xx_StdPeriph_Driver/src/stm32f4xx_i2c.c ****   * @}
 953:Drivers/STM32F4xx_StdPeriph_Driver/src/stm32f4xx_i2c.c ****   */
 954:Drivers/STM32F4xx_StdPeriph_Driver/src/stm32f4xx_i2c.c **** 
 955:Drivers/STM32F4xx_StdPeriph_Driver/src/stm32f4xx_i2c.c **** /** @defgroup I2C_Group5 Interrupts events and flags management functions
 956:Drivers/STM32F4xx_StdPeriph_Driver/src/stm32f4xx_i2c.c ****  *  @brief   Interrupts, events and flags management functions
 957:Drivers/STM32F4xx_StdPeriph_Driver/src/stm32f4xx_i2c.c ****  *
 958:Drivers/STM32F4xx_StdPeriph_Driver/src/stm32f4xx_i2c.c **** @verbatim   
 959:Drivers/STM32F4xx_StdPeriph_Driver/src/stm32f4xx_i2c.c ****  ===============================================================================
 960:Drivers/STM32F4xx_StdPeriph_Driver/src/stm32f4xx_i2c.c ****           ##### Interrupts, events and flags management functions #####
ARM GAS  /tmp/ccGdFbQ0.s 			page 41


 961:Drivers/STM32F4xx_StdPeriph_Driver/src/stm32f4xx_i2c.c ****  ===============================================================================
 962:Drivers/STM32F4xx_StdPeriph_Driver/src/stm32f4xx_i2c.c ****     [..]
 963:Drivers/STM32F4xx_StdPeriph_Driver/src/stm32f4xx_i2c.c ****     This section provides functions allowing to configure the I2C Interrupts 
 964:Drivers/STM32F4xx_StdPeriph_Driver/src/stm32f4xx_i2c.c ****     sources and check or clear the flags or pending bits status.
 965:Drivers/STM32F4xx_StdPeriph_Driver/src/stm32f4xx_i2c.c ****     The user should identify which mode will be used in his application to manage 
 966:Drivers/STM32F4xx_StdPeriph_Driver/src/stm32f4xx_i2c.c ****     the communication: Polling mode, Interrupt mode or DMA mode. 
 967:Drivers/STM32F4xx_StdPeriph_Driver/src/stm32f4xx_i2c.c **** 
 968:Drivers/STM32F4xx_StdPeriph_Driver/src/stm32f4xx_i2c.c **** 
 969:Drivers/STM32F4xx_StdPeriph_Driver/src/stm32f4xx_i2c.c ****                 ##### I2C State Monitoring Functions #####                   
 970:Drivers/STM32F4xx_StdPeriph_Driver/src/stm32f4xx_i2c.c ****  =============================================================================== 
 971:Drivers/STM32F4xx_StdPeriph_Driver/src/stm32f4xx_i2c.c ****     [..]  
 972:Drivers/STM32F4xx_StdPeriph_Driver/src/stm32f4xx_i2c.c ****     This I2C driver provides three different ways for I2C state monitoring
 973:Drivers/STM32F4xx_StdPeriph_Driver/src/stm32f4xx_i2c.c ****     depending on the application requirements and constraints:
 974:Drivers/STM32F4xx_StdPeriph_Driver/src/stm32f4xx_i2c.c ****          
 975:Drivers/STM32F4xx_StdPeriph_Driver/src/stm32f4xx_i2c.c ****    
 976:Drivers/STM32F4xx_StdPeriph_Driver/src/stm32f4xx_i2c.c ****      (#) Basic state monitoring (Using I2C_CheckEvent() function)
 977:Drivers/STM32F4xx_StdPeriph_Driver/src/stm32f4xx_i2c.c ****      
 978:Drivers/STM32F4xx_StdPeriph_Driver/src/stm32f4xx_i2c.c ****         It compares the status registers (SR1 and SR2) content to a given event
 979:Drivers/STM32F4xx_StdPeriph_Driver/src/stm32f4xx_i2c.c ****         (can be the combination of one or more flags).
 980:Drivers/STM32F4xx_StdPeriph_Driver/src/stm32f4xx_i2c.c ****         It returns SUCCESS if the current status includes the given flags 
 981:Drivers/STM32F4xx_StdPeriph_Driver/src/stm32f4xx_i2c.c ****         and returns ERROR if one or more flags are missing in the current status.
 982:Drivers/STM32F4xx_StdPeriph_Driver/src/stm32f4xx_i2c.c **** 
 983:Drivers/STM32F4xx_StdPeriph_Driver/src/stm32f4xx_i2c.c ****           (++) When to use
 984:Drivers/STM32F4xx_StdPeriph_Driver/src/stm32f4xx_i2c.c ****              (+++) This function is suitable for most applications as well as for startup 
 985:Drivers/STM32F4xx_StdPeriph_Driver/src/stm32f4xx_i2c.c ****                activity since the events are fully described in the product reference 
 986:Drivers/STM32F4xx_StdPeriph_Driver/src/stm32f4xx_i2c.c ****                manual (RM0090).
 987:Drivers/STM32F4xx_StdPeriph_Driver/src/stm32f4xx_i2c.c ****              (+++) It is also suitable for users who need to define their own events.
 988:Drivers/STM32F4xx_StdPeriph_Driver/src/stm32f4xx_i2c.c **** 
 989:Drivers/STM32F4xx_StdPeriph_Driver/src/stm32f4xx_i2c.c ****           (++) Limitations
 990:Drivers/STM32F4xx_StdPeriph_Driver/src/stm32f4xx_i2c.c ****                If an error occurs (ie. error flags are set besides to the monitored 
 991:Drivers/STM32F4xx_StdPeriph_Driver/src/stm32f4xx_i2c.c ****                flags), the I2C_CheckEvent() function may return SUCCESS despite 
 992:Drivers/STM32F4xx_StdPeriph_Driver/src/stm32f4xx_i2c.c ****                the communication hold or corrupted real state. 
 993:Drivers/STM32F4xx_StdPeriph_Driver/src/stm32f4xx_i2c.c ****                In this case, it is advised to use error interrupts to monitor 
 994:Drivers/STM32F4xx_StdPeriph_Driver/src/stm32f4xx_i2c.c ****                the error events and handle them in the interrupt IRQ handler.
 995:Drivers/STM32F4xx_StdPeriph_Driver/src/stm32f4xx_i2c.c ****          
 996:Drivers/STM32F4xx_StdPeriph_Driver/src/stm32f4xx_i2c.c ****      -@@- For error management, it is advised to use the following functions:
 997:Drivers/STM32F4xx_StdPeriph_Driver/src/stm32f4xx_i2c.c ****         (+@@) I2C_ITConfig() to configure and enable the error interrupts (I2C_IT_ERR).
 998:Drivers/STM32F4xx_StdPeriph_Driver/src/stm32f4xx_i2c.c ****         (+@@) I2Cx_ER_IRQHandler() which is called when the error interrupt occurs.
 999:Drivers/STM32F4xx_StdPeriph_Driver/src/stm32f4xx_i2c.c ****               Where x is the peripheral instance (I2C1, I2C2 ...)
1000:Drivers/STM32F4xx_StdPeriph_Driver/src/stm32f4xx_i2c.c ****         (+@@) I2C_GetFlagStatus() or I2C_GetITStatus()  to be called into the 
1001:Drivers/STM32F4xx_StdPeriph_Driver/src/stm32f4xx_i2c.c ****               I2Cx_ER_IRQHandler() function in order to determine which error occurred.
1002:Drivers/STM32F4xx_StdPeriph_Driver/src/stm32f4xx_i2c.c ****         (+@@) I2C_ClearFlag() or I2C_ClearITPendingBit() and/or I2C_SoftwareResetCmd() 
1003:Drivers/STM32F4xx_StdPeriph_Driver/src/stm32f4xx_i2c.c ****               and/or I2C_GenerateStop() in order to clear the error flag and source 
1004:Drivers/STM32F4xx_StdPeriph_Driver/src/stm32f4xx_i2c.c ****               and return to correct  communication status.
1005:Drivers/STM32F4xx_StdPeriph_Driver/src/stm32f4xx_i2c.c ****              
1006:Drivers/STM32F4xx_StdPeriph_Driver/src/stm32f4xx_i2c.c ****  
1007:Drivers/STM32F4xx_StdPeriph_Driver/src/stm32f4xx_i2c.c ****      (#) Advanced state monitoring (Using the function I2C_GetLastEvent())
1008:Drivers/STM32F4xx_StdPeriph_Driver/src/stm32f4xx_i2c.c **** 
1009:Drivers/STM32F4xx_StdPeriph_Driver/src/stm32f4xx_i2c.c ****         Using the function I2C_GetLastEvent() which returns the image of both status 
1010:Drivers/STM32F4xx_StdPeriph_Driver/src/stm32f4xx_i2c.c ****         registers in a single word (uint32_t) (Status Register 2 value is shifted left 
1011:Drivers/STM32F4xx_StdPeriph_Driver/src/stm32f4xx_i2c.c ****         by 16 bits and concatenated to Status Register 1).
1012:Drivers/STM32F4xx_StdPeriph_Driver/src/stm32f4xx_i2c.c **** 
1013:Drivers/STM32F4xx_StdPeriph_Driver/src/stm32f4xx_i2c.c ****           (++) When to use
1014:Drivers/STM32F4xx_StdPeriph_Driver/src/stm32f4xx_i2c.c ****              (+++) This function is suitable for the same applications above but it 
1015:Drivers/STM32F4xx_StdPeriph_Driver/src/stm32f4xx_i2c.c ****                allows to overcome the mentioned limitation of I2C_GetFlagStatus() 
1016:Drivers/STM32F4xx_StdPeriph_Driver/src/stm32f4xx_i2c.c ****                function.
1017:Drivers/STM32F4xx_StdPeriph_Driver/src/stm32f4xx_i2c.c ****              (+++) The returned value could be compared to events already defined in 
ARM GAS  /tmp/ccGdFbQ0.s 			page 42


1018:Drivers/STM32F4xx_StdPeriph_Driver/src/stm32f4xx_i2c.c ****                the library (stm32f4xx_i2c.h) or to custom values defined by user.
1019:Drivers/STM32F4xx_StdPeriph_Driver/src/stm32f4xx_i2c.c ****                This function is suitable when multiple flags are monitored at the 
1020:Drivers/STM32F4xx_StdPeriph_Driver/src/stm32f4xx_i2c.c ****                same time.
1021:Drivers/STM32F4xx_StdPeriph_Driver/src/stm32f4xx_i2c.c ****              (+++) At the opposite of I2C_CheckEvent() function, this function allows 
1022:Drivers/STM32F4xx_StdPeriph_Driver/src/stm32f4xx_i2c.c ****                user to choose when an event is accepted (when all events flags are 
1023:Drivers/STM32F4xx_StdPeriph_Driver/src/stm32f4xx_i2c.c ****                set and no other flags are set or just when the needed flags are set 
1024:Drivers/STM32F4xx_StdPeriph_Driver/src/stm32f4xx_i2c.c ****                like I2C_CheckEvent() function.
1025:Drivers/STM32F4xx_StdPeriph_Driver/src/stm32f4xx_i2c.c **** 
1026:Drivers/STM32F4xx_StdPeriph_Driver/src/stm32f4xx_i2c.c ****           (++) Limitations
1027:Drivers/STM32F4xx_StdPeriph_Driver/src/stm32f4xx_i2c.c ****              (+++) User may need to define his own events.
1028:Drivers/STM32F4xx_StdPeriph_Driver/src/stm32f4xx_i2c.c ****              (+++) Same remark concerning the error management is applicable for this 
1029:Drivers/STM32F4xx_StdPeriph_Driver/src/stm32f4xx_i2c.c ****                function if user decides to check only regular communication flags 
1030:Drivers/STM32F4xx_StdPeriph_Driver/src/stm32f4xx_i2c.c ****                (and ignores error flags).
1031:Drivers/STM32F4xx_StdPeriph_Driver/src/stm32f4xx_i2c.c ****       
1032:Drivers/STM32F4xx_StdPeriph_Driver/src/stm32f4xx_i2c.c ****  
1033:Drivers/STM32F4xx_StdPeriph_Driver/src/stm32f4xx_i2c.c ****      (#) Flag-based state monitoring (Using the function I2C_GetFlagStatus())
1034:Drivers/STM32F4xx_StdPeriph_Driver/src/stm32f4xx_i2c.c ****      
1035:Drivers/STM32F4xx_StdPeriph_Driver/src/stm32f4xx_i2c.c ****       Using the function I2C_GetFlagStatus() which simply returns the status of 
1036:Drivers/STM32F4xx_StdPeriph_Driver/src/stm32f4xx_i2c.c ****       one single flag (ie. I2C_FLAG_RXNE ...). 
1037:Drivers/STM32F4xx_StdPeriph_Driver/src/stm32f4xx_i2c.c **** 
1038:Drivers/STM32F4xx_StdPeriph_Driver/src/stm32f4xx_i2c.c ****           (++) When to use
1039:Drivers/STM32F4xx_StdPeriph_Driver/src/stm32f4xx_i2c.c ****              (+++) This function could be used for specific applications or in debug 
1040:Drivers/STM32F4xx_StdPeriph_Driver/src/stm32f4xx_i2c.c ****                phase.
1041:Drivers/STM32F4xx_StdPeriph_Driver/src/stm32f4xx_i2c.c ****              (+++) It is suitable when only one flag checking is needed (most I2C 
1042:Drivers/STM32F4xx_StdPeriph_Driver/src/stm32f4xx_i2c.c ****                events are monitored through multiple flags).
1043:Drivers/STM32F4xx_StdPeriph_Driver/src/stm32f4xx_i2c.c ****           (++) Limitations: 
1044:Drivers/STM32F4xx_StdPeriph_Driver/src/stm32f4xx_i2c.c ****              (+++) When calling this function, the Status register is accessed. 
1045:Drivers/STM32F4xx_StdPeriph_Driver/src/stm32f4xx_i2c.c ****                Some flags are cleared when the status register is accessed. 
1046:Drivers/STM32F4xx_StdPeriph_Driver/src/stm32f4xx_i2c.c ****                So checking the status of one Flag, may clear other ones.
1047:Drivers/STM32F4xx_StdPeriph_Driver/src/stm32f4xx_i2c.c ****              (+++) Function may need to be called twice or more in order to monitor 
1048:Drivers/STM32F4xx_StdPeriph_Driver/src/stm32f4xx_i2c.c ****                one single event.
1049:Drivers/STM32F4xx_StdPeriph_Driver/src/stm32f4xx_i2c.c ****  
1050:Drivers/STM32F4xx_StdPeriph_Driver/src/stm32f4xx_i2c.c ****    For detailed description of Events, please refer to section I2C_Events in 
1051:Drivers/STM32F4xx_StdPeriph_Driver/src/stm32f4xx_i2c.c ****    stm32f4xx_i2c.h file.
1052:Drivers/STM32F4xx_StdPeriph_Driver/src/stm32f4xx_i2c.c ****        
1053:Drivers/STM32F4xx_StdPeriph_Driver/src/stm32f4xx_i2c.c **** @endverbatim
1054:Drivers/STM32F4xx_StdPeriph_Driver/src/stm32f4xx_i2c.c ****   * @{
1055:Drivers/STM32F4xx_StdPeriph_Driver/src/stm32f4xx_i2c.c ****   */
1056:Drivers/STM32F4xx_StdPeriph_Driver/src/stm32f4xx_i2c.c ****    
1057:Drivers/STM32F4xx_StdPeriph_Driver/src/stm32f4xx_i2c.c **** /**
1058:Drivers/STM32F4xx_StdPeriph_Driver/src/stm32f4xx_i2c.c ****   * @brief  Reads the specified I2C register and returns its value.
1059:Drivers/STM32F4xx_StdPeriph_Driver/src/stm32f4xx_i2c.c ****   * @param  I2C_Register: specifies the register to read.
1060:Drivers/STM32F4xx_StdPeriph_Driver/src/stm32f4xx_i2c.c ****   *          This parameter can be one of the following values:
1061:Drivers/STM32F4xx_StdPeriph_Driver/src/stm32f4xx_i2c.c ****   *            @arg I2C_Register_CR1:  CR1 register.
1062:Drivers/STM32F4xx_StdPeriph_Driver/src/stm32f4xx_i2c.c ****   *            @arg I2C_Register_CR2:   CR2 register.
1063:Drivers/STM32F4xx_StdPeriph_Driver/src/stm32f4xx_i2c.c ****   *            @arg I2C_Register_OAR1:  OAR1 register.
1064:Drivers/STM32F4xx_StdPeriph_Driver/src/stm32f4xx_i2c.c ****   *            @arg I2C_Register_OAR2:  OAR2 register.
1065:Drivers/STM32F4xx_StdPeriph_Driver/src/stm32f4xx_i2c.c ****   *            @arg I2C_Register_DR:    DR register.
1066:Drivers/STM32F4xx_StdPeriph_Driver/src/stm32f4xx_i2c.c ****   *            @arg I2C_Register_SR1:   SR1 register.
1067:Drivers/STM32F4xx_StdPeriph_Driver/src/stm32f4xx_i2c.c ****   *            @arg I2C_Register_SR2:   SR2 register.
1068:Drivers/STM32F4xx_StdPeriph_Driver/src/stm32f4xx_i2c.c ****   *            @arg I2C_Register_CCR:   CCR register.
1069:Drivers/STM32F4xx_StdPeriph_Driver/src/stm32f4xx_i2c.c ****   *            @arg I2C_Register_TRISE: TRISE register.
1070:Drivers/STM32F4xx_StdPeriph_Driver/src/stm32f4xx_i2c.c ****   * @retval The value of the read register.
1071:Drivers/STM32F4xx_StdPeriph_Driver/src/stm32f4xx_i2c.c ****   */
1072:Drivers/STM32F4xx_StdPeriph_Driver/src/stm32f4xx_i2c.c **** uint16_t I2C_ReadRegister(I2C_TypeDef* I2Cx, uint8_t I2C_Register)
1073:Drivers/STM32F4xx_StdPeriph_Driver/src/stm32f4xx_i2c.c **** {
 1332              		.loc 1 1073 1 is_stmt 1 view -0
ARM GAS  /tmp/ccGdFbQ0.s 			page 43


 1333              		.cfi_startproc
 1334              		@ args = 0, pretend = 0, frame = 8
 1335              		@ frame_needed = 0, uses_anonymous_args = 0
 1336              		@ link register save eliminated.
 1337              		.loc 1 1073 1 is_stmt 0 view .LVU364
 1338 0000 82B0     		sub	sp, sp, #8
 1339              		.cfi_def_cfa_offset 8
1074:Drivers/STM32F4xx_StdPeriph_Driver/src/stm32f4xx_i2c.c ****   __IO uint32_t tmp = 0;
 1340              		.loc 1 1074 3 is_stmt 1 view .LVU365
 1341              		.loc 1 1074 17 is_stmt 0 view .LVU366
 1342 0002 0023     		movs	r3, #0
 1343 0004 0193     		str	r3, [sp, #4]
1075:Drivers/STM32F4xx_StdPeriph_Driver/src/stm32f4xx_i2c.c **** 
1076:Drivers/STM32F4xx_StdPeriph_Driver/src/stm32f4xx_i2c.c ****   /* Check the parameters */
1077:Drivers/STM32F4xx_StdPeriph_Driver/src/stm32f4xx_i2c.c ****   assert_param(IS_I2C_ALL_PERIPH(I2Cx));
 1344              		.loc 1 1077 3 is_stmt 1 view .LVU367
1078:Drivers/STM32F4xx_StdPeriph_Driver/src/stm32f4xx_i2c.c ****   assert_param(IS_I2C_REGISTER(I2C_Register));
 1345              		.loc 1 1078 3 view .LVU368
1079:Drivers/STM32F4xx_StdPeriph_Driver/src/stm32f4xx_i2c.c **** 
1080:Drivers/STM32F4xx_StdPeriph_Driver/src/stm32f4xx_i2c.c ****   tmp = (uint32_t) I2Cx;
 1346              		.loc 1 1080 3 view .LVU369
 1347              		.loc 1 1080 7 is_stmt 0 view .LVU370
 1348 0006 0190     		str	r0, [sp, #4]
1081:Drivers/STM32F4xx_StdPeriph_Driver/src/stm32f4xx_i2c.c ****   tmp += I2C_Register;
 1349              		.loc 1 1081 3 is_stmt 1 view .LVU371
 1350              		.loc 1 1081 7 is_stmt 0 view .LVU372
 1351 0008 019B     		ldr	r3, [sp, #4]
 1352 000a 1944     		add	r1, r1, r3
 1353              	.LVL84:
 1354              		.loc 1 1081 7 view .LVU373
 1355 000c 0191     		str	r1, [sp, #4]
1082:Drivers/STM32F4xx_StdPeriph_Driver/src/stm32f4xx_i2c.c **** 
1083:Drivers/STM32F4xx_StdPeriph_Driver/src/stm32f4xx_i2c.c ****   /* Return the selected register value */
1084:Drivers/STM32F4xx_StdPeriph_Driver/src/stm32f4xx_i2c.c ****   return (*(__IO uint16_t *) tmp);
 1356              		.loc 1 1084 3 is_stmt 1 view .LVU374
 1357              		.loc 1 1084 12 is_stmt 0 view .LVU375
 1358 000e 019B     		ldr	r3, [sp, #4]
 1359              		.loc 1 1084 11 view .LVU376
 1360 0010 1888     		ldrh	r0, [r3]
 1361              	.LVL85:
1085:Drivers/STM32F4xx_StdPeriph_Driver/src/stm32f4xx_i2c.c **** }
 1362              		.loc 1 1085 1 view .LVU377
 1363 0012 80B2     		uxth	r0, r0
 1364 0014 02B0     		add	sp, sp, #8
 1365              		.cfi_def_cfa_offset 0
 1366              		@ sp needed
 1367 0016 7047     		bx	lr
 1368              		.cfi_endproc
 1369              	.LFE150:
 1371              		.section	.text.I2C_ITConfig,"ax",%progbits
 1372              		.align	1
 1373              		.global	I2C_ITConfig
 1374              		.syntax unified
 1375              		.thumb
 1376              		.thumb_func
 1378              	I2C_ITConfig:
 1379              	.LVL86:
ARM GAS  /tmp/ccGdFbQ0.s 			page 44


 1380              	.LFB151:
1086:Drivers/STM32F4xx_StdPeriph_Driver/src/stm32f4xx_i2c.c **** 
1087:Drivers/STM32F4xx_StdPeriph_Driver/src/stm32f4xx_i2c.c **** /**
1088:Drivers/STM32F4xx_StdPeriph_Driver/src/stm32f4xx_i2c.c ****   * @brief  Enables or disables the specified I2C interrupts.
1089:Drivers/STM32F4xx_StdPeriph_Driver/src/stm32f4xx_i2c.c ****   * @param  I2Cx: where x can be 1, 2 or 3 to select the I2C peripheral.
1090:Drivers/STM32F4xx_StdPeriph_Driver/src/stm32f4xx_i2c.c ****   * @param  I2C_IT: specifies the I2C interrupts sources to be enabled or disabled. 
1091:Drivers/STM32F4xx_StdPeriph_Driver/src/stm32f4xx_i2c.c ****   *          This parameter can be any combination of the following values:
1092:Drivers/STM32F4xx_StdPeriph_Driver/src/stm32f4xx_i2c.c ****   *            @arg I2C_IT_BUF: Buffer interrupt mask
1093:Drivers/STM32F4xx_StdPeriph_Driver/src/stm32f4xx_i2c.c ****   *            @arg I2C_IT_EVT: Event interrupt mask
1094:Drivers/STM32F4xx_StdPeriph_Driver/src/stm32f4xx_i2c.c ****   *            @arg I2C_IT_ERR: Error interrupt mask
1095:Drivers/STM32F4xx_StdPeriph_Driver/src/stm32f4xx_i2c.c ****   * @param  NewState: new state of the specified I2C interrupts.
1096:Drivers/STM32F4xx_StdPeriph_Driver/src/stm32f4xx_i2c.c ****   *          This parameter can be: ENABLE or DISABLE.
1097:Drivers/STM32F4xx_StdPeriph_Driver/src/stm32f4xx_i2c.c ****   * @retval None
1098:Drivers/STM32F4xx_StdPeriph_Driver/src/stm32f4xx_i2c.c ****   */
1099:Drivers/STM32F4xx_StdPeriph_Driver/src/stm32f4xx_i2c.c **** void I2C_ITConfig(I2C_TypeDef* I2Cx, uint16_t I2C_IT, FunctionalState NewState)
1100:Drivers/STM32F4xx_StdPeriph_Driver/src/stm32f4xx_i2c.c **** {
 1381              		.loc 1 1100 1 is_stmt 1 view -0
 1382              		.cfi_startproc
 1383              		@ args = 0, pretend = 0, frame = 0
 1384              		@ frame_needed = 0, uses_anonymous_args = 0
 1385              		@ link register save eliminated.
1101:Drivers/STM32F4xx_StdPeriph_Driver/src/stm32f4xx_i2c.c ****   /* Check the parameters */
1102:Drivers/STM32F4xx_StdPeriph_Driver/src/stm32f4xx_i2c.c ****   assert_param(IS_I2C_ALL_PERIPH(I2Cx));
 1386              		.loc 1 1102 3 view .LVU379
1103:Drivers/STM32F4xx_StdPeriph_Driver/src/stm32f4xx_i2c.c ****   assert_param(IS_FUNCTIONAL_STATE(NewState));
 1387              		.loc 1 1103 3 view .LVU380
1104:Drivers/STM32F4xx_StdPeriph_Driver/src/stm32f4xx_i2c.c ****   assert_param(IS_I2C_CONFIG_IT(I2C_IT));
 1388              		.loc 1 1104 3 view .LVU381
1105:Drivers/STM32F4xx_StdPeriph_Driver/src/stm32f4xx_i2c.c ****   
1106:Drivers/STM32F4xx_StdPeriph_Driver/src/stm32f4xx_i2c.c ****   if (NewState != DISABLE)
 1389              		.loc 1 1106 3 view .LVU382
 1390              		.loc 1 1106 6 is_stmt 0 view .LVU383
 1391 0000 22B1     		cbz	r2, .L92
1107:Drivers/STM32F4xx_StdPeriph_Driver/src/stm32f4xx_i2c.c ****   {
1108:Drivers/STM32F4xx_StdPeriph_Driver/src/stm32f4xx_i2c.c ****     /* Enable the selected I2C interrupts */
1109:Drivers/STM32F4xx_StdPeriph_Driver/src/stm32f4xx_i2c.c ****     I2Cx->CR2 |= I2C_IT;
 1392              		.loc 1 1109 5 is_stmt 1 view .LVU384
 1393              		.loc 1 1109 15 is_stmt 0 view .LVU385
 1394 0002 8388     		ldrh	r3, [r0, #4]
 1395 0004 9BB2     		uxth	r3, r3
 1396 0006 1943     		orrs	r1, r1, r3
 1397              	.LVL87:
 1398              		.loc 1 1109 15 view .LVU386
 1399 0008 8180     		strh	r1, [r0, #4]	@ movhi
 1400 000a 7047     		bx	lr
 1401              	.LVL88:
 1402              	.L92:
1110:Drivers/STM32F4xx_StdPeriph_Driver/src/stm32f4xx_i2c.c ****   }
1111:Drivers/STM32F4xx_StdPeriph_Driver/src/stm32f4xx_i2c.c ****   else
1112:Drivers/STM32F4xx_StdPeriph_Driver/src/stm32f4xx_i2c.c ****   {
1113:Drivers/STM32F4xx_StdPeriph_Driver/src/stm32f4xx_i2c.c ****     /* Disable the selected I2C interrupts */
1114:Drivers/STM32F4xx_StdPeriph_Driver/src/stm32f4xx_i2c.c ****     I2Cx->CR2 &= (uint16_t)~I2C_IT;
 1403              		.loc 1 1114 5 is_stmt 1 view .LVU387
 1404              		.loc 1 1114 15 is_stmt 0 view .LVU388
 1405 000c 8388     		ldrh	r3, [r0, #4]
 1406              		.loc 1 1114 18 view .LVU389
 1407 000e C943     		mvns	r1, r1
ARM GAS  /tmp/ccGdFbQ0.s 			page 45


 1408              	.LVL89:
 1409              		.loc 1 1114 18 view .LVU390
 1410 0010 89B2     		uxth	r1, r1
 1411              		.loc 1 1114 15 view .LVU391
 1412 0012 1940     		ands	r1, r1, r3
 1413 0014 8180     		strh	r1, [r0, #4]	@ movhi
1115:Drivers/STM32F4xx_StdPeriph_Driver/src/stm32f4xx_i2c.c ****   }
1116:Drivers/STM32F4xx_StdPeriph_Driver/src/stm32f4xx_i2c.c **** }
 1414              		.loc 1 1116 1 view .LVU392
 1415 0016 7047     		bx	lr
 1416              		.cfi_endproc
 1417              	.LFE151:
 1419              		.section	.text.I2C_CheckEvent,"ax",%progbits
 1420              		.align	1
 1421              		.global	I2C_CheckEvent
 1422              		.syntax unified
 1423              		.thumb
 1424              		.thumb_func
 1426              	I2C_CheckEvent:
 1427              	.LVL90:
 1428              	.LFB152:
1117:Drivers/STM32F4xx_StdPeriph_Driver/src/stm32f4xx_i2c.c **** 
1118:Drivers/STM32F4xx_StdPeriph_Driver/src/stm32f4xx_i2c.c **** /*
1119:Drivers/STM32F4xx_StdPeriph_Driver/src/stm32f4xx_i2c.c ****  ===============================================================================
1120:Drivers/STM32F4xx_StdPeriph_Driver/src/stm32f4xx_i2c.c ****                           1. Basic state monitoring                    
1121:Drivers/STM32F4xx_StdPeriph_Driver/src/stm32f4xx_i2c.c ****  ===============================================================================  
1122:Drivers/STM32F4xx_StdPeriph_Driver/src/stm32f4xx_i2c.c ****  */
1123:Drivers/STM32F4xx_StdPeriph_Driver/src/stm32f4xx_i2c.c **** 
1124:Drivers/STM32F4xx_StdPeriph_Driver/src/stm32f4xx_i2c.c **** /**
1125:Drivers/STM32F4xx_StdPeriph_Driver/src/stm32f4xx_i2c.c ****   * @brief  Checks whether the last I2Cx Event is equal to the one passed
1126:Drivers/STM32F4xx_StdPeriph_Driver/src/stm32f4xx_i2c.c ****   *         as parameter.
1127:Drivers/STM32F4xx_StdPeriph_Driver/src/stm32f4xx_i2c.c ****   * @param  I2Cx: where x can be 1, 2 or 3 to select the I2C peripheral.
1128:Drivers/STM32F4xx_StdPeriph_Driver/src/stm32f4xx_i2c.c ****   * @param  I2C_EVENT: specifies the event to be checked. 
1129:Drivers/STM32F4xx_StdPeriph_Driver/src/stm32f4xx_i2c.c ****   *          This parameter can be one of the following values:
1130:Drivers/STM32F4xx_StdPeriph_Driver/src/stm32f4xx_i2c.c ****   *            @arg I2C_EVENT_SLAVE_TRANSMITTER_ADDRESS_MATCHED: EV1
1131:Drivers/STM32F4xx_StdPeriph_Driver/src/stm32f4xx_i2c.c ****   *            @arg I2C_EVENT_SLAVE_RECEIVER_ADDRESS_MATCHED: EV1
1132:Drivers/STM32F4xx_StdPeriph_Driver/src/stm32f4xx_i2c.c ****   *            @arg I2C_EVENT_SLAVE_TRANSMITTER_SECONDADDRESS_MATCHED: EV1
1133:Drivers/STM32F4xx_StdPeriph_Driver/src/stm32f4xx_i2c.c ****   *            @arg I2C_EVENT_SLAVE_RECEIVER_SECONDADDRESS_MATCHED: EV1
1134:Drivers/STM32F4xx_StdPeriph_Driver/src/stm32f4xx_i2c.c ****   *            @arg I2C_EVENT_SLAVE_GENERALCALLADDRESS_MATCHED: EV1
1135:Drivers/STM32F4xx_StdPeriph_Driver/src/stm32f4xx_i2c.c ****   *            @arg I2C_EVENT_SLAVE_BYTE_RECEIVED: EV2
1136:Drivers/STM32F4xx_StdPeriph_Driver/src/stm32f4xx_i2c.c ****   *            @arg (I2C_EVENT_SLAVE_BYTE_RECEIVED | I2C_FLAG_DUALF): EV2
1137:Drivers/STM32F4xx_StdPeriph_Driver/src/stm32f4xx_i2c.c ****   *            @arg (I2C_EVENT_SLAVE_BYTE_RECEIVED | I2C_FLAG_GENCALL): EV2
1138:Drivers/STM32F4xx_StdPeriph_Driver/src/stm32f4xx_i2c.c ****   *            @arg I2C_EVENT_SLAVE_BYTE_TRANSMITTED: EV3
1139:Drivers/STM32F4xx_StdPeriph_Driver/src/stm32f4xx_i2c.c ****   *            @arg (I2C_EVENT_SLAVE_BYTE_TRANSMITTED | I2C_FLAG_DUALF): EV3
1140:Drivers/STM32F4xx_StdPeriph_Driver/src/stm32f4xx_i2c.c ****   *            @arg (I2C_EVENT_SLAVE_BYTE_TRANSMITTED | I2C_FLAG_GENCALL): EV3
1141:Drivers/STM32F4xx_StdPeriph_Driver/src/stm32f4xx_i2c.c ****   *            @arg I2C_EVENT_SLAVE_ACK_FAILURE: EV3_2
1142:Drivers/STM32F4xx_StdPeriph_Driver/src/stm32f4xx_i2c.c ****   *            @arg I2C_EVENT_SLAVE_STOP_DETECTED: EV4
1143:Drivers/STM32F4xx_StdPeriph_Driver/src/stm32f4xx_i2c.c ****   *            @arg I2C_EVENT_MASTER_MODE_SELECT: EV5
1144:Drivers/STM32F4xx_StdPeriph_Driver/src/stm32f4xx_i2c.c ****   *            @arg I2C_EVENT_MASTER_TRANSMITTER_MODE_SELECTED: EV6     
1145:Drivers/STM32F4xx_StdPeriph_Driver/src/stm32f4xx_i2c.c ****   *            @arg I2C_EVENT_MASTER_RECEIVER_MODE_SELECTED: EV6
1146:Drivers/STM32F4xx_StdPeriph_Driver/src/stm32f4xx_i2c.c ****   *            @arg I2C_EVENT_MASTER_BYTE_RECEIVED: EV7
1147:Drivers/STM32F4xx_StdPeriph_Driver/src/stm32f4xx_i2c.c ****   *            @arg I2C_EVENT_MASTER_BYTE_TRANSMITTING: EV8
1148:Drivers/STM32F4xx_StdPeriph_Driver/src/stm32f4xx_i2c.c ****   *            @arg I2C_EVENT_MASTER_BYTE_TRANSMITTED: EV8_2
1149:Drivers/STM32F4xx_StdPeriph_Driver/src/stm32f4xx_i2c.c ****   *            @arg I2C_EVENT_MASTER_MODE_ADDRESS10: EV9
1150:Drivers/STM32F4xx_StdPeriph_Driver/src/stm32f4xx_i2c.c ****   *     
1151:Drivers/STM32F4xx_StdPeriph_Driver/src/stm32f4xx_i2c.c ****   * @note   For detailed description of Events, please refer to section I2C_Events
1152:Drivers/STM32F4xx_StdPeriph_Driver/src/stm32f4xx_i2c.c ****   *         in stm32f4xx_i2c.h file.
ARM GAS  /tmp/ccGdFbQ0.s 			page 46


1153:Drivers/STM32F4xx_StdPeriph_Driver/src/stm32f4xx_i2c.c ****   *    
1154:Drivers/STM32F4xx_StdPeriph_Driver/src/stm32f4xx_i2c.c ****   * @retval An ErrorStatus enumeration value:
1155:Drivers/STM32F4xx_StdPeriph_Driver/src/stm32f4xx_i2c.c ****   *           - SUCCESS: Last event is equal to the I2C_EVENT
1156:Drivers/STM32F4xx_StdPeriph_Driver/src/stm32f4xx_i2c.c ****   *           - ERROR: Last event is different from the I2C_EVENT
1157:Drivers/STM32F4xx_StdPeriph_Driver/src/stm32f4xx_i2c.c ****   */
1158:Drivers/STM32F4xx_StdPeriph_Driver/src/stm32f4xx_i2c.c **** ErrorStatus I2C_CheckEvent(I2C_TypeDef* I2Cx, uint32_t I2C_EVENT)
1159:Drivers/STM32F4xx_StdPeriph_Driver/src/stm32f4xx_i2c.c **** {
 1429              		.loc 1 1159 1 is_stmt 1 view -0
 1430              		.cfi_startproc
 1431              		@ args = 0, pretend = 0, frame = 0
 1432              		@ frame_needed = 0, uses_anonymous_args = 0
 1433              		@ link register save eliminated.
1160:Drivers/STM32F4xx_StdPeriph_Driver/src/stm32f4xx_i2c.c ****   uint32_t lastevent = 0;
 1434              		.loc 1 1160 3 view .LVU394
1161:Drivers/STM32F4xx_StdPeriph_Driver/src/stm32f4xx_i2c.c ****   uint32_t flag1 = 0, flag2 = 0;
 1435              		.loc 1 1161 3 view .LVU395
1162:Drivers/STM32F4xx_StdPeriph_Driver/src/stm32f4xx_i2c.c ****   ErrorStatus status = ERROR;
 1436              		.loc 1 1162 3 view .LVU396
1163:Drivers/STM32F4xx_StdPeriph_Driver/src/stm32f4xx_i2c.c **** 
1164:Drivers/STM32F4xx_StdPeriph_Driver/src/stm32f4xx_i2c.c ****   /* Check the parameters */
1165:Drivers/STM32F4xx_StdPeriph_Driver/src/stm32f4xx_i2c.c ****   assert_param(IS_I2C_ALL_PERIPH(I2Cx));
 1437              		.loc 1 1165 3 view .LVU397
1166:Drivers/STM32F4xx_StdPeriph_Driver/src/stm32f4xx_i2c.c ****   assert_param(IS_I2C_EVENT(I2C_EVENT));
 1438              		.loc 1 1166 3 view .LVU398
1167:Drivers/STM32F4xx_StdPeriph_Driver/src/stm32f4xx_i2c.c **** 
1168:Drivers/STM32F4xx_StdPeriph_Driver/src/stm32f4xx_i2c.c ****   /* Read the I2Cx status register */
1169:Drivers/STM32F4xx_StdPeriph_Driver/src/stm32f4xx_i2c.c ****   flag1 = I2Cx->SR1;
 1439              		.loc 1 1169 3 view .LVU399
 1440              		.loc 1 1169 15 is_stmt 0 view .LVU400
 1441 0000 838A     		ldrh	r3, [r0, #20]
 1442 0002 9BB2     		uxth	r3, r3
 1443              	.LVL91:
1170:Drivers/STM32F4xx_StdPeriph_Driver/src/stm32f4xx_i2c.c ****   flag2 = I2Cx->SR2;
 1444              		.loc 1 1170 3 is_stmt 1 view .LVU401
 1445              		.loc 1 1170 15 is_stmt 0 view .LVU402
 1446 0004 028B     		ldrh	r2, [r0, #24]
 1447              	.LVL92:
1171:Drivers/STM32F4xx_StdPeriph_Driver/src/stm32f4xx_i2c.c ****   flag2 = flag2 << 16;
 1448              		.loc 1 1171 3 is_stmt 1 view .LVU403
1172:Drivers/STM32F4xx_StdPeriph_Driver/src/stm32f4xx_i2c.c **** 
1173:Drivers/STM32F4xx_StdPeriph_Driver/src/stm32f4xx_i2c.c ****   /* Get the last event value from I2C status register */
1174:Drivers/STM32F4xx_StdPeriph_Driver/src/stm32f4xx_i2c.c ****   lastevent = (flag1 | flag2) & FLAG_MASK;
 1449              		.loc 1 1174 3 view .LVU404
 1450              		.loc 1 1174 22 is_stmt 0 view .LVU405
 1451 0006 43EA0243 		orr	r3, r3, r2, lsl #16
 1452              	.LVL93:
 1453              		.loc 1 1174 13 view .LVU406
 1454 000a 23F07F43 		bic	r3, r3, #-16777216
 1455              	.LVL94:
1175:Drivers/STM32F4xx_StdPeriph_Driver/src/stm32f4xx_i2c.c **** 
1176:Drivers/STM32F4xx_StdPeriph_Driver/src/stm32f4xx_i2c.c ****   /* Check whether the last event contains the I2C_EVENT */
1177:Drivers/STM32F4xx_StdPeriph_Driver/src/stm32f4xx_i2c.c ****   if ((lastevent & I2C_EVENT) == I2C_EVENT)
 1456              		.loc 1 1177 3 is_stmt 1 view .LVU407
 1457              		.loc 1 1177 6 is_stmt 0 view .LVU408
 1458 000e 31EA0303 		bics	r3, r1, r3
 1459              	.LVL95:
 1460              		.loc 1 1177 6 view .LVU409
ARM GAS  /tmp/ccGdFbQ0.s 			page 47


 1461 0012 01D0     		beq	.L97
1178:Drivers/STM32F4xx_StdPeriph_Driver/src/stm32f4xx_i2c.c ****   {
1179:Drivers/STM32F4xx_StdPeriph_Driver/src/stm32f4xx_i2c.c ****     /* SUCCESS: last event is equal to I2C_EVENT */
1180:Drivers/STM32F4xx_StdPeriph_Driver/src/stm32f4xx_i2c.c ****     status = SUCCESS;
1181:Drivers/STM32F4xx_StdPeriph_Driver/src/stm32f4xx_i2c.c ****   }
1182:Drivers/STM32F4xx_StdPeriph_Driver/src/stm32f4xx_i2c.c ****   else
1183:Drivers/STM32F4xx_StdPeriph_Driver/src/stm32f4xx_i2c.c ****   {
1184:Drivers/STM32F4xx_StdPeriph_Driver/src/stm32f4xx_i2c.c ****     /* ERROR: last event is different from I2C_EVENT */
1185:Drivers/STM32F4xx_StdPeriph_Driver/src/stm32f4xx_i2c.c ****     status = ERROR;
 1462              		.loc 1 1185 12 view .LVU410
 1463 0014 0020     		movs	r0, #0
 1464              	.LVL96:
1186:Drivers/STM32F4xx_StdPeriph_Driver/src/stm32f4xx_i2c.c ****   }
1187:Drivers/STM32F4xx_StdPeriph_Driver/src/stm32f4xx_i2c.c ****   /* Return status */
1188:Drivers/STM32F4xx_StdPeriph_Driver/src/stm32f4xx_i2c.c ****   return status;
 1465              		.loc 1 1188 3 is_stmt 1 view .LVU411
1189:Drivers/STM32F4xx_StdPeriph_Driver/src/stm32f4xx_i2c.c **** }
 1466              		.loc 1 1189 1 is_stmt 0 view .LVU412
 1467 0016 7047     		bx	lr
 1468              	.LVL97:
 1469              	.L97:
1180:Drivers/STM32F4xx_StdPeriph_Driver/src/stm32f4xx_i2c.c ****   }
 1470              		.loc 1 1180 12 view .LVU413
 1471 0018 0120     		movs	r0, #1
 1472              	.LVL98:
1180:Drivers/STM32F4xx_StdPeriph_Driver/src/stm32f4xx_i2c.c ****   }
 1473              		.loc 1 1180 12 view .LVU414
 1474 001a 7047     		bx	lr
 1475              		.cfi_endproc
 1476              	.LFE152:
 1478              		.section	.text.I2C_GetLastEvent,"ax",%progbits
 1479              		.align	1
 1480              		.global	I2C_GetLastEvent
 1481              		.syntax unified
 1482              		.thumb
 1483              		.thumb_func
 1485              	I2C_GetLastEvent:
 1486              	.LVL99:
 1487              	.LFB153:
1190:Drivers/STM32F4xx_StdPeriph_Driver/src/stm32f4xx_i2c.c **** 
1191:Drivers/STM32F4xx_StdPeriph_Driver/src/stm32f4xx_i2c.c **** /*
1192:Drivers/STM32F4xx_StdPeriph_Driver/src/stm32f4xx_i2c.c ****  ===============================================================================
1193:Drivers/STM32F4xx_StdPeriph_Driver/src/stm32f4xx_i2c.c ****                           2. Advanced state monitoring                   
1194:Drivers/STM32F4xx_StdPeriph_Driver/src/stm32f4xx_i2c.c ****  ===============================================================================  
1195:Drivers/STM32F4xx_StdPeriph_Driver/src/stm32f4xx_i2c.c ****  */
1196:Drivers/STM32F4xx_StdPeriph_Driver/src/stm32f4xx_i2c.c **** 
1197:Drivers/STM32F4xx_StdPeriph_Driver/src/stm32f4xx_i2c.c **** /**
1198:Drivers/STM32F4xx_StdPeriph_Driver/src/stm32f4xx_i2c.c ****   * @brief  Returns the last I2Cx Event.
1199:Drivers/STM32F4xx_StdPeriph_Driver/src/stm32f4xx_i2c.c ****   * @param  I2Cx: where x can be 1, 2 or 3 to select the I2C peripheral.
1200:Drivers/STM32F4xx_StdPeriph_Driver/src/stm32f4xx_i2c.c ****   *     
1201:Drivers/STM32F4xx_StdPeriph_Driver/src/stm32f4xx_i2c.c ****   * @note   For detailed description of Events, please refer to section I2C_Events
1202:Drivers/STM32F4xx_StdPeriph_Driver/src/stm32f4xx_i2c.c ****   *         in stm32f4xx_i2c.h file.
1203:Drivers/STM32F4xx_StdPeriph_Driver/src/stm32f4xx_i2c.c ****   *    
1204:Drivers/STM32F4xx_StdPeriph_Driver/src/stm32f4xx_i2c.c ****   * @retval The last event
1205:Drivers/STM32F4xx_StdPeriph_Driver/src/stm32f4xx_i2c.c ****   */
1206:Drivers/STM32F4xx_StdPeriph_Driver/src/stm32f4xx_i2c.c **** uint32_t I2C_GetLastEvent(I2C_TypeDef* I2Cx)
1207:Drivers/STM32F4xx_StdPeriph_Driver/src/stm32f4xx_i2c.c **** {
ARM GAS  /tmp/ccGdFbQ0.s 			page 48


 1488              		.loc 1 1207 1 is_stmt 1 view -0
 1489              		.cfi_startproc
 1490              		@ args = 0, pretend = 0, frame = 0
 1491              		@ frame_needed = 0, uses_anonymous_args = 0
 1492              		@ link register save eliminated.
1208:Drivers/STM32F4xx_StdPeriph_Driver/src/stm32f4xx_i2c.c ****   uint32_t lastevent = 0;
 1493              		.loc 1 1208 3 view .LVU416
1209:Drivers/STM32F4xx_StdPeriph_Driver/src/stm32f4xx_i2c.c ****   uint32_t flag1 = 0, flag2 = 0;
 1494              		.loc 1 1209 3 view .LVU417
1210:Drivers/STM32F4xx_StdPeriph_Driver/src/stm32f4xx_i2c.c **** 
1211:Drivers/STM32F4xx_StdPeriph_Driver/src/stm32f4xx_i2c.c ****   /* Check the parameters */
1212:Drivers/STM32F4xx_StdPeriph_Driver/src/stm32f4xx_i2c.c ****   assert_param(IS_I2C_ALL_PERIPH(I2Cx));
 1495              		.loc 1 1212 3 view .LVU418
1213:Drivers/STM32F4xx_StdPeriph_Driver/src/stm32f4xx_i2c.c **** 
1214:Drivers/STM32F4xx_StdPeriph_Driver/src/stm32f4xx_i2c.c ****   /* Read the I2Cx status register */
1215:Drivers/STM32F4xx_StdPeriph_Driver/src/stm32f4xx_i2c.c ****   flag1 = I2Cx->SR1;
 1496              		.loc 1 1215 3 view .LVU419
 1497              		.loc 1 1215 15 is_stmt 0 view .LVU420
 1498 0000 838A     		ldrh	r3, [r0, #20]
 1499 0002 9BB2     		uxth	r3, r3
 1500              	.LVL100:
1216:Drivers/STM32F4xx_StdPeriph_Driver/src/stm32f4xx_i2c.c ****   flag2 = I2Cx->SR2;
 1501              		.loc 1 1216 3 is_stmt 1 view .LVU421
 1502              		.loc 1 1216 15 is_stmt 0 view .LVU422
 1503 0004 008B     		ldrh	r0, [r0, #24]
 1504              	.LVL101:
1217:Drivers/STM32F4xx_StdPeriph_Driver/src/stm32f4xx_i2c.c ****   flag2 = flag2 << 16;
 1505              		.loc 1 1217 3 is_stmt 1 view .LVU423
1218:Drivers/STM32F4xx_StdPeriph_Driver/src/stm32f4xx_i2c.c **** 
1219:Drivers/STM32F4xx_StdPeriph_Driver/src/stm32f4xx_i2c.c ****   /* Get the last event value from I2C status register */
1220:Drivers/STM32F4xx_StdPeriph_Driver/src/stm32f4xx_i2c.c ****   lastevent = (flag1 | flag2) & FLAG_MASK;
 1506              		.loc 1 1220 3 view .LVU424
 1507              		.loc 1 1220 22 is_stmt 0 view .LVU425
 1508 0006 43EA0040 		orr	r0, r3, r0, lsl #16
 1509              	.LVL102:
1221:Drivers/STM32F4xx_StdPeriph_Driver/src/stm32f4xx_i2c.c **** 
1222:Drivers/STM32F4xx_StdPeriph_Driver/src/stm32f4xx_i2c.c ****   /* Return status */
1223:Drivers/STM32F4xx_StdPeriph_Driver/src/stm32f4xx_i2c.c ****   return lastevent;
 1510              		.loc 1 1223 3 is_stmt 1 view .LVU426
1224:Drivers/STM32F4xx_StdPeriph_Driver/src/stm32f4xx_i2c.c **** }
 1511              		.loc 1 1224 1 is_stmt 0 view .LVU427
 1512 000a 20F07F40 		bic	r0, r0, #-16777216
 1513              	.LVL103:
 1514              		.loc 1 1224 1 view .LVU428
 1515 000e 7047     		bx	lr
 1516              		.cfi_endproc
 1517              	.LFE153:
 1519              		.section	.text.I2C_GetFlagStatus,"ax",%progbits
 1520              		.align	1
 1521              		.global	I2C_GetFlagStatus
 1522              		.syntax unified
 1523              		.thumb
 1524              		.thumb_func
 1526              	I2C_GetFlagStatus:
 1527              	.LVL104:
 1528              	.LFB154:
1225:Drivers/STM32F4xx_StdPeriph_Driver/src/stm32f4xx_i2c.c **** 
ARM GAS  /tmp/ccGdFbQ0.s 			page 49


1226:Drivers/STM32F4xx_StdPeriph_Driver/src/stm32f4xx_i2c.c **** /*
1227:Drivers/STM32F4xx_StdPeriph_Driver/src/stm32f4xx_i2c.c ****  ===============================================================================
1228:Drivers/STM32F4xx_StdPeriph_Driver/src/stm32f4xx_i2c.c ****                           3. Flag-based state monitoring                   
1229:Drivers/STM32F4xx_StdPeriph_Driver/src/stm32f4xx_i2c.c ****  ===============================================================================  
1230:Drivers/STM32F4xx_StdPeriph_Driver/src/stm32f4xx_i2c.c ****  */
1231:Drivers/STM32F4xx_StdPeriph_Driver/src/stm32f4xx_i2c.c **** 
1232:Drivers/STM32F4xx_StdPeriph_Driver/src/stm32f4xx_i2c.c **** /**
1233:Drivers/STM32F4xx_StdPeriph_Driver/src/stm32f4xx_i2c.c ****   * @brief  Checks whether the specified I2C flag is set or not.
1234:Drivers/STM32F4xx_StdPeriph_Driver/src/stm32f4xx_i2c.c ****   * @param  I2Cx: where x can be 1, 2 or 3 to select the I2C peripheral.
1235:Drivers/STM32F4xx_StdPeriph_Driver/src/stm32f4xx_i2c.c ****   * @param  I2C_FLAG: specifies the flag to check. 
1236:Drivers/STM32F4xx_StdPeriph_Driver/src/stm32f4xx_i2c.c ****   *          This parameter can be one of the following values:
1237:Drivers/STM32F4xx_StdPeriph_Driver/src/stm32f4xx_i2c.c ****   *            @arg I2C_FLAG_DUALF: Dual flag (Slave mode)
1238:Drivers/STM32F4xx_StdPeriph_Driver/src/stm32f4xx_i2c.c ****   *            @arg I2C_FLAG_SMBHOST: SMBus host header (Slave mode)
1239:Drivers/STM32F4xx_StdPeriph_Driver/src/stm32f4xx_i2c.c ****   *            @arg I2C_FLAG_SMBDEFAULT: SMBus default header (Slave mode)
1240:Drivers/STM32F4xx_StdPeriph_Driver/src/stm32f4xx_i2c.c ****   *            @arg I2C_FLAG_GENCALL: General call header flag (Slave mode)
1241:Drivers/STM32F4xx_StdPeriph_Driver/src/stm32f4xx_i2c.c ****   *            @arg I2C_FLAG_TRA: Transmitter/Receiver flag
1242:Drivers/STM32F4xx_StdPeriph_Driver/src/stm32f4xx_i2c.c ****   *            @arg I2C_FLAG_BUSY: Bus busy flag
1243:Drivers/STM32F4xx_StdPeriph_Driver/src/stm32f4xx_i2c.c ****   *            @arg I2C_FLAG_MSL: Master/Slave flag
1244:Drivers/STM32F4xx_StdPeriph_Driver/src/stm32f4xx_i2c.c ****   *            @arg I2C_FLAG_SMBALERT: SMBus Alert flag
1245:Drivers/STM32F4xx_StdPeriph_Driver/src/stm32f4xx_i2c.c ****   *            @arg I2C_FLAG_TIMEOUT: Timeout or Tlow error flag
1246:Drivers/STM32F4xx_StdPeriph_Driver/src/stm32f4xx_i2c.c ****   *            @arg I2C_FLAG_PECERR: PEC error in reception flag
1247:Drivers/STM32F4xx_StdPeriph_Driver/src/stm32f4xx_i2c.c ****   *            @arg I2C_FLAG_OVR: Overrun/Underrun flag (Slave mode)
1248:Drivers/STM32F4xx_StdPeriph_Driver/src/stm32f4xx_i2c.c ****   *            @arg I2C_FLAG_AF: Acknowledge failure flag
1249:Drivers/STM32F4xx_StdPeriph_Driver/src/stm32f4xx_i2c.c ****   *            @arg I2C_FLAG_ARLO: Arbitration lost flag (Master mode)
1250:Drivers/STM32F4xx_StdPeriph_Driver/src/stm32f4xx_i2c.c ****   *            @arg I2C_FLAG_BERR: Bus error flag
1251:Drivers/STM32F4xx_StdPeriph_Driver/src/stm32f4xx_i2c.c ****   *            @arg I2C_FLAG_TXE: Data register empty flag (Transmitter)
1252:Drivers/STM32F4xx_StdPeriph_Driver/src/stm32f4xx_i2c.c ****   *            @arg I2C_FLAG_RXNE: Data register not empty (Receiver) flag
1253:Drivers/STM32F4xx_StdPeriph_Driver/src/stm32f4xx_i2c.c ****   *            @arg I2C_FLAG_STOPF: Stop detection flag (Slave mode)
1254:Drivers/STM32F4xx_StdPeriph_Driver/src/stm32f4xx_i2c.c ****   *            @arg I2C_FLAG_ADD10: 10-bit header sent flag (Master mode)
1255:Drivers/STM32F4xx_StdPeriph_Driver/src/stm32f4xx_i2c.c ****   *            @arg I2C_FLAG_BTF: Byte transfer finished flag
1256:Drivers/STM32F4xx_StdPeriph_Driver/src/stm32f4xx_i2c.c ****   *            @arg I2C_FLAG_ADDR: Address sent flag (Master mode) "ADSL"
1257:Drivers/STM32F4xx_StdPeriph_Driver/src/stm32f4xx_i2c.c ****   *                                Address matched flag (Slave mode)"ENDAD"
1258:Drivers/STM32F4xx_StdPeriph_Driver/src/stm32f4xx_i2c.c ****   *            @arg I2C_FLAG_SB: Start bit flag (Master mode)
1259:Drivers/STM32F4xx_StdPeriph_Driver/src/stm32f4xx_i2c.c ****   * @retval The new state of I2C_FLAG (SET or RESET).
1260:Drivers/STM32F4xx_StdPeriph_Driver/src/stm32f4xx_i2c.c ****   */
1261:Drivers/STM32F4xx_StdPeriph_Driver/src/stm32f4xx_i2c.c **** FlagStatus I2C_GetFlagStatus(I2C_TypeDef* I2Cx, uint32_t I2C_FLAG)
1262:Drivers/STM32F4xx_StdPeriph_Driver/src/stm32f4xx_i2c.c **** {
 1529              		.loc 1 1262 1 is_stmt 1 view -0
 1530              		.cfi_startproc
 1531              		@ args = 0, pretend = 0, frame = 8
 1532              		@ frame_needed = 0, uses_anonymous_args = 0
 1533              		@ link register save eliminated.
 1534              		.loc 1 1262 1 is_stmt 0 view .LVU430
 1535 0000 82B0     		sub	sp, sp, #8
 1536              		.cfi_def_cfa_offset 8
1263:Drivers/STM32F4xx_StdPeriph_Driver/src/stm32f4xx_i2c.c ****   FlagStatus bitstatus = RESET;
 1537              		.loc 1 1263 3 is_stmt 1 view .LVU431
 1538              	.LVL105:
1264:Drivers/STM32F4xx_StdPeriph_Driver/src/stm32f4xx_i2c.c ****   __IO uint32_t i2creg = 0, i2cxbase = 0;
 1539              		.loc 1 1264 3 view .LVU432
 1540              		.loc 1 1264 17 is_stmt 0 view .LVU433
 1541 0002 0023     		movs	r3, #0
 1542 0004 0193     		str	r3, [sp, #4]
 1543              		.loc 1 1264 29 view .LVU434
 1544 0006 0093     		str	r3, [sp]
1265:Drivers/STM32F4xx_StdPeriph_Driver/src/stm32f4xx_i2c.c **** 
1266:Drivers/STM32F4xx_StdPeriph_Driver/src/stm32f4xx_i2c.c ****   /* Check the parameters */
ARM GAS  /tmp/ccGdFbQ0.s 			page 50


1267:Drivers/STM32F4xx_StdPeriph_Driver/src/stm32f4xx_i2c.c ****   assert_param(IS_I2C_ALL_PERIPH(I2Cx));
 1545              		.loc 1 1267 3 is_stmt 1 view .LVU435
1268:Drivers/STM32F4xx_StdPeriph_Driver/src/stm32f4xx_i2c.c ****   assert_param(IS_I2C_GET_FLAG(I2C_FLAG));
 1546              		.loc 1 1268 3 view .LVU436
1269:Drivers/STM32F4xx_StdPeriph_Driver/src/stm32f4xx_i2c.c **** 
1270:Drivers/STM32F4xx_StdPeriph_Driver/src/stm32f4xx_i2c.c ****   /* Get the I2Cx peripheral base address */
1271:Drivers/STM32F4xx_StdPeriph_Driver/src/stm32f4xx_i2c.c ****   i2cxbase = (uint32_t)I2Cx;
 1547              		.loc 1 1271 3 view .LVU437
 1548              		.loc 1 1271 12 is_stmt 0 view .LVU438
 1549 0008 0090     		str	r0, [sp]
1272:Drivers/STM32F4xx_StdPeriph_Driver/src/stm32f4xx_i2c.c ****   
1273:Drivers/STM32F4xx_StdPeriph_Driver/src/stm32f4xx_i2c.c ****   /* Read flag register index */
1274:Drivers/STM32F4xx_StdPeriph_Driver/src/stm32f4xx_i2c.c ****   i2creg = I2C_FLAG >> 28;
 1550              		.loc 1 1274 3 is_stmt 1 view .LVU439
 1551              		.loc 1 1274 21 is_stmt 0 view .LVU440
 1552 000a 0B0F     		lsrs	r3, r1, #28
 1553              		.loc 1 1274 10 view .LVU441
 1554 000c 0193     		str	r3, [sp, #4]
1275:Drivers/STM32F4xx_StdPeriph_Driver/src/stm32f4xx_i2c.c ****   
1276:Drivers/STM32F4xx_StdPeriph_Driver/src/stm32f4xx_i2c.c ****   /* Get bit[23:0] of the flag */
1277:Drivers/STM32F4xx_StdPeriph_Driver/src/stm32f4xx_i2c.c ****   I2C_FLAG &= FLAG_MASK;
 1555              		.loc 1 1277 3 is_stmt 1 view .LVU442
 1556              		.loc 1 1277 12 is_stmt 0 view .LVU443
 1557 000e 21F07F41 		bic	r1, r1, #-16777216
 1558              	.LVL106:
1278:Drivers/STM32F4xx_StdPeriph_Driver/src/stm32f4xx_i2c.c ****   
1279:Drivers/STM32F4xx_StdPeriph_Driver/src/stm32f4xx_i2c.c ****   if(i2creg != 0)
 1559              		.loc 1 1279 3 is_stmt 1 view .LVU444
 1560              		.loc 1 1279 13 is_stmt 0 view .LVU445
 1561 0012 019B     		ldr	r3, [sp, #4]
 1562              		.loc 1 1279 5 view .LVU446
 1563 0014 4BB1     		cbz	r3, .L100
1280:Drivers/STM32F4xx_StdPeriph_Driver/src/stm32f4xx_i2c.c ****   {
1281:Drivers/STM32F4xx_StdPeriph_Driver/src/stm32f4xx_i2c.c ****     /* Get the I2Cx SR1 register address */
1282:Drivers/STM32F4xx_StdPeriph_Driver/src/stm32f4xx_i2c.c ****     i2cxbase += 0x14;
 1564              		.loc 1 1282 5 is_stmt 1 view .LVU447
 1565              		.loc 1 1282 14 is_stmt 0 view .LVU448
 1566 0016 009B     		ldr	r3, [sp]
 1567 0018 1433     		adds	r3, r3, #20
 1568 001a 0093     		str	r3, [sp]
 1569              	.L101:
1283:Drivers/STM32F4xx_StdPeriph_Driver/src/stm32f4xx_i2c.c ****   }
1284:Drivers/STM32F4xx_StdPeriph_Driver/src/stm32f4xx_i2c.c ****   else
1285:Drivers/STM32F4xx_StdPeriph_Driver/src/stm32f4xx_i2c.c ****   {
1286:Drivers/STM32F4xx_StdPeriph_Driver/src/stm32f4xx_i2c.c ****     /* Flag in I2Cx SR2 Register */
1287:Drivers/STM32F4xx_StdPeriph_Driver/src/stm32f4xx_i2c.c ****     I2C_FLAG = (uint32_t)(I2C_FLAG >> 16);
1288:Drivers/STM32F4xx_StdPeriph_Driver/src/stm32f4xx_i2c.c ****     /* Get the I2Cx SR2 register address */
1289:Drivers/STM32F4xx_StdPeriph_Driver/src/stm32f4xx_i2c.c ****     i2cxbase += 0x18;
1290:Drivers/STM32F4xx_StdPeriph_Driver/src/stm32f4xx_i2c.c ****   }
1291:Drivers/STM32F4xx_StdPeriph_Driver/src/stm32f4xx_i2c.c ****   
1292:Drivers/STM32F4xx_StdPeriph_Driver/src/stm32f4xx_i2c.c ****   if(((*(__IO uint32_t *)i2cxbase) & I2C_FLAG) != (uint32_t)RESET)
 1570              		.loc 1 1292 3 is_stmt 1 view .LVU449
 1571              		.loc 1 1292 9 is_stmt 0 view .LVU450
 1572 001c 009B     		ldr	r3, [sp]
 1573              		.loc 1 1292 8 view .LVU451
 1574 001e 1B68     		ldr	r3, [r3]
 1575              		.loc 1 1292 5 view .LVU452
ARM GAS  /tmp/ccGdFbQ0.s 			page 51


 1576 0020 0B42     		tst	r3, r1
 1577 0022 07D0     		beq	.L103
1293:Drivers/STM32F4xx_StdPeriph_Driver/src/stm32f4xx_i2c.c ****   {
1294:Drivers/STM32F4xx_StdPeriph_Driver/src/stm32f4xx_i2c.c ****     /* I2C_FLAG is set */
1295:Drivers/STM32F4xx_StdPeriph_Driver/src/stm32f4xx_i2c.c ****     bitstatus = SET;
 1578              		.loc 1 1295 15 view .LVU453
 1579 0024 0120     		movs	r0, #1
 1580              	.LVL107:
 1581              	.L102:
1296:Drivers/STM32F4xx_StdPeriph_Driver/src/stm32f4xx_i2c.c ****   }
1297:Drivers/STM32F4xx_StdPeriph_Driver/src/stm32f4xx_i2c.c ****   else
1298:Drivers/STM32F4xx_StdPeriph_Driver/src/stm32f4xx_i2c.c ****   {
1299:Drivers/STM32F4xx_StdPeriph_Driver/src/stm32f4xx_i2c.c ****     /* I2C_FLAG is reset */
1300:Drivers/STM32F4xx_StdPeriph_Driver/src/stm32f4xx_i2c.c ****     bitstatus = RESET;
1301:Drivers/STM32F4xx_StdPeriph_Driver/src/stm32f4xx_i2c.c ****   }
1302:Drivers/STM32F4xx_StdPeriph_Driver/src/stm32f4xx_i2c.c ****   
1303:Drivers/STM32F4xx_StdPeriph_Driver/src/stm32f4xx_i2c.c ****   /* Return the I2C_FLAG status */
1304:Drivers/STM32F4xx_StdPeriph_Driver/src/stm32f4xx_i2c.c ****   return  bitstatus;
 1582              		.loc 1 1304 3 is_stmt 1 view .LVU454
1305:Drivers/STM32F4xx_StdPeriph_Driver/src/stm32f4xx_i2c.c **** }
 1583              		.loc 1 1305 1 is_stmt 0 view .LVU455
 1584 0026 02B0     		add	sp, sp, #8
 1585              		.cfi_remember_state
 1586              		.cfi_def_cfa_offset 0
 1587              		@ sp needed
 1588 0028 7047     		bx	lr
 1589              	.LVL108:
 1590              	.L100:
 1591              		.cfi_restore_state
1287:Drivers/STM32F4xx_StdPeriph_Driver/src/stm32f4xx_i2c.c ****     /* Get the I2Cx SR2 register address */
 1592              		.loc 1 1287 5 is_stmt 1 view .LVU456
1287:Drivers/STM32F4xx_StdPeriph_Driver/src/stm32f4xx_i2c.c ****     /* Get the I2Cx SR2 register address */
 1593              		.loc 1 1287 14 is_stmt 0 view .LVU457
 1594 002a 090C     		lsrs	r1, r1, #16
 1595              	.LVL109:
1289:Drivers/STM32F4xx_StdPeriph_Driver/src/stm32f4xx_i2c.c ****   }
 1596              		.loc 1 1289 5 is_stmt 1 view .LVU458
1289:Drivers/STM32F4xx_StdPeriph_Driver/src/stm32f4xx_i2c.c ****   }
 1597              		.loc 1 1289 14 is_stmt 0 view .LVU459
 1598 002c 009B     		ldr	r3, [sp]
 1599 002e 1833     		adds	r3, r3, #24
 1600 0030 0093     		str	r3, [sp]
 1601 0032 F3E7     		b	.L101
 1602              	.L103:
1300:Drivers/STM32F4xx_StdPeriph_Driver/src/stm32f4xx_i2c.c ****   }
 1603              		.loc 1 1300 15 view .LVU460
 1604 0034 0020     		movs	r0, #0
 1605              	.LVL110:
1300:Drivers/STM32F4xx_StdPeriph_Driver/src/stm32f4xx_i2c.c ****   }
 1606              		.loc 1 1300 15 view .LVU461
 1607 0036 F6E7     		b	.L102
 1608              		.cfi_endproc
 1609              	.LFE154:
 1611              		.section	.text.I2C_ClearFlag,"ax",%progbits
 1612              		.align	1
 1613              		.global	I2C_ClearFlag
 1614              		.syntax unified
ARM GAS  /tmp/ccGdFbQ0.s 			page 52


 1615              		.thumb
 1616              		.thumb_func
 1618              	I2C_ClearFlag:
 1619              	.LVL111:
 1620              	.LFB155:
1306:Drivers/STM32F4xx_StdPeriph_Driver/src/stm32f4xx_i2c.c **** 
1307:Drivers/STM32F4xx_StdPeriph_Driver/src/stm32f4xx_i2c.c **** /**
1308:Drivers/STM32F4xx_StdPeriph_Driver/src/stm32f4xx_i2c.c ****   * @brief  Clears the I2Cx's pending flags.
1309:Drivers/STM32F4xx_StdPeriph_Driver/src/stm32f4xx_i2c.c ****   * @param  I2Cx: where x can be 1, 2 or 3 to select the I2C peripheral.
1310:Drivers/STM32F4xx_StdPeriph_Driver/src/stm32f4xx_i2c.c ****   * @param  I2C_FLAG: specifies the flag to clear. 
1311:Drivers/STM32F4xx_StdPeriph_Driver/src/stm32f4xx_i2c.c ****   *          This parameter can be any combination of the following values:
1312:Drivers/STM32F4xx_StdPeriph_Driver/src/stm32f4xx_i2c.c ****   *            @arg I2C_FLAG_SMBALERT: SMBus Alert flag
1313:Drivers/STM32F4xx_StdPeriph_Driver/src/stm32f4xx_i2c.c ****   *            @arg I2C_FLAG_TIMEOUT: Timeout or Tlow error flag
1314:Drivers/STM32F4xx_StdPeriph_Driver/src/stm32f4xx_i2c.c ****   *            @arg I2C_FLAG_PECERR: PEC error in reception flag
1315:Drivers/STM32F4xx_StdPeriph_Driver/src/stm32f4xx_i2c.c ****   *            @arg I2C_FLAG_OVR: Overrun/Underrun flag (Slave mode)
1316:Drivers/STM32F4xx_StdPeriph_Driver/src/stm32f4xx_i2c.c ****   *            @arg I2C_FLAG_AF: Acknowledge failure flag
1317:Drivers/STM32F4xx_StdPeriph_Driver/src/stm32f4xx_i2c.c ****   *            @arg I2C_FLAG_ARLO: Arbitration lost flag (Master mode)
1318:Drivers/STM32F4xx_StdPeriph_Driver/src/stm32f4xx_i2c.c ****   *            @arg I2C_FLAG_BERR: Bus error flag
1319:Drivers/STM32F4xx_StdPeriph_Driver/src/stm32f4xx_i2c.c ****   *   
1320:Drivers/STM32F4xx_StdPeriph_Driver/src/stm32f4xx_i2c.c ****   * @note   STOPF (STOP detection) is cleared by software sequence: a read operation 
1321:Drivers/STM32F4xx_StdPeriph_Driver/src/stm32f4xx_i2c.c ****   *          to I2C_SR1 register (I2C_GetFlagStatus()) followed by a write operation 
1322:Drivers/STM32F4xx_StdPeriph_Driver/src/stm32f4xx_i2c.c ****   *          to I2C_CR1 register (I2C_Cmd() to re-enable the I2C peripheral).
1323:Drivers/STM32F4xx_StdPeriph_Driver/src/stm32f4xx_i2c.c ****   * @note   ADD10 (10-bit header sent) is cleared by software sequence: a read 
1324:Drivers/STM32F4xx_StdPeriph_Driver/src/stm32f4xx_i2c.c ****   *          operation to I2C_SR1 (I2C_GetFlagStatus()) followed by writing the 
1325:Drivers/STM32F4xx_StdPeriph_Driver/src/stm32f4xx_i2c.c ****   *          second byte of the address in DR register.
1326:Drivers/STM32F4xx_StdPeriph_Driver/src/stm32f4xx_i2c.c ****   * @note   BTF (Byte Transfer Finished) is cleared by software sequence: a read 
1327:Drivers/STM32F4xx_StdPeriph_Driver/src/stm32f4xx_i2c.c ****   *          operation to I2C_SR1 register (I2C_GetFlagStatus()) followed by a 
1328:Drivers/STM32F4xx_StdPeriph_Driver/src/stm32f4xx_i2c.c ****   *          read/write to I2C_DR register (I2C_SendData()).
1329:Drivers/STM32F4xx_StdPeriph_Driver/src/stm32f4xx_i2c.c ****   * @note   ADDR (Address sent) is cleared by software sequence: a read operation to 
1330:Drivers/STM32F4xx_StdPeriph_Driver/src/stm32f4xx_i2c.c ****   *          I2C_SR1 register (I2C_GetFlagStatus()) followed by a read operation to 
1331:Drivers/STM32F4xx_StdPeriph_Driver/src/stm32f4xx_i2c.c ****   *          I2C_SR2 register ((void)(I2Cx->SR2)).
1332:Drivers/STM32F4xx_StdPeriph_Driver/src/stm32f4xx_i2c.c ****   * @note   SB (Start Bit) is cleared software sequence: a read operation to I2C_SR1
1333:Drivers/STM32F4xx_StdPeriph_Driver/src/stm32f4xx_i2c.c ****   *          register (I2C_GetFlagStatus()) followed by a write operation to I2C_DR
1334:Drivers/STM32F4xx_StdPeriph_Driver/src/stm32f4xx_i2c.c ****   *          register (I2C_SendData()).
1335:Drivers/STM32F4xx_StdPeriph_Driver/src/stm32f4xx_i2c.c ****   *  
1336:Drivers/STM32F4xx_StdPeriph_Driver/src/stm32f4xx_i2c.c ****   * @retval None
1337:Drivers/STM32F4xx_StdPeriph_Driver/src/stm32f4xx_i2c.c ****   */
1338:Drivers/STM32F4xx_StdPeriph_Driver/src/stm32f4xx_i2c.c **** void I2C_ClearFlag(I2C_TypeDef* I2Cx, uint32_t I2C_FLAG)
1339:Drivers/STM32F4xx_StdPeriph_Driver/src/stm32f4xx_i2c.c **** {
 1621              		.loc 1 1339 1 is_stmt 1 view -0
 1622              		.cfi_startproc
 1623              		@ args = 0, pretend = 0, frame = 0
 1624              		@ frame_needed = 0, uses_anonymous_args = 0
 1625              		@ link register save eliminated.
1340:Drivers/STM32F4xx_StdPeriph_Driver/src/stm32f4xx_i2c.c ****   uint32_t flagpos = 0;
 1626              		.loc 1 1340 3 view .LVU463
1341:Drivers/STM32F4xx_StdPeriph_Driver/src/stm32f4xx_i2c.c ****   /* Check the parameters */
1342:Drivers/STM32F4xx_StdPeriph_Driver/src/stm32f4xx_i2c.c ****   assert_param(IS_I2C_ALL_PERIPH(I2Cx));
 1627              		.loc 1 1342 3 view .LVU464
1343:Drivers/STM32F4xx_StdPeriph_Driver/src/stm32f4xx_i2c.c ****   assert_param(IS_I2C_CLEAR_FLAG(I2C_FLAG));
 1628              		.loc 1 1343 3 view .LVU465
1344:Drivers/STM32F4xx_StdPeriph_Driver/src/stm32f4xx_i2c.c ****   /* Get the I2C flag position */
1345:Drivers/STM32F4xx_StdPeriph_Driver/src/stm32f4xx_i2c.c ****   flagpos = I2C_FLAG & FLAG_MASK;
 1629              		.loc 1 1345 3 view .LVU466
 1630              		.loc 1 1345 11 is_stmt 0 view .LVU467
 1631 0000 21F07F41 		bic	r1, r1, #-16777216
 1632              	.LVL112:
ARM GAS  /tmp/ccGdFbQ0.s 			page 53


1346:Drivers/STM32F4xx_StdPeriph_Driver/src/stm32f4xx_i2c.c ****   /* Clear the selected I2C flag */
1347:Drivers/STM32F4xx_StdPeriph_Driver/src/stm32f4xx_i2c.c ****   I2Cx->SR1 = (uint16_t)~flagpos;
 1633              		.loc 1 1347 3 is_stmt 1 view .LVU468
 1634              		.loc 1 1347 15 is_stmt 0 view .LVU469
 1635 0004 C943     		mvns	r1, r1
 1636              	.LVL113:
 1637              		.loc 1 1347 15 view .LVU470
 1638 0006 89B2     		uxth	r1, r1
 1639              	.LVL114:
 1640              		.loc 1 1347 13 view .LVU471
 1641 0008 8182     		strh	r1, [r0, #20]	@ movhi
1348:Drivers/STM32F4xx_StdPeriph_Driver/src/stm32f4xx_i2c.c **** }
 1642              		.loc 1 1348 1 view .LVU472
 1643 000a 7047     		bx	lr
 1644              		.cfi_endproc
 1645              	.LFE155:
 1647              		.section	.text.I2C_GetITStatus,"ax",%progbits
 1648              		.align	1
 1649              		.global	I2C_GetITStatus
 1650              		.syntax unified
 1651              		.thumb
 1652              		.thumb_func
 1654              	I2C_GetITStatus:
 1655              	.LVL115:
 1656              	.LFB156:
1349:Drivers/STM32F4xx_StdPeriph_Driver/src/stm32f4xx_i2c.c **** 
1350:Drivers/STM32F4xx_StdPeriph_Driver/src/stm32f4xx_i2c.c **** /**
1351:Drivers/STM32F4xx_StdPeriph_Driver/src/stm32f4xx_i2c.c ****   * @brief  Checks whether the specified I2C interrupt has occurred or not.
1352:Drivers/STM32F4xx_StdPeriph_Driver/src/stm32f4xx_i2c.c ****   * @param  I2Cx: where x can be 1, 2 or 3 to select the I2C peripheral.
1353:Drivers/STM32F4xx_StdPeriph_Driver/src/stm32f4xx_i2c.c ****   * @param  I2C_IT: specifies the interrupt source to check. 
1354:Drivers/STM32F4xx_StdPeriph_Driver/src/stm32f4xx_i2c.c ****   *          This parameter can be one of the following values:
1355:Drivers/STM32F4xx_StdPeriph_Driver/src/stm32f4xx_i2c.c ****   *            @arg I2C_IT_SMBALERT: SMBus Alert flag
1356:Drivers/STM32F4xx_StdPeriph_Driver/src/stm32f4xx_i2c.c ****   *            @arg I2C_IT_TIMEOUT: Timeout or Tlow error flag
1357:Drivers/STM32F4xx_StdPeriph_Driver/src/stm32f4xx_i2c.c ****   *            @arg I2C_IT_PECERR: PEC error in reception flag
1358:Drivers/STM32F4xx_StdPeriph_Driver/src/stm32f4xx_i2c.c ****   *            @arg I2C_IT_OVR: Overrun/Underrun flag (Slave mode)
1359:Drivers/STM32F4xx_StdPeriph_Driver/src/stm32f4xx_i2c.c ****   *            @arg I2C_IT_AF: Acknowledge failure flag
1360:Drivers/STM32F4xx_StdPeriph_Driver/src/stm32f4xx_i2c.c ****   *            @arg I2C_IT_ARLO: Arbitration lost flag (Master mode)
1361:Drivers/STM32F4xx_StdPeriph_Driver/src/stm32f4xx_i2c.c ****   *            @arg I2C_IT_BERR: Bus error flag
1362:Drivers/STM32F4xx_StdPeriph_Driver/src/stm32f4xx_i2c.c ****   *            @arg I2C_IT_TXE: Data register empty flag (Transmitter)
1363:Drivers/STM32F4xx_StdPeriph_Driver/src/stm32f4xx_i2c.c ****   *            @arg I2C_IT_RXNE: Data register not empty (Receiver) flag
1364:Drivers/STM32F4xx_StdPeriph_Driver/src/stm32f4xx_i2c.c ****   *            @arg I2C_IT_STOPF: Stop detection flag (Slave mode)
1365:Drivers/STM32F4xx_StdPeriph_Driver/src/stm32f4xx_i2c.c ****   *            @arg I2C_IT_ADD10: 10-bit header sent flag (Master mode)
1366:Drivers/STM32F4xx_StdPeriph_Driver/src/stm32f4xx_i2c.c ****   *            @arg I2C_IT_BTF: Byte transfer finished flag
1367:Drivers/STM32F4xx_StdPeriph_Driver/src/stm32f4xx_i2c.c ****   *            @arg I2C_IT_ADDR: Address sent flag (Master mode) "ADSL"
1368:Drivers/STM32F4xx_StdPeriph_Driver/src/stm32f4xx_i2c.c ****   *                              Address matched flag (Slave mode)"ENDAD"
1369:Drivers/STM32F4xx_StdPeriph_Driver/src/stm32f4xx_i2c.c ****   *            @arg I2C_IT_SB: Start bit flag (Master mode)
1370:Drivers/STM32F4xx_StdPeriph_Driver/src/stm32f4xx_i2c.c ****   * @retval The new state of I2C_IT (SET or RESET).
1371:Drivers/STM32F4xx_StdPeriph_Driver/src/stm32f4xx_i2c.c ****   */
1372:Drivers/STM32F4xx_StdPeriph_Driver/src/stm32f4xx_i2c.c **** ITStatus I2C_GetITStatus(I2C_TypeDef* I2Cx, uint32_t I2C_IT)
1373:Drivers/STM32F4xx_StdPeriph_Driver/src/stm32f4xx_i2c.c **** {
 1657              		.loc 1 1373 1 is_stmt 1 view -0
 1658              		.cfi_startproc
 1659              		@ args = 0, pretend = 0, frame = 0
 1660              		@ frame_needed = 0, uses_anonymous_args = 0
 1661              		@ link register save eliminated.
1374:Drivers/STM32F4xx_StdPeriph_Driver/src/stm32f4xx_i2c.c ****   ITStatus bitstatus = RESET;
 1662              		.loc 1 1374 3 view .LVU474
ARM GAS  /tmp/ccGdFbQ0.s 			page 54


1375:Drivers/STM32F4xx_StdPeriph_Driver/src/stm32f4xx_i2c.c ****   uint32_t enablestatus = 0;
 1663              		.loc 1 1375 3 view .LVU475
1376:Drivers/STM32F4xx_StdPeriph_Driver/src/stm32f4xx_i2c.c **** 
1377:Drivers/STM32F4xx_StdPeriph_Driver/src/stm32f4xx_i2c.c ****   /* Check the parameters */
1378:Drivers/STM32F4xx_StdPeriph_Driver/src/stm32f4xx_i2c.c ****   assert_param(IS_I2C_ALL_PERIPH(I2Cx));
 1664              		.loc 1 1378 3 view .LVU476
1379:Drivers/STM32F4xx_StdPeriph_Driver/src/stm32f4xx_i2c.c ****   assert_param(IS_I2C_GET_IT(I2C_IT));
 1665              		.loc 1 1379 3 view .LVU477
1380:Drivers/STM32F4xx_StdPeriph_Driver/src/stm32f4xx_i2c.c **** 
1381:Drivers/STM32F4xx_StdPeriph_Driver/src/stm32f4xx_i2c.c ****   /* Check if the interrupt source is enabled or not */
1382:Drivers/STM32F4xx_StdPeriph_Driver/src/stm32f4xx_i2c.c ****   enablestatus = (uint32_t)(((I2C_IT & ITEN_MASK) >> 16) & (I2Cx->CR2)) ;
 1666              		.loc 1 1382 3 view .LVU478
 1667              		.loc 1 1382 65 is_stmt 0 view .LVU479
 1668 0000 8388     		ldrh	r3, [r0, #4]
 1669              		.loc 1 1382 18 view .LVU480
 1670 0002 03EA1143 		and	r3, r3, r1, lsr #16
 1671              		.loc 1 1382 16 view .LVU481
 1672 0006 03F4E063 		and	r3, r3, #1792
 1673              	.LVL116:
1383:Drivers/STM32F4xx_StdPeriph_Driver/src/stm32f4xx_i2c.c ****   
1384:Drivers/STM32F4xx_StdPeriph_Driver/src/stm32f4xx_i2c.c ****   /* Get bit[23:0] of the flag */
1385:Drivers/STM32F4xx_StdPeriph_Driver/src/stm32f4xx_i2c.c ****   I2C_IT &= FLAG_MASK;
 1674              		.loc 1 1385 3 is_stmt 1 view .LVU482
1386:Drivers/STM32F4xx_StdPeriph_Driver/src/stm32f4xx_i2c.c **** 
1387:Drivers/STM32F4xx_StdPeriph_Driver/src/stm32f4xx_i2c.c ****   /* Check the status of the specified I2C flag */
1388:Drivers/STM32F4xx_StdPeriph_Driver/src/stm32f4xx_i2c.c ****   if (((I2Cx->SR1 & I2C_IT) != (uint32_t)RESET) && enablestatus)
 1675              		.loc 1 1388 3 view .LVU483
 1676              		.loc 1 1388 13 is_stmt 0 view .LVU484
 1677 000a 828A     		ldrh	r2, [r0, #20]
 1678 000c 92B2     		uxth	r2, r2
 1679              		.loc 1 1388 6 view .LVU485
 1680 000e 1142     		tst	r1, r2
 1681 0010 02D0     		beq	.L108
 1682              		.loc 1 1388 49 discriminator 1 view .LVU486
 1683 0012 1BB9     		cbnz	r3, .L109
1389:Drivers/STM32F4xx_StdPeriph_Driver/src/stm32f4xx_i2c.c ****   {
1390:Drivers/STM32F4xx_StdPeriph_Driver/src/stm32f4xx_i2c.c ****     /* I2C_IT is set */
1391:Drivers/STM32F4xx_StdPeriph_Driver/src/stm32f4xx_i2c.c ****     bitstatus = SET;
1392:Drivers/STM32F4xx_StdPeriph_Driver/src/stm32f4xx_i2c.c ****   }
1393:Drivers/STM32F4xx_StdPeriph_Driver/src/stm32f4xx_i2c.c ****   else
1394:Drivers/STM32F4xx_StdPeriph_Driver/src/stm32f4xx_i2c.c ****   {
1395:Drivers/STM32F4xx_StdPeriph_Driver/src/stm32f4xx_i2c.c ****     /* I2C_IT is reset */
1396:Drivers/STM32F4xx_StdPeriph_Driver/src/stm32f4xx_i2c.c ****     bitstatus = RESET;
 1684              		.loc 1 1396 15 view .LVU487
 1685 0014 0020     		movs	r0, #0
 1686              	.LVL117:
 1687              		.loc 1 1396 15 view .LVU488
 1688 0016 7047     		bx	lr
 1689              	.LVL118:
 1690              	.L108:
 1691              		.loc 1 1396 15 view .LVU489
 1692 0018 0020     		movs	r0, #0
 1693              	.LVL119:
 1694              		.loc 1 1396 15 view .LVU490
 1695 001a 7047     		bx	lr
 1696              	.LVL120:
 1697              	.L109:
ARM GAS  /tmp/ccGdFbQ0.s 			page 55


1391:Drivers/STM32F4xx_StdPeriph_Driver/src/stm32f4xx_i2c.c ****   }
 1698              		.loc 1 1391 15 view .LVU491
 1699 001c 0120     		movs	r0, #1
 1700              	.LVL121:
1397:Drivers/STM32F4xx_StdPeriph_Driver/src/stm32f4xx_i2c.c ****   }
1398:Drivers/STM32F4xx_StdPeriph_Driver/src/stm32f4xx_i2c.c ****   /* Return the I2C_IT status */
1399:Drivers/STM32F4xx_StdPeriph_Driver/src/stm32f4xx_i2c.c ****   return  bitstatus;
 1701              		.loc 1 1399 3 is_stmt 1 view .LVU492
1400:Drivers/STM32F4xx_StdPeriph_Driver/src/stm32f4xx_i2c.c **** }
 1702              		.loc 1 1400 1 is_stmt 0 view .LVU493
 1703 001e 7047     		bx	lr
 1704              		.cfi_endproc
 1705              	.LFE156:
 1707              		.section	.text.I2C_ClearITPendingBit,"ax",%progbits
 1708              		.align	1
 1709              		.global	I2C_ClearITPendingBit
 1710              		.syntax unified
 1711              		.thumb
 1712              		.thumb_func
 1714              	I2C_ClearITPendingBit:
 1715              	.LVL122:
 1716              	.LFB157:
1401:Drivers/STM32F4xx_StdPeriph_Driver/src/stm32f4xx_i2c.c **** 
1402:Drivers/STM32F4xx_StdPeriph_Driver/src/stm32f4xx_i2c.c **** /**
1403:Drivers/STM32F4xx_StdPeriph_Driver/src/stm32f4xx_i2c.c ****   * @brief  Clears the I2Cx's interrupt pending bits.
1404:Drivers/STM32F4xx_StdPeriph_Driver/src/stm32f4xx_i2c.c ****   * @param  I2Cx: where x can be 1, 2 or 3 to select the I2C peripheral.
1405:Drivers/STM32F4xx_StdPeriph_Driver/src/stm32f4xx_i2c.c ****   * @param  I2C_IT: specifies the interrupt pending bit to clear. 
1406:Drivers/STM32F4xx_StdPeriph_Driver/src/stm32f4xx_i2c.c ****   *          This parameter can be any combination of the following values:
1407:Drivers/STM32F4xx_StdPeriph_Driver/src/stm32f4xx_i2c.c ****   *            @arg I2C_IT_SMBALERT: SMBus Alert interrupt
1408:Drivers/STM32F4xx_StdPeriph_Driver/src/stm32f4xx_i2c.c ****   *            @arg I2C_IT_TIMEOUT: Timeout or Tlow error interrupt
1409:Drivers/STM32F4xx_StdPeriph_Driver/src/stm32f4xx_i2c.c ****   *            @arg I2C_IT_PECERR: PEC error in reception  interrupt
1410:Drivers/STM32F4xx_StdPeriph_Driver/src/stm32f4xx_i2c.c ****   *            @arg I2C_IT_OVR: Overrun/Underrun interrupt (Slave mode)
1411:Drivers/STM32F4xx_StdPeriph_Driver/src/stm32f4xx_i2c.c ****   *            @arg I2C_IT_AF: Acknowledge failure interrupt
1412:Drivers/STM32F4xx_StdPeriph_Driver/src/stm32f4xx_i2c.c ****   *            @arg I2C_IT_ARLO: Arbitration lost interrupt (Master mode)
1413:Drivers/STM32F4xx_StdPeriph_Driver/src/stm32f4xx_i2c.c ****   *            @arg I2C_IT_BERR: Bus error interrupt
1414:Drivers/STM32F4xx_StdPeriph_Driver/src/stm32f4xx_i2c.c ****   * 
1415:Drivers/STM32F4xx_StdPeriph_Driver/src/stm32f4xx_i2c.c ****   * @note   STOPF (STOP detection) is cleared by software sequence: a read operation 
1416:Drivers/STM32F4xx_StdPeriph_Driver/src/stm32f4xx_i2c.c ****   *          to I2C_SR1 register (I2C_GetITStatus()) followed by a write operation to 
1417:Drivers/STM32F4xx_StdPeriph_Driver/src/stm32f4xx_i2c.c ****   *          I2C_CR1 register (I2C_Cmd() to re-enable the I2C peripheral).
1418:Drivers/STM32F4xx_StdPeriph_Driver/src/stm32f4xx_i2c.c ****   * @note   ADD10 (10-bit header sent) is cleared by software sequence: a read 
1419:Drivers/STM32F4xx_StdPeriph_Driver/src/stm32f4xx_i2c.c ****   *          operation to I2C_SR1 (I2C_GetITStatus()) followed by writing the second 
1420:Drivers/STM32F4xx_StdPeriph_Driver/src/stm32f4xx_i2c.c ****   *          byte of the address in I2C_DR register.
1421:Drivers/STM32F4xx_StdPeriph_Driver/src/stm32f4xx_i2c.c ****   * @note   BTF (Byte Transfer Finished) is cleared by software sequence: a read 
1422:Drivers/STM32F4xx_StdPeriph_Driver/src/stm32f4xx_i2c.c ****   *          operation to I2C_SR1 register (I2C_GetITStatus()) followed by a 
1423:Drivers/STM32F4xx_StdPeriph_Driver/src/stm32f4xx_i2c.c ****   *          read/write to I2C_DR register (I2C_SendData()).
1424:Drivers/STM32F4xx_StdPeriph_Driver/src/stm32f4xx_i2c.c ****   * @note   ADDR (Address sent) is cleared by software sequence: a read operation to 
1425:Drivers/STM32F4xx_StdPeriph_Driver/src/stm32f4xx_i2c.c ****   *          I2C_SR1 register (I2C_GetITStatus()) followed by a read operation to 
1426:Drivers/STM32F4xx_StdPeriph_Driver/src/stm32f4xx_i2c.c ****   *          I2C_SR2 register ((void)(I2Cx->SR2)).
1427:Drivers/STM32F4xx_StdPeriph_Driver/src/stm32f4xx_i2c.c ****   * @note   SB (Start Bit) is cleared by software sequence: a read operation to 
1428:Drivers/STM32F4xx_StdPeriph_Driver/src/stm32f4xx_i2c.c ****   *          I2C_SR1 register (I2C_GetITStatus()) followed by a write operation to 
1429:Drivers/STM32F4xx_StdPeriph_Driver/src/stm32f4xx_i2c.c ****   *          I2C_DR register (I2C_SendData()).
1430:Drivers/STM32F4xx_StdPeriph_Driver/src/stm32f4xx_i2c.c ****   * @retval None
1431:Drivers/STM32F4xx_StdPeriph_Driver/src/stm32f4xx_i2c.c ****   */
1432:Drivers/STM32F4xx_StdPeriph_Driver/src/stm32f4xx_i2c.c **** void I2C_ClearITPendingBit(I2C_TypeDef* I2Cx, uint32_t I2C_IT)
1433:Drivers/STM32F4xx_StdPeriph_Driver/src/stm32f4xx_i2c.c **** {
 1717              		.loc 1 1433 1 is_stmt 1 view -0
 1718              		.cfi_startproc
ARM GAS  /tmp/ccGdFbQ0.s 			page 56


 1719              		@ args = 0, pretend = 0, frame = 0
 1720              		@ frame_needed = 0, uses_anonymous_args = 0
 1721              		@ link register save eliminated.
1434:Drivers/STM32F4xx_StdPeriph_Driver/src/stm32f4xx_i2c.c ****   uint32_t flagpos = 0;
 1722              		.loc 1 1434 3 view .LVU495
1435:Drivers/STM32F4xx_StdPeriph_Driver/src/stm32f4xx_i2c.c ****   /* Check the parameters */
1436:Drivers/STM32F4xx_StdPeriph_Driver/src/stm32f4xx_i2c.c ****   assert_param(IS_I2C_ALL_PERIPH(I2Cx));
 1723              		.loc 1 1436 3 view .LVU496
1437:Drivers/STM32F4xx_StdPeriph_Driver/src/stm32f4xx_i2c.c ****   assert_param(IS_I2C_CLEAR_IT(I2C_IT));
 1724              		.loc 1 1437 3 view .LVU497
1438:Drivers/STM32F4xx_StdPeriph_Driver/src/stm32f4xx_i2c.c **** 
1439:Drivers/STM32F4xx_StdPeriph_Driver/src/stm32f4xx_i2c.c ****   /* Get the I2C flag position */
1440:Drivers/STM32F4xx_StdPeriph_Driver/src/stm32f4xx_i2c.c ****   flagpos = I2C_IT & FLAG_MASK;
 1725              		.loc 1 1440 3 view .LVU498
 1726              		.loc 1 1440 11 is_stmt 0 view .LVU499
 1727 0000 21F07F41 		bic	r1, r1, #-16777216
 1728              	.LVL123:
1441:Drivers/STM32F4xx_StdPeriph_Driver/src/stm32f4xx_i2c.c **** 
1442:Drivers/STM32F4xx_StdPeriph_Driver/src/stm32f4xx_i2c.c ****   /* Clear the selected I2C flag */
1443:Drivers/STM32F4xx_StdPeriph_Driver/src/stm32f4xx_i2c.c ****   I2Cx->SR1 = (uint16_t)~flagpos;
 1729              		.loc 1 1443 3 is_stmt 1 view .LVU500
 1730              		.loc 1 1443 15 is_stmt 0 view .LVU501
 1731 0004 C943     		mvns	r1, r1
 1732              	.LVL124:
 1733              		.loc 1 1443 15 view .LVU502
 1734 0006 89B2     		uxth	r1, r1
 1735              	.LVL125:
 1736              		.loc 1 1443 13 view .LVU503
 1737 0008 8182     		strh	r1, [r0, #20]	@ movhi
1444:Drivers/STM32F4xx_StdPeriph_Driver/src/stm32f4xx_i2c.c **** }
 1738              		.loc 1 1444 1 view .LVU504
 1739 000a 7047     		bx	lr
 1740              		.cfi_endproc
 1741              	.LFE157:
 1743              		.text
 1744              	.Letext0:
 1745              		.file 2 "/usr/share/gcc-arm-none-eabi-10.3-2021.10/arm-none-eabi/include/machine/_default_types.h"
 1746              		.file 3 "/usr/share/gcc-arm-none-eabi-10.3-2021.10/arm-none-eabi/include/sys/_stdint.h"
 1747              		.file 4 "Drivers/CMSIS/Device/ST/STM32F4xx/Include/stm32f4xx.h"
 1748              		.file 5 "Drivers/STM32F4xx_StdPeriph_Driver/inc/stm32f4xx_rcc.h"
 1749              		.file 6 "Drivers/STM32F4xx_StdPeriph_Driver/inc/stm32f4xx_i2c.h"
ARM GAS  /tmp/ccGdFbQ0.s 			page 57

