ARM GAS  /tmp/ccEhn3Qw.s 			page 1


   1              		.cpu cortex-m4
   2              		.eabi_attribute 27, 1
   3              		.eabi_attribute 28, 1
   4              		.eabi_attribute 20, 1
   5              		.eabi_attribute 21, 1
   6              		.eabi_attribute 23, 3
   7              		.eabi_attribute 24, 1
   8              		.eabi_attribute 25, 1
   9              		.eabi_attribute 26, 1
  10              		.eabi_attribute 30, 1
  11              		.eabi_attribute 34, 1
  12              		.eabi_attribute 18, 4
  13              		.file	"stm32f4xx_ltdc.c"
  14              		.text
  15              	.Ltext0:
  16              		.cfi_sections	.debug_frame
  17              		.section	.text.LTDC_DeInit,"ax",%progbits
  18              		.align	1
  19              		.global	LTDC_DeInit
  20              		.arch armv7e-m
  21              		.syntax unified
  22              		.thumb
  23              		.thumb_func
  24              		.fpu fpv4-sp-d16
  26              	LTDC_DeInit:
  27              	.LFB123:
  28              		.file 1 "Drivers/STM32F4xx_StdPeriph_Driver/src/stm32f4xx_ltdc.c"
   1:Drivers/STM32F4xx_StdPeriph_Driver/src/stm32f4xx_ltdc.c **** /**
   2:Drivers/STM32F4xx_StdPeriph_Driver/src/stm32f4xx_ltdc.c ****   ******************************************************************************
   3:Drivers/STM32F4xx_StdPeriph_Driver/src/stm32f4xx_ltdc.c ****   * @file    stm32f4xx_ltdc.c
   4:Drivers/STM32F4xx_StdPeriph_Driver/src/stm32f4xx_ltdc.c ****   * @author  MCD Application Team
   5:Drivers/STM32F4xx_StdPeriph_Driver/src/stm32f4xx_ltdc.c ****   * @version V1.6.1
   6:Drivers/STM32F4xx_StdPeriph_Driver/src/stm32f4xx_ltdc.c ****   * @date    21-October-2015
   7:Drivers/STM32F4xx_StdPeriph_Driver/src/stm32f4xx_ltdc.c ****   * @brief   This file provides firmware functions to manage the following 
   8:Drivers/STM32F4xx_StdPeriph_Driver/src/stm32f4xx_ltdc.c ****   *          functionalities of the LTDC controller (LTDC) peripheral:
   9:Drivers/STM32F4xx_StdPeriph_Driver/src/stm32f4xx_ltdc.c ****   *           + Initialization and configuration
  10:Drivers/STM32F4xx_StdPeriph_Driver/src/stm32f4xx_ltdc.c ****   *           + Interrupts and flags management
  11:Drivers/STM32F4xx_StdPeriph_Driver/src/stm32f4xx_ltdc.c ****   *           
  12:Drivers/STM32F4xx_StdPeriph_Driver/src/stm32f4xx_ltdc.c ****   *  @verbatim
  13:Drivers/STM32F4xx_StdPeriph_Driver/src/stm32f4xx_ltdc.c ****   
  14:Drivers/STM32F4xx_StdPeriph_Driver/src/stm32f4xx_ltdc.c ****  ===============================================================================
  15:Drivers/STM32F4xx_StdPeriph_Driver/src/stm32f4xx_ltdc.c ****                       ##### How to use this driver #####
  16:Drivers/STM32F4xx_StdPeriph_Driver/src/stm32f4xx_ltdc.c ****  ===============================================================================
  17:Drivers/STM32F4xx_StdPeriph_Driver/src/stm32f4xx_ltdc.c ****     [..]
  18:Drivers/STM32F4xx_StdPeriph_Driver/src/stm32f4xx_ltdc.c ****         (#) Enable LTDC clock using 
  19:Drivers/STM32F4xx_StdPeriph_Driver/src/stm32f4xx_ltdc.c ****             RCC_APB2PeriphResetCmd(RCC_APB2Periph_LTDC, ENABLE) function.
  20:Drivers/STM32F4xx_StdPeriph_Driver/src/stm32f4xx_ltdc.c ****         (#) Configures LTDC
  21:Drivers/STM32F4xx_StdPeriph_Driver/src/stm32f4xx_ltdc.c ****           (++) Configure the required Pixel clock following the panel datasheet
  22:Drivers/STM32F4xx_StdPeriph_Driver/src/stm32f4xx_ltdc.c ****           (++) Configure the Synchronous timings: VSYNC, HSYNC, Vertical and 
  23:Drivers/STM32F4xx_StdPeriph_Driver/src/stm32f4xx_ltdc.c ****               Horizontal back proch, active data area and the front proch 
  24:Drivers/STM32F4xx_StdPeriph_Driver/src/stm32f4xx_ltdc.c ****               timings 
  25:Drivers/STM32F4xx_StdPeriph_Driver/src/stm32f4xx_ltdc.c ****           (++) Configure the synchronous signals and clock polarity in the 
  26:Drivers/STM32F4xx_StdPeriph_Driver/src/stm32f4xx_ltdc.c ****               LTDC_GCR register
  27:Drivers/STM32F4xx_StdPeriph_Driver/src/stm32f4xx_ltdc.c ****         (#) Configures Layer1/2 parameters
  28:Drivers/STM32F4xx_StdPeriph_Driver/src/stm32f4xx_ltdc.c ****           (++) The Layer window horizontal and vertical position in the LTDC_LxWHPCR and 
  29:Drivers/STM32F4xx_StdPeriph_Driver/src/stm32f4xx_ltdc.c ****                LTDC_WVPCR registers. The layer window must be in the active data area.
  30:Drivers/STM32F4xx_StdPeriph_Driver/src/stm32f4xx_ltdc.c ****           (++) The pixel input format in the LTDC_LxPFCR register
ARM GAS  /tmp/ccEhn3Qw.s 			page 2


  31:Drivers/STM32F4xx_StdPeriph_Driver/src/stm32f4xx_ltdc.c ****           (++) The color frame buffer start address in the LTDC_LxCFBAR register
  32:Drivers/STM32F4xx_StdPeriph_Driver/src/stm32f4xx_ltdc.c ****           (++) The line length and pitch of the color frame buffer in the 
  33:Drivers/STM32F4xx_StdPeriph_Driver/src/stm32f4xx_ltdc.c ****                LTDC_LxCFBLR register
  34:Drivers/STM32F4xx_StdPeriph_Driver/src/stm32f4xx_ltdc.c ****           (++) The number of lines of the color frame buffer in 
  35:Drivers/STM32F4xx_StdPeriph_Driver/src/stm32f4xx_ltdc.c ****                the LTDC_LxCFBLNR register
  36:Drivers/STM32F4xx_StdPeriph_Driver/src/stm32f4xx_ltdc.c ****           (++) if needed, load the CLUT with the RGB values and the address 
  37:Drivers/STM32F4xx_StdPeriph_Driver/src/stm32f4xx_ltdc.c ****                in the LTDC_LxCLUTWR register
  38:Drivers/STM32F4xx_StdPeriph_Driver/src/stm32f4xx_ltdc.c ****           (++) If needed, configure the default color and the blending factors 
  39:Drivers/STM32F4xx_StdPeriph_Driver/src/stm32f4xx_ltdc.c ****                respectively in the LTDC_LxDCCR and LTDC_LxBFCR registers 
  40:Drivers/STM32F4xx_StdPeriph_Driver/src/stm32f4xx_ltdc.c **** 
  41:Drivers/STM32F4xx_StdPeriph_Driver/src/stm32f4xx_ltdc.c ****           (++) If needed, Dithering and color keying can be enabled respectively 
  42:Drivers/STM32F4xx_StdPeriph_Driver/src/stm32f4xx_ltdc.c ****                in the LTDC_GCR and LTDC_LxCKCR registers. It can be also enabled 
  43:Drivers/STM32F4xx_StdPeriph_Driver/src/stm32f4xx_ltdc.c ****                on the fly.    
  44:Drivers/STM32F4xx_StdPeriph_Driver/src/stm32f4xx_ltdc.c ****         (#) Enable Layer1/2 and if needed the CLUT in the LTDC_LxCR register 
  45:Drivers/STM32F4xx_StdPeriph_Driver/src/stm32f4xx_ltdc.c ****   
  46:Drivers/STM32F4xx_StdPeriph_Driver/src/stm32f4xx_ltdc.c ****         (#) Reload the shadow registers to active register through 
  47:Drivers/STM32F4xx_StdPeriph_Driver/src/stm32f4xx_ltdc.c ****             the LTDC_SRCR register.
  48:Drivers/STM32F4xx_StdPeriph_Driver/src/stm32f4xx_ltdc.c ****           -@- All layer parameters can be modified on the fly except the CLUT. 
  49:Drivers/STM32F4xx_StdPeriph_Driver/src/stm32f4xx_ltdc.c ****               The new configuration has to be either reloaded immediately 
  50:Drivers/STM32F4xx_StdPeriph_Driver/src/stm32f4xx_ltdc.c ****               or during vertical blanking period by configuring the LTDC_SRCR register.
  51:Drivers/STM32F4xx_StdPeriph_Driver/src/stm32f4xx_ltdc.c ****         (#) Call the LTDC_Cmd() to enable the LTDC controller.
  52:Drivers/STM32F4xx_StdPeriph_Driver/src/stm32f4xx_ltdc.c **** 
  53:Drivers/STM32F4xx_StdPeriph_Driver/src/stm32f4xx_ltdc.c ****     @endverbatim
  54:Drivers/STM32F4xx_StdPeriph_Driver/src/stm32f4xx_ltdc.c ****   
  55:Drivers/STM32F4xx_StdPeriph_Driver/src/stm32f4xx_ltdc.c ****   ******************************************************************************
  56:Drivers/STM32F4xx_StdPeriph_Driver/src/stm32f4xx_ltdc.c ****   * @attention
  57:Drivers/STM32F4xx_StdPeriph_Driver/src/stm32f4xx_ltdc.c ****   *
  58:Drivers/STM32F4xx_StdPeriph_Driver/src/stm32f4xx_ltdc.c ****   * <h2><center>&copy; COPYRIGHT 2015 STMicroelectronics</center></h2>
  59:Drivers/STM32F4xx_StdPeriph_Driver/src/stm32f4xx_ltdc.c ****   *
  60:Drivers/STM32F4xx_StdPeriph_Driver/src/stm32f4xx_ltdc.c ****   * Licensed under MCD-ST Liberty SW License Agreement V2, (the "License");
  61:Drivers/STM32F4xx_StdPeriph_Driver/src/stm32f4xx_ltdc.c ****   * You may not use this file except in compliance with the License.
  62:Drivers/STM32F4xx_StdPeriph_Driver/src/stm32f4xx_ltdc.c ****   * You may obtain a copy of the License at:
  63:Drivers/STM32F4xx_StdPeriph_Driver/src/stm32f4xx_ltdc.c ****   *
  64:Drivers/STM32F4xx_StdPeriph_Driver/src/stm32f4xx_ltdc.c ****   *        http://www.st.com/software_license_agreement_liberty_v2
  65:Drivers/STM32F4xx_StdPeriph_Driver/src/stm32f4xx_ltdc.c ****   *
  66:Drivers/STM32F4xx_StdPeriph_Driver/src/stm32f4xx_ltdc.c ****   * Unless required by applicable law or agreed to in writing, software 
  67:Drivers/STM32F4xx_StdPeriph_Driver/src/stm32f4xx_ltdc.c ****   * distributed under the License is distributed on an "AS IS" BASIS, 
  68:Drivers/STM32F4xx_StdPeriph_Driver/src/stm32f4xx_ltdc.c ****   * WITHOUT WARRANTIES OR CONDITIONS OF ANY KIND, either express or implied.
  69:Drivers/STM32F4xx_StdPeriph_Driver/src/stm32f4xx_ltdc.c ****   * See the License for the specific language governing permissions and
  70:Drivers/STM32F4xx_StdPeriph_Driver/src/stm32f4xx_ltdc.c ****   * limitations under the License.
  71:Drivers/STM32F4xx_StdPeriph_Driver/src/stm32f4xx_ltdc.c ****   *
  72:Drivers/STM32F4xx_StdPeriph_Driver/src/stm32f4xx_ltdc.c ****   ******************************************************************************
  73:Drivers/STM32F4xx_StdPeriph_Driver/src/stm32f4xx_ltdc.c ****   */
  74:Drivers/STM32F4xx_StdPeriph_Driver/src/stm32f4xx_ltdc.c **** 
  75:Drivers/STM32F4xx_StdPeriph_Driver/src/stm32f4xx_ltdc.c **** /* Includes ------------------------------------------------------------------*/
  76:Drivers/STM32F4xx_StdPeriph_Driver/src/stm32f4xx_ltdc.c **** #include "stm32f4xx_ltdc.h"
  77:Drivers/STM32F4xx_StdPeriph_Driver/src/stm32f4xx_ltdc.c **** #include "stm32f4xx_rcc.h"
  78:Drivers/STM32F4xx_StdPeriph_Driver/src/stm32f4xx_ltdc.c **** 
  79:Drivers/STM32F4xx_StdPeriph_Driver/src/stm32f4xx_ltdc.c **** /** @addtogroup STM32F4xx_StdPeriph_Driver
  80:Drivers/STM32F4xx_StdPeriph_Driver/src/stm32f4xx_ltdc.c ****   * @{
  81:Drivers/STM32F4xx_StdPeriph_Driver/src/stm32f4xx_ltdc.c ****   */
  82:Drivers/STM32F4xx_StdPeriph_Driver/src/stm32f4xx_ltdc.c **** 
  83:Drivers/STM32F4xx_StdPeriph_Driver/src/stm32f4xx_ltdc.c **** /** @defgroup LTDC 
  84:Drivers/STM32F4xx_StdPeriph_Driver/src/stm32f4xx_ltdc.c ****   * @brief LTDC driver modules
  85:Drivers/STM32F4xx_StdPeriph_Driver/src/stm32f4xx_ltdc.c ****   * @{
  86:Drivers/STM32F4xx_StdPeriph_Driver/src/stm32f4xx_ltdc.c ****   */
  87:Drivers/STM32F4xx_StdPeriph_Driver/src/stm32f4xx_ltdc.c **** 
ARM GAS  /tmp/ccEhn3Qw.s 			page 3


  88:Drivers/STM32F4xx_StdPeriph_Driver/src/stm32f4xx_ltdc.c **** /* Private typedef -----------------------------------------------------------*/
  89:Drivers/STM32F4xx_StdPeriph_Driver/src/stm32f4xx_ltdc.c **** /* Private define ------------------------------------------------------------*/
  90:Drivers/STM32F4xx_StdPeriph_Driver/src/stm32f4xx_ltdc.c **** /* Private macro -------------------------------------------------------------*/
  91:Drivers/STM32F4xx_StdPeriph_Driver/src/stm32f4xx_ltdc.c **** /* Private variables ---------------------------------------------------------*/
  92:Drivers/STM32F4xx_StdPeriph_Driver/src/stm32f4xx_ltdc.c **** /* Private function prototypes -----------------------------------------------*/
  93:Drivers/STM32F4xx_StdPeriph_Driver/src/stm32f4xx_ltdc.c **** /* Private functions ---------------------------------------------------------*/
  94:Drivers/STM32F4xx_StdPeriph_Driver/src/stm32f4xx_ltdc.c **** 
  95:Drivers/STM32F4xx_StdPeriph_Driver/src/stm32f4xx_ltdc.c **** #define GCR_MASK                     ((uint32_t)0x0FFE888F)  /* LTDC GCR Mask */
  96:Drivers/STM32F4xx_StdPeriph_Driver/src/stm32f4xx_ltdc.c **** 
  97:Drivers/STM32F4xx_StdPeriph_Driver/src/stm32f4xx_ltdc.c **** 
  98:Drivers/STM32F4xx_StdPeriph_Driver/src/stm32f4xx_ltdc.c **** /** @defgroup LTDC_Private_Functions
  99:Drivers/STM32F4xx_StdPeriph_Driver/src/stm32f4xx_ltdc.c ****   * @{
 100:Drivers/STM32F4xx_StdPeriph_Driver/src/stm32f4xx_ltdc.c ****   */
 101:Drivers/STM32F4xx_StdPeriph_Driver/src/stm32f4xx_ltdc.c **** 
 102:Drivers/STM32F4xx_StdPeriph_Driver/src/stm32f4xx_ltdc.c **** /** @defgroup LTDC_Group1 Initialization and Configuration functions
 103:Drivers/STM32F4xx_StdPeriph_Driver/src/stm32f4xx_ltdc.c ****  *  @brief   Initialization and Configuration functions 
 104:Drivers/STM32F4xx_StdPeriph_Driver/src/stm32f4xx_ltdc.c ****  *
 105:Drivers/STM32F4xx_StdPeriph_Driver/src/stm32f4xx_ltdc.c **** @verbatim
 106:Drivers/STM32F4xx_StdPeriph_Driver/src/stm32f4xx_ltdc.c ****  ===============================================================================
 107:Drivers/STM32F4xx_StdPeriph_Driver/src/stm32f4xx_ltdc.c ****             ##### Initialization and Configuration functions #####
 108:Drivers/STM32F4xx_StdPeriph_Driver/src/stm32f4xx_ltdc.c ****  ===============================================================================
 109:Drivers/STM32F4xx_StdPeriph_Driver/src/stm32f4xx_ltdc.c ****     [..]  This section provides functions allowing to:
 110:Drivers/STM32F4xx_StdPeriph_Driver/src/stm32f4xx_ltdc.c ****       (+) Initialize and configure the LTDC
 111:Drivers/STM32F4xx_StdPeriph_Driver/src/stm32f4xx_ltdc.c ****       (+) Enable or Disable Dither
 112:Drivers/STM32F4xx_StdPeriph_Driver/src/stm32f4xx_ltdc.c ****       (+) Define the position of the line interrupt
 113:Drivers/STM32F4xx_StdPeriph_Driver/src/stm32f4xx_ltdc.c ****       (+) reload layers registers with new parameters
 114:Drivers/STM32F4xx_StdPeriph_Driver/src/stm32f4xx_ltdc.c ****       (+) Initialize and configure layer1 and layer2
 115:Drivers/STM32F4xx_StdPeriph_Driver/src/stm32f4xx_ltdc.c ****       (+) Set and configure the color keying functionality
 116:Drivers/STM32F4xx_StdPeriph_Driver/src/stm32f4xx_ltdc.c ****       (+) Configure and Enables or disables CLUT 
 117:Drivers/STM32F4xx_StdPeriph_Driver/src/stm32f4xx_ltdc.c ****       
 118:Drivers/STM32F4xx_StdPeriph_Driver/src/stm32f4xx_ltdc.c **** @endverbatim
 119:Drivers/STM32F4xx_StdPeriph_Driver/src/stm32f4xx_ltdc.c ****   * @{
 120:Drivers/STM32F4xx_StdPeriph_Driver/src/stm32f4xx_ltdc.c ****   */
 121:Drivers/STM32F4xx_StdPeriph_Driver/src/stm32f4xx_ltdc.c **** 
 122:Drivers/STM32F4xx_StdPeriph_Driver/src/stm32f4xx_ltdc.c **** /**
 123:Drivers/STM32F4xx_StdPeriph_Driver/src/stm32f4xx_ltdc.c ****   * @brief  Deinitializes the LTDC peripheral registers to their default reset
 124:Drivers/STM32F4xx_StdPeriph_Driver/src/stm32f4xx_ltdc.c ****   *         values.
 125:Drivers/STM32F4xx_StdPeriph_Driver/src/stm32f4xx_ltdc.c ****   * @param  None
 126:Drivers/STM32F4xx_StdPeriph_Driver/src/stm32f4xx_ltdc.c ****   * @retval None
 127:Drivers/STM32F4xx_StdPeriph_Driver/src/stm32f4xx_ltdc.c ****   */
 128:Drivers/STM32F4xx_StdPeriph_Driver/src/stm32f4xx_ltdc.c **** 
 129:Drivers/STM32F4xx_StdPeriph_Driver/src/stm32f4xx_ltdc.c **** void LTDC_DeInit(void)
 130:Drivers/STM32F4xx_StdPeriph_Driver/src/stm32f4xx_ltdc.c **** {
  29              		.loc 1 130 1 view -0
  30              		.cfi_startproc
  31              		@ args = 0, pretend = 0, frame = 0
  32              		@ frame_needed = 0, uses_anonymous_args = 0
  33 0000 08B5     		push	{r3, lr}
  34              		.cfi_def_cfa_offset 8
  35              		.cfi_offset 3, -8
  36              		.cfi_offset 14, -4
 131:Drivers/STM32F4xx_StdPeriph_Driver/src/stm32f4xx_ltdc.c ****   /* Enable LTDC reset state */
 132:Drivers/STM32F4xx_StdPeriph_Driver/src/stm32f4xx_ltdc.c ****   RCC_APB2PeriphResetCmd(RCC_APB2Periph_LTDC, ENABLE);
  37              		.loc 1 132 3 view .LVU1
  38 0002 0121     		movs	r1, #1
  39 0004 4FF08060 		mov	r0, #67108864
  40 0008 FFF7FEFF 		bl	RCC_APB2PeriphResetCmd
ARM GAS  /tmp/ccEhn3Qw.s 			page 4


  41              	.LVL0:
 133:Drivers/STM32F4xx_StdPeriph_Driver/src/stm32f4xx_ltdc.c ****   /* Release LTDC from reset state */
 134:Drivers/STM32F4xx_StdPeriph_Driver/src/stm32f4xx_ltdc.c ****   RCC_APB2PeriphResetCmd(RCC_APB2Periph_LTDC, DISABLE);
  42              		.loc 1 134 3 view .LVU2
  43 000c 0021     		movs	r1, #0
  44 000e 4FF08060 		mov	r0, #67108864
  45 0012 FFF7FEFF 		bl	RCC_APB2PeriphResetCmd
  46              	.LVL1:
 135:Drivers/STM32F4xx_StdPeriph_Driver/src/stm32f4xx_ltdc.c **** }
  47              		.loc 1 135 1 is_stmt 0 view .LVU3
  48 0016 08BD     		pop	{r3, pc}
  49              		.cfi_endproc
  50              	.LFE123:
  52              		.section	.text.LTDC_Init,"ax",%progbits
  53              		.align	1
  54              		.global	LTDC_Init
  55              		.syntax unified
  56              		.thumb
  57              		.thumb_func
  58              		.fpu fpv4-sp-d16
  60              	LTDC_Init:
  61              	.LVL2:
  62              	.LFB124:
 136:Drivers/STM32F4xx_StdPeriph_Driver/src/stm32f4xx_ltdc.c **** 
 137:Drivers/STM32F4xx_StdPeriph_Driver/src/stm32f4xx_ltdc.c **** /**
 138:Drivers/STM32F4xx_StdPeriph_Driver/src/stm32f4xx_ltdc.c ****   * @brief  Initializes the LTDC peripheral according to the specified parameters
 139:Drivers/STM32F4xx_StdPeriph_Driver/src/stm32f4xx_ltdc.c ****   *         in the LTDC_InitStruct.
 140:Drivers/STM32F4xx_StdPeriph_Driver/src/stm32f4xx_ltdc.c ****   * @note   This function can be used only when the LTDC is disabled.
 141:Drivers/STM32F4xx_StdPeriph_Driver/src/stm32f4xx_ltdc.c ****   * @param  LTDC_InitStruct: pointer to a LTDC_InitTypeDef structure that contains
 142:Drivers/STM32F4xx_StdPeriph_Driver/src/stm32f4xx_ltdc.c ****   *         the configuration information for the specified LTDC peripheral.
 143:Drivers/STM32F4xx_StdPeriph_Driver/src/stm32f4xx_ltdc.c ****   * @retval None
 144:Drivers/STM32F4xx_StdPeriph_Driver/src/stm32f4xx_ltdc.c ****   */
 145:Drivers/STM32F4xx_StdPeriph_Driver/src/stm32f4xx_ltdc.c **** 
 146:Drivers/STM32F4xx_StdPeriph_Driver/src/stm32f4xx_ltdc.c **** void LTDC_Init(LTDC_InitTypeDef* LTDC_InitStruct)
 147:Drivers/STM32F4xx_StdPeriph_Driver/src/stm32f4xx_ltdc.c **** {
  63              		.loc 1 147 1 is_stmt 1 view -0
  64              		.cfi_startproc
  65              		@ args = 0, pretend = 0, frame = 0
  66              		@ frame_needed = 0, uses_anonymous_args = 0
  67              		@ link register save eliminated.
  68              		.loc 1 147 1 is_stmt 0 view .LVU5
  69 0000 30B4     		push	{r4, r5}
  70              		.cfi_def_cfa_offset 8
  71              		.cfi_offset 4, -8
  72              		.cfi_offset 5, -4
 148:Drivers/STM32F4xx_StdPeriph_Driver/src/stm32f4xx_ltdc.c ****   uint32_t horizontalsync = 0;
  73              		.loc 1 148 3 is_stmt 1 view .LVU6
  74              	.LVL3:
 149:Drivers/STM32F4xx_StdPeriph_Driver/src/stm32f4xx_ltdc.c ****   uint32_t accumulatedHBP = 0;
  75              		.loc 1 149 3 view .LVU7
 150:Drivers/STM32F4xx_StdPeriph_Driver/src/stm32f4xx_ltdc.c ****   uint32_t accumulatedactiveW = 0;
  76              		.loc 1 150 3 view .LVU8
 151:Drivers/STM32F4xx_StdPeriph_Driver/src/stm32f4xx_ltdc.c ****   uint32_t totalwidth = 0;
  77              		.loc 1 151 3 view .LVU9
 152:Drivers/STM32F4xx_StdPeriph_Driver/src/stm32f4xx_ltdc.c ****   uint32_t backgreen = 0;
  78              		.loc 1 152 3 view .LVU10
 153:Drivers/STM32F4xx_StdPeriph_Driver/src/stm32f4xx_ltdc.c ****   uint32_t backred = 0;
ARM GAS  /tmp/ccEhn3Qw.s 			page 5


  79              		.loc 1 153 3 view .LVU11
 154:Drivers/STM32F4xx_StdPeriph_Driver/src/stm32f4xx_ltdc.c **** 
 155:Drivers/STM32F4xx_StdPeriph_Driver/src/stm32f4xx_ltdc.c ****   /* Check function parameters */
 156:Drivers/STM32F4xx_StdPeriph_Driver/src/stm32f4xx_ltdc.c ****   assert_param(IS_LTDC_HSYNC(LTDC_InitStruct->LTDC_HorizontalSync));
  80              		.loc 1 156 3 view .LVU12
 157:Drivers/STM32F4xx_StdPeriph_Driver/src/stm32f4xx_ltdc.c ****   assert_param(IS_LTDC_VSYNC(LTDC_InitStruct->LTDC_VerticalSync));
  81              		.loc 1 157 3 view .LVU13
 158:Drivers/STM32F4xx_StdPeriph_Driver/src/stm32f4xx_ltdc.c ****   assert_param(IS_LTDC_AHBP(LTDC_InitStruct->LTDC_AccumulatedHBP));
  82              		.loc 1 158 3 view .LVU14
 159:Drivers/STM32F4xx_StdPeriph_Driver/src/stm32f4xx_ltdc.c ****   assert_param(IS_LTDC_AVBP(LTDC_InitStruct->LTDC_AccumulatedVBP));
  83              		.loc 1 159 3 view .LVU15
 160:Drivers/STM32F4xx_StdPeriph_Driver/src/stm32f4xx_ltdc.c ****   assert_param(IS_LTDC_AAH(LTDC_InitStruct->LTDC_AccumulatedActiveH));
  84              		.loc 1 160 3 view .LVU16
 161:Drivers/STM32F4xx_StdPeriph_Driver/src/stm32f4xx_ltdc.c ****   assert_param(IS_LTDC_AAW(LTDC_InitStruct->LTDC_AccumulatedActiveW));
  85              		.loc 1 161 3 view .LVU17
 162:Drivers/STM32F4xx_StdPeriph_Driver/src/stm32f4xx_ltdc.c ****   assert_param(IS_LTDC_TOTALH(LTDC_InitStruct->LTDC_TotalHeigh));
  86              		.loc 1 162 3 view .LVU18
 163:Drivers/STM32F4xx_StdPeriph_Driver/src/stm32f4xx_ltdc.c ****   assert_param(IS_LTDC_TOTALW(LTDC_InitStruct->LTDC_TotalWidth));
  87              		.loc 1 163 3 view .LVU19
 164:Drivers/STM32F4xx_StdPeriph_Driver/src/stm32f4xx_ltdc.c ****   assert_param(IS_LTDC_HSPOL(LTDC_InitStruct->LTDC_HSPolarity));
  88              		.loc 1 164 3 view .LVU20
 165:Drivers/STM32F4xx_StdPeriph_Driver/src/stm32f4xx_ltdc.c ****   assert_param(IS_LTDC_VSPOL(LTDC_InitStruct->LTDC_VSPolarity));
  89              		.loc 1 165 3 view .LVU21
 166:Drivers/STM32F4xx_StdPeriph_Driver/src/stm32f4xx_ltdc.c ****   assert_param(IS_LTDC_DEPOL(LTDC_InitStruct->LTDC_DEPolarity));
  90              		.loc 1 166 3 view .LVU22
 167:Drivers/STM32F4xx_StdPeriph_Driver/src/stm32f4xx_ltdc.c ****   assert_param(IS_LTDC_PCPOL(LTDC_InitStruct->LTDC_PCPolarity));
  91              		.loc 1 167 3 view .LVU23
 168:Drivers/STM32F4xx_StdPeriph_Driver/src/stm32f4xx_ltdc.c ****   assert_param(IS_LTDC_BackBlueValue(LTDC_InitStruct->LTDC_BackgroundBlueValue));
  92              		.loc 1 168 3 view .LVU24
 169:Drivers/STM32F4xx_StdPeriph_Driver/src/stm32f4xx_ltdc.c ****   assert_param(IS_LTDC_BackGreenValue(LTDC_InitStruct->LTDC_BackgroundGreenValue));
  93              		.loc 1 169 3 view .LVU25
 170:Drivers/STM32F4xx_StdPeriph_Driver/src/stm32f4xx_ltdc.c ****   assert_param(IS_LTDC_BackRedValue(LTDC_InitStruct->LTDC_BackgroundRedValue));
  94              		.loc 1 170 3 view .LVU26
 171:Drivers/STM32F4xx_StdPeriph_Driver/src/stm32f4xx_ltdc.c **** 
 172:Drivers/STM32F4xx_StdPeriph_Driver/src/stm32f4xx_ltdc.c ****   /* Sets Synchronization size */
 173:Drivers/STM32F4xx_StdPeriph_Driver/src/stm32f4xx_ltdc.c ****   LTDC->SSCR &= ~(LTDC_SSCR_VSH | LTDC_SSCR_HSW);
  95              		.loc 1 173 3 view .LVU27
  96              		.loc 1 173 14 is_stmt 0 view .LVU28
  97 0002 254B     		ldr	r3, .L5
  98 0004 9968     		ldr	r1, [r3, #8]
  99 0006 254A     		ldr	r2, .L5+4
 100 0008 1140     		ands	r1, r1, r2
 101 000a 9960     		str	r1, [r3, #8]
 174:Drivers/STM32F4xx_StdPeriph_Driver/src/stm32f4xx_ltdc.c ****   horizontalsync = (LTDC_InitStruct->LTDC_HorizontalSync << 16);
 102              		.loc 1 174 3 is_stmt 1 view .LVU29
 103              		.loc 1 174 36 is_stmt 0 view .LVU30
 104 000c 0469     		ldr	r4, [r0, #16]
 105              	.LVL4:
 175:Drivers/STM32F4xx_StdPeriph_Driver/src/stm32f4xx_ltdc.c ****   LTDC->SSCR |= (horizontalsync | LTDC_InitStruct->LTDC_VerticalSync);
 106              		.loc 1 175 3 is_stmt 1 view .LVU31
 107              		.loc 1 175 14 is_stmt 0 view .LVU32
 108 000e 9968     		ldr	r1, [r3, #8]
 109              		.loc 1 175 33 view .LVU33
 110 0010 4569     		ldr	r5, [r0, #20]
 111 0012 45EA044C 		orr	ip, r5, r4, lsl #16
 112              		.loc 1 175 14 view .LVU34
 113 0016 41EA0C01 		orr	r1, r1, ip
ARM GAS  /tmp/ccEhn3Qw.s 			page 6


 114 001a 9960     		str	r1, [r3, #8]
 176:Drivers/STM32F4xx_StdPeriph_Driver/src/stm32f4xx_ltdc.c **** 
 177:Drivers/STM32F4xx_StdPeriph_Driver/src/stm32f4xx_ltdc.c ****   /* Sets Accumulated Back porch */
 178:Drivers/STM32F4xx_StdPeriph_Driver/src/stm32f4xx_ltdc.c ****   LTDC->BPCR &= ~(LTDC_BPCR_AVBP | LTDC_BPCR_AHBP);
 115              		.loc 1 178 3 is_stmt 1 view .LVU35
 116              		.loc 1 178 14 is_stmt 0 view .LVU36
 117 001c D968     		ldr	r1, [r3, #12]
 118 001e 1140     		ands	r1, r1, r2
 119 0020 D960     		str	r1, [r3, #12]
 179:Drivers/STM32F4xx_StdPeriph_Driver/src/stm32f4xx_ltdc.c ****   accumulatedHBP = (LTDC_InitStruct->LTDC_AccumulatedHBP << 16);
 120              		.loc 1 179 3 is_stmt 1 view .LVU37
 121              		.loc 1 179 36 is_stmt 0 view .LVU38
 122 0022 8469     		ldr	r4, [r0, #24]
 123              	.LVL5:
 180:Drivers/STM32F4xx_StdPeriph_Driver/src/stm32f4xx_ltdc.c ****   LTDC->BPCR |= (accumulatedHBP | LTDC_InitStruct->LTDC_AccumulatedVBP);
 124              		.loc 1 180 3 is_stmt 1 view .LVU39
 125              		.loc 1 180 14 is_stmt 0 view .LVU40
 126 0024 D968     		ldr	r1, [r3, #12]
 127              		.loc 1 180 33 view .LVU41
 128 0026 C569     		ldr	r5, [r0, #28]
 129 0028 45EA044C 		orr	ip, r5, r4, lsl #16
 130              		.loc 1 180 14 view .LVU42
 131 002c 41EA0C01 		orr	r1, r1, ip
 132 0030 D960     		str	r1, [r3, #12]
 181:Drivers/STM32F4xx_StdPeriph_Driver/src/stm32f4xx_ltdc.c **** 
 182:Drivers/STM32F4xx_StdPeriph_Driver/src/stm32f4xx_ltdc.c ****   /* Sets Accumulated Active Width */
 183:Drivers/STM32F4xx_StdPeriph_Driver/src/stm32f4xx_ltdc.c ****   LTDC->AWCR &= ~(LTDC_AWCR_AAH | LTDC_AWCR_AAW);
 133              		.loc 1 183 3 is_stmt 1 view .LVU43
 134              		.loc 1 183 14 is_stmt 0 view .LVU44
 135 0032 1969     		ldr	r1, [r3, #16]
 136 0034 1140     		ands	r1, r1, r2
 137 0036 1961     		str	r1, [r3, #16]
 184:Drivers/STM32F4xx_StdPeriph_Driver/src/stm32f4xx_ltdc.c ****   accumulatedactiveW = (LTDC_InitStruct->LTDC_AccumulatedActiveW << 16);
 138              		.loc 1 184 3 is_stmt 1 view .LVU45
 139              		.loc 1 184 40 is_stmt 0 view .LVU46
 140 0038 046A     		ldr	r4, [r0, #32]
 141              	.LVL6:
 185:Drivers/STM32F4xx_StdPeriph_Driver/src/stm32f4xx_ltdc.c ****   LTDC->AWCR |= (accumulatedactiveW | LTDC_InitStruct->LTDC_AccumulatedActiveH);
 142              		.loc 1 185 3 is_stmt 1 view .LVU47
 143              		.loc 1 185 14 is_stmt 0 view .LVU48
 144 003a 1969     		ldr	r1, [r3, #16]
 145              		.loc 1 185 37 view .LVU49
 146 003c 456A     		ldr	r5, [r0, #36]
 147 003e 45EA044C 		orr	ip, r5, r4, lsl #16
 148              		.loc 1 185 14 view .LVU50
 149 0042 41EA0C01 		orr	r1, r1, ip
 150 0046 1961     		str	r1, [r3, #16]
 186:Drivers/STM32F4xx_StdPeriph_Driver/src/stm32f4xx_ltdc.c **** 
 187:Drivers/STM32F4xx_StdPeriph_Driver/src/stm32f4xx_ltdc.c ****   /* Sets Total Width */
 188:Drivers/STM32F4xx_StdPeriph_Driver/src/stm32f4xx_ltdc.c ****   LTDC->TWCR &= ~(LTDC_TWCR_TOTALH | LTDC_TWCR_TOTALW);
 151              		.loc 1 188 3 is_stmt 1 view .LVU51
 152              		.loc 1 188 14 is_stmt 0 view .LVU52
 153 0048 5969     		ldr	r1, [r3, #20]
 154 004a 0A40     		ands	r2, r2, r1
 155 004c 5A61     		str	r2, [r3, #20]
 189:Drivers/STM32F4xx_StdPeriph_Driver/src/stm32f4xx_ltdc.c ****   totalwidth = (LTDC_InitStruct->LTDC_TotalWidth << 16);
 156              		.loc 1 189 3 is_stmt 1 view .LVU53
ARM GAS  /tmp/ccEhn3Qw.s 			page 7


 157              		.loc 1 189 32 is_stmt 0 view .LVU54
 158 004e 846A     		ldr	r4, [r0, #40]
 159              	.LVL7:
 190:Drivers/STM32F4xx_StdPeriph_Driver/src/stm32f4xx_ltdc.c ****   LTDC->TWCR |= (totalwidth | LTDC_InitStruct->LTDC_TotalHeigh);
 160              		.loc 1 190 3 is_stmt 1 view .LVU55
 161              		.loc 1 190 14 is_stmt 0 view .LVU56
 162 0050 5A69     		ldr	r2, [r3, #20]
 163              		.loc 1 190 46 view .LVU57
 164 0052 C16A     		ldr	r1, [r0, #44]
 165              		.loc 1 190 29 view .LVU58
 166 0054 41EA0441 		orr	r1, r1, r4, lsl #16
 167              		.loc 1 190 14 view .LVU59
 168 0058 0A43     		orrs	r2, r2, r1
 169 005a 5A61     		str	r2, [r3, #20]
 191:Drivers/STM32F4xx_StdPeriph_Driver/src/stm32f4xx_ltdc.c **** 
 192:Drivers/STM32F4xx_StdPeriph_Driver/src/stm32f4xx_ltdc.c ****   LTDC->GCR &= (uint32_t)GCR_MASK;
 170              		.loc 1 192 3 is_stmt 1 view .LVU60
 171              		.loc 1 192 13 is_stmt 0 view .LVU61
 172 005c 9969     		ldr	r1, [r3, #24]
 173 005e 104A     		ldr	r2, .L5+8
 174 0060 0A40     		ands	r2, r2, r1
 175 0062 9A61     		str	r2, [r3, #24]
 193:Drivers/STM32F4xx_StdPeriph_Driver/src/stm32f4xx_ltdc.c ****   LTDC->GCR |=  (uint32_t)(LTDC_InitStruct->LTDC_HSPolarity | LTDC_InitStruct->LTDC_VSPolarity | \
 176              		.loc 1 193 3 is_stmt 1 view .LVU62
 177              		.loc 1 193 13 is_stmt 0 view .LVU63
 178 0064 9969     		ldr	r1, [r3, #24]
 179              		.loc 1 193 43 view .LVU64
 180 0066 0268     		ldr	r2, [r0]
 181              		.loc 1 193 78 view .LVU65
 182 0068 4468     		ldr	r4, [r0, #4]
 183              	.LVL8:
 184              		.loc 1 193 61 view .LVU66
 185 006a 2243     		orrs	r2, r2, r4
 194:Drivers/STM32F4xx_StdPeriph_Driver/src/stm32f4xx_ltdc.c ****                            LTDC_InitStruct->LTDC_DEPolarity | LTDC_InitStruct->LTDC_PCPolarity);
 186              		.loc 1 194 43 view .LVU67
 187 006c 8468     		ldr	r4, [r0, #8]
 193:Drivers/STM32F4xx_StdPeriph_Driver/src/stm32f4xx_ltdc.c ****   LTDC->GCR |=  (uint32_t)(LTDC_InitStruct->LTDC_HSPolarity | LTDC_InitStruct->LTDC_VSPolarity | \
 188              		.loc 1 193 96 view .LVU68
 189 006e 2243     		orrs	r2, r2, r4
 190              		.loc 1 194 78 view .LVU69
 191 0070 C468     		ldr	r4, [r0, #12]
 192              		.loc 1 194 61 view .LVU70
 193 0072 2243     		orrs	r2, r2, r4
 193:Drivers/STM32F4xx_StdPeriph_Driver/src/stm32f4xx_ltdc.c ****   LTDC->GCR |=  (uint32_t)(LTDC_InitStruct->LTDC_HSPolarity | LTDC_InitStruct->LTDC_VSPolarity | \
 194              		.loc 1 193 13 view .LVU71
 195 0074 0A43     		orrs	r2, r2, r1
 196 0076 9A61     		str	r2, [r3, #24]
 195:Drivers/STM32F4xx_StdPeriph_Driver/src/stm32f4xx_ltdc.c **** 
 196:Drivers/STM32F4xx_StdPeriph_Driver/src/stm32f4xx_ltdc.c ****   /* sets the background color value */
 197:Drivers/STM32F4xx_StdPeriph_Driver/src/stm32f4xx_ltdc.c ****   backgreen = (LTDC_InitStruct->LTDC_BackgroundGreenValue << 8);
 197              		.loc 1 197 3 is_stmt 1 view .LVU72
 198              		.loc 1 197 31 is_stmt 0 view .LVU73
 199 0078 446B     		ldr	r4, [r0, #52]
 200              	.LVL9:
 198:Drivers/STM32F4xx_StdPeriph_Driver/src/stm32f4xx_ltdc.c ****   backred = (LTDC_InitStruct->LTDC_BackgroundRedValue << 16);
 201              		.loc 1 198 3 is_stmt 1 view .LVU74
 202              		.loc 1 198 29 is_stmt 0 view .LVU75
ARM GAS  /tmp/ccEhn3Qw.s 			page 8


 203 007a 026B     		ldr	r2, [r0, #48]
 204              		.loc 1 198 11 view .LVU76
 205 007c 1204     		lsls	r2, r2, #16
 206              	.LVL10:
 199:Drivers/STM32F4xx_StdPeriph_Driver/src/stm32f4xx_ltdc.c **** 
 200:Drivers/STM32F4xx_StdPeriph_Driver/src/stm32f4xx_ltdc.c ****   LTDC->BCCR &= ~(LTDC_BCCR_BCBLUE | LTDC_BCCR_BCGREEN | LTDC_BCCR_BCRED);
 207              		.loc 1 200 3 is_stmt 1 view .LVU77
 208              		.loc 1 200 14 is_stmt 0 view .LVU78
 209 007e D96A     		ldr	r1, [r3, #44]
 210 0080 01F07F41 		and	r1, r1, #-16777216
 211 0084 D962     		str	r1, [r3, #44]
 201:Drivers/STM32F4xx_StdPeriph_Driver/src/stm32f4xx_ltdc.c ****   LTDC->BCCR |= (backred | backgreen | LTDC_InitStruct->LTDC_BackgroundBlueValue);
 212              		.loc 1 201 3 is_stmt 1 view .LVU79
 213              		.loc 1 201 14 is_stmt 0 view .LVU80
 214 0086 D96A     		ldr	r1, [r3, #44]
 215              		.loc 1 201 26 view .LVU81
 216 0088 42EA0422 		orr	r2, r2, r4, lsl #8
 217              	.LVL11:
 218              		.loc 1 201 55 view .LVU82
 219 008c 806B     		ldr	r0, [r0, #56]
 220              	.LVL12:
 221              		.loc 1 201 38 view .LVU83
 222 008e 0243     		orrs	r2, r2, r0
 223              		.loc 1 201 14 view .LVU84
 224 0090 0A43     		orrs	r2, r2, r1
 225 0092 DA62     		str	r2, [r3, #44]
 202:Drivers/STM32F4xx_StdPeriph_Driver/src/stm32f4xx_ltdc.c **** }
 226              		.loc 1 202 1 view .LVU85
 227 0094 30BC     		pop	{r4, r5}
 228              		.cfi_restore 5
 229              		.cfi_restore 4
 230              		.cfi_def_cfa_offset 0
 231              	.LVL13:
 232              		.loc 1 202 1 view .LVU86
 233 0096 7047     		bx	lr
 234              	.L6:
 235              		.align	2
 236              	.L5:
 237 0098 00680140 		.word	1073833984
 238 009c 00F800F0 		.word	-268371968
 239 00a0 8F88FE0F 		.word	268339343
 240              		.cfi_endproc
 241              	.LFE124:
 243              		.section	.text.LTDC_StructInit,"ax",%progbits
 244              		.align	1
 245              		.global	LTDC_StructInit
 246              		.syntax unified
 247              		.thumb
 248              		.thumb_func
 249              		.fpu fpv4-sp-d16
 251              	LTDC_StructInit:
 252              	.LVL14:
 253              	.LFB125:
 203:Drivers/STM32F4xx_StdPeriph_Driver/src/stm32f4xx_ltdc.c **** 
 204:Drivers/STM32F4xx_StdPeriph_Driver/src/stm32f4xx_ltdc.c **** /**
 205:Drivers/STM32F4xx_StdPeriph_Driver/src/stm32f4xx_ltdc.c ****   * @brief  Fills each LTDC_InitStruct member with its default value.
 206:Drivers/STM32F4xx_StdPeriph_Driver/src/stm32f4xx_ltdc.c ****   * @param  LTDC_InitStruct: pointer to a LTDC_InitTypeDef structure which will
ARM GAS  /tmp/ccEhn3Qw.s 			page 9


 207:Drivers/STM32F4xx_StdPeriph_Driver/src/stm32f4xx_ltdc.c ****   *         be initialized.
 208:Drivers/STM32F4xx_StdPeriph_Driver/src/stm32f4xx_ltdc.c ****   * @retval None
 209:Drivers/STM32F4xx_StdPeriph_Driver/src/stm32f4xx_ltdc.c ****   */
 210:Drivers/STM32F4xx_StdPeriph_Driver/src/stm32f4xx_ltdc.c **** 
 211:Drivers/STM32F4xx_StdPeriph_Driver/src/stm32f4xx_ltdc.c **** void LTDC_StructInit(LTDC_InitTypeDef* LTDC_InitStruct)
 212:Drivers/STM32F4xx_StdPeriph_Driver/src/stm32f4xx_ltdc.c **** {
 254              		.loc 1 212 1 is_stmt 1 view -0
 255              		.cfi_startproc
 256              		@ args = 0, pretend = 0, frame = 0
 257              		@ frame_needed = 0, uses_anonymous_args = 0
 258              		@ link register save eliminated.
 213:Drivers/STM32F4xx_StdPeriph_Driver/src/stm32f4xx_ltdc.c ****   /*--------------- Reset LTDC init structure parameters values ----------------*/
 214:Drivers/STM32F4xx_StdPeriph_Driver/src/stm32f4xx_ltdc.c ****   LTDC_InitStruct->LTDC_HSPolarity = LTDC_HSPolarity_AL;      /*!< Initialize the LTDC_HSPolarity m
 259              		.loc 1 214 3 view .LVU88
 260              		.loc 1 214 36 is_stmt 0 view .LVU89
 261 0000 0023     		movs	r3, #0
 262 0002 0360     		str	r3, [r0]
 215:Drivers/STM32F4xx_StdPeriph_Driver/src/stm32f4xx_ltdc.c ****   LTDC_InitStruct->LTDC_VSPolarity = LTDC_VSPolarity_AL;      /*!< Initialize the LTDC_VSPolarity m
 263              		.loc 1 215 3 is_stmt 1 view .LVU90
 264              		.loc 1 215 36 is_stmt 0 view .LVU91
 265 0004 4360     		str	r3, [r0, #4]
 216:Drivers/STM32F4xx_StdPeriph_Driver/src/stm32f4xx_ltdc.c ****   LTDC_InitStruct->LTDC_DEPolarity = LTDC_DEPolarity_AL;      /*!< Initialize the LTDC_DEPolarity m
 266              		.loc 1 216 3 is_stmt 1 view .LVU92
 267              		.loc 1 216 36 is_stmt 0 view .LVU93
 268 0006 8360     		str	r3, [r0, #8]
 217:Drivers/STM32F4xx_StdPeriph_Driver/src/stm32f4xx_ltdc.c ****   LTDC_InitStruct->LTDC_PCPolarity = LTDC_PCPolarity_IPC;     /*!< Initialize the LTDC_PCPolarity m
 269              		.loc 1 217 3 is_stmt 1 view .LVU94
 270              		.loc 1 217 36 is_stmt 0 view .LVU95
 271 0008 C360     		str	r3, [r0, #12]
 218:Drivers/STM32F4xx_StdPeriph_Driver/src/stm32f4xx_ltdc.c ****   LTDC_InitStruct->LTDC_HorizontalSync = 0x00;                /*!< Initialize the LTDC_HorizontalSy
 272              		.loc 1 218 3 is_stmt 1 view .LVU96
 273              		.loc 1 218 40 is_stmt 0 view .LVU97
 274 000a 0361     		str	r3, [r0, #16]
 219:Drivers/STM32F4xx_StdPeriph_Driver/src/stm32f4xx_ltdc.c ****   LTDC_InitStruct->LTDC_VerticalSync = 0x00;                  /*!< Initialize the LTDC_VerticalSync
 275              		.loc 1 219 3 is_stmt 1 view .LVU98
 276              		.loc 1 219 38 is_stmt 0 view .LVU99
 277 000c 4361     		str	r3, [r0, #20]
 220:Drivers/STM32F4xx_StdPeriph_Driver/src/stm32f4xx_ltdc.c ****   LTDC_InitStruct->LTDC_AccumulatedHBP = 0x00;                /*!< Initialize the LTDC_AccumulatedH
 278              		.loc 1 220 3 is_stmt 1 view .LVU100
 279              		.loc 1 220 40 is_stmt 0 view .LVU101
 280 000e 8361     		str	r3, [r0, #24]
 221:Drivers/STM32F4xx_StdPeriph_Driver/src/stm32f4xx_ltdc.c ****   LTDC_InitStruct->LTDC_AccumulatedVBP = 0x00;                /*!< Initialize the LTDC_AccumulatedV
 281              		.loc 1 221 3 is_stmt 1 view .LVU102
 282              		.loc 1 221 40 is_stmt 0 view .LVU103
 283 0010 C361     		str	r3, [r0, #28]
 222:Drivers/STM32F4xx_StdPeriph_Driver/src/stm32f4xx_ltdc.c ****   LTDC_InitStruct->LTDC_AccumulatedActiveW = 0x00;            /*!< Initialize the LTDC_AccumulatedA
 284              		.loc 1 222 3 is_stmt 1 view .LVU104
 285              		.loc 1 222 44 is_stmt 0 view .LVU105
 286 0012 0362     		str	r3, [r0, #32]
 223:Drivers/STM32F4xx_StdPeriph_Driver/src/stm32f4xx_ltdc.c ****   LTDC_InitStruct->LTDC_AccumulatedActiveH = 0x00;            /*!< Initialize the LTDC_AccumulatedA
 287              		.loc 1 223 3 is_stmt 1 view .LVU106
 288              		.loc 1 223 44 is_stmt 0 view .LVU107
 289 0014 4362     		str	r3, [r0, #36]
 224:Drivers/STM32F4xx_StdPeriph_Driver/src/stm32f4xx_ltdc.c ****   LTDC_InitStruct->LTDC_TotalWidth = 0x00;                    /*!< Initialize the LTDC_TotalWidth m
 290              		.loc 1 224 3 is_stmt 1 view .LVU108
 291              		.loc 1 224 36 is_stmt 0 view .LVU109
 292 0016 8362     		str	r3, [r0, #40]
ARM GAS  /tmp/ccEhn3Qw.s 			page 10


 225:Drivers/STM32F4xx_StdPeriph_Driver/src/stm32f4xx_ltdc.c ****   LTDC_InitStruct->LTDC_TotalHeigh = 0x00;                    /*!< Initialize the LTDC_TotalHeigh m
 293              		.loc 1 225 3 is_stmt 1 view .LVU110
 294              		.loc 1 225 36 is_stmt 0 view .LVU111
 295 0018 C362     		str	r3, [r0, #44]
 226:Drivers/STM32F4xx_StdPeriph_Driver/src/stm32f4xx_ltdc.c ****   LTDC_InitStruct->LTDC_BackgroundRedValue = 0x00;            /*!< Initialize the LTDC_BackgroundRe
 296              		.loc 1 226 3 is_stmt 1 view .LVU112
 297              		.loc 1 226 44 is_stmt 0 view .LVU113
 298 001a 0363     		str	r3, [r0, #48]
 227:Drivers/STM32F4xx_StdPeriph_Driver/src/stm32f4xx_ltdc.c ****   LTDC_InitStruct->LTDC_BackgroundGreenValue = 0x00;          /*!< Initialize the LTDC_BackgroundGr
 299              		.loc 1 227 3 is_stmt 1 view .LVU114
 300              		.loc 1 227 46 is_stmt 0 view .LVU115
 301 001c 4363     		str	r3, [r0, #52]
 228:Drivers/STM32F4xx_StdPeriph_Driver/src/stm32f4xx_ltdc.c ****   LTDC_InitStruct->LTDC_BackgroundBlueValue = 0x00;           /*!< Initialize the LTDC_BackgroundBl
 302              		.loc 1 228 3 is_stmt 1 view .LVU116
 303              		.loc 1 228 45 is_stmt 0 view .LVU117
 304 001e 8363     		str	r3, [r0, #56]
 229:Drivers/STM32F4xx_StdPeriph_Driver/src/stm32f4xx_ltdc.c **** }
 305              		.loc 1 229 1 view .LVU118
 306 0020 7047     		bx	lr
 307              		.cfi_endproc
 308              	.LFE125:
 310              		.section	.text.LTDC_Cmd,"ax",%progbits
 311              		.align	1
 312              		.global	LTDC_Cmd
 313              		.syntax unified
 314              		.thumb
 315              		.thumb_func
 316              		.fpu fpv4-sp-d16
 318              	LTDC_Cmd:
 319              	.LVL15:
 320              	.LFB126:
 230:Drivers/STM32F4xx_StdPeriph_Driver/src/stm32f4xx_ltdc.c **** 
 231:Drivers/STM32F4xx_StdPeriph_Driver/src/stm32f4xx_ltdc.c **** /**
 232:Drivers/STM32F4xx_StdPeriph_Driver/src/stm32f4xx_ltdc.c ****   * @brief  Enables or disables the LTDC Controller.
 233:Drivers/STM32F4xx_StdPeriph_Driver/src/stm32f4xx_ltdc.c ****   * @param  NewState: new state of the LTDC peripheral.
 234:Drivers/STM32F4xx_StdPeriph_Driver/src/stm32f4xx_ltdc.c ****   *   This parameter can be: ENABLE or DISABLE.
 235:Drivers/STM32F4xx_StdPeriph_Driver/src/stm32f4xx_ltdc.c ****   * @retval None
 236:Drivers/STM32F4xx_StdPeriph_Driver/src/stm32f4xx_ltdc.c ****   */
 237:Drivers/STM32F4xx_StdPeriph_Driver/src/stm32f4xx_ltdc.c **** 
 238:Drivers/STM32F4xx_StdPeriph_Driver/src/stm32f4xx_ltdc.c **** void LTDC_Cmd(FunctionalState NewState)
 239:Drivers/STM32F4xx_StdPeriph_Driver/src/stm32f4xx_ltdc.c **** {
 321              		.loc 1 239 1 is_stmt 1 view -0
 322              		.cfi_startproc
 323              		@ args = 0, pretend = 0, frame = 0
 324              		@ frame_needed = 0, uses_anonymous_args = 0
 325              		@ link register save eliminated.
 240:Drivers/STM32F4xx_StdPeriph_Driver/src/stm32f4xx_ltdc.c ****   /* Check the parameters */
 241:Drivers/STM32F4xx_StdPeriph_Driver/src/stm32f4xx_ltdc.c ****   assert_param(IS_FUNCTIONAL_STATE(NewState));
 326              		.loc 1 241 3 view .LVU120
 242:Drivers/STM32F4xx_StdPeriph_Driver/src/stm32f4xx_ltdc.c **** 
 243:Drivers/STM32F4xx_StdPeriph_Driver/src/stm32f4xx_ltdc.c ****   if (NewState != DISABLE)
 327              		.loc 1 243 3 view .LVU121
 328              		.loc 1 243 6 is_stmt 0 view .LVU122
 329 0000 28B1     		cbz	r0, .L9
 244:Drivers/STM32F4xx_StdPeriph_Driver/src/stm32f4xx_ltdc.c ****   {
 245:Drivers/STM32F4xx_StdPeriph_Driver/src/stm32f4xx_ltdc.c ****     /* Enable LTDC by setting LTDCEN bit */
 246:Drivers/STM32F4xx_StdPeriph_Driver/src/stm32f4xx_ltdc.c ****     LTDC->GCR |= (uint32_t)LTDC_GCR_LTDCEN;
ARM GAS  /tmp/ccEhn3Qw.s 			page 11


 330              		.loc 1 246 5 is_stmt 1 view .LVU123
 331              		.loc 1 246 15 is_stmt 0 view .LVU124
 332 0002 064A     		ldr	r2, .L11
 333 0004 9369     		ldr	r3, [r2, #24]
 334 0006 43F00103 		orr	r3, r3, #1
 335 000a 9361     		str	r3, [r2, #24]
 336 000c 7047     		bx	lr
 337              	.L9:
 247:Drivers/STM32F4xx_StdPeriph_Driver/src/stm32f4xx_ltdc.c ****   }
 248:Drivers/STM32F4xx_StdPeriph_Driver/src/stm32f4xx_ltdc.c ****   else
 249:Drivers/STM32F4xx_StdPeriph_Driver/src/stm32f4xx_ltdc.c ****   {
 250:Drivers/STM32F4xx_StdPeriph_Driver/src/stm32f4xx_ltdc.c ****     /* Disable LTDC by clearing LTDCEN bit */
 251:Drivers/STM32F4xx_StdPeriph_Driver/src/stm32f4xx_ltdc.c ****     LTDC->GCR &= ~(uint32_t)LTDC_GCR_LTDCEN;
 338              		.loc 1 251 5 is_stmt 1 view .LVU125
 339              		.loc 1 251 15 is_stmt 0 view .LVU126
 340 000e 034A     		ldr	r2, .L11
 341 0010 9369     		ldr	r3, [r2, #24]
 342 0012 23F00103 		bic	r3, r3, #1
 343 0016 9361     		str	r3, [r2, #24]
 252:Drivers/STM32F4xx_StdPeriph_Driver/src/stm32f4xx_ltdc.c ****   }
 253:Drivers/STM32F4xx_StdPeriph_Driver/src/stm32f4xx_ltdc.c **** }
 344              		.loc 1 253 1 view .LVU127
 345 0018 7047     		bx	lr
 346              	.L12:
 347 001a 00BF     		.align	2
 348              	.L11:
 349 001c 00680140 		.word	1073833984
 350              		.cfi_endproc
 351              	.LFE126:
 353              		.section	.text.LTDC_DitherCmd,"ax",%progbits
 354              		.align	1
 355              		.global	LTDC_DitherCmd
 356              		.syntax unified
 357              		.thumb
 358              		.thumb_func
 359              		.fpu fpv4-sp-d16
 361              	LTDC_DitherCmd:
 362              	.LVL16:
 363              	.LFB127:
 254:Drivers/STM32F4xx_StdPeriph_Driver/src/stm32f4xx_ltdc.c **** 
 255:Drivers/STM32F4xx_StdPeriph_Driver/src/stm32f4xx_ltdc.c **** /**
 256:Drivers/STM32F4xx_StdPeriph_Driver/src/stm32f4xx_ltdc.c ****   * @brief  Enables or disables Dither.
 257:Drivers/STM32F4xx_StdPeriph_Driver/src/stm32f4xx_ltdc.c ****   * @param  NewState: new state of the Dither.
 258:Drivers/STM32F4xx_StdPeriph_Driver/src/stm32f4xx_ltdc.c ****   *   This parameter can be: ENABLE or DISABLE.
 259:Drivers/STM32F4xx_StdPeriph_Driver/src/stm32f4xx_ltdc.c ****   * @retval None
 260:Drivers/STM32F4xx_StdPeriph_Driver/src/stm32f4xx_ltdc.c ****   */
 261:Drivers/STM32F4xx_StdPeriph_Driver/src/stm32f4xx_ltdc.c **** 
 262:Drivers/STM32F4xx_StdPeriph_Driver/src/stm32f4xx_ltdc.c **** void LTDC_DitherCmd(FunctionalState NewState)
 263:Drivers/STM32F4xx_StdPeriph_Driver/src/stm32f4xx_ltdc.c **** {
 364              		.loc 1 263 1 is_stmt 1 view -0
 365              		.cfi_startproc
 366              		@ args = 0, pretend = 0, frame = 0
 367              		@ frame_needed = 0, uses_anonymous_args = 0
 368              		@ link register save eliminated.
 264:Drivers/STM32F4xx_StdPeriph_Driver/src/stm32f4xx_ltdc.c ****   /* Check the parameters */
 265:Drivers/STM32F4xx_StdPeriph_Driver/src/stm32f4xx_ltdc.c ****   assert_param(IS_FUNCTIONAL_STATE(NewState));
 369              		.loc 1 265 3 view .LVU129
ARM GAS  /tmp/ccEhn3Qw.s 			page 12


 266:Drivers/STM32F4xx_StdPeriph_Driver/src/stm32f4xx_ltdc.c **** 
 267:Drivers/STM32F4xx_StdPeriph_Driver/src/stm32f4xx_ltdc.c ****   if (NewState != DISABLE)
 370              		.loc 1 267 3 view .LVU130
 371              		.loc 1 267 6 is_stmt 0 view .LVU131
 372 0000 28B1     		cbz	r0, .L14
 268:Drivers/STM32F4xx_StdPeriph_Driver/src/stm32f4xx_ltdc.c ****   {
 269:Drivers/STM32F4xx_StdPeriph_Driver/src/stm32f4xx_ltdc.c ****     /* Enable Dither by setting DTEN bit */
 270:Drivers/STM32F4xx_StdPeriph_Driver/src/stm32f4xx_ltdc.c ****     LTDC->GCR |= (uint32_t)LTDC_GCR_DTEN;
 373              		.loc 1 270 5 is_stmt 1 view .LVU132
 374              		.loc 1 270 15 is_stmt 0 view .LVU133
 375 0002 064A     		ldr	r2, .L16
 376 0004 9369     		ldr	r3, [r2, #24]
 377 0006 43F48033 		orr	r3, r3, #65536
 378 000a 9361     		str	r3, [r2, #24]
 379 000c 7047     		bx	lr
 380              	.L14:
 271:Drivers/STM32F4xx_StdPeriph_Driver/src/stm32f4xx_ltdc.c ****   }
 272:Drivers/STM32F4xx_StdPeriph_Driver/src/stm32f4xx_ltdc.c ****   else
 273:Drivers/STM32F4xx_StdPeriph_Driver/src/stm32f4xx_ltdc.c ****   {
 274:Drivers/STM32F4xx_StdPeriph_Driver/src/stm32f4xx_ltdc.c ****     /* Disable Dither by clearing DTEN bit */
 275:Drivers/STM32F4xx_StdPeriph_Driver/src/stm32f4xx_ltdc.c ****     LTDC->GCR &= ~(uint32_t)LTDC_GCR_DTEN;
 381              		.loc 1 275 5 is_stmt 1 view .LVU134
 382              		.loc 1 275 15 is_stmt 0 view .LVU135
 383 000e 034A     		ldr	r2, .L16
 384 0010 9369     		ldr	r3, [r2, #24]
 385 0012 23F48033 		bic	r3, r3, #65536
 386 0016 9361     		str	r3, [r2, #24]
 276:Drivers/STM32F4xx_StdPeriph_Driver/src/stm32f4xx_ltdc.c ****   }
 277:Drivers/STM32F4xx_StdPeriph_Driver/src/stm32f4xx_ltdc.c **** }
 387              		.loc 1 277 1 view .LVU136
 388 0018 7047     		bx	lr
 389              	.L17:
 390 001a 00BF     		.align	2
 391              	.L16:
 392 001c 00680140 		.word	1073833984
 393              		.cfi_endproc
 394              	.LFE127:
 396              		.section	.text.LTDC_GetRGBWidth,"ax",%progbits
 397              		.align	1
 398              		.global	LTDC_GetRGBWidth
 399              		.syntax unified
 400              		.thumb
 401              		.thumb_func
 402              		.fpu fpv4-sp-d16
 404              	LTDC_GetRGBWidth:
 405              	.LVL17:
 406              	.LFB128:
 278:Drivers/STM32F4xx_StdPeriph_Driver/src/stm32f4xx_ltdc.c **** 
 279:Drivers/STM32F4xx_StdPeriph_Driver/src/stm32f4xx_ltdc.c **** /**
 280:Drivers/STM32F4xx_StdPeriph_Driver/src/stm32f4xx_ltdc.c ****   * @brief  Get the dither RGB width.
 281:Drivers/STM32F4xx_StdPeriph_Driver/src/stm32f4xx_ltdc.c ****   * @param  LTDC_RGB_InitStruct: pointer to a LTDC_RGBTypeDef structure that contains
 282:Drivers/STM32F4xx_StdPeriph_Driver/src/stm32f4xx_ltdc.c ****   *         the Dither RGB width.
 283:Drivers/STM32F4xx_StdPeriph_Driver/src/stm32f4xx_ltdc.c ****   * @retval None
 284:Drivers/STM32F4xx_StdPeriph_Driver/src/stm32f4xx_ltdc.c ****   */
 285:Drivers/STM32F4xx_StdPeriph_Driver/src/stm32f4xx_ltdc.c **** 
 286:Drivers/STM32F4xx_StdPeriph_Driver/src/stm32f4xx_ltdc.c **** LTDC_RGBTypeDef LTDC_GetRGBWidth(void)
 287:Drivers/STM32F4xx_StdPeriph_Driver/src/stm32f4xx_ltdc.c **** {
ARM GAS  /tmp/ccEhn3Qw.s 			page 13


 407              		.loc 1 287 1 is_stmt 1 view -0
 408              		.cfi_startproc
 409              		@ args = 0, pretend = 0, frame = 0
 410              		@ frame_needed = 0, uses_anonymous_args = 0
 411              		@ link register save eliminated.
 412              		.loc 1 287 1 is_stmt 0 view .LVU138
 413 0000 10B4     		push	{r4}
 414              		.cfi_def_cfa_offset 4
 415              		.cfi_offset 4, -4
 288:Drivers/STM32F4xx_StdPeriph_Driver/src/stm32f4xx_ltdc.c ****   LTDC_RGBTypeDef LTDC_RGB_InitStruct;
 416              		.loc 1 288 3 is_stmt 1 view .LVU139
 289:Drivers/STM32F4xx_StdPeriph_Driver/src/stm32f4xx_ltdc.c **** 
 290:Drivers/STM32F4xx_StdPeriph_Driver/src/stm32f4xx_ltdc.c ****   LTDC->GCR &= (uint32_t)GCR_MASK;
 417              		.loc 1 290 3 view .LVU140
 418              		.loc 1 290 13 is_stmt 0 view .LVU141
 419 0002 0A4A     		ldr	r2, .L20
 420 0004 9469     		ldr	r4, [r2, #24]
 421 0006 0A49     		ldr	r1, .L20+4
 422 0008 2140     		ands	r1, r1, r4
 423 000a 9161     		str	r1, [r2, #24]
 291:Drivers/STM32F4xx_StdPeriph_Driver/src/stm32f4xx_ltdc.c **** 
 292:Drivers/STM32F4xx_StdPeriph_Driver/src/stm32f4xx_ltdc.c ****   LTDC_RGB_InitStruct.LTDC_BlueWidth = (uint32_t)((LTDC->GCR >> 4) & 0x7);
 424              		.loc 1 292 3 is_stmt 1 view .LVU142
 425              		.loc 1 292 56 is_stmt 0 view .LVU143
 426 000c 9169     		ldr	r1, [r2, #24]
 427              		.loc 1 292 40 view .LVU144
 428 000e C1F30211 		ubfx	r1, r1, #4, #3
 429              		.loc 1 292 38 view .LVU145
 430 0012 0160     		str	r1, [r0]
 293:Drivers/STM32F4xx_StdPeriph_Driver/src/stm32f4xx_ltdc.c ****   LTDC_RGB_InitStruct.LTDC_GreenWidth = (uint32_t)((LTDC->GCR >> 8) & 0x7);
 431              		.loc 1 293 3 is_stmt 1 view .LVU146
 432              		.loc 1 293 57 is_stmt 0 view .LVU147
 433 0014 9169     		ldr	r1, [r2, #24]
 434              		.loc 1 293 41 view .LVU148
 435 0016 C1F30221 		ubfx	r1, r1, #8, #3
 436              		.loc 1 293 39 view .LVU149
 437 001a 4160     		str	r1, [r0, #4]
 294:Drivers/STM32F4xx_StdPeriph_Driver/src/stm32f4xx_ltdc.c ****   LTDC_RGB_InitStruct.LTDC_RedWidth = (uint32_t)((LTDC->GCR >> 12) & 0x7);
 438              		.loc 1 294 3 is_stmt 1 view .LVU150
 439              		.loc 1 294 55 is_stmt 0 view .LVU151
 440 001c 9269     		ldr	r2, [r2, #24]
 441              		.loc 1 294 39 view .LVU152
 442 001e C2F30232 		ubfx	r2, r2, #12, #3
 443              		.loc 1 294 37 view .LVU153
 444 0022 8260     		str	r2, [r0, #8]
 295:Drivers/STM32F4xx_StdPeriph_Driver/src/stm32f4xx_ltdc.c **** 
 296:Drivers/STM32F4xx_StdPeriph_Driver/src/stm32f4xx_ltdc.c ****   return LTDC_RGB_InitStruct;
 445              		.loc 1 296 3 is_stmt 1 view .LVU154
 297:Drivers/STM32F4xx_StdPeriph_Driver/src/stm32f4xx_ltdc.c **** }
 446              		.loc 1 297 1 is_stmt 0 view .LVU155
 447 0024 5DF8044B 		ldr	r4, [sp], #4
 448              		.cfi_restore 4
 449              		.cfi_def_cfa_offset 0
 450 0028 7047     		bx	lr
 451              	.L21:
 452 002a 00BF     		.align	2
 453              	.L20:
ARM GAS  /tmp/ccEhn3Qw.s 			page 14


 454 002c 00680140 		.word	1073833984
 455 0030 8F88FE0F 		.word	268339343
 456              		.cfi_endproc
 457              	.LFE128:
 459              		.section	.text.LTDC_RGBStructInit,"ax",%progbits
 460              		.align	1
 461              		.global	LTDC_RGBStructInit
 462              		.syntax unified
 463              		.thumb
 464              		.thumb_func
 465              		.fpu fpv4-sp-d16
 467              	LTDC_RGBStructInit:
 468              	.LVL18:
 469              	.LFB129:
 298:Drivers/STM32F4xx_StdPeriph_Driver/src/stm32f4xx_ltdc.c **** 
 299:Drivers/STM32F4xx_StdPeriph_Driver/src/stm32f4xx_ltdc.c **** /**
 300:Drivers/STM32F4xx_StdPeriph_Driver/src/stm32f4xx_ltdc.c ****   * @brief  Fills each LTDC_RGBStruct member with its default value.
 301:Drivers/STM32F4xx_StdPeriph_Driver/src/stm32f4xx_ltdc.c ****   * @param  LTDC_RGB_InitStruct: pointer to a LTDC_RGBTypeDef structure which will
 302:Drivers/STM32F4xx_StdPeriph_Driver/src/stm32f4xx_ltdc.c ****   *         be initialized.
 303:Drivers/STM32F4xx_StdPeriph_Driver/src/stm32f4xx_ltdc.c ****   * @retval None
 304:Drivers/STM32F4xx_StdPeriph_Driver/src/stm32f4xx_ltdc.c ****   */
 305:Drivers/STM32F4xx_StdPeriph_Driver/src/stm32f4xx_ltdc.c **** 
 306:Drivers/STM32F4xx_StdPeriph_Driver/src/stm32f4xx_ltdc.c **** void LTDC_RGBStructInit(LTDC_RGBTypeDef* LTDC_RGB_InitStruct)
 307:Drivers/STM32F4xx_StdPeriph_Driver/src/stm32f4xx_ltdc.c **** {
 470              		.loc 1 307 1 is_stmt 1 view -0
 471              		.cfi_startproc
 472              		@ args = 0, pretend = 0, frame = 0
 473              		@ frame_needed = 0, uses_anonymous_args = 0
 474              		@ link register save eliminated.
 308:Drivers/STM32F4xx_StdPeriph_Driver/src/stm32f4xx_ltdc.c ****   LTDC_RGB_InitStruct->LTDC_BlueWidth = 0x02;
 475              		.loc 1 308 3 view .LVU157
 476              		.loc 1 308 39 is_stmt 0 view .LVU158
 477 0000 0223     		movs	r3, #2
 478 0002 0360     		str	r3, [r0]
 309:Drivers/STM32F4xx_StdPeriph_Driver/src/stm32f4xx_ltdc.c ****   LTDC_RGB_InitStruct->LTDC_GreenWidth = 0x02;
 479              		.loc 1 309 3 is_stmt 1 view .LVU159
 480              		.loc 1 309 40 is_stmt 0 view .LVU160
 481 0004 4360     		str	r3, [r0, #4]
 310:Drivers/STM32F4xx_StdPeriph_Driver/src/stm32f4xx_ltdc.c ****   LTDC_RGB_InitStruct->LTDC_RedWidth = 0x02;
 482              		.loc 1 310 3 is_stmt 1 view .LVU161
 483              		.loc 1 310 38 is_stmt 0 view .LVU162
 484 0006 8360     		str	r3, [r0, #8]
 311:Drivers/STM32F4xx_StdPeriph_Driver/src/stm32f4xx_ltdc.c **** }
 485              		.loc 1 311 1 view .LVU163
 486 0008 7047     		bx	lr
 487              		.cfi_endproc
 488              	.LFE129:
 490              		.section	.text.LTDC_LIPConfig,"ax",%progbits
 491              		.align	1
 492              		.global	LTDC_LIPConfig
 493              		.syntax unified
 494              		.thumb
 495              		.thumb_func
 496              		.fpu fpv4-sp-d16
 498              	LTDC_LIPConfig:
 499              	.LVL19:
 500              	.LFB130:
ARM GAS  /tmp/ccEhn3Qw.s 			page 15


 312:Drivers/STM32F4xx_StdPeriph_Driver/src/stm32f4xx_ltdc.c **** 
 313:Drivers/STM32F4xx_StdPeriph_Driver/src/stm32f4xx_ltdc.c **** 
 314:Drivers/STM32F4xx_StdPeriph_Driver/src/stm32f4xx_ltdc.c **** /**
 315:Drivers/STM32F4xx_StdPeriph_Driver/src/stm32f4xx_ltdc.c ****   * @brief  Define the position of the line interrupt .
 316:Drivers/STM32F4xx_StdPeriph_Driver/src/stm32f4xx_ltdc.c ****   * @param  LTDC_LIPositionConfig: Line Interrupt Position.
 317:Drivers/STM32F4xx_StdPeriph_Driver/src/stm32f4xx_ltdc.c ****   * @retval None
 318:Drivers/STM32F4xx_StdPeriph_Driver/src/stm32f4xx_ltdc.c ****   */
 319:Drivers/STM32F4xx_StdPeriph_Driver/src/stm32f4xx_ltdc.c **** 
 320:Drivers/STM32F4xx_StdPeriph_Driver/src/stm32f4xx_ltdc.c **** void LTDC_LIPConfig(uint32_t LTDC_LIPositionConfig)
 321:Drivers/STM32F4xx_StdPeriph_Driver/src/stm32f4xx_ltdc.c **** {
 501              		.loc 1 321 1 is_stmt 1 view -0
 502              		.cfi_startproc
 503              		@ args = 0, pretend = 0, frame = 0
 504              		@ frame_needed = 0, uses_anonymous_args = 0
 505              		@ link register save eliminated.
 322:Drivers/STM32F4xx_StdPeriph_Driver/src/stm32f4xx_ltdc.c ****   /* Check the parameters */
 323:Drivers/STM32F4xx_StdPeriph_Driver/src/stm32f4xx_ltdc.c ****   assert_param(IS_LTDC_LIPOS(LTDC_LIPositionConfig));
 506              		.loc 1 323 3 view .LVU165
 324:Drivers/STM32F4xx_StdPeriph_Driver/src/stm32f4xx_ltdc.c **** 
 325:Drivers/STM32F4xx_StdPeriph_Driver/src/stm32f4xx_ltdc.c ****   /* Sets the Line Interrupt position */
 326:Drivers/STM32F4xx_StdPeriph_Driver/src/stm32f4xx_ltdc.c ****   LTDC->LIPCR = (uint32_t)LTDC_LIPositionConfig;
 507              		.loc 1 326 3 view .LVU166
 508              		.loc 1 326 15 is_stmt 0 view .LVU167
 509 0000 014B     		ldr	r3, .L24
 510 0002 1864     		str	r0, [r3, #64]
 327:Drivers/STM32F4xx_StdPeriph_Driver/src/stm32f4xx_ltdc.c **** }
 511              		.loc 1 327 1 view .LVU168
 512 0004 7047     		bx	lr
 513              	.L25:
 514 0006 00BF     		.align	2
 515              	.L24:
 516 0008 00680140 		.word	1073833984
 517              		.cfi_endproc
 518              	.LFE130:
 520              		.section	.text.LTDC_ReloadConfig,"ax",%progbits
 521              		.align	1
 522              		.global	LTDC_ReloadConfig
 523              		.syntax unified
 524              		.thumb
 525              		.thumb_func
 526              		.fpu fpv4-sp-d16
 528              	LTDC_ReloadConfig:
 529              	.LVL20:
 530              	.LFB131:
 328:Drivers/STM32F4xx_StdPeriph_Driver/src/stm32f4xx_ltdc.c **** 
 329:Drivers/STM32F4xx_StdPeriph_Driver/src/stm32f4xx_ltdc.c **** /**
 330:Drivers/STM32F4xx_StdPeriph_Driver/src/stm32f4xx_ltdc.c ****   * @brief  reload layers registers with new parameters 
 331:Drivers/STM32F4xx_StdPeriph_Driver/src/stm32f4xx_ltdc.c ****   * @param  LTDC_Reload: specifies the type of reload.
 332:Drivers/STM32F4xx_StdPeriph_Driver/src/stm32f4xx_ltdc.c ****   *   This parameter can be one of the following values:
 333:Drivers/STM32F4xx_StdPeriph_Driver/src/stm32f4xx_ltdc.c ****   *     @arg LTDC_IMReload: Vertical blanking reload.
 334:Drivers/STM32F4xx_StdPeriph_Driver/src/stm32f4xx_ltdc.c ****   *     @arg LTDC_VBReload: Immediate reload.  
 335:Drivers/STM32F4xx_StdPeriph_Driver/src/stm32f4xx_ltdc.c ****   * @retval None
 336:Drivers/STM32F4xx_StdPeriph_Driver/src/stm32f4xx_ltdc.c ****   */
 337:Drivers/STM32F4xx_StdPeriph_Driver/src/stm32f4xx_ltdc.c **** 
 338:Drivers/STM32F4xx_StdPeriph_Driver/src/stm32f4xx_ltdc.c **** void LTDC_ReloadConfig(uint32_t LTDC_Reload)
 339:Drivers/STM32F4xx_StdPeriph_Driver/src/stm32f4xx_ltdc.c **** {
 531              		.loc 1 339 1 is_stmt 1 view -0
ARM GAS  /tmp/ccEhn3Qw.s 			page 16


 532              		.cfi_startproc
 533              		@ args = 0, pretend = 0, frame = 0
 534              		@ frame_needed = 0, uses_anonymous_args = 0
 535              		@ link register save eliminated.
 340:Drivers/STM32F4xx_StdPeriph_Driver/src/stm32f4xx_ltdc.c ****   /* Check the parameters */
 341:Drivers/STM32F4xx_StdPeriph_Driver/src/stm32f4xx_ltdc.c ****   assert_param(IS_LTDC_RELOAD(LTDC_Reload));
 536              		.loc 1 341 3 view .LVU170
 342:Drivers/STM32F4xx_StdPeriph_Driver/src/stm32f4xx_ltdc.c **** 
 343:Drivers/STM32F4xx_StdPeriph_Driver/src/stm32f4xx_ltdc.c ****   /* Sets the Reload type */
 344:Drivers/STM32F4xx_StdPeriph_Driver/src/stm32f4xx_ltdc.c ****   LTDC->SRCR = (uint32_t)LTDC_Reload;
 537              		.loc 1 344 3 view .LVU171
 538              		.loc 1 344 14 is_stmt 0 view .LVU172
 539 0000 014B     		ldr	r3, .L27
 540 0002 5862     		str	r0, [r3, #36]
 345:Drivers/STM32F4xx_StdPeriph_Driver/src/stm32f4xx_ltdc.c **** }
 541              		.loc 1 345 1 view .LVU173
 542 0004 7047     		bx	lr
 543              	.L28:
 544 0006 00BF     		.align	2
 545              	.L27:
 546 0008 00680140 		.word	1073833984
 547              		.cfi_endproc
 548              	.LFE131:
 550              		.section	.text.LTDC_LayerInit,"ax",%progbits
 551              		.align	1
 552              		.global	LTDC_LayerInit
 553              		.syntax unified
 554              		.thumb
 555              		.thumb_func
 556              		.fpu fpv4-sp-d16
 558              	LTDC_LayerInit:
 559              	.LVL21:
 560              	.LFB132:
 346:Drivers/STM32F4xx_StdPeriph_Driver/src/stm32f4xx_ltdc.c **** 
 347:Drivers/STM32F4xx_StdPeriph_Driver/src/stm32f4xx_ltdc.c **** 
 348:Drivers/STM32F4xx_StdPeriph_Driver/src/stm32f4xx_ltdc.c **** /**
 349:Drivers/STM32F4xx_StdPeriph_Driver/src/stm32f4xx_ltdc.c ****   * @brief  Initializes the LTDC Layer according to the specified parameters
 350:Drivers/STM32F4xx_StdPeriph_Driver/src/stm32f4xx_ltdc.c ****   *         in the LTDC_LayerStruct.
 351:Drivers/STM32F4xx_StdPeriph_Driver/src/stm32f4xx_ltdc.c ****   * @note   This function can be used only when the LTDC is disabled.
 352:Drivers/STM32F4xx_StdPeriph_Driver/src/stm32f4xx_ltdc.c ****   * @param  LTDC_layerx: Select the layer to be configured, this parameter can be 
 353:Drivers/STM32F4xx_StdPeriph_Driver/src/stm32f4xx_ltdc.c ****   *         one of the following values: LTDC_Layer1, LTDC_Layer2    
 354:Drivers/STM32F4xx_StdPeriph_Driver/src/stm32f4xx_ltdc.c ****   * @param  LTDC_LayerStruct: pointer to a LTDC_LayerTypeDef structure that contains
 355:Drivers/STM32F4xx_StdPeriph_Driver/src/stm32f4xx_ltdc.c ****   *         the configuration information for the specified LTDC peripheral.
 356:Drivers/STM32F4xx_StdPeriph_Driver/src/stm32f4xx_ltdc.c ****   * @retval None
 357:Drivers/STM32F4xx_StdPeriph_Driver/src/stm32f4xx_ltdc.c ****   */
 358:Drivers/STM32F4xx_StdPeriph_Driver/src/stm32f4xx_ltdc.c **** 
 359:Drivers/STM32F4xx_StdPeriph_Driver/src/stm32f4xx_ltdc.c **** void LTDC_LayerInit(LTDC_Layer_TypeDef* LTDC_Layerx, LTDC_Layer_InitTypeDef* LTDC_Layer_InitStruct)
 360:Drivers/STM32F4xx_StdPeriph_Driver/src/stm32f4xx_ltdc.c **** {
 561              		.loc 1 360 1 is_stmt 1 view -0
 562              		.cfi_startproc
 563              		@ args = 0, pretend = 0, frame = 0
 564              		@ frame_needed = 0, uses_anonymous_args = 0
 565              		@ link register save eliminated.
 566              		.loc 1 360 1 is_stmt 0 view .LVU175
 567 0000 70B4     		push	{r4, r5, r6}
 568              		.cfi_def_cfa_offset 12
 569              		.cfi_offset 4, -12
ARM GAS  /tmp/ccEhn3Qw.s 			page 17


 570              		.cfi_offset 5, -8
 571              		.cfi_offset 6, -4
 361:Drivers/STM32F4xx_StdPeriph_Driver/src/stm32f4xx_ltdc.c **** 
 362:Drivers/STM32F4xx_StdPeriph_Driver/src/stm32f4xx_ltdc.c ****   uint32_t whsppos = 0;
 572              		.loc 1 362 3 is_stmt 1 view .LVU176
 573              	.LVL22:
 363:Drivers/STM32F4xx_StdPeriph_Driver/src/stm32f4xx_ltdc.c ****   uint32_t wvsppos = 0;
 574              		.loc 1 363 3 view .LVU177
 364:Drivers/STM32F4xx_StdPeriph_Driver/src/stm32f4xx_ltdc.c ****   uint32_t dcgreen = 0;
 575              		.loc 1 364 3 view .LVU178
 365:Drivers/STM32F4xx_StdPeriph_Driver/src/stm32f4xx_ltdc.c ****   uint32_t dcred = 0;
 576              		.loc 1 365 3 view .LVU179
 366:Drivers/STM32F4xx_StdPeriph_Driver/src/stm32f4xx_ltdc.c ****   uint32_t dcalpha = 0;
 577              		.loc 1 366 3 view .LVU180
 367:Drivers/STM32F4xx_StdPeriph_Driver/src/stm32f4xx_ltdc.c ****   uint32_t cfbp = 0;
 578              		.loc 1 367 3 view .LVU181
 368:Drivers/STM32F4xx_StdPeriph_Driver/src/stm32f4xx_ltdc.c **** 
 369:Drivers/STM32F4xx_StdPeriph_Driver/src/stm32f4xx_ltdc.c **** /* Check the parameters */
 370:Drivers/STM32F4xx_StdPeriph_Driver/src/stm32f4xx_ltdc.c ****   assert_param(IS_LTDC_Pixelformat(LTDC_Layer_InitStruct->LTDC_PixelFormat));
 579              		.loc 1 370 3 view .LVU182
 371:Drivers/STM32F4xx_StdPeriph_Driver/src/stm32f4xx_ltdc.c ****   assert_param(IS_LTDC_BlendingFactor1(LTDC_Layer_InitStruct->LTDC_BlendingFactor_1));
 580              		.loc 1 371 3 view .LVU183
 372:Drivers/STM32F4xx_StdPeriph_Driver/src/stm32f4xx_ltdc.c ****   assert_param(IS_LTDC_BlendingFactor2(LTDC_Layer_InitStruct->LTDC_BlendingFactor_2));
 581              		.loc 1 372 3 view .LVU184
 373:Drivers/STM32F4xx_StdPeriph_Driver/src/stm32f4xx_ltdc.c ****   assert_param(IS_LTDC_HCONFIGST(LTDC_Layer_InitStruct->LTDC_HorizontalStart));
 582              		.loc 1 373 3 view .LVU185
 374:Drivers/STM32F4xx_StdPeriph_Driver/src/stm32f4xx_ltdc.c ****   assert_param(IS_LTDC_HCONFIGSP(LTDC_Layer_InitStruct->LTDC_HorizontalStop));
 583              		.loc 1 374 3 view .LVU186
 375:Drivers/STM32F4xx_StdPeriph_Driver/src/stm32f4xx_ltdc.c ****   assert_param(IS_LTDC_VCONFIGST(LTDC_Layer_InitStruct->LTDC_VerticalStart));
 584              		.loc 1 375 3 view .LVU187
 376:Drivers/STM32F4xx_StdPeriph_Driver/src/stm32f4xx_ltdc.c ****   assert_param(IS_LTDC_VCONFIGSP(LTDC_Layer_InitStruct->LTDC_VerticalStop));  
 585              		.loc 1 376 3 view .LVU188
 377:Drivers/STM32F4xx_StdPeriph_Driver/src/stm32f4xx_ltdc.c ****   assert_param(IS_LTDC_DEFAULTCOLOR(LTDC_Layer_InitStruct->LTDC_DefaultColorBlue));
 586              		.loc 1 377 3 view .LVU189
 378:Drivers/STM32F4xx_StdPeriph_Driver/src/stm32f4xx_ltdc.c ****   assert_param(IS_LTDC_DEFAULTCOLOR(LTDC_Layer_InitStruct->LTDC_DefaultColorGreen));
 587              		.loc 1 378 3 view .LVU190
 379:Drivers/STM32F4xx_StdPeriph_Driver/src/stm32f4xx_ltdc.c ****   assert_param(IS_LTDC_DEFAULTCOLOR(LTDC_Layer_InitStruct->LTDC_DefaultColorRed));
 588              		.loc 1 379 3 view .LVU191
 380:Drivers/STM32F4xx_StdPeriph_Driver/src/stm32f4xx_ltdc.c ****   assert_param(IS_LTDC_DEFAULTCOLOR(LTDC_Layer_InitStruct->LTDC_DefaultColorAlpha));
 589              		.loc 1 380 3 view .LVU192
 381:Drivers/STM32F4xx_StdPeriph_Driver/src/stm32f4xx_ltdc.c ****   assert_param(IS_LTDC_CFBP(LTDC_Layer_InitStruct->LTDC_CFBPitch));
 590              		.loc 1 381 3 view .LVU193
 382:Drivers/STM32F4xx_StdPeriph_Driver/src/stm32f4xx_ltdc.c ****   assert_param(IS_LTDC_CFBLL(LTDC_Layer_InitStruct->LTDC_CFBLineLength));
 591              		.loc 1 382 3 view .LVU194
 383:Drivers/STM32F4xx_StdPeriph_Driver/src/stm32f4xx_ltdc.c ****   assert_param(IS_LTDC_CFBLNBR(LTDC_Layer_InitStruct->LTDC_CFBLineNumber));
 592              		.loc 1 383 3 view .LVU195
 384:Drivers/STM32F4xx_StdPeriph_Driver/src/stm32f4xx_ltdc.c **** 
 385:Drivers/STM32F4xx_StdPeriph_Driver/src/stm32f4xx_ltdc.c ****   /* Configures the horizontal start and stop position */
 386:Drivers/STM32F4xx_StdPeriph_Driver/src/stm32f4xx_ltdc.c ****   whsppos = LTDC_Layer_InitStruct->LTDC_HorizontalStop << 16;
 593              		.loc 1 386 3 view .LVU196
 594              		.loc 1 386 34 is_stmt 0 view .LVU197
 595 0002 4C68     		ldr	r4, [r1, #4]
 596              	.LVL23:
 387:Drivers/STM32F4xx_StdPeriph_Driver/src/stm32f4xx_ltdc.c ****   LTDC_Layerx->WHPCR &= ~(LTDC_LxWHPCR_WHSTPOS | LTDC_LxWHPCR_WHSPPOS);
 597              		.loc 1 387 3 is_stmt 1 view .LVU198
 598              		.loc 1 387 22 is_stmt 0 view .LVU199
 599 0004 4268     		ldr	r2, [r0, #4]
ARM GAS  /tmp/ccEhn3Qw.s 			page 18


 600 0006 02F47042 		and	r2, r2, #61440
 601 000a 4260     		str	r2, [r0, #4]
 388:Drivers/STM32F4xx_StdPeriph_Driver/src/stm32f4xx_ltdc.c ****   LTDC_Layerx->WHPCR = (LTDC_Layer_InitStruct->LTDC_HorizontalStart | whsppos);
 602              		.loc 1 388 3 is_stmt 1 view .LVU200
 603              		.loc 1 388 46 is_stmt 0 view .LVU201
 604 000c 0B68     		ldr	r3, [r1]
 605              		.loc 1 388 69 view .LVU202
 606 000e 43EA0443 		orr	r3, r3, r4, lsl #16
 607              		.loc 1 388 22 view .LVU203
 608 0012 4360     		str	r3, [r0, #4]
 389:Drivers/STM32F4xx_StdPeriph_Driver/src/stm32f4xx_ltdc.c **** 
 390:Drivers/STM32F4xx_StdPeriph_Driver/src/stm32f4xx_ltdc.c ****   /* Configures the vertical start and stop position */
 391:Drivers/STM32F4xx_StdPeriph_Driver/src/stm32f4xx_ltdc.c ****   wvsppos = LTDC_Layer_InitStruct->LTDC_VerticalStop << 16;
 609              		.loc 1 391 3 is_stmt 1 view .LVU204
 610              		.loc 1 391 34 is_stmt 0 view .LVU205
 611 0014 CC68     		ldr	r4, [r1, #12]
 612              	.LVL24:
 392:Drivers/STM32F4xx_StdPeriph_Driver/src/stm32f4xx_ltdc.c ****   LTDC_Layerx->WVPCR &= ~(LTDC_LxWVPCR_WVSTPOS | LTDC_LxWVPCR_WVSPPOS);
 613              		.loc 1 392 3 is_stmt 1 view .LVU206
 614              		.loc 1 392 22 is_stmt 0 view .LVU207
 615 0016 8268     		ldr	r2, [r0, #8]
 616 0018 02F47042 		and	r2, r2, #61440
 617 001c 8260     		str	r2, [r0, #8]
 393:Drivers/STM32F4xx_StdPeriph_Driver/src/stm32f4xx_ltdc.c ****   LTDC_Layerx->WVPCR  = (LTDC_Layer_InitStruct->LTDC_VerticalStart | wvsppos);
 618              		.loc 1 393 3 is_stmt 1 view .LVU208
 619              		.loc 1 393 47 is_stmt 0 view .LVU209
 620 001e 8B68     		ldr	r3, [r1, #8]
 621              		.loc 1 393 68 view .LVU210
 622 0020 43EA0443 		orr	r3, r3, r4, lsl #16
 623              		.loc 1 393 23 view .LVU211
 624 0024 8360     		str	r3, [r0, #8]
 394:Drivers/STM32F4xx_StdPeriph_Driver/src/stm32f4xx_ltdc.c **** 
 395:Drivers/STM32F4xx_StdPeriph_Driver/src/stm32f4xx_ltdc.c ****   /* Specifies the pixel format */
 396:Drivers/STM32F4xx_StdPeriph_Driver/src/stm32f4xx_ltdc.c ****   LTDC_Layerx->PFCR &= ~(LTDC_LxPFCR_PF);
 625              		.loc 1 396 3 is_stmt 1 view .LVU212
 626              		.loc 1 396 21 is_stmt 0 view .LVU213
 627 0026 0369     		ldr	r3, [r0, #16]
 628 0028 23F00703 		bic	r3, r3, #7
 629 002c 0361     		str	r3, [r0, #16]
 397:Drivers/STM32F4xx_StdPeriph_Driver/src/stm32f4xx_ltdc.c ****   LTDC_Layerx->PFCR = (LTDC_Layer_InitStruct->LTDC_PixelFormat);
 630              		.loc 1 397 3 is_stmt 1 view .LVU214
 631              		.loc 1 397 45 is_stmt 0 view .LVU215
 632 002e 0B69     		ldr	r3, [r1, #16]
 633              		.loc 1 397 21 view .LVU216
 634 0030 0361     		str	r3, [r0, #16]
 398:Drivers/STM32F4xx_StdPeriph_Driver/src/stm32f4xx_ltdc.c **** 
 399:Drivers/STM32F4xx_StdPeriph_Driver/src/stm32f4xx_ltdc.c ****   /* Configures the default color values */
 400:Drivers/STM32F4xx_StdPeriph_Driver/src/stm32f4xx_ltdc.c ****   dcgreen = (LTDC_Layer_InitStruct->LTDC_DefaultColorGreen << 8);
 635              		.loc 1 400 3 is_stmt 1 view .LVU217
 636              		.loc 1 400 35 is_stmt 0 view .LVU218
 637 0032 CE69     		ldr	r6, [r1, #28]
 638              	.LVL25:
 401:Drivers/STM32F4xx_StdPeriph_Driver/src/stm32f4xx_ltdc.c ****   dcred = (LTDC_Layer_InitStruct->LTDC_DefaultColorRed << 16);
 639              		.loc 1 401 3 is_stmt 1 view .LVU219
 640              		.loc 1 401 33 is_stmt 0 view .LVU220
 641 0034 0D6A     		ldr	r5, [r1, #32]
 642              	.LVL26:
ARM GAS  /tmp/ccEhn3Qw.s 			page 19


 402:Drivers/STM32F4xx_StdPeriph_Driver/src/stm32f4xx_ltdc.c ****   dcalpha = (LTDC_Layer_InitStruct->LTDC_DefaultColorAlpha << 24);
 643              		.loc 1 402 3 is_stmt 1 view .LVU221
 644              		.loc 1 402 35 is_stmt 0 view .LVU222
 645 0036 4C6A     		ldr	r4, [r1, #36]
 646              	.LVL27:
 403:Drivers/STM32F4xx_StdPeriph_Driver/src/stm32f4xx_ltdc.c ****   LTDC_Layerx->DCCR &=  ~(LTDC_LxDCCR_DCBLUE | LTDC_LxDCCR_DCGREEN | LTDC_LxDCCR_DCRED | LTDC_LxDCC
 647              		.loc 1 403 3 is_stmt 1 view .LVU223
 648              		.loc 1 403 21 is_stmt 0 view .LVU224
 649 0038 8369     		ldr	r3, [r0, #24]
 650 003a 0022     		movs	r2, #0
 651 003c 8261     		str	r2, [r0, #24]
 404:Drivers/STM32F4xx_StdPeriph_Driver/src/stm32f4xx_ltdc.c ****   LTDC_Layerx->DCCR = (LTDC_Layer_InitStruct->LTDC_DefaultColorBlue | dcgreen | \
 652              		.loc 1 404 3 is_stmt 1 view .LVU225
 653              		.loc 1 404 45 is_stmt 0 view .LVU226
 654 003e 8B69     		ldr	r3, [r1, #24]
 655              		.loc 1 404 69 view .LVU227
 656 0040 43EA0623 		orr	r3, r3, r6, lsl #8
 657              		.loc 1 404 79 view .LVU228
 658 0044 43EA0543 		orr	r3, r3, r5, lsl #16
 405:Drivers/STM32F4xx_StdPeriph_Driver/src/stm32f4xx_ltdc.c ****                         dcred | dcalpha);
 659              		.loc 1 405 31 view .LVU229
 660 0048 43EA0463 		orr	r3, r3, r4, lsl #24
 404:Drivers/STM32F4xx_StdPeriph_Driver/src/stm32f4xx_ltdc.c ****   LTDC_Layerx->DCCR = (LTDC_Layer_InitStruct->LTDC_DefaultColorBlue | dcgreen | \
 661              		.loc 1 404 21 view .LVU230
 662 004c 8361     		str	r3, [r0, #24]
 406:Drivers/STM32F4xx_StdPeriph_Driver/src/stm32f4xx_ltdc.c **** 
 407:Drivers/STM32F4xx_StdPeriph_Driver/src/stm32f4xx_ltdc.c ****   /* Specifies the constant alpha value */      
 408:Drivers/STM32F4xx_StdPeriph_Driver/src/stm32f4xx_ltdc.c ****   LTDC_Layerx->CACR &= ~(LTDC_LxCACR_CONSTA);
 663              		.loc 1 408 3 is_stmt 1 view .LVU231
 664              		.loc 1 408 21 is_stmt 0 view .LVU232
 665 004e 4369     		ldr	r3, [r0, #20]
 666 0050 23F0FF03 		bic	r3, r3, #255
 667 0054 4361     		str	r3, [r0, #20]
 409:Drivers/STM32F4xx_StdPeriph_Driver/src/stm32f4xx_ltdc.c ****   LTDC_Layerx->CACR = (LTDC_Layer_InitStruct->LTDC_ConstantAlpha);
 668              		.loc 1 409 3 is_stmt 1 view .LVU233
 669              		.loc 1 409 45 is_stmt 0 view .LVU234
 670 0056 4B69     		ldr	r3, [r1, #20]
 671              		.loc 1 409 21 view .LVU235
 672 0058 4361     		str	r3, [r0, #20]
 410:Drivers/STM32F4xx_StdPeriph_Driver/src/stm32f4xx_ltdc.c **** 
 411:Drivers/STM32F4xx_StdPeriph_Driver/src/stm32f4xx_ltdc.c ****   /* Specifies the blending factors */
 412:Drivers/STM32F4xx_StdPeriph_Driver/src/stm32f4xx_ltdc.c ****   LTDC_Layerx->BFCR &= ~(LTDC_LxBFCR_BF2 | LTDC_LxBFCR_BF1);
 673              		.loc 1 412 3 is_stmt 1 view .LVU236
 674              		.loc 1 412 21 is_stmt 0 view .LVU237
 675 005a C369     		ldr	r3, [r0, #28]
 676 005c 23F4E063 		bic	r3, r3, #1792
 677 0060 23F00703 		bic	r3, r3, #7
 678 0064 C361     		str	r3, [r0, #28]
 413:Drivers/STM32F4xx_StdPeriph_Driver/src/stm32f4xx_ltdc.c ****   LTDC_Layerx->BFCR = (LTDC_Layer_InitStruct->LTDC_BlendingFactor_1 | LTDC_Layer_InitStruct->LTDC_B
 679              		.loc 1 413 3 is_stmt 1 view .LVU238
 680              		.loc 1 413 45 is_stmt 0 view .LVU239
 681 0066 8B6A     		ldr	r3, [r1, #40]
 682              		.loc 1 413 92 view .LVU240
 683 0068 CC6A     		ldr	r4, [r1, #44]
 684              	.LVL28:
 685              		.loc 1 413 69 view .LVU241
 686 006a 2343     		orrs	r3, r3, r4
ARM GAS  /tmp/ccEhn3Qw.s 			page 20


 687              		.loc 1 413 21 view .LVU242
 688 006c C361     		str	r3, [r0, #28]
 414:Drivers/STM32F4xx_StdPeriph_Driver/src/stm32f4xx_ltdc.c **** 
 415:Drivers/STM32F4xx_StdPeriph_Driver/src/stm32f4xx_ltdc.c ****   /* Configures the color frame buffer start address */
 416:Drivers/STM32F4xx_StdPeriph_Driver/src/stm32f4xx_ltdc.c ****   LTDC_Layerx->CFBAR &= ~(LTDC_LxCFBAR_CFBADD);
 689              		.loc 1 416 3 is_stmt 1 view .LVU243
 690              		.loc 1 416 22 is_stmt 0 view .LVU244
 691 006e 836A     		ldr	r3, [r0, #40]
 692 0070 8262     		str	r2, [r0, #40]
 417:Drivers/STM32F4xx_StdPeriph_Driver/src/stm32f4xx_ltdc.c ****   LTDC_Layerx->CFBAR = (LTDC_Layer_InitStruct->LTDC_CFBStartAdress);
 693              		.loc 1 417 3 is_stmt 1 view .LVU245
 694              		.loc 1 417 46 is_stmt 0 view .LVU246
 695 0072 0B6B     		ldr	r3, [r1, #48]
 696              		.loc 1 417 22 view .LVU247
 697 0074 8362     		str	r3, [r0, #40]
 418:Drivers/STM32F4xx_StdPeriph_Driver/src/stm32f4xx_ltdc.c **** 
 419:Drivers/STM32F4xx_StdPeriph_Driver/src/stm32f4xx_ltdc.c ****   /* Configures the color frame buffer pitch in byte */
 420:Drivers/STM32F4xx_StdPeriph_Driver/src/stm32f4xx_ltdc.c ****   cfbp = (LTDC_Layer_InitStruct->LTDC_CFBPitch << 16);
 698              		.loc 1 420 3 is_stmt 1 view .LVU248
 699              		.loc 1 420 32 is_stmt 0 view .LVU249
 700 0076 8C6B     		ldr	r4, [r1, #56]
 701              	.LVL29:
 421:Drivers/STM32F4xx_StdPeriph_Driver/src/stm32f4xx_ltdc.c ****   LTDC_Layerx->CFBLR  &= ~(LTDC_LxCFBLR_CFBLL | LTDC_LxCFBLR_CFBP);
 702              		.loc 1 421 3 is_stmt 1 view .LVU250
 703              		.loc 1 421 23 is_stmt 0 view .LVU251
 704 0078 C26A     		ldr	r2, [r0, #44]
 705 007a 02F0E022 		and	r2, r2, #-536813568
 706 007e C262     		str	r2, [r0, #44]
 422:Drivers/STM32F4xx_StdPeriph_Driver/src/stm32f4xx_ltdc.c ****   LTDC_Layerx->CFBLR  = (LTDC_Layer_InitStruct->LTDC_CFBLineLength | cfbp);
 707              		.loc 1 422 3 is_stmt 1 view .LVU252
 708              		.loc 1 422 47 is_stmt 0 view .LVU253
 709 0080 4B6B     		ldr	r3, [r1, #52]
 710              		.loc 1 422 68 view .LVU254
 711 0082 43EA0443 		orr	r3, r3, r4, lsl #16
 712              		.loc 1 422 23 view .LVU255
 713 0086 C362     		str	r3, [r0, #44]
 423:Drivers/STM32F4xx_StdPeriph_Driver/src/stm32f4xx_ltdc.c **** 
 424:Drivers/STM32F4xx_StdPeriph_Driver/src/stm32f4xx_ltdc.c ****   /* Configures the frame buffer line number */
 425:Drivers/STM32F4xx_StdPeriph_Driver/src/stm32f4xx_ltdc.c ****   LTDC_Layerx->CFBLNR  &= ~(LTDC_LxCFBLNR_CFBLNBR);
 714              		.loc 1 425 3 is_stmt 1 view .LVU256
 715              		.loc 1 425 24 is_stmt 0 view .LVU257
 716 0088 036B     		ldr	r3, [r0, #48]
 717 008a 23F4FF63 		bic	r3, r3, #2040
 718 008e 23F00703 		bic	r3, r3, #7
 719 0092 0363     		str	r3, [r0, #48]
 426:Drivers/STM32F4xx_StdPeriph_Driver/src/stm32f4xx_ltdc.c ****   LTDC_Layerx->CFBLNR  = (LTDC_Layer_InitStruct->LTDC_CFBLineNumber);
 720              		.loc 1 426 3 is_stmt 1 view .LVU258
 721              		.loc 1 426 48 is_stmt 0 view .LVU259
 722 0094 CB6B     		ldr	r3, [r1, #60]
 723              		.loc 1 426 24 view .LVU260
 724 0096 0363     		str	r3, [r0, #48]
 427:Drivers/STM32F4xx_StdPeriph_Driver/src/stm32f4xx_ltdc.c **** 
 428:Drivers/STM32F4xx_StdPeriph_Driver/src/stm32f4xx_ltdc.c **** }
 725              		.loc 1 428 1 view .LVU261
 726 0098 70BC     		pop	{r4, r5, r6}
 727              		.cfi_restore 6
 728              		.cfi_restore 5
ARM GAS  /tmp/ccEhn3Qw.s 			page 21


 729              		.cfi_restore 4
 730              		.cfi_def_cfa_offset 0
 731              	.LVL30:
 732              		.loc 1 428 1 view .LVU262
 733 009a 7047     		bx	lr
 734              		.cfi_endproc
 735              	.LFE132:
 737              		.section	.text.LTDC_LayerStructInit,"ax",%progbits
 738              		.align	1
 739              		.global	LTDC_LayerStructInit
 740              		.syntax unified
 741              		.thumb
 742              		.thumb_func
 743              		.fpu fpv4-sp-d16
 745              	LTDC_LayerStructInit:
 746              	.LVL31:
 747              	.LFB133:
 429:Drivers/STM32F4xx_StdPeriph_Driver/src/stm32f4xx_ltdc.c **** 
 430:Drivers/STM32F4xx_StdPeriph_Driver/src/stm32f4xx_ltdc.c **** /**
 431:Drivers/STM32F4xx_StdPeriph_Driver/src/stm32f4xx_ltdc.c ****   * @brief  Fills each LTDC_Layer_InitStruct member with its default value.
 432:Drivers/STM32F4xx_StdPeriph_Driver/src/stm32f4xx_ltdc.c ****   * @param  LTDC_Layer_InitStruct: pointer to a LTDC_LayerTypeDef structure which will
 433:Drivers/STM32F4xx_StdPeriph_Driver/src/stm32f4xx_ltdc.c ****   *         be initialized.
 434:Drivers/STM32F4xx_StdPeriph_Driver/src/stm32f4xx_ltdc.c ****   * @retval None
 435:Drivers/STM32F4xx_StdPeriph_Driver/src/stm32f4xx_ltdc.c ****   */
 436:Drivers/STM32F4xx_StdPeriph_Driver/src/stm32f4xx_ltdc.c **** 
 437:Drivers/STM32F4xx_StdPeriph_Driver/src/stm32f4xx_ltdc.c **** void LTDC_LayerStructInit(LTDC_Layer_InitTypeDef * LTDC_Layer_InitStruct)
 438:Drivers/STM32F4xx_StdPeriph_Driver/src/stm32f4xx_ltdc.c **** {
 748              		.loc 1 438 1 is_stmt 1 view -0
 749              		.cfi_startproc
 750              		@ args = 0, pretend = 0, frame = 0
 751              		@ frame_needed = 0, uses_anonymous_args = 0
 752              		@ link register save eliminated.
 439:Drivers/STM32F4xx_StdPeriph_Driver/src/stm32f4xx_ltdc.c ****   /*--------------- Reset Layer structure parameters values -------------------*/
 440:Drivers/STM32F4xx_StdPeriph_Driver/src/stm32f4xx_ltdc.c **** 
 441:Drivers/STM32F4xx_StdPeriph_Driver/src/stm32f4xx_ltdc.c ****   /*!< Initialize the horizontal limit member */
 442:Drivers/STM32F4xx_StdPeriph_Driver/src/stm32f4xx_ltdc.c ****   LTDC_Layer_InitStruct->LTDC_HorizontalStart = 0x00;
 753              		.loc 1 442 3 view .LVU264
 754              		.loc 1 442 47 is_stmt 0 view .LVU265
 755 0000 0023     		movs	r3, #0
 756 0002 0360     		str	r3, [r0]
 443:Drivers/STM32F4xx_StdPeriph_Driver/src/stm32f4xx_ltdc.c ****   LTDC_Layer_InitStruct->LTDC_HorizontalStop = 0x00;
 757              		.loc 1 443 3 is_stmt 1 view .LVU266
 758              		.loc 1 443 46 is_stmt 0 view .LVU267
 759 0004 4360     		str	r3, [r0, #4]
 444:Drivers/STM32F4xx_StdPeriph_Driver/src/stm32f4xx_ltdc.c **** 
 445:Drivers/STM32F4xx_StdPeriph_Driver/src/stm32f4xx_ltdc.c ****   /*!< Initialize the vertical limit member */
 446:Drivers/STM32F4xx_StdPeriph_Driver/src/stm32f4xx_ltdc.c ****   LTDC_Layer_InitStruct->LTDC_VerticalStart = 0x00;
 760              		.loc 1 446 3 is_stmt 1 view .LVU268
 761              		.loc 1 446 45 is_stmt 0 view .LVU269
 762 0006 8360     		str	r3, [r0, #8]
 447:Drivers/STM32F4xx_StdPeriph_Driver/src/stm32f4xx_ltdc.c ****   LTDC_Layer_InitStruct->LTDC_VerticalStop = 0x00;
 763              		.loc 1 447 3 is_stmt 1 view .LVU270
 764              		.loc 1 447 44 is_stmt 0 view .LVU271
 765 0008 C360     		str	r3, [r0, #12]
 448:Drivers/STM32F4xx_StdPeriph_Driver/src/stm32f4xx_ltdc.c **** 
 449:Drivers/STM32F4xx_StdPeriph_Driver/src/stm32f4xx_ltdc.c ****   /*!< Initialize the pixel format member */
 450:Drivers/STM32F4xx_StdPeriph_Driver/src/stm32f4xx_ltdc.c ****   LTDC_Layer_InitStruct->LTDC_PixelFormat = LTDC_Pixelformat_ARGB8888;
ARM GAS  /tmp/ccEhn3Qw.s 			page 22


 766              		.loc 1 450 3 is_stmt 1 view .LVU272
 767              		.loc 1 450 43 is_stmt 0 view .LVU273
 768 000a 0361     		str	r3, [r0, #16]
 451:Drivers/STM32F4xx_StdPeriph_Driver/src/stm32f4xx_ltdc.c **** 
 452:Drivers/STM32F4xx_StdPeriph_Driver/src/stm32f4xx_ltdc.c ****   /*!< Initialize the constant alpha value */
 453:Drivers/STM32F4xx_StdPeriph_Driver/src/stm32f4xx_ltdc.c ****   LTDC_Layer_InitStruct->LTDC_ConstantAlpha = 0xFF;
 769              		.loc 1 453 3 is_stmt 1 view .LVU274
 770              		.loc 1 453 45 is_stmt 0 view .LVU275
 771 000c FF22     		movs	r2, #255
 772 000e 4261     		str	r2, [r0, #20]
 454:Drivers/STM32F4xx_StdPeriph_Driver/src/stm32f4xx_ltdc.c **** 
 455:Drivers/STM32F4xx_StdPeriph_Driver/src/stm32f4xx_ltdc.c ****   /*!< Initialize the default color values */
 456:Drivers/STM32F4xx_StdPeriph_Driver/src/stm32f4xx_ltdc.c ****   LTDC_Layer_InitStruct->LTDC_DefaultColorBlue = 0x00;
 773              		.loc 1 456 3 is_stmt 1 view .LVU276
 774              		.loc 1 456 48 is_stmt 0 view .LVU277
 775 0010 8361     		str	r3, [r0, #24]
 457:Drivers/STM32F4xx_StdPeriph_Driver/src/stm32f4xx_ltdc.c ****   LTDC_Layer_InitStruct->LTDC_DefaultColorGreen = 0x00;
 776              		.loc 1 457 3 is_stmt 1 view .LVU278
 777              		.loc 1 457 49 is_stmt 0 view .LVU279
 778 0012 C361     		str	r3, [r0, #28]
 458:Drivers/STM32F4xx_StdPeriph_Driver/src/stm32f4xx_ltdc.c ****   LTDC_Layer_InitStruct->LTDC_DefaultColorRed = 0x00;
 779              		.loc 1 458 3 is_stmt 1 view .LVU280
 780              		.loc 1 458 47 is_stmt 0 view .LVU281
 781 0014 0362     		str	r3, [r0, #32]
 459:Drivers/STM32F4xx_StdPeriph_Driver/src/stm32f4xx_ltdc.c ****   LTDC_Layer_InitStruct->LTDC_DefaultColorAlpha = 0x00;
 782              		.loc 1 459 3 is_stmt 1 view .LVU282
 783              		.loc 1 459 49 is_stmt 0 view .LVU283
 784 0016 4362     		str	r3, [r0, #36]
 460:Drivers/STM32F4xx_StdPeriph_Driver/src/stm32f4xx_ltdc.c **** 
 461:Drivers/STM32F4xx_StdPeriph_Driver/src/stm32f4xx_ltdc.c ****   /*!< Initialize the blending factors */
 462:Drivers/STM32F4xx_StdPeriph_Driver/src/stm32f4xx_ltdc.c ****   LTDC_Layer_InitStruct->LTDC_BlendingFactor_1 = LTDC_BlendingFactor1_PAxCA;
 785              		.loc 1 462 3 is_stmt 1 view .LVU284
 786              		.loc 1 462 48 is_stmt 0 view .LVU285
 787 0018 4FF4C062 		mov	r2, #1536
 788 001c 8262     		str	r2, [r0, #40]
 463:Drivers/STM32F4xx_StdPeriph_Driver/src/stm32f4xx_ltdc.c ****   LTDC_Layer_InitStruct->LTDC_BlendingFactor_2 = LTDC_BlendingFactor2_PAxCA;
 789              		.loc 1 463 3 is_stmt 1 view .LVU286
 790              		.loc 1 463 48 is_stmt 0 view .LVU287
 791 001e 0722     		movs	r2, #7
 792 0020 C262     		str	r2, [r0, #44]
 464:Drivers/STM32F4xx_StdPeriph_Driver/src/stm32f4xx_ltdc.c **** 
 465:Drivers/STM32F4xx_StdPeriph_Driver/src/stm32f4xx_ltdc.c ****   /*!< Initialize the frame buffer start address */
 466:Drivers/STM32F4xx_StdPeriph_Driver/src/stm32f4xx_ltdc.c ****   LTDC_Layer_InitStruct->LTDC_CFBStartAdress = 0x00;
 793              		.loc 1 466 3 is_stmt 1 view .LVU288
 794              		.loc 1 466 46 is_stmt 0 view .LVU289
 795 0022 0363     		str	r3, [r0, #48]
 467:Drivers/STM32F4xx_StdPeriph_Driver/src/stm32f4xx_ltdc.c **** 
 468:Drivers/STM32F4xx_StdPeriph_Driver/src/stm32f4xx_ltdc.c ****   /*!< Initialize the frame buffer pitch and line length */
 469:Drivers/STM32F4xx_StdPeriph_Driver/src/stm32f4xx_ltdc.c ****   LTDC_Layer_InitStruct->LTDC_CFBLineLength = 0x00;
 796              		.loc 1 469 3 is_stmt 1 view .LVU290
 797              		.loc 1 469 45 is_stmt 0 view .LVU291
 798 0024 4363     		str	r3, [r0, #52]
 470:Drivers/STM32F4xx_StdPeriph_Driver/src/stm32f4xx_ltdc.c ****   LTDC_Layer_InitStruct->LTDC_CFBPitch = 0x00;
 799              		.loc 1 470 3 is_stmt 1 view .LVU292
 800              		.loc 1 470 40 is_stmt 0 view .LVU293
 801 0026 8363     		str	r3, [r0, #56]
 471:Drivers/STM32F4xx_StdPeriph_Driver/src/stm32f4xx_ltdc.c **** 
ARM GAS  /tmp/ccEhn3Qw.s 			page 23


 472:Drivers/STM32F4xx_StdPeriph_Driver/src/stm32f4xx_ltdc.c ****   /*!< Initialize the frame buffer line number */
 473:Drivers/STM32F4xx_StdPeriph_Driver/src/stm32f4xx_ltdc.c ****   LTDC_Layer_InitStruct->LTDC_CFBLineNumber = 0x00;
 802              		.loc 1 473 3 is_stmt 1 view .LVU294
 803              		.loc 1 473 45 is_stmt 0 view .LVU295
 804 0028 C363     		str	r3, [r0, #60]
 474:Drivers/STM32F4xx_StdPeriph_Driver/src/stm32f4xx_ltdc.c **** }
 805              		.loc 1 474 1 view .LVU296
 806 002a 7047     		bx	lr
 807              		.cfi_endproc
 808              	.LFE133:
 810              		.section	.text.LTDC_LayerCmd,"ax",%progbits
 811              		.align	1
 812              		.global	LTDC_LayerCmd
 813              		.syntax unified
 814              		.thumb
 815              		.thumb_func
 816              		.fpu fpv4-sp-d16
 818              	LTDC_LayerCmd:
 819              	.LVL32:
 820              	.LFB134:
 475:Drivers/STM32F4xx_StdPeriph_Driver/src/stm32f4xx_ltdc.c **** 
 476:Drivers/STM32F4xx_StdPeriph_Driver/src/stm32f4xx_ltdc.c **** 
 477:Drivers/STM32F4xx_StdPeriph_Driver/src/stm32f4xx_ltdc.c **** /**
 478:Drivers/STM32F4xx_StdPeriph_Driver/src/stm32f4xx_ltdc.c ****   * @brief  Enables or disables the LTDC_Layer Controller.
 479:Drivers/STM32F4xx_StdPeriph_Driver/src/stm32f4xx_ltdc.c ****   * @param  LTDC_layerx: Select the layer to be configured, this parameter can be 
 480:Drivers/STM32F4xx_StdPeriph_Driver/src/stm32f4xx_ltdc.c ****   *         one of the following values: LTDC_Layer1, LTDC_Layer2
 481:Drivers/STM32F4xx_StdPeriph_Driver/src/stm32f4xx_ltdc.c ****   * @param  NewState: new state of the LTDC_Layer peripheral.
 482:Drivers/STM32F4xx_StdPeriph_Driver/src/stm32f4xx_ltdc.c ****   *   This parameter can be: ENABLE or DISABLE.
 483:Drivers/STM32F4xx_StdPeriph_Driver/src/stm32f4xx_ltdc.c ****   * @retval None
 484:Drivers/STM32F4xx_StdPeriph_Driver/src/stm32f4xx_ltdc.c ****   */
 485:Drivers/STM32F4xx_StdPeriph_Driver/src/stm32f4xx_ltdc.c **** 
 486:Drivers/STM32F4xx_StdPeriph_Driver/src/stm32f4xx_ltdc.c **** void LTDC_LayerCmd(LTDC_Layer_TypeDef* LTDC_Layerx, FunctionalState NewState)
 487:Drivers/STM32F4xx_StdPeriph_Driver/src/stm32f4xx_ltdc.c **** {
 821              		.loc 1 487 1 is_stmt 1 view -0
 822              		.cfi_startproc
 823              		@ args = 0, pretend = 0, frame = 0
 824              		@ frame_needed = 0, uses_anonymous_args = 0
 825              		@ link register save eliminated.
 488:Drivers/STM32F4xx_StdPeriph_Driver/src/stm32f4xx_ltdc.c ****   /* Check the parameters */
 489:Drivers/STM32F4xx_StdPeriph_Driver/src/stm32f4xx_ltdc.c ****   assert_param(IS_FUNCTIONAL_STATE(NewState));
 826              		.loc 1 489 3 view .LVU298
 490:Drivers/STM32F4xx_StdPeriph_Driver/src/stm32f4xx_ltdc.c **** 
 491:Drivers/STM32F4xx_StdPeriph_Driver/src/stm32f4xx_ltdc.c ****   if (NewState != DISABLE)
 827              		.loc 1 491 3 view .LVU299
 828              		.loc 1 491 6 is_stmt 0 view .LVU300
 829 0000 21B1     		cbz	r1, .L33
 492:Drivers/STM32F4xx_StdPeriph_Driver/src/stm32f4xx_ltdc.c ****   {
 493:Drivers/STM32F4xx_StdPeriph_Driver/src/stm32f4xx_ltdc.c ****     /* Enable LTDC_Layer by setting LEN bit */
 494:Drivers/STM32F4xx_StdPeriph_Driver/src/stm32f4xx_ltdc.c ****     LTDC_Layerx->CR |= (uint32_t)LTDC_LxCR_LEN;
 830              		.loc 1 494 5 is_stmt 1 view .LVU301
 831              		.loc 1 494 21 is_stmt 0 view .LVU302
 832 0002 0368     		ldr	r3, [r0]
 833 0004 43F00103 		orr	r3, r3, #1
 834 0008 0360     		str	r3, [r0]
 835 000a 7047     		bx	lr
 836              	.L33:
 495:Drivers/STM32F4xx_StdPeriph_Driver/src/stm32f4xx_ltdc.c ****   }
ARM GAS  /tmp/ccEhn3Qw.s 			page 24


 496:Drivers/STM32F4xx_StdPeriph_Driver/src/stm32f4xx_ltdc.c ****   else
 497:Drivers/STM32F4xx_StdPeriph_Driver/src/stm32f4xx_ltdc.c ****   {
 498:Drivers/STM32F4xx_StdPeriph_Driver/src/stm32f4xx_ltdc.c ****     /* Disable LTDC_Layer by clearing LEN bit */
 499:Drivers/STM32F4xx_StdPeriph_Driver/src/stm32f4xx_ltdc.c ****     LTDC_Layerx->CR &= ~(uint32_t)LTDC_LxCR_LEN;
 837              		.loc 1 499 5 is_stmt 1 view .LVU303
 838              		.loc 1 499 21 is_stmt 0 view .LVU304
 839 000c 0368     		ldr	r3, [r0]
 840 000e 23F00103 		bic	r3, r3, #1
 841 0012 0360     		str	r3, [r0]
 500:Drivers/STM32F4xx_StdPeriph_Driver/src/stm32f4xx_ltdc.c ****   }
 501:Drivers/STM32F4xx_StdPeriph_Driver/src/stm32f4xx_ltdc.c **** }
 842              		.loc 1 501 1 view .LVU305
 843 0014 7047     		bx	lr
 844              		.cfi_endproc
 845              	.LFE134:
 847              		.section	.text.LTDC_GetPosStatus,"ax",%progbits
 848              		.align	1
 849              		.global	LTDC_GetPosStatus
 850              		.syntax unified
 851              		.thumb
 852              		.thumb_func
 853              		.fpu fpv4-sp-d16
 855              	LTDC_GetPosStatus:
 856              	.LVL33:
 857              	.LFB135:
 502:Drivers/STM32F4xx_StdPeriph_Driver/src/stm32f4xx_ltdc.c **** 
 503:Drivers/STM32F4xx_StdPeriph_Driver/src/stm32f4xx_ltdc.c **** 
 504:Drivers/STM32F4xx_StdPeriph_Driver/src/stm32f4xx_ltdc.c **** /**
 505:Drivers/STM32F4xx_StdPeriph_Driver/src/stm32f4xx_ltdc.c ****   * @brief  Get the current position.
 506:Drivers/STM32F4xx_StdPeriph_Driver/src/stm32f4xx_ltdc.c ****   * @param  LTDC_Pos_InitStruct: pointer to a LTDC_PosTypeDef structure that contains
 507:Drivers/STM32F4xx_StdPeriph_Driver/src/stm32f4xx_ltdc.c ****   *         the current position.
 508:Drivers/STM32F4xx_StdPeriph_Driver/src/stm32f4xx_ltdc.c ****   * @retval None
 509:Drivers/STM32F4xx_StdPeriph_Driver/src/stm32f4xx_ltdc.c ****   */
 510:Drivers/STM32F4xx_StdPeriph_Driver/src/stm32f4xx_ltdc.c **** 
 511:Drivers/STM32F4xx_StdPeriph_Driver/src/stm32f4xx_ltdc.c **** LTDC_PosTypeDef LTDC_GetPosStatus(void)
 512:Drivers/STM32F4xx_StdPeriph_Driver/src/stm32f4xx_ltdc.c **** {
 858              		.loc 1 512 1 is_stmt 1 view -0
 859              		.cfi_startproc
 860              		@ args = 0, pretend = 0, frame = 0
 861              		@ frame_needed = 0, uses_anonymous_args = 0
 862              		@ link register save eliminated.
 513:Drivers/STM32F4xx_StdPeriph_Driver/src/stm32f4xx_ltdc.c ****   LTDC_PosTypeDef LTDC_Pos_InitStruct;
 863              		.loc 1 513 3 view .LVU307
 514:Drivers/STM32F4xx_StdPeriph_Driver/src/stm32f4xx_ltdc.c **** 
 515:Drivers/STM32F4xx_StdPeriph_Driver/src/stm32f4xx_ltdc.c ****   LTDC->CPSR &= ~(LTDC_CPSR_CYPOS | LTDC_CPSR_CXPOS);
 864              		.loc 1 515 3 view .LVU308
 865              		.loc 1 515 14 is_stmt 0 view .LVU309
 866 0000 054A     		ldr	r2, .L36
 867 0002 516C     		ldr	r1, [r2, #68]
 868 0004 0021     		movs	r1, #0
 869 0006 5164     		str	r1, [r2, #68]
 516:Drivers/STM32F4xx_StdPeriph_Driver/src/stm32f4xx_ltdc.c **** 
 517:Drivers/STM32F4xx_StdPeriph_Driver/src/stm32f4xx_ltdc.c ****   LTDC_Pos_InitStruct.LTDC_POSX = (uint32_t)(LTDC->CPSR >> 16);
 870              		.loc 1 517 3 is_stmt 1 view .LVU310
 871              		.loc 1 517 50 is_stmt 0 view .LVU311
 872 0008 516C     		ldr	r1, [r2, #68]
 873              		.loc 1 517 57 view .LVU312
ARM GAS  /tmp/ccEhn3Qw.s 			page 25


 874 000a 090C     		lsrs	r1, r1, #16
 875              		.loc 1 517 33 view .LVU313
 876 000c 0160     		str	r1, [r0]
 518:Drivers/STM32F4xx_StdPeriph_Driver/src/stm32f4xx_ltdc.c ****   LTDC_Pos_InitStruct.LTDC_POSY = (uint32_t)(LTDC->CPSR & 0xFFFF);
 877              		.loc 1 518 3 is_stmt 1 view .LVU314
 878              		.loc 1 518 50 is_stmt 0 view .LVU315
 879 000e 526C     		ldr	r2, [r2, #68]
 880              		.loc 1 518 35 view .LVU316
 881 0010 92B2     		uxth	r2, r2
 882              		.loc 1 518 33 view .LVU317
 883 0012 4260     		str	r2, [r0, #4]
 519:Drivers/STM32F4xx_StdPeriph_Driver/src/stm32f4xx_ltdc.c **** 
 520:Drivers/STM32F4xx_StdPeriph_Driver/src/stm32f4xx_ltdc.c ****   return LTDC_Pos_InitStruct;
 884              		.loc 1 520 3 is_stmt 1 view .LVU318
 521:Drivers/STM32F4xx_StdPeriph_Driver/src/stm32f4xx_ltdc.c **** }
 885              		.loc 1 521 1 is_stmt 0 view .LVU319
 886 0014 7047     		bx	lr
 887              	.L37:
 888 0016 00BF     		.align	2
 889              	.L36:
 890 0018 00680140 		.word	1073833984
 891              		.cfi_endproc
 892              	.LFE135:
 894              		.section	.text.LTDC_PosStructInit,"ax",%progbits
 895              		.align	1
 896              		.global	LTDC_PosStructInit
 897              		.syntax unified
 898              		.thumb
 899              		.thumb_func
 900              		.fpu fpv4-sp-d16
 902              	LTDC_PosStructInit:
 903              	.LVL34:
 904              	.LFB136:
 522:Drivers/STM32F4xx_StdPeriph_Driver/src/stm32f4xx_ltdc.c **** 
 523:Drivers/STM32F4xx_StdPeriph_Driver/src/stm32f4xx_ltdc.c **** /**
 524:Drivers/STM32F4xx_StdPeriph_Driver/src/stm32f4xx_ltdc.c ****   * @brief  Fills each LTDC_Pos_InitStruct member with its default value.
 525:Drivers/STM32F4xx_StdPeriph_Driver/src/stm32f4xx_ltdc.c ****   * @param  LTDC_Pos_InitStruct: pointer to a LTDC_PosTypeDef structure which will
 526:Drivers/STM32F4xx_StdPeriph_Driver/src/stm32f4xx_ltdc.c ****   *         be initialized.
 527:Drivers/STM32F4xx_StdPeriph_Driver/src/stm32f4xx_ltdc.c ****   * @retval None
 528:Drivers/STM32F4xx_StdPeriph_Driver/src/stm32f4xx_ltdc.c ****   */
 529:Drivers/STM32F4xx_StdPeriph_Driver/src/stm32f4xx_ltdc.c **** 
 530:Drivers/STM32F4xx_StdPeriph_Driver/src/stm32f4xx_ltdc.c **** void LTDC_PosStructInit(LTDC_PosTypeDef* LTDC_Pos_InitStruct)
 531:Drivers/STM32F4xx_StdPeriph_Driver/src/stm32f4xx_ltdc.c **** {
 905              		.loc 1 531 1 is_stmt 1 view -0
 906              		.cfi_startproc
 907              		@ args = 0, pretend = 0, frame = 0
 908              		@ frame_needed = 0, uses_anonymous_args = 0
 909              		@ link register save eliminated.
 532:Drivers/STM32F4xx_StdPeriph_Driver/src/stm32f4xx_ltdc.c ****   LTDC_Pos_InitStruct->LTDC_POSX = 0x00;
 910              		.loc 1 532 3 view .LVU321
 911              		.loc 1 532 34 is_stmt 0 view .LVU322
 912 0000 0023     		movs	r3, #0
 913 0002 0360     		str	r3, [r0]
 533:Drivers/STM32F4xx_StdPeriph_Driver/src/stm32f4xx_ltdc.c ****   LTDC_Pos_InitStruct->LTDC_POSY = 0x00;
 914              		.loc 1 533 3 is_stmt 1 view .LVU323
 915              		.loc 1 533 34 is_stmt 0 view .LVU324
 916 0004 4360     		str	r3, [r0, #4]
ARM GAS  /tmp/ccEhn3Qw.s 			page 26


 534:Drivers/STM32F4xx_StdPeriph_Driver/src/stm32f4xx_ltdc.c **** }
 917              		.loc 1 534 1 view .LVU325
 918 0006 7047     		bx	lr
 919              		.cfi_endproc
 920              	.LFE136:
 922              		.section	.text.LTDC_GetCDStatus,"ax",%progbits
 923              		.align	1
 924              		.global	LTDC_GetCDStatus
 925              		.syntax unified
 926              		.thumb
 927              		.thumb_func
 928              		.fpu fpv4-sp-d16
 930              	LTDC_GetCDStatus:
 931              	.LVL35:
 932              	.LFB137:
 535:Drivers/STM32F4xx_StdPeriph_Driver/src/stm32f4xx_ltdc.c **** 
 536:Drivers/STM32F4xx_StdPeriph_Driver/src/stm32f4xx_ltdc.c **** /**
 537:Drivers/STM32F4xx_StdPeriph_Driver/src/stm32f4xx_ltdc.c ****   * @brief  Checks whether the specified LTDC's flag is set or not.
 538:Drivers/STM32F4xx_StdPeriph_Driver/src/stm32f4xx_ltdc.c ****   * @param  LTDC_CD: specifies the flag to check.
 539:Drivers/STM32F4xx_StdPeriph_Driver/src/stm32f4xx_ltdc.c ****   *   This parameter can be one of the following values:
 540:Drivers/STM32F4xx_StdPeriph_Driver/src/stm32f4xx_ltdc.c ****   *     @arg LTDC_CD_VDES: vertical data enable current status.
 541:Drivers/STM32F4xx_StdPeriph_Driver/src/stm32f4xx_ltdc.c ****   *     @arg LTDC_CD_HDES: horizontal data enable current status.
 542:Drivers/STM32F4xx_StdPeriph_Driver/src/stm32f4xx_ltdc.c ****   *     @arg LTDC_CD_VSYNC:  Vertical Synchronization current status.
 543:Drivers/STM32F4xx_StdPeriph_Driver/src/stm32f4xx_ltdc.c ****   *     @arg LTDC_CD_HSYNC:  Horizontal Synchronization current status.
 544:Drivers/STM32F4xx_StdPeriph_Driver/src/stm32f4xx_ltdc.c ****   * @retval The new state of LTDC_CD (SET or RESET).
 545:Drivers/STM32F4xx_StdPeriph_Driver/src/stm32f4xx_ltdc.c ****   */
 546:Drivers/STM32F4xx_StdPeriph_Driver/src/stm32f4xx_ltdc.c **** 
 547:Drivers/STM32F4xx_StdPeriph_Driver/src/stm32f4xx_ltdc.c **** FlagStatus LTDC_GetCDStatus(uint32_t LTDC_CD)
 548:Drivers/STM32F4xx_StdPeriph_Driver/src/stm32f4xx_ltdc.c **** {
 933              		.loc 1 548 1 is_stmt 1 view -0
 934              		.cfi_startproc
 935              		@ args = 0, pretend = 0, frame = 0
 936              		@ frame_needed = 0, uses_anonymous_args = 0
 937              		@ link register save eliminated.
 549:Drivers/STM32F4xx_StdPeriph_Driver/src/stm32f4xx_ltdc.c ****   FlagStatus bitstatus;
 938              		.loc 1 549 3 view .LVU327
 550:Drivers/STM32F4xx_StdPeriph_Driver/src/stm32f4xx_ltdc.c **** 
 551:Drivers/STM32F4xx_StdPeriph_Driver/src/stm32f4xx_ltdc.c ****   /* Check the parameters */
 552:Drivers/STM32F4xx_StdPeriph_Driver/src/stm32f4xx_ltdc.c ****   assert_param(IS_LTDC_GET_CD(LTDC_CD));
 939              		.loc 1 552 3 view .LVU328
 553:Drivers/STM32F4xx_StdPeriph_Driver/src/stm32f4xx_ltdc.c **** 
 554:Drivers/STM32F4xx_StdPeriph_Driver/src/stm32f4xx_ltdc.c ****   if ((LTDC->CDSR & LTDC_CD) != (uint32_t)RESET)
 940              		.loc 1 554 3 view .LVU329
 941              		.loc 1 554 12 is_stmt 0 view .LVU330
 942 0000 034B     		ldr	r3, .L42
 943 0002 9B6C     		ldr	r3, [r3, #72]
 944              		.loc 1 554 6 view .LVU331
 945 0004 0342     		tst	r3, r0
 946 0006 01D0     		beq	.L41
 555:Drivers/STM32F4xx_StdPeriph_Driver/src/stm32f4xx_ltdc.c ****   {
 556:Drivers/STM32F4xx_StdPeriph_Driver/src/stm32f4xx_ltdc.c ****     bitstatus = SET;
 947              		.loc 1 556 15 view .LVU332
 948 0008 0120     		movs	r0, #1
 949              	.LVL36:
 950              		.loc 1 556 15 view .LVU333
 951 000a 7047     		bx	lr
 952              	.LVL37:
ARM GAS  /tmp/ccEhn3Qw.s 			page 27


 953              	.L41:
 557:Drivers/STM32F4xx_StdPeriph_Driver/src/stm32f4xx_ltdc.c ****   }
 558:Drivers/STM32F4xx_StdPeriph_Driver/src/stm32f4xx_ltdc.c ****   else
 559:Drivers/STM32F4xx_StdPeriph_Driver/src/stm32f4xx_ltdc.c ****   {
 560:Drivers/STM32F4xx_StdPeriph_Driver/src/stm32f4xx_ltdc.c ****     bitstatus = RESET;
 954              		.loc 1 560 15 view .LVU334
 955 000c 0020     		movs	r0, #0
 956              	.LVL38:
 561:Drivers/STM32F4xx_StdPeriph_Driver/src/stm32f4xx_ltdc.c ****   }
 562:Drivers/STM32F4xx_StdPeriph_Driver/src/stm32f4xx_ltdc.c ****   return bitstatus;
 957              		.loc 1 562 3 is_stmt 1 view .LVU335
 563:Drivers/STM32F4xx_StdPeriph_Driver/src/stm32f4xx_ltdc.c **** }
 958              		.loc 1 563 1 is_stmt 0 view .LVU336
 959 000e 7047     		bx	lr
 960              	.L43:
 961              		.align	2
 962              	.L42:
 963 0010 00680140 		.word	1073833984
 964              		.cfi_endproc
 965              	.LFE137:
 967              		.section	.text.LTDC_ColorKeyingConfig,"ax",%progbits
 968              		.align	1
 969              		.global	LTDC_ColorKeyingConfig
 970              		.syntax unified
 971              		.thumb
 972              		.thumb_func
 973              		.fpu fpv4-sp-d16
 975              	LTDC_ColorKeyingConfig:
 976              	.LVL39:
 977              	.LFB138:
 564:Drivers/STM32F4xx_StdPeriph_Driver/src/stm32f4xx_ltdc.c **** 
 565:Drivers/STM32F4xx_StdPeriph_Driver/src/stm32f4xx_ltdc.c **** /**
 566:Drivers/STM32F4xx_StdPeriph_Driver/src/stm32f4xx_ltdc.c ****   * @brief  Set and configure the color keying.
 567:Drivers/STM32F4xx_StdPeriph_Driver/src/stm32f4xx_ltdc.c ****   * @param  LTDC_colorkeying_InitStruct: pointer to a LTDC_ColorKeying_InitTypeDef 
 568:Drivers/STM32F4xx_StdPeriph_Driver/src/stm32f4xx_ltdc.c ****   *         structure that contains the color keying configuration.
 569:Drivers/STM32F4xx_StdPeriph_Driver/src/stm32f4xx_ltdc.c ****   * @param  LTDC_layerx: Select the layer to be configured, this parameter can be 
 570:Drivers/STM32F4xx_StdPeriph_Driver/src/stm32f4xx_ltdc.c ****   *         one of the following values: LTDC_Layer1, LTDC_Layer2   
 571:Drivers/STM32F4xx_StdPeriph_Driver/src/stm32f4xx_ltdc.c ****   * @retval None
 572:Drivers/STM32F4xx_StdPeriph_Driver/src/stm32f4xx_ltdc.c ****   */
 573:Drivers/STM32F4xx_StdPeriph_Driver/src/stm32f4xx_ltdc.c **** 
 574:Drivers/STM32F4xx_StdPeriph_Driver/src/stm32f4xx_ltdc.c **** void LTDC_ColorKeyingConfig(LTDC_Layer_TypeDef* LTDC_Layerx, LTDC_ColorKeying_InitTypeDef* LTDC_col
 575:Drivers/STM32F4xx_StdPeriph_Driver/src/stm32f4xx_ltdc.c **** { 
 978              		.loc 1 575 1 is_stmt 1 view -0
 979              		.cfi_startproc
 980              		@ args = 0, pretend = 0, frame = 0
 981              		@ frame_needed = 0, uses_anonymous_args = 0
 982              		@ link register save eliminated.
 576:Drivers/STM32F4xx_StdPeriph_Driver/src/stm32f4xx_ltdc.c ****   uint32_t ckgreen = 0;
 983              		.loc 1 576 3 view .LVU338
 577:Drivers/STM32F4xx_StdPeriph_Driver/src/stm32f4xx_ltdc.c ****   uint32_t ckred = 0;
 984              		.loc 1 577 3 view .LVU339
 578:Drivers/STM32F4xx_StdPeriph_Driver/src/stm32f4xx_ltdc.c **** 
 579:Drivers/STM32F4xx_StdPeriph_Driver/src/stm32f4xx_ltdc.c ****   /* Check the parameters */
 580:Drivers/STM32F4xx_StdPeriph_Driver/src/stm32f4xx_ltdc.c ****   assert_param(IS_FUNCTIONAL_STATE(NewState));
 985              		.loc 1 580 3 view .LVU340
 581:Drivers/STM32F4xx_StdPeriph_Driver/src/stm32f4xx_ltdc.c ****   assert_param(IS_LTDC_CKEYING(LTDC_colorkeying_InitStruct->LTDC_ColorKeyBlue));
 986              		.loc 1 581 3 view .LVU341
ARM GAS  /tmp/ccEhn3Qw.s 			page 28


 582:Drivers/STM32F4xx_StdPeriph_Driver/src/stm32f4xx_ltdc.c ****   assert_param(IS_LTDC_CKEYING(LTDC_colorkeying_InitStruct->LTDC_ColorKeyGreen));
 987              		.loc 1 582 3 view .LVU342
 583:Drivers/STM32F4xx_StdPeriph_Driver/src/stm32f4xx_ltdc.c ****   assert_param(IS_LTDC_CKEYING(LTDC_colorkeying_InitStruct->LTDC_ColorKeyRed));
 988              		.loc 1 583 3 view .LVU343
 584:Drivers/STM32F4xx_StdPeriph_Driver/src/stm32f4xx_ltdc.c ****   
 585:Drivers/STM32F4xx_StdPeriph_Driver/src/stm32f4xx_ltdc.c ****   if (NewState != DISABLE)
 989              		.loc 1 585 3 view .LVU344
 990              		.loc 1 585 6 is_stmt 0 view .LVU345
 991 0000 BAB1     		cbz	r2, .L45
 575:Drivers/STM32F4xx_StdPeriph_Driver/src/stm32f4xx_ltdc.c ****   uint32_t ckgreen = 0;
 992              		.loc 1 575 1 view .LVU346
 993 0002 30B4     		push	{r4, r5}
 994              		.cfi_def_cfa_offset 8
 995              		.cfi_offset 4, -8
 996              		.cfi_offset 5, -4
 586:Drivers/STM32F4xx_StdPeriph_Driver/src/stm32f4xx_ltdc.c ****   {
 587:Drivers/STM32F4xx_StdPeriph_Driver/src/stm32f4xx_ltdc.c ****     /* Enable LTDC color keying by setting COLKEN bit */
 588:Drivers/STM32F4xx_StdPeriph_Driver/src/stm32f4xx_ltdc.c ****     LTDC_Layerx->CR |= (uint32_t)LTDC_LxCR_COLKEN;
 997              		.loc 1 588 5 is_stmt 1 view .LVU347
 998              		.loc 1 588 21 is_stmt 0 view .LVU348
 999 0004 0368     		ldr	r3, [r0]
 1000 0006 43F00203 		orr	r3, r3, #2
 1001 000a 0360     		str	r3, [r0]
 589:Drivers/STM32F4xx_StdPeriph_Driver/src/stm32f4xx_ltdc.c ****     
 590:Drivers/STM32F4xx_StdPeriph_Driver/src/stm32f4xx_ltdc.c ****     /* Sets the color keying values */
 591:Drivers/STM32F4xx_StdPeriph_Driver/src/stm32f4xx_ltdc.c ****     ckgreen = (LTDC_colorkeying_InitStruct->LTDC_ColorKeyGreen << 8);
 1002              		.loc 1 591 5 is_stmt 1 view .LVU349
 1003              		.loc 1 591 43 is_stmt 0 view .LVU350
 1004 000c 4D68     		ldr	r5, [r1, #4]
 1005              	.LVL40:
 592:Drivers/STM32F4xx_StdPeriph_Driver/src/stm32f4xx_ltdc.c ****     ckred = (LTDC_colorkeying_InitStruct->LTDC_ColorKeyRed << 16);
 1006              		.loc 1 592 5 is_stmt 1 view .LVU351
 1007              		.loc 1 592 41 is_stmt 0 view .LVU352
 1008 000e 8C68     		ldr	r4, [r1, #8]
 1009              	.LVL41:
 593:Drivers/STM32F4xx_StdPeriph_Driver/src/stm32f4xx_ltdc.c ****     LTDC_Layerx->CKCR  &= ~(LTDC_LxCKCR_CKBLUE | LTDC_LxCKCR_CKGREEN | LTDC_LxCKCR_CKRED);
 1010              		.loc 1 593 5 is_stmt 1 view .LVU353
 1011              		.loc 1 593 24 is_stmt 0 view .LVU354
 1012 0010 C268     		ldr	r2, [r0, #12]
 1013              	.LVL42:
 1014              		.loc 1 593 24 view .LVU355
 1015 0012 02F07F42 		and	r2, r2, #-16777216
 1016 0016 C260     		str	r2, [r0, #12]
 594:Drivers/STM32F4xx_StdPeriph_Driver/src/stm32f4xx_ltdc.c ****     LTDC_Layerx->CKCR |= (LTDC_colorkeying_InitStruct->LTDC_ColorKeyBlue | ckgreen | ckred);
 1017              		.loc 1 594 5 is_stmt 1 view .LVU356
 1018              		.loc 1 594 23 is_stmt 0 view .LVU357
 1019 0018 C268     		ldr	r2, [r0, #12]
 1020              		.loc 1 594 54 view .LVU358
 1021 001a 0B68     		ldr	r3, [r1]
 1022              		.loc 1 594 74 view .LVU359
 1023 001c 43EA0523 		orr	r3, r3, r5, lsl #8
 1024              		.loc 1 594 84 view .LVU360
 1025 0020 43EA0443 		orr	r3, r3, r4, lsl #16
 1026              		.loc 1 594 23 view .LVU361
 1027 0024 1343     		orrs	r3, r3, r2
 1028 0026 C360     		str	r3, [r0, #12]
 595:Drivers/STM32F4xx_StdPeriph_Driver/src/stm32f4xx_ltdc.c ****   }
ARM GAS  /tmp/ccEhn3Qw.s 			page 29


 596:Drivers/STM32F4xx_StdPeriph_Driver/src/stm32f4xx_ltdc.c ****   else
 597:Drivers/STM32F4xx_StdPeriph_Driver/src/stm32f4xx_ltdc.c ****   {
 598:Drivers/STM32F4xx_StdPeriph_Driver/src/stm32f4xx_ltdc.c ****     /* Disable LTDC color keying by clearing COLKEN bit */
 599:Drivers/STM32F4xx_StdPeriph_Driver/src/stm32f4xx_ltdc.c ****     LTDC_Layerx->CR &= ~(uint32_t)LTDC_LxCR_COLKEN;
 600:Drivers/STM32F4xx_StdPeriph_Driver/src/stm32f4xx_ltdc.c ****   }
 601:Drivers/STM32F4xx_StdPeriph_Driver/src/stm32f4xx_ltdc.c ****   
 602:Drivers/STM32F4xx_StdPeriph_Driver/src/stm32f4xx_ltdc.c ****   /* Reload shadow register */
 603:Drivers/STM32F4xx_StdPeriph_Driver/src/stm32f4xx_ltdc.c ****   LTDC->SRCR = LTDC_IMReload;
 1029              		.loc 1 603 3 is_stmt 1 view .LVU362
 1030              		.loc 1 603 14 is_stmt 0 view .LVU363
 1031 0028 064B     		ldr	r3, .L51
 1032 002a 0122     		movs	r2, #1
 1033 002c 5A62     		str	r2, [r3, #36]
 604:Drivers/STM32F4xx_StdPeriph_Driver/src/stm32f4xx_ltdc.c **** }
 1034              		.loc 1 604 1 view .LVU364
 1035 002e 30BC     		pop	{r4, r5}
 1036              		.cfi_restore 5
 1037              		.cfi_restore 4
 1038              		.cfi_def_cfa_offset 0
 1039              	.LVL43:
 1040              		.loc 1 604 1 view .LVU365
 1041 0030 7047     		bx	lr
 1042              	.LVL44:
 1043              	.L45:
 599:Drivers/STM32F4xx_StdPeriph_Driver/src/stm32f4xx_ltdc.c ****   }
 1044              		.loc 1 599 5 is_stmt 1 view .LVU366
 599:Drivers/STM32F4xx_StdPeriph_Driver/src/stm32f4xx_ltdc.c ****   }
 1045              		.loc 1 599 21 is_stmt 0 view .LVU367
 1046 0032 0368     		ldr	r3, [r0]
 1047 0034 23F00203 		bic	r3, r3, #2
 1048 0038 0360     		str	r3, [r0]
 603:Drivers/STM32F4xx_StdPeriph_Driver/src/stm32f4xx_ltdc.c **** }
 1049              		.loc 1 603 3 is_stmt 1 view .LVU368
 603:Drivers/STM32F4xx_StdPeriph_Driver/src/stm32f4xx_ltdc.c **** }
 1050              		.loc 1 603 14 is_stmt 0 view .LVU369
 1051 003a 024B     		ldr	r3, .L51
 1052 003c 0122     		movs	r2, #1
 1053              	.LVL45:
 603:Drivers/STM32F4xx_StdPeriph_Driver/src/stm32f4xx_ltdc.c **** }
 1054              		.loc 1 603 14 view .LVU370
 1055 003e 5A62     		str	r2, [r3, #36]
 1056 0040 7047     		bx	lr
 1057              	.L52:
 1058 0042 00BF     		.align	2
 1059              	.L51:
 1060 0044 00680140 		.word	1073833984
 1061              		.cfi_endproc
 1062              	.LFE138:
 1064              		.section	.text.LTDC_ColorKeyingStructInit,"ax",%progbits
 1065              		.align	1
 1066              		.global	LTDC_ColorKeyingStructInit
 1067              		.syntax unified
 1068              		.thumb
 1069              		.thumb_func
 1070              		.fpu fpv4-sp-d16
 1072              	LTDC_ColorKeyingStructInit:
 1073              	.LVL46:
ARM GAS  /tmp/ccEhn3Qw.s 			page 30


 1074              	.LFB139:
 605:Drivers/STM32F4xx_StdPeriph_Driver/src/stm32f4xx_ltdc.c **** 
 606:Drivers/STM32F4xx_StdPeriph_Driver/src/stm32f4xx_ltdc.c **** /**
 607:Drivers/STM32F4xx_StdPeriph_Driver/src/stm32f4xx_ltdc.c ****   * @brief  Fills each LTDC_colorkeying_InitStruct member with its default value.
 608:Drivers/STM32F4xx_StdPeriph_Driver/src/stm32f4xx_ltdc.c ****   * @param  LTDC_colorkeying_InitStruct: pointer to a LTDC_ColorKeying_InitTypeDef structure which 
 609:Drivers/STM32F4xx_StdPeriph_Driver/src/stm32f4xx_ltdc.c ****   *         be initialized.
 610:Drivers/STM32F4xx_StdPeriph_Driver/src/stm32f4xx_ltdc.c ****   * @retval None
 611:Drivers/STM32F4xx_StdPeriph_Driver/src/stm32f4xx_ltdc.c ****   */
 612:Drivers/STM32F4xx_StdPeriph_Driver/src/stm32f4xx_ltdc.c **** 
 613:Drivers/STM32F4xx_StdPeriph_Driver/src/stm32f4xx_ltdc.c **** void LTDC_ColorKeyingStructInit(LTDC_ColorKeying_InitTypeDef* LTDC_colorkeying_InitStruct)
 614:Drivers/STM32F4xx_StdPeriph_Driver/src/stm32f4xx_ltdc.c **** {
 1075              		.loc 1 614 1 is_stmt 1 view -0
 1076              		.cfi_startproc
 1077              		@ args = 0, pretend = 0, frame = 0
 1078              		@ frame_needed = 0, uses_anonymous_args = 0
 1079              		@ link register save eliminated.
 615:Drivers/STM32F4xx_StdPeriph_Driver/src/stm32f4xx_ltdc.c ****   /*!< Initialize the color keying values */
 616:Drivers/STM32F4xx_StdPeriph_Driver/src/stm32f4xx_ltdc.c ****   LTDC_colorkeying_InitStruct->LTDC_ColorKeyBlue = 0x00;
 1080              		.loc 1 616 3 view .LVU372
 1081              		.loc 1 616 50 is_stmt 0 view .LVU373
 1082 0000 0023     		movs	r3, #0
 1083 0002 0360     		str	r3, [r0]
 617:Drivers/STM32F4xx_StdPeriph_Driver/src/stm32f4xx_ltdc.c ****   LTDC_colorkeying_InitStruct->LTDC_ColorKeyGreen = 0x00;
 1084              		.loc 1 617 3 is_stmt 1 view .LVU374
 1085              		.loc 1 617 51 is_stmt 0 view .LVU375
 1086 0004 4360     		str	r3, [r0, #4]
 618:Drivers/STM32F4xx_StdPeriph_Driver/src/stm32f4xx_ltdc.c ****   LTDC_colorkeying_InitStruct->LTDC_ColorKeyRed = 0x00;
 1087              		.loc 1 618 3 is_stmt 1 view .LVU376
 1088              		.loc 1 618 49 is_stmt 0 view .LVU377
 1089 0006 8360     		str	r3, [r0, #8]
 619:Drivers/STM32F4xx_StdPeriph_Driver/src/stm32f4xx_ltdc.c **** }
 1090              		.loc 1 619 1 view .LVU378
 1091 0008 7047     		bx	lr
 1092              		.cfi_endproc
 1093              	.LFE139:
 1095              		.section	.text.LTDC_CLUTCmd,"ax",%progbits
 1096              		.align	1
 1097              		.global	LTDC_CLUTCmd
 1098              		.syntax unified
 1099              		.thumb
 1100              		.thumb_func
 1101              		.fpu fpv4-sp-d16
 1103              	LTDC_CLUTCmd:
 1104              	.LVL47:
 1105              	.LFB140:
 620:Drivers/STM32F4xx_StdPeriph_Driver/src/stm32f4xx_ltdc.c **** 
 621:Drivers/STM32F4xx_StdPeriph_Driver/src/stm32f4xx_ltdc.c **** 
 622:Drivers/STM32F4xx_StdPeriph_Driver/src/stm32f4xx_ltdc.c **** /**
 623:Drivers/STM32F4xx_StdPeriph_Driver/src/stm32f4xx_ltdc.c ****   * @brief  Enables or disables CLUT.
 624:Drivers/STM32F4xx_StdPeriph_Driver/src/stm32f4xx_ltdc.c ****   * @param  NewState: new state of CLUT.
 625:Drivers/STM32F4xx_StdPeriph_Driver/src/stm32f4xx_ltdc.c ****   * @param  LTDC_layerx: Select the layer to be configured, this parameter can be 
 626:Drivers/STM32F4xx_StdPeriph_Driver/src/stm32f4xx_ltdc.c ****   *         one of the following values: LTDC_Layer1, LTDC_Layer2  
 627:Drivers/STM32F4xx_StdPeriph_Driver/src/stm32f4xx_ltdc.c ****   *   This parameter can be: ENABLE or DISABLE.
 628:Drivers/STM32F4xx_StdPeriph_Driver/src/stm32f4xx_ltdc.c ****   * @retval None
 629:Drivers/STM32F4xx_StdPeriph_Driver/src/stm32f4xx_ltdc.c ****   */
 630:Drivers/STM32F4xx_StdPeriph_Driver/src/stm32f4xx_ltdc.c **** 
 631:Drivers/STM32F4xx_StdPeriph_Driver/src/stm32f4xx_ltdc.c **** void LTDC_CLUTCmd(LTDC_Layer_TypeDef* LTDC_Layerx, FunctionalState NewState)
ARM GAS  /tmp/ccEhn3Qw.s 			page 31


 632:Drivers/STM32F4xx_StdPeriph_Driver/src/stm32f4xx_ltdc.c **** {
 1106              		.loc 1 632 1 is_stmt 1 view -0
 1107              		.cfi_startproc
 1108              		@ args = 0, pretend = 0, frame = 0
 1109              		@ frame_needed = 0, uses_anonymous_args = 0
 1110              		@ link register save eliminated.
 633:Drivers/STM32F4xx_StdPeriph_Driver/src/stm32f4xx_ltdc.c ****   /* Check the parameters */
 634:Drivers/STM32F4xx_StdPeriph_Driver/src/stm32f4xx_ltdc.c ****   assert_param(IS_FUNCTIONAL_STATE(NewState));
 1111              		.loc 1 634 3 view .LVU380
 635:Drivers/STM32F4xx_StdPeriph_Driver/src/stm32f4xx_ltdc.c **** 
 636:Drivers/STM32F4xx_StdPeriph_Driver/src/stm32f4xx_ltdc.c ****   if (NewState != DISABLE)
 1112              		.loc 1 636 3 view .LVU381
 1113              		.loc 1 636 6 is_stmt 0 view .LVU382
 1114 0000 39B1     		cbz	r1, .L55
 637:Drivers/STM32F4xx_StdPeriph_Driver/src/stm32f4xx_ltdc.c ****   {
 638:Drivers/STM32F4xx_StdPeriph_Driver/src/stm32f4xx_ltdc.c ****     /* Enable CLUT by setting CLUTEN bit */
 639:Drivers/STM32F4xx_StdPeriph_Driver/src/stm32f4xx_ltdc.c ****     LTDC_Layerx->CR |= (uint32_t)LTDC_LxCR_CLUTEN;
 1115              		.loc 1 639 5 is_stmt 1 view .LVU383
 1116              		.loc 1 639 21 is_stmt 0 view .LVU384
 1117 0002 0368     		ldr	r3, [r0]
 1118 0004 43F01003 		orr	r3, r3, #16
 1119 0008 0360     		str	r3, [r0]
 1120              	.L56:
 640:Drivers/STM32F4xx_StdPeriph_Driver/src/stm32f4xx_ltdc.c ****   }
 641:Drivers/STM32F4xx_StdPeriph_Driver/src/stm32f4xx_ltdc.c ****   else
 642:Drivers/STM32F4xx_StdPeriph_Driver/src/stm32f4xx_ltdc.c ****   {
 643:Drivers/STM32F4xx_StdPeriph_Driver/src/stm32f4xx_ltdc.c ****     /* Disable CLUT by clearing CLUTEN bit */
 644:Drivers/STM32F4xx_StdPeriph_Driver/src/stm32f4xx_ltdc.c ****     LTDC_Layerx->CR &= ~(uint32_t)LTDC_LxCR_CLUTEN;
 645:Drivers/STM32F4xx_StdPeriph_Driver/src/stm32f4xx_ltdc.c ****   }
 646:Drivers/STM32F4xx_StdPeriph_Driver/src/stm32f4xx_ltdc.c ****   
 647:Drivers/STM32F4xx_StdPeriph_Driver/src/stm32f4xx_ltdc.c ****   /* Reload shadow register */
 648:Drivers/STM32F4xx_StdPeriph_Driver/src/stm32f4xx_ltdc.c ****   LTDC->SRCR = LTDC_IMReload;
 1121              		.loc 1 648 3 is_stmt 1 view .LVU385
 1122              		.loc 1 648 14 is_stmt 0 view .LVU386
 1123 000a 044B     		ldr	r3, .L57
 1124 000c 0122     		movs	r2, #1
 1125 000e 5A62     		str	r2, [r3, #36]
 649:Drivers/STM32F4xx_StdPeriph_Driver/src/stm32f4xx_ltdc.c **** }
 1126              		.loc 1 649 1 view .LVU387
 1127 0010 7047     		bx	lr
 1128              	.L55:
 644:Drivers/STM32F4xx_StdPeriph_Driver/src/stm32f4xx_ltdc.c ****   }
 1129              		.loc 1 644 5 is_stmt 1 view .LVU388
 644:Drivers/STM32F4xx_StdPeriph_Driver/src/stm32f4xx_ltdc.c ****   }
 1130              		.loc 1 644 21 is_stmt 0 view .LVU389
 1131 0012 0368     		ldr	r3, [r0]
 1132 0014 23F01003 		bic	r3, r3, #16
 1133 0018 0360     		str	r3, [r0]
 1134 001a F6E7     		b	.L56
 1135              	.L58:
 1136              		.align	2
 1137              	.L57:
 1138 001c 00680140 		.word	1073833984
 1139              		.cfi_endproc
 1140              	.LFE140:
 1142              		.section	.text.LTDC_CLUTInit,"ax",%progbits
 1143              		.align	1
ARM GAS  /tmp/ccEhn3Qw.s 			page 32


 1144              		.global	LTDC_CLUTInit
 1145              		.syntax unified
 1146              		.thumb
 1147              		.thumb_func
 1148              		.fpu fpv4-sp-d16
 1150              	LTDC_CLUTInit:
 1151              	.LVL48:
 1152              	.LFB141:
 650:Drivers/STM32F4xx_StdPeriph_Driver/src/stm32f4xx_ltdc.c **** 
 651:Drivers/STM32F4xx_StdPeriph_Driver/src/stm32f4xx_ltdc.c **** /**
 652:Drivers/STM32F4xx_StdPeriph_Driver/src/stm32f4xx_ltdc.c ****   * @brief  configure the CLUT.
 653:Drivers/STM32F4xx_StdPeriph_Driver/src/stm32f4xx_ltdc.c ****   * @param  LTDC_CLUT_InitStruct: pointer to a LTDC_CLUT_InitTypeDef structure that contains
 654:Drivers/STM32F4xx_StdPeriph_Driver/src/stm32f4xx_ltdc.c ****   *         the CLUT configuration.
 655:Drivers/STM32F4xx_StdPeriph_Driver/src/stm32f4xx_ltdc.c ****   * @param  LTDC_layerx: Select the layer to be configured, this parameter can be 
 656:Drivers/STM32F4xx_StdPeriph_Driver/src/stm32f4xx_ltdc.c ****   *         one of the following values: LTDC_Layer1, LTDC_Layer2   
 657:Drivers/STM32F4xx_StdPeriph_Driver/src/stm32f4xx_ltdc.c ****   * @retval None
 658:Drivers/STM32F4xx_StdPeriph_Driver/src/stm32f4xx_ltdc.c ****   */
 659:Drivers/STM32F4xx_StdPeriph_Driver/src/stm32f4xx_ltdc.c **** 
 660:Drivers/STM32F4xx_StdPeriph_Driver/src/stm32f4xx_ltdc.c **** void LTDC_CLUTInit(LTDC_Layer_TypeDef* LTDC_Layerx, LTDC_CLUT_InitTypeDef* LTDC_CLUT_InitStruct)
 661:Drivers/STM32F4xx_StdPeriph_Driver/src/stm32f4xx_ltdc.c **** {  
 1153              		.loc 1 661 1 is_stmt 1 view -0
 1154              		.cfi_startproc
 1155              		@ args = 0, pretend = 0, frame = 0
 1156              		@ frame_needed = 0, uses_anonymous_args = 0
 1157              		@ link register save eliminated.
 1158              		.loc 1 661 1 is_stmt 0 view .LVU391
 1159 0000 30B4     		push	{r4, r5}
 1160              		.cfi_def_cfa_offset 8
 1161              		.cfi_offset 4, -8
 1162              		.cfi_offset 5, -4
 662:Drivers/STM32F4xx_StdPeriph_Driver/src/stm32f4xx_ltdc.c ****   uint32_t green = 0;
 1163              		.loc 1 662 3 is_stmt 1 view .LVU392
 1164              	.LVL49:
 663:Drivers/STM32F4xx_StdPeriph_Driver/src/stm32f4xx_ltdc.c ****   uint32_t red = 0;
 1165              		.loc 1 663 3 view .LVU393
 664:Drivers/STM32F4xx_StdPeriph_Driver/src/stm32f4xx_ltdc.c ****   uint32_t clutadd = 0;
 1166              		.loc 1 664 3 view .LVU394
 665:Drivers/STM32F4xx_StdPeriph_Driver/src/stm32f4xx_ltdc.c **** 
 666:Drivers/STM32F4xx_StdPeriph_Driver/src/stm32f4xx_ltdc.c ****   /* Check the parameters */
 667:Drivers/STM32F4xx_StdPeriph_Driver/src/stm32f4xx_ltdc.c ****   assert_param(IS_LTDC_CLUTWR(LTDC_CLUT_InitStruct->LTDC_CLUTAdress));
 1167              		.loc 1 667 3 view .LVU395
 668:Drivers/STM32F4xx_StdPeriph_Driver/src/stm32f4xx_ltdc.c ****   assert_param(IS_LTDC_CLUTWR(LTDC_CLUT_InitStruct->LTDC_RedValue));
 1168              		.loc 1 668 3 view .LVU396
 669:Drivers/STM32F4xx_StdPeriph_Driver/src/stm32f4xx_ltdc.c ****   assert_param(IS_LTDC_CLUTWR(LTDC_CLUT_InitStruct->LTDC_GreenValue));
 1169              		.loc 1 669 3 view .LVU397
 670:Drivers/STM32F4xx_StdPeriph_Driver/src/stm32f4xx_ltdc.c ****   assert_param(IS_LTDC_CLUTWR(LTDC_CLUT_InitStruct->LTDC_BlueValue));
 1170              		.loc 1 670 3 view .LVU398
 671:Drivers/STM32F4xx_StdPeriph_Driver/src/stm32f4xx_ltdc.c ****     
 672:Drivers/STM32F4xx_StdPeriph_Driver/src/stm32f4xx_ltdc.c ****   /* Specifies the CLUT address and RGB value */
 673:Drivers/STM32F4xx_StdPeriph_Driver/src/stm32f4xx_ltdc.c ****   green = (LTDC_CLUT_InitStruct->LTDC_GreenValue << 8);
 1171              		.loc 1 673 3 view .LVU399
 1172              		.loc 1 673 32 is_stmt 0 view .LVU400
 1173 0002 8C68     		ldr	r4, [r1, #8]
 1174              	.LVL50:
 674:Drivers/STM32F4xx_StdPeriph_Driver/src/stm32f4xx_ltdc.c ****   red = (LTDC_CLUT_InitStruct->LTDC_RedValue << 16);
 1175              		.loc 1 674 3 is_stmt 1 view .LVU401
 1176              		.loc 1 674 30 is_stmt 0 view .LVU402
ARM GAS  /tmp/ccEhn3Qw.s 			page 33


 1177 0004 CA68     		ldr	r2, [r1, #12]
 1178              	.LVL51:
 675:Drivers/STM32F4xx_StdPeriph_Driver/src/stm32f4xx_ltdc.c ****   clutadd = (LTDC_CLUT_InitStruct->LTDC_CLUTAdress << 24);
 1179              		.loc 1 675 3 is_stmt 1 view .LVU403
 1180              		.loc 1 675 34 is_stmt 0 view .LVU404
 1181 0006 0D68     		ldr	r5, [r1]
 1182              	.LVL52:
 676:Drivers/STM32F4xx_StdPeriph_Driver/src/stm32f4xx_ltdc.c ****   LTDC_Layerx->CLUTWR  = (clutadd | LTDC_CLUT_InitStruct->LTDC_BlueValue | \
 1183              		.loc 1 676 3 is_stmt 1 view .LVU405
 1184              		.loc 1 676 57 is_stmt 0 view .LVU406
 1185 0008 4B68     		ldr	r3, [r1, #4]
 1186              		.loc 1 676 35 view .LVU407
 1187 000a 43EA0563 		orr	r3, r3, r5, lsl #24
 1188              		.loc 1 676 74 view .LVU408
 1189 000e 43EA0423 		orr	r3, r3, r4, lsl #8
 677:Drivers/STM32F4xx_StdPeriph_Driver/src/stm32f4xx_ltdc.c ****                               green | red);
 1190              		.loc 1 677 37 view .LVU409
 1191 0012 43EA0243 		orr	r3, r3, r2, lsl #16
 676:Drivers/STM32F4xx_StdPeriph_Driver/src/stm32f4xx_ltdc.c ****   LTDC_Layerx->CLUTWR  = (clutadd | LTDC_CLUT_InitStruct->LTDC_BlueValue | \
 1192              		.loc 1 676 24 view .LVU410
 1193 0016 0364     		str	r3, [r0, #64]
 678:Drivers/STM32F4xx_StdPeriph_Driver/src/stm32f4xx_ltdc.c **** }
 1194              		.loc 1 678 1 view .LVU411
 1195 0018 30BC     		pop	{r4, r5}
 1196              		.cfi_restore 5
 1197              		.cfi_restore 4
 1198              		.cfi_def_cfa_offset 0
 1199              	.LVL53:
 1200              		.loc 1 678 1 view .LVU412
 1201 001a 7047     		bx	lr
 1202              		.cfi_endproc
 1203              	.LFE141:
 1205              		.section	.text.LTDC_CLUTStructInit,"ax",%progbits
 1206              		.align	1
 1207              		.global	LTDC_CLUTStructInit
 1208              		.syntax unified
 1209              		.thumb
 1210              		.thumb_func
 1211              		.fpu fpv4-sp-d16
 1213              	LTDC_CLUTStructInit:
 1214              	.LVL54:
 1215              	.LFB142:
 679:Drivers/STM32F4xx_StdPeriph_Driver/src/stm32f4xx_ltdc.c **** 
 680:Drivers/STM32F4xx_StdPeriph_Driver/src/stm32f4xx_ltdc.c **** /**
 681:Drivers/STM32F4xx_StdPeriph_Driver/src/stm32f4xx_ltdc.c ****   * @brief  Fills each LTDC_CLUT_InitStruct member with its default value.
 682:Drivers/STM32F4xx_StdPeriph_Driver/src/stm32f4xx_ltdc.c ****   * @param  LTDC_CLUT_InitStruct: pointer to a LTDC_CLUT_InitTypeDef structure which will
 683:Drivers/STM32F4xx_StdPeriph_Driver/src/stm32f4xx_ltdc.c ****   *         be initialized.
 684:Drivers/STM32F4xx_StdPeriph_Driver/src/stm32f4xx_ltdc.c ****   * @retval None
 685:Drivers/STM32F4xx_StdPeriph_Driver/src/stm32f4xx_ltdc.c ****   */
 686:Drivers/STM32F4xx_StdPeriph_Driver/src/stm32f4xx_ltdc.c **** 
 687:Drivers/STM32F4xx_StdPeriph_Driver/src/stm32f4xx_ltdc.c **** void LTDC_CLUTStructInit(LTDC_CLUT_InitTypeDef* LTDC_CLUT_InitStruct)
 688:Drivers/STM32F4xx_StdPeriph_Driver/src/stm32f4xx_ltdc.c **** {
 1216              		.loc 1 688 1 is_stmt 1 view -0
 1217              		.cfi_startproc
 1218              		@ args = 0, pretend = 0, frame = 0
 1219              		@ frame_needed = 0, uses_anonymous_args = 0
 1220              		@ link register save eliminated.
ARM GAS  /tmp/ccEhn3Qw.s 			page 34


 689:Drivers/STM32F4xx_StdPeriph_Driver/src/stm32f4xx_ltdc.c ****   /*!< Initialize the CLUT address and RGB values */
 690:Drivers/STM32F4xx_StdPeriph_Driver/src/stm32f4xx_ltdc.c ****   LTDC_CLUT_InitStruct->LTDC_CLUTAdress = 0x00;
 1221              		.loc 1 690 3 view .LVU414
 1222              		.loc 1 690 41 is_stmt 0 view .LVU415
 1223 0000 0023     		movs	r3, #0
 1224 0002 0360     		str	r3, [r0]
 691:Drivers/STM32F4xx_StdPeriph_Driver/src/stm32f4xx_ltdc.c ****   LTDC_CLUT_InitStruct->LTDC_BlueValue = 0x00;
 1225              		.loc 1 691 3 is_stmt 1 view .LVU416
 1226              		.loc 1 691 40 is_stmt 0 view .LVU417
 1227 0004 4360     		str	r3, [r0, #4]
 692:Drivers/STM32F4xx_StdPeriph_Driver/src/stm32f4xx_ltdc.c ****   LTDC_CLUT_InitStruct->LTDC_GreenValue = 0x00;
 1228              		.loc 1 692 3 is_stmt 1 view .LVU418
 1229              		.loc 1 692 41 is_stmt 0 view .LVU419
 1230 0006 8360     		str	r3, [r0, #8]
 693:Drivers/STM32F4xx_StdPeriph_Driver/src/stm32f4xx_ltdc.c ****   LTDC_CLUT_InitStruct->LTDC_RedValue = 0x00;
 1231              		.loc 1 693 3 is_stmt 1 view .LVU420
 1232              		.loc 1 693 39 is_stmt 0 view .LVU421
 1233 0008 C360     		str	r3, [r0, #12]
 694:Drivers/STM32F4xx_StdPeriph_Driver/src/stm32f4xx_ltdc.c **** }
 1234              		.loc 1 694 1 view .LVU422
 1235 000a 7047     		bx	lr
 1236              		.cfi_endproc
 1237              	.LFE142:
 1239              		.section	.text.LTDC_LayerPosition,"ax",%progbits
 1240              		.align	1
 1241              		.global	LTDC_LayerPosition
 1242              		.syntax unified
 1243              		.thumb
 1244              		.thumb_func
 1245              		.fpu fpv4-sp-d16
 1247              	LTDC_LayerPosition:
 1248              	.LVL55:
 1249              	.LFB143:
 695:Drivers/STM32F4xx_StdPeriph_Driver/src/stm32f4xx_ltdc.c **** 
 696:Drivers/STM32F4xx_StdPeriph_Driver/src/stm32f4xx_ltdc.c **** 
 697:Drivers/STM32F4xx_StdPeriph_Driver/src/stm32f4xx_ltdc.c **** /**
 698:Drivers/STM32F4xx_StdPeriph_Driver/src/stm32f4xx_ltdc.c ****   * @brief  reconfigure the layer position.
 699:Drivers/STM32F4xx_StdPeriph_Driver/src/stm32f4xx_ltdc.c ****   * @param  OffsetX: horizontal offset from start active width .
 700:Drivers/STM32F4xx_StdPeriph_Driver/src/stm32f4xx_ltdc.c ****   * @param  OffsetY: vertical offset from start active height.   
 701:Drivers/STM32F4xx_StdPeriph_Driver/src/stm32f4xx_ltdc.c ****   * @param  LTDC_layerx: Select the layer to be configured, this parameter can be 
 702:Drivers/STM32F4xx_StdPeriph_Driver/src/stm32f4xx_ltdc.c ****   *         one of the following values: LTDC_Layer1, LTDC_Layer2   
 703:Drivers/STM32F4xx_StdPeriph_Driver/src/stm32f4xx_ltdc.c ****   * @retval Reload of the shadow registers values must be applied after layer 
 704:Drivers/STM32F4xx_StdPeriph_Driver/src/stm32f4xx_ltdc.c ****   *         position reconfiguration.
 705:Drivers/STM32F4xx_StdPeriph_Driver/src/stm32f4xx_ltdc.c ****   */
 706:Drivers/STM32F4xx_StdPeriph_Driver/src/stm32f4xx_ltdc.c **** 
 707:Drivers/STM32F4xx_StdPeriph_Driver/src/stm32f4xx_ltdc.c **** void LTDC_LayerPosition(LTDC_Layer_TypeDef* LTDC_Layerx, uint16_t OffsetX, uint16_t OffsetY)
 708:Drivers/STM32F4xx_StdPeriph_Driver/src/stm32f4xx_ltdc.c **** {
 1250              		.loc 1 708 1 is_stmt 1 view -0
 1251              		.cfi_startproc
 1252              		@ args = 0, pretend = 0, frame = 0
 1253              		@ frame_needed = 0, uses_anonymous_args = 0
 1254              		@ link register save eliminated.
 1255              		.loc 1 708 1 is_stmt 0 view .LVU424
 1256 0000 10B4     		push	{r4}
 1257              		.cfi_def_cfa_offset 4
 1258              		.cfi_offset 4, -4
 709:Drivers/STM32F4xx_StdPeriph_Driver/src/stm32f4xx_ltdc.c ****   
ARM GAS  /tmp/ccEhn3Qw.s 			page 35


 710:Drivers/STM32F4xx_StdPeriph_Driver/src/stm32f4xx_ltdc.c ****   uint32_t tempreg, temp;
 1259              		.loc 1 710 3 is_stmt 1 view .LVU425
 711:Drivers/STM32F4xx_StdPeriph_Driver/src/stm32f4xx_ltdc.c ****   uint32_t horizontal_start;
 1260              		.loc 1 711 3 view .LVU426
 712:Drivers/STM32F4xx_StdPeriph_Driver/src/stm32f4xx_ltdc.c ****   uint32_t horizontal_stop;
 1261              		.loc 1 712 3 view .LVU427
 713:Drivers/STM32F4xx_StdPeriph_Driver/src/stm32f4xx_ltdc.c ****   uint32_t vertical_start;
 1262              		.loc 1 713 3 view .LVU428
 714:Drivers/STM32F4xx_StdPeriph_Driver/src/stm32f4xx_ltdc.c ****   uint32_t vertical_stop;
 1263              		.loc 1 714 3 view .LVU429
 715:Drivers/STM32F4xx_StdPeriph_Driver/src/stm32f4xx_ltdc.c ****   
 716:Drivers/STM32F4xx_StdPeriph_Driver/src/stm32f4xx_ltdc.c ****   LTDC_Layerx->WHPCR &= ~(LTDC_LxWHPCR_WHSTPOS | LTDC_LxWHPCR_WHSPPOS);
 1264              		.loc 1 716 3 view .LVU430
 1265              		.loc 1 716 22 is_stmt 0 view .LVU431
 1266 0002 4468     		ldr	r4, [r0, #4]
 1267 0004 04F47044 		and	r4, r4, #61440
 1268 0008 4460     		str	r4, [r0, #4]
 717:Drivers/STM32F4xx_StdPeriph_Driver/src/stm32f4xx_ltdc.c ****   LTDC_Layerx->WVPCR &= ~(LTDC_LxWVPCR_WVSTPOS | LTDC_LxWVPCR_WVSPPOS);
 1269              		.loc 1 717 3 is_stmt 1 view .LVU432
 1270              		.loc 1 717 22 is_stmt 0 view .LVU433
 1271 000a 8468     		ldr	r4, [r0, #8]
 1272 000c 04F47044 		and	r4, r4, #61440
 1273 0010 8460     		str	r4, [r0, #8]
 718:Drivers/STM32F4xx_StdPeriph_Driver/src/stm32f4xx_ltdc.c ****   
 719:Drivers/STM32F4xx_StdPeriph_Driver/src/stm32f4xx_ltdc.c ****   /* Reconfigures the horizontal and vertical start position */
 720:Drivers/STM32F4xx_StdPeriph_Driver/src/stm32f4xx_ltdc.c ****   tempreg = LTDC->BPCR;
 1274              		.loc 1 720 3 is_stmt 1 view .LVU434
 1275              		.loc 1 720 11 is_stmt 0 view .LVU435
 1276 0012 1B4B     		ldr	r3, .L71
 1277 0014 DB68     		ldr	r3, [r3, #12]
 1278              	.LVL56:
 721:Drivers/STM32F4xx_StdPeriph_Driver/src/stm32f4xx_ltdc.c ****   horizontal_start = (tempreg >> 16) + 1 + OffsetX;
 1279              		.loc 1 721 3 is_stmt 1 view .LVU436
 1280              		.loc 1 721 42 is_stmt 0 view .LVU437
 1281 0016 01EB1341 		add	r1, r1, r3, lsr #16
 1282              	.LVL57:
 1283              		.loc 1 721 20 view .LVU438
 1284 001a 0131     		adds	r1, r1, #1
 1285              	.LVL58:
 722:Drivers/STM32F4xx_StdPeriph_Driver/src/stm32f4xx_ltdc.c ****   vertical_start = (tempreg & 0xFFFF) + 1 + OffsetY;
 1286              		.loc 1 722 3 is_stmt 1 view .LVU439
 1287              		.loc 1 722 43 is_stmt 0 view .LVU440
 1288 001c 12FA83F2 		uxtah	r2, r2, r3
 1289              	.LVL59:
 1290              		.loc 1 722 18 view .LVU441
 1291 0020 0132     		adds	r2, r2, #1
 1292              	.LVL60:
 723:Drivers/STM32F4xx_StdPeriph_Driver/src/stm32f4xx_ltdc.c ****   
 724:Drivers/STM32F4xx_StdPeriph_Driver/src/stm32f4xx_ltdc.c ****   /* Reconfigures the horizontal and vertical stop position */
 725:Drivers/STM32F4xx_StdPeriph_Driver/src/stm32f4xx_ltdc.c ****   /* Get the number of byte per pixel */
 726:Drivers/STM32F4xx_StdPeriph_Driver/src/stm32f4xx_ltdc.c ****   
 727:Drivers/STM32F4xx_StdPeriph_Driver/src/stm32f4xx_ltdc.c ****   tempreg = LTDC_Layerx->PFCR;
 1293              		.loc 1 727 3 is_stmt 1 view .LVU442
 1294              		.loc 1 727 11 is_stmt 0 view .LVU443
 1295 0022 0469     		ldr	r4, [r0, #16]
 1296              	.LVL61:
 728:Drivers/STM32F4xx_StdPeriph_Driver/src/stm32f4xx_ltdc.c ****   
ARM GAS  /tmp/ccEhn3Qw.s 			page 36


 729:Drivers/STM32F4xx_StdPeriph_Driver/src/stm32f4xx_ltdc.c ****   if (tempreg == LTDC_Pixelformat_ARGB8888)
 1297              		.loc 1 729 3 is_stmt 1 view .LVU444
 1298              		.loc 1 729 6 is_stmt 0 view .LVU445
 1299 0024 6CB1     		cbz	r4, .L64
 730:Drivers/STM32F4xx_StdPeriph_Driver/src/stm32f4xx_ltdc.c ****   {
 731:Drivers/STM32F4xx_StdPeriph_Driver/src/stm32f4xx_ltdc.c ****     temp = 4;
 732:Drivers/STM32F4xx_StdPeriph_Driver/src/stm32f4xx_ltdc.c ****   }
 733:Drivers/STM32F4xx_StdPeriph_Driver/src/stm32f4xx_ltdc.c ****   else if (tempreg == LTDC_Pixelformat_RGB888)
 1300              		.loc 1 733 8 is_stmt 1 view .LVU446
 1301              		.loc 1 733 11 is_stmt 0 view .LVU447
 1302 0026 012C     		cmp	r4, #1
 1303 0028 23D0     		beq	.L65
 734:Drivers/STM32F4xx_StdPeriph_Driver/src/stm32f4xx_ltdc.c ****   {
 735:Drivers/STM32F4xx_StdPeriph_Driver/src/stm32f4xx_ltdc.c ****     temp = 3;
 736:Drivers/STM32F4xx_StdPeriph_Driver/src/stm32f4xx_ltdc.c ****   }
 737:Drivers/STM32F4xx_StdPeriph_Driver/src/stm32f4xx_ltdc.c ****   else if ((tempreg == LTDC_Pixelformat_ARGB4444) || 
 1304              		.loc 1 737 8 is_stmt 1 view .LVU448
 1305              		.loc 1 737 11 is_stmt 0 view .LVU449
 1306 002a 042C     		cmp	r4, #4
 1307 002c 23D0     		beq	.L66
 1308              		.loc 1 737 51 discriminator 1 view .LVU450
 1309 002e 022C     		cmp	r4, #2
 1310 0030 08D0     		beq	.L63
 738:Drivers/STM32F4xx_StdPeriph_Driver/src/stm32f4xx_ltdc.c ****           (tempreg == LTDC_Pixelformat_RGB565)    ||  
 1311              		.loc 1 738 51 view .LVU451
 1312 0032 032C     		cmp	r4, #3
 1313 0034 21D0     		beq	.L67
 739:Drivers/STM32F4xx_StdPeriph_Driver/src/stm32f4xx_ltdc.c ****           (tempreg == LTDC_Pixelformat_ARGB1555)  ||
 1314              		.loc 1 739 51 view .LVU452
 1315 0036 072C     		cmp	r4, #7
 1316 0038 01D0     		beq	.L70
 740:Drivers/STM32F4xx_StdPeriph_Driver/src/stm32f4xx_ltdc.c ****           (tempreg == LTDC_Pixelformat_AL88))
 741:Drivers/STM32F4xx_StdPeriph_Driver/src/stm32f4xx_ltdc.c ****   {
 742:Drivers/STM32F4xx_StdPeriph_Driver/src/stm32f4xx_ltdc.c ****     temp = 2;  
 743:Drivers/STM32F4xx_StdPeriph_Driver/src/stm32f4xx_ltdc.c ****   }
 744:Drivers/STM32F4xx_StdPeriph_Driver/src/stm32f4xx_ltdc.c ****   else
 745:Drivers/STM32F4xx_StdPeriph_Driver/src/stm32f4xx_ltdc.c ****   {
 746:Drivers/STM32F4xx_StdPeriph_Driver/src/stm32f4xx_ltdc.c ****     temp = 1;
 1317              		.loc 1 746 10 view .LVU453
 1318 003a 0124     		movs	r4, #1
 1319              	.LVL62:
 1320              		.loc 1 746 10 view .LVU454
 1321 003c 02E0     		b	.L63
 1322              	.LVL63:
 1323              	.L70:
 742:Drivers/STM32F4xx_StdPeriph_Driver/src/stm32f4xx_ltdc.c ****   }
 1324              		.loc 1 742 10 view .LVU455
 1325 003e 0224     		movs	r4, #2
 1326              	.LVL64:
 742:Drivers/STM32F4xx_StdPeriph_Driver/src/stm32f4xx_ltdc.c ****   }
 1327              		.loc 1 742 10 view .LVU456
 1328 0040 00E0     		b	.L63
 1329              	.LVL65:
 1330              	.L64:
 731:Drivers/STM32F4xx_StdPeriph_Driver/src/stm32f4xx_ltdc.c ****   }
 1331              		.loc 1 731 10 view .LVU457
 1332 0042 0424     		movs	r4, #4
ARM GAS  /tmp/ccEhn3Qw.s 			page 37


 1333              	.LVL66:
 1334              	.L63:
 747:Drivers/STM32F4xx_StdPeriph_Driver/src/stm32f4xx_ltdc.c ****   }  
 748:Drivers/STM32F4xx_StdPeriph_Driver/src/stm32f4xx_ltdc.c ****     
 749:Drivers/STM32F4xx_StdPeriph_Driver/src/stm32f4xx_ltdc.c ****   tempreg = LTDC_Layerx->CFBLR;
 1335              		.loc 1 749 3 is_stmt 1 view .LVU458
 1336              		.loc 1 749 11 is_stmt 0 view .LVU459
 1337 0044 C36A     		ldr	r3, [r0, #44]
 1338              	.LVL67:
 750:Drivers/STM32F4xx_StdPeriph_Driver/src/stm32f4xx_ltdc.c ****   horizontal_stop = (((tempreg & 0x1FFF) - 3)/temp) + horizontal_start - 1;
 1339              		.loc 1 750 3 is_stmt 1 view .LVU460
 1340              		.loc 1 750 32 is_stmt 0 view .LVU461
 1341 0046 C3F30C03 		ubfx	r3, r3, #0, #13
 1342              	.LVL68:
 1343              		.loc 1 750 42 view .LVU462
 1344 004a 033B     		subs	r3, r3, #3
 1345              		.loc 1 750 46 view .LVU463
 1346 004c B3FBF4F3 		udiv	r3, r3, r4
 1347              		.loc 1 750 53 view .LVU464
 1348 0050 0B44     		add	r3, r3, r1
 1349              		.loc 1 750 19 view .LVU465
 1350 0052 013B     		subs	r3, r3, #1
 1351              	.LVL69:
 751:Drivers/STM32F4xx_StdPeriph_Driver/src/stm32f4xx_ltdc.c ****   
 752:Drivers/STM32F4xx_StdPeriph_Driver/src/stm32f4xx_ltdc.c ****   tempreg = LTDC_Layerx->CFBLNR;
 1352              		.loc 1 752 3 is_stmt 1 view .LVU466
 1353              		.loc 1 752 11 is_stmt 0 view .LVU467
 1354 0054 046B     		ldr	r4, [r0, #48]
 1355              	.LVL70:
 753:Drivers/STM32F4xx_StdPeriph_Driver/src/stm32f4xx_ltdc.c ****   vertical_stop = (tempreg & 0x7FF) + vertical_start - 1;  
 1356              		.loc 1 753 3 is_stmt 1 view .LVU468
 1357              		.loc 1 753 28 is_stmt 0 view .LVU469
 1358 0056 C4F30A0C 		ubfx	ip, r4, #0, #11
 1359              		.loc 1 753 37 view .LVU470
 1360 005a 9444     		add	ip, ip, r2
 1361              		.loc 1 753 17 view .LVU471
 1362 005c 0CF1FF3C 		add	ip, ip, #-1
 1363              	.LVL71:
 754:Drivers/STM32F4xx_StdPeriph_Driver/src/stm32f4xx_ltdc.c ****   
 755:Drivers/STM32F4xx_StdPeriph_Driver/src/stm32f4xx_ltdc.c ****   LTDC_Layerx->WHPCR = horizontal_start | (horizontal_stop << 16);
 1364              		.loc 1 755 3 is_stmt 1 view .LVU472
 1365              		.loc 1 755 41 is_stmt 0 view .LVU473
 1366 0060 41EA0341 		orr	r1, r1, r3, lsl #16
 1367              	.LVL72:
 1368              		.loc 1 755 22 view .LVU474
 1369 0064 4160     		str	r1, [r0, #4]
 756:Drivers/STM32F4xx_StdPeriph_Driver/src/stm32f4xx_ltdc.c ****   LTDC_Layerx->WVPCR = vertical_start | (vertical_stop << 16);  
 1370              		.loc 1 756 3 is_stmt 1 view .LVU475
 1371              		.loc 1 756 39 is_stmt 0 view .LVU476
 1372 0066 42EA0C42 		orr	r2, r2, ip, lsl #16
 1373              	.LVL73:
 1374              		.loc 1 756 22 view .LVU477
 1375 006a 8260     		str	r2, [r0, #8]
 757:Drivers/STM32F4xx_StdPeriph_Driver/src/stm32f4xx_ltdc.c **** }
 1376              		.loc 1 757 1 view .LVU478
 1377 006c 5DF8044B 		ldr	r4, [sp], #4
 1378              		.cfi_remember_state
ARM GAS  /tmp/ccEhn3Qw.s 			page 38


 1379              		.cfi_restore 4
 1380              		.cfi_def_cfa_offset 0
 1381              	.LVL74:
 1382              		.loc 1 757 1 view .LVU479
 1383 0070 7047     		bx	lr
 1384              	.LVL75:
 1385              	.L65:
 1386              		.cfi_restore_state
 735:Drivers/STM32F4xx_StdPeriph_Driver/src/stm32f4xx_ltdc.c ****   }
 1387              		.loc 1 735 10 view .LVU480
 1388 0072 0324     		movs	r4, #3
 1389              	.LVL76:
 735:Drivers/STM32F4xx_StdPeriph_Driver/src/stm32f4xx_ltdc.c ****   }
 1390              		.loc 1 735 10 view .LVU481
 1391 0074 E6E7     		b	.L63
 1392              	.LVL77:
 1393              	.L66:
 742:Drivers/STM32F4xx_StdPeriph_Driver/src/stm32f4xx_ltdc.c ****   }
 1394              		.loc 1 742 10 view .LVU482
 1395 0076 0224     		movs	r4, #2
 1396              	.LVL78:
 742:Drivers/STM32F4xx_StdPeriph_Driver/src/stm32f4xx_ltdc.c ****   }
 1397              		.loc 1 742 10 view .LVU483
 1398 0078 E4E7     		b	.L63
 1399              	.LVL79:
 1400              	.L67:
 742:Drivers/STM32F4xx_StdPeriph_Driver/src/stm32f4xx_ltdc.c ****   }
 1401              		.loc 1 742 10 view .LVU484
 1402 007a 0224     		movs	r4, #2
 1403              	.LVL80:
 742:Drivers/STM32F4xx_StdPeriph_Driver/src/stm32f4xx_ltdc.c ****   }
 1404              		.loc 1 742 10 view .LVU485
 1405 007c E2E7     		b	.L63
 1406              	.L72:
 1407 007e 00BF     		.align	2
 1408              	.L71:
 1409 0080 00680140 		.word	1073833984
 1410              		.cfi_endproc
 1411              	.LFE143:
 1413              		.section	.text.LTDC_LayerAlpha,"ax",%progbits
 1414              		.align	1
 1415              		.global	LTDC_LayerAlpha
 1416              		.syntax unified
 1417              		.thumb
 1418              		.thumb_func
 1419              		.fpu fpv4-sp-d16
 1421              	LTDC_LayerAlpha:
 1422              	.LVL81:
 1423              	.LFB144:
 758:Drivers/STM32F4xx_StdPeriph_Driver/src/stm32f4xx_ltdc.c ****   
 759:Drivers/STM32F4xx_StdPeriph_Driver/src/stm32f4xx_ltdc.c **** /**
 760:Drivers/STM32F4xx_StdPeriph_Driver/src/stm32f4xx_ltdc.c ****   * @brief  reconfigure constant alpha.
 761:Drivers/STM32F4xx_StdPeriph_Driver/src/stm32f4xx_ltdc.c ****   * @param  ConstantAlpha: constant alpha value.
 762:Drivers/STM32F4xx_StdPeriph_Driver/src/stm32f4xx_ltdc.c ****   * @param  LTDC_layerx: Select the layer to be configured, this parameter can be 
 763:Drivers/STM32F4xx_StdPeriph_Driver/src/stm32f4xx_ltdc.c ****   *         one of the following values: LTDC_Layer1, LTDC_Layer2    
 764:Drivers/STM32F4xx_StdPeriph_Driver/src/stm32f4xx_ltdc.c ****   * @retval Reload of the shadow registers values must be applied after constant 
 765:Drivers/STM32F4xx_StdPeriph_Driver/src/stm32f4xx_ltdc.c ****   *         alpha reconfiguration.         
ARM GAS  /tmp/ccEhn3Qw.s 			page 39


 766:Drivers/STM32F4xx_StdPeriph_Driver/src/stm32f4xx_ltdc.c ****   */
 767:Drivers/STM32F4xx_StdPeriph_Driver/src/stm32f4xx_ltdc.c **** 
 768:Drivers/STM32F4xx_StdPeriph_Driver/src/stm32f4xx_ltdc.c **** void LTDC_LayerAlpha(LTDC_Layer_TypeDef* LTDC_Layerx, uint8_t ConstantAlpha)
 769:Drivers/STM32F4xx_StdPeriph_Driver/src/stm32f4xx_ltdc.c **** {  
 1424              		.loc 1 769 1 is_stmt 1 view -0
 1425              		.cfi_startproc
 1426              		@ args = 0, pretend = 0, frame = 0
 1427              		@ frame_needed = 0, uses_anonymous_args = 0
 1428              		@ link register save eliminated.
 770:Drivers/STM32F4xx_StdPeriph_Driver/src/stm32f4xx_ltdc.c ****   /* reconfigure the constant alpha value */      
 771:Drivers/STM32F4xx_StdPeriph_Driver/src/stm32f4xx_ltdc.c ****   LTDC_Layerx->CACR = ConstantAlpha;
 1429              		.loc 1 771 3 view .LVU487
 1430              		.loc 1 771 21 is_stmt 0 view .LVU488
 1431 0000 4161     		str	r1, [r0, #20]
 772:Drivers/STM32F4xx_StdPeriph_Driver/src/stm32f4xx_ltdc.c **** }
 1432              		.loc 1 772 1 view .LVU489
 1433 0002 7047     		bx	lr
 1434              		.cfi_endproc
 1435              	.LFE144:
 1437              		.section	.text.LTDC_LayerAddress,"ax",%progbits
 1438              		.align	1
 1439              		.global	LTDC_LayerAddress
 1440              		.syntax unified
 1441              		.thumb
 1442              		.thumb_func
 1443              		.fpu fpv4-sp-d16
 1445              	LTDC_LayerAddress:
 1446              	.LVL82:
 1447              	.LFB145:
 773:Drivers/STM32F4xx_StdPeriph_Driver/src/stm32f4xx_ltdc.c **** 
 774:Drivers/STM32F4xx_StdPeriph_Driver/src/stm32f4xx_ltdc.c **** /**
 775:Drivers/STM32F4xx_StdPeriph_Driver/src/stm32f4xx_ltdc.c ****   * @brief  reconfigure layer address.
 776:Drivers/STM32F4xx_StdPeriph_Driver/src/stm32f4xx_ltdc.c ****   * @param  Address: The color frame buffer start address.
 777:Drivers/STM32F4xx_StdPeriph_Driver/src/stm32f4xx_ltdc.c ****   * @param  LTDC_layerx: Select the layer to be configured, this parameter can be 
 778:Drivers/STM32F4xx_StdPeriph_Driver/src/stm32f4xx_ltdc.c ****   *         one of the following values: LTDC_Layer1, LTDC_Layer2     
 779:Drivers/STM32F4xx_StdPeriph_Driver/src/stm32f4xx_ltdc.c ****   * @retval Reload of the shadow registers values must be applied after layer 
 780:Drivers/STM32F4xx_StdPeriph_Driver/src/stm32f4xx_ltdc.c ****   *         address reconfiguration.
 781:Drivers/STM32F4xx_StdPeriph_Driver/src/stm32f4xx_ltdc.c ****   */
 782:Drivers/STM32F4xx_StdPeriph_Driver/src/stm32f4xx_ltdc.c **** 
 783:Drivers/STM32F4xx_StdPeriph_Driver/src/stm32f4xx_ltdc.c **** void LTDC_LayerAddress(LTDC_Layer_TypeDef* LTDC_Layerx, uint32_t Address)
 784:Drivers/STM32F4xx_StdPeriph_Driver/src/stm32f4xx_ltdc.c **** {
 1448              		.loc 1 784 1 is_stmt 1 view -0
 1449              		.cfi_startproc
 1450              		@ args = 0, pretend = 0, frame = 0
 1451              		@ frame_needed = 0, uses_anonymous_args = 0
 1452              		@ link register save eliminated.
 785:Drivers/STM32F4xx_StdPeriph_Driver/src/stm32f4xx_ltdc.c ****   /* Reconfigures the color frame buffer start address */
 786:Drivers/STM32F4xx_StdPeriph_Driver/src/stm32f4xx_ltdc.c ****   LTDC_Layerx->CFBAR = Address;
 1453              		.loc 1 786 3 view .LVU491
 1454              		.loc 1 786 22 is_stmt 0 view .LVU492
 1455 0000 8162     		str	r1, [r0, #40]
 787:Drivers/STM32F4xx_StdPeriph_Driver/src/stm32f4xx_ltdc.c **** }
 1456              		.loc 1 787 1 view .LVU493
 1457 0002 7047     		bx	lr
 1458              		.cfi_endproc
 1459              	.LFE145:
 1461              		.section	.text.LTDC_LayerSize,"ax",%progbits
ARM GAS  /tmp/ccEhn3Qw.s 			page 40


 1462              		.align	1
 1463              		.global	LTDC_LayerSize
 1464              		.syntax unified
 1465              		.thumb
 1466              		.thumb_func
 1467              		.fpu fpv4-sp-d16
 1469              	LTDC_LayerSize:
 1470              	.LVL83:
 1471              	.LFB146:
 788:Drivers/STM32F4xx_StdPeriph_Driver/src/stm32f4xx_ltdc.c ****   
 789:Drivers/STM32F4xx_StdPeriph_Driver/src/stm32f4xx_ltdc.c **** /**
 790:Drivers/STM32F4xx_StdPeriph_Driver/src/stm32f4xx_ltdc.c ****   * @brief  reconfigure layer size.
 791:Drivers/STM32F4xx_StdPeriph_Driver/src/stm32f4xx_ltdc.c ****   * @param  Width: layer window width.
 792:Drivers/STM32F4xx_StdPeriph_Driver/src/stm32f4xx_ltdc.c ****   * @param  Height: layer window height.   
 793:Drivers/STM32F4xx_StdPeriph_Driver/src/stm32f4xx_ltdc.c ****   * @param  LTDC_layerx: Select the layer to be configured, this parameter can be 
 794:Drivers/STM32F4xx_StdPeriph_Driver/src/stm32f4xx_ltdc.c ****   *         one of the following values: LTDC_Layer1, LTDC_Layer2   
 795:Drivers/STM32F4xx_StdPeriph_Driver/src/stm32f4xx_ltdc.c ****   * @retval Reload of the shadow registers values must be applied after layer 
 796:Drivers/STM32F4xx_StdPeriph_Driver/src/stm32f4xx_ltdc.c ****   *         size reconfiguration.
 797:Drivers/STM32F4xx_StdPeriph_Driver/src/stm32f4xx_ltdc.c ****   */
 798:Drivers/STM32F4xx_StdPeriph_Driver/src/stm32f4xx_ltdc.c **** 
 799:Drivers/STM32F4xx_StdPeriph_Driver/src/stm32f4xx_ltdc.c **** void LTDC_LayerSize(LTDC_Layer_TypeDef* LTDC_Layerx, uint32_t Width, uint32_t Height)
 800:Drivers/STM32F4xx_StdPeriph_Driver/src/stm32f4xx_ltdc.c **** {
 1472              		.loc 1 800 1 is_stmt 1 view -0
 1473              		.cfi_startproc
 1474              		@ args = 0, pretend = 0, frame = 0
 1475              		@ frame_needed = 0, uses_anonymous_args = 0
 1476              		.loc 1 800 1 is_stmt 0 view .LVU495
 1477 0000 30B5     		push	{r4, r5, lr}
 1478              		.cfi_def_cfa_offset 12
 1479              		.cfi_offset 4, -12
 1480              		.cfi_offset 5, -8
 1481              		.cfi_offset 14, -4
 801:Drivers/STM32F4xx_StdPeriph_Driver/src/stm32f4xx_ltdc.c **** 
 802:Drivers/STM32F4xx_StdPeriph_Driver/src/stm32f4xx_ltdc.c ****   uint8_t temp;
 1482              		.loc 1 802 3 is_stmt 1 view .LVU496
 803:Drivers/STM32F4xx_StdPeriph_Driver/src/stm32f4xx_ltdc.c ****   uint32_t tempreg;
 1483              		.loc 1 803 3 view .LVU497
 804:Drivers/STM32F4xx_StdPeriph_Driver/src/stm32f4xx_ltdc.c ****   uint32_t horizontal_start;
 1484              		.loc 1 804 3 view .LVU498
 805:Drivers/STM32F4xx_StdPeriph_Driver/src/stm32f4xx_ltdc.c ****   uint32_t horizontal_stop;
 1485              		.loc 1 805 3 view .LVU499
 806:Drivers/STM32F4xx_StdPeriph_Driver/src/stm32f4xx_ltdc.c ****   uint32_t vertical_start;
 1486              		.loc 1 806 3 view .LVU500
 807:Drivers/STM32F4xx_StdPeriph_Driver/src/stm32f4xx_ltdc.c ****   uint32_t vertical_stop;  
 1487              		.loc 1 807 3 view .LVU501
 808:Drivers/STM32F4xx_StdPeriph_Driver/src/stm32f4xx_ltdc.c ****   
 809:Drivers/STM32F4xx_StdPeriph_Driver/src/stm32f4xx_ltdc.c ****   tempreg = LTDC_Layerx->PFCR;
 1488              		.loc 1 809 3 view .LVU502
 1489              		.loc 1 809 11 is_stmt 0 view .LVU503
 1490 0002 0369     		ldr	r3, [r0, #16]
 1491              	.LVL84:
 810:Drivers/STM32F4xx_StdPeriph_Driver/src/stm32f4xx_ltdc.c ****   
 811:Drivers/STM32F4xx_StdPeriph_Driver/src/stm32f4xx_ltdc.c ****   if (tempreg == LTDC_Pixelformat_ARGB8888)
 1492              		.loc 1 811 3 is_stmt 1 view .LVU504
 1493              		.loc 1 811 6 is_stmt 0 view .LVU505
 1494 0004 7BB1     		cbz	r3, .L77
 812:Drivers/STM32F4xx_StdPeriph_Driver/src/stm32f4xx_ltdc.c ****   {
ARM GAS  /tmp/ccEhn3Qw.s 			page 41


 813:Drivers/STM32F4xx_StdPeriph_Driver/src/stm32f4xx_ltdc.c ****     temp = 4;
 814:Drivers/STM32F4xx_StdPeriph_Driver/src/stm32f4xx_ltdc.c ****   }
 815:Drivers/STM32F4xx_StdPeriph_Driver/src/stm32f4xx_ltdc.c ****   else if (tempreg == LTDC_Pixelformat_RGB888)
 1495              		.loc 1 815 8 is_stmt 1 view .LVU506
 1496              		.loc 1 815 11 is_stmt 0 view .LVU507
 1497 0006 012B     		cmp	r3, #1
 1498 0008 28D0     		beq	.L78
 816:Drivers/STM32F4xx_StdPeriph_Driver/src/stm32f4xx_ltdc.c ****   {
 817:Drivers/STM32F4xx_StdPeriph_Driver/src/stm32f4xx_ltdc.c ****     temp = 3;
 818:Drivers/STM32F4xx_StdPeriph_Driver/src/stm32f4xx_ltdc.c ****   }
 819:Drivers/STM32F4xx_StdPeriph_Driver/src/stm32f4xx_ltdc.c ****   else if ((tempreg == LTDC_Pixelformat_ARGB4444) || \
 1499              		.loc 1 819 8 is_stmt 1 view .LVU508
 1500              		.loc 1 819 11 is_stmt 0 view .LVU509
 1501 000a 042B     		cmp	r3, #4
 1502 000c 29D0     		beq	.L79
 1503              		.loc 1 819 51 discriminator 1 view .LVU510
 1504 000e 022B     		cmp	r3, #2
 1505 0010 2AD0     		beq	.L80
 820:Drivers/STM32F4xx_StdPeriph_Driver/src/stm32f4xx_ltdc.c ****           (tempreg == LTDC_Pixelformat_RGB565)    || \
 1506              		.loc 1 820 51 view .LVU511
 1507 0012 032B     		cmp	r3, #3
 1508 0014 2BD0     		beq	.L81
 821:Drivers/STM32F4xx_StdPeriph_Driver/src/stm32f4xx_ltdc.c ****           (tempreg == LTDC_Pixelformat_ARGB1555)  || \
 1509              		.loc 1 821 51 view .LVU512
 1510 0016 072B     		cmp	r3, #7
 1511 0018 02D0     		beq	.L84
 822:Drivers/STM32F4xx_StdPeriph_Driver/src/stm32f4xx_ltdc.c ****           (tempreg == LTDC_Pixelformat_AL88))
 823:Drivers/STM32F4xx_StdPeriph_Driver/src/stm32f4xx_ltdc.c ****   {
 824:Drivers/STM32F4xx_StdPeriph_Driver/src/stm32f4xx_ltdc.c ****     temp = 2;  
 825:Drivers/STM32F4xx_StdPeriph_Driver/src/stm32f4xx_ltdc.c ****   }
 826:Drivers/STM32F4xx_StdPeriph_Driver/src/stm32f4xx_ltdc.c ****   else
 827:Drivers/STM32F4xx_StdPeriph_Driver/src/stm32f4xx_ltdc.c ****   {
 828:Drivers/STM32F4xx_StdPeriph_Driver/src/stm32f4xx_ltdc.c ****     temp = 1;
 1512              		.loc 1 828 10 view .LVU513
 1513 001a 4FF0010E 		mov	lr, #1
 1514 001e 04E0     		b	.L76
 1515              	.L84:
 824:Drivers/STM32F4xx_StdPeriph_Driver/src/stm32f4xx_ltdc.c ****   }
 1516              		.loc 1 824 10 view .LVU514
 1517 0020 4FF0020E 		mov	lr, #2
 1518 0024 01E0     		b	.L76
 1519              	.L77:
 813:Drivers/STM32F4xx_StdPeriph_Driver/src/stm32f4xx_ltdc.c ****   }
 1520              		.loc 1 813 10 view .LVU515
 1521 0026 4FF0040E 		mov	lr, #4
 1522              	.L76:
 1523              	.LVL85:
 829:Drivers/STM32F4xx_StdPeriph_Driver/src/stm32f4xx_ltdc.c ****   }
 830:Drivers/STM32F4xx_StdPeriph_Driver/src/stm32f4xx_ltdc.c **** 
 831:Drivers/STM32F4xx_StdPeriph_Driver/src/stm32f4xx_ltdc.c ****   /* update horizontal and vertical stop */
 832:Drivers/STM32F4xx_StdPeriph_Driver/src/stm32f4xx_ltdc.c ****   tempreg = LTDC_Layerx->WHPCR;
 1524              		.loc 1 832 3 is_stmt 1 view .LVU516
 1525              		.loc 1 832 11 is_stmt 0 view .LVU517
 1526 002a 4368     		ldr	r3, [r0, #4]
 1527              	.LVL86:
 833:Drivers/STM32F4xx_StdPeriph_Driver/src/stm32f4xx_ltdc.c ****   horizontal_start = (tempreg & 0x1FFF);
 1528              		.loc 1 833 3 is_stmt 1 view .LVU518
ARM GAS  /tmp/ccEhn3Qw.s 			page 42


 1529              		.loc 1 833 20 is_stmt 0 view .LVU519
 1530 002c C3F30C0C 		ubfx	ip, r3, #0, #13
 1531              	.LVL87:
 834:Drivers/STM32F4xx_StdPeriph_Driver/src/stm32f4xx_ltdc.c ****   horizontal_stop = Width + horizontal_start - 1;  
 1532              		.loc 1 834 3 is_stmt 1 view .LVU520
 1533              		.loc 1 834 27 is_stmt 0 view .LVU521
 1534 0030 0CEB0104 		add	r4, ip, r1
 1535              		.loc 1 834 19 view .LVU522
 1536 0034 013C     		subs	r4, r4, #1
 1537              	.LVL88:
 835:Drivers/STM32F4xx_StdPeriph_Driver/src/stm32f4xx_ltdc.c **** 
 836:Drivers/STM32F4xx_StdPeriph_Driver/src/stm32f4xx_ltdc.c ****   tempreg = LTDC_Layerx->WVPCR;
 1538              		.loc 1 836 3 is_stmt 1 view .LVU523
 1539              		.loc 1 836 11 is_stmt 0 view .LVU524
 1540 0036 8368     		ldr	r3, [r0, #8]
 1541              	.LVL89:
 837:Drivers/STM32F4xx_StdPeriph_Driver/src/stm32f4xx_ltdc.c ****   vertical_start = (tempreg & 0x1FFF);
 1542              		.loc 1 837 3 is_stmt 1 view .LVU525
 1543              		.loc 1 837 18 is_stmt 0 view .LVU526
 1544 0038 C3F30C03 		ubfx	r3, r3, #0, #13
 1545              	.LVL90:
 838:Drivers/STM32F4xx_StdPeriph_Driver/src/stm32f4xx_ltdc.c ****   vertical_stop = Height + vertical_start - 1;  
 1546              		.loc 1 838 3 is_stmt 1 view .LVU527
 1547              		.loc 1 838 26 is_stmt 0 view .LVU528
 1548 003c 9D18     		adds	r5, r3, r2
 1549              		.loc 1 838 17 view .LVU529
 1550 003e 013D     		subs	r5, r5, #1
 1551              	.LVL91:
 839:Drivers/STM32F4xx_StdPeriph_Driver/src/stm32f4xx_ltdc.c ****   
 840:Drivers/STM32F4xx_StdPeriph_Driver/src/stm32f4xx_ltdc.c ****   LTDC_Layerx->WHPCR = horizontal_start | (horizontal_stop << 16);
 1552              		.loc 1 840 3 is_stmt 1 view .LVU530
 1553              		.loc 1 840 41 is_stmt 0 view .LVU531
 1554 0040 4CEA0444 		orr	r4, ip, r4, lsl #16
 1555              	.LVL92:
 1556              		.loc 1 840 22 view .LVU532
 1557 0044 4460     		str	r4, [r0, #4]
 841:Drivers/STM32F4xx_StdPeriph_Driver/src/stm32f4xx_ltdc.c ****   LTDC_Layerx->WVPCR = vertical_start | (vertical_stop << 16);  
 1558              		.loc 1 841 3 is_stmt 1 view .LVU533
 1559              		.loc 1 841 39 is_stmt 0 view .LVU534
 1560 0046 43EA0543 		orr	r3, r3, r5, lsl #16
 1561              	.LVL93:
 1562              		.loc 1 841 22 view .LVU535
 1563 004a 8360     		str	r3, [r0, #8]
 842:Drivers/STM32F4xx_StdPeriph_Driver/src/stm32f4xx_ltdc.c **** 
 843:Drivers/STM32F4xx_StdPeriph_Driver/src/stm32f4xx_ltdc.c ****   /* Reconfigures the color frame buffer pitch in byte */
 844:Drivers/STM32F4xx_StdPeriph_Driver/src/stm32f4xx_ltdc.c ****   LTDC_Layerx->CFBLR  = ((Width * temp) << 16) | ((Width * temp) + 3);  
 1564              		.loc 1 844 3 is_stmt 1 view .LVU536
 1565              		.loc 1 844 33 is_stmt 0 view .LVU537
 1566 004c 01FB0EF1 		mul	r1, r1, lr
 1567              	.LVL94:
 1568              		.loc 1 844 66 view .LVU538
 1569 0050 CB1C     		adds	r3, r1, #3
 1570              		.loc 1 844 48 view .LVU539
 1571 0052 43EA0141 		orr	r1, r3, r1, lsl #16
 1572              		.loc 1 844 23 view .LVU540
 1573 0056 C162     		str	r1, [r0, #44]
 845:Drivers/STM32F4xx_StdPeriph_Driver/src/stm32f4xx_ltdc.c **** 
ARM GAS  /tmp/ccEhn3Qw.s 			page 43


 846:Drivers/STM32F4xx_StdPeriph_Driver/src/stm32f4xx_ltdc.c ****   /* Reconfigures the frame buffer line number */
 847:Drivers/STM32F4xx_StdPeriph_Driver/src/stm32f4xx_ltdc.c ****   LTDC_Layerx->CFBLNR  = Height;  
 1574              		.loc 1 847 3 is_stmt 1 view .LVU541
 1575              		.loc 1 847 24 is_stmt 0 view .LVU542
 1576 0058 0263     		str	r2, [r0, #48]
 848:Drivers/STM32F4xx_StdPeriph_Driver/src/stm32f4xx_ltdc.c ****   
 849:Drivers/STM32F4xx_StdPeriph_Driver/src/stm32f4xx_ltdc.c **** }
 1577              		.loc 1 849 1 view .LVU543
 1578 005a 30BD     		pop	{r4, r5, pc}
 1579              	.LVL95:
 1580              	.L78:
 817:Drivers/STM32F4xx_StdPeriph_Driver/src/stm32f4xx_ltdc.c ****   }
 1581              		.loc 1 817 10 view .LVU544
 1582 005c 4FF0030E 		mov	lr, #3
 1583 0060 E3E7     		b	.L76
 1584              	.L79:
 824:Drivers/STM32F4xx_StdPeriph_Driver/src/stm32f4xx_ltdc.c ****   }
 1585              		.loc 1 824 10 view .LVU545
 1586 0062 4FF0020E 		mov	lr, #2
 1587 0066 E0E7     		b	.L76
 1588              	.L80:
 1589 0068 4FF0020E 		mov	lr, #2
 1590 006c DDE7     		b	.L76
 1591              	.L81:
 1592 006e 4FF0020E 		mov	lr, #2
 1593 0072 DAE7     		b	.L76
 1594              		.cfi_endproc
 1595              	.LFE146:
 1597              		.section	.text.LTDC_LayerPixelFormat,"ax",%progbits
 1598              		.align	1
 1599              		.global	LTDC_LayerPixelFormat
 1600              		.syntax unified
 1601              		.thumb
 1602              		.thumb_func
 1603              		.fpu fpv4-sp-d16
 1605              	LTDC_LayerPixelFormat:
 1606              	.LVL96:
 1607              	.LFB147:
 850:Drivers/STM32F4xx_StdPeriph_Driver/src/stm32f4xx_ltdc.c **** 
 851:Drivers/STM32F4xx_StdPeriph_Driver/src/stm32f4xx_ltdc.c **** /**
 852:Drivers/STM32F4xx_StdPeriph_Driver/src/stm32f4xx_ltdc.c ****   * @brief  reconfigure layer pixel format.
 853:Drivers/STM32F4xx_StdPeriph_Driver/src/stm32f4xx_ltdc.c ****   * @param  PixelFormat: reconfigure the pixel format, this parameter can be 
 854:Drivers/STM32F4xx_StdPeriph_Driver/src/stm32f4xx_ltdc.c ****   *         one of the following values:@ref LTDC_Pixelformat.   
 855:Drivers/STM32F4xx_StdPeriph_Driver/src/stm32f4xx_ltdc.c ****   * @param  LTDC_layerx: Select the layer to be configured, this parameter can be 
 856:Drivers/STM32F4xx_StdPeriph_Driver/src/stm32f4xx_ltdc.c ****   *         one of the following values: LTDC_Layer1, LTDC_Layer2   
 857:Drivers/STM32F4xx_StdPeriph_Driver/src/stm32f4xx_ltdc.c ****   * @retval Reload of the shadow registers values must be applied after layer 
 858:Drivers/STM32F4xx_StdPeriph_Driver/src/stm32f4xx_ltdc.c ****   *         pixel format reconfiguration.
 859:Drivers/STM32F4xx_StdPeriph_Driver/src/stm32f4xx_ltdc.c ****   */
 860:Drivers/STM32F4xx_StdPeriph_Driver/src/stm32f4xx_ltdc.c **** 
 861:Drivers/STM32F4xx_StdPeriph_Driver/src/stm32f4xx_ltdc.c **** void LTDC_LayerPixelFormat(LTDC_Layer_TypeDef* LTDC_Layerx, uint32_t PixelFormat)
 862:Drivers/STM32F4xx_StdPeriph_Driver/src/stm32f4xx_ltdc.c **** {
 1608              		.loc 1 862 1 is_stmt 1 view -0
 1609              		.cfi_startproc
 1610              		@ args = 0, pretend = 0, frame = 0
 1611              		@ frame_needed = 0, uses_anonymous_args = 0
 1612              		@ link register save eliminated.
 863:Drivers/STM32F4xx_StdPeriph_Driver/src/stm32f4xx_ltdc.c **** 
ARM GAS  /tmp/ccEhn3Qw.s 			page 44


 864:Drivers/STM32F4xx_StdPeriph_Driver/src/stm32f4xx_ltdc.c ****   uint8_t temp;
 1613              		.loc 1 864 3 view .LVU547
 865:Drivers/STM32F4xx_StdPeriph_Driver/src/stm32f4xx_ltdc.c ****   uint32_t tempreg;
 1614              		.loc 1 865 3 view .LVU548
 866:Drivers/STM32F4xx_StdPeriph_Driver/src/stm32f4xx_ltdc.c ****   
 867:Drivers/STM32F4xx_StdPeriph_Driver/src/stm32f4xx_ltdc.c ****   tempreg = LTDC_Layerx->PFCR;
 1615              		.loc 1 867 3 view .LVU549
 1616              		.loc 1 867 11 is_stmt 0 view .LVU550
 1617 0000 0369     		ldr	r3, [r0, #16]
 1618              	.LVL97:
 868:Drivers/STM32F4xx_StdPeriph_Driver/src/stm32f4xx_ltdc.c ****   
 869:Drivers/STM32F4xx_StdPeriph_Driver/src/stm32f4xx_ltdc.c ****   if (tempreg == LTDC_Pixelformat_ARGB8888)
 1619              		.loc 1 869 3 is_stmt 1 view .LVU551
 1620              		.loc 1 869 6 is_stmt 0 view .LVU552
 1621 0002 6BB1     		cbz	r3, .L88
 870:Drivers/STM32F4xx_StdPeriph_Driver/src/stm32f4xx_ltdc.c ****   {
 871:Drivers/STM32F4xx_StdPeriph_Driver/src/stm32f4xx_ltdc.c ****     temp = 4;
 872:Drivers/STM32F4xx_StdPeriph_Driver/src/stm32f4xx_ltdc.c ****   }
 873:Drivers/STM32F4xx_StdPeriph_Driver/src/stm32f4xx_ltdc.c ****   else if (tempreg == LTDC_Pixelformat_RGB888)
 1622              		.loc 1 873 8 is_stmt 1 view .LVU553
 1623              		.loc 1 873 11 is_stmt 0 view .LVU554
 1624 0004 012B     		cmp	r3, #1
 1625 0006 1DD0     		beq	.L89
 874:Drivers/STM32F4xx_StdPeriph_Driver/src/stm32f4xx_ltdc.c ****   {
 875:Drivers/STM32F4xx_StdPeriph_Driver/src/stm32f4xx_ltdc.c ****     temp = 3;
 876:Drivers/STM32F4xx_StdPeriph_Driver/src/stm32f4xx_ltdc.c ****   }
 877:Drivers/STM32F4xx_StdPeriph_Driver/src/stm32f4xx_ltdc.c ****   else if ((tempreg == LTDC_Pixelformat_ARGB4444) || \
 1626              		.loc 1 877 8 is_stmt 1 view .LVU555
 1627              		.loc 1 877 11 is_stmt 0 view .LVU556
 1628 0008 042B     		cmp	r3, #4
 1629 000a 1DD0     		beq	.L90
 1630              		.loc 1 877 51 discriminator 1 view .LVU557
 1631 000c 022B     		cmp	r3, #2
 1632 000e 1DD0     		beq	.L91
 878:Drivers/STM32F4xx_StdPeriph_Driver/src/stm32f4xx_ltdc.c ****           (tempreg == LTDC_Pixelformat_RGB565)    || \
 1633              		.loc 1 878 51 view .LVU558
 1634 0010 032B     		cmp	r3, #3
 1635 0012 1DD0     		beq	.L92
 879:Drivers/STM32F4xx_StdPeriph_Driver/src/stm32f4xx_ltdc.c ****           (tempreg == LTDC_Pixelformat_ARGB1555)  || \
 1636              		.loc 1 879 51 view .LVU559
 1637 0014 072B     		cmp	r3, #7
 1638 0016 01D0     		beq	.L100
 880:Drivers/STM32F4xx_StdPeriph_Driver/src/stm32f4xx_ltdc.c ****           (tempreg == LTDC_Pixelformat_AL88))  
 881:Drivers/STM32F4xx_StdPeriph_Driver/src/stm32f4xx_ltdc.c ****   {
 882:Drivers/STM32F4xx_StdPeriph_Driver/src/stm32f4xx_ltdc.c ****     temp = 2;  
 883:Drivers/STM32F4xx_StdPeriph_Driver/src/stm32f4xx_ltdc.c ****   }
 884:Drivers/STM32F4xx_StdPeriph_Driver/src/stm32f4xx_ltdc.c ****   else
 885:Drivers/STM32F4xx_StdPeriph_Driver/src/stm32f4xx_ltdc.c ****   {
 886:Drivers/STM32F4xx_StdPeriph_Driver/src/stm32f4xx_ltdc.c ****     temp = 1;
 1639              		.loc 1 886 10 view .LVU560
 1640 0018 0122     		movs	r2, #1
 1641 001a 02E0     		b	.L86
 1642              	.L100:
 882:Drivers/STM32F4xx_StdPeriph_Driver/src/stm32f4xx_ltdc.c ****   }
 1643              		.loc 1 882 10 view .LVU561
 1644 001c 0222     		movs	r2, #2
 1645 001e 00E0     		b	.L86
ARM GAS  /tmp/ccEhn3Qw.s 			page 45


 1646              	.L88:
 871:Drivers/STM32F4xx_StdPeriph_Driver/src/stm32f4xx_ltdc.c ****   }
 1647              		.loc 1 871 10 view .LVU562
 1648 0020 0422     		movs	r2, #4
 1649              	.L86:
 1650              	.LVL98:
 887:Drivers/STM32F4xx_StdPeriph_Driver/src/stm32f4xx_ltdc.c ****   }
 888:Drivers/STM32F4xx_StdPeriph_Driver/src/stm32f4xx_ltdc.c ****   
 889:Drivers/STM32F4xx_StdPeriph_Driver/src/stm32f4xx_ltdc.c ****   tempreg = (LTDC_Layerx->CFBLR >> 16);
 1651              		.loc 1 889 3 is_stmt 1 view .LVU563
 1652              		.loc 1 889 25 is_stmt 0 view .LVU564
 1653 0022 C36A     		ldr	r3, [r0, #44]
 1654              	.LVL99:
 1655              		.loc 1 889 11 view .LVU565
 1656 0024 1B0C     		lsrs	r3, r3, #16
 1657              	.LVL100:
 890:Drivers/STM32F4xx_StdPeriph_Driver/src/stm32f4xx_ltdc.c ****   tempreg = (tempreg / temp); 
 1658              		.loc 1 890 3 is_stmt 1 view .LVU566
 1659              		.loc 1 890 11 is_stmt 0 view .LVU567
 1660 0026 B3FBF2F3 		udiv	r3, r3, r2
 1661              	.LVL101:
 891:Drivers/STM32F4xx_StdPeriph_Driver/src/stm32f4xx_ltdc.c ****   
 892:Drivers/STM32F4xx_StdPeriph_Driver/src/stm32f4xx_ltdc.c ****   if (PixelFormat == LTDC_Pixelformat_ARGB8888)
 1662              		.loc 1 892 3 is_stmt 1 view .LVU568
 1663              		.loc 1 892 6 is_stmt 0 view .LVU569
 1664 002a A9B1     		cbz	r1, .L94
 893:Drivers/STM32F4xx_StdPeriph_Driver/src/stm32f4xx_ltdc.c ****   {
 894:Drivers/STM32F4xx_StdPeriph_Driver/src/stm32f4xx_ltdc.c ****     temp = 4;
 895:Drivers/STM32F4xx_StdPeriph_Driver/src/stm32f4xx_ltdc.c ****   }
 896:Drivers/STM32F4xx_StdPeriph_Driver/src/stm32f4xx_ltdc.c ****   else if (PixelFormat == LTDC_Pixelformat_RGB888)
 1665              		.loc 1 896 8 is_stmt 1 view .LVU570
 1666              		.loc 1 896 11 is_stmt 0 view .LVU571
 1667 002c 0129     		cmp	r1, #1
 1668 002e 1CD0     		beq	.L95
 897:Drivers/STM32F4xx_StdPeriph_Driver/src/stm32f4xx_ltdc.c ****   {
 898:Drivers/STM32F4xx_StdPeriph_Driver/src/stm32f4xx_ltdc.c ****     temp = 3;
 899:Drivers/STM32F4xx_StdPeriph_Driver/src/stm32f4xx_ltdc.c ****   }
 900:Drivers/STM32F4xx_StdPeriph_Driver/src/stm32f4xx_ltdc.c ****   else if ((PixelFormat == LTDC_Pixelformat_ARGB4444) || \
 1669              		.loc 1 900 8 is_stmt 1 view .LVU572
 1670              		.loc 1 900 11 is_stmt 0 view .LVU573
 1671 0030 0429     		cmp	r1, #4
 1672 0032 1CD0     		beq	.L96
 1673              		.loc 1 900 55 discriminator 1 view .LVU574
 1674 0034 0229     		cmp	r1, #2
 1675 0036 1CD0     		beq	.L97
 901:Drivers/STM32F4xx_StdPeriph_Driver/src/stm32f4xx_ltdc.c ****           (PixelFormat == LTDC_Pixelformat_RGB565)    || \
 1676              		.loc 1 901 55 view .LVU575
 1677 0038 0329     		cmp	r1, #3
 1678 003a 1CD0     		beq	.L98
 902:Drivers/STM32F4xx_StdPeriph_Driver/src/stm32f4xx_ltdc.c ****           (PixelFormat == LTDC_Pixelformat_ARGB1555)  || \
 1679              		.loc 1 902 55 view .LVU576
 1680 003c 0729     		cmp	r1, #7
 1681 003e 09D0     		beq	.L101
 903:Drivers/STM32F4xx_StdPeriph_Driver/src/stm32f4xx_ltdc.c ****           (PixelFormat == LTDC_Pixelformat_AL88))
 904:Drivers/STM32F4xx_StdPeriph_Driver/src/stm32f4xx_ltdc.c ****   {
 905:Drivers/STM32F4xx_StdPeriph_Driver/src/stm32f4xx_ltdc.c ****     temp = 2;  
 906:Drivers/STM32F4xx_StdPeriph_Driver/src/stm32f4xx_ltdc.c ****   }
ARM GAS  /tmp/ccEhn3Qw.s 			page 46


 907:Drivers/STM32F4xx_StdPeriph_Driver/src/stm32f4xx_ltdc.c ****   else
 908:Drivers/STM32F4xx_StdPeriph_Driver/src/stm32f4xx_ltdc.c ****   {
 909:Drivers/STM32F4xx_StdPeriph_Driver/src/stm32f4xx_ltdc.c ****     temp = 1;
 1682              		.loc 1 909 10 view .LVU577
 1683 0040 0122     		movs	r2, #1
 1684              	.LVL102:
 1685              		.loc 1 909 10 view .LVU578
 1686 0042 0AE0     		b	.L87
 1687              	.L89:
 875:Drivers/STM32F4xx_StdPeriph_Driver/src/stm32f4xx_ltdc.c ****   }
 1688              		.loc 1 875 10 view .LVU579
 1689 0044 0322     		movs	r2, #3
 1690 0046 ECE7     		b	.L86
 1691              	.L90:
 882:Drivers/STM32F4xx_StdPeriph_Driver/src/stm32f4xx_ltdc.c ****   }
 1692              		.loc 1 882 10 view .LVU580
 1693 0048 0222     		movs	r2, #2
 1694 004a EAE7     		b	.L86
 1695              	.L91:
 1696 004c 0222     		movs	r2, #2
 1697 004e E8E7     		b	.L86
 1698              	.L92:
 1699 0050 0222     		movs	r2, #2
 1700 0052 E6E7     		b	.L86
 1701              	.LVL103:
 1702              	.L101:
 905:Drivers/STM32F4xx_StdPeriph_Driver/src/stm32f4xx_ltdc.c ****   }
 1703              		.loc 1 905 10 view .LVU581
 1704 0054 0222     		movs	r2, #2
 1705              	.LVL104:
 905:Drivers/STM32F4xx_StdPeriph_Driver/src/stm32f4xx_ltdc.c ****   }
 1706              		.loc 1 905 10 view .LVU582
 1707 0056 00E0     		b	.L87
 1708              	.LVL105:
 1709              	.L94:
 894:Drivers/STM32F4xx_StdPeriph_Driver/src/stm32f4xx_ltdc.c ****   }
 1710              		.loc 1 894 10 view .LVU583
 1711 0058 0422     		movs	r2, #4
 1712              	.LVL106:
 1713              	.L87:
 910:Drivers/STM32F4xx_StdPeriph_Driver/src/stm32f4xx_ltdc.c ****   }
 911:Drivers/STM32F4xx_StdPeriph_Driver/src/stm32f4xx_ltdc.c ****   
 912:Drivers/STM32F4xx_StdPeriph_Driver/src/stm32f4xx_ltdc.c ****   /* Reconfigures the color frame buffer pitch in byte */
 913:Drivers/STM32F4xx_StdPeriph_Driver/src/stm32f4xx_ltdc.c ****   LTDC_Layerx->CFBLR  = ((tempreg * temp) << 16) | ((tempreg * temp) + 3);  
 1714              		.loc 1 913 3 is_stmt 1 view .LVU584
 1715              		.loc 1 913 35 is_stmt 0 view .LVU585
 1716 005a 02FB03F3 		mul	r3, r2, r3
 1717              	.LVL107:
 1718              		.loc 1 913 70 view .LVU586
 1719 005e DA1C     		adds	r2, r3, #3
 1720              	.LVL108:
 1721              		.loc 1 913 50 view .LVU587
 1722 0060 42EA0343 		orr	r3, r2, r3, lsl #16
 1723              		.loc 1 913 23 view .LVU588
 1724 0064 C362     		str	r3, [r0, #44]
 914:Drivers/STM32F4xx_StdPeriph_Driver/src/stm32f4xx_ltdc.c **** 
 915:Drivers/STM32F4xx_StdPeriph_Driver/src/stm32f4xx_ltdc.c ****   /* Reconfigures the color frame buffer start address */
ARM GAS  /tmp/ccEhn3Qw.s 			page 47


 916:Drivers/STM32F4xx_StdPeriph_Driver/src/stm32f4xx_ltdc.c ****   LTDC_Layerx->PFCR = PixelFormat;
 1725              		.loc 1 916 3 is_stmt 1 view .LVU589
 1726              		.loc 1 916 21 is_stmt 0 view .LVU590
 1727 0066 0161     		str	r1, [r0, #16]
 917:Drivers/STM32F4xx_StdPeriph_Driver/src/stm32f4xx_ltdc.c ****     
 918:Drivers/STM32F4xx_StdPeriph_Driver/src/stm32f4xx_ltdc.c **** }
 1728              		.loc 1 918 1 view .LVU591
 1729 0068 7047     		bx	lr
 1730              	.LVL109:
 1731              	.L95:
 898:Drivers/STM32F4xx_StdPeriph_Driver/src/stm32f4xx_ltdc.c ****   }
 1732              		.loc 1 898 10 view .LVU592
 1733 006a 0322     		movs	r2, #3
 1734              	.LVL110:
 898:Drivers/STM32F4xx_StdPeriph_Driver/src/stm32f4xx_ltdc.c ****   }
 1735              		.loc 1 898 10 view .LVU593
 1736 006c F5E7     		b	.L87
 1737              	.LVL111:
 1738              	.L96:
 905:Drivers/STM32F4xx_StdPeriph_Driver/src/stm32f4xx_ltdc.c ****   }
 1739              		.loc 1 905 10 view .LVU594
 1740 006e 0222     		movs	r2, #2
 1741              	.LVL112:
 905:Drivers/STM32F4xx_StdPeriph_Driver/src/stm32f4xx_ltdc.c ****   }
 1742              		.loc 1 905 10 view .LVU595
 1743 0070 F3E7     		b	.L87
 1744              	.LVL113:
 1745              	.L97:
 905:Drivers/STM32F4xx_StdPeriph_Driver/src/stm32f4xx_ltdc.c ****   }
 1746              		.loc 1 905 10 view .LVU596
 1747 0072 0222     		movs	r2, #2
 1748              	.LVL114:
 905:Drivers/STM32F4xx_StdPeriph_Driver/src/stm32f4xx_ltdc.c ****   }
 1749              		.loc 1 905 10 view .LVU597
 1750 0074 F1E7     		b	.L87
 1751              	.LVL115:
 1752              	.L98:
 905:Drivers/STM32F4xx_StdPeriph_Driver/src/stm32f4xx_ltdc.c ****   }
 1753              		.loc 1 905 10 view .LVU598
 1754 0076 0222     		movs	r2, #2
 1755              	.LVL116:
 905:Drivers/STM32F4xx_StdPeriph_Driver/src/stm32f4xx_ltdc.c ****   }
 1756              		.loc 1 905 10 view .LVU599
 1757 0078 EFE7     		b	.L87
 1758              		.cfi_endproc
 1759              	.LFE147:
 1761              		.section	.text.LTDC_ITConfig,"ax",%progbits
 1762              		.align	1
 1763              		.global	LTDC_ITConfig
 1764              		.syntax unified
 1765              		.thumb
 1766              		.thumb_func
 1767              		.fpu fpv4-sp-d16
 1769              	LTDC_ITConfig:
 1770              	.LVL117:
 1771              	.LFB148:
 919:Drivers/STM32F4xx_StdPeriph_Driver/src/stm32f4xx_ltdc.c ****     
ARM GAS  /tmp/ccEhn3Qw.s 			page 48


 920:Drivers/STM32F4xx_StdPeriph_Driver/src/stm32f4xx_ltdc.c **** /**
 921:Drivers/STM32F4xx_StdPeriph_Driver/src/stm32f4xx_ltdc.c ****   * @}
 922:Drivers/STM32F4xx_StdPeriph_Driver/src/stm32f4xx_ltdc.c ****   */
 923:Drivers/STM32F4xx_StdPeriph_Driver/src/stm32f4xx_ltdc.c **** 
 924:Drivers/STM32F4xx_StdPeriph_Driver/src/stm32f4xx_ltdc.c **** /** @defgroup LTDC_Group2 Interrupts and flags management functions
 925:Drivers/STM32F4xx_StdPeriph_Driver/src/stm32f4xx_ltdc.c ****  *  @brief   Interrupts and flags management functions
 926:Drivers/STM32F4xx_StdPeriph_Driver/src/stm32f4xx_ltdc.c ****  *
 927:Drivers/STM32F4xx_StdPeriph_Driver/src/stm32f4xx_ltdc.c **** @verbatim
 928:Drivers/STM32F4xx_StdPeriph_Driver/src/stm32f4xx_ltdc.c ****  ===============================================================================
 929:Drivers/STM32F4xx_StdPeriph_Driver/src/stm32f4xx_ltdc.c ****             ##### Interrupts and flags management functions #####
 930:Drivers/STM32F4xx_StdPeriph_Driver/src/stm32f4xx_ltdc.c ****  ===============================================================================
 931:Drivers/STM32F4xx_StdPeriph_Driver/src/stm32f4xx_ltdc.c **** 
 932:Drivers/STM32F4xx_StdPeriph_Driver/src/stm32f4xx_ltdc.c ****     [..] This section provides functions allowing to configure the LTDC Interrupts 
 933:Drivers/STM32F4xx_StdPeriph_Driver/src/stm32f4xx_ltdc.c ****          and to get the status and clear flags and Interrupts pending bits.
 934:Drivers/STM32F4xx_StdPeriph_Driver/src/stm32f4xx_ltdc.c ****   
 935:Drivers/STM32F4xx_StdPeriph_Driver/src/stm32f4xx_ltdc.c ****     [..] The LTDC provides 4 Interrupts sources and 4 Flags
 936:Drivers/STM32F4xx_StdPeriph_Driver/src/stm32f4xx_ltdc.c ****     
 937:Drivers/STM32F4xx_StdPeriph_Driver/src/stm32f4xx_ltdc.c ****     *** Flags ***
 938:Drivers/STM32F4xx_StdPeriph_Driver/src/stm32f4xx_ltdc.c ****     =============
 939:Drivers/STM32F4xx_StdPeriph_Driver/src/stm32f4xx_ltdc.c ****     [..]
 940:Drivers/STM32F4xx_StdPeriph_Driver/src/stm32f4xx_ltdc.c ****       (+) LTDC_FLAG_LI:   Line Interrupt flag.
 941:Drivers/STM32F4xx_StdPeriph_Driver/src/stm32f4xx_ltdc.c ****       (+) LTDC_FLAG_FU:   FIFO Underrun Interrupt flag.
 942:Drivers/STM32F4xx_StdPeriph_Driver/src/stm32f4xx_ltdc.c ****       (+) LTDC_FLAG_TERR: Transfer Error Interrupt flag.
 943:Drivers/STM32F4xx_StdPeriph_Driver/src/stm32f4xx_ltdc.c ****       (+) LTDC_FLAG_RR:   Register Reload interrupt flag.
 944:Drivers/STM32F4xx_StdPeriph_Driver/src/stm32f4xx_ltdc.c ****       
 945:Drivers/STM32F4xx_StdPeriph_Driver/src/stm32f4xx_ltdc.c ****     *** Interrupts ***
 946:Drivers/STM32F4xx_StdPeriph_Driver/src/stm32f4xx_ltdc.c ****     ==================
 947:Drivers/STM32F4xx_StdPeriph_Driver/src/stm32f4xx_ltdc.c ****     [..]
 948:Drivers/STM32F4xx_StdPeriph_Driver/src/stm32f4xx_ltdc.c ****       (+) LTDC_IT_LI: Line Interrupt is generated when a programmed line 
 949:Drivers/STM32F4xx_StdPeriph_Driver/src/stm32f4xx_ltdc.c ****                       is reached. The line interrupt position is programmed in 
 950:Drivers/STM32F4xx_StdPeriph_Driver/src/stm32f4xx_ltdc.c ****                       the LTDC_LIPR register.
 951:Drivers/STM32F4xx_StdPeriph_Driver/src/stm32f4xx_ltdc.c ****       (+) LTDC_IT_FU: FIFO Underrun interrupt is generated when a pixel is requested 
 952:Drivers/STM32F4xx_StdPeriph_Driver/src/stm32f4xx_ltdc.c ****                       from an empty layer FIFO
 953:Drivers/STM32F4xx_StdPeriph_Driver/src/stm32f4xx_ltdc.c ****       (+) LTDC_IT_TERR: Transfer Error interrupt is generated when an AHB bus 
 954:Drivers/STM32F4xx_StdPeriph_Driver/src/stm32f4xx_ltdc.c ****                         error occurs during data transfer.
 955:Drivers/STM32F4xx_StdPeriph_Driver/src/stm32f4xx_ltdc.c ****       (+) LTDC_IT_RR: Register Reload interrupt is generated when the shadow 
 956:Drivers/STM32F4xx_StdPeriph_Driver/src/stm32f4xx_ltdc.c ****                       registers reload was performed during the vertical blanking 
 957:Drivers/STM32F4xx_StdPeriph_Driver/src/stm32f4xx_ltdc.c ****                       period.
 958:Drivers/STM32F4xx_StdPeriph_Driver/src/stm32f4xx_ltdc.c ****                
 959:Drivers/STM32F4xx_StdPeriph_Driver/src/stm32f4xx_ltdc.c **** @endverbatim
 960:Drivers/STM32F4xx_StdPeriph_Driver/src/stm32f4xx_ltdc.c ****   * @{
 961:Drivers/STM32F4xx_StdPeriph_Driver/src/stm32f4xx_ltdc.c ****   */
 962:Drivers/STM32F4xx_StdPeriph_Driver/src/stm32f4xx_ltdc.c **** 
 963:Drivers/STM32F4xx_StdPeriph_Driver/src/stm32f4xx_ltdc.c **** /**
 964:Drivers/STM32F4xx_StdPeriph_Driver/src/stm32f4xx_ltdc.c ****   * @brief  Enables or disables the specified LTDC's interrupts.
 965:Drivers/STM32F4xx_StdPeriph_Driver/src/stm32f4xx_ltdc.c ****   * @param  LTDC_IT: specifies the LTDC interrupts sources to be enabled or disabled.
 966:Drivers/STM32F4xx_StdPeriph_Driver/src/stm32f4xx_ltdc.c ****   *   This parameter can be any combination of the following values:
 967:Drivers/STM32F4xx_StdPeriph_Driver/src/stm32f4xx_ltdc.c ****   *     @arg LTDC_IT_LI: Line Interrupt Enable.
 968:Drivers/STM32F4xx_StdPeriph_Driver/src/stm32f4xx_ltdc.c ****   *     @arg LTDC_IT_FU: FIFO Underrun Interrupt Enable.
 969:Drivers/STM32F4xx_StdPeriph_Driver/src/stm32f4xx_ltdc.c ****   *     @arg LTDC_IT_TERR: Transfer Error Interrupt Enable.
 970:Drivers/STM32F4xx_StdPeriph_Driver/src/stm32f4xx_ltdc.c ****   *     @arg LTDC_IT_RR: Register Reload interrupt enable.  
 971:Drivers/STM32F4xx_StdPeriph_Driver/src/stm32f4xx_ltdc.c ****   * @param NewState: new state of the specified LTDC interrupts.
 972:Drivers/STM32F4xx_StdPeriph_Driver/src/stm32f4xx_ltdc.c ****   *   This parameter can be: ENABLE or DISABLE.
 973:Drivers/STM32F4xx_StdPeriph_Driver/src/stm32f4xx_ltdc.c ****   * @retval None
 974:Drivers/STM32F4xx_StdPeriph_Driver/src/stm32f4xx_ltdc.c ****   */
 975:Drivers/STM32F4xx_StdPeriph_Driver/src/stm32f4xx_ltdc.c **** void LTDC_ITConfig(uint32_t LTDC_IT, FunctionalState NewState)
 976:Drivers/STM32F4xx_StdPeriph_Driver/src/stm32f4xx_ltdc.c **** {
ARM GAS  /tmp/ccEhn3Qw.s 			page 49


 1772              		.loc 1 976 1 is_stmt 1 view -0
 1773              		.cfi_startproc
 1774              		@ args = 0, pretend = 0, frame = 0
 1775              		@ frame_needed = 0, uses_anonymous_args = 0
 1776              		@ link register save eliminated.
 977:Drivers/STM32F4xx_StdPeriph_Driver/src/stm32f4xx_ltdc.c ****   /* Check the parameters */
 978:Drivers/STM32F4xx_StdPeriph_Driver/src/stm32f4xx_ltdc.c ****   assert_param(IS_LTDC_IT(LTDC_IT));
 1777              		.loc 1 978 3 view .LVU601
 979:Drivers/STM32F4xx_StdPeriph_Driver/src/stm32f4xx_ltdc.c ****   assert_param(IS_FUNCTIONAL_STATE(NewState));
 1778              		.loc 1 979 3 view .LVU602
 980:Drivers/STM32F4xx_StdPeriph_Driver/src/stm32f4xx_ltdc.c **** 
 981:Drivers/STM32F4xx_StdPeriph_Driver/src/stm32f4xx_ltdc.c ****   if (NewState != DISABLE)
 1779              		.loc 1 981 3 view .LVU603
 1780              		.loc 1 981 6 is_stmt 0 view .LVU604
 1781 0000 21B1     		cbz	r1, .L103
 982:Drivers/STM32F4xx_StdPeriph_Driver/src/stm32f4xx_ltdc.c ****   {
 983:Drivers/STM32F4xx_StdPeriph_Driver/src/stm32f4xx_ltdc.c ****     LTDC->IER |= LTDC_IT;
 1782              		.loc 1 983 5 is_stmt 1 view .LVU605
 1783              		.loc 1 983 15 is_stmt 0 view .LVU606
 1784 0002 054A     		ldr	r2, .L105
 1785 0004 536B     		ldr	r3, [r2, #52]
 1786 0006 1843     		orrs	r0, r0, r3
 1787              	.LVL118:
 1788              		.loc 1 983 15 view .LVU607
 1789 0008 5063     		str	r0, [r2, #52]
 1790 000a 7047     		bx	lr
 1791              	.LVL119:
 1792              	.L103:
 984:Drivers/STM32F4xx_StdPeriph_Driver/src/stm32f4xx_ltdc.c ****   }
 985:Drivers/STM32F4xx_StdPeriph_Driver/src/stm32f4xx_ltdc.c ****   else
 986:Drivers/STM32F4xx_StdPeriph_Driver/src/stm32f4xx_ltdc.c ****   {
 987:Drivers/STM32F4xx_StdPeriph_Driver/src/stm32f4xx_ltdc.c ****     LTDC->IER &= (uint32_t)~LTDC_IT;
 1793              		.loc 1 987 5 is_stmt 1 view .LVU608
 1794              		.loc 1 987 15 is_stmt 0 view .LVU609
 1795 000c 024A     		ldr	r2, .L105
 1796 000e 536B     		ldr	r3, [r2, #52]
 1797 0010 23EA0000 		bic	r0, r3, r0
 1798              	.LVL120:
 1799              		.loc 1 987 15 view .LVU610
 1800 0014 5063     		str	r0, [r2, #52]
 988:Drivers/STM32F4xx_StdPeriph_Driver/src/stm32f4xx_ltdc.c ****   }
 989:Drivers/STM32F4xx_StdPeriph_Driver/src/stm32f4xx_ltdc.c **** }
 1801              		.loc 1 989 1 view .LVU611
 1802 0016 7047     		bx	lr
 1803              	.L106:
 1804              		.align	2
 1805              	.L105:
 1806 0018 00680140 		.word	1073833984
 1807              		.cfi_endproc
 1808              	.LFE148:
 1810              		.section	.text.LTDC_GetFlagStatus,"ax",%progbits
 1811              		.align	1
 1812              		.global	LTDC_GetFlagStatus
 1813              		.syntax unified
 1814              		.thumb
 1815              		.thumb_func
 1816              		.fpu fpv4-sp-d16
ARM GAS  /tmp/ccEhn3Qw.s 			page 50


 1818              	LTDC_GetFlagStatus:
 1819              	.LVL121:
 1820              	.LFB149:
 990:Drivers/STM32F4xx_StdPeriph_Driver/src/stm32f4xx_ltdc.c **** 
 991:Drivers/STM32F4xx_StdPeriph_Driver/src/stm32f4xx_ltdc.c **** /**
 992:Drivers/STM32F4xx_StdPeriph_Driver/src/stm32f4xx_ltdc.c ****   * @brief  Checks whether the specified LTDC's flag is set or not.
 993:Drivers/STM32F4xx_StdPeriph_Driver/src/stm32f4xx_ltdc.c ****   * @param  LTDC_FLAG: specifies the flag to check.
 994:Drivers/STM32F4xx_StdPeriph_Driver/src/stm32f4xx_ltdc.c ****   *   This parameter can be one of the following values:
 995:Drivers/STM32F4xx_StdPeriph_Driver/src/stm32f4xx_ltdc.c ****   *     @arg LTDC_FLAG_LI:    Line Interrupt flag.
 996:Drivers/STM32F4xx_StdPeriph_Driver/src/stm32f4xx_ltdc.c ****   *     @arg LTDC_FLAG_FU:   FIFO Underrun Interrupt flag.
 997:Drivers/STM32F4xx_StdPeriph_Driver/src/stm32f4xx_ltdc.c ****   *     @arg LTDC_FLAG_TERR: Transfer Error Interrupt flag.
 998:Drivers/STM32F4xx_StdPeriph_Driver/src/stm32f4xx_ltdc.c ****   *     @arg LTDC_FLAG_RR:   Register Reload interrupt flag.
 999:Drivers/STM32F4xx_StdPeriph_Driver/src/stm32f4xx_ltdc.c ****   * @retval The new state of LTDC_FLAG (SET or RESET).
1000:Drivers/STM32F4xx_StdPeriph_Driver/src/stm32f4xx_ltdc.c ****   */
1001:Drivers/STM32F4xx_StdPeriph_Driver/src/stm32f4xx_ltdc.c **** FlagStatus LTDC_GetFlagStatus(uint32_t LTDC_FLAG)
1002:Drivers/STM32F4xx_StdPeriph_Driver/src/stm32f4xx_ltdc.c **** {
 1821              		.loc 1 1002 1 is_stmt 1 view -0
 1822              		.cfi_startproc
 1823              		@ args = 0, pretend = 0, frame = 0
 1824              		@ frame_needed = 0, uses_anonymous_args = 0
 1825              		@ link register save eliminated.
1003:Drivers/STM32F4xx_StdPeriph_Driver/src/stm32f4xx_ltdc.c ****   FlagStatus bitstatus = RESET;
 1826              		.loc 1 1003 3 view .LVU613
1004:Drivers/STM32F4xx_StdPeriph_Driver/src/stm32f4xx_ltdc.c **** 
1005:Drivers/STM32F4xx_StdPeriph_Driver/src/stm32f4xx_ltdc.c ****   /* Check the parameters */
1006:Drivers/STM32F4xx_StdPeriph_Driver/src/stm32f4xx_ltdc.c ****   assert_param(IS_LTDC_FLAG(LTDC_FLAG));
 1827              		.loc 1 1006 3 view .LVU614
1007:Drivers/STM32F4xx_StdPeriph_Driver/src/stm32f4xx_ltdc.c **** 
1008:Drivers/STM32F4xx_StdPeriph_Driver/src/stm32f4xx_ltdc.c ****   if ((LTDC->ISR & LTDC_FLAG) != (uint32_t)RESET)
 1828              		.loc 1 1008 3 view .LVU615
 1829              		.loc 1 1008 12 is_stmt 0 view .LVU616
 1830 0000 034B     		ldr	r3, .L110
 1831 0002 9B6B     		ldr	r3, [r3, #56]
 1832              		.loc 1 1008 6 view .LVU617
 1833 0004 0342     		tst	r3, r0
 1834 0006 01D0     		beq	.L109
1009:Drivers/STM32F4xx_StdPeriph_Driver/src/stm32f4xx_ltdc.c ****   {
1010:Drivers/STM32F4xx_StdPeriph_Driver/src/stm32f4xx_ltdc.c ****     bitstatus = SET;
 1835              		.loc 1 1010 15 view .LVU618
 1836 0008 0120     		movs	r0, #1
 1837              	.LVL122:
 1838              		.loc 1 1010 15 view .LVU619
 1839 000a 7047     		bx	lr
 1840              	.LVL123:
 1841              	.L109:
1011:Drivers/STM32F4xx_StdPeriph_Driver/src/stm32f4xx_ltdc.c ****   }
1012:Drivers/STM32F4xx_StdPeriph_Driver/src/stm32f4xx_ltdc.c ****   else
1013:Drivers/STM32F4xx_StdPeriph_Driver/src/stm32f4xx_ltdc.c ****   {
1014:Drivers/STM32F4xx_StdPeriph_Driver/src/stm32f4xx_ltdc.c ****     bitstatus = RESET;
 1842              		.loc 1 1014 15 view .LVU620
 1843 000c 0020     		movs	r0, #0
 1844              	.LVL124:
1015:Drivers/STM32F4xx_StdPeriph_Driver/src/stm32f4xx_ltdc.c ****   }
1016:Drivers/STM32F4xx_StdPeriph_Driver/src/stm32f4xx_ltdc.c ****   return bitstatus;
 1845              		.loc 1 1016 3 is_stmt 1 view .LVU621
1017:Drivers/STM32F4xx_StdPeriph_Driver/src/stm32f4xx_ltdc.c **** }
 1846              		.loc 1 1017 1 is_stmt 0 view .LVU622
ARM GAS  /tmp/ccEhn3Qw.s 			page 51


 1847 000e 7047     		bx	lr
 1848              	.L111:
 1849              		.align	2
 1850              	.L110:
 1851 0010 00680140 		.word	1073833984
 1852              		.cfi_endproc
 1853              	.LFE149:
 1855              		.section	.text.LTDC_ClearFlag,"ax",%progbits
 1856              		.align	1
 1857              		.global	LTDC_ClearFlag
 1858              		.syntax unified
 1859              		.thumb
 1860              		.thumb_func
 1861              		.fpu fpv4-sp-d16
 1863              	LTDC_ClearFlag:
 1864              	.LVL125:
 1865              	.LFB150:
1018:Drivers/STM32F4xx_StdPeriph_Driver/src/stm32f4xx_ltdc.c **** 
1019:Drivers/STM32F4xx_StdPeriph_Driver/src/stm32f4xx_ltdc.c **** /**
1020:Drivers/STM32F4xx_StdPeriph_Driver/src/stm32f4xx_ltdc.c ****   * @brief  Clears the LTDC's pending flags.
1021:Drivers/STM32F4xx_StdPeriph_Driver/src/stm32f4xx_ltdc.c ****   * @param  LTDC_FLAG: specifies the flag to clear.
1022:Drivers/STM32F4xx_StdPeriph_Driver/src/stm32f4xx_ltdc.c ****   *   This parameter can be any combination of the following values:
1023:Drivers/STM32F4xx_StdPeriph_Driver/src/stm32f4xx_ltdc.c ****   *     @arg LTDC_FLAG_LI:    Line Interrupt flag.
1024:Drivers/STM32F4xx_StdPeriph_Driver/src/stm32f4xx_ltdc.c ****   *     @arg LTDC_FLAG_FU:   FIFO Underrun Interrupt flag.
1025:Drivers/STM32F4xx_StdPeriph_Driver/src/stm32f4xx_ltdc.c ****   *     @arg LTDC_FLAG_TERR: Transfer Error Interrupt flag.
1026:Drivers/STM32F4xx_StdPeriph_Driver/src/stm32f4xx_ltdc.c ****   *     @arg LTDC_FLAG_RR:   Register Reload interrupt flag.  
1027:Drivers/STM32F4xx_StdPeriph_Driver/src/stm32f4xx_ltdc.c ****   * @retval None
1028:Drivers/STM32F4xx_StdPeriph_Driver/src/stm32f4xx_ltdc.c ****   */
1029:Drivers/STM32F4xx_StdPeriph_Driver/src/stm32f4xx_ltdc.c **** void LTDC_ClearFlag(uint32_t LTDC_FLAG)
1030:Drivers/STM32F4xx_StdPeriph_Driver/src/stm32f4xx_ltdc.c **** {
 1866              		.loc 1 1030 1 is_stmt 1 view -0
 1867              		.cfi_startproc
 1868              		@ args = 0, pretend = 0, frame = 0
 1869              		@ frame_needed = 0, uses_anonymous_args = 0
 1870              		@ link register save eliminated.
1031:Drivers/STM32F4xx_StdPeriph_Driver/src/stm32f4xx_ltdc.c ****   /* Check the parameters */
1032:Drivers/STM32F4xx_StdPeriph_Driver/src/stm32f4xx_ltdc.c ****   assert_param(IS_LTDC_FLAG(LTDC_FLAG));
 1871              		.loc 1 1032 3 view .LVU624
1033:Drivers/STM32F4xx_StdPeriph_Driver/src/stm32f4xx_ltdc.c **** 
1034:Drivers/STM32F4xx_StdPeriph_Driver/src/stm32f4xx_ltdc.c ****   /* Clear the corresponding LTDC flag */
1035:Drivers/STM32F4xx_StdPeriph_Driver/src/stm32f4xx_ltdc.c ****   LTDC->ICR = (uint32_t)LTDC_FLAG;
 1872              		.loc 1 1035 3 view .LVU625
 1873              		.loc 1 1035 13 is_stmt 0 view .LVU626
 1874 0000 014B     		ldr	r3, .L113
 1875 0002 D863     		str	r0, [r3, #60]
1036:Drivers/STM32F4xx_StdPeriph_Driver/src/stm32f4xx_ltdc.c **** }
 1876              		.loc 1 1036 1 view .LVU627
 1877 0004 7047     		bx	lr
 1878              	.L114:
 1879 0006 00BF     		.align	2
 1880              	.L113:
 1881 0008 00680140 		.word	1073833984
 1882              		.cfi_endproc
 1883              	.LFE150:
 1885              		.section	.text.LTDC_GetITStatus,"ax",%progbits
 1886              		.align	1
 1887              		.global	LTDC_GetITStatus
ARM GAS  /tmp/ccEhn3Qw.s 			page 52


 1888              		.syntax unified
 1889              		.thumb
 1890              		.thumb_func
 1891              		.fpu fpv4-sp-d16
 1893              	LTDC_GetITStatus:
 1894              	.LVL126:
 1895              	.LFB151:
1037:Drivers/STM32F4xx_StdPeriph_Driver/src/stm32f4xx_ltdc.c **** 
1038:Drivers/STM32F4xx_StdPeriph_Driver/src/stm32f4xx_ltdc.c **** /**
1039:Drivers/STM32F4xx_StdPeriph_Driver/src/stm32f4xx_ltdc.c ****   * @brief  Checks whether the specified LTDC's interrupt has occurred or not.
1040:Drivers/STM32F4xx_StdPeriph_Driver/src/stm32f4xx_ltdc.c ****   * @param  LTDC_IT: specifies the LTDC interrupts sources to check.
1041:Drivers/STM32F4xx_StdPeriph_Driver/src/stm32f4xx_ltdc.c ****   *   This parameter can be one of the following values:
1042:Drivers/STM32F4xx_StdPeriph_Driver/src/stm32f4xx_ltdc.c ****   *     @arg LTDC_IT_LI:    Line Interrupt Enable.
1043:Drivers/STM32F4xx_StdPeriph_Driver/src/stm32f4xx_ltdc.c ****   *     @arg LTDC_IT_FU:   FIFO Underrun Interrupt Enable.
1044:Drivers/STM32F4xx_StdPeriph_Driver/src/stm32f4xx_ltdc.c ****   *     @arg LTDC_IT_TERR: Transfer Error Interrupt Enable.
1045:Drivers/STM32F4xx_StdPeriph_Driver/src/stm32f4xx_ltdc.c ****   *     @arg LTDC_IT_RR:   Register Reload interrupt Enable.
1046:Drivers/STM32F4xx_StdPeriph_Driver/src/stm32f4xx_ltdc.c ****   * @retval The new state of the LTDC_IT (SET or RESET).
1047:Drivers/STM32F4xx_StdPeriph_Driver/src/stm32f4xx_ltdc.c ****   */
1048:Drivers/STM32F4xx_StdPeriph_Driver/src/stm32f4xx_ltdc.c **** ITStatus LTDC_GetITStatus(uint32_t LTDC_IT)
1049:Drivers/STM32F4xx_StdPeriph_Driver/src/stm32f4xx_ltdc.c **** {
 1896              		.loc 1 1049 1 is_stmt 1 view -0
 1897              		.cfi_startproc
 1898              		@ args = 0, pretend = 0, frame = 0
 1899              		@ frame_needed = 0, uses_anonymous_args = 0
 1900              		@ link register save eliminated.
 1901              		.loc 1 1049 1 is_stmt 0 view .LVU629
 1902 0000 0346     		mov	r3, r0
1050:Drivers/STM32F4xx_StdPeriph_Driver/src/stm32f4xx_ltdc.c ****   ITStatus bitstatus = RESET;
 1903              		.loc 1 1050 3 is_stmt 1 view .LVU630
 1904              	.LVL127:
1051:Drivers/STM32F4xx_StdPeriph_Driver/src/stm32f4xx_ltdc.c **** 
1052:Drivers/STM32F4xx_StdPeriph_Driver/src/stm32f4xx_ltdc.c ****   /* Check the parameters */
1053:Drivers/STM32F4xx_StdPeriph_Driver/src/stm32f4xx_ltdc.c ****   assert_param(IS_LTDC_IT(LTDC_IT));
 1905              		.loc 1 1053 3 view .LVU631
1054:Drivers/STM32F4xx_StdPeriph_Driver/src/stm32f4xx_ltdc.c **** 
1055:Drivers/STM32F4xx_StdPeriph_Driver/src/stm32f4xx_ltdc.c ****   if ((LTDC->ISR & LTDC_IT) != (uint32_t)RESET)
 1906              		.loc 1 1055 3 view .LVU632
 1907              		.loc 1 1055 12 is_stmt 0 view .LVU633
 1908 0002 064A     		ldr	r2, .L120
 1909 0004 926B     		ldr	r2, [r2, #56]
 1910              		.loc 1 1055 6 view .LVU634
 1911 0006 0242     		tst	r2, r0
 1912 0008 06D0     		beq	.L118
1056:Drivers/STM32F4xx_StdPeriph_Driver/src/stm32f4xx_ltdc.c ****   {
1057:Drivers/STM32F4xx_StdPeriph_Driver/src/stm32f4xx_ltdc.c ****     bitstatus = SET;
 1913              		.loc 1 1057 15 view .LVU635
 1914 000a 0120     		movs	r0, #1
 1915              	.LVL128:
 1916              	.L116:
1058:Drivers/STM32F4xx_StdPeriph_Driver/src/stm32f4xx_ltdc.c ****   }
1059:Drivers/STM32F4xx_StdPeriph_Driver/src/stm32f4xx_ltdc.c ****   else
1060:Drivers/STM32F4xx_StdPeriph_Driver/src/stm32f4xx_ltdc.c ****   {
1061:Drivers/STM32F4xx_StdPeriph_Driver/src/stm32f4xx_ltdc.c ****     bitstatus = RESET;
1062:Drivers/STM32F4xx_StdPeriph_Driver/src/stm32f4xx_ltdc.c ****   }
1063:Drivers/STM32F4xx_StdPeriph_Driver/src/stm32f4xx_ltdc.c **** 
1064:Drivers/STM32F4xx_StdPeriph_Driver/src/stm32f4xx_ltdc.c ****   if (((LTDC->IER & LTDC_IT) != (uint32_t)RESET) && (bitstatus != (uint32_t)RESET))
 1917              		.loc 1 1064 3 is_stmt 1 view .LVU636
ARM GAS  /tmp/ccEhn3Qw.s 			page 53


 1918              		.loc 1 1064 13 is_stmt 0 view .LVU637
 1919 000c 034A     		ldr	r2, .L120
 1920 000e 526B     		ldr	r2, [r2, #52]
 1921              		.loc 1 1064 6 view .LVU638
 1922 0010 1A42     		tst	r2, r3
 1923 0012 00D1     		bne	.L117
1065:Drivers/STM32F4xx_StdPeriph_Driver/src/stm32f4xx_ltdc.c ****   {
1066:Drivers/STM32F4xx_StdPeriph_Driver/src/stm32f4xx_ltdc.c ****     bitstatus = SET;
1067:Drivers/STM32F4xx_StdPeriph_Driver/src/stm32f4xx_ltdc.c ****   }
1068:Drivers/STM32F4xx_StdPeriph_Driver/src/stm32f4xx_ltdc.c ****   else
1069:Drivers/STM32F4xx_StdPeriph_Driver/src/stm32f4xx_ltdc.c ****   {
1070:Drivers/STM32F4xx_StdPeriph_Driver/src/stm32f4xx_ltdc.c ****     bitstatus = RESET;
 1924              		.loc 1 1070 15 view .LVU639
 1925 0014 0020     		movs	r0, #0
 1926              	.LVL129:
 1927              	.L117:
1071:Drivers/STM32F4xx_StdPeriph_Driver/src/stm32f4xx_ltdc.c ****   }
1072:Drivers/STM32F4xx_StdPeriph_Driver/src/stm32f4xx_ltdc.c ****   return bitstatus;
 1928              		.loc 1 1072 3 is_stmt 1 view .LVU640
1073:Drivers/STM32F4xx_StdPeriph_Driver/src/stm32f4xx_ltdc.c **** }
 1929              		.loc 1 1073 1 is_stmt 0 view .LVU641
 1930 0016 7047     		bx	lr
 1931              	.LVL130:
 1932              	.L118:
1061:Drivers/STM32F4xx_StdPeriph_Driver/src/stm32f4xx_ltdc.c ****   }
 1933              		.loc 1 1061 15 view .LVU642
 1934 0018 0020     		movs	r0, #0
 1935              	.LVL131:
1061:Drivers/STM32F4xx_StdPeriph_Driver/src/stm32f4xx_ltdc.c ****   }
 1936              		.loc 1 1061 15 view .LVU643
 1937 001a F7E7     		b	.L116
 1938              	.L121:
 1939              		.align	2
 1940              	.L120:
 1941 001c 00680140 		.word	1073833984
 1942              		.cfi_endproc
 1943              	.LFE151:
 1945              		.section	.text.LTDC_ClearITPendingBit,"ax",%progbits
 1946              		.align	1
 1947              		.global	LTDC_ClearITPendingBit
 1948              		.syntax unified
 1949              		.thumb
 1950              		.thumb_func
 1951              		.fpu fpv4-sp-d16
 1953              	LTDC_ClearITPendingBit:
 1954              	.LVL132:
 1955              	.LFB152:
1074:Drivers/STM32F4xx_StdPeriph_Driver/src/stm32f4xx_ltdc.c **** 
1075:Drivers/STM32F4xx_StdPeriph_Driver/src/stm32f4xx_ltdc.c **** 
1076:Drivers/STM32F4xx_StdPeriph_Driver/src/stm32f4xx_ltdc.c **** /**
1077:Drivers/STM32F4xx_StdPeriph_Driver/src/stm32f4xx_ltdc.c ****   * @brief  Clears the LTDC's interrupt pending bits.
1078:Drivers/STM32F4xx_StdPeriph_Driver/src/stm32f4xx_ltdc.c ****   * @param  LTDC_IT: specifies the interrupt pending bit to clear.
1079:Drivers/STM32F4xx_StdPeriph_Driver/src/stm32f4xx_ltdc.c ****   *   This parameter can be any combination of the following values:
1080:Drivers/STM32F4xx_StdPeriph_Driver/src/stm32f4xx_ltdc.c ****   *     @arg LTDC_IT_LIE:    Line Interrupt.
1081:Drivers/STM32F4xx_StdPeriph_Driver/src/stm32f4xx_ltdc.c ****   *     @arg LTDC_IT_FUIE:   FIFO Underrun Interrupt.
1082:Drivers/STM32F4xx_StdPeriph_Driver/src/stm32f4xx_ltdc.c ****   *     @arg LTDC_IT_TERRIE: Transfer Error Interrupt.
1083:Drivers/STM32F4xx_StdPeriph_Driver/src/stm32f4xx_ltdc.c ****   *     @arg LTDC_IT_RRIE:   Register Reload interrupt.
ARM GAS  /tmp/ccEhn3Qw.s 			page 54


1084:Drivers/STM32F4xx_StdPeriph_Driver/src/stm32f4xx_ltdc.c ****   * @retval None
1085:Drivers/STM32F4xx_StdPeriph_Driver/src/stm32f4xx_ltdc.c ****   */
1086:Drivers/STM32F4xx_StdPeriph_Driver/src/stm32f4xx_ltdc.c **** void LTDC_ClearITPendingBit(uint32_t LTDC_IT)
1087:Drivers/STM32F4xx_StdPeriph_Driver/src/stm32f4xx_ltdc.c **** {
 1956              		.loc 1 1087 1 is_stmt 1 view -0
 1957              		.cfi_startproc
 1958              		@ args = 0, pretend = 0, frame = 0
 1959              		@ frame_needed = 0, uses_anonymous_args = 0
 1960              		@ link register save eliminated.
1088:Drivers/STM32F4xx_StdPeriph_Driver/src/stm32f4xx_ltdc.c ****   /* Check the parameters */
1089:Drivers/STM32F4xx_StdPeriph_Driver/src/stm32f4xx_ltdc.c ****   assert_param(IS_LTDC_IT(LTDC_IT));
 1961              		.loc 1 1089 3 view .LVU645
1090:Drivers/STM32F4xx_StdPeriph_Driver/src/stm32f4xx_ltdc.c **** 
1091:Drivers/STM32F4xx_StdPeriph_Driver/src/stm32f4xx_ltdc.c ****   /* Clear the corresponding LTDC Interrupt */
1092:Drivers/STM32F4xx_StdPeriph_Driver/src/stm32f4xx_ltdc.c ****   LTDC->ICR = (uint32_t)LTDC_IT;
 1962              		.loc 1 1092 3 view .LVU646
 1963              		.loc 1 1092 13 is_stmt 0 view .LVU647
 1964 0000 014B     		ldr	r3, .L123
 1965 0002 D863     		str	r0, [r3, #60]
1093:Drivers/STM32F4xx_StdPeriph_Driver/src/stm32f4xx_ltdc.c **** }
 1966              		.loc 1 1093 1 view .LVU648
 1967 0004 7047     		bx	lr
 1968              	.L124:
 1969 0006 00BF     		.align	2
 1970              	.L123:
 1971 0008 00680140 		.word	1073833984
 1972              		.cfi_endproc
 1973              	.LFE152:
 1975              		.text
 1976              	.Letext0:
 1977              		.file 2 "/usr/lib/gcc/arm-none-eabi/10.3.1/include/stdint.h"
 1978              		.file 3 "Drivers/CMSIS/Device/ST/STM32F4xx/Include/stm32f4xx.h"
 1979              		.file 4 "Drivers/STM32F4xx_StdPeriph_Driver/inc/stm32f4xx_ltdc.h"
 1980              		.file 5 "Drivers/STM32F4xx_StdPeriph_Driver/inc/stm32f4xx_rcc.h"
ARM GAS  /tmp/ccEhn3Qw.s 			page 55

