ARM GAS  /tmp/cceUylz3.s 			page 1


   1              		.cpu cortex-m4
   2              		.eabi_attribute 27, 1
   3              		.eabi_attribute 28, 1
   4              		.eabi_attribute 20, 1
   5              		.eabi_attribute 21, 1
   6              		.eabi_attribute 23, 3
   7              		.eabi_attribute 24, 1
   8              		.eabi_attribute 25, 1
   9              		.eabi_attribute 26, 1
  10              		.eabi_attribute 30, 1
  11              		.eabi_attribute 34, 1
  12              		.eabi_attribute 18, 4
  13              		.file	"stm32f4xx_sdio.c"
  14              		.text
  15              	.Ltext0:
  16              		.cfi_sections	.debug_frame
  17              		.section	.text.SDIO_DeInit,"ax",%progbits
  18              		.align	1
  19              		.global	SDIO_DeInit
  20              		.arch armv7e-m
  21              		.syntax unified
  22              		.thumb
  23              		.thumb_func
  24              		.fpu fpv4-sp-d16
  26              	SDIO_DeInit:
  27              	.LFB123:
  28              		.file 1 "Drivers/STM32F4xx_StdPeriph_Driver/src/stm32f4xx_sdio.c"
   1:Drivers/STM32F4xx_StdPeriph_Driver/src/stm32f4xx_sdio.c **** /**
   2:Drivers/STM32F4xx_StdPeriph_Driver/src/stm32f4xx_sdio.c ****   ******************************************************************************
   3:Drivers/STM32F4xx_StdPeriph_Driver/src/stm32f4xx_sdio.c ****   * @file    stm32f4xx_sdio.c
   4:Drivers/STM32F4xx_StdPeriph_Driver/src/stm32f4xx_sdio.c ****   * @author  MCD Application Team
   5:Drivers/STM32F4xx_StdPeriph_Driver/src/stm32f4xx_sdio.c ****   * @version V1.6.1
   6:Drivers/STM32F4xx_StdPeriph_Driver/src/stm32f4xx_sdio.c ****   * @date    21-October-2015
   7:Drivers/STM32F4xx_StdPeriph_Driver/src/stm32f4xx_sdio.c ****   * @brief   This file provides firmware functions to manage the following 
   8:Drivers/STM32F4xx_StdPeriph_Driver/src/stm32f4xx_sdio.c ****   *          functionalities of the Secure digital input/output interface (SDIO) 
   9:Drivers/STM32F4xx_StdPeriph_Driver/src/stm32f4xx_sdio.c ****   *          peripheral:
  10:Drivers/STM32F4xx_StdPeriph_Driver/src/stm32f4xx_sdio.c ****   *           + Initialization and Configuration
  11:Drivers/STM32F4xx_StdPeriph_Driver/src/stm32f4xx_sdio.c ****   *           + Command path state machine (CPSM) management
  12:Drivers/STM32F4xx_StdPeriph_Driver/src/stm32f4xx_sdio.c ****   *           + Data path state machine (DPSM) management
  13:Drivers/STM32F4xx_StdPeriph_Driver/src/stm32f4xx_sdio.c ****   *           + SDIO IO Cards mode management
  14:Drivers/STM32F4xx_StdPeriph_Driver/src/stm32f4xx_sdio.c ****   *           + CE-ATA mode management
  15:Drivers/STM32F4xx_StdPeriph_Driver/src/stm32f4xx_sdio.c ****   *           + DMA transfers management
  16:Drivers/STM32F4xx_StdPeriph_Driver/src/stm32f4xx_sdio.c ****   *           + Interrupts and flags management
  17:Drivers/STM32F4xx_StdPeriph_Driver/src/stm32f4xx_sdio.c ****   *
  18:Drivers/STM32F4xx_StdPeriph_Driver/src/stm32f4xx_sdio.c **** @verbatim
  19:Drivers/STM32F4xx_StdPeriph_Driver/src/stm32f4xx_sdio.c **** 
  20:Drivers/STM32F4xx_StdPeriph_Driver/src/stm32f4xx_sdio.c ****  ===================================================================
  21:Drivers/STM32F4xx_StdPeriph_Driver/src/stm32f4xx_sdio.c ****                  ##### How to use this driver #####
  22:Drivers/STM32F4xx_StdPeriph_Driver/src/stm32f4xx_sdio.c ****  ===================================================================
  23:Drivers/STM32F4xx_StdPeriph_Driver/src/stm32f4xx_sdio.c ****  [..]
  24:Drivers/STM32F4xx_StdPeriph_Driver/src/stm32f4xx_sdio.c ****    (#) The SDIO clock (SDIOCLK = 48 MHz) is coming from a specific output of PLL 
  25:Drivers/STM32F4xx_StdPeriph_Driver/src/stm32f4xx_sdio.c ****        (PLL48CLK). Before to start working with SDIO peripheral make sure that the
  26:Drivers/STM32F4xx_StdPeriph_Driver/src/stm32f4xx_sdio.c ****        PLL is well configured.
  27:Drivers/STM32F4xx_StdPeriph_Driver/src/stm32f4xx_sdio.c ****        The SDIO peripheral uses two clock signals:
  28:Drivers/STM32F4xx_StdPeriph_Driver/src/stm32f4xx_sdio.c ****        (++) SDIO adapter clock (SDIOCLK = 48 MHz)
  29:Drivers/STM32F4xx_StdPeriph_Driver/src/stm32f4xx_sdio.c ****        (++) APB2 bus clock (PCLK2)
  30:Drivers/STM32F4xx_StdPeriph_Driver/src/stm32f4xx_sdio.c ****        
ARM GAS  /tmp/cceUylz3.s 			page 2


  31:Drivers/STM32F4xx_StdPeriph_Driver/src/stm32f4xx_sdio.c ****        -@@- PCLK2 and SDIO_CK clock frequencies must respect the following condition:
  32:Drivers/STM32F4xx_StdPeriph_Driver/src/stm32f4xx_sdio.c ****            Frequency(PCLK2) >= (3 / 8 x Frequency(SDIO_CK))
  33:Drivers/STM32F4xx_StdPeriph_Driver/src/stm32f4xx_sdio.c ****   
  34:Drivers/STM32F4xx_StdPeriph_Driver/src/stm32f4xx_sdio.c ****    (#) Enable peripheral clock using RCC_APB2PeriphClockCmd(RCC_APB2Periph_SDIO, ENABLE).
  35:Drivers/STM32F4xx_StdPeriph_Driver/src/stm32f4xx_sdio.c ****   
  36:Drivers/STM32F4xx_StdPeriph_Driver/src/stm32f4xx_sdio.c ****    (#) According to the SDIO mode, enable the GPIO clocks using 
  37:Drivers/STM32F4xx_StdPeriph_Driver/src/stm32f4xx_sdio.c ****        RCC_AHB1PeriphClockCmd() function. 
  38:Drivers/STM32F4xx_StdPeriph_Driver/src/stm32f4xx_sdio.c ****        The I/O can be one of the following configurations:
  39:Drivers/STM32F4xx_StdPeriph_Driver/src/stm32f4xx_sdio.c ****        (++) 1-bit data length: SDIO_CMD, SDIO_CK and D0.
  40:Drivers/STM32F4xx_StdPeriph_Driver/src/stm32f4xx_sdio.c ****        (++) 4-bit data length: SDIO_CMD, SDIO_CK and D[3:0].
  41:Drivers/STM32F4xx_StdPeriph_Driver/src/stm32f4xx_sdio.c ****        (++) 8-bit data length: SDIO_CMD, SDIO_CK and D[7:0].      
  42:Drivers/STM32F4xx_StdPeriph_Driver/src/stm32f4xx_sdio.c ****   
  43:Drivers/STM32F4xx_StdPeriph_Driver/src/stm32f4xx_sdio.c ****    (#) Peripheral alternate function: 
  44:Drivers/STM32F4xx_StdPeriph_Driver/src/stm32f4xx_sdio.c ****        (++) Connect the pin to the desired peripherals' Alternate Function (AF) 
  45:Drivers/STM32F4xx_StdPeriph_Driver/src/stm32f4xx_sdio.c ****            using GPIO_PinAFConfig() function
  46:Drivers/STM32F4xx_StdPeriph_Driver/src/stm32f4xx_sdio.c ****        (++) Configure the desired pin in alternate function by: 
  47:Drivers/STM32F4xx_StdPeriph_Driver/src/stm32f4xx_sdio.c ****            GPIO_InitStruct->GPIO_Mode = GPIO_Mode_AF
  48:Drivers/STM32F4xx_StdPeriph_Driver/src/stm32f4xx_sdio.c ****        (++) Select the type, pull-up/pull-down and output speed via GPIO_PuPd, 
  49:Drivers/STM32F4xx_StdPeriph_Driver/src/stm32f4xx_sdio.c ****            GPIO_OType and GPIO_Speed members
  50:Drivers/STM32F4xx_StdPeriph_Driver/src/stm32f4xx_sdio.c ****        (++) Call GPIO_Init() function
  51:Drivers/STM32F4xx_StdPeriph_Driver/src/stm32f4xx_sdio.c ****   
  52:Drivers/STM32F4xx_StdPeriph_Driver/src/stm32f4xx_sdio.c ****    (#) Program the Clock Edge, Clock Bypass, Clock Power Save, Bus Wide, 
  53:Drivers/STM32F4xx_StdPeriph_Driver/src/stm32f4xx_sdio.c ****        hardware, flow control and the Clock Divider using the SDIO_Init()
  54:Drivers/STM32F4xx_StdPeriph_Driver/src/stm32f4xx_sdio.c ****        function.
  55:Drivers/STM32F4xx_StdPeriph_Driver/src/stm32f4xx_sdio.c ****   
  56:Drivers/STM32F4xx_StdPeriph_Driver/src/stm32f4xx_sdio.c ****    (#) Enable the Power ON State using the SDIO_SetPowerState(SDIO_PowerState_ON) 
  57:Drivers/STM32F4xx_StdPeriph_Driver/src/stm32f4xx_sdio.c ****        function.
  58:Drivers/STM32F4xx_StdPeriph_Driver/src/stm32f4xx_sdio.c ****                 
  59:Drivers/STM32F4xx_StdPeriph_Driver/src/stm32f4xx_sdio.c ****    (#) Enable the clock using the SDIO_ClockCmd() function.
  60:Drivers/STM32F4xx_StdPeriph_Driver/src/stm32f4xx_sdio.c ****   
  61:Drivers/STM32F4xx_StdPeriph_Driver/src/stm32f4xx_sdio.c ****    (#) Enable the NVIC and the corresponding interrupt using the function 
  62:Drivers/STM32F4xx_StdPeriph_Driver/src/stm32f4xx_sdio.c ****        SDIO_ITConfig() if you need to use interrupt mode. 
  63:Drivers/STM32F4xx_StdPeriph_Driver/src/stm32f4xx_sdio.c ****   
  64:Drivers/STM32F4xx_StdPeriph_Driver/src/stm32f4xx_sdio.c ****    (#) When using the DMA mode 
  65:Drivers/STM32F4xx_StdPeriph_Driver/src/stm32f4xx_sdio.c ****        (++) Configure the DMA using DMA_Init() function
  66:Drivers/STM32F4xx_StdPeriph_Driver/src/stm32f4xx_sdio.c ****        (++) Active the needed channel Request using SDIO_DMACmd() function
  67:Drivers/STM32F4xx_StdPeriph_Driver/src/stm32f4xx_sdio.c ****   
  68:Drivers/STM32F4xx_StdPeriph_Driver/src/stm32f4xx_sdio.c ****    (#) Enable the DMA using the DMA_Cmd() function, when using DMA mode. 
  69:Drivers/STM32F4xx_StdPeriph_Driver/src/stm32f4xx_sdio.c ****   
  70:Drivers/STM32F4xx_StdPeriph_Driver/src/stm32f4xx_sdio.c ****    (#) To control the CPSM (Command Path State Machine) and send 
  71:Drivers/STM32F4xx_StdPeriph_Driver/src/stm32f4xx_sdio.c ****        commands to the card use the SDIO_SendCommand(), 
  72:Drivers/STM32F4xx_StdPeriph_Driver/src/stm32f4xx_sdio.c ****        SDIO_GetCommandResponse() and SDIO_GetResponse() functions. First, user has
  73:Drivers/STM32F4xx_StdPeriph_Driver/src/stm32f4xx_sdio.c ****        to fill the command structure (pointer to SDIO_CmdInitTypeDef) according 
  74:Drivers/STM32F4xx_StdPeriph_Driver/src/stm32f4xx_sdio.c ****        to the selected command to be sent.
  75:Drivers/STM32F4xx_StdPeriph_Driver/src/stm32f4xx_sdio.c ****        The parameters that should be filled are:
  76:Drivers/STM32F4xx_StdPeriph_Driver/src/stm32f4xx_sdio.c ****        (++) Command Argument
  77:Drivers/STM32F4xx_StdPeriph_Driver/src/stm32f4xx_sdio.c ****        (++) Command Index
  78:Drivers/STM32F4xx_StdPeriph_Driver/src/stm32f4xx_sdio.c ****        (++) Command Response type
  79:Drivers/STM32F4xx_StdPeriph_Driver/src/stm32f4xx_sdio.c ****        (++) Command Wait
  80:Drivers/STM32F4xx_StdPeriph_Driver/src/stm32f4xx_sdio.c ****        (++) CPSM Status (Enable or Disable).
  81:Drivers/STM32F4xx_StdPeriph_Driver/src/stm32f4xx_sdio.c ****   
  82:Drivers/STM32F4xx_StdPeriph_Driver/src/stm32f4xx_sdio.c ****        -@@- To check if the command is well received, read the SDIO_CMDRESP
  83:Drivers/STM32F4xx_StdPeriph_Driver/src/stm32f4xx_sdio.c ****            register using the SDIO_GetCommandResponse().
  84:Drivers/STM32F4xx_StdPeriph_Driver/src/stm32f4xx_sdio.c ****            The SDIO responses registers (SDIO_RESP1 to SDIO_RESP2), use the
  85:Drivers/STM32F4xx_StdPeriph_Driver/src/stm32f4xx_sdio.c ****            SDIO_GetResponse() function.
  86:Drivers/STM32F4xx_StdPeriph_Driver/src/stm32f4xx_sdio.c ****   
  87:Drivers/STM32F4xx_StdPeriph_Driver/src/stm32f4xx_sdio.c ****    (#) To control the DPSM (Data Path State Machine) and send/receive 
ARM GAS  /tmp/cceUylz3.s 			page 3


  88:Drivers/STM32F4xx_StdPeriph_Driver/src/stm32f4xx_sdio.c ****        data to/from the card use the SDIO_DataConfig(), SDIO_GetDataCounter(), 
  89:Drivers/STM32F4xx_StdPeriph_Driver/src/stm32f4xx_sdio.c ****        SDIO_ReadData(), SDIO_WriteData() and SDIO_GetFIFOCount() functions.
  90:Drivers/STM32F4xx_StdPeriph_Driver/src/stm32f4xx_sdio.c ****   
  91:Drivers/STM32F4xx_StdPeriph_Driver/src/stm32f4xx_sdio.c ****  *** Read Operations ***
  92:Drivers/STM32F4xx_StdPeriph_Driver/src/stm32f4xx_sdio.c ****  =======================
  93:Drivers/STM32F4xx_StdPeriph_Driver/src/stm32f4xx_sdio.c ****  [..]
  94:Drivers/STM32F4xx_StdPeriph_Driver/src/stm32f4xx_sdio.c ****    (#) First, user has to fill the data structure (pointer to
  95:Drivers/STM32F4xx_StdPeriph_Driver/src/stm32f4xx_sdio.c ****        SDIO_DataInitTypeDef) according to the selected data type to be received.
  96:Drivers/STM32F4xx_StdPeriph_Driver/src/stm32f4xx_sdio.c ****        The parameters that should be filled are:
  97:Drivers/STM32F4xx_StdPeriph_Driver/src/stm32f4xx_sdio.c ****        (++) Data TimeOut
  98:Drivers/STM32F4xx_StdPeriph_Driver/src/stm32f4xx_sdio.c ****        (++) Data Length
  99:Drivers/STM32F4xx_StdPeriph_Driver/src/stm32f4xx_sdio.c ****        (++) Data Block size
 100:Drivers/STM32F4xx_StdPeriph_Driver/src/stm32f4xx_sdio.c ****        (++) Data Transfer direction: should be from card (To SDIO)
 101:Drivers/STM32F4xx_StdPeriph_Driver/src/stm32f4xx_sdio.c ****        (++) Data Transfer mode
 102:Drivers/STM32F4xx_StdPeriph_Driver/src/stm32f4xx_sdio.c ****        (++) DPSM Status (Enable or Disable)
 103:Drivers/STM32F4xx_StdPeriph_Driver/src/stm32f4xx_sdio.c ****                                      
 104:Drivers/STM32F4xx_StdPeriph_Driver/src/stm32f4xx_sdio.c ****    (#) Configure the SDIO resources to receive the data from the card
 105:Drivers/STM32F4xx_StdPeriph_Driver/src/stm32f4xx_sdio.c ****        according to selected transfer mode (Refer to Step 8, 9 and 10).
 106:Drivers/STM32F4xx_StdPeriph_Driver/src/stm32f4xx_sdio.c ****   
 107:Drivers/STM32F4xx_StdPeriph_Driver/src/stm32f4xx_sdio.c ****    (#)  Send the selected Read command (refer to step 11).
 108:Drivers/STM32F4xx_StdPeriph_Driver/src/stm32f4xx_sdio.c ****                     
 109:Drivers/STM32F4xx_StdPeriph_Driver/src/stm32f4xx_sdio.c ****    (#) Use the SDIO flags/interrupts to check the transfer status.
 110:Drivers/STM32F4xx_StdPeriph_Driver/src/stm32f4xx_sdio.c ****   
 111:Drivers/STM32F4xx_StdPeriph_Driver/src/stm32f4xx_sdio.c ****  *** Write Operations ***
 112:Drivers/STM32F4xx_StdPeriph_Driver/src/stm32f4xx_sdio.c ****  ========================
 113:Drivers/STM32F4xx_StdPeriph_Driver/src/stm32f4xx_sdio.c ****  [..]
 114:Drivers/STM32F4xx_StdPeriph_Driver/src/stm32f4xx_sdio.c ****    (#) First, user has to fill the data structure (pointer to
 115:Drivers/STM32F4xx_StdPeriph_Driver/src/stm32f4xx_sdio.c ****        SDIO_DataInitTypeDef) according to the selected data type to be received.
 116:Drivers/STM32F4xx_StdPeriph_Driver/src/stm32f4xx_sdio.c ****        The parameters that should be filled are:
 117:Drivers/STM32F4xx_StdPeriph_Driver/src/stm32f4xx_sdio.c ****        (++) Data TimeOut
 118:Drivers/STM32F4xx_StdPeriph_Driver/src/stm32f4xx_sdio.c ****        (++) Data Length
 119:Drivers/STM32F4xx_StdPeriph_Driver/src/stm32f4xx_sdio.c ****        (++) Data Block size
 120:Drivers/STM32F4xx_StdPeriph_Driver/src/stm32f4xx_sdio.c ****        (++) Data Transfer direction:  should be to card (To CARD)
 121:Drivers/STM32F4xx_StdPeriph_Driver/src/stm32f4xx_sdio.c ****        (++) Data Transfer mode
 122:Drivers/STM32F4xx_StdPeriph_Driver/src/stm32f4xx_sdio.c ****        (++) DPSM Status (Enable or Disable)
 123:Drivers/STM32F4xx_StdPeriph_Driver/src/stm32f4xx_sdio.c ****   
 124:Drivers/STM32F4xx_StdPeriph_Driver/src/stm32f4xx_sdio.c ****    (#) Configure the SDIO resources to send the data to the card according to 
 125:Drivers/STM32F4xx_StdPeriph_Driver/src/stm32f4xx_sdio.c ****        selected transfer mode (Refer to Step 8, 9 and 10).
 126:Drivers/STM32F4xx_StdPeriph_Driver/src/stm32f4xx_sdio.c ****                      
 127:Drivers/STM32F4xx_StdPeriph_Driver/src/stm32f4xx_sdio.c ****    (#) Send the selected Write command (refer to step 11).
 128:Drivers/STM32F4xx_StdPeriph_Driver/src/stm32f4xx_sdio.c ****                     
 129:Drivers/STM32F4xx_StdPeriph_Driver/src/stm32f4xx_sdio.c ****    (#) Use the SDIO flags/interrupts to check the transfer status.
 130:Drivers/STM32F4xx_StdPeriph_Driver/src/stm32f4xx_sdio.c ****   
 131:Drivers/STM32F4xx_StdPeriph_Driver/src/stm32f4xx_sdio.c ****   
 132:Drivers/STM32F4xx_StdPeriph_Driver/src/stm32f4xx_sdio.c **** @endverbatim
 133:Drivers/STM32F4xx_StdPeriph_Driver/src/stm32f4xx_sdio.c ****   *
 134:Drivers/STM32F4xx_StdPeriph_Driver/src/stm32f4xx_sdio.c ****   *
 135:Drivers/STM32F4xx_StdPeriph_Driver/src/stm32f4xx_sdio.c ****   ******************************************************************************
 136:Drivers/STM32F4xx_StdPeriph_Driver/src/stm32f4xx_sdio.c ****   * @attention
 137:Drivers/STM32F4xx_StdPeriph_Driver/src/stm32f4xx_sdio.c ****   *
 138:Drivers/STM32F4xx_StdPeriph_Driver/src/stm32f4xx_sdio.c ****   * <h2><center>&copy; COPYRIGHT 2015 STMicroelectronics</center></h2>
 139:Drivers/STM32F4xx_StdPeriph_Driver/src/stm32f4xx_sdio.c ****   *
 140:Drivers/STM32F4xx_StdPeriph_Driver/src/stm32f4xx_sdio.c ****   * Licensed under MCD-ST Liberty SW License Agreement V2, (the "License");
 141:Drivers/STM32F4xx_StdPeriph_Driver/src/stm32f4xx_sdio.c ****   * You may not use this file except in compliance with the License.
 142:Drivers/STM32F4xx_StdPeriph_Driver/src/stm32f4xx_sdio.c ****   * You may obtain a copy of the License at:
 143:Drivers/STM32F4xx_StdPeriph_Driver/src/stm32f4xx_sdio.c ****   *
 144:Drivers/STM32F4xx_StdPeriph_Driver/src/stm32f4xx_sdio.c ****   *        http://www.st.com/software_license_agreement_liberty_v2
ARM GAS  /tmp/cceUylz3.s 			page 4


 145:Drivers/STM32F4xx_StdPeriph_Driver/src/stm32f4xx_sdio.c ****   *
 146:Drivers/STM32F4xx_StdPeriph_Driver/src/stm32f4xx_sdio.c ****   * Unless required by applicable law or agreed to in writing, software 
 147:Drivers/STM32F4xx_StdPeriph_Driver/src/stm32f4xx_sdio.c ****   * distributed under the License is distributed on an "AS IS" BASIS, 
 148:Drivers/STM32F4xx_StdPeriph_Driver/src/stm32f4xx_sdio.c ****   * WITHOUT WARRANTIES OR CONDITIONS OF ANY KIND, either express or implied.
 149:Drivers/STM32F4xx_StdPeriph_Driver/src/stm32f4xx_sdio.c ****   * See the License for the specific language governing permissions and
 150:Drivers/STM32F4xx_StdPeriph_Driver/src/stm32f4xx_sdio.c ****   * limitations under the License.
 151:Drivers/STM32F4xx_StdPeriph_Driver/src/stm32f4xx_sdio.c ****   *
 152:Drivers/STM32F4xx_StdPeriph_Driver/src/stm32f4xx_sdio.c ****   ******************************************************************************
 153:Drivers/STM32F4xx_StdPeriph_Driver/src/stm32f4xx_sdio.c ****   */
 154:Drivers/STM32F4xx_StdPeriph_Driver/src/stm32f4xx_sdio.c **** 
 155:Drivers/STM32F4xx_StdPeriph_Driver/src/stm32f4xx_sdio.c **** /* Includes ------------------------------------------------------------------*/
 156:Drivers/STM32F4xx_StdPeriph_Driver/src/stm32f4xx_sdio.c **** #include "stm32f4xx_sdio.h"
 157:Drivers/STM32F4xx_StdPeriph_Driver/src/stm32f4xx_sdio.c **** #include "stm32f4xx_rcc.h"
 158:Drivers/STM32F4xx_StdPeriph_Driver/src/stm32f4xx_sdio.c **** 
 159:Drivers/STM32F4xx_StdPeriph_Driver/src/stm32f4xx_sdio.c **** /** @addtogroup STM32F4xx_StdPeriph_Driver
 160:Drivers/STM32F4xx_StdPeriph_Driver/src/stm32f4xx_sdio.c ****   * @{
 161:Drivers/STM32F4xx_StdPeriph_Driver/src/stm32f4xx_sdio.c ****   */
 162:Drivers/STM32F4xx_StdPeriph_Driver/src/stm32f4xx_sdio.c **** 
 163:Drivers/STM32F4xx_StdPeriph_Driver/src/stm32f4xx_sdio.c **** /** @defgroup SDIO 
 164:Drivers/STM32F4xx_StdPeriph_Driver/src/stm32f4xx_sdio.c ****   * @brief SDIO driver modules
 165:Drivers/STM32F4xx_StdPeriph_Driver/src/stm32f4xx_sdio.c ****   * @{
 166:Drivers/STM32F4xx_StdPeriph_Driver/src/stm32f4xx_sdio.c ****   */ 
 167:Drivers/STM32F4xx_StdPeriph_Driver/src/stm32f4xx_sdio.c **** 
 168:Drivers/STM32F4xx_StdPeriph_Driver/src/stm32f4xx_sdio.c **** /* Private typedef -----------------------------------------------------------*/
 169:Drivers/STM32F4xx_StdPeriph_Driver/src/stm32f4xx_sdio.c **** /* Private define ------------------------------------------------------------*/
 170:Drivers/STM32F4xx_StdPeriph_Driver/src/stm32f4xx_sdio.c **** 
 171:Drivers/STM32F4xx_StdPeriph_Driver/src/stm32f4xx_sdio.c **** /* ------------ SDIO registers bit address in the alias region ----------- */
 172:Drivers/STM32F4xx_StdPeriph_Driver/src/stm32f4xx_sdio.c **** #define SDIO_OFFSET                (SDIO_BASE - PERIPH_BASE)
 173:Drivers/STM32F4xx_StdPeriph_Driver/src/stm32f4xx_sdio.c **** 
 174:Drivers/STM32F4xx_StdPeriph_Driver/src/stm32f4xx_sdio.c **** /* --- CLKCR Register ---*/
 175:Drivers/STM32F4xx_StdPeriph_Driver/src/stm32f4xx_sdio.c **** /* Alias word address of CLKEN bit */
 176:Drivers/STM32F4xx_StdPeriph_Driver/src/stm32f4xx_sdio.c **** #define CLKCR_OFFSET              (SDIO_OFFSET + 0x04)
 177:Drivers/STM32F4xx_StdPeriph_Driver/src/stm32f4xx_sdio.c **** #define CLKEN_BitNumber           0x08
 178:Drivers/STM32F4xx_StdPeriph_Driver/src/stm32f4xx_sdio.c **** #define CLKCR_CLKEN_BB            (PERIPH_BB_BASE + (CLKCR_OFFSET * 32) + (CLKEN_BitNumber * 4))
 179:Drivers/STM32F4xx_StdPeriph_Driver/src/stm32f4xx_sdio.c **** 
 180:Drivers/STM32F4xx_StdPeriph_Driver/src/stm32f4xx_sdio.c **** /* --- CMD Register ---*/
 181:Drivers/STM32F4xx_StdPeriph_Driver/src/stm32f4xx_sdio.c **** /* Alias word address of SDIOSUSPEND bit */
 182:Drivers/STM32F4xx_StdPeriph_Driver/src/stm32f4xx_sdio.c **** #define CMD_OFFSET                (SDIO_OFFSET + 0x0C)
 183:Drivers/STM32F4xx_StdPeriph_Driver/src/stm32f4xx_sdio.c **** #define SDIOSUSPEND_BitNumber     0x0B
 184:Drivers/STM32F4xx_StdPeriph_Driver/src/stm32f4xx_sdio.c **** #define CMD_SDIOSUSPEND_BB        (PERIPH_BB_BASE + (CMD_OFFSET * 32) + (SDIOSUSPEND_BitNumber * 4)
 185:Drivers/STM32F4xx_StdPeriph_Driver/src/stm32f4xx_sdio.c **** 
 186:Drivers/STM32F4xx_StdPeriph_Driver/src/stm32f4xx_sdio.c **** /* Alias word address of ENCMDCOMPL bit */
 187:Drivers/STM32F4xx_StdPeriph_Driver/src/stm32f4xx_sdio.c **** #define ENCMDCOMPL_BitNumber      0x0C
 188:Drivers/STM32F4xx_StdPeriph_Driver/src/stm32f4xx_sdio.c **** #define CMD_ENCMDCOMPL_BB         (PERIPH_BB_BASE + (CMD_OFFSET * 32) + (ENCMDCOMPL_BitNumber * 4))
 189:Drivers/STM32F4xx_StdPeriph_Driver/src/stm32f4xx_sdio.c **** 
 190:Drivers/STM32F4xx_StdPeriph_Driver/src/stm32f4xx_sdio.c **** /* Alias word address of NIEN bit */
 191:Drivers/STM32F4xx_StdPeriph_Driver/src/stm32f4xx_sdio.c **** #define NIEN_BitNumber            0x0D
 192:Drivers/STM32F4xx_StdPeriph_Driver/src/stm32f4xx_sdio.c **** #define CMD_NIEN_BB               (PERIPH_BB_BASE + (CMD_OFFSET * 32) + (NIEN_BitNumber * 4))
 193:Drivers/STM32F4xx_StdPeriph_Driver/src/stm32f4xx_sdio.c **** 
 194:Drivers/STM32F4xx_StdPeriph_Driver/src/stm32f4xx_sdio.c **** /* Alias word address of ATACMD bit */
 195:Drivers/STM32F4xx_StdPeriph_Driver/src/stm32f4xx_sdio.c **** #define ATACMD_BitNumber          0x0E
 196:Drivers/STM32F4xx_StdPeriph_Driver/src/stm32f4xx_sdio.c **** #define CMD_ATACMD_BB             (PERIPH_BB_BASE + (CMD_OFFSET * 32) + (ATACMD_BitNumber * 4))
 197:Drivers/STM32F4xx_StdPeriph_Driver/src/stm32f4xx_sdio.c **** 
 198:Drivers/STM32F4xx_StdPeriph_Driver/src/stm32f4xx_sdio.c **** /* --- DCTRL Register ---*/
 199:Drivers/STM32F4xx_StdPeriph_Driver/src/stm32f4xx_sdio.c **** /* Alias word address of DMAEN bit */
 200:Drivers/STM32F4xx_StdPeriph_Driver/src/stm32f4xx_sdio.c **** #define DCTRL_OFFSET              (SDIO_OFFSET + 0x2C)
 201:Drivers/STM32F4xx_StdPeriph_Driver/src/stm32f4xx_sdio.c **** #define DMAEN_BitNumber           0x03
ARM GAS  /tmp/cceUylz3.s 			page 5


 202:Drivers/STM32F4xx_StdPeriph_Driver/src/stm32f4xx_sdio.c **** #define DCTRL_DMAEN_BB            (PERIPH_BB_BASE + (DCTRL_OFFSET * 32) + (DMAEN_BitNumber * 4))
 203:Drivers/STM32F4xx_StdPeriph_Driver/src/stm32f4xx_sdio.c **** 
 204:Drivers/STM32F4xx_StdPeriph_Driver/src/stm32f4xx_sdio.c **** /* Alias word address of RWSTART bit */
 205:Drivers/STM32F4xx_StdPeriph_Driver/src/stm32f4xx_sdio.c **** #define RWSTART_BitNumber         0x08
 206:Drivers/STM32F4xx_StdPeriph_Driver/src/stm32f4xx_sdio.c **** #define DCTRL_RWSTART_BB          (PERIPH_BB_BASE + (DCTRL_OFFSET * 32) + (RWSTART_BitNumber * 4))
 207:Drivers/STM32F4xx_StdPeriph_Driver/src/stm32f4xx_sdio.c **** 
 208:Drivers/STM32F4xx_StdPeriph_Driver/src/stm32f4xx_sdio.c **** /* Alias word address of RWSTOP bit */
 209:Drivers/STM32F4xx_StdPeriph_Driver/src/stm32f4xx_sdio.c **** #define RWSTOP_BitNumber          0x09
 210:Drivers/STM32F4xx_StdPeriph_Driver/src/stm32f4xx_sdio.c **** #define DCTRL_RWSTOP_BB           (PERIPH_BB_BASE + (DCTRL_OFFSET * 32) + (RWSTOP_BitNumber * 4))
 211:Drivers/STM32F4xx_StdPeriph_Driver/src/stm32f4xx_sdio.c **** 
 212:Drivers/STM32F4xx_StdPeriph_Driver/src/stm32f4xx_sdio.c **** /* Alias word address of RWMOD bit */
 213:Drivers/STM32F4xx_StdPeriph_Driver/src/stm32f4xx_sdio.c **** #define RWMOD_BitNumber           0x0A
 214:Drivers/STM32F4xx_StdPeriph_Driver/src/stm32f4xx_sdio.c **** #define DCTRL_RWMOD_BB            (PERIPH_BB_BASE + (DCTRL_OFFSET * 32) + (RWMOD_BitNumber * 4))
 215:Drivers/STM32F4xx_StdPeriph_Driver/src/stm32f4xx_sdio.c **** 
 216:Drivers/STM32F4xx_StdPeriph_Driver/src/stm32f4xx_sdio.c **** /* Alias word address of SDIOEN bit */
 217:Drivers/STM32F4xx_StdPeriph_Driver/src/stm32f4xx_sdio.c **** #define SDIOEN_BitNumber          0x0B
 218:Drivers/STM32F4xx_StdPeriph_Driver/src/stm32f4xx_sdio.c **** #define DCTRL_SDIOEN_BB           (PERIPH_BB_BASE + (DCTRL_OFFSET * 32) + (SDIOEN_BitNumber * 4))
 219:Drivers/STM32F4xx_StdPeriph_Driver/src/stm32f4xx_sdio.c **** 
 220:Drivers/STM32F4xx_StdPeriph_Driver/src/stm32f4xx_sdio.c **** /* ---------------------- SDIO registers bit mask ------------------------ */
 221:Drivers/STM32F4xx_StdPeriph_Driver/src/stm32f4xx_sdio.c **** /* --- CLKCR Register ---*/
 222:Drivers/STM32F4xx_StdPeriph_Driver/src/stm32f4xx_sdio.c **** /* CLKCR register clear mask */
 223:Drivers/STM32F4xx_StdPeriph_Driver/src/stm32f4xx_sdio.c **** #define CLKCR_CLEAR_MASK         ((uint32_t)0xFFFF8100) 
 224:Drivers/STM32F4xx_StdPeriph_Driver/src/stm32f4xx_sdio.c **** 
 225:Drivers/STM32F4xx_StdPeriph_Driver/src/stm32f4xx_sdio.c **** /* --- PWRCTRL Register ---*/
 226:Drivers/STM32F4xx_StdPeriph_Driver/src/stm32f4xx_sdio.c **** /* SDIO PWRCTRL Mask */
 227:Drivers/STM32F4xx_StdPeriph_Driver/src/stm32f4xx_sdio.c **** #define PWR_PWRCTRL_MASK         ((uint32_t)0xFFFFFFFC)
 228:Drivers/STM32F4xx_StdPeriph_Driver/src/stm32f4xx_sdio.c **** 
 229:Drivers/STM32F4xx_StdPeriph_Driver/src/stm32f4xx_sdio.c **** /* --- DCTRL Register ---*/
 230:Drivers/STM32F4xx_StdPeriph_Driver/src/stm32f4xx_sdio.c **** /* SDIO DCTRL Clear Mask */
 231:Drivers/STM32F4xx_StdPeriph_Driver/src/stm32f4xx_sdio.c **** #define DCTRL_CLEAR_MASK         ((uint32_t)0xFFFFFF08)
 232:Drivers/STM32F4xx_StdPeriph_Driver/src/stm32f4xx_sdio.c **** 
 233:Drivers/STM32F4xx_StdPeriph_Driver/src/stm32f4xx_sdio.c **** /* --- CMD Register ---*/
 234:Drivers/STM32F4xx_StdPeriph_Driver/src/stm32f4xx_sdio.c **** /* CMD Register clear mask */
 235:Drivers/STM32F4xx_StdPeriph_Driver/src/stm32f4xx_sdio.c **** #define CMD_CLEAR_MASK           ((uint32_t)0xFFFFF800)
 236:Drivers/STM32F4xx_StdPeriph_Driver/src/stm32f4xx_sdio.c **** 
 237:Drivers/STM32F4xx_StdPeriph_Driver/src/stm32f4xx_sdio.c **** /* SDIO RESP Registers Address */
 238:Drivers/STM32F4xx_StdPeriph_Driver/src/stm32f4xx_sdio.c **** #define SDIO_RESP_ADDR           ((uint32_t)(SDIO_BASE + 0x14))
 239:Drivers/STM32F4xx_StdPeriph_Driver/src/stm32f4xx_sdio.c **** 
 240:Drivers/STM32F4xx_StdPeriph_Driver/src/stm32f4xx_sdio.c **** /* Private macro -------------------------------------------------------------*/
 241:Drivers/STM32F4xx_StdPeriph_Driver/src/stm32f4xx_sdio.c **** /* Private variables ---------------------------------------------------------*/
 242:Drivers/STM32F4xx_StdPeriph_Driver/src/stm32f4xx_sdio.c **** /* Private function prototypes -----------------------------------------------*/
 243:Drivers/STM32F4xx_StdPeriph_Driver/src/stm32f4xx_sdio.c **** /* Private functions ---------------------------------------------------------*/
 244:Drivers/STM32F4xx_StdPeriph_Driver/src/stm32f4xx_sdio.c **** 
 245:Drivers/STM32F4xx_StdPeriph_Driver/src/stm32f4xx_sdio.c **** /** @defgroup SDIO_Private_Functions
 246:Drivers/STM32F4xx_StdPeriph_Driver/src/stm32f4xx_sdio.c ****   * @{
 247:Drivers/STM32F4xx_StdPeriph_Driver/src/stm32f4xx_sdio.c ****   */
 248:Drivers/STM32F4xx_StdPeriph_Driver/src/stm32f4xx_sdio.c **** 
 249:Drivers/STM32F4xx_StdPeriph_Driver/src/stm32f4xx_sdio.c **** /** @defgroup SDIO_Group1 Initialization and Configuration functions
 250:Drivers/STM32F4xx_StdPeriph_Driver/src/stm32f4xx_sdio.c ****  *  @brief   Initialization and Configuration functions 
 251:Drivers/STM32F4xx_StdPeriph_Driver/src/stm32f4xx_sdio.c ****  *
 252:Drivers/STM32F4xx_StdPeriph_Driver/src/stm32f4xx_sdio.c **** @verbatim   
 253:Drivers/STM32F4xx_StdPeriph_Driver/src/stm32f4xx_sdio.c ****  ===============================================================================
 254:Drivers/STM32F4xx_StdPeriph_Driver/src/stm32f4xx_sdio.c ****               ##### Initialization and Configuration functions #####
 255:Drivers/STM32F4xx_StdPeriph_Driver/src/stm32f4xx_sdio.c ****  ===============================================================================
 256:Drivers/STM32F4xx_StdPeriph_Driver/src/stm32f4xx_sdio.c **** 
 257:Drivers/STM32F4xx_StdPeriph_Driver/src/stm32f4xx_sdio.c **** @endverbatim
 258:Drivers/STM32F4xx_StdPeriph_Driver/src/stm32f4xx_sdio.c ****   * @{
ARM GAS  /tmp/cceUylz3.s 			page 6


 259:Drivers/STM32F4xx_StdPeriph_Driver/src/stm32f4xx_sdio.c ****   */
 260:Drivers/STM32F4xx_StdPeriph_Driver/src/stm32f4xx_sdio.c **** 
 261:Drivers/STM32F4xx_StdPeriph_Driver/src/stm32f4xx_sdio.c **** /**
 262:Drivers/STM32F4xx_StdPeriph_Driver/src/stm32f4xx_sdio.c ****   * @brief  Deinitializes the SDIO peripheral registers to their default reset values.
 263:Drivers/STM32F4xx_StdPeriph_Driver/src/stm32f4xx_sdio.c ****   * @param  None
 264:Drivers/STM32F4xx_StdPeriph_Driver/src/stm32f4xx_sdio.c ****   * @retval None
 265:Drivers/STM32F4xx_StdPeriph_Driver/src/stm32f4xx_sdio.c ****   */
 266:Drivers/STM32F4xx_StdPeriph_Driver/src/stm32f4xx_sdio.c **** void SDIO_DeInit(void)
 267:Drivers/STM32F4xx_StdPeriph_Driver/src/stm32f4xx_sdio.c **** {
  29              		.loc 1 267 1 view -0
  30              		.cfi_startproc
  31              		@ args = 0, pretend = 0, frame = 0
  32              		@ frame_needed = 0, uses_anonymous_args = 0
  33 0000 08B5     		push	{r3, lr}
  34              		.cfi_def_cfa_offset 8
  35              		.cfi_offset 3, -8
  36              		.cfi_offset 14, -4
 268:Drivers/STM32F4xx_StdPeriph_Driver/src/stm32f4xx_sdio.c ****   RCC_APB2PeriphResetCmd(RCC_APB2Periph_SDIO, ENABLE);
  37              		.loc 1 268 3 view .LVU1
  38 0002 0121     		movs	r1, #1
  39 0004 4FF40060 		mov	r0, #2048
  40 0008 FFF7FEFF 		bl	RCC_APB2PeriphResetCmd
  41              	.LVL0:
 269:Drivers/STM32F4xx_StdPeriph_Driver/src/stm32f4xx_sdio.c ****   RCC_APB2PeriphResetCmd(RCC_APB2Periph_SDIO, DISABLE);
  42              		.loc 1 269 3 view .LVU2
  43 000c 0021     		movs	r1, #0
  44 000e 4FF40060 		mov	r0, #2048
  45 0012 FFF7FEFF 		bl	RCC_APB2PeriphResetCmd
  46              	.LVL1:
 270:Drivers/STM32F4xx_StdPeriph_Driver/src/stm32f4xx_sdio.c **** }
  47              		.loc 1 270 1 is_stmt 0 view .LVU3
  48 0016 08BD     		pop	{r3, pc}
  49              		.cfi_endproc
  50              	.LFE123:
  52              		.section	.text.SDIO_Init,"ax",%progbits
  53              		.align	1
  54              		.global	SDIO_Init
  55              		.syntax unified
  56              		.thumb
  57              		.thumb_func
  58              		.fpu fpv4-sp-d16
  60              	SDIO_Init:
  61              	.LVL2:
  62              	.LFB124:
 271:Drivers/STM32F4xx_StdPeriph_Driver/src/stm32f4xx_sdio.c **** 
 272:Drivers/STM32F4xx_StdPeriph_Driver/src/stm32f4xx_sdio.c **** /**
 273:Drivers/STM32F4xx_StdPeriph_Driver/src/stm32f4xx_sdio.c ****   * @brief  Initializes the SDIO peripheral according to the specified 
 274:Drivers/STM32F4xx_StdPeriph_Driver/src/stm32f4xx_sdio.c ****   *         parameters in the SDIO_InitStruct.
 275:Drivers/STM32F4xx_StdPeriph_Driver/src/stm32f4xx_sdio.c ****   * @param  SDIO_InitStruct : pointer to a SDIO_InitTypeDef structure 
 276:Drivers/STM32F4xx_StdPeriph_Driver/src/stm32f4xx_sdio.c ****   *         that contains the configuration information for the SDIO peripheral.
 277:Drivers/STM32F4xx_StdPeriph_Driver/src/stm32f4xx_sdio.c ****   * @retval None
 278:Drivers/STM32F4xx_StdPeriph_Driver/src/stm32f4xx_sdio.c ****   */
 279:Drivers/STM32F4xx_StdPeriph_Driver/src/stm32f4xx_sdio.c **** void SDIO_Init(SDIO_InitTypeDef* SDIO_InitStruct)
 280:Drivers/STM32F4xx_StdPeriph_Driver/src/stm32f4xx_sdio.c **** {
  63              		.loc 1 280 1 is_stmt 1 view -0
  64              		.cfi_startproc
  65              		@ args = 0, pretend = 0, frame = 0
ARM GAS  /tmp/cceUylz3.s 			page 7


  66              		@ frame_needed = 0, uses_anonymous_args = 0
  67              		@ link register save eliminated.
  68              		.loc 1 280 1 is_stmt 0 view .LVU5
  69 0000 10B4     		push	{r4}
  70              		.cfi_def_cfa_offset 4
  71              		.cfi_offset 4, -4
 281:Drivers/STM32F4xx_StdPeriph_Driver/src/stm32f4xx_sdio.c ****   uint32_t tmpreg = 0;
  72              		.loc 1 281 3 is_stmt 1 view .LVU6
  73              	.LVL3:
 282:Drivers/STM32F4xx_StdPeriph_Driver/src/stm32f4xx_sdio.c ****     
 283:Drivers/STM32F4xx_StdPeriph_Driver/src/stm32f4xx_sdio.c ****   /* Check the parameters */
 284:Drivers/STM32F4xx_StdPeriph_Driver/src/stm32f4xx_sdio.c ****   assert_param(IS_SDIO_CLOCK_EDGE(SDIO_InitStruct->SDIO_ClockEdge));
  74              		.loc 1 284 3 view .LVU7
 285:Drivers/STM32F4xx_StdPeriph_Driver/src/stm32f4xx_sdio.c ****   assert_param(IS_SDIO_CLOCK_BYPASS(SDIO_InitStruct->SDIO_ClockBypass));
  75              		.loc 1 285 3 view .LVU8
 286:Drivers/STM32F4xx_StdPeriph_Driver/src/stm32f4xx_sdio.c ****   assert_param(IS_SDIO_CLOCK_POWER_SAVE(SDIO_InitStruct->SDIO_ClockPowerSave));
  76              		.loc 1 286 3 view .LVU9
 287:Drivers/STM32F4xx_StdPeriph_Driver/src/stm32f4xx_sdio.c ****   assert_param(IS_SDIO_BUS_WIDE(SDIO_InitStruct->SDIO_BusWide));
  77              		.loc 1 287 3 view .LVU10
 288:Drivers/STM32F4xx_StdPeriph_Driver/src/stm32f4xx_sdio.c ****   assert_param(IS_SDIO_HARDWARE_FLOW_CONTROL(SDIO_InitStruct->SDIO_HardwareFlowControl)); 
  78              		.loc 1 288 3 view .LVU11
 289:Drivers/STM32F4xx_StdPeriph_Driver/src/stm32f4xx_sdio.c ****    
 290:Drivers/STM32F4xx_StdPeriph_Driver/src/stm32f4xx_sdio.c **** /*---------------------------- SDIO CLKCR Configuration ------------------------*/  
 291:Drivers/STM32F4xx_StdPeriph_Driver/src/stm32f4xx_sdio.c ****   /* Get the SDIO CLKCR value */
 292:Drivers/STM32F4xx_StdPeriph_Driver/src/stm32f4xx_sdio.c ****   tmpreg = SDIO->CLKCR;
  79              		.loc 1 292 3 view .LVU12
  80              		.loc 1 292 10 is_stmt 0 view .LVU13
  81 0002 0B49     		ldr	r1, .L5
  82 0004 4A68     		ldr	r2, [r1, #4]
  83              	.LVL4:
 293:Drivers/STM32F4xx_StdPeriph_Driver/src/stm32f4xx_sdio.c ****   
 294:Drivers/STM32F4xx_StdPeriph_Driver/src/stm32f4xx_sdio.c ****   /* Clear CLKDIV, PWRSAV, BYPASS, WIDBUS, NEGEDGE, HWFC_EN bits */
 295:Drivers/STM32F4xx_StdPeriph_Driver/src/stm32f4xx_sdio.c ****   tmpreg &= CLKCR_CLEAR_MASK;
  84              		.loc 1 295 3 is_stmt 1 view .LVU14
  85              		.loc 1 295 10 is_stmt 0 view .LVU15
  86 0006 22F4FD42 		bic	r2, r2, #32384
  87              	.LVL5:
  88              		.loc 1 295 10 view .LVU16
  89 000a 22F07F02 		bic	r2, r2, #127
  90              	.LVL6:
 296:Drivers/STM32F4xx_StdPeriph_Driver/src/stm32f4xx_sdio.c ****   
 297:Drivers/STM32F4xx_StdPeriph_Driver/src/stm32f4xx_sdio.c ****   /* Set CLKDIV bits according to SDIO_ClockDiv value */
 298:Drivers/STM32F4xx_StdPeriph_Driver/src/stm32f4xx_sdio.c ****   /* Set PWRSAV bit according to SDIO_ClockPowerSave value */
 299:Drivers/STM32F4xx_StdPeriph_Driver/src/stm32f4xx_sdio.c ****   /* Set BYPASS bit according to SDIO_ClockBypass value */
 300:Drivers/STM32F4xx_StdPeriph_Driver/src/stm32f4xx_sdio.c ****   /* Set WIDBUS bits according to SDIO_BusWide value */
 301:Drivers/STM32F4xx_StdPeriph_Driver/src/stm32f4xx_sdio.c ****   /* Set NEGEDGE bits according to SDIO_ClockEdge value */
 302:Drivers/STM32F4xx_StdPeriph_Driver/src/stm32f4xx_sdio.c ****   /* Set HWFC_EN bits according to SDIO_HardwareFlowControl value */
 303:Drivers/STM32F4xx_StdPeriph_Driver/src/stm32f4xx_sdio.c ****   tmpreg |= (SDIO_InitStruct->SDIO_ClockDiv  | SDIO_InitStruct->SDIO_ClockPowerSave |
  91              		.loc 1 303 3 is_stmt 1 view .LVU17
  92              		.loc 1 303 29 is_stmt 0 view .LVU18
  93 000e 037D     		ldrb	r3, [r0, #20]	@ zero_extendqisi2
  94              		.loc 1 303 46 view .LVU19
  95 0010 8468     		ldr	r4, [r0, #8]
  96 0012 2343     		orrs	r3, r3, r4
  97              		.loc 1 303 85 view .LVU20
  98 0014 4468     		ldr	r4, [r0, #4]
  99 0016 2343     		orrs	r3, r3, r4
ARM GAS  /tmp/cceUylz3.s 			page 8


 304:Drivers/STM32F4xx_StdPeriph_Driver/src/stm32f4xx_sdio.c ****              SDIO_InitStruct->SDIO_ClockBypass | SDIO_InitStruct->SDIO_BusWide |
 100              		.loc 1 304 48 view .LVU21
 101 0018 C468     		ldr	r4, [r0, #12]
 102 001a 2343     		orrs	r3, r3, r4
 103              		.loc 1 304 80 view .LVU22
 104 001c 0468     		ldr	r4, [r0]
 105 001e 2343     		orrs	r3, r3, r4
 305:Drivers/STM32F4xx_StdPeriph_Driver/src/stm32f4xx_sdio.c ****              SDIO_InitStruct->SDIO_ClockEdge | SDIO_InitStruct->SDIO_HardwareFlowControl); 
 106              		.loc 1 305 63 view .LVU23
 107 0020 0069     		ldr	r0, [r0, #16]
 108              	.LVL7:
 109              		.loc 1 305 46 view .LVU24
 110 0022 0343     		orrs	r3, r3, r0
 303:Drivers/STM32F4xx_StdPeriph_Driver/src/stm32f4xx_sdio.c ****              SDIO_InitStruct->SDIO_ClockBypass | SDIO_InitStruct->SDIO_BusWide |
 111              		.loc 1 303 10 view .LVU25
 112 0024 1343     		orrs	r3, r3, r2
 113              	.LVL8:
 306:Drivers/STM32F4xx_StdPeriph_Driver/src/stm32f4xx_sdio.c ****   
 307:Drivers/STM32F4xx_StdPeriph_Driver/src/stm32f4xx_sdio.c ****   /* Write to SDIO CLKCR */
 308:Drivers/STM32F4xx_StdPeriph_Driver/src/stm32f4xx_sdio.c ****   SDIO->CLKCR = tmpreg;
 114              		.loc 1 308 3 is_stmt 1 view .LVU26
 115              		.loc 1 308 15 is_stmt 0 view .LVU27
 116 0026 4B60     		str	r3, [r1, #4]
 309:Drivers/STM32F4xx_StdPeriph_Driver/src/stm32f4xx_sdio.c **** }
 117              		.loc 1 309 1 view .LVU28
 118 0028 5DF8044B 		ldr	r4, [sp], #4
 119              		.cfi_restore 4
 120              		.cfi_def_cfa_offset 0
 121 002c 7047     		bx	lr
 122              	.L6:
 123 002e 00BF     		.align	2
 124              	.L5:
 125 0030 002C0140 		.word	1073818624
 126              		.cfi_endproc
 127              	.LFE124:
 129              		.section	.text.SDIO_StructInit,"ax",%progbits
 130              		.align	1
 131              		.global	SDIO_StructInit
 132              		.syntax unified
 133              		.thumb
 134              		.thumb_func
 135              		.fpu fpv4-sp-d16
 137              	SDIO_StructInit:
 138              	.LVL9:
 139              	.LFB125:
 310:Drivers/STM32F4xx_StdPeriph_Driver/src/stm32f4xx_sdio.c **** 
 311:Drivers/STM32F4xx_StdPeriph_Driver/src/stm32f4xx_sdio.c **** /**
 312:Drivers/STM32F4xx_StdPeriph_Driver/src/stm32f4xx_sdio.c ****   * @brief  Fills each SDIO_InitStruct member with its default value.
 313:Drivers/STM32F4xx_StdPeriph_Driver/src/stm32f4xx_sdio.c ****   * @param  SDIO_InitStruct: pointer to an SDIO_InitTypeDef structure which 
 314:Drivers/STM32F4xx_StdPeriph_Driver/src/stm32f4xx_sdio.c ****   *         will be initialized.
 315:Drivers/STM32F4xx_StdPeriph_Driver/src/stm32f4xx_sdio.c ****   * @retval None
 316:Drivers/STM32F4xx_StdPeriph_Driver/src/stm32f4xx_sdio.c ****   */
 317:Drivers/STM32F4xx_StdPeriph_Driver/src/stm32f4xx_sdio.c **** void SDIO_StructInit(SDIO_InitTypeDef* SDIO_InitStruct)
 318:Drivers/STM32F4xx_StdPeriph_Driver/src/stm32f4xx_sdio.c **** {
 140              		.loc 1 318 1 is_stmt 1 view -0
 141              		.cfi_startproc
 142              		@ args = 0, pretend = 0, frame = 0
ARM GAS  /tmp/cceUylz3.s 			page 9


 143              		@ frame_needed = 0, uses_anonymous_args = 0
 144              		@ link register save eliminated.
 319:Drivers/STM32F4xx_StdPeriph_Driver/src/stm32f4xx_sdio.c ****   /* SDIO_InitStruct members default value */
 320:Drivers/STM32F4xx_StdPeriph_Driver/src/stm32f4xx_sdio.c ****   SDIO_InitStruct->SDIO_ClockDiv = 0x00;
 145              		.loc 1 320 3 view .LVU30
 146              		.loc 1 320 34 is_stmt 0 view .LVU31
 147 0000 0023     		movs	r3, #0
 148 0002 0375     		strb	r3, [r0, #20]
 321:Drivers/STM32F4xx_StdPeriph_Driver/src/stm32f4xx_sdio.c ****   SDIO_InitStruct->SDIO_ClockEdge = SDIO_ClockEdge_Rising;
 149              		.loc 1 321 3 is_stmt 1 view .LVU32
 150              		.loc 1 321 35 is_stmt 0 view .LVU33
 151 0004 0360     		str	r3, [r0]
 322:Drivers/STM32F4xx_StdPeriph_Driver/src/stm32f4xx_sdio.c ****   SDIO_InitStruct->SDIO_ClockBypass = SDIO_ClockBypass_Disable;
 152              		.loc 1 322 3 is_stmt 1 view .LVU34
 153              		.loc 1 322 37 is_stmt 0 view .LVU35
 154 0006 4360     		str	r3, [r0, #4]
 323:Drivers/STM32F4xx_StdPeriph_Driver/src/stm32f4xx_sdio.c ****   SDIO_InitStruct->SDIO_ClockPowerSave = SDIO_ClockPowerSave_Disable;
 155              		.loc 1 323 3 is_stmt 1 view .LVU36
 156              		.loc 1 323 40 is_stmt 0 view .LVU37
 157 0008 8360     		str	r3, [r0, #8]
 324:Drivers/STM32F4xx_StdPeriph_Driver/src/stm32f4xx_sdio.c ****   SDIO_InitStruct->SDIO_BusWide = SDIO_BusWide_1b;
 158              		.loc 1 324 3 is_stmt 1 view .LVU38
 159              		.loc 1 324 33 is_stmt 0 view .LVU39
 160 000a C360     		str	r3, [r0, #12]
 325:Drivers/STM32F4xx_StdPeriph_Driver/src/stm32f4xx_sdio.c ****   SDIO_InitStruct->SDIO_HardwareFlowControl = SDIO_HardwareFlowControl_Disable;
 161              		.loc 1 325 3 is_stmt 1 view .LVU40
 162              		.loc 1 325 45 is_stmt 0 view .LVU41
 163 000c 0361     		str	r3, [r0, #16]
 326:Drivers/STM32F4xx_StdPeriph_Driver/src/stm32f4xx_sdio.c **** }
 164              		.loc 1 326 1 view .LVU42
 165 000e 7047     		bx	lr
 166              		.cfi_endproc
 167              	.LFE125:
 169              		.section	.text.SDIO_ClockCmd,"ax",%progbits
 170              		.align	1
 171              		.global	SDIO_ClockCmd
 172              		.syntax unified
 173              		.thumb
 174              		.thumb_func
 175              		.fpu fpv4-sp-d16
 177              	SDIO_ClockCmd:
 178              	.LVL10:
 179              	.LFB126:
 327:Drivers/STM32F4xx_StdPeriph_Driver/src/stm32f4xx_sdio.c **** 
 328:Drivers/STM32F4xx_StdPeriph_Driver/src/stm32f4xx_sdio.c **** /**
 329:Drivers/STM32F4xx_StdPeriph_Driver/src/stm32f4xx_sdio.c ****   * @brief  Enables or disables the SDIO Clock.
 330:Drivers/STM32F4xx_StdPeriph_Driver/src/stm32f4xx_sdio.c ****   * @param  NewState: new state of the SDIO Clock. 
 331:Drivers/STM32F4xx_StdPeriph_Driver/src/stm32f4xx_sdio.c ****   *         This parameter can be: ENABLE or DISABLE.
 332:Drivers/STM32F4xx_StdPeriph_Driver/src/stm32f4xx_sdio.c ****   * @retval None
 333:Drivers/STM32F4xx_StdPeriph_Driver/src/stm32f4xx_sdio.c ****   */
 334:Drivers/STM32F4xx_StdPeriph_Driver/src/stm32f4xx_sdio.c **** void SDIO_ClockCmd(FunctionalState NewState)
 335:Drivers/STM32F4xx_StdPeriph_Driver/src/stm32f4xx_sdio.c **** {
 180              		.loc 1 335 1 is_stmt 1 view -0
 181              		.cfi_startproc
 182              		@ args = 0, pretend = 0, frame = 0
 183              		@ frame_needed = 0, uses_anonymous_args = 0
 184              		@ link register save eliminated.
ARM GAS  /tmp/cceUylz3.s 			page 10


 336:Drivers/STM32F4xx_StdPeriph_Driver/src/stm32f4xx_sdio.c ****   /* Check the parameters */
 337:Drivers/STM32F4xx_StdPeriph_Driver/src/stm32f4xx_sdio.c ****   assert_param(IS_FUNCTIONAL_STATE(NewState));
 185              		.loc 1 337 3 view .LVU44
 338:Drivers/STM32F4xx_StdPeriph_Driver/src/stm32f4xx_sdio.c ****   
 339:Drivers/STM32F4xx_StdPeriph_Driver/src/stm32f4xx_sdio.c ****   *(__IO uint32_t *) CLKCR_CLKEN_BB = (uint32_t)NewState;
 186              		.loc 1 339 3 view .LVU45
 187              		.loc 1 339 37 is_stmt 0 view .LVU46
 188 0000 014B     		ldr	r3, .L9
 189 0002 C3F8A000 		str	r0, [r3, #160]
 340:Drivers/STM32F4xx_StdPeriph_Driver/src/stm32f4xx_sdio.c **** }
 190              		.loc 1 340 1 view .LVU47
 191 0006 7047     		bx	lr
 192              	.L10:
 193              		.align	2
 194              	.L9:
 195 0008 00802542 		.word	1109753856
 196              		.cfi_endproc
 197              	.LFE126:
 199              		.section	.text.SDIO_SetPowerState,"ax",%progbits
 200              		.align	1
 201              		.global	SDIO_SetPowerState
 202              		.syntax unified
 203              		.thumb
 204              		.thumb_func
 205              		.fpu fpv4-sp-d16
 207              	SDIO_SetPowerState:
 208              	.LVL11:
 209              	.LFB127:
 341:Drivers/STM32F4xx_StdPeriph_Driver/src/stm32f4xx_sdio.c **** 
 342:Drivers/STM32F4xx_StdPeriph_Driver/src/stm32f4xx_sdio.c **** /**
 343:Drivers/STM32F4xx_StdPeriph_Driver/src/stm32f4xx_sdio.c ****   * @brief  Sets the power status of the controller.
 344:Drivers/STM32F4xx_StdPeriph_Driver/src/stm32f4xx_sdio.c ****   * @param  SDIO_PowerState: new state of the Power state. 
 345:Drivers/STM32F4xx_StdPeriph_Driver/src/stm32f4xx_sdio.c ****   *          This parameter can be one of the following values:
 346:Drivers/STM32F4xx_StdPeriph_Driver/src/stm32f4xx_sdio.c ****   *            @arg SDIO_PowerState_OFF: SDIO Power OFF
 347:Drivers/STM32F4xx_StdPeriph_Driver/src/stm32f4xx_sdio.c ****   *            @arg SDIO_PowerState_ON: SDIO Power ON
 348:Drivers/STM32F4xx_StdPeriph_Driver/src/stm32f4xx_sdio.c ****   * @retval None
 349:Drivers/STM32F4xx_StdPeriph_Driver/src/stm32f4xx_sdio.c ****   */
 350:Drivers/STM32F4xx_StdPeriph_Driver/src/stm32f4xx_sdio.c **** void SDIO_SetPowerState(uint32_t SDIO_PowerState)
 351:Drivers/STM32F4xx_StdPeriph_Driver/src/stm32f4xx_sdio.c **** {
 210              		.loc 1 351 1 is_stmt 1 view -0
 211              		.cfi_startproc
 212              		@ args = 0, pretend = 0, frame = 0
 213              		@ frame_needed = 0, uses_anonymous_args = 0
 214              		@ link register save eliminated.
 352:Drivers/STM32F4xx_StdPeriph_Driver/src/stm32f4xx_sdio.c ****   /* Check the parameters */
 353:Drivers/STM32F4xx_StdPeriph_Driver/src/stm32f4xx_sdio.c ****   assert_param(IS_SDIO_POWER_STATE(SDIO_PowerState));
 215              		.loc 1 353 3 view .LVU49
 354:Drivers/STM32F4xx_StdPeriph_Driver/src/stm32f4xx_sdio.c ****   
 355:Drivers/STM32F4xx_StdPeriph_Driver/src/stm32f4xx_sdio.c ****   SDIO->POWER = SDIO_PowerState;
 216              		.loc 1 355 3 view .LVU50
 217              		.loc 1 355 15 is_stmt 0 view .LVU51
 218 0000 014B     		ldr	r3, .L12
 219 0002 1860     		str	r0, [r3]
 356:Drivers/STM32F4xx_StdPeriph_Driver/src/stm32f4xx_sdio.c **** }
 220              		.loc 1 356 1 view .LVU52
 221 0004 7047     		bx	lr
 222              	.L13:
ARM GAS  /tmp/cceUylz3.s 			page 11


 223 0006 00BF     		.align	2
 224              	.L12:
 225 0008 002C0140 		.word	1073818624
 226              		.cfi_endproc
 227              	.LFE127:
 229              		.section	.text.SDIO_GetPowerState,"ax",%progbits
 230              		.align	1
 231              		.global	SDIO_GetPowerState
 232              		.syntax unified
 233              		.thumb
 234              		.thumb_func
 235              		.fpu fpv4-sp-d16
 237              	SDIO_GetPowerState:
 238              	.LFB128:
 357:Drivers/STM32F4xx_StdPeriph_Driver/src/stm32f4xx_sdio.c **** 
 358:Drivers/STM32F4xx_StdPeriph_Driver/src/stm32f4xx_sdio.c **** /**
 359:Drivers/STM32F4xx_StdPeriph_Driver/src/stm32f4xx_sdio.c ****   * @brief  Gets the power status of the controller.
 360:Drivers/STM32F4xx_StdPeriph_Driver/src/stm32f4xx_sdio.c ****   * @param  None
 361:Drivers/STM32F4xx_StdPeriph_Driver/src/stm32f4xx_sdio.c ****   * @retval Power status of the controller. The returned value can be one of the 
 362:Drivers/STM32F4xx_StdPeriph_Driver/src/stm32f4xx_sdio.c ****   *         following values:
 363:Drivers/STM32F4xx_StdPeriph_Driver/src/stm32f4xx_sdio.c ****   *            - 0x00: Power OFF
 364:Drivers/STM32F4xx_StdPeriph_Driver/src/stm32f4xx_sdio.c ****   *            - 0x02: Power UP
 365:Drivers/STM32F4xx_StdPeriph_Driver/src/stm32f4xx_sdio.c ****   *            - 0x03: Power ON 
 366:Drivers/STM32F4xx_StdPeriph_Driver/src/stm32f4xx_sdio.c ****   */
 367:Drivers/STM32F4xx_StdPeriph_Driver/src/stm32f4xx_sdio.c **** uint32_t SDIO_GetPowerState(void)
 368:Drivers/STM32F4xx_StdPeriph_Driver/src/stm32f4xx_sdio.c **** {
 239              		.loc 1 368 1 is_stmt 1 view -0
 240              		.cfi_startproc
 241              		@ args = 0, pretend = 0, frame = 0
 242              		@ frame_needed = 0, uses_anonymous_args = 0
 243              		@ link register save eliminated.
 369:Drivers/STM32F4xx_StdPeriph_Driver/src/stm32f4xx_sdio.c ****   return (SDIO->POWER & (~PWR_PWRCTRL_MASK));
 244              		.loc 1 369 3 view .LVU54
 245              		.loc 1 369 15 is_stmt 0 view .LVU55
 246 0000 024B     		ldr	r3, .L15
 247 0002 1868     		ldr	r0, [r3]
 370:Drivers/STM32F4xx_StdPeriph_Driver/src/stm32f4xx_sdio.c **** }
 248              		.loc 1 370 1 view .LVU56
 249 0004 00F00300 		and	r0, r0, #3
 250 0008 7047     		bx	lr
 251              	.L16:
 252 000a 00BF     		.align	2
 253              	.L15:
 254 000c 002C0140 		.word	1073818624
 255              		.cfi_endproc
 256              	.LFE128:
 258              		.section	.text.SDIO_SendCommand,"ax",%progbits
 259              		.align	1
 260              		.global	SDIO_SendCommand
 261              		.syntax unified
 262              		.thumb
 263              		.thumb_func
 264              		.fpu fpv4-sp-d16
 266              	SDIO_SendCommand:
 267              	.LVL12:
 268              	.LFB129:
 371:Drivers/STM32F4xx_StdPeriph_Driver/src/stm32f4xx_sdio.c **** 
ARM GAS  /tmp/cceUylz3.s 			page 12


 372:Drivers/STM32F4xx_StdPeriph_Driver/src/stm32f4xx_sdio.c **** /**
 373:Drivers/STM32F4xx_StdPeriph_Driver/src/stm32f4xx_sdio.c ****   * @}
 374:Drivers/STM32F4xx_StdPeriph_Driver/src/stm32f4xx_sdio.c ****   */
 375:Drivers/STM32F4xx_StdPeriph_Driver/src/stm32f4xx_sdio.c **** 
 376:Drivers/STM32F4xx_StdPeriph_Driver/src/stm32f4xx_sdio.c **** /** @defgroup SDIO_Group2 Command path state machine (CPSM) management functions
 377:Drivers/STM32F4xx_StdPeriph_Driver/src/stm32f4xx_sdio.c ****  *  @brief   Command path state machine (CPSM) management functions 
 378:Drivers/STM32F4xx_StdPeriph_Driver/src/stm32f4xx_sdio.c ****  *
 379:Drivers/STM32F4xx_StdPeriph_Driver/src/stm32f4xx_sdio.c **** @verbatim   
 380:Drivers/STM32F4xx_StdPeriph_Driver/src/stm32f4xx_sdio.c ****  ===============================================================================
 381:Drivers/STM32F4xx_StdPeriph_Driver/src/stm32f4xx_sdio.c ****         ##### Command path state machine (CPSM) management functions #####
 382:Drivers/STM32F4xx_StdPeriph_Driver/src/stm32f4xx_sdio.c ****  ===============================================================================  
 383:Drivers/STM32F4xx_StdPeriph_Driver/src/stm32f4xx_sdio.c **** 
 384:Drivers/STM32F4xx_StdPeriph_Driver/src/stm32f4xx_sdio.c ****   This section provide functions allowing to program and read the Command path 
 385:Drivers/STM32F4xx_StdPeriph_Driver/src/stm32f4xx_sdio.c ****   state machine (CPSM).
 386:Drivers/STM32F4xx_StdPeriph_Driver/src/stm32f4xx_sdio.c **** 
 387:Drivers/STM32F4xx_StdPeriph_Driver/src/stm32f4xx_sdio.c **** @endverbatim
 388:Drivers/STM32F4xx_StdPeriph_Driver/src/stm32f4xx_sdio.c ****   * @{
 389:Drivers/STM32F4xx_StdPeriph_Driver/src/stm32f4xx_sdio.c ****   */
 390:Drivers/STM32F4xx_StdPeriph_Driver/src/stm32f4xx_sdio.c **** 
 391:Drivers/STM32F4xx_StdPeriph_Driver/src/stm32f4xx_sdio.c **** /**
 392:Drivers/STM32F4xx_StdPeriph_Driver/src/stm32f4xx_sdio.c ****   * @brief  Initializes the SDIO Command according to the specified 
 393:Drivers/STM32F4xx_StdPeriph_Driver/src/stm32f4xx_sdio.c ****   *         parameters in the SDIO_CmdInitStruct and send the command.
 394:Drivers/STM32F4xx_StdPeriph_Driver/src/stm32f4xx_sdio.c ****   * @param  SDIO_CmdInitStruct : pointer to a SDIO_CmdInitTypeDef 
 395:Drivers/STM32F4xx_StdPeriph_Driver/src/stm32f4xx_sdio.c ****   *         structure that contains the configuration information for the SDIO 
 396:Drivers/STM32F4xx_StdPeriph_Driver/src/stm32f4xx_sdio.c ****   *         command.
 397:Drivers/STM32F4xx_StdPeriph_Driver/src/stm32f4xx_sdio.c ****   * @retval None
 398:Drivers/STM32F4xx_StdPeriph_Driver/src/stm32f4xx_sdio.c ****   */
 399:Drivers/STM32F4xx_StdPeriph_Driver/src/stm32f4xx_sdio.c **** void SDIO_SendCommand(SDIO_CmdInitTypeDef *SDIO_CmdInitStruct)
 400:Drivers/STM32F4xx_StdPeriph_Driver/src/stm32f4xx_sdio.c **** {
 269              		.loc 1 400 1 is_stmt 1 view -0
 270              		.cfi_startproc
 271              		@ args = 0, pretend = 0, frame = 0
 272              		@ frame_needed = 0, uses_anonymous_args = 0
 273              		@ link register save eliminated.
 274              		.loc 1 400 1 is_stmt 0 view .LVU58
 275 0000 10B4     		push	{r4}
 276              		.cfi_def_cfa_offset 4
 277              		.cfi_offset 4, -4
 401:Drivers/STM32F4xx_StdPeriph_Driver/src/stm32f4xx_sdio.c ****   uint32_t tmpreg = 0;
 278              		.loc 1 401 3 is_stmt 1 view .LVU59
 279              	.LVL13:
 402:Drivers/STM32F4xx_StdPeriph_Driver/src/stm32f4xx_sdio.c ****   
 403:Drivers/STM32F4xx_StdPeriph_Driver/src/stm32f4xx_sdio.c ****   /* Check the parameters */
 404:Drivers/STM32F4xx_StdPeriph_Driver/src/stm32f4xx_sdio.c ****   assert_param(IS_SDIO_CMD_INDEX(SDIO_CmdInitStruct->SDIO_CmdIndex));
 280              		.loc 1 404 3 view .LVU60
 405:Drivers/STM32F4xx_StdPeriph_Driver/src/stm32f4xx_sdio.c ****   assert_param(IS_SDIO_RESPONSE(SDIO_CmdInitStruct->SDIO_Response));
 281              		.loc 1 405 3 view .LVU61
 406:Drivers/STM32F4xx_StdPeriph_Driver/src/stm32f4xx_sdio.c ****   assert_param(IS_SDIO_WAIT(SDIO_CmdInitStruct->SDIO_Wait));
 282              		.loc 1 406 3 view .LVU62
 407:Drivers/STM32F4xx_StdPeriph_Driver/src/stm32f4xx_sdio.c ****   assert_param(IS_SDIO_CPSM(SDIO_CmdInitStruct->SDIO_CPSM));
 283              		.loc 1 407 3 view .LVU63
 408:Drivers/STM32F4xx_StdPeriph_Driver/src/stm32f4xx_sdio.c ****   
 409:Drivers/STM32F4xx_StdPeriph_Driver/src/stm32f4xx_sdio.c **** /*---------------------------- SDIO ARG Configuration ------------------------*/
 410:Drivers/STM32F4xx_StdPeriph_Driver/src/stm32f4xx_sdio.c ****   /* Set the SDIO Argument value */
 411:Drivers/STM32F4xx_StdPeriph_Driver/src/stm32f4xx_sdio.c ****   SDIO->ARG = SDIO_CmdInitStruct->SDIO_Argument;
 284              		.loc 1 411 3 view .LVU64
 285              		.loc 1 411 33 is_stmt 0 view .LVU65
ARM GAS  /tmp/cceUylz3.s 			page 13


 286 0002 0368     		ldr	r3, [r0]
 287              		.loc 1 411 13 view .LVU66
 288 0004 0949     		ldr	r1, .L19
 289 0006 8B60     		str	r3, [r1, #8]
 412:Drivers/STM32F4xx_StdPeriph_Driver/src/stm32f4xx_sdio.c ****   
 413:Drivers/STM32F4xx_StdPeriph_Driver/src/stm32f4xx_sdio.c **** /*---------------------------- SDIO CMD Configuration ------------------------*/  
 414:Drivers/STM32F4xx_StdPeriph_Driver/src/stm32f4xx_sdio.c ****   /* Get the SDIO CMD value */
 415:Drivers/STM32F4xx_StdPeriph_Driver/src/stm32f4xx_sdio.c ****   tmpreg = SDIO->CMD;
 290              		.loc 1 415 3 is_stmt 1 view .LVU67
 291              		.loc 1 415 10 is_stmt 0 view .LVU68
 292 0008 CA68     		ldr	r2, [r1, #12]
 293              	.LVL14:
 416:Drivers/STM32F4xx_StdPeriph_Driver/src/stm32f4xx_sdio.c ****   /* Clear CMDINDEX, WAITRESP, WAITINT, WAITPEND, CPSMEN bits */
 417:Drivers/STM32F4xx_StdPeriph_Driver/src/stm32f4xx_sdio.c ****   tmpreg &= CMD_CLEAR_MASK;
 294              		.loc 1 417 3 is_stmt 1 view .LVU69
 295              		.loc 1 417 10 is_stmt 0 view .LVU70
 296 000a 22F4FF62 		bic	r2, r2, #2040
 297              	.LVL15:
 298              		.loc 1 417 10 view .LVU71
 299 000e 22F00702 		bic	r2, r2, #7
 300              	.LVL16:
 418:Drivers/STM32F4xx_StdPeriph_Driver/src/stm32f4xx_sdio.c ****   /* Set CMDINDEX bits according to SDIO_CmdIndex value */
 419:Drivers/STM32F4xx_StdPeriph_Driver/src/stm32f4xx_sdio.c ****   /* Set WAITRESP bits according to SDIO_Response value */
 420:Drivers/STM32F4xx_StdPeriph_Driver/src/stm32f4xx_sdio.c ****   /* Set WAITINT and WAITPEND bits according to SDIO_Wait value */
 421:Drivers/STM32F4xx_StdPeriph_Driver/src/stm32f4xx_sdio.c ****   /* Set CPSMEN bits according to SDIO_CPSM value */
 422:Drivers/STM32F4xx_StdPeriph_Driver/src/stm32f4xx_sdio.c ****   tmpreg |= (uint32_t)SDIO_CmdInitStruct->SDIO_CmdIndex | SDIO_CmdInitStruct->SDIO_Response
 301              		.loc 1 422 3 is_stmt 1 view .LVU72
 302              		.loc 1 422 41 is_stmt 0 view .LVU73
 303 0012 4368     		ldr	r3, [r0, #4]
 304              		.loc 1 422 57 view .LVU74
 305 0014 8468     		ldr	r4, [r0, #8]
 306 0016 2343     		orrs	r3, r3, r4
 423:Drivers/STM32F4xx_StdPeriph_Driver/src/stm32f4xx_sdio.c ****            | SDIO_CmdInitStruct->SDIO_Wait | SDIO_CmdInitStruct->SDIO_CPSM;
 307              		.loc 1 423 12 view .LVU75
 308 0018 C468     		ldr	r4, [r0, #12]
 309 001a 2343     		orrs	r3, r3, r4
 310              		.loc 1 423 64 view .LVU76
 311 001c 0069     		ldr	r0, [r0, #16]
 312              	.LVL17:
 313              		.loc 1 423 44 view .LVU77
 314 001e 0343     		orrs	r3, r3, r0
 422:Drivers/STM32F4xx_StdPeriph_Driver/src/stm32f4xx_sdio.c ****            | SDIO_CmdInitStruct->SDIO_Wait | SDIO_CmdInitStruct->SDIO_CPSM;
 315              		.loc 1 422 10 view .LVU78
 316 0020 1343     		orrs	r3, r3, r2
 317              	.LVL18:
 424:Drivers/STM32F4xx_StdPeriph_Driver/src/stm32f4xx_sdio.c ****   
 425:Drivers/STM32F4xx_StdPeriph_Driver/src/stm32f4xx_sdio.c ****   /* Write to SDIO CMD */
 426:Drivers/STM32F4xx_StdPeriph_Driver/src/stm32f4xx_sdio.c ****   SDIO->CMD = tmpreg;
 318              		.loc 1 426 3 is_stmt 1 view .LVU79
 319              		.loc 1 426 13 is_stmt 0 view .LVU80
 320 0022 CB60     		str	r3, [r1, #12]
 427:Drivers/STM32F4xx_StdPeriph_Driver/src/stm32f4xx_sdio.c **** }
 321              		.loc 1 427 1 view .LVU81
 322 0024 5DF8044B 		ldr	r4, [sp], #4
 323              		.cfi_restore 4
 324              		.cfi_def_cfa_offset 0
 325 0028 7047     		bx	lr
ARM GAS  /tmp/cceUylz3.s 			page 14


 326              	.L20:
 327 002a 00BF     		.align	2
 328              	.L19:
 329 002c 002C0140 		.word	1073818624
 330              		.cfi_endproc
 331              	.LFE129:
 333              		.section	.text.SDIO_CmdStructInit,"ax",%progbits
 334              		.align	1
 335              		.global	SDIO_CmdStructInit
 336              		.syntax unified
 337              		.thumb
 338              		.thumb_func
 339              		.fpu fpv4-sp-d16
 341              	SDIO_CmdStructInit:
 342              	.LVL19:
 343              	.LFB130:
 428:Drivers/STM32F4xx_StdPeriph_Driver/src/stm32f4xx_sdio.c **** 
 429:Drivers/STM32F4xx_StdPeriph_Driver/src/stm32f4xx_sdio.c **** /**
 430:Drivers/STM32F4xx_StdPeriph_Driver/src/stm32f4xx_sdio.c ****   * @brief  Fills each SDIO_CmdInitStruct member with its default value.
 431:Drivers/STM32F4xx_StdPeriph_Driver/src/stm32f4xx_sdio.c ****   * @param  SDIO_CmdInitStruct: pointer to an SDIO_CmdInitTypeDef 
 432:Drivers/STM32F4xx_StdPeriph_Driver/src/stm32f4xx_sdio.c ****   *         structure which will be initialized.
 433:Drivers/STM32F4xx_StdPeriph_Driver/src/stm32f4xx_sdio.c ****   * @retval None
 434:Drivers/STM32F4xx_StdPeriph_Driver/src/stm32f4xx_sdio.c ****   */
 435:Drivers/STM32F4xx_StdPeriph_Driver/src/stm32f4xx_sdio.c **** void SDIO_CmdStructInit(SDIO_CmdInitTypeDef* SDIO_CmdInitStruct)
 436:Drivers/STM32F4xx_StdPeriph_Driver/src/stm32f4xx_sdio.c **** {
 344              		.loc 1 436 1 is_stmt 1 view -0
 345              		.cfi_startproc
 346              		@ args = 0, pretend = 0, frame = 0
 347              		@ frame_needed = 0, uses_anonymous_args = 0
 348              		@ link register save eliminated.
 437:Drivers/STM32F4xx_StdPeriph_Driver/src/stm32f4xx_sdio.c ****   /* SDIO_CmdInitStruct members default value */
 438:Drivers/STM32F4xx_StdPeriph_Driver/src/stm32f4xx_sdio.c ****   SDIO_CmdInitStruct->SDIO_Argument = 0x00;
 349              		.loc 1 438 3 view .LVU83
 350              		.loc 1 438 37 is_stmt 0 view .LVU84
 351 0000 0023     		movs	r3, #0
 352 0002 0360     		str	r3, [r0]
 439:Drivers/STM32F4xx_StdPeriph_Driver/src/stm32f4xx_sdio.c ****   SDIO_CmdInitStruct->SDIO_CmdIndex = 0x00;
 353              		.loc 1 439 3 is_stmt 1 view .LVU85
 354              		.loc 1 439 37 is_stmt 0 view .LVU86
 355 0004 4360     		str	r3, [r0, #4]
 440:Drivers/STM32F4xx_StdPeriph_Driver/src/stm32f4xx_sdio.c ****   SDIO_CmdInitStruct->SDIO_Response = SDIO_Response_No;
 356              		.loc 1 440 3 is_stmt 1 view .LVU87
 357              		.loc 1 440 37 is_stmt 0 view .LVU88
 358 0006 8360     		str	r3, [r0, #8]
 441:Drivers/STM32F4xx_StdPeriph_Driver/src/stm32f4xx_sdio.c ****   SDIO_CmdInitStruct->SDIO_Wait = SDIO_Wait_No;
 359              		.loc 1 441 3 is_stmt 1 view .LVU89
 360              		.loc 1 441 33 is_stmt 0 view .LVU90
 361 0008 C360     		str	r3, [r0, #12]
 442:Drivers/STM32F4xx_StdPeriph_Driver/src/stm32f4xx_sdio.c ****   SDIO_CmdInitStruct->SDIO_CPSM = SDIO_CPSM_Disable;
 362              		.loc 1 442 3 is_stmt 1 view .LVU91
 363              		.loc 1 442 33 is_stmt 0 view .LVU92
 364 000a 0361     		str	r3, [r0, #16]
 443:Drivers/STM32F4xx_StdPeriph_Driver/src/stm32f4xx_sdio.c **** }
 365              		.loc 1 443 1 view .LVU93
 366 000c 7047     		bx	lr
 367              		.cfi_endproc
 368              	.LFE130:
ARM GAS  /tmp/cceUylz3.s 			page 15


 370              		.section	.text.SDIO_GetCommandResponse,"ax",%progbits
 371              		.align	1
 372              		.global	SDIO_GetCommandResponse
 373              		.syntax unified
 374              		.thumb
 375              		.thumb_func
 376              		.fpu fpv4-sp-d16
 378              	SDIO_GetCommandResponse:
 379              	.LFB131:
 444:Drivers/STM32F4xx_StdPeriph_Driver/src/stm32f4xx_sdio.c **** 
 445:Drivers/STM32F4xx_StdPeriph_Driver/src/stm32f4xx_sdio.c **** /**
 446:Drivers/STM32F4xx_StdPeriph_Driver/src/stm32f4xx_sdio.c ****   * @brief  Returns command index of last command for which response received.
 447:Drivers/STM32F4xx_StdPeriph_Driver/src/stm32f4xx_sdio.c ****   * @param  None
 448:Drivers/STM32F4xx_StdPeriph_Driver/src/stm32f4xx_sdio.c ****   * @retval Returns the command index of the last command response received.
 449:Drivers/STM32F4xx_StdPeriph_Driver/src/stm32f4xx_sdio.c ****   */
 450:Drivers/STM32F4xx_StdPeriph_Driver/src/stm32f4xx_sdio.c **** uint8_t SDIO_GetCommandResponse(void)
 451:Drivers/STM32F4xx_StdPeriph_Driver/src/stm32f4xx_sdio.c **** {
 380              		.loc 1 451 1 is_stmt 1 view -0
 381              		.cfi_startproc
 382              		@ args = 0, pretend = 0, frame = 0
 383              		@ frame_needed = 0, uses_anonymous_args = 0
 384              		@ link register save eliminated.
 452:Drivers/STM32F4xx_StdPeriph_Driver/src/stm32f4xx_sdio.c ****   return (uint8_t)(SDIO->RESPCMD);
 385              		.loc 1 452 3 view .LVU95
 386              		.loc 1 452 24 is_stmt 0 view .LVU96
 387 0000 014B     		ldr	r3, .L23
 388 0002 1869     		ldr	r0, [r3, #16]
 453:Drivers/STM32F4xx_StdPeriph_Driver/src/stm32f4xx_sdio.c **** }
 389              		.loc 1 453 1 view .LVU97
 390 0004 C0B2     		uxtb	r0, r0
 391 0006 7047     		bx	lr
 392              	.L24:
 393              		.align	2
 394              	.L23:
 395 0008 002C0140 		.word	1073818624
 396              		.cfi_endproc
 397              	.LFE131:
 399              		.section	.text.SDIO_GetResponse,"ax",%progbits
 400              		.align	1
 401              		.global	SDIO_GetResponse
 402              		.syntax unified
 403              		.thumb
 404              		.thumb_func
 405              		.fpu fpv4-sp-d16
 407              	SDIO_GetResponse:
 408              	.LVL20:
 409              	.LFB132:
 454:Drivers/STM32F4xx_StdPeriph_Driver/src/stm32f4xx_sdio.c **** 
 455:Drivers/STM32F4xx_StdPeriph_Driver/src/stm32f4xx_sdio.c **** /**
 456:Drivers/STM32F4xx_StdPeriph_Driver/src/stm32f4xx_sdio.c ****   * @brief  Returns response received from the card for the last command.
 457:Drivers/STM32F4xx_StdPeriph_Driver/src/stm32f4xx_sdio.c ****   * @param  SDIO_RESP: Specifies the SDIO response register. 
 458:Drivers/STM32F4xx_StdPeriph_Driver/src/stm32f4xx_sdio.c ****   *          This parameter can be one of the following values:
 459:Drivers/STM32F4xx_StdPeriph_Driver/src/stm32f4xx_sdio.c ****   *            @arg SDIO_RESP1: Response Register 1
 460:Drivers/STM32F4xx_StdPeriph_Driver/src/stm32f4xx_sdio.c ****   *            @arg SDIO_RESP2: Response Register 2
 461:Drivers/STM32F4xx_StdPeriph_Driver/src/stm32f4xx_sdio.c ****   *            @arg SDIO_RESP3: Response Register 3
 462:Drivers/STM32F4xx_StdPeriph_Driver/src/stm32f4xx_sdio.c ****   *            @arg SDIO_RESP4: Response Register 4
 463:Drivers/STM32F4xx_StdPeriph_Driver/src/stm32f4xx_sdio.c ****   * @retval The Corresponding response register value.
ARM GAS  /tmp/cceUylz3.s 			page 16


 464:Drivers/STM32F4xx_StdPeriph_Driver/src/stm32f4xx_sdio.c ****   */
 465:Drivers/STM32F4xx_StdPeriph_Driver/src/stm32f4xx_sdio.c **** uint32_t SDIO_GetResponse(uint32_t SDIO_RESP)
 466:Drivers/STM32F4xx_StdPeriph_Driver/src/stm32f4xx_sdio.c **** {
 410              		.loc 1 466 1 is_stmt 1 view -0
 411              		.cfi_startproc
 412              		@ args = 0, pretend = 0, frame = 8
 413              		@ frame_needed = 0, uses_anonymous_args = 0
 414              		@ link register save eliminated.
 415              		.loc 1 466 1 is_stmt 0 view .LVU99
 416 0000 82B0     		sub	sp, sp, #8
 417              		.cfi_def_cfa_offset 8
 467:Drivers/STM32F4xx_StdPeriph_Driver/src/stm32f4xx_sdio.c ****   __IO uint32_t tmp = 0;
 418              		.loc 1 467 3 is_stmt 1 view .LVU100
 419              		.loc 1 467 17 is_stmt 0 view .LVU101
 420 0002 0023     		movs	r3, #0
 421 0004 0193     		str	r3, [sp, #4]
 468:Drivers/STM32F4xx_StdPeriph_Driver/src/stm32f4xx_sdio.c **** 
 469:Drivers/STM32F4xx_StdPeriph_Driver/src/stm32f4xx_sdio.c ****   /* Check the parameters */
 470:Drivers/STM32F4xx_StdPeriph_Driver/src/stm32f4xx_sdio.c ****   assert_param(IS_SDIO_RESP(SDIO_RESP));
 422              		.loc 1 470 3 is_stmt 1 view .LVU102
 471:Drivers/STM32F4xx_StdPeriph_Driver/src/stm32f4xx_sdio.c **** 
 472:Drivers/STM32F4xx_StdPeriph_Driver/src/stm32f4xx_sdio.c ****   tmp = SDIO_RESP_ADDR + SDIO_RESP;
 423              		.loc 1 472 3 view .LVU103
 424              		.loc 1 472 24 is_stmt 0 view .LVU104
 425 0006 034B     		ldr	r3, .L27
 426 0008 0344     		add	r3, r3, r0
 427              		.loc 1 472 7 view .LVU105
 428 000a 0193     		str	r3, [sp, #4]
 473:Drivers/STM32F4xx_StdPeriph_Driver/src/stm32f4xx_sdio.c ****   
 474:Drivers/STM32F4xx_StdPeriph_Driver/src/stm32f4xx_sdio.c ****   return (*(__IO uint32_t *) tmp); 
 429              		.loc 1 474 3 is_stmt 1 view .LVU106
 430              		.loc 1 474 12 is_stmt 0 view .LVU107
 431 000c 019B     		ldr	r3, [sp, #4]
 432              		.loc 1 474 11 view .LVU108
 433 000e 1868     		ldr	r0, [r3]
 434              	.LVL21:
 475:Drivers/STM32F4xx_StdPeriph_Driver/src/stm32f4xx_sdio.c **** }
 435              		.loc 1 475 1 view .LVU109
 436 0010 02B0     		add	sp, sp, #8
 437              		.cfi_def_cfa_offset 0
 438              		@ sp needed
 439 0012 7047     		bx	lr
 440              	.L28:
 441              		.align	2
 442              	.L27:
 443 0014 142C0140 		.word	1073818644
 444              		.cfi_endproc
 445              	.LFE132:
 447              		.section	.text.SDIO_DataConfig,"ax",%progbits
 448              		.align	1
 449              		.global	SDIO_DataConfig
 450              		.syntax unified
 451              		.thumb
 452              		.thumb_func
 453              		.fpu fpv4-sp-d16
 455              	SDIO_DataConfig:
 456              	.LVL22:
ARM GAS  /tmp/cceUylz3.s 			page 17


 457              	.LFB133:
 476:Drivers/STM32F4xx_StdPeriph_Driver/src/stm32f4xx_sdio.c **** 
 477:Drivers/STM32F4xx_StdPeriph_Driver/src/stm32f4xx_sdio.c **** /**
 478:Drivers/STM32F4xx_StdPeriph_Driver/src/stm32f4xx_sdio.c ****   * @}
 479:Drivers/STM32F4xx_StdPeriph_Driver/src/stm32f4xx_sdio.c ****   */
 480:Drivers/STM32F4xx_StdPeriph_Driver/src/stm32f4xx_sdio.c **** 
 481:Drivers/STM32F4xx_StdPeriph_Driver/src/stm32f4xx_sdio.c **** /** @defgroup SDIO_Group3 Data path state machine (DPSM) management functions
 482:Drivers/STM32F4xx_StdPeriph_Driver/src/stm32f4xx_sdio.c ****  *  @brief   Data path state machine (DPSM) management functions
 483:Drivers/STM32F4xx_StdPeriph_Driver/src/stm32f4xx_sdio.c ****  *
 484:Drivers/STM32F4xx_StdPeriph_Driver/src/stm32f4xx_sdio.c **** @verbatim   
 485:Drivers/STM32F4xx_StdPeriph_Driver/src/stm32f4xx_sdio.c ****  ===============================================================================
 486:Drivers/STM32F4xx_StdPeriph_Driver/src/stm32f4xx_sdio.c ****          ##### Data path state machine (DPSM) management functions #####
 487:Drivers/STM32F4xx_StdPeriph_Driver/src/stm32f4xx_sdio.c ****  ===============================================================================  
 488:Drivers/STM32F4xx_StdPeriph_Driver/src/stm32f4xx_sdio.c **** 
 489:Drivers/STM32F4xx_StdPeriph_Driver/src/stm32f4xx_sdio.c ****   This section provide functions allowing to program and read the Data path 
 490:Drivers/STM32F4xx_StdPeriph_Driver/src/stm32f4xx_sdio.c ****   state machine (DPSM).
 491:Drivers/STM32F4xx_StdPeriph_Driver/src/stm32f4xx_sdio.c **** 
 492:Drivers/STM32F4xx_StdPeriph_Driver/src/stm32f4xx_sdio.c **** @endverbatim
 493:Drivers/STM32F4xx_StdPeriph_Driver/src/stm32f4xx_sdio.c ****   * @{
 494:Drivers/STM32F4xx_StdPeriph_Driver/src/stm32f4xx_sdio.c ****   */
 495:Drivers/STM32F4xx_StdPeriph_Driver/src/stm32f4xx_sdio.c **** 
 496:Drivers/STM32F4xx_StdPeriph_Driver/src/stm32f4xx_sdio.c **** /**
 497:Drivers/STM32F4xx_StdPeriph_Driver/src/stm32f4xx_sdio.c ****   * @brief  Initializes the SDIO data path according to the specified 
 498:Drivers/STM32F4xx_StdPeriph_Driver/src/stm32f4xx_sdio.c ****   *         parameters in the SDIO_DataInitStruct.
 499:Drivers/STM32F4xx_StdPeriph_Driver/src/stm32f4xx_sdio.c ****   * @param  SDIO_DataInitStruct : pointer to a SDIO_DataInitTypeDef structure 
 500:Drivers/STM32F4xx_StdPeriph_Driver/src/stm32f4xx_sdio.c ****   *         that contains the configuration information for the SDIO command.
 501:Drivers/STM32F4xx_StdPeriph_Driver/src/stm32f4xx_sdio.c ****   * @retval None
 502:Drivers/STM32F4xx_StdPeriph_Driver/src/stm32f4xx_sdio.c ****   */
 503:Drivers/STM32F4xx_StdPeriph_Driver/src/stm32f4xx_sdio.c **** void SDIO_DataConfig(SDIO_DataInitTypeDef* SDIO_DataInitStruct)
 504:Drivers/STM32F4xx_StdPeriph_Driver/src/stm32f4xx_sdio.c **** {
 458              		.loc 1 504 1 is_stmt 1 view -0
 459              		.cfi_startproc
 460              		@ args = 0, pretend = 0, frame = 0
 461              		@ frame_needed = 0, uses_anonymous_args = 0
 462              		@ link register save eliminated.
 463              		.loc 1 504 1 is_stmt 0 view .LVU111
 464 0000 10B4     		push	{r4}
 465              		.cfi_def_cfa_offset 4
 466              		.cfi_offset 4, -4
 505:Drivers/STM32F4xx_StdPeriph_Driver/src/stm32f4xx_sdio.c ****   uint32_t tmpreg = 0;
 467              		.loc 1 505 3 is_stmt 1 view .LVU112
 468              	.LVL23:
 506:Drivers/STM32F4xx_StdPeriph_Driver/src/stm32f4xx_sdio.c ****   
 507:Drivers/STM32F4xx_StdPeriph_Driver/src/stm32f4xx_sdio.c ****   /* Check the parameters */
 508:Drivers/STM32F4xx_StdPeriph_Driver/src/stm32f4xx_sdio.c ****   assert_param(IS_SDIO_DATA_LENGTH(SDIO_DataInitStruct->SDIO_DataLength));
 469              		.loc 1 508 3 view .LVU113
 509:Drivers/STM32F4xx_StdPeriph_Driver/src/stm32f4xx_sdio.c ****   assert_param(IS_SDIO_BLOCK_SIZE(SDIO_DataInitStruct->SDIO_DataBlockSize));
 470              		.loc 1 509 3 view .LVU114
 510:Drivers/STM32F4xx_StdPeriph_Driver/src/stm32f4xx_sdio.c ****   assert_param(IS_SDIO_TRANSFER_DIR(SDIO_DataInitStruct->SDIO_TransferDir));
 471              		.loc 1 510 3 view .LVU115
 511:Drivers/STM32F4xx_StdPeriph_Driver/src/stm32f4xx_sdio.c ****   assert_param(IS_SDIO_TRANSFER_MODE(SDIO_DataInitStruct->SDIO_TransferMode));
 472              		.loc 1 511 3 view .LVU116
 512:Drivers/STM32F4xx_StdPeriph_Driver/src/stm32f4xx_sdio.c ****   assert_param(IS_SDIO_DPSM(SDIO_DataInitStruct->SDIO_DPSM));
 473              		.loc 1 512 3 view .LVU117
 513:Drivers/STM32F4xx_StdPeriph_Driver/src/stm32f4xx_sdio.c **** 
 514:Drivers/STM32F4xx_StdPeriph_Driver/src/stm32f4xx_sdio.c **** /*---------------------------- SDIO DTIMER Configuration ---------------------*/
 515:Drivers/STM32F4xx_StdPeriph_Driver/src/stm32f4xx_sdio.c ****   /* Set the SDIO Data TimeOut value */
ARM GAS  /tmp/cceUylz3.s 			page 18


 516:Drivers/STM32F4xx_StdPeriph_Driver/src/stm32f4xx_sdio.c ****   SDIO->DTIMER = SDIO_DataInitStruct->SDIO_DataTimeOut;
 474              		.loc 1 516 3 view .LVU118
 475              		.loc 1 516 37 is_stmt 0 view .LVU119
 476 0002 0368     		ldr	r3, [r0]
 477              		.loc 1 516 16 view .LVU120
 478 0004 094A     		ldr	r2, .L31
 479 0006 5362     		str	r3, [r2, #36]
 517:Drivers/STM32F4xx_StdPeriph_Driver/src/stm32f4xx_sdio.c **** 
 518:Drivers/STM32F4xx_StdPeriph_Driver/src/stm32f4xx_sdio.c **** /*---------------------------- SDIO DLEN Configuration -----------------------*/
 519:Drivers/STM32F4xx_StdPeriph_Driver/src/stm32f4xx_sdio.c ****   /* Set the SDIO DataLength value */
 520:Drivers/STM32F4xx_StdPeriph_Driver/src/stm32f4xx_sdio.c ****   SDIO->DLEN = SDIO_DataInitStruct->SDIO_DataLength;
 480              		.loc 1 520 3 is_stmt 1 view .LVU121
 481              		.loc 1 520 35 is_stmt 0 view .LVU122
 482 0008 4368     		ldr	r3, [r0, #4]
 483              		.loc 1 520 14 view .LVU123
 484 000a 9362     		str	r3, [r2, #40]
 521:Drivers/STM32F4xx_StdPeriph_Driver/src/stm32f4xx_sdio.c **** 
 522:Drivers/STM32F4xx_StdPeriph_Driver/src/stm32f4xx_sdio.c **** /*---------------------------- SDIO DCTRL Configuration ----------------------*/  
 523:Drivers/STM32F4xx_StdPeriph_Driver/src/stm32f4xx_sdio.c ****   /* Get the SDIO DCTRL value */
 524:Drivers/STM32F4xx_StdPeriph_Driver/src/stm32f4xx_sdio.c ****   tmpreg = SDIO->DCTRL;
 485              		.loc 1 524 3 is_stmt 1 view .LVU124
 486              		.loc 1 524 10 is_stmt 0 view .LVU125
 487 000c D16A     		ldr	r1, [r2, #44]
 488              	.LVL24:
 525:Drivers/STM32F4xx_StdPeriph_Driver/src/stm32f4xx_sdio.c ****   /* Clear DEN, DTMODE, DTDIR and DBCKSIZE bits */
 526:Drivers/STM32F4xx_StdPeriph_Driver/src/stm32f4xx_sdio.c ****   tmpreg &= DCTRL_CLEAR_MASK;
 489              		.loc 1 526 3 is_stmt 1 view .LVU126
 490              		.loc 1 526 10 is_stmt 0 view .LVU127
 491 000e 21F0F701 		bic	r1, r1, #247
 492              	.LVL25:
 527:Drivers/STM32F4xx_StdPeriph_Driver/src/stm32f4xx_sdio.c ****   /* Set DEN bit according to SDIO_DPSM value */
 528:Drivers/STM32F4xx_StdPeriph_Driver/src/stm32f4xx_sdio.c ****   /* Set DTMODE bit according to SDIO_TransferMode value */
 529:Drivers/STM32F4xx_StdPeriph_Driver/src/stm32f4xx_sdio.c ****   /* Set DTDIR bit according to SDIO_TransferDir value */
 530:Drivers/STM32F4xx_StdPeriph_Driver/src/stm32f4xx_sdio.c ****   /* Set DBCKSIZE bits according to SDIO_DataBlockSize value */
 531:Drivers/STM32F4xx_StdPeriph_Driver/src/stm32f4xx_sdio.c ****   tmpreg |= (uint32_t)SDIO_DataInitStruct->SDIO_DataBlockSize | SDIO_DataInitStruct->SDIO_TransferD
 493              		.loc 1 531 3 is_stmt 1 view .LVU128
 494              		.loc 1 531 42 is_stmt 0 view .LVU129
 495 0012 8368     		ldr	r3, [r0, #8]
 496              		.loc 1 531 63 view .LVU130
 497 0014 C468     		ldr	r4, [r0, #12]
 498 0016 2343     		orrs	r3, r3, r4
 532:Drivers/STM32F4xx_StdPeriph_Driver/src/stm32f4xx_sdio.c ****            | SDIO_DataInitStruct->SDIO_TransferMode | SDIO_DataInitStruct->SDIO_DPSM;
 499              		.loc 1 532 12 view .LVU131
 500 0018 0469     		ldr	r4, [r0, #16]
 501 001a 2343     		orrs	r3, r3, r4
 502              		.loc 1 532 74 view .LVU132
 503 001c 4069     		ldr	r0, [r0, #20]
 504              	.LVL26:
 505              		.loc 1 532 53 view .LVU133
 506 001e 0343     		orrs	r3, r3, r0
 531:Drivers/STM32F4xx_StdPeriph_Driver/src/stm32f4xx_sdio.c ****            | SDIO_DataInitStruct->SDIO_TransferMode | SDIO_DataInitStruct->SDIO_DPSM;
 507              		.loc 1 531 10 view .LVU134
 508 0020 0B43     		orrs	r3, r3, r1
 509              	.LVL27:
 533:Drivers/STM32F4xx_StdPeriph_Driver/src/stm32f4xx_sdio.c **** 
 534:Drivers/STM32F4xx_StdPeriph_Driver/src/stm32f4xx_sdio.c ****   /* Write to SDIO DCTRL */
 535:Drivers/STM32F4xx_StdPeriph_Driver/src/stm32f4xx_sdio.c ****   SDIO->DCTRL = tmpreg;
ARM GAS  /tmp/cceUylz3.s 			page 19


 510              		.loc 1 535 3 is_stmt 1 view .LVU135
 511              		.loc 1 535 15 is_stmt 0 view .LVU136
 512 0022 D362     		str	r3, [r2, #44]
 536:Drivers/STM32F4xx_StdPeriph_Driver/src/stm32f4xx_sdio.c **** }
 513              		.loc 1 536 1 view .LVU137
 514 0024 5DF8044B 		ldr	r4, [sp], #4
 515              		.cfi_restore 4
 516              		.cfi_def_cfa_offset 0
 517 0028 7047     		bx	lr
 518              	.L32:
 519 002a 00BF     		.align	2
 520              	.L31:
 521 002c 002C0140 		.word	1073818624
 522              		.cfi_endproc
 523              	.LFE133:
 525              		.section	.text.SDIO_DataStructInit,"ax",%progbits
 526              		.align	1
 527              		.global	SDIO_DataStructInit
 528              		.syntax unified
 529              		.thumb
 530              		.thumb_func
 531              		.fpu fpv4-sp-d16
 533              	SDIO_DataStructInit:
 534              	.LVL28:
 535              	.LFB134:
 537:Drivers/STM32F4xx_StdPeriph_Driver/src/stm32f4xx_sdio.c **** 
 538:Drivers/STM32F4xx_StdPeriph_Driver/src/stm32f4xx_sdio.c **** /**
 539:Drivers/STM32F4xx_StdPeriph_Driver/src/stm32f4xx_sdio.c ****   * @brief  Fills each SDIO_DataInitStruct member with its default value.
 540:Drivers/STM32F4xx_StdPeriph_Driver/src/stm32f4xx_sdio.c ****   * @param  SDIO_DataInitStruct: pointer to an SDIO_DataInitTypeDef structure 
 541:Drivers/STM32F4xx_StdPeriph_Driver/src/stm32f4xx_sdio.c ****   *         which will be initialized.
 542:Drivers/STM32F4xx_StdPeriph_Driver/src/stm32f4xx_sdio.c ****   * @retval None
 543:Drivers/STM32F4xx_StdPeriph_Driver/src/stm32f4xx_sdio.c ****   */
 544:Drivers/STM32F4xx_StdPeriph_Driver/src/stm32f4xx_sdio.c **** void SDIO_DataStructInit(SDIO_DataInitTypeDef* SDIO_DataInitStruct)
 545:Drivers/STM32F4xx_StdPeriph_Driver/src/stm32f4xx_sdio.c **** {
 536              		.loc 1 545 1 is_stmt 1 view -0
 537              		.cfi_startproc
 538              		@ args = 0, pretend = 0, frame = 0
 539              		@ frame_needed = 0, uses_anonymous_args = 0
 540              		@ link register save eliminated.
 546:Drivers/STM32F4xx_StdPeriph_Driver/src/stm32f4xx_sdio.c ****   /* SDIO_DataInitStruct members default value */
 547:Drivers/STM32F4xx_StdPeriph_Driver/src/stm32f4xx_sdio.c ****   SDIO_DataInitStruct->SDIO_DataTimeOut = 0xFFFFFFFF;
 541              		.loc 1 547 3 view .LVU139
 542              		.loc 1 547 41 is_stmt 0 view .LVU140
 543 0000 4FF0FF33 		mov	r3, #-1
 544 0004 0360     		str	r3, [r0]
 548:Drivers/STM32F4xx_StdPeriph_Driver/src/stm32f4xx_sdio.c ****   SDIO_DataInitStruct->SDIO_DataLength = 0x00;
 545              		.loc 1 548 3 is_stmt 1 view .LVU141
 546              		.loc 1 548 40 is_stmt 0 view .LVU142
 547 0006 0023     		movs	r3, #0
 548 0008 4360     		str	r3, [r0, #4]
 549:Drivers/STM32F4xx_StdPeriph_Driver/src/stm32f4xx_sdio.c ****   SDIO_DataInitStruct->SDIO_DataBlockSize = SDIO_DataBlockSize_1b;
 549              		.loc 1 549 3 is_stmt 1 view .LVU143
 550              		.loc 1 549 43 is_stmt 0 view .LVU144
 551 000a 8360     		str	r3, [r0, #8]
 550:Drivers/STM32F4xx_StdPeriph_Driver/src/stm32f4xx_sdio.c ****   SDIO_DataInitStruct->SDIO_TransferDir = SDIO_TransferDir_ToCard;
 552              		.loc 1 550 3 is_stmt 1 view .LVU145
 553              		.loc 1 550 41 is_stmt 0 view .LVU146
ARM GAS  /tmp/cceUylz3.s 			page 20


 554 000c C360     		str	r3, [r0, #12]
 551:Drivers/STM32F4xx_StdPeriph_Driver/src/stm32f4xx_sdio.c ****   SDIO_DataInitStruct->SDIO_TransferMode = SDIO_TransferMode_Block;  
 555              		.loc 1 551 3 is_stmt 1 view .LVU147
 556              		.loc 1 551 42 is_stmt 0 view .LVU148
 557 000e 0361     		str	r3, [r0, #16]
 552:Drivers/STM32F4xx_StdPeriph_Driver/src/stm32f4xx_sdio.c ****   SDIO_DataInitStruct->SDIO_DPSM = SDIO_DPSM_Disable;
 558              		.loc 1 552 3 is_stmt 1 view .LVU149
 559              		.loc 1 552 34 is_stmt 0 view .LVU150
 560 0010 4361     		str	r3, [r0, #20]
 553:Drivers/STM32F4xx_StdPeriph_Driver/src/stm32f4xx_sdio.c **** }
 561              		.loc 1 553 1 view .LVU151
 562 0012 7047     		bx	lr
 563              		.cfi_endproc
 564              	.LFE134:
 566              		.section	.text.SDIO_GetDataCounter,"ax",%progbits
 567              		.align	1
 568              		.global	SDIO_GetDataCounter
 569              		.syntax unified
 570              		.thumb
 571              		.thumb_func
 572              		.fpu fpv4-sp-d16
 574              	SDIO_GetDataCounter:
 575              	.LFB135:
 554:Drivers/STM32F4xx_StdPeriph_Driver/src/stm32f4xx_sdio.c **** 
 555:Drivers/STM32F4xx_StdPeriph_Driver/src/stm32f4xx_sdio.c **** /**
 556:Drivers/STM32F4xx_StdPeriph_Driver/src/stm32f4xx_sdio.c ****   * @brief  Returns number of remaining data bytes to be transferred.
 557:Drivers/STM32F4xx_StdPeriph_Driver/src/stm32f4xx_sdio.c ****   * @param  None
 558:Drivers/STM32F4xx_StdPeriph_Driver/src/stm32f4xx_sdio.c ****   * @retval Number of remaining data bytes to be transferred
 559:Drivers/STM32F4xx_StdPeriph_Driver/src/stm32f4xx_sdio.c ****   */
 560:Drivers/STM32F4xx_StdPeriph_Driver/src/stm32f4xx_sdio.c **** uint32_t SDIO_GetDataCounter(void)
 561:Drivers/STM32F4xx_StdPeriph_Driver/src/stm32f4xx_sdio.c **** { 
 576              		.loc 1 561 1 is_stmt 1 view -0
 577              		.cfi_startproc
 578              		@ args = 0, pretend = 0, frame = 0
 579              		@ frame_needed = 0, uses_anonymous_args = 0
 580              		@ link register save eliminated.
 562:Drivers/STM32F4xx_StdPeriph_Driver/src/stm32f4xx_sdio.c ****   return SDIO->DCOUNT;
 581              		.loc 1 562 3 view .LVU153
 582              		.loc 1 562 14 is_stmt 0 view .LVU154
 583 0000 014B     		ldr	r3, .L35
 584 0002 186B     		ldr	r0, [r3, #48]
 563:Drivers/STM32F4xx_StdPeriph_Driver/src/stm32f4xx_sdio.c **** }
 585              		.loc 1 563 1 view .LVU155
 586 0004 7047     		bx	lr
 587              	.L36:
 588 0006 00BF     		.align	2
 589              	.L35:
 590 0008 002C0140 		.word	1073818624
 591              		.cfi_endproc
 592              	.LFE135:
 594              		.section	.text.SDIO_ReadData,"ax",%progbits
 595              		.align	1
 596              		.global	SDIO_ReadData
 597              		.syntax unified
 598              		.thumb
 599              		.thumb_func
 600              		.fpu fpv4-sp-d16
ARM GAS  /tmp/cceUylz3.s 			page 21


 602              	SDIO_ReadData:
 603              	.LFB136:
 564:Drivers/STM32F4xx_StdPeriph_Driver/src/stm32f4xx_sdio.c **** 
 565:Drivers/STM32F4xx_StdPeriph_Driver/src/stm32f4xx_sdio.c **** /**
 566:Drivers/STM32F4xx_StdPeriph_Driver/src/stm32f4xx_sdio.c ****   * @brief  Read one data word from Rx FIFO.
 567:Drivers/STM32F4xx_StdPeriph_Driver/src/stm32f4xx_sdio.c ****   * @param  None
 568:Drivers/STM32F4xx_StdPeriph_Driver/src/stm32f4xx_sdio.c ****   * @retval Data received
 569:Drivers/STM32F4xx_StdPeriph_Driver/src/stm32f4xx_sdio.c ****   */
 570:Drivers/STM32F4xx_StdPeriph_Driver/src/stm32f4xx_sdio.c **** uint32_t SDIO_ReadData(void)
 571:Drivers/STM32F4xx_StdPeriph_Driver/src/stm32f4xx_sdio.c **** { 
 604              		.loc 1 571 1 is_stmt 1 view -0
 605              		.cfi_startproc
 606              		@ args = 0, pretend = 0, frame = 0
 607              		@ frame_needed = 0, uses_anonymous_args = 0
 608              		@ link register save eliminated.
 572:Drivers/STM32F4xx_StdPeriph_Driver/src/stm32f4xx_sdio.c ****   return SDIO->FIFO;
 609              		.loc 1 572 3 view .LVU157
 610              		.loc 1 572 14 is_stmt 0 view .LVU158
 611 0000 014B     		ldr	r3, .L38
 612 0002 D3F88000 		ldr	r0, [r3, #128]
 573:Drivers/STM32F4xx_StdPeriph_Driver/src/stm32f4xx_sdio.c **** }
 613              		.loc 1 573 1 view .LVU159
 614 0006 7047     		bx	lr
 615              	.L39:
 616              		.align	2
 617              	.L38:
 618 0008 002C0140 		.word	1073818624
 619              		.cfi_endproc
 620              	.LFE136:
 622              		.section	.text.SDIO_WriteData,"ax",%progbits
 623              		.align	1
 624              		.global	SDIO_WriteData
 625              		.syntax unified
 626              		.thumb
 627              		.thumb_func
 628              		.fpu fpv4-sp-d16
 630              	SDIO_WriteData:
 631              	.LVL29:
 632              	.LFB137:
 574:Drivers/STM32F4xx_StdPeriph_Driver/src/stm32f4xx_sdio.c **** 
 575:Drivers/STM32F4xx_StdPeriph_Driver/src/stm32f4xx_sdio.c **** /**
 576:Drivers/STM32F4xx_StdPeriph_Driver/src/stm32f4xx_sdio.c ****   * @brief  Write one data word to Tx FIFO.
 577:Drivers/STM32F4xx_StdPeriph_Driver/src/stm32f4xx_sdio.c ****   * @param  Data: 32-bit data word to write.
 578:Drivers/STM32F4xx_StdPeriph_Driver/src/stm32f4xx_sdio.c ****   * @retval None
 579:Drivers/STM32F4xx_StdPeriph_Driver/src/stm32f4xx_sdio.c ****   */
 580:Drivers/STM32F4xx_StdPeriph_Driver/src/stm32f4xx_sdio.c **** void SDIO_WriteData(uint32_t Data)
 581:Drivers/STM32F4xx_StdPeriph_Driver/src/stm32f4xx_sdio.c **** { 
 633              		.loc 1 581 1 is_stmt 1 view -0
 634              		.cfi_startproc
 635              		@ args = 0, pretend = 0, frame = 0
 636              		@ frame_needed = 0, uses_anonymous_args = 0
 637              		@ link register save eliminated.
 582:Drivers/STM32F4xx_StdPeriph_Driver/src/stm32f4xx_sdio.c ****   SDIO->FIFO = Data;
 638              		.loc 1 582 3 view .LVU161
 639              		.loc 1 582 14 is_stmt 0 view .LVU162
 640 0000 014B     		ldr	r3, .L41
 641 0002 C3F88000 		str	r0, [r3, #128]
ARM GAS  /tmp/cceUylz3.s 			page 22


 583:Drivers/STM32F4xx_StdPeriph_Driver/src/stm32f4xx_sdio.c **** }
 642              		.loc 1 583 1 view .LVU163
 643 0006 7047     		bx	lr
 644              	.L42:
 645              		.align	2
 646              	.L41:
 647 0008 002C0140 		.word	1073818624
 648              		.cfi_endproc
 649              	.LFE137:
 651              		.section	.text.SDIO_GetFIFOCount,"ax",%progbits
 652              		.align	1
 653              		.global	SDIO_GetFIFOCount
 654              		.syntax unified
 655              		.thumb
 656              		.thumb_func
 657              		.fpu fpv4-sp-d16
 659              	SDIO_GetFIFOCount:
 660              	.LFB138:
 584:Drivers/STM32F4xx_StdPeriph_Driver/src/stm32f4xx_sdio.c **** 
 585:Drivers/STM32F4xx_StdPeriph_Driver/src/stm32f4xx_sdio.c **** /**
 586:Drivers/STM32F4xx_StdPeriph_Driver/src/stm32f4xx_sdio.c ****   * @brief  Returns the number of words left to be written to or read from FIFO.	
 587:Drivers/STM32F4xx_StdPeriph_Driver/src/stm32f4xx_sdio.c ****   * @param  None
 588:Drivers/STM32F4xx_StdPeriph_Driver/src/stm32f4xx_sdio.c ****   * @retval Remaining number of words.
 589:Drivers/STM32F4xx_StdPeriph_Driver/src/stm32f4xx_sdio.c ****   */
 590:Drivers/STM32F4xx_StdPeriph_Driver/src/stm32f4xx_sdio.c **** uint32_t SDIO_GetFIFOCount(void)
 591:Drivers/STM32F4xx_StdPeriph_Driver/src/stm32f4xx_sdio.c **** { 
 661              		.loc 1 591 1 is_stmt 1 view -0
 662              		.cfi_startproc
 663              		@ args = 0, pretend = 0, frame = 0
 664              		@ frame_needed = 0, uses_anonymous_args = 0
 665              		@ link register save eliminated.
 592:Drivers/STM32F4xx_StdPeriph_Driver/src/stm32f4xx_sdio.c ****   return SDIO->FIFOCNT;
 666              		.loc 1 592 3 view .LVU165
 667              		.loc 1 592 14 is_stmt 0 view .LVU166
 668 0000 014B     		ldr	r3, .L44
 669 0002 986C     		ldr	r0, [r3, #72]
 593:Drivers/STM32F4xx_StdPeriph_Driver/src/stm32f4xx_sdio.c **** }
 670              		.loc 1 593 1 view .LVU167
 671 0004 7047     		bx	lr
 672              	.L45:
 673 0006 00BF     		.align	2
 674              	.L44:
 675 0008 002C0140 		.word	1073818624
 676              		.cfi_endproc
 677              	.LFE138:
 679              		.section	.text.SDIO_StartSDIOReadWait,"ax",%progbits
 680              		.align	1
 681              		.global	SDIO_StartSDIOReadWait
 682              		.syntax unified
 683              		.thumb
 684              		.thumb_func
 685              		.fpu fpv4-sp-d16
 687              	SDIO_StartSDIOReadWait:
 688              	.LVL30:
 689              	.LFB139:
 594:Drivers/STM32F4xx_StdPeriph_Driver/src/stm32f4xx_sdio.c **** 
 595:Drivers/STM32F4xx_StdPeriph_Driver/src/stm32f4xx_sdio.c **** /**
ARM GAS  /tmp/cceUylz3.s 			page 23


 596:Drivers/STM32F4xx_StdPeriph_Driver/src/stm32f4xx_sdio.c ****   * @}
 597:Drivers/STM32F4xx_StdPeriph_Driver/src/stm32f4xx_sdio.c ****   */
 598:Drivers/STM32F4xx_StdPeriph_Driver/src/stm32f4xx_sdio.c **** 
 599:Drivers/STM32F4xx_StdPeriph_Driver/src/stm32f4xx_sdio.c **** /** @defgroup SDIO_Group4 SDIO IO Cards mode management functions
 600:Drivers/STM32F4xx_StdPeriph_Driver/src/stm32f4xx_sdio.c ****  *  @brief   SDIO IO Cards mode management functions
 601:Drivers/STM32F4xx_StdPeriph_Driver/src/stm32f4xx_sdio.c ****  *
 602:Drivers/STM32F4xx_StdPeriph_Driver/src/stm32f4xx_sdio.c **** @verbatim   
 603:Drivers/STM32F4xx_StdPeriph_Driver/src/stm32f4xx_sdio.c ****  ===============================================================================
 604:Drivers/STM32F4xx_StdPeriph_Driver/src/stm32f4xx_sdio.c ****                ##### SDIO IO Cards mode management functions #####
 605:Drivers/STM32F4xx_StdPeriph_Driver/src/stm32f4xx_sdio.c ****  ===============================================================================  
 606:Drivers/STM32F4xx_StdPeriph_Driver/src/stm32f4xx_sdio.c **** 
 607:Drivers/STM32F4xx_StdPeriph_Driver/src/stm32f4xx_sdio.c ****   This section provide functions allowing to program and read the SDIO IO Cards.
 608:Drivers/STM32F4xx_StdPeriph_Driver/src/stm32f4xx_sdio.c **** 
 609:Drivers/STM32F4xx_StdPeriph_Driver/src/stm32f4xx_sdio.c **** @endverbatim
 610:Drivers/STM32F4xx_StdPeriph_Driver/src/stm32f4xx_sdio.c ****   * @{
 611:Drivers/STM32F4xx_StdPeriph_Driver/src/stm32f4xx_sdio.c ****   */
 612:Drivers/STM32F4xx_StdPeriph_Driver/src/stm32f4xx_sdio.c **** 
 613:Drivers/STM32F4xx_StdPeriph_Driver/src/stm32f4xx_sdio.c **** /**
 614:Drivers/STM32F4xx_StdPeriph_Driver/src/stm32f4xx_sdio.c ****   * @brief  Starts the SD I/O Read Wait operation.	
 615:Drivers/STM32F4xx_StdPeriph_Driver/src/stm32f4xx_sdio.c ****   * @param  NewState: new state of the Start SDIO Read Wait operation. 
 616:Drivers/STM32F4xx_StdPeriph_Driver/src/stm32f4xx_sdio.c ****   *         This parameter can be: ENABLE or DISABLE.
 617:Drivers/STM32F4xx_StdPeriph_Driver/src/stm32f4xx_sdio.c ****   * @retval None
 618:Drivers/STM32F4xx_StdPeriph_Driver/src/stm32f4xx_sdio.c ****   */
 619:Drivers/STM32F4xx_StdPeriph_Driver/src/stm32f4xx_sdio.c **** void SDIO_StartSDIOReadWait(FunctionalState NewState)
 620:Drivers/STM32F4xx_StdPeriph_Driver/src/stm32f4xx_sdio.c **** { 
 690              		.loc 1 620 1 is_stmt 1 view -0
 691              		.cfi_startproc
 692              		@ args = 0, pretend = 0, frame = 0
 693              		@ frame_needed = 0, uses_anonymous_args = 0
 694              		@ link register save eliminated.
 621:Drivers/STM32F4xx_StdPeriph_Driver/src/stm32f4xx_sdio.c ****   /* Check the parameters */
 622:Drivers/STM32F4xx_StdPeriph_Driver/src/stm32f4xx_sdio.c ****   assert_param(IS_FUNCTIONAL_STATE(NewState));
 695              		.loc 1 622 3 view .LVU169
 623:Drivers/STM32F4xx_StdPeriph_Driver/src/stm32f4xx_sdio.c ****   
 624:Drivers/STM32F4xx_StdPeriph_Driver/src/stm32f4xx_sdio.c ****   *(__IO uint32_t *) DCTRL_RWSTART_BB = (uint32_t) NewState;
 696              		.loc 1 624 3 view .LVU170
 697              		.loc 1 624 39 is_stmt 0 view .LVU171
 698 0000 014B     		ldr	r3, .L47
 699 0002 C3F8A005 		str	r0, [r3, #1440]
 625:Drivers/STM32F4xx_StdPeriph_Driver/src/stm32f4xx_sdio.c **** }
 700              		.loc 1 625 1 view .LVU172
 701 0006 7047     		bx	lr
 702              	.L48:
 703              		.align	2
 704              	.L47:
 705 0008 00802542 		.word	1109753856
 706              		.cfi_endproc
 707              	.LFE139:
 709              		.section	.text.SDIO_StopSDIOReadWait,"ax",%progbits
 710              		.align	1
 711              		.global	SDIO_StopSDIOReadWait
 712              		.syntax unified
 713              		.thumb
 714              		.thumb_func
 715              		.fpu fpv4-sp-d16
 717              	SDIO_StopSDIOReadWait:
 718              	.LVL31:
ARM GAS  /tmp/cceUylz3.s 			page 24


 719              	.LFB140:
 626:Drivers/STM32F4xx_StdPeriph_Driver/src/stm32f4xx_sdio.c **** 
 627:Drivers/STM32F4xx_StdPeriph_Driver/src/stm32f4xx_sdio.c **** /**
 628:Drivers/STM32F4xx_StdPeriph_Driver/src/stm32f4xx_sdio.c ****   * @brief  Stops the SD I/O Read Wait operation.	
 629:Drivers/STM32F4xx_StdPeriph_Driver/src/stm32f4xx_sdio.c ****   * @param  NewState: new state of the Stop SDIO Read Wait operation. 
 630:Drivers/STM32F4xx_StdPeriph_Driver/src/stm32f4xx_sdio.c ****   *         This parameter can be: ENABLE or DISABLE.
 631:Drivers/STM32F4xx_StdPeriph_Driver/src/stm32f4xx_sdio.c ****   * @retval None
 632:Drivers/STM32F4xx_StdPeriph_Driver/src/stm32f4xx_sdio.c ****   */
 633:Drivers/STM32F4xx_StdPeriph_Driver/src/stm32f4xx_sdio.c **** void SDIO_StopSDIOReadWait(FunctionalState NewState)
 634:Drivers/STM32F4xx_StdPeriph_Driver/src/stm32f4xx_sdio.c **** { 
 720              		.loc 1 634 1 is_stmt 1 view -0
 721              		.cfi_startproc
 722              		@ args = 0, pretend = 0, frame = 0
 723              		@ frame_needed = 0, uses_anonymous_args = 0
 724              		@ link register save eliminated.
 635:Drivers/STM32F4xx_StdPeriph_Driver/src/stm32f4xx_sdio.c ****   /* Check the parameters */
 636:Drivers/STM32F4xx_StdPeriph_Driver/src/stm32f4xx_sdio.c ****   assert_param(IS_FUNCTIONAL_STATE(NewState));
 725              		.loc 1 636 3 view .LVU174
 637:Drivers/STM32F4xx_StdPeriph_Driver/src/stm32f4xx_sdio.c ****   
 638:Drivers/STM32F4xx_StdPeriph_Driver/src/stm32f4xx_sdio.c ****   *(__IO uint32_t *) DCTRL_RWSTOP_BB = (uint32_t) NewState;
 726              		.loc 1 638 3 view .LVU175
 727              		.loc 1 638 38 is_stmt 0 view .LVU176
 728 0000 014B     		ldr	r3, .L50
 729 0002 C3F8A405 		str	r0, [r3, #1444]
 639:Drivers/STM32F4xx_StdPeriph_Driver/src/stm32f4xx_sdio.c **** }
 730              		.loc 1 639 1 view .LVU177
 731 0006 7047     		bx	lr
 732              	.L51:
 733              		.align	2
 734              	.L50:
 735 0008 00802542 		.word	1109753856
 736              		.cfi_endproc
 737              	.LFE140:
 739              		.section	.text.SDIO_SetSDIOReadWaitMode,"ax",%progbits
 740              		.align	1
 741              		.global	SDIO_SetSDIOReadWaitMode
 742              		.syntax unified
 743              		.thumb
 744              		.thumb_func
 745              		.fpu fpv4-sp-d16
 747              	SDIO_SetSDIOReadWaitMode:
 748              	.LVL32:
 749              	.LFB141:
 640:Drivers/STM32F4xx_StdPeriph_Driver/src/stm32f4xx_sdio.c **** 
 641:Drivers/STM32F4xx_StdPeriph_Driver/src/stm32f4xx_sdio.c **** /**
 642:Drivers/STM32F4xx_StdPeriph_Driver/src/stm32f4xx_sdio.c ****   * @brief  Sets one of the two options of inserting read wait interval.
 643:Drivers/STM32F4xx_StdPeriph_Driver/src/stm32f4xx_sdio.c ****   * @param  SDIO_ReadWaitMode: SD I/O Read Wait operation mode.
 644:Drivers/STM32F4xx_StdPeriph_Driver/src/stm32f4xx_sdio.c ****   *          This parameter can be:
 645:Drivers/STM32F4xx_StdPeriph_Driver/src/stm32f4xx_sdio.c ****   *            @arg SDIO_ReadWaitMode_CLK: Read Wait control by stopping SDIOCLK
 646:Drivers/STM32F4xx_StdPeriph_Driver/src/stm32f4xx_sdio.c ****   *            @arg SDIO_ReadWaitMode_DATA2: Read Wait control using SDIO_DATA2
 647:Drivers/STM32F4xx_StdPeriph_Driver/src/stm32f4xx_sdio.c ****   * @retval None
 648:Drivers/STM32F4xx_StdPeriph_Driver/src/stm32f4xx_sdio.c ****   */
 649:Drivers/STM32F4xx_StdPeriph_Driver/src/stm32f4xx_sdio.c **** void SDIO_SetSDIOReadWaitMode(uint32_t SDIO_ReadWaitMode)
 650:Drivers/STM32F4xx_StdPeriph_Driver/src/stm32f4xx_sdio.c **** {
 750              		.loc 1 650 1 is_stmt 1 view -0
 751              		.cfi_startproc
 752              		@ args = 0, pretend = 0, frame = 0
ARM GAS  /tmp/cceUylz3.s 			page 25


 753              		@ frame_needed = 0, uses_anonymous_args = 0
 754              		@ link register save eliminated.
 651:Drivers/STM32F4xx_StdPeriph_Driver/src/stm32f4xx_sdio.c ****   /* Check the parameters */
 652:Drivers/STM32F4xx_StdPeriph_Driver/src/stm32f4xx_sdio.c ****   assert_param(IS_SDIO_READWAIT_MODE(SDIO_ReadWaitMode));
 755              		.loc 1 652 3 view .LVU179
 653:Drivers/STM32F4xx_StdPeriph_Driver/src/stm32f4xx_sdio.c ****   
 654:Drivers/STM32F4xx_StdPeriph_Driver/src/stm32f4xx_sdio.c ****   *(__IO uint32_t *) DCTRL_RWMOD_BB = SDIO_ReadWaitMode;
 756              		.loc 1 654 3 view .LVU180
 757              		.loc 1 654 37 is_stmt 0 view .LVU181
 758 0000 014B     		ldr	r3, .L53
 759 0002 C3F8A805 		str	r0, [r3, #1448]
 655:Drivers/STM32F4xx_StdPeriph_Driver/src/stm32f4xx_sdio.c **** }
 760              		.loc 1 655 1 view .LVU182
 761 0006 7047     		bx	lr
 762              	.L54:
 763              		.align	2
 764              	.L53:
 765 0008 00802542 		.word	1109753856
 766              		.cfi_endproc
 767              	.LFE141:
 769              		.section	.text.SDIO_SetSDIOOperation,"ax",%progbits
 770              		.align	1
 771              		.global	SDIO_SetSDIOOperation
 772              		.syntax unified
 773              		.thumb
 774              		.thumb_func
 775              		.fpu fpv4-sp-d16
 777              	SDIO_SetSDIOOperation:
 778              	.LVL33:
 779              	.LFB142:
 656:Drivers/STM32F4xx_StdPeriph_Driver/src/stm32f4xx_sdio.c **** 
 657:Drivers/STM32F4xx_StdPeriph_Driver/src/stm32f4xx_sdio.c **** /**
 658:Drivers/STM32F4xx_StdPeriph_Driver/src/stm32f4xx_sdio.c ****   * @brief  Enables or disables the SD I/O Mode Operation.
 659:Drivers/STM32F4xx_StdPeriph_Driver/src/stm32f4xx_sdio.c ****   * @param  NewState: new state of SDIO specific operation. 
 660:Drivers/STM32F4xx_StdPeriph_Driver/src/stm32f4xx_sdio.c ****   *         This parameter can be: ENABLE or DISABLE.
 661:Drivers/STM32F4xx_StdPeriph_Driver/src/stm32f4xx_sdio.c ****   * @retval None
 662:Drivers/STM32F4xx_StdPeriph_Driver/src/stm32f4xx_sdio.c ****   */
 663:Drivers/STM32F4xx_StdPeriph_Driver/src/stm32f4xx_sdio.c **** void SDIO_SetSDIOOperation(FunctionalState NewState)
 664:Drivers/STM32F4xx_StdPeriph_Driver/src/stm32f4xx_sdio.c **** { 
 780              		.loc 1 664 1 is_stmt 1 view -0
 781              		.cfi_startproc
 782              		@ args = 0, pretend = 0, frame = 0
 783              		@ frame_needed = 0, uses_anonymous_args = 0
 784              		@ link register save eliminated.
 665:Drivers/STM32F4xx_StdPeriph_Driver/src/stm32f4xx_sdio.c ****   /* Check the parameters */
 666:Drivers/STM32F4xx_StdPeriph_Driver/src/stm32f4xx_sdio.c ****   assert_param(IS_FUNCTIONAL_STATE(NewState));
 785              		.loc 1 666 3 view .LVU184
 667:Drivers/STM32F4xx_StdPeriph_Driver/src/stm32f4xx_sdio.c ****   
 668:Drivers/STM32F4xx_StdPeriph_Driver/src/stm32f4xx_sdio.c ****   *(__IO uint32_t *) DCTRL_SDIOEN_BB = (uint32_t)NewState;
 786              		.loc 1 668 3 view .LVU185
 787              		.loc 1 668 38 is_stmt 0 view .LVU186
 788 0000 014B     		ldr	r3, .L56
 789 0002 C3F8AC05 		str	r0, [r3, #1452]
 669:Drivers/STM32F4xx_StdPeriph_Driver/src/stm32f4xx_sdio.c **** }
 790              		.loc 1 669 1 view .LVU187
 791 0006 7047     		bx	lr
 792              	.L57:
ARM GAS  /tmp/cceUylz3.s 			page 26


 793              		.align	2
 794              	.L56:
 795 0008 00802542 		.word	1109753856
 796              		.cfi_endproc
 797              	.LFE142:
 799              		.section	.text.SDIO_SendSDIOSuspendCmd,"ax",%progbits
 800              		.align	1
 801              		.global	SDIO_SendSDIOSuspendCmd
 802              		.syntax unified
 803              		.thumb
 804              		.thumb_func
 805              		.fpu fpv4-sp-d16
 807              	SDIO_SendSDIOSuspendCmd:
 808              	.LVL34:
 809              	.LFB143:
 670:Drivers/STM32F4xx_StdPeriph_Driver/src/stm32f4xx_sdio.c **** 
 671:Drivers/STM32F4xx_StdPeriph_Driver/src/stm32f4xx_sdio.c **** /**
 672:Drivers/STM32F4xx_StdPeriph_Driver/src/stm32f4xx_sdio.c ****   * @brief  Enables or disables the SD I/O Mode suspend command sending.
 673:Drivers/STM32F4xx_StdPeriph_Driver/src/stm32f4xx_sdio.c ****   * @param  NewState: new state of the SD I/O Mode suspend command.
 674:Drivers/STM32F4xx_StdPeriph_Driver/src/stm32f4xx_sdio.c ****   *         This parameter can be: ENABLE or DISABLE.
 675:Drivers/STM32F4xx_StdPeriph_Driver/src/stm32f4xx_sdio.c ****   * @retval None
 676:Drivers/STM32F4xx_StdPeriph_Driver/src/stm32f4xx_sdio.c ****   */
 677:Drivers/STM32F4xx_StdPeriph_Driver/src/stm32f4xx_sdio.c **** void SDIO_SendSDIOSuspendCmd(FunctionalState NewState)
 678:Drivers/STM32F4xx_StdPeriph_Driver/src/stm32f4xx_sdio.c **** { 
 810              		.loc 1 678 1 is_stmt 1 view -0
 811              		.cfi_startproc
 812              		@ args = 0, pretend = 0, frame = 0
 813              		@ frame_needed = 0, uses_anonymous_args = 0
 814              		@ link register save eliminated.
 679:Drivers/STM32F4xx_StdPeriph_Driver/src/stm32f4xx_sdio.c ****   /* Check the parameters */
 680:Drivers/STM32F4xx_StdPeriph_Driver/src/stm32f4xx_sdio.c ****   assert_param(IS_FUNCTIONAL_STATE(NewState));
 815              		.loc 1 680 3 view .LVU189
 681:Drivers/STM32F4xx_StdPeriph_Driver/src/stm32f4xx_sdio.c ****   
 682:Drivers/STM32F4xx_StdPeriph_Driver/src/stm32f4xx_sdio.c ****   *(__IO uint32_t *) CMD_SDIOSUSPEND_BB = (uint32_t)NewState;
 816              		.loc 1 682 3 view .LVU190
 817              		.loc 1 682 41 is_stmt 0 view .LVU191
 818 0000 014B     		ldr	r3, .L59
 819 0002 C3F8AC01 		str	r0, [r3, #428]
 683:Drivers/STM32F4xx_StdPeriph_Driver/src/stm32f4xx_sdio.c **** }
 820              		.loc 1 683 1 view .LVU192
 821 0006 7047     		bx	lr
 822              	.L60:
 823              		.align	2
 824              	.L59:
 825 0008 00802542 		.word	1109753856
 826              		.cfi_endproc
 827              	.LFE143:
 829              		.section	.text.SDIO_CommandCompletionCmd,"ax",%progbits
 830              		.align	1
 831              		.global	SDIO_CommandCompletionCmd
 832              		.syntax unified
 833              		.thumb
 834              		.thumb_func
 835              		.fpu fpv4-sp-d16
 837              	SDIO_CommandCompletionCmd:
 838              	.LVL35:
 839              	.LFB144:
ARM GAS  /tmp/cceUylz3.s 			page 27


 684:Drivers/STM32F4xx_StdPeriph_Driver/src/stm32f4xx_sdio.c **** 
 685:Drivers/STM32F4xx_StdPeriph_Driver/src/stm32f4xx_sdio.c **** /**
 686:Drivers/STM32F4xx_StdPeriph_Driver/src/stm32f4xx_sdio.c ****   * @}
 687:Drivers/STM32F4xx_StdPeriph_Driver/src/stm32f4xx_sdio.c ****   */
 688:Drivers/STM32F4xx_StdPeriph_Driver/src/stm32f4xx_sdio.c **** 
 689:Drivers/STM32F4xx_StdPeriph_Driver/src/stm32f4xx_sdio.c **** /** @defgroup SDIO_Group5 CE-ATA mode management functions
 690:Drivers/STM32F4xx_StdPeriph_Driver/src/stm32f4xx_sdio.c ****  *  @brief   CE-ATA mode management functions
 691:Drivers/STM32F4xx_StdPeriph_Driver/src/stm32f4xx_sdio.c ****  *
 692:Drivers/STM32F4xx_StdPeriph_Driver/src/stm32f4xx_sdio.c **** @verbatim   
 693:Drivers/STM32F4xx_StdPeriph_Driver/src/stm32f4xx_sdio.c ****  ===============================================================================
 694:Drivers/STM32F4xx_StdPeriph_Driver/src/stm32f4xx_sdio.c ****                   ##### CE-ATA mode management functions #####
 695:Drivers/STM32F4xx_StdPeriph_Driver/src/stm32f4xx_sdio.c ****  ===============================================================================  
 696:Drivers/STM32F4xx_StdPeriph_Driver/src/stm32f4xx_sdio.c **** 
 697:Drivers/STM32F4xx_StdPeriph_Driver/src/stm32f4xx_sdio.c ****   This section provide functions allowing to program and read the CE-ATA card.
 698:Drivers/STM32F4xx_StdPeriph_Driver/src/stm32f4xx_sdio.c **** 
 699:Drivers/STM32F4xx_StdPeriph_Driver/src/stm32f4xx_sdio.c **** @endverbatim
 700:Drivers/STM32F4xx_StdPeriph_Driver/src/stm32f4xx_sdio.c ****   * @{
 701:Drivers/STM32F4xx_StdPeriph_Driver/src/stm32f4xx_sdio.c ****   */
 702:Drivers/STM32F4xx_StdPeriph_Driver/src/stm32f4xx_sdio.c **** 
 703:Drivers/STM32F4xx_StdPeriph_Driver/src/stm32f4xx_sdio.c **** /**
 704:Drivers/STM32F4xx_StdPeriph_Driver/src/stm32f4xx_sdio.c ****   * @brief  Enables or disables the command completion signal.
 705:Drivers/STM32F4xx_StdPeriph_Driver/src/stm32f4xx_sdio.c ****   * @param  NewState: new state of command completion signal. 
 706:Drivers/STM32F4xx_StdPeriph_Driver/src/stm32f4xx_sdio.c ****   *         This parameter can be: ENABLE or DISABLE.
 707:Drivers/STM32F4xx_StdPeriph_Driver/src/stm32f4xx_sdio.c ****   * @retval None
 708:Drivers/STM32F4xx_StdPeriph_Driver/src/stm32f4xx_sdio.c ****   */
 709:Drivers/STM32F4xx_StdPeriph_Driver/src/stm32f4xx_sdio.c **** void SDIO_CommandCompletionCmd(FunctionalState NewState)
 710:Drivers/STM32F4xx_StdPeriph_Driver/src/stm32f4xx_sdio.c **** { 
 840              		.loc 1 710 1 is_stmt 1 view -0
 841              		.cfi_startproc
 842              		@ args = 0, pretend = 0, frame = 0
 843              		@ frame_needed = 0, uses_anonymous_args = 0
 844              		@ link register save eliminated.
 711:Drivers/STM32F4xx_StdPeriph_Driver/src/stm32f4xx_sdio.c ****   /* Check the parameters */
 712:Drivers/STM32F4xx_StdPeriph_Driver/src/stm32f4xx_sdio.c ****   assert_param(IS_FUNCTIONAL_STATE(NewState));
 845              		.loc 1 712 3 view .LVU194
 713:Drivers/STM32F4xx_StdPeriph_Driver/src/stm32f4xx_sdio.c ****   
 714:Drivers/STM32F4xx_StdPeriph_Driver/src/stm32f4xx_sdio.c ****   *(__IO uint32_t *) CMD_ENCMDCOMPL_BB = (uint32_t)NewState;
 846              		.loc 1 714 3 view .LVU195
 847              		.loc 1 714 40 is_stmt 0 view .LVU196
 848 0000 014B     		ldr	r3, .L62
 849 0002 C3F8B001 		str	r0, [r3, #432]
 715:Drivers/STM32F4xx_StdPeriph_Driver/src/stm32f4xx_sdio.c **** }
 850              		.loc 1 715 1 view .LVU197
 851 0006 7047     		bx	lr
 852              	.L63:
 853              		.align	2
 854              	.L62:
 855 0008 00802542 		.word	1109753856
 856              		.cfi_endproc
 857              	.LFE144:
 859              		.section	.text.SDIO_CEATAITCmd,"ax",%progbits
 860              		.align	1
 861              		.global	SDIO_CEATAITCmd
 862              		.syntax unified
 863              		.thumb
 864              		.thumb_func
 865              		.fpu fpv4-sp-d16
ARM GAS  /tmp/cceUylz3.s 			page 28


 867              	SDIO_CEATAITCmd:
 868              	.LVL36:
 869              	.LFB145:
 716:Drivers/STM32F4xx_StdPeriph_Driver/src/stm32f4xx_sdio.c **** 
 717:Drivers/STM32F4xx_StdPeriph_Driver/src/stm32f4xx_sdio.c **** /**
 718:Drivers/STM32F4xx_StdPeriph_Driver/src/stm32f4xx_sdio.c ****   * @brief  Enables or disables the CE-ATA interrupt.
 719:Drivers/STM32F4xx_StdPeriph_Driver/src/stm32f4xx_sdio.c ****   * @param  NewState: new state of CE-ATA interrupt. 
 720:Drivers/STM32F4xx_StdPeriph_Driver/src/stm32f4xx_sdio.c ****   *         This parameter can be: ENABLE or DISABLE.
 721:Drivers/STM32F4xx_StdPeriph_Driver/src/stm32f4xx_sdio.c ****   * @retval None
 722:Drivers/STM32F4xx_StdPeriph_Driver/src/stm32f4xx_sdio.c ****   */
 723:Drivers/STM32F4xx_StdPeriph_Driver/src/stm32f4xx_sdio.c **** void SDIO_CEATAITCmd(FunctionalState NewState)
 724:Drivers/STM32F4xx_StdPeriph_Driver/src/stm32f4xx_sdio.c **** { 
 870              		.loc 1 724 1 is_stmt 1 view -0
 871              		.cfi_startproc
 872              		@ args = 0, pretend = 0, frame = 0
 873              		@ frame_needed = 0, uses_anonymous_args = 0
 874              		@ link register save eliminated.
 725:Drivers/STM32F4xx_StdPeriph_Driver/src/stm32f4xx_sdio.c ****   /* Check the parameters */
 726:Drivers/STM32F4xx_StdPeriph_Driver/src/stm32f4xx_sdio.c ****   assert_param(IS_FUNCTIONAL_STATE(NewState));
 875              		.loc 1 726 3 view .LVU199
 727:Drivers/STM32F4xx_StdPeriph_Driver/src/stm32f4xx_sdio.c ****   
 728:Drivers/STM32F4xx_StdPeriph_Driver/src/stm32f4xx_sdio.c ****   *(__IO uint32_t *) CMD_NIEN_BB = (uint32_t)((~((uint32_t)NewState)) & ((uint32_t)0x1));
 876              		.loc 1 728 3 view .LVU200
 877              		.loc 1 728 36 is_stmt 0 view .LVU201
 878 0000 80F00100 		eor	r0, r0, #1
 879              	.LVL37:
 880              		.loc 1 728 36 view .LVU202
 881 0004 00F00100 		and	r0, r0, #1
 882              		.loc 1 728 34 view .LVU203
 883 0008 014B     		ldr	r3, .L65
 884 000a C3F8B401 		str	r0, [r3, #436]
 729:Drivers/STM32F4xx_StdPeriph_Driver/src/stm32f4xx_sdio.c **** }
 885              		.loc 1 729 1 view .LVU204
 886 000e 7047     		bx	lr
 887              	.L66:
 888              		.align	2
 889              	.L65:
 890 0010 00802542 		.word	1109753856
 891              		.cfi_endproc
 892              	.LFE145:
 894              		.section	.text.SDIO_SendCEATACmd,"ax",%progbits
 895              		.align	1
 896              		.global	SDIO_SendCEATACmd
 897              		.syntax unified
 898              		.thumb
 899              		.thumb_func
 900              		.fpu fpv4-sp-d16
 902              	SDIO_SendCEATACmd:
 903              	.LVL38:
 904              	.LFB146:
 730:Drivers/STM32F4xx_StdPeriph_Driver/src/stm32f4xx_sdio.c **** 
 731:Drivers/STM32F4xx_StdPeriph_Driver/src/stm32f4xx_sdio.c **** /**
 732:Drivers/STM32F4xx_StdPeriph_Driver/src/stm32f4xx_sdio.c ****   * @brief  Sends CE-ATA command (CMD61).
 733:Drivers/STM32F4xx_StdPeriph_Driver/src/stm32f4xx_sdio.c ****   * @param  NewState: new state of CE-ATA command. 
 734:Drivers/STM32F4xx_StdPeriph_Driver/src/stm32f4xx_sdio.c ****   *         This parameter can be: ENABLE or DISABLE.
 735:Drivers/STM32F4xx_StdPeriph_Driver/src/stm32f4xx_sdio.c ****   * @retval None
 736:Drivers/STM32F4xx_StdPeriph_Driver/src/stm32f4xx_sdio.c ****   */
ARM GAS  /tmp/cceUylz3.s 			page 29


 737:Drivers/STM32F4xx_StdPeriph_Driver/src/stm32f4xx_sdio.c **** void SDIO_SendCEATACmd(FunctionalState NewState)
 738:Drivers/STM32F4xx_StdPeriph_Driver/src/stm32f4xx_sdio.c **** { 
 905              		.loc 1 738 1 is_stmt 1 view -0
 906              		.cfi_startproc
 907              		@ args = 0, pretend = 0, frame = 0
 908              		@ frame_needed = 0, uses_anonymous_args = 0
 909              		@ link register save eliminated.
 739:Drivers/STM32F4xx_StdPeriph_Driver/src/stm32f4xx_sdio.c ****   /* Check the parameters */
 740:Drivers/STM32F4xx_StdPeriph_Driver/src/stm32f4xx_sdio.c ****   assert_param(IS_FUNCTIONAL_STATE(NewState));
 910              		.loc 1 740 3 view .LVU206
 741:Drivers/STM32F4xx_StdPeriph_Driver/src/stm32f4xx_sdio.c ****   
 742:Drivers/STM32F4xx_StdPeriph_Driver/src/stm32f4xx_sdio.c ****   *(__IO uint32_t *) CMD_ATACMD_BB = (uint32_t)NewState;
 911              		.loc 1 742 3 view .LVU207
 912              		.loc 1 742 36 is_stmt 0 view .LVU208
 913 0000 014B     		ldr	r3, .L68
 914 0002 C3F8B801 		str	r0, [r3, #440]
 743:Drivers/STM32F4xx_StdPeriph_Driver/src/stm32f4xx_sdio.c **** }
 915              		.loc 1 743 1 view .LVU209
 916 0006 7047     		bx	lr
 917              	.L69:
 918              		.align	2
 919              	.L68:
 920 0008 00802542 		.word	1109753856
 921              		.cfi_endproc
 922              	.LFE146:
 924              		.section	.text.SDIO_DMACmd,"ax",%progbits
 925              		.align	1
 926              		.global	SDIO_DMACmd
 927              		.syntax unified
 928              		.thumb
 929              		.thumb_func
 930              		.fpu fpv4-sp-d16
 932              	SDIO_DMACmd:
 933              	.LVL39:
 934              	.LFB147:
 744:Drivers/STM32F4xx_StdPeriph_Driver/src/stm32f4xx_sdio.c **** 
 745:Drivers/STM32F4xx_StdPeriph_Driver/src/stm32f4xx_sdio.c **** /**
 746:Drivers/STM32F4xx_StdPeriph_Driver/src/stm32f4xx_sdio.c ****   * @}
 747:Drivers/STM32F4xx_StdPeriph_Driver/src/stm32f4xx_sdio.c ****   */
 748:Drivers/STM32F4xx_StdPeriph_Driver/src/stm32f4xx_sdio.c **** 
 749:Drivers/STM32F4xx_StdPeriph_Driver/src/stm32f4xx_sdio.c **** /** @defgroup SDIO_Group6 DMA transfers management functions
 750:Drivers/STM32F4xx_StdPeriph_Driver/src/stm32f4xx_sdio.c ****  *  @brief   DMA transfers management functions
 751:Drivers/STM32F4xx_StdPeriph_Driver/src/stm32f4xx_sdio.c ****  *
 752:Drivers/STM32F4xx_StdPeriph_Driver/src/stm32f4xx_sdio.c **** @verbatim   
 753:Drivers/STM32F4xx_StdPeriph_Driver/src/stm32f4xx_sdio.c ****  ===============================================================================
 754:Drivers/STM32F4xx_StdPeriph_Driver/src/stm32f4xx_sdio.c ****                   ##### DMA transfers management functions #####
 755:Drivers/STM32F4xx_StdPeriph_Driver/src/stm32f4xx_sdio.c ****  ===============================================================================  
 756:Drivers/STM32F4xx_StdPeriph_Driver/src/stm32f4xx_sdio.c **** 
 757:Drivers/STM32F4xx_StdPeriph_Driver/src/stm32f4xx_sdio.c ****   This section provide functions allowing to program SDIO DMA transfer.
 758:Drivers/STM32F4xx_StdPeriph_Driver/src/stm32f4xx_sdio.c **** 
 759:Drivers/STM32F4xx_StdPeriph_Driver/src/stm32f4xx_sdio.c **** @endverbatim
 760:Drivers/STM32F4xx_StdPeriph_Driver/src/stm32f4xx_sdio.c ****   * @{
 761:Drivers/STM32F4xx_StdPeriph_Driver/src/stm32f4xx_sdio.c ****   */
 762:Drivers/STM32F4xx_StdPeriph_Driver/src/stm32f4xx_sdio.c **** 
 763:Drivers/STM32F4xx_StdPeriph_Driver/src/stm32f4xx_sdio.c **** /**
 764:Drivers/STM32F4xx_StdPeriph_Driver/src/stm32f4xx_sdio.c ****   * @brief  Enables or disables the SDIO DMA request.
 765:Drivers/STM32F4xx_StdPeriph_Driver/src/stm32f4xx_sdio.c ****   * @param  NewState: new state of the selected SDIO DMA request.
ARM GAS  /tmp/cceUylz3.s 			page 30


 766:Drivers/STM32F4xx_StdPeriph_Driver/src/stm32f4xx_sdio.c ****   *          This parameter can be: ENABLE or DISABLE.
 767:Drivers/STM32F4xx_StdPeriph_Driver/src/stm32f4xx_sdio.c ****   * @retval None
 768:Drivers/STM32F4xx_StdPeriph_Driver/src/stm32f4xx_sdio.c ****   */
 769:Drivers/STM32F4xx_StdPeriph_Driver/src/stm32f4xx_sdio.c **** void SDIO_DMACmd(FunctionalState NewState)
 770:Drivers/STM32F4xx_StdPeriph_Driver/src/stm32f4xx_sdio.c **** {
 935              		.loc 1 770 1 is_stmt 1 view -0
 936              		.cfi_startproc
 937              		@ args = 0, pretend = 0, frame = 0
 938              		@ frame_needed = 0, uses_anonymous_args = 0
 939              		@ link register save eliminated.
 771:Drivers/STM32F4xx_StdPeriph_Driver/src/stm32f4xx_sdio.c ****   /* Check the parameters */
 772:Drivers/STM32F4xx_StdPeriph_Driver/src/stm32f4xx_sdio.c ****   assert_param(IS_FUNCTIONAL_STATE(NewState));
 940              		.loc 1 772 3 view .LVU211
 773:Drivers/STM32F4xx_StdPeriph_Driver/src/stm32f4xx_sdio.c ****   
 774:Drivers/STM32F4xx_StdPeriph_Driver/src/stm32f4xx_sdio.c ****   *(__IO uint32_t *) DCTRL_DMAEN_BB = (uint32_t)NewState;
 941              		.loc 1 774 3 view .LVU212
 942              		.loc 1 774 37 is_stmt 0 view .LVU213
 943 0000 014B     		ldr	r3, .L71
 944 0002 C3F88C05 		str	r0, [r3, #1420]
 775:Drivers/STM32F4xx_StdPeriph_Driver/src/stm32f4xx_sdio.c **** }
 945              		.loc 1 775 1 view .LVU214
 946 0006 7047     		bx	lr
 947              	.L72:
 948              		.align	2
 949              	.L71:
 950 0008 00802542 		.word	1109753856
 951              		.cfi_endproc
 952              	.LFE147:
 954              		.section	.text.SDIO_ITConfig,"ax",%progbits
 955              		.align	1
 956              		.global	SDIO_ITConfig
 957              		.syntax unified
 958              		.thumb
 959              		.thumb_func
 960              		.fpu fpv4-sp-d16
 962              	SDIO_ITConfig:
 963              	.LVL40:
 964              	.LFB148:
 776:Drivers/STM32F4xx_StdPeriph_Driver/src/stm32f4xx_sdio.c **** 
 777:Drivers/STM32F4xx_StdPeriph_Driver/src/stm32f4xx_sdio.c **** /**
 778:Drivers/STM32F4xx_StdPeriph_Driver/src/stm32f4xx_sdio.c ****   * @}
 779:Drivers/STM32F4xx_StdPeriph_Driver/src/stm32f4xx_sdio.c ****   */
 780:Drivers/STM32F4xx_StdPeriph_Driver/src/stm32f4xx_sdio.c **** 
 781:Drivers/STM32F4xx_StdPeriph_Driver/src/stm32f4xx_sdio.c **** /** @defgroup SDIO_Group7 Interrupts and flags management functions
 782:Drivers/STM32F4xx_StdPeriph_Driver/src/stm32f4xx_sdio.c ****  *  @brief   Interrupts and flags management functions  
 783:Drivers/STM32F4xx_StdPeriph_Driver/src/stm32f4xx_sdio.c ****  *
 784:Drivers/STM32F4xx_StdPeriph_Driver/src/stm32f4xx_sdio.c **** @verbatim   
 785:Drivers/STM32F4xx_StdPeriph_Driver/src/stm32f4xx_sdio.c ****  ===============================================================================
 786:Drivers/STM32F4xx_StdPeriph_Driver/src/stm32f4xx_sdio.c ****               ##### Interrupts and flags management functions #####
 787:Drivers/STM32F4xx_StdPeriph_Driver/src/stm32f4xx_sdio.c ****  ===============================================================================  
 788:Drivers/STM32F4xx_StdPeriph_Driver/src/stm32f4xx_sdio.c **** 
 789:Drivers/STM32F4xx_StdPeriph_Driver/src/stm32f4xx_sdio.c **** 
 790:Drivers/STM32F4xx_StdPeriph_Driver/src/stm32f4xx_sdio.c **** @endverbatim
 791:Drivers/STM32F4xx_StdPeriph_Driver/src/stm32f4xx_sdio.c ****   * @{
 792:Drivers/STM32F4xx_StdPeriph_Driver/src/stm32f4xx_sdio.c ****   */
 793:Drivers/STM32F4xx_StdPeriph_Driver/src/stm32f4xx_sdio.c **** 
 794:Drivers/STM32F4xx_StdPeriph_Driver/src/stm32f4xx_sdio.c **** /**
ARM GAS  /tmp/cceUylz3.s 			page 31


 795:Drivers/STM32F4xx_StdPeriph_Driver/src/stm32f4xx_sdio.c ****   * @brief  Enables or disables the SDIO interrupts.
 796:Drivers/STM32F4xx_StdPeriph_Driver/src/stm32f4xx_sdio.c ****   * @param  SDIO_IT: specifies the SDIO interrupt sources to be enabled or disabled.
 797:Drivers/STM32F4xx_StdPeriph_Driver/src/stm32f4xx_sdio.c ****   *          This parameter can be one or a combination of the following values:
 798:Drivers/STM32F4xx_StdPeriph_Driver/src/stm32f4xx_sdio.c ****   *            @arg SDIO_IT_CCRCFAIL: Command response received (CRC check failed) interrupt
 799:Drivers/STM32F4xx_StdPeriph_Driver/src/stm32f4xx_sdio.c ****   *            @arg SDIO_IT_DCRCFAIL: Data block sent/received (CRC check failed) interrupt
 800:Drivers/STM32F4xx_StdPeriph_Driver/src/stm32f4xx_sdio.c ****   *            @arg SDIO_IT_CTIMEOUT: Command response timeout interrupt
 801:Drivers/STM32F4xx_StdPeriph_Driver/src/stm32f4xx_sdio.c ****   *            @arg SDIO_IT_DTIMEOUT: Data timeout interrupt
 802:Drivers/STM32F4xx_StdPeriph_Driver/src/stm32f4xx_sdio.c ****   *            @arg SDIO_IT_TXUNDERR: Transmit FIFO underrun error interrupt
 803:Drivers/STM32F4xx_StdPeriph_Driver/src/stm32f4xx_sdio.c ****   *            @arg SDIO_IT_RXOVERR:  Received FIFO overrun error interrupt
 804:Drivers/STM32F4xx_StdPeriph_Driver/src/stm32f4xx_sdio.c ****   *            @arg SDIO_IT_CMDREND:  Command response received (CRC check passed) interrupt
 805:Drivers/STM32F4xx_StdPeriph_Driver/src/stm32f4xx_sdio.c ****   *            @arg SDIO_IT_CMDSENT:  Command sent (no response required) interrupt
 806:Drivers/STM32F4xx_StdPeriph_Driver/src/stm32f4xx_sdio.c ****   *            @arg SDIO_IT_DATAEND:  Data end (data counter, SDIDCOUNT, is zero) interrupt
 807:Drivers/STM32F4xx_StdPeriph_Driver/src/stm32f4xx_sdio.c ****   *            @arg SDIO_IT_STBITERR: Start bit not detected on all data signals in wide 
 808:Drivers/STM32F4xx_StdPeriph_Driver/src/stm32f4xx_sdio.c ****   *                                   bus mode interrupt
 809:Drivers/STM32F4xx_StdPeriph_Driver/src/stm32f4xx_sdio.c ****   *            @arg SDIO_IT_DBCKEND:  Data block sent/received (CRC check passed) interrupt
 810:Drivers/STM32F4xx_StdPeriph_Driver/src/stm32f4xx_sdio.c ****   *            @arg SDIO_IT_CMDACT:   Command transfer in progress interrupt
 811:Drivers/STM32F4xx_StdPeriph_Driver/src/stm32f4xx_sdio.c ****   *            @arg SDIO_IT_TXACT:    Data transmit in progress interrupt
 812:Drivers/STM32F4xx_StdPeriph_Driver/src/stm32f4xx_sdio.c ****   *            @arg SDIO_IT_RXACT:    Data receive in progress interrupt
 813:Drivers/STM32F4xx_StdPeriph_Driver/src/stm32f4xx_sdio.c ****   *            @arg SDIO_IT_TXFIFOHE: Transmit FIFO Half Empty interrupt
 814:Drivers/STM32F4xx_StdPeriph_Driver/src/stm32f4xx_sdio.c ****   *            @arg SDIO_IT_RXFIFOHF: Receive FIFO Half Full interrupt
 815:Drivers/STM32F4xx_StdPeriph_Driver/src/stm32f4xx_sdio.c ****   *            @arg SDIO_IT_TXFIFOF:  Transmit FIFO full interrupt
 816:Drivers/STM32F4xx_StdPeriph_Driver/src/stm32f4xx_sdio.c ****   *            @arg SDIO_IT_RXFIFOF:  Receive FIFO full interrupt
 817:Drivers/STM32F4xx_StdPeriph_Driver/src/stm32f4xx_sdio.c ****   *            @arg SDIO_IT_TXFIFOE:  Transmit FIFO empty interrupt
 818:Drivers/STM32F4xx_StdPeriph_Driver/src/stm32f4xx_sdio.c ****   *            @arg SDIO_IT_RXFIFOE:  Receive FIFO empty interrupt
 819:Drivers/STM32F4xx_StdPeriph_Driver/src/stm32f4xx_sdio.c ****   *            @arg SDIO_IT_TXDAVL:   Data available in transmit FIFO interrupt
 820:Drivers/STM32F4xx_StdPeriph_Driver/src/stm32f4xx_sdio.c ****   *            @arg SDIO_IT_RXDAVL:   Data available in receive FIFO interrupt
 821:Drivers/STM32F4xx_StdPeriph_Driver/src/stm32f4xx_sdio.c ****   *            @arg SDIO_IT_SDIOIT:   SD I/O interrupt received interrupt
 822:Drivers/STM32F4xx_StdPeriph_Driver/src/stm32f4xx_sdio.c ****   *            @arg SDIO_IT_CEATAEND: CE-ATA command completion signal received for CMD61 interrupt
 823:Drivers/STM32F4xx_StdPeriph_Driver/src/stm32f4xx_sdio.c ****   * @param  NewState: new state of the specified SDIO interrupts.
 824:Drivers/STM32F4xx_StdPeriph_Driver/src/stm32f4xx_sdio.c ****   *          This parameter can be: ENABLE or DISABLE.
 825:Drivers/STM32F4xx_StdPeriph_Driver/src/stm32f4xx_sdio.c ****   * @retval None 
 826:Drivers/STM32F4xx_StdPeriph_Driver/src/stm32f4xx_sdio.c ****   */
 827:Drivers/STM32F4xx_StdPeriph_Driver/src/stm32f4xx_sdio.c **** void SDIO_ITConfig(uint32_t SDIO_IT, FunctionalState NewState)
 828:Drivers/STM32F4xx_StdPeriph_Driver/src/stm32f4xx_sdio.c **** {
 965              		.loc 1 828 1 is_stmt 1 view -0
 966              		.cfi_startproc
 967              		@ args = 0, pretend = 0, frame = 0
 968              		@ frame_needed = 0, uses_anonymous_args = 0
 969              		@ link register save eliminated.
 829:Drivers/STM32F4xx_StdPeriph_Driver/src/stm32f4xx_sdio.c ****   /* Check the parameters */
 830:Drivers/STM32F4xx_StdPeriph_Driver/src/stm32f4xx_sdio.c ****   assert_param(IS_SDIO_IT(SDIO_IT));
 970              		.loc 1 830 3 view .LVU216
 831:Drivers/STM32F4xx_StdPeriph_Driver/src/stm32f4xx_sdio.c ****   assert_param(IS_FUNCTIONAL_STATE(NewState));
 971              		.loc 1 831 3 view .LVU217
 832:Drivers/STM32F4xx_StdPeriph_Driver/src/stm32f4xx_sdio.c ****   
 833:Drivers/STM32F4xx_StdPeriph_Driver/src/stm32f4xx_sdio.c ****   if (NewState != DISABLE)
 972              		.loc 1 833 3 view .LVU218
 973              		.loc 1 833 6 is_stmt 0 view .LVU219
 974 0000 21B1     		cbz	r1, .L74
 834:Drivers/STM32F4xx_StdPeriph_Driver/src/stm32f4xx_sdio.c ****   {
 835:Drivers/STM32F4xx_StdPeriph_Driver/src/stm32f4xx_sdio.c ****     /* Enable the SDIO interrupts */
 836:Drivers/STM32F4xx_StdPeriph_Driver/src/stm32f4xx_sdio.c ****     SDIO->MASK |= SDIO_IT;
 975              		.loc 1 836 5 is_stmt 1 view .LVU220
 976              		.loc 1 836 16 is_stmt 0 view .LVU221
 977 0002 054A     		ldr	r2, .L76
 978 0004 D36B     		ldr	r3, [r2, #60]
 979 0006 1843     		orrs	r0, r0, r3
ARM GAS  /tmp/cceUylz3.s 			page 32


 980              	.LVL41:
 981              		.loc 1 836 16 view .LVU222
 982 0008 D063     		str	r0, [r2, #60]
 983 000a 7047     		bx	lr
 984              	.LVL42:
 985              	.L74:
 837:Drivers/STM32F4xx_StdPeriph_Driver/src/stm32f4xx_sdio.c ****   }
 838:Drivers/STM32F4xx_StdPeriph_Driver/src/stm32f4xx_sdio.c ****   else
 839:Drivers/STM32F4xx_StdPeriph_Driver/src/stm32f4xx_sdio.c ****   {
 840:Drivers/STM32F4xx_StdPeriph_Driver/src/stm32f4xx_sdio.c ****     /* Disable the SDIO interrupts */
 841:Drivers/STM32F4xx_StdPeriph_Driver/src/stm32f4xx_sdio.c ****     SDIO->MASK &= ~SDIO_IT;
 986              		.loc 1 841 5 is_stmt 1 view .LVU223
 987              		.loc 1 841 16 is_stmt 0 view .LVU224
 988 000c 024A     		ldr	r2, .L76
 989 000e D36B     		ldr	r3, [r2, #60]
 990 0010 23EA0000 		bic	r0, r3, r0
 991              	.LVL43:
 992              		.loc 1 841 16 view .LVU225
 993 0014 D063     		str	r0, [r2, #60]
 842:Drivers/STM32F4xx_StdPeriph_Driver/src/stm32f4xx_sdio.c ****   } 
 843:Drivers/STM32F4xx_StdPeriph_Driver/src/stm32f4xx_sdio.c **** }
 994              		.loc 1 843 1 view .LVU226
 995 0016 7047     		bx	lr
 996              	.L77:
 997              		.align	2
 998              	.L76:
 999 0018 002C0140 		.word	1073818624
 1000              		.cfi_endproc
 1001              	.LFE148:
 1003              		.section	.text.SDIO_GetFlagStatus,"ax",%progbits
 1004              		.align	1
 1005              		.global	SDIO_GetFlagStatus
 1006              		.syntax unified
 1007              		.thumb
 1008              		.thumb_func
 1009              		.fpu fpv4-sp-d16
 1011              	SDIO_GetFlagStatus:
 1012              	.LVL44:
 1013              	.LFB149:
 844:Drivers/STM32F4xx_StdPeriph_Driver/src/stm32f4xx_sdio.c **** 
 845:Drivers/STM32F4xx_StdPeriph_Driver/src/stm32f4xx_sdio.c **** /**
 846:Drivers/STM32F4xx_StdPeriph_Driver/src/stm32f4xx_sdio.c ****   * @brief  Checks whether the specified SDIO flag is set or not.
 847:Drivers/STM32F4xx_StdPeriph_Driver/src/stm32f4xx_sdio.c ****   * @param  SDIO_FLAG: specifies the flag to check. 
 848:Drivers/STM32F4xx_StdPeriph_Driver/src/stm32f4xx_sdio.c ****   *          This parameter can be one of the following values:
 849:Drivers/STM32F4xx_StdPeriph_Driver/src/stm32f4xx_sdio.c ****   *            @arg SDIO_FLAG_CCRCFAIL: Command response received (CRC check failed)
 850:Drivers/STM32F4xx_StdPeriph_Driver/src/stm32f4xx_sdio.c ****   *            @arg SDIO_FLAG_DCRCFAIL: Data block sent/received (CRC check failed)
 851:Drivers/STM32F4xx_StdPeriph_Driver/src/stm32f4xx_sdio.c ****   *            @arg SDIO_FLAG_CTIMEOUT: Command response timeout
 852:Drivers/STM32F4xx_StdPeriph_Driver/src/stm32f4xx_sdio.c ****   *            @arg SDIO_FLAG_DTIMEOUT: Data timeout
 853:Drivers/STM32F4xx_StdPeriph_Driver/src/stm32f4xx_sdio.c ****   *            @arg SDIO_FLAG_TXUNDERR: Transmit FIFO underrun error
 854:Drivers/STM32F4xx_StdPeriph_Driver/src/stm32f4xx_sdio.c ****   *            @arg SDIO_FLAG_RXOVERR:  Received FIFO overrun error
 855:Drivers/STM32F4xx_StdPeriph_Driver/src/stm32f4xx_sdio.c ****   *            @arg SDIO_FLAG_CMDREND:  Command response received (CRC check passed)
 856:Drivers/STM32F4xx_StdPeriph_Driver/src/stm32f4xx_sdio.c ****   *            @arg SDIO_FLAG_CMDSENT:  Command sent (no response required)
 857:Drivers/STM32F4xx_StdPeriph_Driver/src/stm32f4xx_sdio.c ****   *            @arg SDIO_FLAG_DATAEND:  Data end (data counter, SDIDCOUNT, is zero)
 858:Drivers/STM32F4xx_StdPeriph_Driver/src/stm32f4xx_sdio.c ****   *            @arg SDIO_FLAG_STBITERR: Start bit not detected on all data signals in wide bus mode
 859:Drivers/STM32F4xx_StdPeriph_Driver/src/stm32f4xx_sdio.c ****   *            @arg SDIO_FLAG_DBCKEND:  Data block sent/received (CRC check passed)
 860:Drivers/STM32F4xx_StdPeriph_Driver/src/stm32f4xx_sdio.c ****   *            @arg SDIO_FLAG_CMDACT:   Command transfer in progress
 861:Drivers/STM32F4xx_StdPeriph_Driver/src/stm32f4xx_sdio.c ****   *            @arg SDIO_FLAG_TXACT:    Data transmit in progress
ARM GAS  /tmp/cceUylz3.s 			page 33


 862:Drivers/STM32F4xx_StdPeriph_Driver/src/stm32f4xx_sdio.c ****   *            @arg SDIO_FLAG_RXACT:    Data receive in progress
 863:Drivers/STM32F4xx_StdPeriph_Driver/src/stm32f4xx_sdio.c ****   *            @arg SDIO_FLAG_TXFIFOHE: Transmit FIFO Half Empty
 864:Drivers/STM32F4xx_StdPeriph_Driver/src/stm32f4xx_sdio.c ****   *            @arg SDIO_FLAG_RXFIFOHF: Receive FIFO Half Full
 865:Drivers/STM32F4xx_StdPeriph_Driver/src/stm32f4xx_sdio.c ****   *            @arg SDIO_FLAG_TXFIFOF:  Transmit FIFO full
 866:Drivers/STM32F4xx_StdPeriph_Driver/src/stm32f4xx_sdio.c ****   *            @arg SDIO_FLAG_RXFIFOF:  Receive FIFO full
 867:Drivers/STM32F4xx_StdPeriph_Driver/src/stm32f4xx_sdio.c ****   *            @arg SDIO_FLAG_TXFIFOE:  Transmit FIFO empty
 868:Drivers/STM32F4xx_StdPeriph_Driver/src/stm32f4xx_sdio.c ****   *            @arg SDIO_FLAG_RXFIFOE:  Receive FIFO empty
 869:Drivers/STM32F4xx_StdPeriph_Driver/src/stm32f4xx_sdio.c ****   *            @arg SDIO_FLAG_TXDAVL:   Data available in transmit FIFO
 870:Drivers/STM32F4xx_StdPeriph_Driver/src/stm32f4xx_sdio.c ****   *            @arg SDIO_FLAG_RXDAVL:   Data available in receive FIFO
 871:Drivers/STM32F4xx_StdPeriph_Driver/src/stm32f4xx_sdio.c ****   *            @arg SDIO_FLAG_SDIOIT:   SD I/O interrupt received
 872:Drivers/STM32F4xx_StdPeriph_Driver/src/stm32f4xx_sdio.c ****   *            @arg SDIO_FLAG_CEATAEND: CE-ATA command completion signal received for CMD61
 873:Drivers/STM32F4xx_StdPeriph_Driver/src/stm32f4xx_sdio.c ****   * @retval The new state of SDIO_FLAG (SET or RESET).
 874:Drivers/STM32F4xx_StdPeriph_Driver/src/stm32f4xx_sdio.c ****   */
 875:Drivers/STM32F4xx_StdPeriph_Driver/src/stm32f4xx_sdio.c **** FlagStatus SDIO_GetFlagStatus(uint32_t SDIO_FLAG)
 876:Drivers/STM32F4xx_StdPeriph_Driver/src/stm32f4xx_sdio.c **** { 
 1014              		.loc 1 876 1 is_stmt 1 view -0
 1015              		.cfi_startproc
 1016              		@ args = 0, pretend = 0, frame = 0
 1017              		@ frame_needed = 0, uses_anonymous_args = 0
 1018              		@ link register save eliminated.
 877:Drivers/STM32F4xx_StdPeriph_Driver/src/stm32f4xx_sdio.c ****   FlagStatus bitstatus = RESET;
 1019              		.loc 1 877 3 view .LVU228
 878:Drivers/STM32F4xx_StdPeriph_Driver/src/stm32f4xx_sdio.c ****   
 879:Drivers/STM32F4xx_StdPeriph_Driver/src/stm32f4xx_sdio.c ****   /* Check the parameters */
 880:Drivers/STM32F4xx_StdPeriph_Driver/src/stm32f4xx_sdio.c ****   assert_param(IS_SDIO_FLAG(SDIO_FLAG));
 1020              		.loc 1 880 3 view .LVU229
 881:Drivers/STM32F4xx_StdPeriph_Driver/src/stm32f4xx_sdio.c ****   
 882:Drivers/STM32F4xx_StdPeriph_Driver/src/stm32f4xx_sdio.c ****   if ((SDIO->STA & SDIO_FLAG) != (uint32_t)RESET)
 1021              		.loc 1 882 3 view .LVU230
 1022              		.loc 1 882 12 is_stmt 0 view .LVU231
 1023 0000 034B     		ldr	r3, .L81
 1024 0002 5B6B     		ldr	r3, [r3, #52]
 1025              		.loc 1 882 6 view .LVU232
 1026 0004 0342     		tst	r3, r0
 1027 0006 01D0     		beq	.L80
 883:Drivers/STM32F4xx_StdPeriph_Driver/src/stm32f4xx_sdio.c ****   {
 884:Drivers/STM32F4xx_StdPeriph_Driver/src/stm32f4xx_sdio.c ****     bitstatus = SET;
 1028              		.loc 1 884 15 view .LVU233
 1029 0008 0120     		movs	r0, #1
 1030              	.LVL45:
 1031              		.loc 1 884 15 view .LVU234
 1032 000a 7047     		bx	lr
 1033              	.LVL46:
 1034              	.L80:
 885:Drivers/STM32F4xx_StdPeriph_Driver/src/stm32f4xx_sdio.c ****   }
 886:Drivers/STM32F4xx_StdPeriph_Driver/src/stm32f4xx_sdio.c ****   else
 887:Drivers/STM32F4xx_StdPeriph_Driver/src/stm32f4xx_sdio.c ****   {
 888:Drivers/STM32F4xx_StdPeriph_Driver/src/stm32f4xx_sdio.c ****     bitstatus = RESET;
 1035              		.loc 1 888 15 view .LVU235
 1036 000c 0020     		movs	r0, #0
 1037              	.LVL47:
 889:Drivers/STM32F4xx_StdPeriph_Driver/src/stm32f4xx_sdio.c ****   }
 890:Drivers/STM32F4xx_StdPeriph_Driver/src/stm32f4xx_sdio.c ****   return bitstatus;
 1038              		.loc 1 890 3 is_stmt 1 view .LVU236
 891:Drivers/STM32F4xx_StdPeriph_Driver/src/stm32f4xx_sdio.c **** }
 1039              		.loc 1 891 1 is_stmt 0 view .LVU237
 1040 000e 7047     		bx	lr
ARM GAS  /tmp/cceUylz3.s 			page 34


 1041              	.L82:
 1042              		.align	2
 1043              	.L81:
 1044 0010 002C0140 		.word	1073818624
 1045              		.cfi_endproc
 1046              	.LFE149:
 1048              		.section	.text.SDIO_ClearFlag,"ax",%progbits
 1049              		.align	1
 1050              		.global	SDIO_ClearFlag
 1051              		.syntax unified
 1052              		.thumb
 1053              		.thumb_func
 1054              		.fpu fpv4-sp-d16
 1056              	SDIO_ClearFlag:
 1057              	.LVL48:
 1058              	.LFB150:
 892:Drivers/STM32F4xx_StdPeriph_Driver/src/stm32f4xx_sdio.c **** 
 893:Drivers/STM32F4xx_StdPeriph_Driver/src/stm32f4xx_sdio.c **** /**
 894:Drivers/STM32F4xx_StdPeriph_Driver/src/stm32f4xx_sdio.c ****   * @brief  Clears the SDIO's pending flags.
 895:Drivers/STM32F4xx_StdPeriph_Driver/src/stm32f4xx_sdio.c ****   * @param  SDIO_FLAG: specifies the flag to clear.  
 896:Drivers/STM32F4xx_StdPeriph_Driver/src/stm32f4xx_sdio.c ****   *          This parameter can be one or a combination of the following values:
 897:Drivers/STM32F4xx_StdPeriph_Driver/src/stm32f4xx_sdio.c ****   *            @arg SDIO_FLAG_CCRCFAIL: Command response received (CRC check failed)
 898:Drivers/STM32F4xx_StdPeriph_Driver/src/stm32f4xx_sdio.c ****   *            @arg SDIO_FLAG_DCRCFAIL: Data block sent/received (CRC check failed)
 899:Drivers/STM32F4xx_StdPeriph_Driver/src/stm32f4xx_sdio.c ****   *            @arg SDIO_FLAG_CTIMEOUT: Command response timeout
 900:Drivers/STM32F4xx_StdPeriph_Driver/src/stm32f4xx_sdio.c ****   *            @arg SDIO_FLAG_DTIMEOUT: Data timeout
 901:Drivers/STM32F4xx_StdPeriph_Driver/src/stm32f4xx_sdio.c ****   *            @arg SDIO_FLAG_TXUNDERR: Transmit FIFO underrun error
 902:Drivers/STM32F4xx_StdPeriph_Driver/src/stm32f4xx_sdio.c ****   *            @arg SDIO_FLAG_RXOVERR:  Received FIFO overrun error
 903:Drivers/STM32F4xx_StdPeriph_Driver/src/stm32f4xx_sdio.c ****   *            @arg SDIO_FLAG_CMDREND:  Command response received (CRC check passed)
 904:Drivers/STM32F4xx_StdPeriph_Driver/src/stm32f4xx_sdio.c ****   *            @arg SDIO_FLAG_CMDSENT:  Command sent (no response required)
 905:Drivers/STM32F4xx_StdPeriph_Driver/src/stm32f4xx_sdio.c ****   *            @arg SDIO_FLAG_DATAEND:  Data end (data counter, SDIDCOUNT, is zero)
 906:Drivers/STM32F4xx_StdPeriph_Driver/src/stm32f4xx_sdio.c ****   *            @arg SDIO_FLAG_STBITERR: Start bit not detected on all data signals in wide bus mode
 907:Drivers/STM32F4xx_StdPeriph_Driver/src/stm32f4xx_sdio.c ****   *            @arg SDIO_FLAG_DBCKEND:  Data block sent/received (CRC check passed)
 908:Drivers/STM32F4xx_StdPeriph_Driver/src/stm32f4xx_sdio.c ****   *            @arg SDIO_FLAG_SDIOIT:   SD I/O interrupt received
 909:Drivers/STM32F4xx_StdPeriph_Driver/src/stm32f4xx_sdio.c ****   *            @arg SDIO_FLAG_CEATAEND: CE-ATA command completion signal received for CMD61
 910:Drivers/STM32F4xx_StdPeriph_Driver/src/stm32f4xx_sdio.c ****   * @retval None
 911:Drivers/STM32F4xx_StdPeriph_Driver/src/stm32f4xx_sdio.c ****   */
 912:Drivers/STM32F4xx_StdPeriph_Driver/src/stm32f4xx_sdio.c **** void SDIO_ClearFlag(uint32_t SDIO_FLAG)
 913:Drivers/STM32F4xx_StdPeriph_Driver/src/stm32f4xx_sdio.c **** { 
 1059              		.loc 1 913 1 is_stmt 1 view -0
 1060              		.cfi_startproc
 1061              		@ args = 0, pretend = 0, frame = 0
 1062              		@ frame_needed = 0, uses_anonymous_args = 0
 1063              		@ link register save eliminated.
 914:Drivers/STM32F4xx_StdPeriph_Driver/src/stm32f4xx_sdio.c ****   /* Check the parameters */
 915:Drivers/STM32F4xx_StdPeriph_Driver/src/stm32f4xx_sdio.c ****   assert_param(IS_SDIO_CLEAR_FLAG(SDIO_FLAG));
 1064              		.loc 1 915 3 view .LVU239
 916:Drivers/STM32F4xx_StdPeriph_Driver/src/stm32f4xx_sdio.c ****    
 917:Drivers/STM32F4xx_StdPeriph_Driver/src/stm32f4xx_sdio.c ****   SDIO->ICR = SDIO_FLAG;
 1065              		.loc 1 917 3 view .LVU240
 1066              		.loc 1 917 13 is_stmt 0 view .LVU241
 1067 0000 014B     		ldr	r3, .L84
 1068 0002 9863     		str	r0, [r3, #56]
 918:Drivers/STM32F4xx_StdPeriph_Driver/src/stm32f4xx_sdio.c **** }
 1069              		.loc 1 918 1 view .LVU242
 1070 0004 7047     		bx	lr
 1071              	.L85:
 1072 0006 00BF     		.align	2
ARM GAS  /tmp/cceUylz3.s 			page 35


 1073              	.L84:
 1074 0008 002C0140 		.word	1073818624
 1075              		.cfi_endproc
 1076              	.LFE150:
 1078              		.section	.text.SDIO_GetITStatus,"ax",%progbits
 1079              		.align	1
 1080              		.global	SDIO_GetITStatus
 1081              		.syntax unified
 1082              		.thumb
 1083              		.thumb_func
 1084              		.fpu fpv4-sp-d16
 1086              	SDIO_GetITStatus:
 1087              	.LVL49:
 1088              	.LFB151:
 919:Drivers/STM32F4xx_StdPeriph_Driver/src/stm32f4xx_sdio.c **** 
 920:Drivers/STM32F4xx_StdPeriph_Driver/src/stm32f4xx_sdio.c **** /**
 921:Drivers/STM32F4xx_StdPeriph_Driver/src/stm32f4xx_sdio.c ****   * @brief  Checks whether the specified SDIO interrupt has occurred or not.
 922:Drivers/STM32F4xx_StdPeriph_Driver/src/stm32f4xx_sdio.c ****   * @param  SDIO_IT: specifies the SDIO interrupt source to check. 
 923:Drivers/STM32F4xx_StdPeriph_Driver/src/stm32f4xx_sdio.c ****   *          This parameter can be one of the following values:
 924:Drivers/STM32F4xx_StdPeriph_Driver/src/stm32f4xx_sdio.c ****   *            @arg SDIO_IT_CCRCFAIL: Command response received (CRC check failed) interrupt
 925:Drivers/STM32F4xx_StdPeriph_Driver/src/stm32f4xx_sdio.c ****   *            @arg SDIO_IT_DCRCFAIL: Data block sent/received (CRC check failed) interrupt
 926:Drivers/STM32F4xx_StdPeriph_Driver/src/stm32f4xx_sdio.c ****   *            @arg SDIO_IT_CTIMEOUT: Command response timeout interrupt
 927:Drivers/STM32F4xx_StdPeriph_Driver/src/stm32f4xx_sdio.c ****   *            @arg SDIO_IT_DTIMEOUT: Data timeout interrupt
 928:Drivers/STM32F4xx_StdPeriph_Driver/src/stm32f4xx_sdio.c ****   *            @arg SDIO_IT_TXUNDERR: Transmit FIFO underrun error interrupt
 929:Drivers/STM32F4xx_StdPeriph_Driver/src/stm32f4xx_sdio.c ****   *            @arg SDIO_IT_RXOVERR:  Received FIFO overrun error interrupt
 930:Drivers/STM32F4xx_StdPeriph_Driver/src/stm32f4xx_sdio.c ****   *            @arg SDIO_IT_CMDREND:  Command response received (CRC check passed) interrupt
 931:Drivers/STM32F4xx_StdPeriph_Driver/src/stm32f4xx_sdio.c ****   *            @arg SDIO_IT_CMDSENT:  Command sent (no response required) interrupt
 932:Drivers/STM32F4xx_StdPeriph_Driver/src/stm32f4xx_sdio.c ****   *            @arg SDIO_IT_DATAEND:  Data end (data counter, SDIDCOUNT, is zero) interrupt
 933:Drivers/STM32F4xx_StdPeriph_Driver/src/stm32f4xx_sdio.c ****   *            @arg SDIO_IT_STBITERR: Start bit not detected on all data signals in wide 
 934:Drivers/STM32F4xx_StdPeriph_Driver/src/stm32f4xx_sdio.c ****   *                                   bus mode interrupt
 935:Drivers/STM32F4xx_StdPeriph_Driver/src/stm32f4xx_sdio.c ****   *            @arg SDIO_IT_DBCKEND:  Data block sent/received (CRC check passed) interrupt
 936:Drivers/STM32F4xx_StdPeriph_Driver/src/stm32f4xx_sdio.c ****   *            @arg SDIO_IT_CMDACT:   Command transfer in progress interrupt
 937:Drivers/STM32F4xx_StdPeriph_Driver/src/stm32f4xx_sdio.c ****   *            @arg SDIO_IT_TXACT:    Data transmit in progress interrupt
 938:Drivers/STM32F4xx_StdPeriph_Driver/src/stm32f4xx_sdio.c ****   *            @arg SDIO_IT_RXACT:    Data receive in progress interrupt
 939:Drivers/STM32F4xx_StdPeriph_Driver/src/stm32f4xx_sdio.c ****   *            @arg SDIO_IT_TXFIFOHE: Transmit FIFO Half Empty interrupt
 940:Drivers/STM32F4xx_StdPeriph_Driver/src/stm32f4xx_sdio.c ****   *            @arg SDIO_IT_RXFIFOHF: Receive FIFO Half Full interrupt
 941:Drivers/STM32F4xx_StdPeriph_Driver/src/stm32f4xx_sdio.c ****   *            @arg SDIO_IT_TXFIFOF:  Transmit FIFO full interrupt
 942:Drivers/STM32F4xx_StdPeriph_Driver/src/stm32f4xx_sdio.c ****   *            @arg SDIO_IT_RXFIFOF:  Receive FIFO full interrupt
 943:Drivers/STM32F4xx_StdPeriph_Driver/src/stm32f4xx_sdio.c ****   *            @arg SDIO_IT_TXFIFOE:  Transmit FIFO empty interrupt
 944:Drivers/STM32F4xx_StdPeriph_Driver/src/stm32f4xx_sdio.c ****   *            @arg SDIO_IT_RXFIFOE:  Receive FIFO empty interrupt
 945:Drivers/STM32F4xx_StdPeriph_Driver/src/stm32f4xx_sdio.c ****   *            @arg SDIO_IT_TXDAVL:   Data available in transmit FIFO interrupt
 946:Drivers/STM32F4xx_StdPeriph_Driver/src/stm32f4xx_sdio.c ****   *            @arg SDIO_IT_RXDAVL:   Data available in receive FIFO interrupt
 947:Drivers/STM32F4xx_StdPeriph_Driver/src/stm32f4xx_sdio.c ****   *            @arg SDIO_IT_SDIOIT:   SD I/O interrupt received interrupt
 948:Drivers/STM32F4xx_StdPeriph_Driver/src/stm32f4xx_sdio.c ****   *            @arg SDIO_IT_CEATAEND: CE-ATA command completion signal received for CMD61 interrupt
 949:Drivers/STM32F4xx_StdPeriph_Driver/src/stm32f4xx_sdio.c ****   * @retval The new state of SDIO_IT (SET or RESET).
 950:Drivers/STM32F4xx_StdPeriph_Driver/src/stm32f4xx_sdio.c ****   */
 951:Drivers/STM32F4xx_StdPeriph_Driver/src/stm32f4xx_sdio.c **** ITStatus SDIO_GetITStatus(uint32_t SDIO_IT)
 952:Drivers/STM32F4xx_StdPeriph_Driver/src/stm32f4xx_sdio.c **** { 
 1089              		.loc 1 952 1 is_stmt 1 view -0
 1090              		.cfi_startproc
 1091              		@ args = 0, pretend = 0, frame = 0
 1092              		@ frame_needed = 0, uses_anonymous_args = 0
 1093              		@ link register save eliminated.
 953:Drivers/STM32F4xx_StdPeriph_Driver/src/stm32f4xx_sdio.c ****   ITStatus bitstatus = RESET;
 1094              		.loc 1 953 3 view .LVU244
 954:Drivers/STM32F4xx_StdPeriph_Driver/src/stm32f4xx_sdio.c ****   
 955:Drivers/STM32F4xx_StdPeriph_Driver/src/stm32f4xx_sdio.c ****   /* Check the parameters */
ARM GAS  /tmp/cceUylz3.s 			page 36


 956:Drivers/STM32F4xx_StdPeriph_Driver/src/stm32f4xx_sdio.c ****   assert_param(IS_SDIO_GET_IT(SDIO_IT));
 1095              		.loc 1 956 3 view .LVU245
 957:Drivers/STM32F4xx_StdPeriph_Driver/src/stm32f4xx_sdio.c ****   if ((SDIO->STA & SDIO_IT) != (uint32_t)RESET)  
 1096              		.loc 1 957 3 view .LVU246
 1097              		.loc 1 957 12 is_stmt 0 view .LVU247
 1098 0000 034B     		ldr	r3, .L89
 1099 0002 5B6B     		ldr	r3, [r3, #52]
 1100              		.loc 1 957 6 view .LVU248
 1101 0004 0342     		tst	r3, r0
 1102 0006 01D0     		beq	.L88
 958:Drivers/STM32F4xx_StdPeriph_Driver/src/stm32f4xx_sdio.c ****   {
 959:Drivers/STM32F4xx_StdPeriph_Driver/src/stm32f4xx_sdio.c ****     bitstatus = SET;
 1103              		.loc 1 959 15 view .LVU249
 1104 0008 0120     		movs	r0, #1
 1105              	.LVL50:
 1106              		.loc 1 959 15 view .LVU250
 1107 000a 7047     		bx	lr
 1108              	.LVL51:
 1109              	.L88:
 960:Drivers/STM32F4xx_StdPeriph_Driver/src/stm32f4xx_sdio.c ****   }
 961:Drivers/STM32F4xx_StdPeriph_Driver/src/stm32f4xx_sdio.c ****   else
 962:Drivers/STM32F4xx_StdPeriph_Driver/src/stm32f4xx_sdio.c ****   {
 963:Drivers/STM32F4xx_StdPeriph_Driver/src/stm32f4xx_sdio.c ****     bitstatus = RESET;
 1110              		.loc 1 963 15 view .LVU251
 1111 000c 0020     		movs	r0, #0
 1112              	.LVL52:
 964:Drivers/STM32F4xx_StdPeriph_Driver/src/stm32f4xx_sdio.c ****   }
 965:Drivers/STM32F4xx_StdPeriph_Driver/src/stm32f4xx_sdio.c ****   return bitstatus;
 1113              		.loc 1 965 3 is_stmt 1 view .LVU252
 966:Drivers/STM32F4xx_StdPeriph_Driver/src/stm32f4xx_sdio.c **** }
 1114              		.loc 1 966 1 is_stmt 0 view .LVU253
 1115 000e 7047     		bx	lr
 1116              	.L90:
 1117              		.align	2
 1118              	.L89:
 1119 0010 002C0140 		.word	1073818624
 1120              		.cfi_endproc
 1121              	.LFE151:
 1123              		.section	.text.SDIO_ClearITPendingBit,"ax",%progbits
 1124              		.align	1
 1125              		.global	SDIO_ClearITPendingBit
 1126              		.syntax unified
 1127              		.thumb
 1128              		.thumb_func
 1129              		.fpu fpv4-sp-d16
 1131              	SDIO_ClearITPendingBit:
 1132              	.LVL53:
 1133              	.LFB152:
 967:Drivers/STM32F4xx_StdPeriph_Driver/src/stm32f4xx_sdio.c **** 
 968:Drivers/STM32F4xx_StdPeriph_Driver/src/stm32f4xx_sdio.c **** /**
 969:Drivers/STM32F4xx_StdPeriph_Driver/src/stm32f4xx_sdio.c ****   * @brief  Clears the SDIO's interrupt pending bits.
 970:Drivers/STM32F4xx_StdPeriph_Driver/src/stm32f4xx_sdio.c ****   * @param  SDIO_IT: specifies the interrupt pending bit to clear. 
 971:Drivers/STM32F4xx_StdPeriph_Driver/src/stm32f4xx_sdio.c ****   *          This parameter can be one or a combination of the following values:
 972:Drivers/STM32F4xx_StdPeriph_Driver/src/stm32f4xx_sdio.c ****   *            @arg SDIO_IT_CCRCFAIL: Command response received (CRC check failed) interrupt
 973:Drivers/STM32F4xx_StdPeriph_Driver/src/stm32f4xx_sdio.c ****   *            @arg SDIO_IT_DCRCFAIL: Data block sent/received (CRC check failed) interrupt
 974:Drivers/STM32F4xx_StdPeriph_Driver/src/stm32f4xx_sdio.c ****   *            @arg SDIO_IT_CTIMEOUT: Command response timeout interrupt
 975:Drivers/STM32F4xx_StdPeriph_Driver/src/stm32f4xx_sdio.c ****   *            @arg SDIO_IT_DTIMEOUT: Data timeout interrupt
ARM GAS  /tmp/cceUylz3.s 			page 37


 976:Drivers/STM32F4xx_StdPeriph_Driver/src/stm32f4xx_sdio.c ****   *            @arg SDIO_IT_TXUNDERR: Transmit FIFO underrun error interrupt
 977:Drivers/STM32F4xx_StdPeriph_Driver/src/stm32f4xx_sdio.c ****   *            @arg SDIO_IT_RXOVERR:  Received FIFO overrun error interrupt
 978:Drivers/STM32F4xx_StdPeriph_Driver/src/stm32f4xx_sdio.c ****   *            @arg SDIO_IT_CMDREND:  Command response received (CRC check passed) interrupt
 979:Drivers/STM32F4xx_StdPeriph_Driver/src/stm32f4xx_sdio.c ****   *            @arg SDIO_IT_CMDSENT:  Command sent (no response required) interrupt
 980:Drivers/STM32F4xx_StdPeriph_Driver/src/stm32f4xx_sdio.c ****   *            @arg SDIO_IT_DATAEND:  Data end (data counter, SDIO_DCOUNT, is zero) interrupt
 981:Drivers/STM32F4xx_StdPeriph_Driver/src/stm32f4xx_sdio.c ****   *            @arg SDIO_IT_STBITERR: Start bit not detected on all data signals in wide 
 982:Drivers/STM32F4xx_StdPeriph_Driver/src/stm32f4xx_sdio.c ****   *                                   bus mode interrupt
 983:Drivers/STM32F4xx_StdPeriph_Driver/src/stm32f4xx_sdio.c ****   *            @arg SDIO_IT_SDIOIT:   SD I/O interrupt received interrupt
 984:Drivers/STM32F4xx_StdPeriph_Driver/src/stm32f4xx_sdio.c ****   *            @arg SDIO_IT_CEATAEND: CE-ATA command completion signal received for CMD61
 985:Drivers/STM32F4xx_StdPeriph_Driver/src/stm32f4xx_sdio.c ****   * @retval None
 986:Drivers/STM32F4xx_StdPeriph_Driver/src/stm32f4xx_sdio.c ****   */
 987:Drivers/STM32F4xx_StdPeriph_Driver/src/stm32f4xx_sdio.c **** void SDIO_ClearITPendingBit(uint32_t SDIO_IT)
 988:Drivers/STM32F4xx_StdPeriph_Driver/src/stm32f4xx_sdio.c **** { 
 1134              		.loc 1 988 1 is_stmt 1 view -0
 1135              		.cfi_startproc
 1136              		@ args = 0, pretend = 0, frame = 0
 1137              		@ frame_needed = 0, uses_anonymous_args = 0
 1138              		@ link register save eliminated.
 989:Drivers/STM32F4xx_StdPeriph_Driver/src/stm32f4xx_sdio.c ****   /* Check the parameters */
 990:Drivers/STM32F4xx_StdPeriph_Driver/src/stm32f4xx_sdio.c ****   assert_param(IS_SDIO_CLEAR_IT(SDIO_IT));
 1139              		.loc 1 990 3 view .LVU255
 991:Drivers/STM32F4xx_StdPeriph_Driver/src/stm32f4xx_sdio.c ****    
 992:Drivers/STM32F4xx_StdPeriph_Driver/src/stm32f4xx_sdio.c ****   SDIO->ICR = SDIO_IT;
 1140              		.loc 1 992 3 view .LVU256
 1141              		.loc 1 992 13 is_stmt 0 view .LVU257
 1142 0000 014B     		ldr	r3, .L92
 1143 0002 9863     		str	r0, [r3, #56]
 993:Drivers/STM32F4xx_StdPeriph_Driver/src/stm32f4xx_sdio.c **** }
 1144              		.loc 1 993 1 view .LVU258
 1145 0004 7047     		bx	lr
 1146              	.L93:
 1147 0006 00BF     		.align	2
 1148              	.L92:
 1149 0008 002C0140 		.word	1073818624
 1150              		.cfi_endproc
 1151              	.LFE152:
 1153              		.text
 1154              	.Letext0:
 1155              		.file 2 "/usr/lib/gcc/arm-none-eabi/10.3.1/include/stdint.h"
 1156              		.file 3 "Drivers/CMSIS/Device/ST/STM32F4xx/Include/stm32f4xx.h"
 1157              		.file 4 "Drivers/STM32F4xx_StdPeriph_Driver/inc/stm32f4xx_sdio.h"
 1158              		.file 5 "Drivers/STM32F4xx_StdPeriph_Driver/inc/stm32f4xx_rcc.h"
ARM GAS  /tmp/cceUylz3.s 			page 38

