ARM GAS  /tmp/ccGHW3gB.s 			page 1


   1              		.cpu cortex-m4
   2              		.arch armv7e-m
   3              		.fpu fpv4-sp-d16
   4              		.eabi_attribute 27, 1
   5              		.eabi_attribute 28, 1
   6              		.eabi_attribute 20, 1
   7              		.eabi_attribute 21, 1
   8              		.eabi_attribute 23, 3
   9              		.eabi_attribute 24, 1
  10              		.eabi_attribute 25, 1
  11              		.eabi_attribute 26, 1
  12              		.eabi_attribute 30, 1
  13              		.eabi_attribute 34, 1
  14              		.eabi_attribute 18, 4
  15              		.file	"stm32f4xx_ltdc.c"
  16              		.text
  17              	.Ltext0:
  18              		.cfi_sections	.debug_frame
  19              		.section	.text.LTDC_DeInit,"ax",%progbits
  20              		.align	1
  21              		.global	LTDC_DeInit
  22              		.syntax unified
  23              		.thumb
  24              		.thumb_func
  26              	LTDC_DeInit:
  27              	.LFB123:
  28              		.file 1 "Drivers/STM32F4xx_StdPeriph_Driver/src/stm32f4xx_ltdc.c"
   1:Drivers/STM32F4xx_StdPeriph_Driver/src/stm32f4xx_ltdc.c **** /**
   2:Drivers/STM32F4xx_StdPeriph_Driver/src/stm32f4xx_ltdc.c ****   ******************************************************************************
   3:Drivers/STM32F4xx_StdPeriph_Driver/src/stm32f4xx_ltdc.c ****   * @file    stm32f4xx_ltdc.c
   4:Drivers/STM32F4xx_StdPeriph_Driver/src/stm32f4xx_ltdc.c ****   * @author  MCD Application Team
   5:Drivers/STM32F4xx_StdPeriph_Driver/src/stm32f4xx_ltdc.c ****   * @version V1.6.1
   6:Drivers/STM32F4xx_StdPeriph_Driver/src/stm32f4xx_ltdc.c ****   * @date    21-October-2015
   7:Drivers/STM32F4xx_StdPeriph_Driver/src/stm32f4xx_ltdc.c ****   * @brief   This file provides firmware functions to manage the following 
   8:Drivers/STM32F4xx_StdPeriph_Driver/src/stm32f4xx_ltdc.c ****   *          functionalities of the LTDC controller (LTDC) peripheral:
   9:Drivers/STM32F4xx_StdPeriph_Driver/src/stm32f4xx_ltdc.c ****   *           + Initialization and configuration
  10:Drivers/STM32F4xx_StdPeriph_Driver/src/stm32f4xx_ltdc.c ****   *           + Interrupts and flags management
  11:Drivers/STM32F4xx_StdPeriph_Driver/src/stm32f4xx_ltdc.c ****   *           
  12:Drivers/STM32F4xx_StdPeriph_Driver/src/stm32f4xx_ltdc.c ****   *  @verbatim
  13:Drivers/STM32F4xx_StdPeriph_Driver/src/stm32f4xx_ltdc.c ****   
  14:Drivers/STM32F4xx_StdPeriph_Driver/src/stm32f4xx_ltdc.c ****  ===============================================================================
  15:Drivers/STM32F4xx_StdPeriph_Driver/src/stm32f4xx_ltdc.c ****                       ##### How to use this driver #####
  16:Drivers/STM32F4xx_StdPeriph_Driver/src/stm32f4xx_ltdc.c ****  ===============================================================================
  17:Drivers/STM32F4xx_StdPeriph_Driver/src/stm32f4xx_ltdc.c ****     [..]
  18:Drivers/STM32F4xx_StdPeriph_Driver/src/stm32f4xx_ltdc.c ****         (#) Enable LTDC clock using 
  19:Drivers/STM32F4xx_StdPeriph_Driver/src/stm32f4xx_ltdc.c ****             RCC_APB2PeriphResetCmd(RCC_APB2Periph_LTDC, ENABLE) function.
  20:Drivers/STM32F4xx_StdPeriph_Driver/src/stm32f4xx_ltdc.c ****         (#) Configures LTDC
  21:Drivers/STM32F4xx_StdPeriph_Driver/src/stm32f4xx_ltdc.c ****           (++) Configure the required Pixel clock following the panel datasheet
  22:Drivers/STM32F4xx_StdPeriph_Driver/src/stm32f4xx_ltdc.c ****           (++) Configure the Synchronous timings: VSYNC, HSYNC, Vertical and 
  23:Drivers/STM32F4xx_StdPeriph_Driver/src/stm32f4xx_ltdc.c ****               Horizontal back proch, active data area and the front proch 
  24:Drivers/STM32F4xx_StdPeriph_Driver/src/stm32f4xx_ltdc.c ****               timings 
  25:Drivers/STM32F4xx_StdPeriph_Driver/src/stm32f4xx_ltdc.c ****           (++) Configure the synchronous signals and clock polarity in the 
  26:Drivers/STM32F4xx_StdPeriph_Driver/src/stm32f4xx_ltdc.c ****               LTDC_GCR register
  27:Drivers/STM32F4xx_StdPeriph_Driver/src/stm32f4xx_ltdc.c ****         (#) Configures Layer1/2 parameters
  28:Drivers/STM32F4xx_StdPeriph_Driver/src/stm32f4xx_ltdc.c ****           (++) The Layer window horizontal and vertical position in the LTDC_LxWHPCR and 
  29:Drivers/STM32F4xx_StdPeriph_Driver/src/stm32f4xx_ltdc.c ****                LTDC_WVPCR registers. The layer window must be in the active data area.
  30:Drivers/STM32F4xx_StdPeriph_Driver/src/stm32f4xx_ltdc.c ****           (++) The pixel input format in the LTDC_LxPFCR register
ARM GAS  /tmp/ccGHW3gB.s 			page 2


  31:Drivers/STM32F4xx_StdPeriph_Driver/src/stm32f4xx_ltdc.c ****           (++) The color frame buffer start address in the LTDC_LxCFBAR register
  32:Drivers/STM32F4xx_StdPeriph_Driver/src/stm32f4xx_ltdc.c ****           (++) The line length and pitch of the color frame buffer in the 
  33:Drivers/STM32F4xx_StdPeriph_Driver/src/stm32f4xx_ltdc.c ****                LTDC_LxCFBLR register
  34:Drivers/STM32F4xx_StdPeriph_Driver/src/stm32f4xx_ltdc.c ****           (++) The number of lines of the color frame buffer in 
  35:Drivers/STM32F4xx_StdPeriph_Driver/src/stm32f4xx_ltdc.c ****                the LTDC_LxCFBLNR register
  36:Drivers/STM32F4xx_StdPeriph_Driver/src/stm32f4xx_ltdc.c ****           (++) if needed, load the CLUT with the RGB values and the address 
  37:Drivers/STM32F4xx_StdPeriph_Driver/src/stm32f4xx_ltdc.c ****                in the LTDC_LxCLUTWR register
  38:Drivers/STM32F4xx_StdPeriph_Driver/src/stm32f4xx_ltdc.c ****           (++) If needed, configure the default color and the blending factors 
  39:Drivers/STM32F4xx_StdPeriph_Driver/src/stm32f4xx_ltdc.c ****                respectively in the LTDC_LxDCCR and LTDC_LxBFCR registers 
  40:Drivers/STM32F4xx_StdPeriph_Driver/src/stm32f4xx_ltdc.c **** 
  41:Drivers/STM32F4xx_StdPeriph_Driver/src/stm32f4xx_ltdc.c ****           (++) If needed, Dithering and color keying can be enabled respectively 
  42:Drivers/STM32F4xx_StdPeriph_Driver/src/stm32f4xx_ltdc.c ****                in the LTDC_GCR and LTDC_LxCKCR registers. It can be also enabled 
  43:Drivers/STM32F4xx_StdPeriph_Driver/src/stm32f4xx_ltdc.c ****                on the fly.    
  44:Drivers/STM32F4xx_StdPeriph_Driver/src/stm32f4xx_ltdc.c ****         (#) Enable Layer1/2 and if needed the CLUT in the LTDC_LxCR register 
  45:Drivers/STM32F4xx_StdPeriph_Driver/src/stm32f4xx_ltdc.c ****   
  46:Drivers/STM32F4xx_StdPeriph_Driver/src/stm32f4xx_ltdc.c ****         (#) Reload the shadow registers to active register through 
  47:Drivers/STM32F4xx_StdPeriph_Driver/src/stm32f4xx_ltdc.c ****             the LTDC_SRCR register.
  48:Drivers/STM32F4xx_StdPeriph_Driver/src/stm32f4xx_ltdc.c ****           -@- All layer parameters can be modified on the fly except the CLUT. 
  49:Drivers/STM32F4xx_StdPeriph_Driver/src/stm32f4xx_ltdc.c ****               The new configuration has to be either reloaded immediately 
  50:Drivers/STM32F4xx_StdPeriph_Driver/src/stm32f4xx_ltdc.c ****               or during vertical blanking period by configuring the LTDC_SRCR register.
  51:Drivers/STM32F4xx_StdPeriph_Driver/src/stm32f4xx_ltdc.c ****         (#) Call the LTDC_Cmd() to enable the LTDC controller.
  52:Drivers/STM32F4xx_StdPeriph_Driver/src/stm32f4xx_ltdc.c **** 
  53:Drivers/STM32F4xx_StdPeriph_Driver/src/stm32f4xx_ltdc.c ****     @endverbatim
  54:Drivers/STM32F4xx_StdPeriph_Driver/src/stm32f4xx_ltdc.c ****   
  55:Drivers/STM32F4xx_StdPeriph_Driver/src/stm32f4xx_ltdc.c ****   ******************************************************************************
  56:Drivers/STM32F4xx_StdPeriph_Driver/src/stm32f4xx_ltdc.c ****   * @attention
  57:Drivers/STM32F4xx_StdPeriph_Driver/src/stm32f4xx_ltdc.c ****   *
  58:Drivers/STM32F4xx_StdPeriph_Driver/src/stm32f4xx_ltdc.c ****   * <h2><center>&copy; COPYRIGHT 2015 STMicroelectronics</center></h2>
  59:Drivers/STM32F4xx_StdPeriph_Driver/src/stm32f4xx_ltdc.c ****   *
  60:Drivers/STM32F4xx_StdPeriph_Driver/src/stm32f4xx_ltdc.c ****   * Licensed under MCD-ST Liberty SW License Agreement V2, (the "License");
  61:Drivers/STM32F4xx_StdPeriph_Driver/src/stm32f4xx_ltdc.c ****   * You may not use this file except in compliance with the License.
  62:Drivers/STM32F4xx_StdPeriph_Driver/src/stm32f4xx_ltdc.c ****   * You may obtain a copy of the License at:
  63:Drivers/STM32F4xx_StdPeriph_Driver/src/stm32f4xx_ltdc.c ****   *
  64:Drivers/STM32F4xx_StdPeriph_Driver/src/stm32f4xx_ltdc.c ****   *        http://www.st.com/software_license_agreement_liberty_v2
  65:Drivers/STM32F4xx_StdPeriph_Driver/src/stm32f4xx_ltdc.c ****   *
  66:Drivers/STM32F4xx_StdPeriph_Driver/src/stm32f4xx_ltdc.c ****   * Unless required by applicable law or agreed to in writing, software 
  67:Drivers/STM32F4xx_StdPeriph_Driver/src/stm32f4xx_ltdc.c ****   * distributed under the License is distributed on an "AS IS" BASIS, 
  68:Drivers/STM32F4xx_StdPeriph_Driver/src/stm32f4xx_ltdc.c ****   * WITHOUT WARRANTIES OR CONDITIONS OF ANY KIND, either express or implied.
  69:Drivers/STM32F4xx_StdPeriph_Driver/src/stm32f4xx_ltdc.c ****   * See the License for the specific language governing permissions and
  70:Drivers/STM32F4xx_StdPeriph_Driver/src/stm32f4xx_ltdc.c ****   * limitations under the License.
  71:Drivers/STM32F4xx_StdPeriph_Driver/src/stm32f4xx_ltdc.c ****   *
  72:Drivers/STM32F4xx_StdPeriph_Driver/src/stm32f4xx_ltdc.c ****   ******************************************************************************
  73:Drivers/STM32F4xx_StdPeriph_Driver/src/stm32f4xx_ltdc.c ****   */
  74:Drivers/STM32F4xx_StdPeriph_Driver/src/stm32f4xx_ltdc.c **** 
  75:Drivers/STM32F4xx_StdPeriph_Driver/src/stm32f4xx_ltdc.c **** /* Includes ------------------------------------------------------------------*/
  76:Drivers/STM32F4xx_StdPeriph_Driver/src/stm32f4xx_ltdc.c **** #include "stm32f4xx_ltdc.h"
  77:Drivers/STM32F4xx_StdPeriph_Driver/src/stm32f4xx_ltdc.c **** #include "stm32f4xx_rcc.h"
  78:Drivers/STM32F4xx_StdPeriph_Driver/src/stm32f4xx_ltdc.c **** 
  79:Drivers/STM32F4xx_StdPeriph_Driver/src/stm32f4xx_ltdc.c **** /** @addtogroup STM32F4xx_StdPeriph_Driver
  80:Drivers/STM32F4xx_StdPeriph_Driver/src/stm32f4xx_ltdc.c ****   * @{
  81:Drivers/STM32F4xx_StdPeriph_Driver/src/stm32f4xx_ltdc.c ****   */
  82:Drivers/STM32F4xx_StdPeriph_Driver/src/stm32f4xx_ltdc.c **** 
  83:Drivers/STM32F4xx_StdPeriph_Driver/src/stm32f4xx_ltdc.c **** /** @defgroup LTDC 
  84:Drivers/STM32F4xx_StdPeriph_Driver/src/stm32f4xx_ltdc.c ****   * @brief LTDC driver modules
  85:Drivers/STM32F4xx_StdPeriph_Driver/src/stm32f4xx_ltdc.c ****   * @{
  86:Drivers/STM32F4xx_StdPeriph_Driver/src/stm32f4xx_ltdc.c ****   */
  87:Drivers/STM32F4xx_StdPeriph_Driver/src/stm32f4xx_ltdc.c **** 
ARM GAS  /tmp/ccGHW3gB.s 			page 3


  88:Drivers/STM32F4xx_StdPeriph_Driver/src/stm32f4xx_ltdc.c **** /* Private typedef -----------------------------------------------------------*/
  89:Drivers/STM32F4xx_StdPeriph_Driver/src/stm32f4xx_ltdc.c **** /* Private define ------------------------------------------------------------*/
  90:Drivers/STM32F4xx_StdPeriph_Driver/src/stm32f4xx_ltdc.c **** /* Private macro -------------------------------------------------------------*/
  91:Drivers/STM32F4xx_StdPeriph_Driver/src/stm32f4xx_ltdc.c **** /* Private variables ---------------------------------------------------------*/
  92:Drivers/STM32F4xx_StdPeriph_Driver/src/stm32f4xx_ltdc.c **** /* Private function prototypes -----------------------------------------------*/
  93:Drivers/STM32F4xx_StdPeriph_Driver/src/stm32f4xx_ltdc.c **** /* Private functions ---------------------------------------------------------*/
  94:Drivers/STM32F4xx_StdPeriph_Driver/src/stm32f4xx_ltdc.c **** 
  95:Drivers/STM32F4xx_StdPeriph_Driver/src/stm32f4xx_ltdc.c **** #define GCR_MASK                     ((uint32_t)0x0FFE888F)  /* LTDC GCR Mask */
  96:Drivers/STM32F4xx_StdPeriph_Driver/src/stm32f4xx_ltdc.c **** 
  97:Drivers/STM32F4xx_StdPeriph_Driver/src/stm32f4xx_ltdc.c **** 
  98:Drivers/STM32F4xx_StdPeriph_Driver/src/stm32f4xx_ltdc.c **** /** @defgroup LTDC_Private_Functions
  99:Drivers/STM32F4xx_StdPeriph_Driver/src/stm32f4xx_ltdc.c ****   * @{
 100:Drivers/STM32F4xx_StdPeriph_Driver/src/stm32f4xx_ltdc.c ****   */
 101:Drivers/STM32F4xx_StdPeriph_Driver/src/stm32f4xx_ltdc.c **** 
 102:Drivers/STM32F4xx_StdPeriph_Driver/src/stm32f4xx_ltdc.c **** /** @defgroup LTDC_Group1 Initialization and Configuration functions
 103:Drivers/STM32F4xx_StdPeriph_Driver/src/stm32f4xx_ltdc.c ****  *  @brief   Initialization and Configuration functions 
 104:Drivers/STM32F4xx_StdPeriph_Driver/src/stm32f4xx_ltdc.c ****  *
 105:Drivers/STM32F4xx_StdPeriph_Driver/src/stm32f4xx_ltdc.c **** @verbatim
 106:Drivers/STM32F4xx_StdPeriph_Driver/src/stm32f4xx_ltdc.c ****  ===============================================================================
 107:Drivers/STM32F4xx_StdPeriph_Driver/src/stm32f4xx_ltdc.c ****             ##### Initialization and Configuration functions #####
 108:Drivers/STM32F4xx_StdPeriph_Driver/src/stm32f4xx_ltdc.c ****  ===============================================================================
 109:Drivers/STM32F4xx_StdPeriph_Driver/src/stm32f4xx_ltdc.c ****     [..]  This section provides functions allowing to:
 110:Drivers/STM32F4xx_StdPeriph_Driver/src/stm32f4xx_ltdc.c ****       (+) Initialize and configure the LTDC
 111:Drivers/STM32F4xx_StdPeriph_Driver/src/stm32f4xx_ltdc.c ****       (+) Enable or Disable Dither
 112:Drivers/STM32F4xx_StdPeriph_Driver/src/stm32f4xx_ltdc.c ****       (+) Define the position of the line interrupt
 113:Drivers/STM32F4xx_StdPeriph_Driver/src/stm32f4xx_ltdc.c ****       (+) reload layers registers with new parameters
 114:Drivers/STM32F4xx_StdPeriph_Driver/src/stm32f4xx_ltdc.c ****       (+) Initialize and configure layer1 and layer2
 115:Drivers/STM32F4xx_StdPeriph_Driver/src/stm32f4xx_ltdc.c ****       (+) Set and configure the color keying functionality
 116:Drivers/STM32F4xx_StdPeriph_Driver/src/stm32f4xx_ltdc.c ****       (+) Configure and Enables or disables CLUT 
 117:Drivers/STM32F4xx_StdPeriph_Driver/src/stm32f4xx_ltdc.c ****       
 118:Drivers/STM32F4xx_StdPeriph_Driver/src/stm32f4xx_ltdc.c **** @endverbatim
 119:Drivers/STM32F4xx_StdPeriph_Driver/src/stm32f4xx_ltdc.c ****   * @{
 120:Drivers/STM32F4xx_StdPeriph_Driver/src/stm32f4xx_ltdc.c ****   */
 121:Drivers/STM32F4xx_StdPeriph_Driver/src/stm32f4xx_ltdc.c **** 
 122:Drivers/STM32F4xx_StdPeriph_Driver/src/stm32f4xx_ltdc.c **** /**
 123:Drivers/STM32F4xx_StdPeriph_Driver/src/stm32f4xx_ltdc.c ****   * @brief  Deinitializes the LTDC peripheral registers to their default reset
 124:Drivers/STM32F4xx_StdPeriph_Driver/src/stm32f4xx_ltdc.c ****   *         values.
 125:Drivers/STM32F4xx_StdPeriph_Driver/src/stm32f4xx_ltdc.c ****   * @param  None
 126:Drivers/STM32F4xx_StdPeriph_Driver/src/stm32f4xx_ltdc.c ****   * @retval None
 127:Drivers/STM32F4xx_StdPeriph_Driver/src/stm32f4xx_ltdc.c ****   */
 128:Drivers/STM32F4xx_StdPeriph_Driver/src/stm32f4xx_ltdc.c **** 
 129:Drivers/STM32F4xx_StdPeriph_Driver/src/stm32f4xx_ltdc.c **** void LTDC_DeInit(void)
 130:Drivers/STM32F4xx_StdPeriph_Driver/src/stm32f4xx_ltdc.c **** {
  29              		.loc 1 130 1 view -0
  30              		.cfi_startproc
  31              		@ args = 0, pretend = 0, frame = 0
  32              		@ frame_needed = 0, uses_anonymous_args = 0
  33 0000 08B5     		push	{r3, lr}
  34              		.cfi_def_cfa_offset 8
  35              		.cfi_offset 3, -8
  36              		.cfi_offset 14, -4
 131:Drivers/STM32F4xx_StdPeriph_Driver/src/stm32f4xx_ltdc.c ****   /* Enable LTDC reset state */
 132:Drivers/STM32F4xx_StdPeriph_Driver/src/stm32f4xx_ltdc.c ****   RCC_APB2PeriphResetCmd(RCC_APB2Periph_LTDC, ENABLE);
  37              		.loc 1 132 3 view .LVU1
  38 0002 0121     		movs	r1, #1
  39 0004 4FF08060 		mov	r0, #67108864
  40 0008 FFF7FEFF 		bl	RCC_APB2PeriphResetCmd
ARM GAS  /tmp/ccGHW3gB.s 			page 4


  41              	.LVL0:
 133:Drivers/STM32F4xx_StdPeriph_Driver/src/stm32f4xx_ltdc.c ****   /* Release LTDC from reset state */
 134:Drivers/STM32F4xx_StdPeriph_Driver/src/stm32f4xx_ltdc.c ****   RCC_APB2PeriphResetCmd(RCC_APB2Periph_LTDC, DISABLE);
  42              		.loc 1 134 3 view .LVU2
  43 000c 0021     		movs	r1, #0
  44 000e 4FF08060 		mov	r0, #67108864
  45 0012 FFF7FEFF 		bl	RCC_APB2PeriphResetCmd
  46              	.LVL1:
 135:Drivers/STM32F4xx_StdPeriph_Driver/src/stm32f4xx_ltdc.c **** }
  47              		.loc 1 135 1 is_stmt 0 view .LVU3
  48 0016 08BD     		pop	{r3, pc}
  49              		.cfi_endproc
  50              	.LFE123:
  52              		.section	.text.LTDC_Init,"ax",%progbits
  53              		.align	1
  54              		.global	LTDC_Init
  55              		.syntax unified
  56              		.thumb
  57              		.thumb_func
  59              	LTDC_Init:
  60              	.LVL2:
  61              	.LFB124:
 136:Drivers/STM32F4xx_StdPeriph_Driver/src/stm32f4xx_ltdc.c **** 
 137:Drivers/STM32F4xx_StdPeriph_Driver/src/stm32f4xx_ltdc.c **** /**
 138:Drivers/STM32F4xx_StdPeriph_Driver/src/stm32f4xx_ltdc.c ****   * @brief  Initializes the LTDC peripheral according to the specified parameters
 139:Drivers/STM32F4xx_StdPeriph_Driver/src/stm32f4xx_ltdc.c ****   *         in the LTDC_InitStruct.
 140:Drivers/STM32F4xx_StdPeriph_Driver/src/stm32f4xx_ltdc.c ****   * @note   This function can be used only when the LTDC is disabled.
 141:Drivers/STM32F4xx_StdPeriph_Driver/src/stm32f4xx_ltdc.c ****   * @param  LTDC_InitStruct: pointer to a LTDC_InitTypeDef structure that contains
 142:Drivers/STM32F4xx_StdPeriph_Driver/src/stm32f4xx_ltdc.c ****   *         the configuration information for the specified LTDC peripheral.
 143:Drivers/STM32F4xx_StdPeriph_Driver/src/stm32f4xx_ltdc.c ****   * @retval None
 144:Drivers/STM32F4xx_StdPeriph_Driver/src/stm32f4xx_ltdc.c ****   */
 145:Drivers/STM32F4xx_StdPeriph_Driver/src/stm32f4xx_ltdc.c **** 
 146:Drivers/STM32F4xx_StdPeriph_Driver/src/stm32f4xx_ltdc.c **** void LTDC_Init(LTDC_InitTypeDef* LTDC_InitStruct)
 147:Drivers/STM32F4xx_StdPeriph_Driver/src/stm32f4xx_ltdc.c **** {
  62              		.loc 1 147 1 is_stmt 1 view -0
  63              		.cfi_startproc
  64              		@ args = 0, pretend = 0, frame = 0
  65              		@ frame_needed = 0, uses_anonymous_args = 0
  66              		@ link register save eliminated.
  67              		.loc 1 147 1 is_stmt 0 view .LVU5
  68 0000 30B4     		push	{r4, r5}
  69              		.cfi_def_cfa_offset 8
  70              		.cfi_offset 4, -8
  71              		.cfi_offset 5, -4
 148:Drivers/STM32F4xx_StdPeriph_Driver/src/stm32f4xx_ltdc.c ****   uint32_t horizontalsync = 0;
  72              		.loc 1 148 3 is_stmt 1 view .LVU6
  73              	.LVL3:
 149:Drivers/STM32F4xx_StdPeriph_Driver/src/stm32f4xx_ltdc.c ****   uint32_t accumulatedHBP = 0;
  74              		.loc 1 149 3 view .LVU7
 150:Drivers/STM32F4xx_StdPeriph_Driver/src/stm32f4xx_ltdc.c ****   uint32_t accumulatedactiveW = 0;
  75              		.loc 1 150 3 view .LVU8
 151:Drivers/STM32F4xx_StdPeriph_Driver/src/stm32f4xx_ltdc.c ****   uint32_t totalwidth = 0;
  76              		.loc 1 151 3 view .LVU9
 152:Drivers/STM32F4xx_StdPeriph_Driver/src/stm32f4xx_ltdc.c ****   uint32_t backgreen = 0;
  77              		.loc 1 152 3 view .LVU10
 153:Drivers/STM32F4xx_StdPeriph_Driver/src/stm32f4xx_ltdc.c ****   uint32_t backred = 0;
  78              		.loc 1 153 3 view .LVU11
ARM GAS  /tmp/ccGHW3gB.s 			page 5


 154:Drivers/STM32F4xx_StdPeriph_Driver/src/stm32f4xx_ltdc.c **** 
 155:Drivers/STM32F4xx_StdPeriph_Driver/src/stm32f4xx_ltdc.c ****   /* Check function parameters */
 156:Drivers/STM32F4xx_StdPeriph_Driver/src/stm32f4xx_ltdc.c ****   assert_param(IS_LTDC_HSYNC(LTDC_InitStruct->LTDC_HorizontalSync));
  79              		.loc 1 156 3 view .LVU12
 157:Drivers/STM32F4xx_StdPeriph_Driver/src/stm32f4xx_ltdc.c ****   assert_param(IS_LTDC_VSYNC(LTDC_InitStruct->LTDC_VerticalSync));
  80              		.loc 1 157 3 view .LVU13
 158:Drivers/STM32F4xx_StdPeriph_Driver/src/stm32f4xx_ltdc.c ****   assert_param(IS_LTDC_AHBP(LTDC_InitStruct->LTDC_AccumulatedHBP));
  81              		.loc 1 158 3 view .LVU14
 159:Drivers/STM32F4xx_StdPeriph_Driver/src/stm32f4xx_ltdc.c ****   assert_param(IS_LTDC_AVBP(LTDC_InitStruct->LTDC_AccumulatedVBP));
  82              		.loc 1 159 3 view .LVU15
 160:Drivers/STM32F4xx_StdPeriph_Driver/src/stm32f4xx_ltdc.c ****   assert_param(IS_LTDC_AAH(LTDC_InitStruct->LTDC_AccumulatedActiveH));
  83              		.loc 1 160 3 view .LVU16
 161:Drivers/STM32F4xx_StdPeriph_Driver/src/stm32f4xx_ltdc.c ****   assert_param(IS_LTDC_AAW(LTDC_InitStruct->LTDC_AccumulatedActiveW));
  84              		.loc 1 161 3 view .LVU17
 162:Drivers/STM32F4xx_StdPeriph_Driver/src/stm32f4xx_ltdc.c ****   assert_param(IS_LTDC_TOTALH(LTDC_InitStruct->LTDC_TotalHeigh));
  85              		.loc 1 162 3 view .LVU18
 163:Drivers/STM32F4xx_StdPeriph_Driver/src/stm32f4xx_ltdc.c ****   assert_param(IS_LTDC_TOTALW(LTDC_InitStruct->LTDC_TotalWidth));
  86              		.loc 1 163 3 view .LVU19
 164:Drivers/STM32F4xx_StdPeriph_Driver/src/stm32f4xx_ltdc.c ****   assert_param(IS_LTDC_HSPOL(LTDC_InitStruct->LTDC_HSPolarity));
  87              		.loc 1 164 3 view .LVU20
 165:Drivers/STM32F4xx_StdPeriph_Driver/src/stm32f4xx_ltdc.c ****   assert_param(IS_LTDC_VSPOL(LTDC_InitStruct->LTDC_VSPolarity));
  88              		.loc 1 165 3 view .LVU21
 166:Drivers/STM32F4xx_StdPeriph_Driver/src/stm32f4xx_ltdc.c ****   assert_param(IS_LTDC_DEPOL(LTDC_InitStruct->LTDC_DEPolarity));
  89              		.loc 1 166 3 view .LVU22
 167:Drivers/STM32F4xx_StdPeriph_Driver/src/stm32f4xx_ltdc.c ****   assert_param(IS_LTDC_PCPOL(LTDC_InitStruct->LTDC_PCPolarity));
  90              		.loc 1 167 3 view .LVU23
 168:Drivers/STM32F4xx_StdPeriph_Driver/src/stm32f4xx_ltdc.c ****   assert_param(IS_LTDC_BackBlueValue(LTDC_InitStruct->LTDC_BackgroundBlueValue));
  91              		.loc 1 168 3 view .LVU24
 169:Drivers/STM32F4xx_StdPeriph_Driver/src/stm32f4xx_ltdc.c ****   assert_param(IS_LTDC_BackGreenValue(LTDC_InitStruct->LTDC_BackgroundGreenValue));
  92              		.loc 1 169 3 view .LVU25
 170:Drivers/STM32F4xx_StdPeriph_Driver/src/stm32f4xx_ltdc.c ****   assert_param(IS_LTDC_BackRedValue(LTDC_InitStruct->LTDC_BackgroundRedValue));
  93              		.loc 1 170 3 view .LVU26
 171:Drivers/STM32F4xx_StdPeriph_Driver/src/stm32f4xx_ltdc.c **** 
 172:Drivers/STM32F4xx_StdPeriph_Driver/src/stm32f4xx_ltdc.c ****   /* Sets Synchronization size */
 173:Drivers/STM32F4xx_StdPeriph_Driver/src/stm32f4xx_ltdc.c ****   LTDC->SSCR &= ~(LTDC_SSCR_VSH | LTDC_SSCR_HSW);
  94              		.loc 1 173 3 view .LVU27
  95              		.loc 1 173 14 is_stmt 0 view .LVU28
  96 0002 254B     		ldr	r3, .L5
  97 0004 9968     		ldr	r1, [r3, #8]
  98 0006 254A     		ldr	r2, .L5+4
  99 0008 1140     		ands	r1, r1, r2
 100 000a 9960     		str	r1, [r3, #8]
 174:Drivers/STM32F4xx_StdPeriph_Driver/src/stm32f4xx_ltdc.c ****   horizontalsync = (LTDC_InitStruct->LTDC_HorizontalSync << 16);
 101              		.loc 1 174 3 is_stmt 1 view .LVU29
 102              		.loc 1 174 36 is_stmt 0 view .LVU30
 103 000c 0469     		ldr	r4, [r0, #16]
 104              	.LVL4:
 175:Drivers/STM32F4xx_StdPeriph_Driver/src/stm32f4xx_ltdc.c ****   LTDC->SSCR |= (horizontalsync | LTDC_InitStruct->LTDC_VerticalSync);
 105              		.loc 1 175 3 is_stmt 1 view .LVU31
 106              		.loc 1 175 14 is_stmt 0 view .LVU32
 107 000e 9968     		ldr	r1, [r3, #8]
 108              		.loc 1 175 33 view .LVU33
 109 0010 4569     		ldr	r5, [r0, #20]
 110 0012 45EA044C 		orr	ip, r5, r4, lsl #16
 111              		.loc 1 175 14 view .LVU34
 112 0016 41EA0C01 		orr	r1, r1, ip
 113 001a 9960     		str	r1, [r3, #8]
ARM GAS  /tmp/ccGHW3gB.s 			page 6


 176:Drivers/STM32F4xx_StdPeriph_Driver/src/stm32f4xx_ltdc.c **** 
 177:Drivers/STM32F4xx_StdPeriph_Driver/src/stm32f4xx_ltdc.c ****   /* Sets Accumulated Back porch */
 178:Drivers/STM32F4xx_StdPeriph_Driver/src/stm32f4xx_ltdc.c ****   LTDC->BPCR &= ~(LTDC_BPCR_AVBP | LTDC_BPCR_AHBP);
 114              		.loc 1 178 3 is_stmt 1 view .LVU35
 115              		.loc 1 178 14 is_stmt 0 view .LVU36
 116 001c D968     		ldr	r1, [r3, #12]
 117 001e 1140     		ands	r1, r1, r2
 118 0020 D960     		str	r1, [r3, #12]
 179:Drivers/STM32F4xx_StdPeriph_Driver/src/stm32f4xx_ltdc.c ****   accumulatedHBP = (LTDC_InitStruct->LTDC_AccumulatedHBP << 16);
 119              		.loc 1 179 3 is_stmt 1 view .LVU37
 120              		.loc 1 179 36 is_stmt 0 view .LVU38
 121 0022 8469     		ldr	r4, [r0, #24]
 122              	.LVL5:
 180:Drivers/STM32F4xx_StdPeriph_Driver/src/stm32f4xx_ltdc.c ****   LTDC->BPCR |= (accumulatedHBP | LTDC_InitStruct->LTDC_AccumulatedVBP);
 123              		.loc 1 180 3 is_stmt 1 view .LVU39
 124              		.loc 1 180 14 is_stmt 0 view .LVU40
 125 0024 D968     		ldr	r1, [r3, #12]
 126              		.loc 1 180 33 view .LVU41
 127 0026 C569     		ldr	r5, [r0, #28]
 128 0028 45EA044C 		orr	ip, r5, r4, lsl #16
 129              		.loc 1 180 14 view .LVU42
 130 002c 41EA0C01 		orr	r1, r1, ip
 131 0030 D960     		str	r1, [r3, #12]
 181:Drivers/STM32F4xx_StdPeriph_Driver/src/stm32f4xx_ltdc.c **** 
 182:Drivers/STM32F4xx_StdPeriph_Driver/src/stm32f4xx_ltdc.c ****   /* Sets Accumulated Active Width */
 183:Drivers/STM32F4xx_StdPeriph_Driver/src/stm32f4xx_ltdc.c ****   LTDC->AWCR &= ~(LTDC_AWCR_AAH | LTDC_AWCR_AAW);
 132              		.loc 1 183 3 is_stmt 1 view .LVU43
 133              		.loc 1 183 14 is_stmt 0 view .LVU44
 134 0032 1969     		ldr	r1, [r3, #16]
 135 0034 1140     		ands	r1, r1, r2
 136 0036 1961     		str	r1, [r3, #16]
 184:Drivers/STM32F4xx_StdPeriph_Driver/src/stm32f4xx_ltdc.c ****   accumulatedactiveW = (LTDC_InitStruct->LTDC_AccumulatedActiveW << 16);
 137              		.loc 1 184 3 is_stmt 1 view .LVU45
 138              		.loc 1 184 40 is_stmt 0 view .LVU46
 139 0038 046A     		ldr	r4, [r0, #32]
 140              	.LVL6:
 185:Drivers/STM32F4xx_StdPeriph_Driver/src/stm32f4xx_ltdc.c ****   LTDC->AWCR |= (accumulatedactiveW | LTDC_InitStruct->LTDC_AccumulatedActiveH);
 141              		.loc 1 185 3 is_stmt 1 view .LVU47
 142              		.loc 1 185 14 is_stmt 0 view .LVU48
 143 003a 1969     		ldr	r1, [r3, #16]
 144              		.loc 1 185 37 view .LVU49
 145 003c 456A     		ldr	r5, [r0, #36]
 146 003e 45EA044C 		orr	ip, r5, r4, lsl #16
 147              		.loc 1 185 14 view .LVU50
 148 0042 41EA0C01 		orr	r1, r1, ip
 149 0046 1961     		str	r1, [r3, #16]
 186:Drivers/STM32F4xx_StdPeriph_Driver/src/stm32f4xx_ltdc.c **** 
 187:Drivers/STM32F4xx_StdPeriph_Driver/src/stm32f4xx_ltdc.c ****   /* Sets Total Width */
 188:Drivers/STM32F4xx_StdPeriph_Driver/src/stm32f4xx_ltdc.c ****   LTDC->TWCR &= ~(LTDC_TWCR_TOTALH | LTDC_TWCR_TOTALW);
 150              		.loc 1 188 3 is_stmt 1 view .LVU51
 151              		.loc 1 188 14 is_stmt 0 view .LVU52
 152 0048 5969     		ldr	r1, [r3, #20]
 153 004a 0A40     		ands	r2, r2, r1
 154 004c 5A61     		str	r2, [r3, #20]
 189:Drivers/STM32F4xx_StdPeriph_Driver/src/stm32f4xx_ltdc.c ****   totalwidth = (LTDC_InitStruct->LTDC_TotalWidth << 16);
 155              		.loc 1 189 3 is_stmt 1 view .LVU53
 156              		.loc 1 189 32 is_stmt 0 view .LVU54
ARM GAS  /tmp/ccGHW3gB.s 			page 7


 157 004e 846A     		ldr	r4, [r0, #40]
 158              	.LVL7:
 190:Drivers/STM32F4xx_StdPeriph_Driver/src/stm32f4xx_ltdc.c ****   LTDC->TWCR |= (totalwidth | LTDC_InitStruct->LTDC_TotalHeigh);
 159              		.loc 1 190 3 is_stmt 1 view .LVU55
 160              		.loc 1 190 14 is_stmt 0 view .LVU56
 161 0050 5A69     		ldr	r2, [r3, #20]
 162              		.loc 1 190 46 view .LVU57
 163 0052 C16A     		ldr	r1, [r0, #44]
 164              		.loc 1 190 29 view .LVU58
 165 0054 41EA0441 		orr	r1, r1, r4, lsl #16
 166              		.loc 1 190 14 view .LVU59
 167 0058 0A43     		orrs	r2, r2, r1
 168 005a 5A61     		str	r2, [r3, #20]
 191:Drivers/STM32F4xx_StdPeriph_Driver/src/stm32f4xx_ltdc.c **** 
 192:Drivers/STM32F4xx_StdPeriph_Driver/src/stm32f4xx_ltdc.c ****   LTDC->GCR &= (uint32_t)GCR_MASK;
 169              		.loc 1 192 3 is_stmt 1 view .LVU60
 170              		.loc 1 192 13 is_stmt 0 view .LVU61
 171 005c 9969     		ldr	r1, [r3, #24]
 172 005e 104A     		ldr	r2, .L5+8
 173 0060 0A40     		ands	r2, r2, r1
 174 0062 9A61     		str	r2, [r3, #24]
 193:Drivers/STM32F4xx_StdPeriph_Driver/src/stm32f4xx_ltdc.c ****   LTDC->GCR |=  (uint32_t)(LTDC_InitStruct->LTDC_HSPolarity | LTDC_InitStruct->LTDC_VSPolarity | \
 175              		.loc 1 193 3 is_stmt 1 view .LVU62
 176              		.loc 1 193 13 is_stmt 0 view .LVU63
 177 0064 9969     		ldr	r1, [r3, #24]
 178              		.loc 1 193 43 view .LVU64
 179 0066 0268     		ldr	r2, [r0]
 180              		.loc 1 193 78 view .LVU65
 181 0068 4468     		ldr	r4, [r0, #4]
 182              	.LVL8:
 183              		.loc 1 193 61 view .LVU66
 184 006a 2243     		orrs	r2, r2, r4
 194:Drivers/STM32F4xx_StdPeriph_Driver/src/stm32f4xx_ltdc.c ****                            LTDC_InitStruct->LTDC_DEPolarity | LTDC_InitStruct->LTDC_PCPolarity);
 185              		.loc 1 194 43 view .LVU67
 186 006c 8468     		ldr	r4, [r0, #8]
 193:Drivers/STM32F4xx_StdPeriph_Driver/src/stm32f4xx_ltdc.c ****   LTDC->GCR |=  (uint32_t)(LTDC_InitStruct->LTDC_HSPolarity | LTDC_InitStruct->LTDC_VSPolarity | \
 187              		.loc 1 193 96 view .LVU68
 188 006e 2243     		orrs	r2, r2, r4
 189              		.loc 1 194 78 view .LVU69
 190 0070 C468     		ldr	r4, [r0, #12]
 191              		.loc 1 194 61 view .LVU70
 192 0072 2243     		orrs	r2, r2, r4
 193:Drivers/STM32F4xx_StdPeriph_Driver/src/stm32f4xx_ltdc.c ****   LTDC->GCR |=  (uint32_t)(LTDC_InitStruct->LTDC_HSPolarity | LTDC_InitStruct->LTDC_VSPolarity | \
 193              		.loc 1 193 13 view .LVU71
 194 0074 0A43     		orrs	r2, r2, r1
 195 0076 9A61     		str	r2, [r3, #24]
 195:Drivers/STM32F4xx_StdPeriph_Driver/src/stm32f4xx_ltdc.c **** 
 196:Drivers/STM32F4xx_StdPeriph_Driver/src/stm32f4xx_ltdc.c ****   /* sets the background color value */
 197:Drivers/STM32F4xx_StdPeriph_Driver/src/stm32f4xx_ltdc.c ****   backgreen = (LTDC_InitStruct->LTDC_BackgroundGreenValue << 8);
 196              		.loc 1 197 3 is_stmt 1 view .LVU72
 197              		.loc 1 197 31 is_stmt 0 view .LVU73
 198 0078 446B     		ldr	r4, [r0, #52]
 199              	.LVL9:
 198:Drivers/STM32F4xx_StdPeriph_Driver/src/stm32f4xx_ltdc.c ****   backred = (LTDC_InitStruct->LTDC_BackgroundRedValue << 16);
 200              		.loc 1 198 3 is_stmt 1 view .LVU74
 201              		.loc 1 198 29 is_stmt 0 view .LVU75
 202 007a 026B     		ldr	r2, [r0, #48]
ARM GAS  /tmp/ccGHW3gB.s 			page 8


 203              		.loc 1 198 11 view .LVU76
 204 007c 1204     		lsls	r2, r2, #16
 205              	.LVL10:
 199:Drivers/STM32F4xx_StdPeriph_Driver/src/stm32f4xx_ltdc.c **** 
 200:Drivers/STM32F4xx_StdPeriph_Driver/src/stm32f4xx_ltdc.c ****   LTDC->BCCR &= ~(LTDC_BCCR_BCBLUE | LTDC_BCCR_BCGREEN | LTDC_BCCR_BCRED);
 206              		.loc 1 200 3 is_stmt 1 view .LVU77
 207              		.loc 1 200 14 is_stmt 0 view .LVU78
 208 007e D96A     		ldr	r1, [r3, #44]
 209 0080 01F07F41 		and	r1, r1, #-16777216
 210 0084 D962     		str	r1, [r3, #44]
 201:Drivers/STM32F4xx_StdPeriph_Driver/src/stm32f4xx_ltdc.c ****   LTDC->BCCR |= (backred | backgreen | LTDC_InitStruct->LTDC_BackgroundBlueValue);
 211              		.loc 1 201 3 is_stmt 1 view .LVU79
 212              		.loc 1 201 14 is_stmt 0 view .LVU80
 213 0086 D96A     		ldr	r1, [r3, #44]
 214              		.loc 1 201 26 view .LVU81
 215 0088 42EA0422 		orr	r2, r2, r4, lsl #8
 216              	.LVL11:
 217              		.loc 1 201 55 view .LVU82
 218 008c 806B     		ldr	r0, [r0, #56]
 219              	.LVL12:
 220              		.loc 1 201 38 view .LVU83
 221 008e 0243     		orrs	r2, r2, r0
 222              		.loc 1 201 14 view .LVU84
 223 0090 0A43     		orrs	r2, r2, r1
 224 0092 DA62     		str	r2, [r3, #44]
 202:Drivers/STM32F4xx_StdPeriph_Driver/src/stm32f4xx_ltdc.c **** }
 225              		.loc 1 202 1 view .LVU85
 226 0094 30BC     		pop	{r4, r5}
 227              		.cfi_restore 5
 228              		.cfi_restore 4
 229              		.cfi_def_cfa_offset 0
 230              	.LVL13:
 231              		.loc 1 202 1 view .LVU86
 232 0096 7047     		bx	lr
 233              	.L6:
 234              		.align	2
 235              	.L5:
 236 0098 00680140 		.word	1073833984
 237 009c 00F800F0 		.word	-268371968
 238 00a0 8F88FE0F 		.word	268339343
 239              		.cfi_endproc
 240              	.LFE124:
 242              		.section	.text.LTDC_StructInit,"ax",%progbits
 243              		.align	1
 244              		.global	LTDC_StructInit
 245              		.syntax unified
 246              		.thumb
 247              		.thumb_func
 249              	LTDC_StructInit:
 250              	.LVL14:
 251              	.LFB125:
 203:Drivers/STM32F4xx_StdPeriph_Driver/src/stm32f4xx_ltdc.c **** 
 204:Drivers/STM32F4xx_StdPeriph_Driver/src/stm32f4xx_ltdc.c **** /**
 205:Drivers/STM32F4xx_StdPeriph_Driver/src/stm32f4xx_ltdc.c ****   * @brief  Fills each LTDC_InitStruct member with its default value.
 206:Drivers/STM32F4xx_StdPeriph_Driver/src/stm32f4xx_ltdc.c ****   * @param  LTDC_InitStruct: pointer to a LTDC_InitTypeDef structure which will
 207:Drivers/STM32F4xx_StdPeriph_Driver/src/stm32f4xx_ltdc.c ****   *         be initialized.
 208:Drivers/STM32F4xx_StdPeriph_Driver/src/stm32f4xx_ltdc.c ****   * @retval None
ARM GAS  /tmp/ccGHW3gB.s 			page 9


 209:Drivers/STM32F4xx_StdPeriph_Driver/src/stm32f4xx_ltdc.c ****   */
 210:Drivers/STM32F4xx_StdPeriph_Driver/src/stm32f4xx_ltdc.c **** 
 211:Drivers/STM32F4xx_StdPeriph_Driver/src/stm32f4xx_ltdc.c **** void LTDC_StructInit(LTDC_InitTypeDef* LTDC_InitStruct)
 212:Drivers/STM32F4xx_StdPeriph_Driver/src/stm32f4xx_ltdc.c **** {
 252              		.loc 1 212 1 is_stmt 1 view -0
 253              		.cfi_startproc
 254              		@ args = 0, pretend = 0, frame = 0
 255              		@ frame_needed = 0, uses_anonymous_args = 0
 256              		@ link register save eliminated.
 213:Drivers/STM32F4xx_StdPeriph_Driver/src/stm32f4xx_ltdc.c ****   /*--------------- Reset LTDC init structure parameters values ----------------*/
 214:Drivers/STM32F4xx_StdPeriph_Driver/src/stm32f4xx_ltdc.c ****   LTDC_InitStruct->LTDC_HSPolarity = LTDC_HSPolarity_AL;      /*!< Initialize the LTDC_HSPolarity m
 257              		.loc 1 214 3 view .LVU88
 258              		.loc 1 214 36 is_stmt 0 view .LVU89
 259 0000 0023     		movs	r3, #0
 260 0002 0360     		str	r3, [r0]
 215:Drivers/STM32F4xx_StdPeriph_Driver/src/stm32f4xx_ltdc.c ****   LTDC_InitStruct->LTDC_VSPolarity = LTDC_VSPolarity_AL;      /*!< Initialize the LTDC_VSPolarity m
 261              		.loc 1 215 3 is_stmt 1 view .LVU90
 262              		.loc 1 215 36 is_stmt 0 view .LVU91
 263 0004 4360     		str	r3, [r0, #4]
 216:Drivers/STM32F4xx_StdPeriph_Driver/src/stm32f4xx_ltdc.c ****   LTDC_InitStruct->LTDC_DEPolarity = LTDC_DEPolarity_AL;      /*!< Initialize the LTDC_DEPolarity m
 264              		.loc 1 216 3 is_stmt 1 view .LVU92
 265              		.loc 1 216 36 is_stmt 0 view .LVU93
 266 0006 8360     		str	r3, [r0, #8]
 217:Drivers/STM32F4xx_StdPeriph_Driver/src/stm32f4xx_ltdc.c ****   LTDC_InitStruct->LTDC_PCPolarity = LTDC_PCPolarity_IPC;     /*!< Initialize the LTDC_PCPolarity m
 267              		.loc 1 217 3 is_stmt 1 view .LVU94
 268              		.loc 1 217 36 is_stmt 0 view .LVU95
 269 0008 C360     		str	r3, [r0, #12]
 218:Drivers/STM32F4xx_StdPeriph_Driver/src/stm32f4xx_ltdc.c ****   LTDC_InitStruct->LTDC_HorizontalSync = 0x00;                /*!< Initialize the LTDC_HorizontalSy
 270              		.loc 1 218 3 is_stmt 1 view .LVU96
 271              		.loc 1 218 40 is_stmt 0 view .LVU97
 272 000a 0361     		str	r3, [r0, #16]
 219:Drivers/STM32F4xx_StdPeriph_Driver/src/stm32f4xx_ltdc.c ****   LTDC_InitStruct->LTDC_VerticalSync = 0x00;                  /*!< Initialize the LTDC_VerticalSync
 273              		.loc 1 219 3 is_stmt 1 view .LVU98
 274              		.loc 1 219 38 is_stmt 0 view .LVU99
 275 000c 4361     		str	r3, [r0, #20]
 220:Drivers/STM32F4xx_StdPeriph_Driver/src/stm32f4xx_ltdc.c ****   LTDC_InitStruct->LTDC_AccumulatedHBP = 0x00;                /*!< Initialize the LTDC_AccumulatedH
 276              		.loc 1 220 3 is_stmt 1 view .LVU100
 277              		.loc 1 220 40 is_stmt 0 view .LVU101
 278 000e 8361     		str	r3, [r0, #24]
 221:Drivers/STM32F4xx_StdPeriph_Driver/src/stm32f4xx_ltdc.c ****   LTDC_InitStruct->LTDC_AccumulatedVBP = 0x00;                /*!< Initialize the LTDC_AccumulatedV
 279              		.loc 1 221 3 is_stmt 1 view .LVU102
 280              		.loc 1 221 40 is_stmt 0 view .LVU103
 281 0010 C361     		str	r3, [r0, #28]
 222:Drivers/STM32F4xx_StdPeriph_Driver/src/stm32f4xx_ltdc.c ****   LTDC_InitStruct->LTDC_AccumulatedActiveW = 0x00;            /*!< Initialize the LTDC_AccumulatedA
 282              		.loc 1 222 3 is_stmt 1 view .LVU104
 283              		.loc 1 222 44 is_stmt 0 view .LVU105
 284 0012 0362     		str	r3, [r0, #32]
 223:Drivers/STM32F4xx_StdPeriph_Driver/src/stm32f4xx_ltdc.c ****   LTDC_InitStruct->LTDC_AccumulatedActiveH = 0x00;            /*!< Initialize the LTDC_AccumulatedA
 285              		.loc 1 223 3 is_stmt 1 view .LVU106
 286              		.loc 1 223 44 is_stmt 0 view .LVU107
 287 0014 4362     		str	r3, [r0, #36]
 224:Drivers/STM32F4xx_StdPeriph_Driver/src/stm32f4xx_ltdc.c ****   LTDC_InitStruct->LTDC_TotalWidth = 0x00;                    /*!< Initialize the LTDC_TotalWidth m
 288              		.loc 1 224 3 is_stmt 1 view .LVU108
 289              		.loc 1 224 36 is_stmt 0 view .LVU109
 290 0016 8362     		str	r3, [r0, #40]
 225:Drivers/STM32F4xx_StdPeriph_Driver/src/stm32f4xx_ltdc.c ****   LTDC_InitStruct->LTDC_TotalHeigh = 0x00;                    /*!< Initialize the LTDC_TotalHeigh m
 291              		.loc 1 225 3 is_stmt 1 view .LVU110
ARM GAS  /tmp/ccGHW3gB.s 			page 10


 292              		.loc 1 225 36 is_stmt 0 view .LVU111
 293 0018 C362     		str	r3, [r0, #44]
 226:Drivers/STM32F4xx_StdPeriph_Driver/src/stm32f4xx_ltdc.c ****   LTDC_InitStruct->LTDC_BackgroundRedValue = 0x00;            /*!< Initialize the LTDC_BackgroundRe
 294              		.loc 1 226 3 is_stmt 1 view .LVU112
 295              		.loc 1 226 44 is_stmt 0 view .LVU113
 296 001a 0363     		str	r3, [r0, #48]
 227:Drivers/STM32F4xx_StdPeriph_Driver/src/stm32f4xx_ltdc.c ****   LTDC_InitStruct->LTDC_BackgroundGreenValue = 0x00;          /*!< Initialize the LTDC_BackgroundGr
 297              		.loc 1 227 3 is_stmt 1 view .LVU114
 298              		.loc 1 227 46 is_stmt 0 view .LVU115
 299 001c 4363     		str	r3, [r0, #52]
 228:Drivers/STM32F4xx_StdPeriph_Driver/src/stm32f4xx_ltdc.c ****   LTDC_InitStruct->LTDC_BackgroundBlueValue = 0x00;           /*!< Initialize the LTDC_BackgroundBl
 300              		.loc 1 228 3 is_stmt 1 view .LVU116
 301              		.loc 1 228 45 is_stmt 0 view .LVU117
 302 001e 8363     		str	r3, [r0, #56]
 229:Drivers/STM32F4xx_StdPeriph_Driver/src/stm32f4xx_ltdc.c **** }
 303              		.loc 1 229 1 view .LVU118
 304 0020 7047     		bx	lr
 305              		.cfi_endproc
 306              	.LFE125:
 308              		.section	.text.LTDC_Cmd,"ax",%progbits
 309              		.align	1
 310              		.global	LTDC_Cmd
 311              		.syntax unified
 312              		.thumb
 313              		.thumb_func
 315              	LTDC_Cmd:
 316              	.LVL15:
 317              	.LFB126:
 230:Drivers/STM32F4xx_StdPeriph_Driver/src/stm32f4xx_ltdc.c **** 
 231:Drivers/STM32F4xx_StdPeriph_Driver/src/stm32f4xx_ltdc.c **** /**
 232:Drivers/STM32F4xx_StdPeriph_Driver/src/stm32f4xx_ltdc.c ****   * @brief  Enables or disables the LTDC Controller.
 233:Drivers/STM32F4xx_StdPeriph_Driver/src/stm32f4xx_ltdc.c ****   * @param  NewState: new state of the LTDC peripheral.
 234:Drivers/STM32F4xx_StdPeriph_Driver/src/stm32f4xx_ltdc.c ****   *   This parameter can be: ENABLE or DISABLE.
 235:Drivers/STM32F4xx_StdPeriph_Driver/src/stm32f4xx_ltdc.c ****   * @retval None
 236:Drivers/STM32F4xx_StdPeriph_Driver/src/stm32f4xx_ltdc.c ****   */
 237:Drivers/STM32F4xx_StdPeriph_Driver/src/stm32f4xx_ltdc.c **** 
 238:Drivers/STM32F4xx_StdPeriph_Driver/src/stm32f4xx_ltdc.c **** void LTDC_Cmd(FunctionalState NewState)
 239:Drivers/STM32F4xx_StdPeriph_Driver/src/stm32f4xx_ltdc.c **** {
 318              		.loc 1 239 1 is_stmt 1 view -0
 319              		.cfi_startproc
 320              		@ args = 0, pretend = 0, frame = 0
 321              		@ frame_needed = 0, uses_anonymous_args = 0
 322              		@ link register save eliminated.
 240:Drivers/STM32F4xx_StdPeriph_Driver/src/stm32f4xx_ltdc.c ****   /* Check the parameters */
 241:Drivers/STM32F4xx_StdPeriph_Driver/src/stm32f4xx_ltdc.c ****   assert_param(IS_FUNCTIONAL_STATE(NewState));
 323              		.loc 1 241 3 view .LVU120
 242:Drivers/STM32F4xx_StdPeriph_Driver/src/stm32f4xx_ltdc.c **** 
 243:Drivers/STM32F4xx_StdPeriph_Driver/src/stm32f4xx_ltdc.c ****   if (NewState != DISABLE)
 324              		.loc 1 243 3 view .LVU121
 325              		.loc 1 243 6 is_stmt 0 view .LVU122
 326 0000 28B1     		cbz	r0, .L9
 244:Drivers/STM32F4xx_StdPeriph_Driver/src/stm32f4xx_ltdc.c ****   {
 245:Drivers/STM32F4xx_StdPeriph_Driver/src/stm32f4xx_ltdc.c ****     /* Enable LTDC by setting LTDCEN bit */
 246:Drivers/STM32F4xx_StdPeriph_Driver/src/stm32f4xx_ltdc.c ****     LTDC->GCR |= (uint32_t)LTDC_GCR_LTDCEN;
 327              		.loc 1 246 5 is_stmt 1 view .LVU123
 328              		.loc 1 246 15 is_stmt 0 view .LVU124
 329 0002 064A     		ldr	r2, .L11
ARM GAS  /tmp/ccGHW3gB.s 			page 11


 330 0004 9369     		ldr	r3, [r2, #24]
 331 0006 43F00103 		orr	r3, r3, #1
 332 000a 9361     		str	r3, [r2, #24]
 333 000c 7047     		bx	lr
 334              	.L9:
 247:Drivers/STM32F4xx_StdPeriph_Driver/src/stm32f4xx_ltdc.c ****   }
 248:Drivers/STM32F4xx_StdPeriph_Driver/src/stm32f4xx_ltdc.c ****   else
 249:Drivers/STM32F4xx_StdPeriph_Driver/src/stm32f4xx_ltdc.c ****   {
 250:Drivers/STM32F4xx_StdPeriph_Driver/src/stm32f4xx_ltdc.c ****     /* Disable LTDC by clearing LTDCEN bit */
 251:Drivers/STM32F4xx_StdPeriph_Driver/src/stm32f4xx_ltdc.c ****     LTDC->GCR &= ~(uint32_t)LTDC_GCR_LTDCEN;
 335              		.loc 1 251 5 is_stmt 1 view .LVU125
 336              		.loc 1 251 15 is_stmt 0 view .LVU126
 337 000e 034A     		ldr	r2, .L11
 338 0010 9369     		ldr	r3, [r2, #24]
 339 0012 23F00103 		bic	r3, r3, #1
 340 0016 9361     		str	r3, [r2, #24]
 252:Drivers/STM32F4xx_StdPeriph_Driver/src/stm32f4xx_ltdc.c ****   }
 253:Drivers/STM32F4xx_StdPeriph_Driver/src/stm32f4xx_ltdc.c **** }
 341              		.loc 1 253 1 view .LVU127
 342 0018 7047     		bx	lr
 343              	.L12:
 344 001a 00BF     		.align	2
 345              	.L11:
 346 001c 00680140 		.word	1073833984
 347              		.cfi_endproc
 348              	.LFE126:
 350              		.section	.text.LTDC_DitherCmd,"ax",%progbits
 351              		.align	1
 352              		.global	LTDC_DitherCmd
 353              		.syntax unified
 354              		.thumb
 355              		.thumb_func
 357              	LTDC_DitherCmd:
 358              	.LVL16:
 359              	.LFB127:
 254:Drivers/STM32F4xx_StdPeriph_Driver/src/stm32f4xx_ltdc.c **** 
 255:Drivers/STM32F4xx_StdPeriph_Driver/src/stm32f4xx_ltdc.c **** /**
 256:Drivers/STM32F4xx_StdPeriph_Driver/src/stm32f4xx_ltdc.c ****   * @brief  Enables or disables Dither.
 257:Drivers/STM32F4xx_StdPeriph_Driver/src/stm32f4xx_ltdc.c ****   * @param  NewState: new state of the Dither.
 258:Drivers/STM32F4xx_StdPeriph_Driver/src/stm32f4xx_ltdc.c ****   *   This parameter can be: ENABLE or DISABLE.
 259:Drivers/STM32F4xx_StdPeriph_Driver/src/stm32f4xx_ltdc.c ****   * @retval None
 260:Drivers/STM32F4xx_StdPeriph_Driver/src/stm32f4xx_ltdc.c ****   */
 261:Drivers/STM32F4xx_StdPeriph_Driver/src/stm32f4xx_ltdc.c **** 
 262:Drivers/STM32F4xx_StdPeriph_Driver/src/stm32f4xx_ltdc.c **** void LTDC_DitherCmd(FunctionalState NewState)
 263:Drivers/STM32F4xx_StdPeriph_Driver/src/stm32f4xx_ltdc.c **** {
 360              		.loc 1 263 1 is_stmt 1 view -0
 361              		.cfi_startproc
 362              		@ args = 0, pretend = 0, frame = 0
 363              		@ frame_needed = 0, uses_anonymous_args = 0
 364              		@ link register save eliminated.
 264:Drivers/STM32F4xx_StdPeriph_Driver/src/stm32f4xx_ltdc.c ****   /* Check the parameters */
 265:Drivers/STM32F4xx_StdPeriph_Driver/src/stm32f4xx_ltdc.c ****   assert_param(IS_FUNCTIONAL_STATE(NewState));
 365              		.loc 1 265 3 view .LVU129
 266:Drivers/STM32F4xx_StdPeriph_Driver/src/stm32f4xx_ltdc.c **** 
 267:Drivers/STM32F4xx_StdPeriph_Driver/src/stm32f4xx_ltdc.c ****   if (NewState != DISABLE)
 366              		.loc 1 267 3 view .LVU130
 367              		.loc 1 267 6 is_stmt 0 view .LVU131
ARM GAS  /tmp/ccGHW3gB.s 			page 12


 368 0000 28B1     		cbz	r0, .L14
 268:Drivers/STM32F4xx_StdPeriph_Driver/src/stm32f4xx_ltdc.c ****   {
 269:Drivers/STM32F4xx_StdPeriph_Driver/src/stm32f4xx_ltdc.c ****     /* Enable Dither by setting DTEN bit */
 270:Drivers/STM32F4xx_StdPeriph_Driver/src/stm32f4xx_ltdc.c ****     LTDC->GCR |= (uint32_t)LTDC_GCR_DTEN;
 369              		.loc 1 270 5 is_stmt 1 view .LVU132
 370              		.loc 1 270 15 is_stmt 0 view .LVU133
 371 0002 064A     		ldr	r2, .L16
 372 0004 9369     		ldr	r3, [r2, #24]
 373 0006 43F48033 		orr	r3, r3, #65536
 374 000a 9361     		str	r3, [r2, #24]
 375 000c 7047     		bx	lr
 376              	.L14:
 271:Drivers/STM32F4xx_StdPeriph_Driver/src/stm32f4xx_ltdc.c ****   }
 272:Drivers/STM32F4xx_StdPeriph_Driver/src/stm32f4xx_ltdc.c ****   else
 273:Drivers/STM32F4xx_StdPeriph_Driver/src/stm32f4xx_ltdc.c ****   {
 274:Drivers/STM32F4xx_StdPeriph_Driver/src/stm32f4xx_ltdc.c ****     /* Disable Dither by clearing DTEN bit */
 275:Drivers/STM32F4xx_StdPeriph_Driver/src/stm32f4xx_ltdc.c ****     LTDC->GCR &= ~(uint32_t)LTDC_GCR_DTEN;
 377              		.loc 1 275 5 is_stmt 1 view .LVU134
 378              		.loc 1 275 15 is_stmt 0 view .LVU135
 379 000e 034A     		ldr	r2, .L16
 380 0010 9369     		ldr	r3, [r2, #24]
 381 0012 23F48033 		bic	r3, r3, #65536
 382 0016 9361     		str	r3, [r2, #24]
 276:Drivers/STM32F4xx_StdPeriph_Driver/src/stm32f4xx_ltdc.c ****   }
 277:Drivers/STM32F4xx_StdPeriph_Driver/src/stm32f4xx_ltdc.c **** }
 383              		.loc 1 277 1 view .LVU136
 384 0018 7047     		bx	lr
 385              	.L17:
 386 001a 00BF     		.align	2
 387              	.L16:
 388 001c 00680140 		.word	1073833984
 389              		.cfi_endproc
 390              	.LFE127:
 392              		.section	.text.LTDC_GetRGBWidth,"ax",%progbits
 393              		.align	1
 394              		.global	LTDC_GetRGBWidth
 395              		.syntax unified
 396              		.thumb
 397              		.thumb_func
 399              	LTDC_GetRGBWidth:
 400              	.LVL17:
 401              	.LFB128:
 278:Drivers/STM32F4xx_StdPeriph_Driver/src/stm32f4xx_ltdc.c **** 
 279:Drivers/STM32F4xx_StdPeriph_Driver/src/stm32f4xx_ltdc.c **** /**
 280:Drivers/STM32F4xx_StdPeriph_Driver/src/stm32f4xx_ltdc.c ****   * @brief  Get the dither RGB width.
 281:Drivers/STM32F4xx_StdPeriph_Driver/src/stm32f4xx_ltdc.c ****   * @param  LTDC_RGB_InitStruct: pointer to a LTDC_RGBTypeDef structure that contains
 282:Drivers/STM32F4xx_StdPeriph_Driver/src/stm32f4xx_ltdc.c ****   *         the Dither RGB width.
 283:Drivers/STM32F4xx_StdPeriph_Driver/src/stm32f4xx_ltdc.c ****   * @retval None
 284:Drivers/STM32F4xx_StdPeriph_Driver/src/stm32f4xx_ltdc.c ****   */
 285:Drivers/STM32F4xx_StdPeriph_Driver/src/stm32f4xx_ltdc.c **** 
 286:Drivers/STM32F4xx_StdPeriph_Driver/src/stm32f4xx_ltdc.c **** LTDC_RGBTypeDef LTDC_GetRGBWidth(void)
 287:Drivers/STM32F4xx_StdPeriph_Driver/src/stm32f4xx_ltdc.c **** {
 402              		.loc 1 287 1 is_stmt 1 view -0
 403              		.cfi_startproc
 404              		@ args = 0, pretend = 0, frame = 0
 405              		@ frame_needed = 0, uses_anonymous_args = 0
 406              		@ link register save eliminated.
ARM GAS  /tmp/ccGHW3gB.s 			page 13


 407              		.loc 1 287 1 is_stmt 0 view .LVU138
 408 0000 10B4     		push	{r4}
 409              		.cfi_def_cfa_offset 4
 410              		.cfi_offset 4, -4
 288:Drivers/STM32F4xx_StdPeriph_Driver/src/stm32f4xx_ltdc.c ****   LTDC_RGBTypeDef LTDC_RGB_InitStruct;
 411              		.loc 1 288 3 is_stmt 1 view .LVU139
 289:Drivers/STM32F4xx_StdPeriph_Driver/src/stm32f4xx_ltdc.c **** 
 290:Drivers/STM32F4xx_StdPeriph_Driver/src/stm32f4xx_ltdc.c ****   LTDC->GCR &= (uint32_t)GCR_MASK;
 412              		.loc 1 290 3 view .LVU140
 413              		.loc 1 290 13 is_stmt 0 view .LVU141
 414 0002 0A4A     		ldr	r2, .L20
 415 0004 9469     		ldr	r4, [r2, #24]
 416 0006 0A49     		ldr	r1, .L20+4
 417 0008 2140     		ands	r1, r1, r4
 418 000a 9161     		str	r1, [r2, #24]
 291:Drivers/STM32F4xx_StdPeriph_Driver/src/stm32f4xx_ltdc.c **** 
 292:Drivers/STM32F4xx_StdPeriph_Driver/src/stm32f4xx_ltdc.c ****   LTDC_RGB_InitStruct.LTDC_BlueWidth = (uint32_t)((LTDC->GCR >> 4) & 0x7);
 419              		.loc 1 292 3 is_stmt 1 view .LVU142
 420              		.loc 1 292 56 is_stmt 0 view .LVU143
 421 000c 9169     		ldr	r1, [r2, #24]
 422              		.loc 1 292 40 view .LVU144
 423 000e C1F30211 		ubfx	r1, r1, #4, #3
 424              		.loc 1 292 38 view .LVU145
 425 0012 0160     		str	r1, [r0]
 293:Drivers/STM32F4xx_StdPeriph_Driver/src/stm32f4xx_ltdc.c ****   LTDC_RGB_InitStruct.LTDC_GreenWidth = (uint32_t)((LTDC->GCR >> 8) & 0x7);
 426              		.loc 1 293 3 is_stmt 1 view .LVU146
 427              		.loc 1 293 57 is_stmt 0 view .LVU147
 428 0014 9169     		ldr	r1, [r2, #24]
 429              		.loc 1 293 41 view .LVU148
 430 0016 C1F30221 		ubfx	r1, r1, #8, #3
 431              		.loc 1 293 39 view .LVU149
 432 001a 4160     		str	r1, [r0, #4]
 294:Drivers/STM32F4xx_StdPeriph_Driver/src/stm32f4xx_ltdc.c ****   LTDC_RGB_InitStruct.LTDC_RedWidth = (uint32_t)((LTDC->GCR >> 12) & 0x7);
 433              		.loc 1 294 3 is_stmt 1 view .LVU150
 434              		.loc 1 294 55 is_stmt 0 view .LVU151
 435 001c 9269     		ldr	r2, [r2, #24]
 436              		.loc 1 294 39 view .LVU152
 437 001e C2F30232 		ubfx	r2, r2, #12, #3
 438              		.loc 1 294 37 view .LVU153
 439 0022 8260     		str	r2, [r0, #8]
 295:Drivers/STM32F4xx_StdPeriph_Driver/src/stm32f4xx_ltdc.c **** 
 296:Drivers/STM32F4xx_StdPeriph_Driver/src/stm32f4xx_ltdc.c ****   return LTDC_RGB_InitStruct;
 440              		.loc 1 296 3 is_stmt 1 view .LVU154
 297:Drivers/STM32F4xx_StdPeriph_Driver/src/stm32f4xx_ltdc.c **** }
 441              		.loc 1 297 1 is_stmt 0 view .LVU155
 442 0024 5DF8044B 		ldr	r4, [sp], #4
 443              		.cfi_restore 4
 444              		.cfi_def_cfa_offset 0
 445 0028 7047     		bx	lr
 446              	.L21:
 447 002a 00BF     		.align	2
 448              	.L20:
 449 002c 00680140 		.word	1073833984
 450 0030 8F88FE0F 		.word	268339343
 451              		.cfi_endproc
 452              	.LFE128:
 454              		.section	.text.LTDC_RGBStructInit,"ax",%progbits
ARM GAS  /tmp/ccGHW3gB.s 			page 14


 455              		.align	1
 456              		.global	LTDC_RGBStructInit
 457              		.syntax unified
 458              		.thumb
 459              		.thumb_func
 461              	LTDC_RGBStructInit:
 462              	.LVL18:
 463              	.LFB129:
 298:Drivers/STM32F4xx_StdPeriph_Driver/src/stm32f4xx_ltdc.c **** 
 299:Drivers/STM32F4xx_StdPeriph_Driver/src/stm32f4xx_ltdc.c **** /**
 300:Drivers/STM32F4xx_StdPeriph_Driver/src/stm32f4xx_ltdc.c ****   * @brief  Fills each LTDC_RGBStruct member with its default value.
 301:Drivers/STM32F4xx_StdPeriph_Driver/src/stm32f4xx_ltdc.c ****   * @param  LTDC_RGB_InitStruct: pointer to a LTDC_RGBTypeDef structure which will
 302:Drivers/STM32F4xx_StdPeriph_Driver/src/stm32f4xx_ltdc.c ****   *         be initialized.
 303:Drivers/STM32F4xx_StdPeriph_Driver/src/stm32f4xx_ltdc.c ****   * @retval None
 304:Drivers/STM32F4xx_StdPeriph_Driver/src/stm32f4xx_ltdc.c ****   */
 305:Drivers/STM32F4xx_StdPeriph_Driver/src/stm32f4xx_ltdc.c **** 
 306:Drivers/STM32F4xx_StdPeriph_Driver/src/stm32f4xx_ltdc.c **** void LTDC_RGBStructInit(LTDC_RGBTypeDef* LTDC_RGB_InitStruct)
 307:Drivers/STM32F4xx_StdPeriph_Driver/src/stm32f4xx_ltdc.c **** {
 464              		.loc 1 307 1 is_stmt 1 view -0
 465              		.cfi_startproc
 466              		@ args = 0, pretend = 0, frame = 0
 467              		@ frame_needed = 0, uses_anonymous_args = 0
 468              		@ link register save eliminated.
 308:Drivers/STM32F4xx_StdPeriph_Driver/src/stm32f4xx_ltdc.c ****   LTDC_RGB_InitStruct->LTDC_BlueWidth = 0x02;
 469              		.loc 1 308 3 view .LVU157
 470              		.loc 1 308 39 is_stmt 0 view .LVU158
 471 0000 0223     		movs	r3, #2
 472 0002 0360     		str	r3, [r0]
 309:Drivers/STM32F4xx_StdPeriph_Driver/src/stm32f4xx_ltdc.c ****   LTDC_RGB_InitStruct->LTDC_GreenWidth = 0x02;
 473              		.loc 1 309 3 is_stmt 1 view .LVU159
 474              		.loc 1 309 40 is_stmt 0 view .LVU160
 475 0004 4360     		str	r3, [r0, #4]
 310:Drivers/STM32F4xx_StdPeriph_Driver/src/stm32f4xx_ltdc.c ****   LTDC_RGB_InitStruct->LTDC_RedWidth = 0x02;
 476              		.loc 1 310 3 is_stmt 1 view .LVU161
 477              		.loc 1 310 38 is_stmt 0 view .LVU162
 478 0006 8360     		str	r3, [r0, #8]
 311:Drivers/STM32F4xx_StdPeriph_Driver/src/stm32f4xx_ltdc.c **** }
 479              		.loc 1 311 1 view .LVU163
 480 0008 7047     		bx	lr
 481              		.cfi_endproc
 482              	.LFE129:
 484              		.section	.text.LTDC_LIPConfig,"ax",%progbits
 485              		.align	1
 486              		.global	LTDC_LIPConfig
 487              		.syntax unified
 488              		.thumb
 489              		.thumb_func
 491              	LTDC_LIPConfig:
 492              	.LVL19:
 493              	.LFB130:
 312:Drivers/STM32F4xx_StdPeriph_Driver/src/stm32f4xx_ltdc.c **** 
 313:Drivers/STM32F4xx_StdPeriph_Driver/src/stm32f4xx_ltdc.c **** 
 314:Drivers/STM32F4xx_StdPeriph_Driver/src/stm32f4xx_ltdc.c **** /**
 315:Drivers/STM32F4xx_StdPeriph_Driver/src/stm32f4xx_ltdc.c ****   * @brief  Define the position of the line interrupt .
 316:Drivers/STM32F4xx_StdPeriph_Driver/src/stm32f4xx_ltdc.c ****   * @param  LTDC_LIPositionConfig: Line Interrupt Position.
 317:Drivers/STM32F4xx_StdPeriph_Driver/src/stm32f4xx_ltdc.c ****   * @retval None
 318:Drivers/STM32F4xx_StdPeriph_Driver/src/stm32f4xx_ltdc.c ****   */
ARM GAS  /tmp/ccGHW3gB.s 			page 15


 319:Drivers/STM32F4xx_StdPeriph_Driver/src/stm32f4xx_ltdc.c **** 
 320:Drivers/STM32F4xx_StdPeriph_Driver/src/stm32f4xx_ltdc.c **** void LTDC_LIPConfig(uint32_t LTDC_LIPositionConfig)
 321:Drivers/STM32F4xx_StdPeriph_Driver/src/stm32f4xx_ltdc.c **** {
 494              		.loc 1 321 1 is_stmt 1 view -0
 495              		.cfi_startproc
 496              		@ args = 0, pretend = 0, frame = 0
 497              		@ frame_needed = 0, uses_anonymous_args = 0
 498              		@ link register save eliminated.
 322:Drivers/STM32F4xx_StdPeriph_Driver/src/stm32f4xx_ltdc.c ****   /* Check the parameters */
 323:Drivers/STM32F4xx_StdPeriph_Driver/src/stm32f4xx_ltdc.c ****   assert_param(IS_LTDC_LIPOS(LTDC_LIPositionConfig));
 499              		.loc 1 323 3 view .LVU165
 324:Drivers/STM32F4xx_StdPeriph_Driver/src/stm32f4xx_ltdc.c **** 
 325:Drivers/STM32F4xx_StdPeriph_Driver/src/stm32f4xx_ltdc.c ****   /* Sets the Line Interrupt position */
 326:Drivers/STM32F4xx_StdPeriph_Driver/src/stm32f4xx_ltdc.c ****   LTDC->LIPCR = (uint32_t)LTDC_LIPositionConfig;
 500              		.loc 1 326 3 view .LVU166
 501              		.loc 1 326 15 is_stmt 0 view .LVU167
 502 0000 014B     		ldr	r3, .L24
 503 0002 1864     		str	r0, [r3, #64]
 327:Drivers/STM32F4xx_StdPeriph_Driver/src/stm32f4xx_ltdc.c **** }
 504              		.loc 1 327 1 view .LVU168
 505 0004 7047     		bx	lr
 506              	.L25:
 507 0006 00BF     		.align	2
 508              	.L24:
 509 0008 00680140 		.word	1073833984
 510              		.cfi_endproc
 511              	.LFE130:
 513              		.section	.text.LTDC_ReloadConfig,"ax",%progbits
 514              		.align	1
 515              		.global	LTDC_ReloadConfig
 516              		.syntax unified
 517              		.thumb
 518              		.thumb_func
 520              	LTDC_ReloadConfig:
 521              	.LVL20:
 522              	.LFB131:
 328:Drivers/STM32F4xx_StdPeriph_Driver/src/stm32f4xx_ltdc.c **** 
 329:Drivers/STM32F4xx_StdPeriph_Driver/src/stm32f4xx_ltdc.c **** /**
 330:Drivers/STM32F4xx_StdPeriph_Driver/src/stm32f4xx_ltdc.c ****   * @brief  reload layers registers with new parameters 
 331:Drivers/STM32F4xx_StdPeriph_Driver/src/stm32f4xx_ltdc.c ****   * @param  LTDC_Reload: specifies the type of reload.
 332:Drivers/STM32F4xx_StdPeriph_Driver/src/stm32f4xx_ltdc.c ****   *   This parameter can be one of the following values:
 333:Drivers/STM32F4xx_StdPeriph_Driver/src/stm32f4xx_ltdc.c ****   *     @arg LTDC_IMReload: Vertical blanking reload.
 334:Drivers/STM32F4xx_StdPeriph_Driver/src/stm32f4xx_ltdc.c ****   *     @arg LTDC_VBReload: Immediate reload.  
 335:Drivers/STM32F4xx_StdPeriph_Driver/src/stm32f4xx_ltdc.c ****   * @retval None
 336:Drivers/STM32F4xx_StdPeriph_Driver/src/stm32f4xx_ltdc.c ****   */
 337:Drivers/STM32F4xx_StdPeriph_Driver/src/stm32f4xx_ltdc.c **** 
 338:Drivers/STM32F4xx_StdPeriph_Driver/src/stm32f4xx_ltdc.c **** void LTDC_ReloadConfig(uint32_t LTDC_Reload)
 339:Drivers/STM32F4xx_StdPeriph_Driver/src/stm32f4xx_ltdc.c **** {
 523              		.loc 1 339 1 is_stmt 1 view -0
 524              		.cfi_startproc
 525              		@ args = 0, pretend = 0, frame = 0
 526              		@ frame_needed = 0, uses_anonymous_args = 0
 527              		@ link register save eliminated.
 340:Drivers/STM32F4xx_StdPeriph_Driver/src/stm32f4xx_ltdc.c ****   /* Check the parameters */
 341:Drivers/STM32F4xx_StdPeriph_Driver/src/stm32f4xx_ltdc.c ****   assert_param(IS_LTDC_RELOAD(LTDC_Reload));
 528              		.loc 1 341 3 view .LVU170
 342:Drivers/STM32F4xx_StdPeriph_Driver/src/stm32f4xx_ltdc.c **** 
ARM GAS  /tmp/ccGHW3gB.s 			page 16


 343:Drivers/STM32F4xx_StdPeriph_Driver/src/stm32f4xx_ltdc.c ****   /* Sets the Reload type */
 344:Drivers/STM32F4xx_StdPeriph_Driver/src/stm32f4xx_ltdc.c ****   LTDC->SRCR = (uint32_t)LTDC_Reload;
 529              		.loc 1 344 3 view .LVU171
 530              		.loc 1 344 14 is_stmt 0 view .LVU172
 531 0000 014B     		ldr	r3, .L27
 532 0002 5862     		str	r0, [r3, #36]
 345:Drivers/STM32F4xx_StdPeriph_Driver/src/stm32f4xx_ltdc.c **** }
 533              		.loc 1 345 1 view .LVU173
 534 0004 7047     		bx	lr
 535              	.L28:
 536 0006 00BF     		.align	2
 537              	.L27:
 538 0008 00680140 		.word	1073833984
 539              		.cfi_endproc
 540              	.LFE131:
 542              		.section	.text.LTDC_LayerInit,"ax",%progbits
 543              		.align	1
 544              		.global	LTDC_LayerInit
 545              		.syntax unified
 546              		.thumb
 547              		.thumb_func
 549              	LTDC_LayerInit:
 550              	.LVL21:
 551              	.LFB132:
 346:Drivers/STM32F4xx_StdPeriph_Driver/src/stm32f4xx_ltdc.c **** 
 347:Drivers/STM32F4xx_StdPeriph_Driver/src/stm32f4xx_ltdc.c **** 
 348:Drivers/STM32F4xx_StdPeriph_Driver/src/stm32f4xx_ltdc.c **** /**
 349:Drivers/STM32F4xx_StdPeriph_Driver/src/stm32f4xx_ltdc.c ****   * @brief  Initializes the LTDC Layer according to the specified parameters
 350:Drivers/STM32F4xx_StdPeriph_Driver/src/stm32f4xx_ltdc.c ****   *         in the LTDC_LayerStruct.
 351:Drivers/STM32F4xx_StdPeriph_Driver/src/stm32f4xx_ltdc.c ****   * @note   This function can be used only when the LTDC is disabled.
 352:Drivers/STM32F4xx_StdPeriph_Driver/src/stm32f4xx_ltdc.c ****   * @param  LTDC_layerx: Select the layer to be configured, this parameter can be 
 353:Drivers/STM32F4xx_StdPeriph_Driver/src/stm32f4xx_ltdc.c ****   *         one of the following values: LTDC_Layer1, LTDC_Layer2    
 354:Drivers/STM32F4xx_StdPeriph_Driver/src/stm32f4xx_ltdc.c ****   * @param  LTDC_LayerStruct: pointer to a LTDC_LayerTypeDef structure that contains
 355:Drivers/STM32F4xx_StdPeriph_Driver/src/stm32f4xx_ltdc.c ****   *         the configuration information for the specified LTDC peripheral.
 356:Drivers/STM32F4xx_StdPeriph_Driver/src/stm32f4xx_ltdc.c ****   * @retval None
 357:Drivers/STM32F4xx_StdPeriph_Driver/src/stm32f4xx_ltdc.c ****   */
 358:Drivers/STM32F4xx_StdPeriph_Driver/src/stm32f4xx_ltdc.c **** 
 359:Drivers/STM32F4xx_StdPeriph_Driver/src/stm32f4xx_ltdc.c **** void LTDC_LayerInit(LTDC_Layer_TypeDef* LTDC_Layerx, LTDC_Layer_InitTypeDef* LTDC_Layer_InitStruct)
 360:Drivers/STM32F4xx_StdPeriph_Driver/src/stm32f4xx_ltdc.c **** {
 552              		.loc 1 360 1 is_stmt 1 view -0
 553              		.cfi_startproc
 554              		@ args = 0, pretend = 0, frame = 0
 555              		@ frame_needed = 0, uses_anonymous_args = 0
 556              		@ link register save eliminated.
 557              		.loc 1 360 1 is_stmt 0 view .LVU175
 558 0000 70B4     		push	{r4, r5, r6}
 559              		.cfi_def_cfa_offset 12
 560              		.cfi_offset 4, -12
 561              		.cfi_offset 5, -8
 562              		.cfi_offset 6, -4
 361:Drivers/STM32F4xx_StdPeriph_Driver/src/stm32f4xx_ltdc.c **** 
 362:Drivers/STM32F4xx_StdPeriph_Driver/src/stm32f4xx_ltdc.c ****   uint32_t whsppos = 0;
 563              		.loc 1 362 3 is_stmt 1 view .LVU176
 564              	.LVL22:
 363:Drivers/STM32F4xx_StdPeriph_Driver/src/stm32f4xx_ltdc.c ****   uint32_t wvsppos = 0;
 565              		.loc 1 363 3 view .LVU177
 364:Drivers/STM32F4xx_StdPeriph_Driver/src/stm32f4xx_ltdc.c ****   uint32_t dcgreen = 0;
ARM GAS  /tmp/ccGHW3gB.s 			page 17


 566              		.loc 1 364 3 view .LVU178
 365:Drivers/STM32F4xx_StdPeriph_Driver/src/stm32f4xx_ltdc.c ****   uint32_t dcred = 0;
 567              		.loc 1 365 3 view .LVU179
 366:Drivers/STM32F4xx_StdPeriph_Driver/src/stm32f4xx_ltdc.c ****   uint32_t dcalpha = 0;
 568              		.loc 1 366 3 view .LVU180
 367:Drivers/STM32F4xx_StdPeriph_Driver/src/stm32f4xx_ltdc.c ****   uint32_t cfbp = 0;
 569              		.loc 1 367 3 view .LVU181
 368:Drivers/STM32F4xx_StdPeriph_Driver/src/stm32f4xx_ltdc.c **** 
 369:Drivers/STM32F4xx_StdPeriph_Driver/src/stm32f4xx_ltdc.c **** /* Check the parameters */
 370:Drivers/STM32F4xx_StdPeriph_Driver/src/stm32f4xx_ltdc.c ****   assert_param(IS_LTDC_Pixelformat(LTDC_Layer_InitStruct->LTDC_PixelFormat));
 570              		.loc 1 370 3 view .LVU182
 371:Drivers/STM32F4xx_StdPeriph_Driver/src/stm32f4xx_ltdc.c ****   assert_param(IS_LTDC_BlendingFactor1(LTDC_Layer_InitStruct->LTDC_BlendingFactor_1));
 571              		.loc 1 371 3 view .LVU183
 372:Drivers/STM32F4xx_StdPeriph_Driver/src/stm32f4xx_ltdc.c ****   assert_param(IS_LTDC_BlendingFactor2(LTDC_Layer_InitStruct->LTDC_BlendingFactor_2));
 572              		.loc 1 372 3 view .LVU184
 373:Drivers/STM32F4xx_StdPeriph_Driver/src/stm32f4xx_ltdc.c ****   assert_param(IS_LTDC_HCONFIGST(LTDC_Layer_InitStruct->LTDC_HorizontalStart));
 573              		.loc 1 373 3 view .LVU185
 374:Drivers/STM32F4xx_StdPeriph_Driver/src/stm32f4xx_ltdc.c ****   assert_param(IS_LTDC_HCONFIGSP(LTDC_Layer_InitStruct->LTDC_HorizontalStop));
 574              		.loc 1 374 3 view .LVU186
 375:Drivers/STM32F4xx_StdPeriph_Driver/src/stm32f4xx_ltdc.c ****   assert_param(IS_LTDC_VCONFIGST(LTDC_Layer_InitStruct->LTDC_VerticalStart));
 575              		.loc 1 375 3 view .LVU187
 376:Drivers/STM32F4xx_StdPeriph_Driver/src/stm32f4xx_ltdc.c ****   assert_param(IS_LTDC_VCONFIGSP(LTDC_Layer_InitStruct->LTDC_VerticalStop));  
 576              		.loc 1 376 3 view .LVU188
 377:Drivers/STM32F4xx_StdPeriph_Driver/src/stm32f4xx_ltdc.c ****   assert_param(IS_LTDC_DEFAULTCOLOR(LTDC_Layer_InitStruct->LTDC_DefaultColorBlue));
 577              		.loc 1 377 3 view .LVU189
 378:Drivers/STM32F4xx_StdPeriph_Driver/src/stm32f4xx_ltdc.c ****   assert_param(IS_LTDC_DEFAULTCOLOR(LTDC_Layer_InitStruct->LTDC_DefaultColorGreen));
 578              		.loc 1 378 3 view .LVU190
 379:Drivers/STM32F4xx_StdPeriph_Driver/src/stm32f4xx_ltdc.c ****   assert_param(IS_LTDC_DEFAULTCOLOR(LTDC_Layer_InitStruct->LTDC_DefaultColorRed));
 579              		.loc 1 379 3 view .LVU191
 380:Drivers/STM32F4xx_StdPeriph_Driver/src/stm32f4xx_ltdc.c ****   assert_param(IS_LTDC_DEFAULTCOLOR(LTDC_Layer_InitStruct->LTDC_DefaultColorAlpha));
 580              		.loc 1 380 3 view .LVU192
 381:Drivers/STM32F4xx_StdPeriph_Driver/src/stm32f4xx_ltdc.c ****   assert_param(IS_LTDC_CFBP(LTDC_Layer_InitStruct->LTDC_CFBPitch));
 581              		.loc 1 381 3 view .LVU193
 382:Drivers/STM32F4xx_StdPeriph_Driver/src/stm32f4xx_ltdc.c ****   assert_param(IS_LTDC_CFBLL(LTDC_Layer_InitStruct->LTDC_CFBLineLength));
 582              		.loc 1 382 3 view .LVU194
 383:Drivers/STM32F4xx_StdPeriph_Driver/src/stm32f4xx_ltdc.c ****   assert_param(IS_LTDC_CFBLNBR(LTDC_Layer_InitStruct->LTDC_CFBLineNumber));
 583              		.loc 1 383 3 view .LVU195
 384:Drivers/STM32F4xx_StdPeriph_Driver/src/stm32f4xx_ltdc.c **** 
 385:Drivers/STM32F4xx_StdPeriph_Driver/src/stm32f4xx_ltdc.c ****   /* Configures the horizontal start and stop position */
 386:Drivers/STM32F4xx_StdPeriph_Driver/src/stm32f4xx_ltdc.c ****   whsppos = LTDC_Layer_InitStruct->LTDC_HorizontalStop << 16;
 584              		.loc 1 386 3 view .LVU196
 585              		.loc 1 386 34 is_stmt 0 view .LVU197
 586 0002 4C68     		ldr	r4, [r1, #4]
 587              	.LVL23:
 387:Drivers/STM32F4xx_StdPeriph_Driver/src/stm32f4xx_ltdc.c ****   LTDC_Layerx->WHPCR &= ~(LTDC_LxWHPCR_WHSTPOS | LTDC_LxWHPCR_WHSPPOS);
 588              		.loc 1 387 3 is_stmt 1 view .LVU198
 589              		.loc 1 387 22 is_stmt 0 view .LVU199
 590 0004 4268     		ldr	r2, [r0, #4]
 591 0006 02F47042 		and	r2, r2, #61440
 592 000a 4260     		str	r2, [r0, #4]
 388:Drivers/STM32F4xx_StdPeriph_Driver/src/stm32f4xx_ltdc.c ****   LTDC_Layerx->WHPCR = (LTDC_Layer_InitStruct->LTDC_HorizontalStart | whsppos);
 593              		.loc 1 388 3 is_stmt 1 view .LVU200
 594              		.loc 1 388 46 is_stmt 0 view .LVU201
 595 000c 0B68     		ldr	r3, [r1]
 596              		.loc 1 388 69 view .LVU202
 597 000e 43EA0443 		orr	r3, r3, r4, lsl #16
 598              		.loc 1 388 22 view .LVU203
ARM GAS  /tmp/ccGHW3gB.s 			page 18


 599 0012 4360     		str	r3, [r0, #4]
 389:Drivers/STM32F4xx_StdPeriph_Driver/src/stm32f4xx_ltdc.c **** 
 390:Drivers/STM32F4xx_StdPeriph_Driver/src/stm32f4xx_ltdc.c ****   /* Configures the vertical start and stop position */
 391:Drivers/STM32F4xx_StdPeriph_Driver/src/stm32f4xx_ltdc.c ****   wvsppos = LTDC_Layer_InitStruct->LTDC_VerticalStop << 16;
 600              		.loc 1 391 3 is_stmt 1 view .LVU204
 601              		.loc 1 391 34 is_stmt 0 view .LVU205
 602 0014 CC68     		ldr	r4, [r1, #12]
 603              	.LVL24:
 392:Drivers/STM32F4xx_StdPeriph_Driver/src/stm32f4xx_ltdc.c ****   LTDC_Layerx->WVPCR &= ~(LTDC_LxWVPCR_WVSTPOS | LTDC_LxWVPCR_WVSPPOS);
 604              		.loc 1 392 3 is_stmt 1 view .LVU206
 605              		.loc 1 392 22 is_stmt 0 view .LVU207
 606 0016 8268     		ldr	r2, [r0, #8]
 607 0018 02F47042 		and	r2, r2, #61440
 608 001c 8260     		str	r2, [r0, #8]
 393:Drivers/STM32F4xx_StdPeriph_Driver/src/stm32f4xx_ltdc.c ****   LTDC_Layerx->WVPCR  = (LTDC_Layer_InitStruct->LTDC_VerticalStart | wvsppos);
 609              		.loc 1 393 3 is_stmt 1 view .LVU208
 610              		.loc 1 393 47 is_stmt 0 view .LVU209
 611 001e 8B68     		ldr	r3, [r1, #8]
 612              		.loc 1 393 68 view .LVU210
 613 0020 43EA0443 		orr	r3, r3, r4, lsl #16
 614              		.loc 1 393 23 view .LVU211
 615 0024 8360     		str	r3, [r0, #8]
 394:Drivers/STM32F4xx_StdPeriph_Driver/src/stm32f4xx_ltdc.c **** 
 395:Drivers/STM32F4xx_StdPeriph_Driver/src/stm32f4xx_ltdc.c ****   /* Specifies the pixel format */
 396:Drivers/STM32F4xx_StdPeriph_Driver/src/stm32f4xx_ltdc.c ****   LTDC_Layerx->PFCR &= ~(LTDC_LxPFCR_PF);
 616              		.loc 1 396 3 is_stmt 1 view .LVU212
 617              		.loc 1 396 21 is_stmt 0 view .LVU213
 618 0026 0369     		ldr	r3, [r0, #16]
 619 0028 23F00703 		bic	r3, r3, #7
 620 002c 0361     		str	r3, [r0, #16]
 397:Drivers/STM32F4xx_StdPeriph_Driver/src/stm32f4xx_ltdc.c ****   LTDC_Layerx->PFCR = (LTDC_Layer_InitStruct->LTDC_PixelFormat);
 621              		.loc 1 397 3 is_stmt 1 view .LVU214
 622              		.loc 1 397 45 is_stmt 0 view .LVU215
 623 002e 0B69     		ldr	r3, [r1, #16]
 624              		.loc 1 397 21 view .LVU216
 625 0030 0361     		str	r3, [r0, #16]
 398:Drivers/STM32F4xx_StdPeriph_Driver/src/stm32f4xx_ltdc.c **** 
 399:Drivers/STM32F4xx_StdPeriph_Driver/src/stm32f4xx_ltdc.c ****   /* Configures the default color values */
 400:Drivers/STM32F4xx_StdPeriph_Driver/src/stm32f4xx_ltdc.c ****   dcgreen = (LTDC_Layer_InitStruct->LTDC_DefaultColorGreen << 8);
 626              		.loc 1 400 3 is_stmt 1 view .LVU217
 627              		.loc 1 400 35 is_stmt 0 view .LVU218
 628 0032 CE69     		ldr	r6, [r1, #28]
 629              	.LVL25:
 401:Drivers/STM32F4xx_StdPeriph_Driver/src/stm32f4xx_ltdc.c ****   dcred = (LTDC_Layer_InitStruct->LTDC_DefaultColorRed << 16);
 630              		.loc 1 401 3 is_stmt 1 view .LVU219
 631              		.loc 1 401 33 is_stmt 0 view .LVU220
 632 0034 0D6A     		ldr	r5, [r1, #32]
 633              	.LVL26:
 402:Drivers/STM32F4xx_StdPeriph_Driver/src/stm32f4xx_ltdc.c ****   dcalpha = (LTDC_Layer_InitStruct->LTDC_DefaultColorAlpha << 24);
 634              		.loc 1 402 3 is_stmt 1 view .LVU221
 635              		.loc 1 402 35 is_stmt 0 view .LVU222
 636 0036 4C6A     		ldr	r4, [r1, #36]
 637              	.LVL27:
 403:Drivers/STM32F4xx_StdPeriph_Driver/src/stm32f4xx_ltdc.c ****   LTDC_Layerx->DCCR &=  ~(LTDC_LxDCCR_DCBLUE | LTDC_LxDCCR_DCGREEN | LTDC_LxDCCR_DCRED | LTDC_LxDCC
 638              		.loc 1 403 3 is_stmt 1 view .LVU223
 639              		.loc 1 403 21 is_stmt 0 view .LVU224
 640 0038 8369     		ldr	r3, [r0, #24]
ARM GAS  /tmp/ccGHW3gB.s 			page 19


 641 003a 0022     		movs	r2, #0
 642 003c 8261     		str	r2, [r0, #24]
 404:Drivers/STM32F4xx_StdPeriph_Driver/src/stm32f4xx_ltdc.c ****   LTDC_Layerx->DCCR = (LTDC_Layer_InitStruct->LTDC_DefaultColorBlue | dcgreen | \
 643              		.loc 1 404 3 is_stmt 1 view .LVU225
 644              		.loc 1 404 45 is_stmt 0 view .LVU226
 645 003e 8B69     		ldr	r3, [r1, #24]
 646              		.loc 1 404 69 view .LVU227
 647 0040 43EA0623 		orr	r3, r3, r6, lsl #8
 648              		.loc 1 404 79 view .LVU228
 649 0044 43EA0543 		orr	r3, r3, r5, lsl #16
 405:Drivers/STM32F4xx_StdPeriph_Driver/src/stm32f4xx_ltdc.c ****                         dcred | dcalpha);
 650              		.loc 1 405 31 view .LVU229
 651 0048 43EA0463 		orr	r3, r3, r4, lsl #24
 404:Drivers/STM32F4xx_StdPeriph_Driver/src/stm32f4xx_ltdc.c ****   LTDC_Layerx->DCCR = (LTDC_Layer_InitStruct->LTDC_DefaultColorBlue | dcgreen | \
 652              		.loc 1 404 21 view .LVU230
 653 004c 8361     		str	r3, [r0, #24]
 406:Drivers/STM32F4xx_StdPeriph_Driver/src/stm32f4xx_ltdc.c **** 
 407:Drivers/STM32F4xx_StdPeriph_Driver/src/stm32f4xx_ltdc.c ****   /* Specifies the constant alpha value */      
 408:Drivers/STM32F4xx_StdPeriph_Driver/src/stm32f4xx_ltdc.c ****   LTDC_Layerx->CACR &= ~(LTDC_LxCACR_CONSTA);
 654              		.loc 1 408 3 is_stmt 1 view .LVU231
 655              		.loc 1 408 21 is_stmt 0 view .LVU232
 656 004e 4369     		ldr	r3, [r0, #20]
 657 0050 23F0FF03 		bic	r3, r3, #255
 658 0054 4361     		str	r3, [r0, #20]
 409:Drivers/STM32F4xx_StdPeriph_Driver/src/stm32f4xx_ltdc.c ****   LTDC_Layerx->CACR = (LTDC_Layer_InitStruct->LTDC_ConstantAlpha);
 659              		.loc 1 409 3 is_stmt 1 view .LVU233
 660              		.loc 1 409 45 is_stmt 0 view .LVU234
 661 0056 4B69     		ldr	r3, [r1, #20]
 662              		.loc 1 409 21 view .LVU235
 663 0058 4361     		str	r3, [r0, #20]
 410:Drivers/STM32F4xx_StdPeriph_Driver/src/stm32f4xx_ltdc.c **** 
 411:Drivers/STM32F4xx_StdPeriph_Driver/src/stm32f4xx_ltdc.c ****   /* Specifies the blending factors */
 412:Drivers/STM32F4xx_StdPeriph_Driver/src/stm32f4xx_ltdc.c ****   LTDC_Layerx->BFCR &= ~(LTDC_LxBFCR_BF2 | LTDC_LxBFCR_BF1);
 664              		.loc 1 412 3 is_stmt 1 view .LVU236
 665              		.loc 1 412 21 is_stmt 0 view .LVU237
 666 005a C369     		ldr	r3, [r0, #28]
 667 005c 23F4E063 		bic	r3, r3, #1792
 668 0060 23F00703 		bic	r3, r3, #7
 669 0064 C361     		str	r3, [r0, #28]
 413:Drivers/STM32F4xx_StdPeriph_Driver/src/stm32f4xx_ltdc.c ****   LTDC_Layerx->BFCR = (LTDC_Layer_InitStruct->LTDC_BlendingFactor_1 | LTDC_Layer_InitStruct->LTDC_B
 670              		.loc 1 413 3 is_stmt 1 view .LVU238
 671              		.loc 1 413 45 is_stmt 0 view .LVU239
 672 0066 8B6A     		ldr	r3, [r1, #40]
 673              		.loc 1 413 92 view .LVU240
 674 0068 CC6A     		ldr	r4, [r1, #44]
 675              	.LVL28:
 676              		.loc 1 413 69 view .LVU241
 677 006a 2343     		orrs	r3, r3, r4
 678              		.loc 1 413 21 view .LVU242
 679 006c C361     		str	r3, [r0, #28]
 414:Drivers/STM32F4xx_StdPeriph_Driver/src/stm32f4xx_ltdc.c **** 
 415:Drivers/STM32F4xx_StdPeriph_Driver/src/stm32f4xx_ltdc.c ****   /* Configures the color frame buffer start address */
 416:Drivers/STM32F4xx_StdPeriph_Driver/src/stm32f4xx_ltdc.c ****   LTDC_Layerx->CFBAR &= ~(LTDC_LxCFBAR_CFBADD);
 680              		.loc 1 416 3 is_stmt 1 view .LVU243
 681              		.loc 1 416 22 is_stmt 0 view .LVU244
 682 006e 836A     		ldr	r3, [r0, #40]
 683 0070 8262     		str	r2, [r0, #40]
ARM GAS  /tmp/ccGHW3gB.s 			page 20


 417:Drivers/STM32F4xx_StdPeriph_Driver/src/stm32f4xx_ltdc.c ****   LTDC_Layerx->CFBAR = (LTDC_Layer_InitStruct->LTDC_CFBStartAdress);
 684              		.loc 1 417 3 is_stmt 1 view .LVU245
 685              		.loc 1 417 46 is_stmt 0 view .LVU246
 686 0072 0B6B     		ldr	r3, [r1, #48]
 687              		.loc 1 417 22 view .LVU247
 688 0074 8362     		str	r3, [r0, #40]
 418:Drivers/STM32F4xx_StdPeriph_Driver/src/stm32f4xx_ltdc.c **** 
 419:Drivers/STM32F4xx_StdPeriph_Driver/src/stm32f4xx_ltdc.c ****   /* Configures the color frame buffer pitch in byte */
 420:Drivers/STM32F4xx_StdPeriph_Driver/src/stm32f4xx_ltdc.c ****   cfbp = (LTDC_Layer_InitStruct->LTDC_CFBPitch << 16);
 689              		.loc 1 420 3 is_stmt 1 view .LVU248
 690              		.loc 1 420 32 is_stmt 0 view .LVU249
 691 0076 8C6B     		ldr	r4, [r1, #56]
 692              	.LVL29:
 421:Drivers/STM32F4xx_StdPeriph_Driver/src/stm32f4xx_ltdc.c ****   LTDC_Layerx->CFBLR  &= ~(LTDC_LxCFBLR_CFBLL | LTDC_LxCFBLR_CFBP);
 693              		.loc 1 421 3 is_stmt 1 view .LVU250
 694              		.loc 1 421 23 is_stmt 0 view .LVU251
 695 0078 C26A     		ldr	r2, [r0, #44]
 696 007a 02F0E022 		and	r2, r2, #-536813568
 697 007e C262     		str	r2, [r0, #44]
 422:Drivers/STM32F4xx_StdPeriph_Driver/src/stm32f4xx_ltdc.c ****   LTDC_Layerx->CFBLR  = (LTDC_Layer_InitStruct->LTDC_CFBLineLength | cfbp);
 698              		.loc 1 422 3 is_stmt 1 view .LVU252
 699              		.loc 1 422 47 is_stmt 0 view .LVU253
 700 0080 4B6B     		ldr	r3, [r1, #52]
 701              		.loc 1 422 68 view .LVU254
 702 0082 43EA0443 		orr	r3, r3, r4, lsl #16
 703              		.loc 1 422 23 view .LVU255
 704 0086 C362     		str	r3, [r0, #44]
 423:Drivers/STM32F4xx_StdPeriph_Driver/src/stm32f4xx_ltdc.c **** 
 424:Drivers/STM32F4xx_StdPeriph_Driver/src/stm32f4xx_ltdc.c ****   /* Configures the frame buffer line number */
 425:Drivers/STM32F4xx_StdPeriph_Driver/src/stm32f4xx_ltdc.c ****   LTDC_Layerx->CFBLNR  &= ~(LTDC_LxCFBLNR_CFBLNBR);
 705              		.loc 1 425 3 is_stmt 1 view .LVU256
 706              		.loc 1 425 24 is_stmt 0 view .LVU257
 707 0088 036B     		ldr	r3, [r0, #48]
 708 008a 23F4FF63 		bic	r3, r3, #2040
 709 008e 23F00703 		bic	r3, r3, #7
 710 0092 0363     		str	r3, [r0, #48]
 426:Drivers/STM32F4xx_StdPeriph_Driver/src/stm32f4xx_ltdc.c ****   LTDC_Layerx->CFBLNR  = (LTDC_Layer_InitStruct->LTDC_CFBLineNumber);
 711              		.loc 1 426 3 is_stmt 1 view .LVU258
 712              		.loc 1 426 48 is_stmt 0 view .LVU259
 713 0094 CB6B     		ldr	r3, [r1, #60]
 714              		.loc 1 426 24 view .LVU260
 715 0096 0363     		str	r3, [r0, #48]
 427:Drivers/STM32F4xx_StdPeriph_Driver/src/stm32f4xx_ltdc.c **** 
 428:Drivers/STM32F4xx_StdPeriph_Driver/src/stm32f4xx_ltdc.c **** }
 716              		.loc 1 428 1 view .LVU261
 717 0098 70BC     		pop	{r4, r5, r6}
 718              		.cfi_restore 6
 719              		.cfi_restore 5
 720              		.cfi_restore 4
 721              		.cfi_def_cfa_offset 0
 722              	.LVL30:
 723              		.loc 1 428 1 view .LVU262
 724 009a 7047     		bx	lr
 725              		.cfi_endproc
 726              	.LFE132:
 728              		.section	.text.LTDC_LayerStructInit,"ax",%progbits
 729              		.align	1
ARM GAS  /tmp/ccGHW3gB.s 			page 21


 730              		.global	LTDC_LayerStructInit
 731              		.syntax unified
 732              		.thumb
 733              		.thumb_func
 735              	LTDC_LayerStructInit:
 736              	.LVL31:
 737              	.LFB133:
 429:Drivers/STM32F4xx_StdPeriph_Driver/src/stm32f4xx_ltdc.c **** 
 430:Drivers/STM32F4xx_StdPeriph_Driver/src/stm32f4xx_ltdc.c **** /**
 431:Drivers/STM32F4xx_StdPeriph_Driver/src/stm32f4xx_ltdc.c ****   * @brief  Fills each LTDC_Layer_InitStruct member with its default value.
 432:Drivers/STM32F4xx_StdPeriph_Driver/src/stm32f4xx_ltdc.c ****   * @param  LTDC_Layer_InitStruct: pointer to a LTDC_LayerTypeDef structure which will
 433:Drivers/STM32F4xx_StdPeriph_Driver/src/stm32f4xx_ltdc.c ****   *         be initialized.
 434:Drivers/STM32F4xx_StdPeriph_Driver/src/stm32f4xx_ltdc.c ****   * @retval None
 435:Drivers/STM32F4xx_StdPeriph_Driver/src/stm32f4xx_ltdc.c ****   */
 436:Drivers/STM32F4xx_StdPeriph_Driver/src/stm32f4xx_ltdc.c **** 
 437:Drivers/STM32F4xx_StdPeriph_Driver/src/stm32f4xx_ltdc.c **** void LTDC_LayerStructInit(LTDC_Layer_InitTypeDef * LTDC_Layer_InitStruct)
 438:Drivers/STM32F4xx_StdPeriph_Driver/src/stm32f4xx_ltdc.c **** {
 738              		.loc 1 438 1 is_stmt 1 view -0
 739              		.cfi_startproc
 740              		@ args = 0, pretend = 0, frame = 0
 741              		@ frame_needed = 0, uses_anonymous_args = 0
 742              		@ link register save eliminated.
 439:Drivers/STM32F4xx_StdPeriph_Driver/src/stm32f4xx_ltdc.c ****   /*--------------- Reset Layer structure parameters values -------------------*/
 440:Drivers/STM32F4xx_StdPeriph_Driver/src/stm32f4xx_ltdc.c **** 
 441:Drivers/STM32F4xx_StdPeriph_Driver/src/stm32f4xx_ltdc.c ****   /*!< Initialize the horizontal limit member */
 442:Drivers/STM32F4xx_StdPeriph_Driver/src/stm32f4xx_ltdc.c ****   LTDC_Layer_InitStruct->LTDC_HorizontalStart = 0x00;
 743              		.loc 1 442 3 view .LVU264
 744              		.loc 1 442 47 is_stmt 0 view .LVU265
 745 0000 0023     		movs	r3, #0
 746 0002 0360     		str	r3, [r0]
 443:Drivers/STM32F4xx_StdPeriph_Driver/src/stm32f4xx_ltdc.c ****   LTDC_Layer_InitStruct->LTDC_HorizontalStop = 0x00;
 747              		.loc 1 443 3 is_stmt 1 view .LVU266
 748              		.loc 1 443 46 is_stmt 0 view .LVU267
 749 0004 4360     		str	r3, [r0, #4]
 444:Drivers/STM32F4xx_StdPeriph_Driver/src/stm32f4xx_ltdc.c **** 
 445:Drivers/STM32F4xx_StdPeriph_Driver/src/stm32f4xx_ltdc.c ****   /*!< Initialize the vertical limit member */
 446:Drivers/STM32F4xx_StdPeriph_Driver/src/stm32f4xx_ltdc.c ****   LTDC_Layer_InitStruct->LTDC_VerticalStart = 0x00;
 750              		.loc 1 446 3 is_stmt 1 view .LVU268
 751              		.loc 1 446 45 is_stmt 0 view .LVU269
 752 0006 8360     		str	r3, [r0, #8]
 447:Drivers/STM32F4xx_StdPeriph_Driver/src/stm32f4xx_ltdc.c ****   LTDC_Layer_InitStruct->LTDC_VerticalStop = 0x00;
 753              		.loc 1 447 3 is_stmt 1 view .LVU270
 754              		.loc 1 447 44 is_stmt 0 view .LVU271
 755 0008 C360     		str	r3, [r0, #12]
 448:Drivers/STM32F4xx_StdPeriph_Driver/src/stm32f4xx_ltdc.c **** 
 449:Drivers/STM32F4xx_StdPeriph_Driver/src/stm32f4xx_ltdc.c ****   /*!< Initialize the pixel format member */
 450:Drivers/STM32F4xx_StdPeriph_Driver/src/stm32f4xx_ltdc.c ****   LTDC_Layer_InitStruct->LTDC_PixelFormat = LTDC_Pixelformat_ARGB8888;
 756              		.loc 1 450 3 is_stmt 1 view .LVU272
 757              		.loc 1 450 43 is_stmt 0 view .LVU273
 758 000a 0361     		str	r3, [r0, #16]
 451:Drivers/STM32F4xx_StdPeriph_Driver/src/stm32f4xx_ltdc.c **** 
 452:Drivers/STM32F4xx_StdPeriph_Driver/src/stm32f4xx_ltdc.c ****   /*!< Initialize the constant alpha value */
 453:Drivers/STM32F4xx_StdPeriph_Driver/src/stm32f4xx_ltdc.c ****   LTDC_Layer_InitStruct->LTDC_ConstantAlpha = 0xFF;
 759              		.loc 1 453 3 is_stmt 1 view .LVU274
 760              		.loc 1 453 45 is_stmt 0 view .LVU275
 761 000c FF22     		movs	r2, #255
 762 000e 4261     		str	r2, [r0, #20]
ARM GAS  /tmp/ccGHW3gB.s 			page 22


 454:Drivers/STM32F4xx_StdPeriph_Driver/src/stm32f4xx_ltdc.c **** 
 455:Drivers/STM32F4xx_StdPeriph_Driver/src/stm32f4xx_ltdc.c ****   /*!< Initialize the default color values */
 456:Drivers/STM32F4xx_StdPeriph_Driver/src/stm32f4xx_ltdc.c ****   LTDC_Layer_InitStruct->LTDC_DefaultColorBlue = 0x00;
 763              		.loc 1 456 3 is_stmt 1 view .LVU276
 764              		.loc 1 456 48 is_stmt 0 view .LVU277
 765 0010 8361     		str	r3, [r0, #24]
 457:Drivers/STM32F4xx_StdPeriph_Driver/src/stm32f4xx_ltdc.c ****   LTDC_Layer_InitStruct->LTDC_DefaultColorGreen = 0x00;
 766              		.loc 1 457 3 is_stmt 1 view .LVU278
 767              		.loc 1 457 49 is_stmt 0 view .LVU279
 768 0012 C361     		str	r3, [r0, #28]
 458:Drivers/STM32F4xx_StdPeriph_Driver/src/stm32f4xx_ltdc.c ****   LTDC_Layer_InitStruct->LTDC_DefaultColorRed = 0x00;
 769              		.loc 1 458 3 is_stmt 1 view .LVU280
 770              		.loc 1 458 47 is_stmt 0 view .LVU281
 771 0014 0362     		str	r3, [r0, #32]
 459:Drivers/STM32F4xx_StdPeriph_Driver/src/stm32f4xx_ltdc.c ****   LTDC_Layer_InitStruct->LTDC_DefaultColorAlpha = 0x00;
 772              		.loc 1 459 3 is_stmt 1 view .LVU282
 773              		.loc 1 459 49 is_stmt 0 view .LVU283
 774 0016 4362     		str	r3, [r0, #36]
 460:Drivers/STM32F4xx_StdPeriph_Driver/src/stm32f4xx_ltdc.c **** 
 461:Drivers/STM32F4xx_StdPeriph_Driver/src/stm32f4xx_ltdc.c ****   /*!< Initialize the blending factors */
 462:Drivers/STM32F4xx_StdPeriph_Driver/src/stm32f4xx_ltdc.c ****   LTDC_Layer_InitStruct->LTDC_BlendingFactor_1 = LTDC_BlendingFactor1_PAxCA;
 775              		.loc 1 462 3 is_stmt 1 view .LVU284
 776              		.loc 1 462 48 is_stmt 0 view .LVU285
 777 0018 4FF4C062 		mov	r2, #1536
 778 001c 8262     		str	r2, [r0, #40]
 463:Drivers/STM32F4xx_StdPeriph_Driver/src/stm32f4xx_ltdc.c ****   LTDC_Layer_InitStruct->LTDC_BlendingFactor_2 = LTDC_BlendingFactor2_PAxCA;
 779              		.loc 1 463 3 is_stmt 1 view .LVU286
 780              		.loc 1 463 48 is_stmt 0 view .LVU287
 781 001e 0722     		movs	r2, #7
 782 0020 C262     		str	r2, [r0, #44]
 464:Drivers/STM32F4xx_StdPeriph_Driver/src/stm32f4xx_ltdc.c **** 
 465:Drivers/STM32F4xx_StdPeriph_Driver/src/stm32f4xx_ltdc.c ****   /*!< Initialize the frame buffer start address */
 466:Drivers/STM32F4xx_StdPeriph_Driver/src/stm32f4xx_ltdc.c ****   LTDC_Layer_InitStruct->LTDC_CFBStartAdress = 0x00;
 783              		.loc 1 466 3 is_stmt 1 view .LVU288
 784              		.loc 1 466 46 is_stmt 0 view .LVU289
 785 0022 0363     		str	r3, [r0, #48]
 467:Drivers/STM32F4xx_StdPeriph_Driver/src/stm32f4xx_ltdc.c **** 
 468:Drivers/STM32F4xx_StdPeriph_Driver/src/stm32f4xx_ltdc.c ****   /*!< Initialize the frame buffer pitch and line length */
 469:Drivers/STM32F4xx_StdPeriph_Driver/src/stm32f4xx_ltdc.c ****   LTDC_Layer_InitStruct->LTDC_CFBLineLength = 0x00;
 786              		.loc 1 469 3 is_stmt 1 view .LVU290
 787              		.loc 1 469 45 is_stmt 0 view .LVU291
 788 0024 4363     		str	r3, [r0, #52]
 470:Drivers/STM32F4xx_StdPeriph_Driver/src/stm32f4xx_ltdc.c ****   LTDC_Layer_InitStruct->LTDC_CFBPitch = 0x00;
 789              		.loc 1 470 3 is_stmt 1 view .LVU292
 790              		.loc 1 470 40 is_stmt 0 view .LVU293
 791 0026 8363     		str	r3, [r0, #56]
 471:Drivers/STM32F4xx_StdPeriph_Driver/src/stm32f4xx_ltdc.c **** 
 472:Drivers/STM32F4xx_StdPeriph_Driver/src/stm32f4xx_ltdc.c ****   /*!< Initialize the frame buffer line number */
 473:Drivers/STM32F4xx_StdPeriph_Driver/src/stm32f4xx_ltdc.c ****   LTDC_Layer_InitStruct->LTDC_CFBLineNumber = 0x00;
 792              		.loc 1 473 3 is_stmt 1 view .LVU294
 793              		.loc 1 473 45 is_stmt 0 view .LVU295
 794 0028 C363     		str	r3, [r0, #60]
 474:Drivers/STM32F4xx_StdPeriph_Driver/src/stm32f4xx_ltdc.c **** }
 795              		.loc 1 474 1 view .LVU296
 796 002a 7047     		bx	lr
 797              		.cfi_endproc
 798              	.LFE133:
ARM GAS  /tmp/ccGHW3gB.s 			page 23


 800              		.section	.text.LTDC_LayerCmd,"ax",%progbits
 801              		.align	1
 802              		.global	LTDC_LayerCmd
 803              		.syntax unified
 804              		.thumb
 805              		.thumb_func
 807              	LTDC_LayerCmd:
 808              	.LVL32:
 809              	.LFB134:
 475:Drivers/STM32F4xx_StdPeriph_Driver/src/stm32f4xx_ltdc.c **** 
 476:Drivers/STM32F4xx_StdPeriph_Driver/src/stm32f4xx_ltdc.c **** 
 477:Drivers/STM32F4xx_StdPeriph_Driver/src/stm32f4xx_ltdc.c **** /**
 478:Drivers/STM32F4xx_StdPeriph_Driver/src/stm32f4xx_ltdc.c ****   * @brief  Enables or disables the LTDC_Layer Controller.
 479:Drivers/STM32F4xx_StdPeriph_Driver/src/stm32f4xx_ltdc.c ****   * @param  LTDC_layerx: Select the layer to be configured, this parameter can be 
 480:Drivers/STM32F4xx_StdPeriph_Driver/src/stm32f4xx_ltdc.c ****   *         one of the following values: LTDC_Layer1, LTDC_Layer2
 481:Drivers/STM32F4xx_StdPeriph_Driver/src/stm32f4xx_ltdc.c ****   * @param  NewState: new state of the LTDC_Layer peripheral.
 482:Drivers/STM32F4xx_StdPeriph_Driver/src/stm32f4xx_ltdc.c ****   *   This parameter can be: ENABLE or DISABLE.
 483:Drivers/STM32F4xx_StdPeriph_Driver/src/stm32f4xx_ltdc.c ****   * @retval None
 484:Drivers/STM32F4xx_StdPeriph_Driver/src/stm32f4xx_ltdc.c ****   */
 485:Drivers/STM32F4xx_StdPeriph_Driver/src/stm32f4xx_ltdc.c **** 
 486:Drivers/STM32F4xx_StdPeriph_Driver/src/stm32f4xx_ltdc.c **** void LTDC_LayerCmd(LTDC_Layer_TypeDef* LTDC_Layerx, FunctionalState NewState)
 487:Drivers/STM32F4xx_StdPeriph_Driver/src/stm32f4xx_ltdc.c **** {
 810              		.loc 1 487 1 is_stmt 1 view -0
 811              		.cfi_startproc
 812              		@ args = 0, pretend = 0, frame = 0
 813              		@ frame_needed = 0, uses_anonymous_args = 0
 814              		@ link register save eliminated.
 488:Drivers/STM32F4xx_StdPeriph_Driver/src/stm32f4xx_ltdc.c ****   /* Check the parameters */
 489:Drivers/STM32F4xx_StdPeriph_Driver/src/stm32f4xx_ltdc.c ****   assert_param(IS_FUNCTIONAL_STATE(NewState));
 815              		.loc 1 489 3 view .LVU298
 490:Drivers/STM32F4xx_StdPeriph_Driver/src/stm32f4xx_ltdc.c **** 
 491:Drivers/STM32F4xx_StdPeriph_Driver/src/stm32f4xx_ltdc.c ****   if (NewState != DISABLE)
 816              		.loc 1 491 3 view .LVU299
 817              		.loc 1 491 6 is_stmt 0 view .LVU300
 818 0000 21B1     		cbz	r1, .L33
 492:Drivers/STM32F4xx_StdPeriph_Driver/src/stm32f4xx_ltdc.c ****   {
 493:Drivers/STM32F4xx_StdPeriph_Driver/src/stm32f4xx_ltdc.c ****     /* Enable LTDC_Layer by setting LEN bit */
 494:Drivers/STM32F4xx_StdPeriph_Driver/src/stm32f4xx_ltdc.c ****     LTDC_Layerx->CR |= (uint32_t)LTDC_LxCR_LEN;
 819              		.loc 1 494 5 is_stmt 1 view .LVU301
 820              		.loc 1 494 21 is_stmt 0 view .LVU302
 821 0002 0368     		ldr	r3, [r0]
 822 0004 43F00103 		orr	r3, r3, #1
 823 0008 0360     		str	r3, [r0]
 824 000a 7047     		bx	lr
 825              	.L33:
 495:Drivers/STM32F4xx_StdPeriph_Driver/src/stm32f4xx_ltdc.c ****   }
 496:Drivers/STM32F4xx_StdPeriph_Driver/src/stm32f4xx_ltdc.c ****   else
 497:Drivers/STM32F4xx_StdPeriph_Driver/src/stm32f4xx_ltdc.c ****   {
 498:Drivers/STM32F4xx_StdPeriph_Driver/src/stm32f4xx_ltdc.c ****     /* Disable LTDC_Layer by clearing LEN bit */
 499:Drivers/STM32F4xx_StdPeriph_Driver/src/stm32f4xx_ltdc.c ****     LTDC_Layerx->CR &= ~(uint32_t)LTDC_LxCR_LEN;
 826              		.loc 1 499 5 is_stmt 1 view .LVU303
 827              		.loc 1 499 21 is_stmt 0 view .LVU304
 828 000c 0368     		ldr	r3, [r0]
 829 000e 23F00103 		bic	r3, r3, #1
 830 0012 0360     		str	r3, [r0]
 500:Drivers/STM32F4xx_StdPeriph_Driver/src/stm32f4xx_ltdc.c ****   }
 501:Drivers/STM32F4xx_StdPeriph_Driver/src/stm32f4xx_ltdc.c **** }
ARM GAS  /tmp/ccGHW3gB.s 			page 24


 831              		.loc 1 501 1 view .LVU305
 832 0014 7047     		bx	lr
 833              		.cfi_endproc
 834              	.LFE134:
 836              		.section	.text.LTDC_GetPosStatus,"ax",%progbits
 837              		.align	1
 838              		.global	LTDC_GetPosStatus
 839              		.syntax unified
 840              		.thumb
 841              		.thumb_func
 843              	LTDC_GetPosStatus:
 844              	.LVL33:
 845              	.LFB135:
 502:Drivers/STM32F4xx_StdPeriph_Driver/src/stm32f4xx_ltdc.c **** 
 503:Drivers/STM32F4xx_StdPeriph_Driver/src/stm32f4xx_ltdc.c **** 
 504:Drivers/STM32F4xx_StdPeriph_Driver/src/stm32f4xx_ltdc.c **** /**
 505:Drivers/STM32F4xx_StdPeriph_Driver/src/stm32f4xx_ltdc.c ****   * @brief  Get the current position.
 506:Drivers/STM32F4xx_StdPeriph_Driver/src/stm32f4xx_ltdc.c ****   * @param  LTDC_Pos_InitStruct: pointer to a LTDC_PosTypeDef structure that contains
 507:Drivers/STM32F4xx_StdPeriph_Driver/src/stm32f4xx_ltdc.c ****   *         the current position.
 508:Drivers/STM32F4xx_StdPeriph_Driver/src/stm32f4xx_ltdc.c ****   * @retval None
 509:Drivers/STM32F4xx_StdPeriph_Driver/src/stm32f4xx_ltdc.c ****   */
 510:Drivers/STM32F4xx_StdPeriph_Driver/src/stm32f4xx_ltdc.c **** 
 511:Drivers/STM32F4xx_StdPeriph_Driver/src/stm32f4xx_ltdc.c **** LTDC_PosTypeDef LTDC_GetPosStatus(void)
 512:Drivers/STM32F4xx_StdPeriph_Driver/src/stm32f4xx_ltdc.c **** {
 846              		.loc 1 512 1 is_stmt 1 view -0
 847              		.cfi_startproc
 848              		@ args = 0, pretend = 0, frame = 0
 849              		@ frame_needed = 0, uses_anonymous_args = 0
 850              		@ link register save eliminated.
 513:Drivers/STM32F4xx_StdPeriph_Driver/src/stm32f4xx_ltdc.c ****   LTDC_PosTypeDef LTDC_Pos_InitStruct;
 851              		.loc 1 513 3 view .LVU307
 514:Drivers/STM32F4xx_StdPeriph_Driver/src/stm32f4xx_ltdc.c **** 
 515:Drivers/STM32F4xx_StdPeriph_Driver/src/stm32f4xx_ltdc.c ****   LTDC->CPSR &= ~(LTDC_CPSR_CYPOS | LTDC_CPSR_CXPOS);
 852              		.loc 1 515 3 view .LVU308
 853              		.loc 1 515 14 is_stmt 0 view .LVU309
 854 0000 054A     		ldr	r2, .L36
 855 0002 516C     		ldr	r1, [r2, #68]
 856 0004 0021     		movs	r1, #0
 857 0006 5164     		str	r1, [r2, #68]
 516:Drivers/STM32F4xx_StdPeriph_Driver/src/stm32f4xx_ltdc.c **** 
 517:Drivers/STM32F4xx_StdPeriph_Driver/src/stm32f4xx_ltdc.c ****   LTDC_Pos_InitStruct.LTDC_POSX = (uint32_t)(LTDC->CPSR >> 16);
 858              		.loc 1 517 3 is_stmt 1 view .LVU310
 859              		.loc 1 517 50 is_stmt 0 view .LVU311
 860 0008 516C     		ldr	r1, [r2, #68]
 861              		.loc 1 517 57 view .LVU312
 862 000a 090C     		lsrs	r1, r1, #16
 863              		.loc 1 517 33 view .LVU313
 864 000c 0160     		str	r1, [r0]
 518:Drivers/STM32F4xx_StdPeriph_Driver/src/stm32f4xx_ltdc.c ****   LTDC_Pos_InitStruct.LTDC_POSY = (uint32_t)(LTDC->CPSR & 0xFFFF);
 865              		.loc 1 518 3 is_stmt 1 view .LVU314
 866              		.loc 1 518 50 is_stmt 0 view .LVU315
 867 000e 526C     		ldr	r2, [r2, #68]
 868              		.loc 1 518 35 view .LVU316
 869 0010 92B2     		uxth	r2, r2
 870              		.loc 1 518 33 view .LVU317
 871 0012 4260     		str	r2, [r0, #4]
 519:Drivers/STM32F4xx_StdPeriph_Driver/src/stm32f4xx_ltdc.c **** 
ARM GAS  /tmp/ccGHW3gB.s 			page 25


 520:Drivers/STM32F4xx_StdPeriph_Driver/src/stm32f4xx_ltdc.c ****   return LTDC_Pos_InitStruct;
 872              		.loc 1 520 3 is_stmt 1 view .LVU318
 521:Drivers/STM32F4xx_StdPeriph_Driver/src/stm32f4xx_ltdc.c **** }
 873              		.loc 1 521 1 is_stmt 0 view .LVU319
 874 0014 7047     		bx	lr
 875              	.L37:
 876 0016 00BF     		.align	2
 877              	.L36:
 878 0018 00680140 		.word	1073833984
 879              		.cfi_endproc
 880              	.LFE135:
 882              		.section	.text.LTDC_PosStructInit,"ax",%progbits
 883              		.align	1
 884              		.global	LTDC_PosStructInit
 885              		.syntax unified
 886              		.thumb
 887              		.thumb_func
 889              	LTDC_PosStructInit:
 890              	.LVL34:
 891              	.LFB136:
 522:Drivers/STM32F4xx_StdPeriph_Driver/src/stm32f4xx_ltdc.c **** 
 523:Drivers/STM32F4xx_StdPeriph_Driver/src/stm32f4xx_ltdc.c **** /**
 524:Drivers/STM32F4xx_StdPeriph_Driver/src/stm32f4xx_ltdc.c ****   * @brief  Fills each LTDC_Pos_InitStruct member with its default value.
 525:Drivers/STM32F4xx_StdPeriph_Driver/src/stm32f4xx_ltdc.c ****   * @param  LTDC_Pos_InitStruct: pointer to a LTDC_PosTypeDef structure which will
 526:Drivers/STM32F4xx_StdPeriph_Driver/src/stm32f4xx_ltdc.c ****   *         be initialized.
 527:Drivers/STM32F4xx_StdPeriph_Driver/src/stm32f4xx_ltdc.c ****   * @retval None
 528:Drivers/STM32F4xx_StdPeriph_Driver/src/stm32f4xx_ltdc.c ****   */
 529:Drivers/STM32F4xx_StdPeriph_Driver/src/stm32f4xx_ltdc.c **** 
 530:Drivers/STM32F4xx_StdPeriph_Driver/src/stm32f4xx_ltdc.c **** void LTDC_PosStructInit(LTDC_PosTypeDef* LTDC_Pos_InitStruct)
 531:Drivers/STM32F4xx_StdPeriph_Driver/src/stm32f4xx_ltdc.c **** {
 892              		.loc 1 531 1 is_stmt 1 view -0
 893              		.cfi_startproc
 894              		@ args = 0, pretend = 0, frame = 0
 895              		@ frame_needed = 0, uses_anonymous_args = 0
 896              		@ link register save eliminated.
 532:Drivers/STM32F4xx_StdPeriph_Driver/src/stm32f4xx_ltdc.c ****   LTDC_Pos_InitStruct->LTDC_POSX = 0x00;
 897              		.loc 1 532 3 view .LVU321
 898              		.loc 1 532 34 is_stmt 0 view .LVU322
 899 0000 0023     		movs	r3, #0
 900 0002 0360     		str	r3, [r0]
 533:Drivers/STM32F4xx_StdPeriph_Driver/src/stm32f4xx_ltdc.c ****   LTDC_Pos_InitStruct->LTDC_POSY = 0x00;
 901              		.loc 1 533 3 is_stmt 1 view .LVU323
 902              		.loc 1 533 34 is_stmt 0 view .LVU324
 903 0004 4360     		str	r3, [r0, #4]
 534:Drivers/STM32F4xx_StdPeriph_Driver/src/stm32f4xx_ltdc.c **** }
 904              		.loc 1 534 1 view .LVU325
 905 0006 7047     		bx	lr
 906              		.cfi_endproc
 907              	.LFE136:
 909              		.section	.text.LTDC_GetCDStatus,"ax",%progbits
 910              		.align	1
 911              		.global	LTDC_GetCDStatus
 912              		.syntax unified
 913              		.thumb
 914              		.thumb_func
 916              	LTDC_GetCDStatus:
 917              	.LVL35:
ARM GAS  /tmp/ccGHW3gB.s 			page 26


 918              	.LFB137:
 535:Drivers/STM32F4xx_StdPeriph_Driver/src/stm32f4xx_ltdc.c **** 
 536:Drivers/STM32F4xx_StdPeriph_Driver/src/stm32f4xx_ltdc.c **** /**
 537:Drivers/STM32F4xx_StdPeriph_Driver/src/stm32f4xx_ltdc.c ****   * @brief  Checks whether the specified LTDC's flag is set or not.
 538:Drivers/STM32F4xx_StdPeriph_Driver/src/stm32f4xx_ltdc.c ****   * @param  LTDC_CD: specifies the flag to check.
 539:Drivers/STM32F4xx_StdPeriph_Driver/src/stm32f4xx_ltdc.c ****   *   This parameter can be one of the following values:
 540:Drivers/STM32F4xx_StdPeriph_Driver/src/stm32f4xx_ltdc.c ****   *     @arg LTDC_CD_VDES: vertical data enable current status.
 541:Drivers/STM32F4xx_StdPeriph_Driver/src/stm32f4xx_ltdc.c ****   *     @arg LTDC_CD_HDES: horizontal data enable current status.
 542:Drivers/STM32F4xx_StdPeriph_Driver/src/stm32f4xx_ltdc.c ****   *     @arg LTDC_CD_VSYNC:  Vertical Synchronization current status.
 543:Drivers/STM32F4xx_StdPeriph_Driver/src/stm32f4xx_ltdc.c ****   *     @arg LTDC_CD_HSYNC:  Horizontal Synchronization current status.
 544:Drivers/STM32F4xx_StdPeriph_Driver/src/stm32f4xx_ltdc.c ****   * @retval The new state of LTDC_CD (SET or RESET).
 545:Drivers/STM32F4xx_StdPeriph_Driver/src/stm32f4xx_ltdc.c ****   */
 546:Drivers/STM32F4xx_StdPeriph_Driver/src/stm32f4xx_ltdc.c **** 
 547:Drivers/STM32F4xx_StdPeriph_Driver/src/stm32f4xx_ltdc.c **** FlagStatus LTDC_GetCDStatus(uint32_t LTDC_CD)
 548:Drivers/STM32F4xx_StdPeriph_Driver/src/stm32f4xx_ltdc.c **** {
 919              		.loc 1 548 1 is_stmt 1 view -0
 920              		.cfi_startproc
 921              		@ args = 0, pretend = 0, frame = 0
 922              		@ frame_needed = 0, uses_anonymous_args = 0
 923              		@ link register save eliminated.
 549:Drivers/STM32F4xx_StdPeriph_Driver/src/stm32f4xx_ltdc.c ****   FlagStatus bitstatus;
 924              		.loc 1 549 3 view .LVU327
 550:Drivers/STM32F4xx_StdPeriph_Driver/src/stm32f4xx_ltdc.c **** 
 551:Drivers/STM32F4xx_StdPeriph_Driver/src/stm32f4xx_ltdc.c ****   /* Check the parameters */
 552:Drivers/STM32F4xx_StdPeriph_Driver/src/stm32f4xx_ltdc.c ****   assert_param(IS_LTDC_GET_CD(LTDC_CD));
 925              		.loc 1 552 3 view .LVU328
 553:Drivers/STM32F4xx_StdPeriph_Driver/src/stm32f4xx_ltdc.c **** 
 554:Drivers/STM32F4xx_StdPeriph_Driver/src/stm32f4xx_ltdc.c ****   if ((LTDC->CDSR & LTDC_CD) != (uint32_t)RESET)
 926              		.loc 1 554 3 view .LVU329
 927              		.loc 1 554 12 is_stmt 0 view .LVU330
 928 0000 034B     		ldr	r3, .L42
 929 0002 9B6C     		ldr	r3, [r3, #72]
 930              		.loc 1 554 6 view .LVU331
 931 0004 0342     		tst	r3, r0
 932 0006 01D0     		beq	.L41
 555:Drivers/STM32F4xx_StdPeriph_Driver/src/stm32f4xx_ltdc.c ****   {
 556:Drivers/STM32F4xx_StdPeriph_Driver/src/stm32f4xx_ltdc.c ****     bitstatus = SET;
 933              		.loc 1 556 15 view .LVU332
 934 0008 0120     		movs	r0, #1
 935              	.LVL36:
 936              		.loc 1 556 15 view .LVU333
 937 000a 7047     		bx	lr
 938              	.LVL37:
 939              	.L41:
 557:Drivers/STM32F4xx_StdPeriph_Driver/src/stm32f4xx_ltdc.c ****   }
 558:Drivers/STM32F4xx_StdPeriph_Driver/src/stm32f4xx_ltdc.c ****   else
 559:Drivers/STM32F4xx_StdPeriph_Driver/src/stm32f4xx_ltdc.c ****   {
 560:Drivers/STM32F4xx_StdPeriph_Driver/src/stm32f4xx_ltdc.c ****     bitstatus = RESET;
 940              		.loc 1 560 15 view .LVU334
 941 000c 0020     		movs	r0, #0
 942              	.LVL38:
 561:Drivers/STM32F4xx_StdPeriph_Driver/src/stm32f4xx_ltdc.c ****   }
 562:Drivers/STM32F4xx_StdPeriph_Driver/src/stm32f4xx_ltdc.c ****   return bitstatus;
 943              		.loc 1 562 3 is_stmt 1 view .LVU335
 563:Drivers/STM32F4xx_StdPeriph_Driver/src/stm32f4xx_ltdc.c **** }
 944              		.loc 1 563 1 is_stmt 0 view .LVU336
 945 000e 7047     		bx	lr
ARM GAS  /tmp/ccGHW3gB.s 			page 27


 946              	.L43:
 947              		.align	2
 948              	.L42:
 949 0010 00680140 		.word	1073833984
 950              		.cfi_endproc
 951              	.LFE137:
 953              		.section	.text.LTDC_ColorKeyingConfig,"ax",%progbits
 954              		.align	1
 955              		.global	LTDC_ColorKeyingConfig
 956              		.syntax unified
 957              		.thumb
 958              		.thumb_func
 960              	LTDC_ColorKeyingConfig:
 961              	.LVL39:
 962              	.LFB138:
 564:Drivers/STM32F4xx_StdPeriph_Driver/src/stm32f4xx_ltdc.c **** 
 565:Drivers/STM32F4xx_StdPeriph_Driver/src/stm32f4xx_ltdc.c **** /**
 566:Drivers/STM32F4xx_StdPeriph_Driver/src/stm32f4xx_ltdc.c ****   * @brief  Set and configure the color keying.
 567:Drivers/STM32F4xx_StdPeriph_Driver/src/stm32f4xx_ltdc.c ****   * @param  LTDC_colorkeying_InitStruct: pointer to a LTDC_ColorKeying_InitTypeDef 
 568:Drivers/STM32F4xx_StdPeriph_Driver/src/stm32f4xx_ltdc.c ****   *         structure that contains the color keying configuration.
 569:Drivers/STM32F4xx_StdPeriph_Driver/src/stm32f4xx_ltdc.c ****   * @param  LTDC_layerx: Select the layer to be configured, this parameter can be 
 570:Drivers/STM32F4xx_StdPeriph_Driver/src/stm32f4xx_ltdc.c ****   *         one of the following values: LTDC_Layer1, LTDC_Layer2   
 571:Drivers/STM32F4xx_StdPeriph_Driver/src/stm32f4xx_ltdc.c ****   * @retval None
 572:Drivers/STM32F4xx_StdPeriph_Driver/src/stm32f4xx_ltdc.c ****   */
 573:Drivers/STM32F4xx_StdPeriph_Driver/src/stm32f4xx_ltdc.c **** 
 574:Drivers/STM32F4xx_StdPeriph_Driver/src/stm32f4xx_ltdc.c **** void LTDC_ColorKeyingConfig(LTDC_Layer_TypeDef* LTDC_Layerx, LTDC_ColorKeying_InitTypeDef* LTDC_col
 575:Drivers/STM32F4xx_StdPeriph_Driver/src/stm32f4xx_ltdc.c **** { 
 963              		.loc 1 575 1 is_stmt 1 view -0
 964              		.cfi_startproc
 965              		@ args = 0, pretend = 0, frame = 0
 966              		@ frame_needed = 0, uses_anonymous_args = 0
 967              		@ link register save eliminated.
 576:Drivers/STM32F4xx_StdPeriph_Driver/src/stm32f4xx_ltdc.c ****   uint32_t ckgreen = 0;
 968              		.loc 1 576 3 view .LVU338
 577:Drivers/STM32F4xx_StdPeriph_Driver/src/stm32f4xx_ltdc.c ****   uint32_t ckred = 0;
 969              		.loc 1 577 3 view .LVU339
 578:Drivers/STM32F4xx_StdPeriph_Driver/src/stm32f4xx_ltdc.c **** 
 579:Drivers/STM32F4xx_StdPeriph_Driver/src/stm32f4xx_ltdc.c ****   /* Check the parameters */
 580:Drivers/STM32F4xx_StdPeriph_Driver/src/stm32f4xx_ltdc.c ****   assert_param(IS_FUNCTIONAL_STATE(NewState));
 970              		.loc 1 580 3 view .LVU340
 581:Drivers/STM32F4xx_StdPeriph_Driver/src/stm32f4xx_ltdc.c ****   assert_param(IS_LTDC_CKEYING(LTDC_colorkeying_InitStruct->LTDC_ColorKeyBlue));
 971              		.loc 1 581 3 view .LVU341
 582:Drivers/STM32F4xx_StdPeriph_Driver/src/stm32f4xx_ltdc.c ****   assert_param(IS_LTDC_CKEYING(LTDC_colorkeying_InitStruct->LTDC_ColorKeyGreen));
 972              		.loc 1 582 3 view .LVU342
 583:Drivers/STM32F4xx_StdPeriph_Driver/src/stm32f4xx_ltdc.c ****   assert_param(IS_LTDC_CKEYING(LTDC_colorkeying_InitStruct->LTDC_ColorKeyRed));
 973              		.loc 1 583 3 view .LVU343
 584:Drivers/STM32F4xx_StdPeriph_Driver/src/stm32f4xx_ltdc.c ****   
 585:Drivers/STM32F4xx_StdPeriph_Driver/src/stm32f4xx_ltdc.c ****   if (NewState != DISABLE)
 974              		.loc 1 585 3 view .LVU344
 975              		.loc 1 585 6 is_stmt 0 view .LVU345
 976 0000 BAB1     		cbz	r2, .L45
 575:Drivers/STM32F4xx_StdPeriph_Driver/src/stm32f4xx_ltdc.c ****   uint32_t ckgreen = 0;
 977              		.loc 1 575 1 view .LVU346
 978 0002 30B4     		push	{r4, r5}
 979              		.cfi_def_cfa_offset 8
 980              		.cfi_offset 4, -8
 981              		.cfi_offset 5, -4
ARM GAS  /tmp/ccGHW3gB.s 			page 28


 586:Drivers/STM32F4xx_StdPeriph_Driver/src/stm32f4xx_ltdc.c ****   {
 587:Drivers/STM32F4xx_StdPeriph_Driver/src/stm32f4xx_ltdc.c ****     /* Enable LTDC color keying by setting COLKEN bit */
 588:Drivers/STM32F4xx_StdPeriph_Driver/src/stm32f4xx_ltdc.c ****     LTDC_Layerx->CR |= (uint32_t)LTDC_LxCR_COLKEN;
 982              		.loc 1 588 5 is_stmt 1 view .LVU347
 983              		.loc 1 588 21 is_stmt 0 view .LVU348
 984 0004 0368     		ldr	r3, [r0]
 985 0006 43F00203 		orr	r3, r3, #2
 986 000a 0360     		str	r3, [r0]
 589:Drivers/STM32F4xx_StdPeriph_Driver/src/stm32f4xx_ltdc.c ****     
 590:Drivers/STM32F4xx_StdPeriph_Driver/src/stm32f4xx_ltdc.c ****     /* Sets the color keying values */
 591:Drivers/STM32F4xx_StdPeriph_Driver/src/stm32f4xx_ltdc.c ****     ckgreen = (LTDC_colorkeying_InitStruct->LTDC_ColorKeyGreen << 8);
 987              		.loc 1 591 5 is_stmt 1 view .LVU349
 988              		.loc 1 591 43 is_stmt 0 view .LVU350
 989 000c 4D68     		ldr	r5, [r1, #4]
 990              	.LVL40:
 592:Drivers/STM32F4xx_StdPeriph_Driver/src/stm32f4xx_ltdc.c ****     ckred = (LTDC_colorkeying_InitStruct->LTDC_ColorKeyRed << 16);
 991              		.loc 1 592 5 is_stmt 1 view .LVU351
 992              		.loc 1 592 41 is_stmt 0 view .LVU352
 993 000e 8C68     		ldr	r4, [r1, #8]
 994              	.LVL41:
 593:Drivers/STM32F4xx_StdPeriph_Driver/src/stm32f4xx_ltdc.c ****     LTDC_Layerx->CKCR  &= ~(LTDC_LxCKCR_CKBLUE | LTDC_LxCKCR_CKGREEN | LTDC_LxCKCR_CKRED);
 995              		.loc 1 593 5 is_stmt 1 view .LVU353
 996              		.loc 1 593 24 is_stmt 0 view .LVU354
 997 0010 C268     		ldr	r2, [r0, #12]
 998              	.LVL42:
 999              		.loc 1 593 24 view .LVU355
 1000 0012 02F07F42 		and	r2, r2, #-16777216
 1001 0016 C260     		str	r2, [r0, #12]
 594:Drivers/STM32F4xx_StdPeriph_Driver/src/stm32f4xx_ltdc.c ****     LTDC_Layerx->CKCR |= (LTDC_colorkeying_InitStruct->LTDC_ColorKeyBlue | ckgreen | ckred);
 1002              		.loc 1 594 5 is_stmt 1 view .LVU356
 1003              		.loc 1 594 23 is_stmt 0 view .LVU357
 1004 0018 C268     		ldr	r2, [r0, #12]
 1005              		.loc 1 594 54 view .LVU358
 1006 001a 0B68     		ldr	r3, [r1]
 1007              		.loc 1 594 74 view .LVU359
 1008 001c 43EA0523 		orr	r3, r3, r5, lsl #8
 1009              		.loc 1 594 84 view .LVU360
 1010 0020 43EA0443 		orr	r3, r3, r4, lsl #16
 1011              		.loc 1 594 23 view .LVU361
 1012 0024 1343     		orrs	r3, r3, r2
 1013 0026 C360     		str	r3, [r0, #12]
 595:Drivers/STM32F4xx_StdPeriph_Driver/src/stm32f4xx_ltdc.c ****   }
 596:Drivers/STM32F4xx_StdPeriph_Driver/src/stm32f4xx_ltdc.c ****   else
 597:Drivers/STM32F4xx_StdPeriph_Driver/src/stm32f4xx_ltdc.c ****   {
 598:Drivers/STM32F4xx_StdPeriph_Driver/src/stm32f4xx_ltdc.c ****     /* Disable LTDC color keying by clearing COLKEN bit */
 599:Drivers/STM32F4xx_StdPeriph_Driver/src/stm32f4xx_ltdc.c ****     LTDC_Layerx->CR &= ~(uint32_t)LTDC_LxCR_COLKEN;
 600:Drivers/STM32F4xx_StdPeriph_Driver/src/stm32f4xx_ltdc.c ****   }
 601:Drivers/STM32F4xx_StdPeriph_Driver/src/stm32f4xx_ltdc.c ****   
 602:Drivers/STM32F4xx_StdPeriph_Driver/src/stm32f4xx_ltdc.c ****   /* Reload shadow register */
 603:Drivers/STM32F4xx_StdPeriph_Driver/src/stm32f4xx_ltdc.c ****   LTDC->SRCR = LTDC_IMReload;
 1014              		.loc 1 603 3 is_stmt 1 view .LVU362
 1015              		.loc 1 603 14 is_stmt 0 view .LVU363
 1016 0028 064B     		ldr	r3, .L51
 1017 002a 0122     		movs	r2, #1
 1018 002c 5A62     		str	r2, [r3, #36]
 604:Drivers/STM32F4xx_StdPeriph_Driver/src/stm32f4xx_ltdc.c **** }
 1019              		.loc 1 604 1 view .LVU364
ARM GAS  /tmp/ccGHW3gB.s 			page 29


 1020 002e 30BC     		pop	{r4, r5}
 1021              		.cfi_restore 5
 1022              		.cfi_restore 4
 1023              		.cfi_def_cfa_offset 0
 1024              	.LVL43:
 1025              		.loc 1 604 1 view .LVU365
 1026 0030 7047     		bx	lr
 1027              	.LVL44:
 1028              	.L45:
 599:Drivers/STM32F4xx_StdPeriph_Driver/src/stm32f4xx_ltdc.c ****   }
 1029              		.loc 1 599 5 is_stmt 1 view .LVU366
 599:Drivers/STM32F4xx_StdPeriph_Driver/src/stm32f4xx_ltdc.c ****   }
 1030              		.loc 1 599 21 is_stmt 0 view .LVU367
 1031 0032 0368     		ldr	r3, [r0]
 1032 0034 23F00203 		bic	r3, r3, #2
 1033 0038 0360     		str	r3, [r0]
 603:Drivers/STM32F4xx_StdPeriph_Driver/src/stm32f4xx_ltdc.c **** }
 1034              		.loc 1 603 3 is_stmt 1 view .LVU368
 603:Drivers/STM32F4xx_StdPeriph_Driver/src/stm32f4xx_ltdc.c **** }
 1035              		.loc 1 603 14 is_stmt 0 view .LVU369
 1036 003a 024B     		ldr	r3, .L51
 1037 003c 0122     		movs	r2, #1
 1038              	.LVL45:
 603:Drivers/STM32F4xx_StdPeriph_Driver/src/stm32f4xx_ltdc.c **** }
 1039              		.loc 1 603 14 view .LVU370
 1040 003e 5A62     		str	r2, [r3, #36]
 1041 0040 7047     		bx	lr
 1042              	.L52:
 1043 0042 00BF     		.align	2
 1044              	.L51:
 1045 0044 00680140 		.word	1073833984
 1046              		.cfi_endproc
 1047              	.LFE138:
 1049              		.section	.text.LTDC_ColorKeyingStructInit,"ax",%progbits
 1050              		.align	1
 1051              		.global	LTDC_ColorKeyingStructInit
 1052              		.syntax unified
 1053              		.thumb
 1054              		.thumb_func
 1056              	LTDC_ColorKeyingStructInit:
 1057              	.LVL46:
 1058              	.LFB139:
 605:Drivers/STM32F4xx_StdPeriph_Driver/src/stm32f4xx_ltdc.c **** 
 606:Drivers/STM32F4xx_StdPeriph_Driver/src/stm32f4xx_ltdc.c **** /**
 607:Drivers/STM32F4xx_StdPeriph_Driver/src/stm32f4xx_ltdc.c ****   * @brief  Fills each LTDC_colorkeying_InitStruct member with its default value.
 608:Drivers/STM32F4xx_StdPeriph_Driver/src/stm32f4xx_ltdc.c ****   * @param  LTDC_colorkeying_InitStruct: pointer to a LTDC_ColorKeying_InitTypeDef structure which 
 609:Drivers/STM32F4xx_StdPeriph_Driver/src/stm32f4xx_ltdc.c ****   *         be initialized.
 610:Drivers/STM32F4xx_StdPeriph_Driver/src/stm32f4xx_ltdc.c ****   * @retval None
 611:Drivers/STM32F4xx_StdPeriph_Driver/src/stm32f4xx_ltdc.c ****   */
 612:Drivers/STM32F4xx_StdPeriph_Driver/src/stm32f4xx_ltdc.c **** 
 613:Drivers/STM32F4xx_StdPeriph_Driver/src/stm32f4xx_ltdc.c **** void LTDC_ColorKeyingStructInit(LTDC_ColorKeying_InitTypeDef* LTDC_colorkeying_InitStruct)
 614:Drivers/STM32F4xx_StdPeriph_Driver/src/stm32f4xx_ltdc.c **** {
 1059              		.loc 1 614 1 is_stmt 1 view -0
 1060              		.cfi_startproc
 1061              		@ args = 0, pretend = 0, frame = 0
 1062              		@ frame_needed = 0, uses_anonymous_args = 0
 1063              		@ link register save eliminated.
ARM GAS  /tmp/ccGHW3gB.s 			page 30


 615:Drivers/STM32F4xx_StdPeriph_Driver/src/stm32f4xx_ltdc.c ****   /*!< Initialize the color keying values */
 616:Drivers/STM32F4xx_StdPeriph_Driver/src/stm32f4xx_ltdc.c ****   LTDC_colorkeying_InitStruct->LTDC_ColorKeyBlue = 0x00;
 1064              		.loc 1 616 3 view .LVU372
 1065              		.loc 1 616 50 is_stmt 0 view .LVU373
 1066 0000 0023     		movs	r3, #0
 1067 0002 0360     		str	r3, [r0]
 617:Drivers/STM32F4xx_StdPeriph_Driver/src/stm32f4xx_ltdc.c ****   LTDC_colorkeying_InitStruct->LTDC_ColorKeyGreen = 0x00;
 1068              		.loc 1 617 3 is_stmt 1 view .LVU374
 1069              		.loc 1 617 51 is_stmt 0 view .LVU375
 1070 0004 4360     		str	r3, [r0, #4]
 618:Drivers/STM32F4xx_StdPeriph_Driver/src/stm32f4xx_ltdc.c ****   LTDC_colorkeying_InitStruct->LTDC_ColorKeyRed = 0x00;
 1071              		.loc 1 618 3 is_stmt 1 view .LVU376
 1072              		.loc 1 618 49 is_stmt 0 view .LVU377
 1073 0006 8360     		str	r3, [r0, #8]
 619:Drivers/STM32F4xx_StdPeriph_Driver/src/stm32f4xx_ltdc.c **** }
 1074              		.loc 1 619 1 view .LVU378
 1075 0008 7047     		bx	lr
 1076              		.cfi_endproc
 1077              	.LFE139:
 1079              		.section	.text.LTDC_CLUTCmd,"ax",%progbits
 1080              		.align	1
 1081              		.global	LTDC_CLUTCmd
 1082              		.syntax unified
 1083              		.thumb
 1084              		.thumb_func
 1086              	LTDC_CLUTCmd:
 1087              	.LVL47:
 1088              	.LFB140:
 620:Drivers/STM32F4xx_StdPeriph_Driver/src/stm32f4xx_ltdc.c **** 
 621:Drivers/STM32F4xx_StdPeriph_Driver/src/stm32f4xx_ltdc.c **** 
 622:Drivers/STM32F4xx_StdPeriph_Driver/src/stm32f4xx_ltdc.c **** /**
 623:Drivers/STM32F4xx_StdPeriph_Driver/src/stm32f4xx_ltdc.c ****   * @brief  Enables or disables CLUT.
 624:Drivers/STM32F4xx_StdPeriph_Driver/src/stm32f4xx_ltdc.c ****   * @param  NewState: new state of CLUT.
 625:Drivers/STM32F4xx_StdPeriph_Driver/src/stm32f4xx_ltdc.c ****   * @param  LTDC_layerx: Select the layer to be configured, this parameter can be 
 626:Drivers/STM32F4xx_StdPeriph_Driver/src/stm32f4xx_ltdc.c ****   *         one of the following values: LTDC_Layer1, LTDC_Layer2  
 627:Drivers/STM32F4xx_StdPeriph_Driver/src/stm32f4xx_ltdc.c ****   *   This parameter can be: ENABLE or DISABLE.
 628:Drivers/STM32F4xx_StdPeriph_Driver/src/stm32f4xx_ltdc.c ****   * @retval None
 629:Drivers/STM32F4xx_StdPeriph_Driver/src/stm32f4xx_ltdc.c ****   */
 630:Drivers/STM32F4xx_StdPeriph_Driver/src/stm32f4xx_ltdc.c **** 
 631:Drivers/STM32F4xx_StdPeriph_Driver/src/stm32f4xx_ltdc.c **** void LTDC_CLUTCmd(LTDC_Layer_TypeDef* LTDC_Layerx, FunctionalState NewState)
 632:Drivers/STM32F4xx_StdPeriph_Driver/src/stm32f4xx_ltdc.c **** {
 1089              		.loc 1 632 1 is_stmt 1 view -0
 1090              		.cfi_startproc
 1091              		@ args = 0, pretend = 0, frame = 0
 1092              		@ frame_needed = 0, uses_anonymous_args = 0
 1093              		@ link register save eliminated.
 633:Drivers/STM32F4xx_StdPeriph_Driver/src/stm32f4xx_ltdc.c ****   /* Check the parameters */
 634:Drivers/STM32F4xx_StdPeriph_Driver/src/stm32f4xx_ltdc.c ****   assert_param(IS_FUNCTIONAL_STATE(NewState));
 1094              		.loc 1 634 3 view .LVU380
 635:Drivers/STM32F4xx_StdPeriph_Driver/src/stm32f4xx_ltdc.c **** 
 636:Drivers/STM32F4xx_StdPeriph_Driver/src/stm32f4xx_ltdc.c ****   if (NewState != DISABLE)
 1095              		.loc 1 636 3 view .LVU381
 1096              		.loc 1 636 6 is_stmt 0 view .LVU382
 1097 0000 39B1     		cbz	r1, .L55
 637:Drivers/STM32F4xx_StdPeriph_Driver/src/stm32f4xx_ltdc.c ****   {
 638:Drivers/STM32F4xx_StdPeriph_Driver/src/stm32f4xx_ltdc.c ****     /* Enable CLUT by setting CLUTEN bit */
 639:Drivers/STM32F4xx_StdPeriph_Driver/src/stm32f4xx_ltdc.c ****     LTDC_Layerx->CR |= (uint32_t)LTDC_LxCR_CLUTEN;
ARM GAS  /tmp/ccGHW3gB.s 			page 31


 1098              		.loc 1 639 5 is_stmt 1 view .LVU383
 1099              		.loc 1 639 21 is_stmt 0 view .LVU384
 1100 0002 0368     		ldr	r3, [r0]
 1101 0004 43F01003 		orr	r3, r3, #16
 1102 0008 0360     		str	r3, [r0]
 1103              	.L56:
 640:Drivers/STM32F4xx_StdPeriph_Driver/src/stm32f4xx_ltdc.c ****   }
 641:Drivers/STM32F4xx_StdPeriph_Driver/src/stm32f4xx_ltdc.c ****   else
 642:Drivers/STM32F4xx_StdPeriph_Driver/src/stm32f4xx_ltdc.c ****   {
 643:Drivers/STM32F4xx_StdPeriph_Driver/src/stm32f4xx_ltdc.c ****     /* Disable CLUT by clearing CLUTEN bit */
 644:Drivers/STM32F4xx_StdPeriph_Driver/src/stm32f4xx_ltdc.c ****     LTDC_Layerx->CR &= ~(uint32_t)LTDC_LxCR_CLUTEN;
 645:Drivers/STM32F4xx_StdPeriph_Driver/src/stm32f4xx_ltdc.c ****   }
 646:Drivers/STM32F4xx_StdPeriph_Driver/src/stm32f4xx_ltdc.c ****   
 647:Drivers/STM32F4xx_StdPeriph_Driver/src/stm32f4xx_ltdc.c ****   /* Reload shadow register */
 648:Drivers/STM32F4xx_StdPeriph_Driver/src/stm32f4xx_ltdc.c ****   LTDC->SRCR = LTDC_IMReload;
 1104              		.loc 1 648 3 is_stmt 1 view .LVU385
 1105              		.loc 1 648 14 is_stmt 0 view .LVU386
 1106 000a 044B     		ldr	r3, .L57
 1107 000c 0122     		movs	r2, #1
 1108 000e 5A62     		str	r2, [r3, #36]
 649:Drivers/STM32F4xx_StdPeriph_Driver/src/stm32f4xx_ltdc.c **** }
 1109              		.loc 1 649 1 view .LVU387
 1110 0010 7047     		bx	lr
 1111              	.L55:
 644:Drivers/STM32F4xx_StdPeriph_Driver/src/stm32f4xx_ltdc.c ****   }
 1112              		.loc 1 644 5 is_stmt 1 view .LVU388
 644:Drivers/STM32F4xx_StdPeriph_Driver/src/stm32f4xx_ltdc.c ****   }
 1113              		.loc 1 644 21 is_stmt 0 view .LVU389
 1114 0012 0368     		ldr	r3, [r0]
 1115 0014 23F01003 		bic	r3, r3, #16
 1116 0018 0360     		str	r3, [r0]
 1117 001a F6E7     		b	.L56
 1118              	.L58:
 1119              		.align	2
 1120              	.L57:
 1121 001c 00680140 		.word	1073833984
 1122              		.cfi_endproc
 1123              	.LFE140:
 1125              		.section	.text.LTDC_CLUTInit,"ax",%progbits
 1126              		.align	1
 1127              		.global	LTDC_CLUTInit
 1128              		.syntax unified
 1129              		.thumb
 1130              		.thumb_func
 1132              	LTDC_CLUTInit:
 1133              	.LVL48:
 1134              	.LFB141:
 650:Drivers/STM32F4xx_StdPeriph_Driver/src/stm32f4xx_ltdc.c **** 
 651:Drivers/STM32F4xx_StdPeriph_Driver/src/stm32f4xx_ltdc.c **** /**
 652:Drivers/STM32F4xx_StdPeriph_Driver/src/stm32f4xx_ltdc.c ****   * @brief  configure the CLUT.
 653:Drivers/STM32F4xx_StdPeriph_Driver/src/stm32f4xx_ltdc.c ****   * @param  LTDC_CLUT_InitStruct: pointer to a LTDC_CLUT_InitTypeDef structure that contains
 654:Drivers/STM32F4xx_StdPeriph_Driver/src/stm32f4xx_ltdc.c ****   *         the CLUT configuration.
 655:Drivers/STM32F4xx_StdPeriph_Driver/src/stm32f4xx_ltdc.c ****   * @param  LTDC_layerx: Select the layer to be configured, this parameter can be 
 656:Drivers/STM32F4xx_StdPeriph_Driver/src/stm32f4xx_ltdc.c ****   *         one of the following values: LTDC_Layer1, LTDC_Layer2   
 657:Drivers/STM32F4xx_StdPeriph_Driver/src/stm32f4xx_ltdc.c ****   * @retval None
 658:Drivers/STM32F4xx_StdPeriph_Driver/src/stm32f4xx_ltdc.c ****   */
 659:Drivers/STM32F4xx_StdPeriph_Driver/src/stm32f4xx_ltdc.c **** 
ARM GAS  /tmp/ccGHW3gB.s 			page 32


 660:Drivers/STM32F4xx_StdPeriph_Driver/src/stm32f4xx_ltdc.c **** void LTDC_CLUTInit(LTDC_Layer_TypeDef* LTDC_Layerx, LTDC_CLUT_InitTypeDef* LTDC_CLUT_InitStruct)
 661:Drivers/STM32F4xx_StdPeriph_Driver/src/stm32f4xx_ltdc.c **** {  
 1135              		.loc 1 661 1 is_stmt 1 view -0
 1136              		.cfi_startproc
 1137              		@ args = 0, pretend = 0, frame = 0
 1138              		@ frame_needed = 0, uses_anonymous_args = 0
 1139              		@ link register save eliminated.
 1140              		.loc 1 661 1 is_stmt 0 view .LVU391
 1141 0000 30B4     		push	{r4, r5}
 1142              		.cfi_def_cfa_offset 8
 1143              		.cfi_offset 4, -8
 1144              		.cfi_offset 5, -4
 662:Drivers/STM32F4xx_StdPeriph_Driver/src/stm32f4xx_ltdc.c ****   uint32_t green = 0;
 1145              		.loc 1 662 3 is_stmt 1 view .LVU392
 1146              	.LVL49:
 663:Drivers/STM32F4xx_StdPeriph_Driver/src/stm32f4xx_ltdc.c ****   uint32_t red = 0;
 1147              		.loc 1 663 3 view .LVU393
 664:Drivers/STM32F4xx_StdPeriph_Driver/src/stm32f4xx_ltdc.c ****   uint32_t clutadd = 0;
 1148              		.loc 1 664 3 view .LVU394
 665:Drivers/STM32F4xx_StdPeriph_Driver/src/stm32f4xx_ltdc.c **** 
 666:Drivers/STM32F4xx_StdPeriph_Driver/src/stm32f4xx_ltdc.c ****   /* Check the parameters */
 667:Drivers/STM32F4xx_StdPeriph_Driver/src/stm32f4xx_ltdc.c ****   assert_param(IS_LTDC_CLUTWR(LTDC_CLUT_InitStruct->LTDC_CLUTAdress));
 1149              		.loc 1 667 3 view .LVU395
 668:Drivers/STM32F4xx_StdPeriph_Driver/src/stm32f4xx_ltdc.c ****   assert_param(IS_LTDC_CLUTWR(LTDC_CLUT_InitStruct->LTDC_RedValue));
 1150              		.loc 1 668 3 view .LVU396
 669:Drivers/STM32F4xx_StdPeriph_Driver/src/stm32f4xx_ltdc.c ****   assert_param(IS_LTDC_CLUTWR(LTDC_CLUT_InitStruct->LTDC_GreenValue));
 1151              		.loc 1 669 3 view .LVU397
 670:Drivers/STM32F4xx_StdPeriph_Driver/src/stm32f4xx_ltdc.c ****   assert_param(IS_LTDC_CLUTWR(LTDC_CLUT_InitStruct->LTDC_BlueValue));
 1152              		.loc 1 670 3 view .LVU398
 671:Drivers/STM32F4xx_StdPeriph_Driver/src/stm32f4xx_ltdc.c ****     
 672:Drivers/STM32F4xx_StdPeriph_Driver/src/stm32f4xx_ltdc.c ****   /* Specifies the CLUT address and RGB value */
 673:Drivers/STM32F4xx_StdPeriph_Driver/src/stm32f4xx_ltdc.c ****   green = (LTDC_CLUT_InitStruct->LTDC_GreenValue << 8);
 1153              		.loc 1 673 3 view .LVU399
 1154              		.loc 1 673 32 is_stmt 0 view .LVU400
 1155 0002 8C68     		ldr	r4, [r1, #8]
 1156              	.LVL50:
 674:Drivers/STM32F4xx_StdPeriph_Driver/src/stm32f4xx_ltdc.c ****   red = (LTDC_CLUT_InitStruct->LTDC_RedValue << 16);
 1157              		.loc 1 674 3 is_stmt 1 view .LVU401
 1158              		.loc 1 674 30 is_stmt 0 view .LVU402
 1159 0004 CA68     		ldr	r2, [r1, #12]
 1160              	.LVL51:
 675:Drivers/STM32F4xx_StdPeriph_Driver/src/stm32f4xx_ltdc.c ****   clutadd = (LTDC_CLUT_InitStruct->LTDC_CLUTAdress << 24);
 1161              		.loc 1 675 3 is_stmt 1 view .LVU403
 1162              		.loc 1 675 34 is_stmt 0 view .LVU404
 1163 0006 0D68     		ldr	r5, [r1]
 1164              	.LVL52:
 676:Drivers/STM32F4xx_StdPeriph_Driver/src/stm32f4xx_ltdc.c ****   LTDC_Layerx->CLUTWR  = (clutadd | LTDC_CLUT_InitStruct->LTDC_BlueValue | \
 1165              		.loc 1 676 3 is_stmt 1 view .LVU405
 1166              		.loc 1 676 57 is_stmt 0 view .LVU406
 1167 0008 4B68     		ldr	r3, [r1, #4]
 1168              		.loc 1 676 35 view .LVU407
 1169 000a 43EA0563 		orr	r3, r3, r5, lsl #24
 1170              		.loc 1 676 74 view .LVU408
 1171 000e 43EA0423 		orr	r3, r3, r4, lsl #8
 677:Drivers/STM32F4xx_StdPeriph_Driver/src/stm32f4xx_ltdc.c ****                               green | red);
 1172              		.loc 1 677 37 view .LVU409
 1173 0012 43EA0243 		orr	r3, r3, r2, lsl #16
ARM GAS  /tmp/ccGHW3gB.s 			page 33


 676:Drivers/STM32F4xx_StdPeriph_Driver/src/stm32f4xx_ltdc.c ****   LTDC_Layerx->CLUTWR  = (clutadd | LTDC_CLUT_InitStruct->LTDC_BlueValue | \
 1174              		.loc 1 676 24 view .LVU410
 1175 0016 0364     		str	r3, [r0, #64]
 678:Drivers/STM32F4xx_StdPeriph_Driver/src/stm32f4xx_ltdc.c **** }
 1176              		.loc 1 678 1 view .LVU411
 1177 0018 30BC     		pop	{r4, r5}
 1178              		.cfi_restore 5
 1179              		.cfi_restore 4
 1180              		.cfi_def_cfa_offset 0
 1181              	.LVL53:
 1182              		.loc 1 678 1 view .LVU412
 1183 001a 7047     		bx	lr
 1184              		.cfi_endproc
 1185              	.LFE141:
 1187              		.section	.text.LTDC_CLUTStructInit,"ax",%progbits
 1188              		.align	1
 1189              		.global	LTDC_CLUTStructInit
 1190              		.syntax unified
 1191              		.thumb
 1192              		.thumb_func
 1194              	LTDC_CLUTStructInit:
 1195              	.LVL54:
 1196              	.LFB142:
 679:Drivers/STM32F4xx_StdPeriph_Driver/src/stm32f4xx_ltdc.c **** 
 680:Drivers/STM32F4xx_StdPeriph_Driver/src/stm32f4xx_ltdc.c **** /**
 681:Drivers/STM32F4xx_StdPeriph_Driver/src/stm32f4xx_ltdc.c ****   * @brief  Fills each LTDC_CLUT_InitStruct member with its default value.
 682:Drivers/STM32F4xx_StdPeriph_Driver/src/stm32f4xx_ltdc.c ****   * @param  LTDC_CLUT_InitStruct: pointer to a LTDC_CLUT_InitTypeDef structure which will
 683:Drivers/STM32F4xx_StdPeriph_Driver/src/stm32f4xx_ltdc.c ****   *         be initialized.
 684:Drivers/STM32F4xx_StdPeriph_Driver/src/stm32f4xx_ltdc.c ****   * @retval None
 685:Drivers/STM32F4xx_StdPeriph_Driver/src/stm32f4xx_ltdc.c ****   */
 686:Drivers/STM32F4xx_StdPeriph_Driver/src/stm32f4xx_ltdc.c **** 
 687:Drivers/STM32F4xx_StdPeriph_Driver/src/stm32f4xx_ltdc.c **** void LTDC_CLUTStructInit(LTDC_CLUT_InitTypeDef* LTDC_CLUT_InitStruct)
 688:Drivers/STM32F4xx_StdPeriph_Driver/src/stm32f4xx_ltdc.c **** {
 1197              		.loc 1 688 1 is_stmt 1 view -0
 1198              		.cfi_startproc
 1199              		@ args = 0, pretend = 0, frame = 0
 1200              		@ frame_needed = 0, uses_anonymous_args = 0
 1201              		@ link register save eliminated.
 689:Drivers/STM32F4xx_StdPeriph_Driver/src/stm32f4xx_ltdc.c ****   /*!< Initialize the CLUT address and RGB values */
 690:Drivers/STM32F4xx_StdPeriph_Driver/src/stm32f4xx_ltdc.c ****   LTDC_CLUT_InitStruct->LTDC_CLUTAdress = 0x00;
 1202              		.loc 1 690 3 view .LVU414
 1203              		.loc 1 690 41 is_stmt 0 view .LVU415
 1204 0000 0023     		movs	r3, #0
 1205 0002 0360     		str	r3, [r0]
 691:Drivers/STM32F4xx_StdPeriph_Driver/src/stm32f4xx_ltdc.c ****   LTDC_CLUT_InitStruct->LTDC_BlueValue = 0x00;
 1206              		.loc 1 691 3 is_stmt 1 view .LVU416
 1207              		.loc 1 691 40 is_stmt 0 view .LVU417
 1208 0004 4360     		str	r3, [r0, #4]
 692:Drivers/STM32F4xx_StdPeriph_Driver/src/stm32f4xx_ltdc.c ****   LTDC_CLUT_InitStruct->LTDC_GreenValue = 0x00;
 1209              		.loc 1 692 3 is_stmt 1 view .LVU418
 1210              		.loc 1 692 41 is_stmt 0 view .LVU419
 1211 0006 8360     		str	r3, [r0, #8]
 693:Drivers/STM32F4xx_StdPeriph_Driver/src/stm32f4xx_ltdc.c ****   LTDC_CLUT_InitStruct->LTDC_RedValue = 0x00;
 1212              		.loc 1 693 3 is_stmt 1 view .LVU420
 1213              		.loc 1 693 39 is_stmt 0 view .LVU421
 1214 0008 C360     		str	r3, [r0, #12]
 694:Drivers/STM32F4xx_StdPeriph_Driver/src/stm32f4xx_ltdc.c **** }
ARM GAS  /tmp/ccGHW3gB.s 			page 34


 1215              		.loc 1 694 1 view .LVU422
 1216 000a 7047     		bx	lr
 1217              		.cfi_endproc
 1218              	.LFE142:
 1220              		.section	.text.LTDC_LayerPosition,"ax",%progbits
 1221              		.align	1
 1222              		.global	LTDC_LayerPosition
 1223              		.syntax unified
 1224              		.thumb
 1225              		.thumb_func
 1227              	LTDC_LayerPosition:
 1228              	.LVL55:
 1229              	.LFB143:
 695:Drivers/STM32F4xx_StdPeriph_Driver/src/stm32f4xx_ltdc.c **** 
 696:Drivers/STM32F4xx_StdPeriph_Driver/src/stm32f4xx_ltdc.c **** 
 697:Drivers/STM32F4xx_StdPeriph_Driver/src/stm32f4xx_ltdc.c **** /**
 698:Drivers/STM32F4xx_StdPeriph_Driver/src/stm32f4xx_ltdc.c ****   * @brief  reconfigure the layer position.
 699:Drivers/STM32F4xx_StdPeriph_Driver/src/stm32f4xx_ltdc.c ****   * @param  OffsetX: horizontal offset from start active width .
 700:Drivers/STM32F4xx_StdPeriph_Driver/src/stm32f4xx_ltdc.c ****   * @param  OffsetY: vertical offset from start active height.   
 701:Drivers/STM32F4xx_StdPeriph_Driver/src/stm32f4xx_ltdc.c ****   * @param  LTDC_layerx: Select the layer to be configured, this parameter can be 
 702:Drivers/STM32F4xx_StdPeriph_Driver/src/stm32f4xx_ltdc.c ****   *         one of the following values: LTDC_Layer1, LTDC_Layer2   
 703:Drivers/STM32F4xx_StdPeriph_Driver/src/stm32f4xx_ltdc.c ****   * @retval Reload of the shadow registers values must be applied after layer 
 704:Drivers/STM32F4xx_StdPeriph_Driver/src/stm32f4xx_ltdc.c ****   *         position reconfiguration.
 705:Drivers/STM32F4xx_StdPeriph_Driver/src/stm32f4xx_ltdc.c ****   */
 706:Drivers/STM32F4xx_StdPeriph_Driver/src/stm32f4xx_ltdc.c **** 
 707:Drivers/STM32F4xx_StdPeriph_Driver/src/stm32f4xx_ltdc.c **** void LTDC_LayerPosition(LTDC_Layer_TypeDef* LTDC_Layerx, uint16_t OffsetX, uint16_t OffsetY)
 708:Drivers/STM32F4xx_StdPeriph_Driver/src/stm32f4xx_ltdc.c **** {
 1230              		.loc 1 708 1 is_stmt 1 view -0
 1231              		.cfi_startproc
 1232              		@ args = 0, pretend = 0, frame = 0
 1233              		@ frame_needed = 0, uses_anonymous_args = 0
 1234              		@ link register save eliminated.
 1235              		.loc 1 708 1 is_stmt 0 view .LVU424
 1236 0000 10B4     		push	{r4}
 1237              		.cfi_def_cfa_offset 4
 1238              		.cfi_offset 4, -4
 709:Drivers/STM32F4xx_StdPeriph_Driver/src/stm32f4xx_ltdc.c ****   
 710:Drivers/STM32F4xx_StdPeriph_Driver/src/stm32f4xx_ltdc.c ****   uint32_t tempreg, temp;
 1239              		.loc 1 710 3 is_stmt 1 view .LVU425
 711:Drivers/STM32F4xx_StdPeriph_Driver/src/stm32f4xx_ltdc.c ****   uint32_t horizontal_start;
 1240              		.loc 1 711 3 view .LVU426
 712:Drivers/STM32F4xx_StdPeriph_Driver/src/stm32f4xx_ltdc.c ****   uint32_t horizontal_stop;
 1241              		.loc 1 712 3 view .LVU427
 713:Drivers/STM32F4xx_StdPeriph_Driver/src/stm32f4xx_ltdc.c ****   uint32_t vertical_start;
 1242              		.loc 1 713 3 view .LVU428
 714:Drivers/STM32F4xx_StdPeriph_Driver/src/stm32f4xx_ltdc.c ****   uint32_t vertical_stop;
 1243              		.loc 1 714 3 view .LVU429
 715:Drivers/STM32F4xx_StdPeriph_Driver/src/stm32f4xx_ltdc.c ****   
 716:Drivers/STM32F4xx_StdPeriph_Driver/src/stm32f4xx_ltdc.c ****   LTDC_Layerx->WHPCR &= ~(LTDC_LxWHPCR_WHSTPOS | LTDC_LxWHPCR_WHSPPOS);
 1244              		.loc 1 716 3 view .LVU430
 1245              		.loc 1 716 22 is_stmt 0 view .LVU431
 1246 0002 4468     		ldr	r4, [r0, #4]
 1247 0004 04F47044 		and	r4, r4, #61440
 1248 0008 4460     		str	r4, [r0, #4]
 717:Drivers/STM32F4xx_StdPeriph_Driver/src/stm32f4xx_ltdc.c ****   LTDC_Layerx->WVPCR &= ~(LTDC_LxWVPCR_WVSTPOS | LTDC_LxWVPCR_WVSPPOS);
 1249              		.loc 1 717 3 is_stmt 1 view .LVU432
 1250              		.loc 1 717 22 is_stmt 0 view .LVU433
ARM GAS  /tmp/ccGHW3gB.s 			page 35


 1251 000a 8468     		ldr	r4, [r0, #8]
 1252 000c 04F47044 		and	r4, r4, #61440
 1253 0010 8460     		str	r4, [r0, #8]
 718:Drivers/STM32F4xx_StdPeriph_Driver/src/stm32f4xx_ltdc.c ****   
 719:Drivers/STM32F4xx_StdPeriph_Driver/src/stm32f4xx_ltdc.c ****   /* Reconfigures the horizontal and vertical start position */
 720:Drivers/STM32F4xx_StdPeriph_Driver/src/stm32f4xx_ltdc.c ****   tempreg = LTDC->BPCR;
 1254              		.loc 1 720 3 is_stmt 1 view .LVU434
 1255              		.loc 1 720 11 is_stmt 0 view .LVU435
 1256 0012 1B4B     		ldr	r3, .L71
 1257 0014 DB68     		ldr	r3, [r3, #12]
 1258              	.LVL56:
 721:Drivers/STM32F4xx_StdPeriph_Driver/src/stm32f4xx_ltdc.c ****   horizontal_start = (tempreg >> 16) + 1 + OffsetX;
 1259              		.loc 1 721 3 is_stmt 1 view .LVU436
 1260              		.loc 1 721 42 is_stmt 0 view .LVU437
 1261 0016 01EB1341 		add	r1, r1, r3, lsr #16
 1262              	.LVL57:
 1263              		.loc 1 721 20 view .LVU438
 1264 001a 0131     		adds	r1, r1, #1
 1265              	.LVL58:
 722:Drivers/STM32F4xx_StdPeriph_Driver/src/stm32f4xx_ltdc.c ****   vertical_start = (tempreg & 0xFFFF) + 1 + OffsetY;
 1266              		.loc 1 722 3 is_stmt 1 view .LVU439
 1267              		.loc 1 722 43 is_stmt 0 view .LVU440
 1268 001c 12FA83F2 		uxtah	r2, r2, r3
 1269              	.LVL59:
 1270              		.loc 1 722 18 view .LVU441
 1271 0020 0132     		adds	r2, r2, #1
 1272              	.LVL60:
 723:Drivers/STM32F4xx_StdPeriph_Driver/src/stm32f4xx_ltdc.c ****   
 724:Drivers/STM32F4xx_StdPeriph_Driver/src/stm32f4xx_ltdc.c ****   /* Reconfigures the horizontal and vertical stop position */
 725:Drivers/STM32F4xx_StdPeriph_Driver/src/stm32f4xx_ltdc.c ****   /* Get the number of byte per pixel */
 726:Drivers/STM32F4xx_StdPeriph_Driver/src/stm32f4xx_ltdc.c ****   
 727:Drivers/STM32F4xx_StdPeriph_Driver/src/stm32f4xx_ltdc.c ****   tempreg = LTDC_Layerx->PFCR;
 1273              		.loc 1 727 3 is_stmt 1 view .LVU442
 1274              		.loc 1 727 11 is_stmt 0 view .LVU443
 1275 0022 0469     		ldr	r4, [r0, #16]
 1276              	.LVL61:
 728:Drivers/STM32F4xx_StdPeriph_Driver/src/stm32f4xx_ltdc.c ****   
 729:Drivers/STM32F4xx_StdPeriph_Driver/src/stm32f4xx_ltdc.c ****   if (tempreg == LTDC_Pixelformat_ARGB8888)
 1277              		.loc 1 729 3 is_stmt 1 view .LVU444
 1278              		.loc 1 729 6 is_stmt 0 view .LVU445
 1279 0024 6CB1     		cbz	r4, .L64
 730:Drivers/STM32F4xx_StdPeriph_Driver/src/stm32f4xx_ltdc.c ****   {
 731:Drivers/STM32F4xx_StdPeriph_Driver/src/stm32f4xx_ltdc.c ****     temp = 4;
 732:Drivers/STM32F4xx_StdPeriph_Driver/src/stm32f4xx_ltdc.c ****   }
 733:Drivers/STM32F4xx_StdPeriph_Driver/src/stm32f4xx_ltdc.c ****   else if (tempreg == LTDC_Pixelformat_RGB888)
 1280              		.loc 1 733 8 is_stmt 1 view .LVU446
 1281              		.loc 1 733 11 is_stmt 0 view .LVU447
 1282 0026 012C     		cmp	r4, #1
 1283 0028 23D0     		beq	.L65
 734:Drivers/STM32F4xx_StdPeriph_Driver/src/stm32f4xx_ltdc.c ****   {
 735:Drivers/STM32F4xx_StdPeriph_Driver/src/stm32f4xx_ltdc.c ****     temp = 3;
 736:Drivers/STM32F4xx_StdPeriph_Driver/src/stm32f4xx_ltdc.c ****   }
 737:Drivers/STM32F4xx_StdPeriph_Driver/src/stm32f4xx_ltdc.c ****   else if ((tempreg == LTDC_Pixelformat_ARGB4444) || 
 1284              		.loc 1 737 8 is_stmt 1 view .LVU448
 1285              		.loc 1 737 11 is_stmt 0 view .LVU449
 1286 002a 042C     		cmp	r4, #4
 1287 002c 23D0     		beq	.L66
ARM GAS  /tmp/ccGHW3gB.s 			page 36


 1288              		.loc 1 737 51 discriminator 1 view .LVU450
 1289 002e 022C     		cmp	r4, #2
 1290 0030 08D0     		beq	.L63
 738:Drivers/STM32F4xx_StdPeriph_Driver/src/stm32f4xx_ltdc.c ****           (tempreg == LTDC_Pixelformat_RGB565)    ||  
 1291              		.loc 1 738 51 view .LVU451
 1292 0032 032C     		cmp	r4, #3
 1293 0034 21D0     		beq	.L67
 739:Drivers/STM32F4xx_StdPeriph_Driver/src/stm32f4xx_ltdc.c ****           (tempreg == LTDC_Pixelformat_ARGB1555)  ||
 1294              		.loc 1 739 51 view .LVU452
 1295 0036 072C     		cmp	r4, #7
 1296 0038 01D0     		beq	.L70
 740:Drivers/STM32F4xx_StdPeriph_Driver/src/stm32f4xx_ltdc.c ****           (tempreg == LTDC_Pixelformat_AL88))
 741:Drivers/STM32F4xx_StdPeriph_Driver/src/stm32f4xx_ltdc.c ****   {
 742:Drivers/STM32F4xx_StdPeriph_Driver/src/stm32f4xx_ltdc.c ****     temp = 2;  
 743:Drivers/STM32F4xx_StdPeriph_Driver/src/stm32f4xx_ltdc.c ****   }
 744:Drivers/STM32F4xx_StdPeriph_Driver/src/stm32f4xx_ltdc.c ****   else
 745:Drivers/STM32F4xx_StdPeriph_Driver/src/stm32f4xx_ltdc.c ****   {
 746:Drivers/STM32F4xx_StdPeriph_Driver/src/stm32f4xx_ltdc.c ****     temp = 1;
 1297              		.loc 1 746 10 view .LVU453
 1298 003a 0124     		movs	r4, #1
 1299              	.LVL62:
 1300              		.loc 1 746 10 view .LVU454
 1301 003c 02E0     		b	.L63
 1302              	.LVL63:
 1303              	.L70:
 742:Drivers/STM32F4xx_StdPeriph_Driver/src/stm32f4xx_ltdc.c ****   }
 1304              		.loc 1 742 10 view .LVU455
 1305 003e 0224     		movs	r4, #2
 1306              	.LVL64:
 742:Drivers/STM32F4xx_StdPeriph_Driver/src/stm32f4xx_ltdc.c ****   }
 1307              		.loc 1 742 10 view .LVU456
 1308 0040 00E0     		b	.L63
 1309              	.LVL65:
 1310              	.L64:
 731:Drivers/STM32F4xx_StdPeriph_Driver/src/stm32f4xx_ltdc.c ****   }
 1311              		.loc 1 731 10 view .LVU457
 1312 0042 0424     		movs	r4, #4
 1313              	.LVL66:
 1314              	.L63:
 747:Drivers/STM32F4xx_StdPeriph_Driver/src/stm32f4xx_ltdc.c ****   }  
 748:Drivers/STM32F4xx_StdPeriph_Driver/src/stm32f4xx_ltdc.c ****     
 749:Drivers/STM32F4xx_StdPeriph_Driver/src/stm32f4xx_ltdc.c ****   tempreg = LTDC_Layerx->CFBLR;
 1315              		.loc 1 749 3 is_stmt 1 view .LVU458
 1316              		.loc 1 749 11 is_stmt 0 view .LVU459
 1317 0044 C36A     		ldr	r3, [r0, #44]
 1318              	.LVL67:
 750:Drivers/STM32F4xx_StdPeriph_Driver/src/stm32f4xx_ltdc.c ****   horizontal_stop = (((tempreg & 0x1FFF) - 3)/temp) + horizontal_start - 1;
 1319              		.loc 1 750 3 is_stmt 1 view .LVU460
 1320              		.loc 1 750 32 is_stmt 0 view .LVU461
 1321 0046 C3F30C03 		ubfx	r3, r3, #0, #13
 1322              	.LVL68:
 1323              		.loc 1 750 42 view .LVU462
 1324 004a 033B     		subs	r3, r3, #3
 1325              		.loc 1 750 46 view .LVU463
 1326 004c B3FBF4F3 		udiv	r3, r3, r4
 1327              		.loc 1 750 53 view .LVU464
 1328 0050 0B44     		add	r3, r3, r1
ARM GAS  /tmp/ccGHW3gB.s 			page 37


 1329              		.loc 1 750 19 view .LVU465
 1330 0052 013B     		subs	r3, r3, #1
 1331              	.LVL69:
 751:Drivers/STM32F4xx_StdPeriph_Driver/src/stm32f4xx_ltdc.c ****   
 752:Drivers/STM32F4xx_StdPeriph_Driver/src/stm32f4xx_ltdc.c ****   tempreg = LTDC_Layerx->CFBLNR;
 1332              		.loc 1 752 3 is_stmt 1 view .LVU466
 1333              		.loc 1 752 11 is_stmt 0 view .LVU467
 1334 0054 046B     		ldr	r4, [r0, #48]
 1335              	.LVL70:
 753:Drivers/STM32F4xx_StdPeriph_Driver/src/stm32f4xx_ltdc.c ****   vertical_stop = (tempreg & 0x7FF) + vertical_start - 1;  
 1336              		.loc 1 753 3 is_stmt 1 view .LVU468
 1337              		.loc 1 753 28 is_stmt 0 view .LVU469
 1338 0056 C4F30A0C 		ubfx	ip, r4, #0, #11
 1339              		.loc 1 753 37 view .LVU470
 1340 005a 9444     		add	ip, ip, r2
 1341              		.loc 1 753 17 view .LVU471
 1342 005c 0CF1FF3C 		add	ip, ip, #-1
 1343              	.LVL71:
 754:Drivers/STM32F4xx_StdPeriph_Driver/src/stm32f4xx_ltdc.c ****   
 755:Drivers/STM32F4xx_StdPeriph_Driver/src/stm32f4xx_ltdc.c ****   LTDC_Layerx->WHPCR = horizontal_start | (horizontal_stop << 16);
 1344              		.loc 1 755 3 is_stmt 1 view .LVU472
 1345              		.loc 1 755 41 is_stmt 0 view .LVU473
 1346 0060 41EA0341 		orr	r1, r1, r3, lsl #16
 1347              	.LVL72:
 1348              		.loc 1 755 22 view .LVU474
 1349 0064 4160     		str	r1, [r0, #4]
 756:Drivers/STM32F4xx_StdPeriph_Driver/src/stm32f4xx_ltdc.c ****   LTDC_Layerx->WVPCR = vertical_start | (vertical_stop << 16);  
 1350              		.loc 1 756 3 is_stmt 1 view .LVU475
 1351              		.loc 1 756 39 is_stmt 0 view .LVU476
 1352 0066 42EA0C42 		orr	r2, r2, ip, lsl #16
 1353              	.LVL73:
 1354              		.loc 1 756 22 view .LVU477
 1355 006a 8260     		str	r2, [r0, #8]
 757:Drivers/STM32F4xx_StdPeriph_Driver/src/stm32f4xx_ltdc.c **** }
 1356              		.loc 1 757 1 view .LVU478
 1357 006c 5DF8044B 		ldr	r4, [sp], #4
 1358              		.cfi_remember_state
 1359              		.cfi_restore 4
 1360              		.cfi_def_cfa_offset 0
 1361              	.LVL74:
 1362              		.loc 1 757 1 view .LVU479
 1363 0070 7047     		bx	lr
 1364              	.LVL75:
 1365              	.L65:
 1366              		.cfi_restore_state
 735:Drivers/STM32F4xx_StdPeriph_Driver/src/stm32f4xx_ltdc.c ****   }
 1367              		.loc 1 735 10 view .LVU480
 1368 0072 0324     		movs	r4, #3
 1369              	.LVL76:
 735:Drivers/STM32F4xx_StdPeriph_Driver/src/stm32f4xx_ltdc.c ****   }
 1370              		.loc 1 735 10 view .LVU481
 1371 0074 E6E7     		b	.L63
 1372              	.LVL77:
 1373              	.L66:
 742:Drivers/STM32F4xx_StdPeriph_Driver/src/stm32f4xx_ltdc.c ****   }
 1374              		.loc 1 742 10 view .LVU482
 1375 0076 0224     		movs	r4, #2
ARM GAS  /tmp/ccGHW3gB.s 			page 38


 1376              	.LVL78:
 742:Drivers/STM32F4xx_StdPeriph_Driver/src/stm32f4xx_ltdc.c ****   }
 1377              		.loc 1 742 10 view .LVU483
 1378 0078 E4E7     		b	.L63
 1379              	.LVL79:
 1380              	.L67:
 742:Drivers/STM32F4xx_StdPeriph_Driver/src/stm32f4xx_ltdc.c ****   }
 1381              		.loc 1 742 10 view .LVU484
 1382 007a 0224     		movs	r4, #2
 1383              	.LVL80:
 742:Drivers/STM32F4xx_StdPeriph_Driver/src/stm32f4xx_ltdc.c ****   }
 1384              		.loc 1 742 10 view .LVU485
 1385 007c E2E7     		b	.L63
 1386              	.L72:
 1387 007e 00BF     		.align	2
 1388              	.L71:
 1389 0080 00680140 		.word	1073833984
 1390              		.cfi_endproc
 1391              	.LFE143:
 1393              		.section	.text.LTDC_LayerAlpha,"ax",%progbits
 1394              		.align	1
 1395              		.global	LTDC_LayerAlpha
 1396              		.syntax unified
 1397              		.thumb
 1398              		.thumb_func
 1400              	LTDC_LayerAlpha:
 1401              	.LVL81:
 1402              	.LFB144:
 758:Drivers/STM32F4xx_StdPeriph_Driver/src/stm32f4xx_ltdc.c ****   
 759:Drivers/STM32F4xx_StdPeriph_Driver/src/stm32f4xx_ltdc.c **** /**
 760:Drivers/STM32F4xx_StdPeriph_Driver/src/stm32f4xx_ltdc.c ****   * @brief  reconfigure constant alpha.
 761:Drivers/STM32F4xx_StdPeriph_Driver/src/stm32f4xx_ltdc.c ****   * @param  ConstantAlpha: constant alpha value.
 762:Drivers/STM32F4xx_StdPeriph_Driver/src/stm32f4xx_ltdc.c ****   * @param  LTDC_layerx: Select the layer to be configured, this parameter can be 
 763:Drivers/STM32F4xx_StdPeriph_Driver/src/stm32f4xx_ltdc.c ****   *         one of the following values: LTDC_Layer1, LTDC_Layer2    
 764:Drivers/STM32F4xx_StdPeriph_Driver/src/stm32f4xx_ltdc.c ****   * @retval Reload of the shadow registers values must be applied after constant 
 765:Drivers/STM32F4xx_StdPeriph_Driver/src/stm32f4xx_ltdc.c ****   *         alpha reconfiguration.         
 766:Drivers/STM32F4xx_StdPeriph_Driver/src/stm32f4xx_ltdc.c ****   */
 767:Drivers/STM32F4xx_StdPeriph_Driver/src/stm32f4xx_ltdc.c **** 
 768:Drivers/STM32F4xx_StdPeriph_Driver/src/stm32f4xx_ltdc.c **** void LTDC_LayerAlpha(LTDC_Layer_TypeDef* LTDC_Layerx, uint8_t ConstantAlpha)
 769:Drivers/STM32F4xx_StdPeriph_Driver/src/stm32f4xx_ltdc.c **** {  
 1403              		.loc 1 769 1 is_stmt 1 view -0
 1404              		.cfi_startproc
 1405              		@ args = 0, pretend = 0, frame = 0
 1406              		@ frame_needed = 0, uses_anonymous_args = 0
 1407              		@ link register save eliminated.
 770:Drivers/STM32F4xx_StdPeriph_Driver/src/stm32f4xx_ltdc.c ****   /* reconfigure the constant alpha value */      
 771:Drivers/STM32F4xx_StdPeriph_Driver/src/stm32f4xx_ltdc.c ****   LTDC_Layerx->CACR = ConstantAlpha;
 1408              		.loc 1 771 3 view .LVU487
 1409              		.loc 1 771 21 is_stmt 0 view .LVU488
 1410 0000 4161     		str	r1, [r0, #20]
 772:Drivers/STM32F4xx_StdPeriph_Driver/src/stm32f4xx_ltdc.c **** }
 1411              		.loc 1 772 1 view .LVU489
 1412 0002 7047     		bx	lr
 1413              		.cfi_endproc
 1414              	.LFE144:
 1416              		.section	.text.LTDC_LayerAddress,"ax",%progbits
 1417              		.align	1
ARM GAS  /tmp/ccGHW3gB.s 			page 39


 1418              		.global	LTDC_LayerAddress
 1419              		.syntax unified
 1420              		.thumb
 1421              		.thumb_func
 1423              	LTDC_LayerAddress:
 1424              	.LVL82:
 1425              	.LFB145:
 773:Drivers/STM32F4xx_StdPeriph_Driver/src/stm32f4xx_ltdc.c **** 
 774:Drivers/STM32F4xx_StdPeriph_Driver/src/stm32f4xx_ltdc.c **** /**
 775:Drivers/STM32F4xx_StdPeriph_Driver/src/stm32f4xx_ltdc.c ****   * @brief  reconfigure layer address.
 776:Drivers/STM32F4xx_StdPeriph_Driver/src/stm32f4xx_ltdc.c ****   * @param  Address: The color frame buffer start address.
 777:Drivers/STM32F4xx_StdPeriph_Driver/src/stm32f4xx_ltdc.c ****   * @param  LTDC_layerx: Select the layer to be configured, this parameter can be 
 778:Drivers/STM32F4xx_StdPeriph_Driver/src/stm32f4xx_ltdc.c ****   *         one of the following values: LTDC_Layer1, LTDC_Layer2     
 779:Drivers/STM32F4xx_StdPeriph_Driver/src/stm32f4xx_ltdc.c ****   * @retval Reload of the shadow registers values must be applied after layer 
 780:Drivers/STM32F4xx_StdPeriph_Driver/src/stm32f4xx_ltdc.c ****   *         address reconfiguration.
 781:Drivers/STM32F4xx_StdPeriph_Driver/src/stm32f4xx_ltdc.c ****   */
 782:Drivers/STM32F4xx_StdPeriph_Driver/src/stm32f4xx_ltdc.c **** 
 783:Drivers/STM32F4xx_StdPeriph_Driver/src/stm32f4xx_ltdc.c **** void LTDC_LayerAddress(LTDC_Layer_TypeDef* LTDC_Layerx, uint32_t Address)
 784:Drivers/STM32F4xx_StdPeriph_Driver/src/stm32f4xx_ltdc.c **** {
 1426              		.loc 1 784 1 is_stmt 1 view -0
 1427              		.cfi_startproc
 1428              		@ args = 0, pretend = 0, frame = 0
 1429              		@ frame_needed = 0, uses_anonymous_args = 0
 1430              		@ link register save eliminated.
 785:Drivers/STM32F4xx_StdPeriph_Driver/src/stm32f4xx_ltdc.c ****   /* Reconfigures the color frame buffer start address */
 786:Drivers/STM32F4xx_StdPeriph_Driver/src/stm32f4xx_ltdc.c ****   LTDC_Layerx->CFBAR = Address;
 1431              		.loc 1 786 3 view .LVU491
 1432              		.loc 1 786 22 is_stmt 0 view .LVU492
 1433 0000 8162     		str	r1, [r0, #40]
 787:Drivers/STM32F4xx_StdPeriph_Driver/src/stm32f4xx_ltdc.c **** }
 1434              		.loc 1 787 1 view .LVU493
 1435 0002 7047     		bx	lr
 1436              		.cfi_endproc
 1437              	.LFE145:
 1439              		.section	.text.LTDC_LayerSize,"ax",%progbits
 1440              		.align	1
 1441              		.global	LTDC_LayerSize
 1442              		.syntax unified
 1443              		.thumb
 1444              		.thumb_func
 1446              	LTDC_LayerSize:
 1447              	.LVL83:
 1448              	.LFB146:
 788:Drivers/STM32F4xx_StdPeriph_Driver/src/stm32f4xx_ltdc.c ****   
 789:Drivers/STM32F4xx_StdPeriph_Driver/src/stm32f4xx_ltdc.c **** /**
 790:Drivers/STM32F4xx_StdPeriph_Driver/src/stm32f4xx_ltdc.c ****   * @brief  reconfigure layer size.
 791:Drivers/STM32F4xx_StdPeriph_Driver/src/stm32f4xx_ltdc.c ****   * @param  Width: layer window width.
 792:Drivers/STM32F4xx_StdPeriph_Driver/src/stm32f4xx_ltdc.c ****   * @param  Height: layer window height.   
 793:Drivers/STM32F4xx_StdPeriph_Driver/src/stm32f4xx_ltdc.c ****   * @param  LTDC_layerx: Select the layer to be configured, this parameter can be 
 794:Drivers/STM32F4xx_StdPeriph_Driver/src/stm32f4xx_ltdc.c ****   *         one of the following values: LTDC_Layer1, LTDC_Layer2   
 795:Drivers/STM32F4xx_StdPeriph_Driver/src/stm32f4xx_ltdc.c ****   * @retval Reload of the shadow registers values must be applied after layer 
 796:Drivers/STM32F4xx_StdPeriph_Driver/src/stm32f4xx_ltdc.c ****   *         size reconfiguration.
 797:Drivers/STM32F4xx_StdPeriph_Driver/src/stm32f4xx_ltdc.c ****   */
 798:Drivers/STM32F4xx_StdPeriph_Driver/src/stm32f4xx_ltdc.c **** 
 799:Drivers/STM32F4xx_StdPeriph_Driver/src/stm32f4xx_ltdc.c **** void LTDC_LayerSize(LTDC_Layer_TypeDef* LTDC_Layerx, uint32_t Width, uint32_t Height)
 800:Drivers/STM32F4xx_StdPeriph_Driver/src/stm32f4xx_ltdc.c **** {
 1449              		.loc 1 800 1 is_stmt 1 view -0
ARM GAS  /tmp/ccGHW3gB.s 			page 40


 1450              		.cfi_startproc
 1451              		@ args = 0, pretend = 0, frame = 0
 1452              		@ frame_needed = 0, uses_anonymous_args = 0
 1453              		.loc 1 800 1 is_stmt 0 view .LVU495
 1454 0000 30B5     		push	{r4, r5, lr}
 1455              		.cfi_def_cfa_offset 12
 1456              		.cfi_offset 4, -12
 1457              		.cfi_offset 5, -8
 1458              		.cfi_offset 14, -4
 801:Drivers/STM32F4xx_StdPeriph_Driver/src/stm32f4xx_ltdc.c **** 
 802:Drivers/STM32F4xx_StdPeriph_Driver/src/stm32f4xx_ltdc.c ****   uint8_t temp;
 1459              		.loc 1 802 3 is_stmt 1 view .LVU496
 803:Drivers/STM32F4xx_StdPeriph_Driver/src/stm32f4xx_ltdc.c ****   uint32_t tempreg;
 1460              		.loc 1 803 3 view .LVU497
 804:Drivers/STM32F4xx_StdPeriph_Driver/src/stm32f4xx_ltdc.c ****   uint32_t horizontal_start;
 1461              		.loc 1 804 3 view .LVU498
 805:Drivers/STM32F4xx_StdPeriph_Driver/src/stm32f4xx_ltdc.c ****   uint32_t horizontal_stop;
 1462              		.loc 1 805 3 view .LVU499
 806:Drivers/STM32F4xx_StdPeriph_Driver/src/stm32f4xx_ltdc.c ****   uint32_t vertical_start;
 1463              		.loc 1 806 3 view .LVU500
 807:Drivers/STM32F4xx_StdPeriph_Driver/src/stm32f4xx_ltdc.c ****   uint32_t vertical_stop;  
 1464              		.loc 1 807 3 view .LVU501
 808:Drivers/STM32F4xx_StdPeriph_Driver/src/stm32f4xx_ltdc.c ****   
 809:Drivers/STM32F4xx_StdPeriph_Driver/src/stm32f4xx_ltdc.c ****   tempreg = LTDC_Layerx->PFCR;
 1465              		.loc 1 809 3 view .LVU502
 1466              		.loc 1 809 11 is_stmt 0 view .LVU503
 1467 0002 0369     		ldr	r3, [r0, #16]
 1468              	.LVL84:
 810:Drivers/STM32F4xx_StdPeriph_Driver/src/stm32f4xx_ltdc.c ****   
 811:Drivers/STM32F4xx_StdPeriph_Driver/src/stm32f4xx_ltdc.c ****   if (tempreg == LTDC_Pixelformat_ARGB8888)
 1469              		.loc 1 811 3 is_stmt 1 view .LVU504
 1470              		.loc 1 811 6 is_stmt 0 view .LVU505
 1471 0004 7BB1     		cbz	r3, .L77
 812:Drivers/STM32F4xx_StdPeriph_Driver/src/stm32f4xx_ltdc.c ****   {
 813:Drivers/STM32F4xx_StdPeriph_Driver/src/stm32f4xx_ltdc.c ****     temp = 4;
 814:Drivers/STM32F4xx_StdPeriph_Driver/src/stm32f4xx_ltdc.c ****   }
 815:Drivers/STM32F4xx_StdPeriph_Driver/src/stm32f4xx_ltdc.c ****   else if (tempreg == LTDC_Pixelformat_RGB888)
 1472              		.loc 1 815 8 is_stmt 1 view .LVU506
 1473              		.loc 1 815 11 is_stmt 0 view .LVU507
 1474 0006 012B     		cmp	r3, #1
 1475 0008 28D0     		beq	.L78
 816:Drivers/STM32F4xx_StdPeriph_Driver/src/stm32f4xx_ltdc.c ****   {
 817:Drivers/STM32F4xx_StdPeriph_Driver/src/stm32f4xx_ltdc.c ****     temp = 3;
 818:Drivers/STM32F4xx_StdPeriph_Driver/src/stm32f4xx_ltdc.c ****   }
 819:Drivers/STM32F4xx_StdPeriph_Driver/src/stm32f4xx_ltdc.c ****   else if ((tempreg == LTDC_Pixelformat_ARGB4444) || \
 1476              		.loc 1 819 8 is_stmt 1 view .LVU508
 1477              		.loc 1 819 11 is_stmt 0 view .LVU509
 1478 000a 042B     		cmp	r3, #4
 1479 000c 29D0     		beq	.L79
 1480              		.loc 1 819 51 discriminator 1 view .LVU510
 1481 000e 022B     		cmp	r3, #2
 1482 0010 2AD0     		beq	.L80
 820:Drivers/STM32F4xx_StdPeriph_Driver/src/stm32f4xx_ltdc.c ****           (tempreg == LTDC_Pixelformat_RGB565)    || \
 1483              		.loc 1 820 51 view .LVU511
 1484 0012 032B     		cmp	r3, #3
 1485 0014 2BD0     		beq	.L81
 821:Drivers/STM32F4xx_StdPeriph_Driver/src/stm32f4xx_ltdc.c ****           (tempreg == LTDC_Pixelformat_ARGB1555)  || \
ARM GAS  /tmp/ccGHW3gB.s 			page 41


 1486              		.loc 1 821 51 view .LVU512
 1487 0016 072B     		cmp	r3, #7
 1488 0018 02D0     		beq	.L84
 822:Drivers/STM32F4xx_StdPeriph_Driver/src/stm32f4xx_ltdc.c ****           (tempreg == LTDC_Pixelformat_AL88))
 823:Drivers/STM32F4xx_StdPeriph_Driver/src/stm32f4xx_ltdc.c ****   {
 824:Drivers/STM32F4xx_StdPeriph_Driver/src/stm32f4xx_ltdc.c ****     temp = 2;  
 825:Drivers/STM32F4xx_StdPeriph_Driver/src/stm32f4xx_ltdc.c ****   }
 826:Drivers/STM32F4xx_StdPeriph_Driver/src/stm32f4xx_ltdc.c ****   else
 827:Drivers/STM32F4xx_StdPeriph_Driver/src/stm32f4xx_ltdc.c ****   {
 828:Drivers/STM32F4xx_StdPeriph_Driver/src/stm32f4xx_ltdc.c ****     temp = 1;
 1489              		.loc 1 828 10 view .LVU513
 1490 001a 4FF0010E 		mov	lr, #1
 1491 001e 04E0     		b	.L76
 1492              	.L84:
 824:Drivers/STM32F4xx_StdPeriph_Driver/src/stm32f4xx_ltdc.c ****   }
 1493              		.loc 1 824 10 view .LVU514
 1494 0020 4FF0020E 		mov	lr, #2
 1495 0024 01E0     		b	.L76
 1496              	.L77:
 813:Drivers/STM32F4xx_StdPeriph_Driver/src/stm32f4xx_ltdc.c ****   }
 1497              		.loc 1 813 10 view .LVU515
 1498 0026 4FF0040E 		mov	lr, #4
 1499              	.L76:
 1500              	.LVL85:
 829:Drivers/STM32F4xx_StdPeriph_Driver/src/stm32f4xx_ltdc.c ****   }
 830:Drivers/STM32F4xx_StdPeriph_Driver/src/stm32f4xx_ltdc.c **** 
 831:Drivers/STM32F4xx_StdPeriph_Driver/src/stm32f4xx_ltdc.c ****   /* update horizontal and vertical stop */
 832:Drivers/STM32F4xx_StdPeriph_Driver/src/stm32f4xx_ltdc.c ****   tempreg = LTDC_Layerx->WHPCR;
 1501              		.loc 1 832 3 is_stmt 1 view .LVU516
 1502              		.loc 1 832 11 is_stmt 0 view .LVU517
 1503 002a 4368     		ldr	r3, [r0, #4]
 1504              	.LVL86:
 833:Drivers/STM32F4xx_StdPeriph_Driver/src/stm32f4xx_ltdc.c ****   horizontal_start = (tempreg & 0x1FFF);
 1505              		.loc 1 833 3 is_stmt 1 view .LVU518
 1506              		.loc 1 833 20 is_stmt 0 view .LVU519
 1507 002c C3F30C0C 		ubfx	ip, r3, #0, #13
 1508              	.LVL87:
 834:Drivers/STM32F4xx_StdPeriph_Driver/src/stm32f4xx_ltdc.c ****   horizontal_stop = Width + horizontal_start - 1;  
 1509              		.loc 1 834 3 is_stmt 1 view .LVU520
 1510              		.loc 1 834 27 is_stmt 0 view .LVU521
 1511 0030 0CEB0104 		add	r4, ip, r1
 1512              		.loc 1 834 19 view .LVU522
 1513 0034 013C     		subs	r4, r4, #1
 1514              	.LVL88:
 835:Drivers/STM32F4xx_StdPeriph_Driver/src/stm32f4xx_ltdc.c **** 
 836:Drivers/STM32F4xx_StdPeriph_Driver/src/stm32f4xx_ltdc.c ****   tempreg = LTDC_Layerx->WVPCR;
 1515              		.loc 1 836 3 is_stmt 1 view .LVU523
 1516              		.loc 1 836 11 is_stmt 0 view .LVU524
 1517 0036 8368     		ldr	r3, [r0, #8]
 1518              	.LVL89:
 837:Drivers/STM32F4xx_StdPeriph_Driver/src/stm32f4xx_ltdc.c ****   vertical_start = (tempreg & 0x1FFF);
 1519              		.loc 1 837 3 is_stmt 1 view .LVU525
 1520              		.loc 1 837 18 is_stmt 0 view .LVU526
 1521 0038 C3F30C03 		ubfx	r3, r3, #0, #13
 1522              	.LVL90:
 838:Drivers/STM32F4xx_StdPeriph_Driver/src/stm32f4xx_ltdc.c ****   vertical_stop = Height + vertical_start - 1;  
 1523              		.loc 1 838 3 is_stmt 1 view .LVU527
ARM GAS  /tmp/ccGHW3gB.s 			page 42


 1524              		.loc 1 838 26 is_stmt 0 view .LVU528
 1525 003c 9D18     		adds	r5, r3, r2
 1526              		.loc 1 838 17 view .LVU529
 1527 003e 013D     		subs	r5, r5, #1
 1528              	.LVL91:
 839:Drivers/STM32F4xx_StdPeriph_Driver/src/stm32f4xx_ltdc.c ****   
 840:Drivers/STM32F4xx_StdPeriph_Driver/src/stm32f4xx_ltdc.c ****   LTDC_Layerx->WHPCR = horizontal_start | (horizontal_stop << 16);
 1529              		.loc 1 840 3 is_stmt 1 view .LVU530
 1530              		.loc 1 840 41 is_stmt 0 view .LVU531
 1531 0040 4CEA0444 		orr	r4, ip, r4, lsl #16
 1532              	.LVL92:
 1533              		.loc 1 840 22 view .LVU532
 1534 0044 4460     		str	r4, [r0, #4]
 841:Drivers/STM32F4xx_StdPeriph_Driver/src/stm32f4xx_ltdc.c ****   LTDC_Layerx->WVPCR = vertical_start | (vertical_stop << 16);  
 1535              		.loc 1 841 3 is_stmt 1 view .LVU533
 1536              		.loc 1 841 39 is_stmt 0 view .LVU534
 1537 0046 43EA0543 		orr	r3, r3, r5, lsl #16
 1538              	.LVL93:
 1539              		.loc 1 841 22 view .LVU535
 1540 004a 8360     		str	r3, [r0, #8]
 842:Drivers/STM32F4xx_StdPeriph_Driver/src/stm32f4xx_ltdc.c **** 
 843:Drivers/STM32F4xx_StdPeriph_Driver/src/stm32f4xx_ltdc.c ****   /* Reconfigures the color frame buffer pitch in byte */
 844:Drivers/STM32F4xx_StdPeriph_Driver/src/stm32f4xx_ltdc.c ****   LTDC_Layerx->CFBLR  = ((Width * temp) << 16) | ((Width * temp) + 3);  
 1541              		.loc 1 844 3 is_stmt 1 view .LVU536
 1542              		.loc 1 844 33 is_stmt 0 view .LVU537
 1543 004c 01FB0EF1 		mul	r1, r1, lr
 1544              	.LVL94:
 1545              		.loc 1 844 66 view .LVU538
 1546 0050 CB1C     		adds	r3, r1, #3
 1547              		.loc 1 844 48 view .LVU539
 1548 0052 43EA0141 		orr	r1, r3, r1, lsl #16
 1549              		.loc 1 844 23 view .LVU540
 1550 0056 C162     		str	r1, [r0, #44]
 845:Drivers/STM32F4xx_StdPeriph_Driver/src/stm32f4xx_ltdc.c **** 
 846:Drivers/STM32F4xx_StdPeriph_Driver/src/stm32f4xx_ltdc.c ****   /* Reconfigures the frame buffer line number */
 847:Drivers/STM32F4xx_StdPeriph_Driver/src/stm32f4xx_ltdc.c ****   LTDC_Layerx->CFBLNR  = Height;  
 1551              		.loc 1 847 3 is_stmt 1 view .LVU541
 1552              		.loc 1 847 24 is_stmt 0 view .LVU542
 1553 0058 0263     		str	r2, [r0, #48]
 848:Drivers/STM32F4xx_StdPeriph_Driver/src/stm32f4xx_ltdc.c ****   
 849:Drivers/STM32F4xx_StdPeriph_Driver/src/stm32f4xx_ltdc.c **** }
 1554              		.loc 1 849 1 view .LVU543
 1555 005a 30BD     		pop	{r4, r5, pc}
 1556              	.LVL95:
 1557              	.L78:
 817:Drivers/STM32F4xx_StdPeriph_Driver/src/stm32f4xx_ltdc.c ****   }
 1558              		.loc 1 817 10 view .LVU544
 1559 005c 4FF0030E 		mov	lr, #3
 1560 0060 E3E7     		b	.L76
 1561              	.L79:
 824:Drivers/STM32F4xx_StdPeriph_Driver/src/stm32f4xx_ltdc.c ****   }
 1562              		.loc 1 824 10 view .LVU545
 1563 0062 4FF0020E 		mov	lr, #2
 1564 0066 E0E7     		b	.L76
 1565              	.L80:
 1566 0068 4FF0020E 		mov	lr, #2
 1567 006c DDE7     		b	.L76
ARM GAS  /tmp/ccGHW3gB.s 			page 43


 1568              	.L81:
 1569 006e 4FF0020E 		mov	lr, #2
 1570 0072 DAE7     		b	.L76
 1571              		.cfi_endproc
 1572              	.LFE146:
 1574              		.section	.text.LTDC_LayerPixelFormat,"ax",%progbits
 1575              		.align	1
 1576              		.global	LTDC_LayerPixelFormat
 1577              		.syntax unified
 1578              		.thumb
 1579              		.thumb_func
 1581              	LTDC_LayerPixelFormat:
 1582              	.LVL96:
 1583              	.LFB147:
 850:Drivers/STM32F4xx_StdPeriph_Driver/src/stm32f4xx_ltdc.c **** 
 851:Drivers/STM32F4xx_StdPeriph_Driver/src/stm32f4xx_ltdc.c **** /**
 852:Drivers/STM32F4xx_StdPeriph_Driver/src/stm32f4xx_ltdc.c ****   * @brief  reconfigure layer pixel format.
 853:Drivers/STM32F4xx_StdPeriph_Driver/src/stm32f4xx_ltdc.c ****   * @param  PixelFormat: reconfigure the pixel format, this parameter can be 
 854:Drivers/STM32F4xx_StdPeriph_Driver/src/stm32f4xx_ltdc.c ****   *         one of the following values:@ref LTDC_Pixelformat.   
 855:Drivers/STM32F4xx_StdPeriph_Driver/src/stm32f4xx_ltdc.c ****   * @param  LTDC_layerx: Select the layer to be configured, this parameter can be 
 856:Drivers/STM32F4xx_StdPeriph_Driver/src/stm32f4xx_ltdc.c ****   *         one of the following values: LTDC_Layer1, LTDC_Layer2   
 857:Drivers/STM32F4xx_StdPeriph_Driver/src/stm32f4xx_ltdc.c ****   * @retval Reload of the shadow registers values must be applied after layer 
 858:Drivers/STM32F4xx_StdPeriph_Driver/src/stm32f4xx_ltdc.c ****   *         pixel format reconfiguration.
 859:Drivers/STM32F4xx_StdPeriph_Driver/src/stm32f4xx_ltdc.c ****   */
 860:Drivers/STM32F4xx_StdPeriph_Driver/src/stm32f4xx_ltdc.c **** 
 861:Drivers/STM32F4xx_StdPeriph_Driver/src/stm32f4xx_ltdc.c **** void LTDC_LayerPixelFormat(LTDC_Layer_TypeDef* LTDC_Layerx, uint32_t PixelFormat)
 862:Drivers/STM32F4xx_StdPeriph_Driver/src/stm32f4xx_ltdc.c **** {
 1584              		.loc 1 862 1 is_stmt 1 view -0
 1585              		.cfi_startproc
 1586              		@ args = 0, pretend = 0, frame = 0
 1587              		@ frame_needed = 0, uses_anonymous_args = 0
 1588              		@ link register save eliminated.
 863:Drivers/STM32F4xx_StdPeriph_Driver/src/stm32f4xx_ltdc.c **** 
 864:Drivers/STM32F4xx_StdPeriph_Driver/src/stm32f4xx_ltdc.c ****   uint8_t temp;
 1589              		.loc 1 864 3 view .LVU547
 865:Drivers/STM32F4xx_StdPeriph_Driver/src/stm32f4xx_ltdc.c ****   uint32_t tempreg;
 1590              		.loc 1 865 3 view .LVU548
 866:Drivers/STM32F4xx_StdPeriph_Driver/src/stm32f4xx_ltdc.c ****   
 867:Drivers/STM32F4xx_StdPeriph_Driver/src/stm32f4xx_ltdc.c ****   tempreg = LTDC_Layerx->PFCR;
 1591              		.loc 1 867 3 view .LVU549
 1592              		.loc 1 867 11 is_stmt 0 view .LVU550
 1593 0000 0369     		ldr	r3, [r0, #16]
 1594              	.LVL97:
 868:Drivers/STM32F4xx_StdPeriph_Driver/src/stm32f4xx_ltdc.c ****   
 869:Drivers/STM32F4xx_StdPeriph_Driver/src/stm32f4xx_ltdc.c ****   if (tempreg == LTDC_Pixelformat_ARGB8888)
 1595              		.loc 1 869 3 is_stmt 1 view .LVU551
 1596              		.loc 1 869 6 is_stmt 0 view .LVU552
 1597 0002 6BB1     		cbz	r3, .L88
 870:Drivers/STM32F4xx_StdPeriph_Driver/src/stm32f4xx_ltdc.c ****   {
 871:Drivers/STM32F4xx_StdPeriph_Driver/src/stm32f4xx_ltdc.c ****     temp = 4;
 872:Drivers/STM32F4xx_StdPeriph_Driver/src/stm32f4xx_ltdc.c ****   }
 873:Drivers/STM32F4xx_StdPeriph_Driver/src/stm32f4xx_ltdc.c ****   else if (tempreg == LTDC_Pixelformat_RGB888)
 1598              		.loc 1 873 8 is_stmt 1 view .LVU553
 1599              		.loc 1 873 11 is_stmt 0 view .LVU554
 1600 0004 012B     		cmp	r3, #1
 1601 0006 1DD0     		beq	.L89
 874:Drivers/STM32F4xx_StdPeriph_Driver/src/stm32f4xx_ltdc.c ****   {
ARM GAS  /tmp/ccGHW3gB.s 			page 44


 875:Drivers/STM32F4xx_StdPeriph_Driver/src/stm32f4xx_ltdc.c ****     temp = 3;
 876:Drivers/STM32F4xx_StdPeriph_Driver/src/stm32f4xx_ltdc.c ****   }
 877:Drivers/STM32F4xx_StdPeriph_Driver/src/stm32f4xx_ltdc.c ****   else if ((tempreg == LTDC_Pixelformat_ARGB4444) || \
 1602              		.loc 1 877 8 is_stmt 1 view .LVU555
 1603              		.loc 1 877 11 is_stmt 0 view .LVU556
 1604 0008 042B     		cmp	r3, #4
 1605 000a 1DD0     		beq	.L90
 1606              		.loc 1 877 51 discriminator 1 view .LVU557
 1607 000c 022B     		cmp	r3, #2
 1608 000e 1DD0     		beq	.L91
 878:Drivers/STM32F4xx_StdPeriph_Driver/src/stm32f4xx_ltdc.c ****           (tempreg == LTDC_Pixelformat_RGB565)    || \
 1609              		.loc 1 878 51 view .LVU558
 1610 0010 032B     		cmp	r3, #3
 1611 0012 1DD0     		beq	.L92
 879:Drivers/STM32F4xx_StdPeriph_Driver/src/stm32f4xx_ltdc.c ****           (tempreg == LTDC_Pixelformat_ARGB1555)  || \
 1612              		.loc 1 879 51 view .LVU559
 1613 0014 072B     		cmp	r3, #7
 1614 0016 01D0     		beq	.L100
 880:Drivers/STM32F4xx_StdPeriph_Driver/src/stm32f4xx_ltdc.c ****           (tempreg == LTDC_Pixelformat_AL88))  
 881:Drivers/STM32F4xx_StdPeriph_Driver/src/stm32f4xx_ltdc.c ****   {
 882:Drivers/STM32F4xx_StdPeriph_Driver/src/stm32f4xx_ltdc.c ****     temp = 2;  
 883:Drivers/STM32F4xx_StdPeriph_Driver/src/stm32f4xx_ltdc.c ****   }
 884:Drivers/STM32F4xx_StdPeriph_Driver/src/stm32f4xx_ltdc.c ****   else
 885:Drivers/STM32F4xx_StdPeriph_Driver/src/stm32f4xx_ltdc.c ****   {
 886:Drivers/STM32F4xx_StdPeriph_Driver/src/stm32f4xx_ltdc.c ****     temp = 1;
 1615              		.loc 1 886 10 view .LVU560
 1616 0018 0122     		movs	r2, #1
 1617 001a 02E0     		b	.L86
 1618              	.L100:
 882:Drivers/STM32F4xx_StdPeriph_Driver/src/stm32f4xx_ltdc.c ****   }
 1619              		.loc 1 882 10 view .LVU561
 1620 001c 0222     		movs	r2, #2
 1621 001e 00E0     		b	.L86
 1622              	.L88:
 871:Drivers/STM32F4xx_StdPeriph_Driver/src/stm32f4xx_ltdc.c ****   }
 1623              		.loc 1 871 10 view .LVU562
 1624 0020 0422     		movs	r2, #4
 1625              	.L86:
 1626              	.LVL98:
 887:Drivers/STM32F4xx_StdPeriph_Driver/src/stm32f4xx_ltdc.c ****   }
 888:Drivers/STM32F4xx_StdPeriph_Driver/src/stm32f4xx_ltdc.c ****   
 889:Drivers/STM32F4xx_StdPeriph_Driver/src/stm32f4xx_ltdc.c ****   tempreg = (LTDC_Layerx->CFBLR >> 16);
 1627              		.loc 1 889 3 is_stmt 1 view .LVU563
 1628              		.loc 1 889 25 is_stmt 0 view .LVU564
 1629 0022 C36A     		ldr	r3, [r0, #44]
 1630              	.LVL99:
 1631              		.loc 1 889 11 view .LVU565
 1632 0024 1B0C     		lsrs	r3, r3, #16
 1633              	.LVL100:
 890:Drivers/STM32F4xx_StdPeriph_Driver/src/stm32f4xx_ltdc.c ****   tempreg = (tempreg / temp); 
 1634              		.loc 1 890 3 is_stmt 1 view .LVU566
 1635              		.loc 1 890 11 is_stmt 0 view .LVU567
 1636 0026 B3FBF2F3 		udiv	r3, r3, r2
 1637              	.LVL101:
 891:Drivers/STM32F4xx_StdPeriph_Driver/src/stm32f4xx_ltdc.c ****   
 892:Drivers/STM32F4xx_StdPeriph_Driver/src/stm32f4xx_ltdc.c ****   if (PixelFormat == LTDC_Pixelformat_ARGB8888)
 1638              		.loc 1 892 3 is_stmt 1 view .LVU568
ARM GAS  /tmp/ccGHW3gB.s 			page 45


 1639              		.loc 1 892 6 is_stmt 0 view .LVU569
 1640 002a A9B1     		cbz	r1, .L94
 893:Drivers/STM32F4xx_StdPeriph_Driver/src/stm32f4xx_ltdc.c ****   {
 894:Drivers/STM32F4xx_StdPeriph_Driver/src/stm32f4xx_ltdc.c ****     temp = 4;
 895:Drivers/STM32F4xx_StdPeriph_Driver/src/stm32f4xx_ltdc.c ****   }
 896:Drivers/STM32F4xx_StdPeriph_Driver/src/stm32f4xx_ltdc.c ****   else if (PixelFormat == LTDC_Pixelformat_RGB888)
 1641              		.loc 1 896 8 is_stmt 1 view .LVU570
 1642              		.loc 1 896 11 is_stmt 0 view .LVU571
 1643 002c 0129     		cmp	r1, #1
 1644 002e 1CD0     		beq	.L95
 897:Drivers/STM32F4xx_StdPeriph_Driver/src/stm32f4xx_ltdc.c ****   {
 898:Drivers/STM32F4xx_StdPeriph_Driver/src/stm32f4xx_ltdc.c ****     temp = 3;
 899:Drivers/STM32F4xx_StdPeriph_Driver/src/stm32f4xx_ltdc.c ****   }
 900:Drivers/STM32F4xx_StdPeriph_Driver/src/stm32f4xx_ltdc.c ****   else if ((PixelFormat == LTDC_Pixelformat_ARGB4444) || \
 1645              		.loc 1 900 8 is_stmt 1 view .LVU572
 1646              		.loc 1 900 11 is_stmt 0 view .LVU573
 1647 0030 0429     		cmp	r1, #4
 1648 0032 1CD0     		beq	.L96
 1649              		.loc 1 900 55 discriminator 1 view .LVU574
 1650 0034 0229     		cmp	r1, #2
 1651 0036 1CD0     		beq	.L97
 901:Drivers/STM32F4xx_StdPeriph_Driver/src/stm32f4xx_ltdc.c ****           (PixelFormat == LTDC_Pixelformat_RGB565)    || \
 1652              		.loc 1 901 55 view .LVU575
 1653 0038 0329     		cmp	r1, #3
 1654 003a 1CD0     		beq	.L98
 902:Drivers/STM32F4xx_StdPeriph_Driver/src/stm32f4xx_ltdc.c ****           (PixelFormat == LTDC_Pixelformat_ARGB1555)  || \
 1655              		.loc 1 902 55 view .LVU576
 1656 003c 0729     		cmp	r1, #7
 1657 003e 09D0     		beq	.L101
 903:Drivers/STM32F4xx_StdPeriph_Driver/src/stm32f4xx_ltdc.c ****           (PixelFormat == LTDC_Pixelformat_AL88))
 904:Drivers/STM32F4xx_StdPeriph_Driver/src/stm32f4xx_ltdc.c ****   {
 905:Drivers/STM32F4xx_StdPeriph_Driver/src/stm32f4xx_ltdc.c ****     temp = 2;  
 906:Drivers/STM32F4xx_StdPeriph_Driver/src/stm32f4xx_ltdc.c ****   }
 907:Drivers/STM32F4xx_StdPeriph_Driver/src/stm32f4xx_ltdc.c ****   else
 908:Drivers/STM32F4xx_StdPeriph_Driver/src/stm32f4xx_ltdc.c ****   {
 909:Drivers/STM32F4xx_StdPeriph_Driver/src/stm32f4xx_ltdc.c ****     temp = 1;
 1658              		.loc 1 909 10 view .LVU577
 1659 0040 0122     		movs	r2, #1
 1660              	.LVL102:
 1661              		.loc 1 909 10 view .LVU578
 1662 0042 0AE0     		b	.L87
 1663              	.L89:
 875:Drivers/STM32F4xx_StdPeriph_Driver/src/stm32f4xx_ltdc.c ****   }
 1664              		.loc 1 875 10 view .LVU579
 1665 0044 0322     		movs	r2, #3
 1666 0046 ECE7     		b	.L86
 1667              	.L90:
 882:Drivers/STM32F4xx_StdPeriph_Driver/src/stm32f4xx_ltdc.c ****   }
 1668              		.loc 1 882 10 view .LVU580
 1669 0048 0222     		movs	r2, #2
 1670 004a EAE7     		b	.L86
 1671              	.L91:
 1672 004c 0222     		movs	r2, #2
 1673 004e E8E7     		b	.L86
 1674              	.L92:
 1675 0050 0222     		movs	r2, #2
 1676 0052 E6E7     		b	.L86
ARM GAS  /tmp/ccGHW3gB.s 			page 46


 1677              	.LVL103:
 1678              	.L101:
 905:Drivers/STM32F4xx_StdPeriph_Driver/src/stm32f4xx_ltdc.c ****   }
 1679              		.loc 1 905 10 view .LVU581
 1680 0054 0222     		movs	r2, #2
 1681              	.LVL104:
 905:Drivers/STM32F4xx_StdPeriph_Driver/src/stm32f4xx_ltdc.c ****   }
 1682              		.loc 1 905 10 view .LVU582
 1683 0056 00E0     		b	.L87
 1684              	.LVL105:
 1685              	.L94:
 894:Drivers/STM32F4xx_StdPeriph_Driver/src/stm32f4xx_ltdc.c ****   }
 1686              		.loc 1 894 10 view .LVU583
 1687 0058 0422     		movs	r2, #4
 1688              	.LVL106:
 1689              	.L87:
 910:Drivers/STM32F4xx_StdPeriph_Driver/src/stm32f4xx_ltdc.c ****   }
 911:Drivers/STM32F4xx_StdPeriph_Driver/src/stm32f4xx_ltdc.c ****   
 912:Drivers/STM32F4xx_StdPeriph_Driver/src/stm32f4xx_ltdc.c ****   /* Reconfigures the color frame buffer pitch in byte */
 913:Drivers/STM32F4xx_StdPeriph_Driver/src/stm32f4xx_ltdc.c ****   LTDC_Layerx->CFBLR  = ((tempreg * temp) << 16) | ((tempreg * temp) + 3);  
 1690              		.loc 1 913 3 is_stmt 1 view .LVU584
 1691              		.loc 1 913 35 is_stmt 0 view .LVU585
 1692 005a 02FB03F3 		mul	r3, r2, r3
 1693              	.LVL107:
 1694              		.loc 1 913 70 view .LVU586
 1695 005e DA1C     		adds	r2, r3, #3
 1696              	.LVL108:
 1697              		.loc 1 913 50 view .LVU587
 1698 0060 42EA0343 		orr	r3, r2, r3, lsl #16
 1699              		.loc 1 913 23 view .LVU588
 1700 0064 C362     		str	r3, [r0, #44]
 914:Drivers/STM32F4xx_StdPeriph_Driver/src/stm32f4xx_ltdc.c **** 
 915:Drivers/STM32F4xx_StdPeriph_Driver/src/stm32f4xx_ltdc.c ****   /* Reconfigures the color frame buffer start address */
 916:Drivers/STM32F4xx_StdPeriph_Driver/src/stm32f4xx_ltdc.c ****   LTDC_Layerx->PFCR = PixelFormat;
 1701              		.loc 1 916 3 is_stmt 1 view .LVU589
 1702              		.loc 1 916 21 is_stmt 0 view .LVU590
 1703 0066 0161     		str	r1, [r0, #16]
 917:Drivers/STM32F4xx_StdPeriph_Driver/src/stm32f4xx_ltdc.c ****     
 918:Drivers/STM32F4xx_StdPeriph_Driver/src/stm32f4xx_ltdc.c **** }
 1704              		.loc 1 918 1 view .LVU591
 1705 0068 7047     		bx	lr
 1706              	.LVL109:
 1707              	.L95:
 898:Drivers/STM32F4xx_StdPeriph_Driver/src/stm32f4xx_ltdc.c ****   }
 1708              		.loc 1 898 10 view .LVU592
 1709 006a 0322     		movs	r2, #3
 1710              	.LVL110:
 898:Drivers/STM32F4xx_StdPeriph_Driver/src/stm32f4xx_ltdc.c ****   }
 1711              		.loc 1 898 10 view .LVU593
 1712 006c F5E7     		b	.L87
 1713              	.LVL111:
 1714              	.L96:
 905:Drivers/STM32F4xx_StdPeriph_Driver/src/stm32f4xx_ltdc.c ****   }
 1715              		.loc 1 905 10 view .LVU594
 1716 006e 0222     		movs	r2, #2
 1717              	.LVL112:
 905:Drivers/STM32F4xx_StdPeriph_Driver/src/stm32f4xx_ltdc.c ****   }
ARM GAS  /tmp/ccGHW3gB.s 			page 47


 1718              		.loc 1 905 10 view .LVU595
 1719 0070 F3E7     		b	.L87
 1720              	.LVL113:
 1721              	.L97:
 905:Drivers/STM32F4xx_StdPeriph_Driver/src/stm32f4xx_ltdc.c ****   }
 1722              		.loc 1 905 10 view .LVU596
 1723 0072 0222     		movs	r2, #2
 1724              	.LVL114:
 905:Drivers/STM32F4xx_StdPeriph_Driver/src/stm32f4xx_ltdc.c ****   }
 1725              		.loc 1 905 10 view .LVU597
 1726 0074 F1E7     		b	.L87
 1727              	.LVL115:
 1728              	.L98:
 905:Drivers/STM32F4xx_StdPeriph_Driver/src/stm32f4xx_ltdc.c ****   }
 1729              		.loc 1 905 10 view .LVU598
 1730 0076 0222     		movs	r2, #2
 1731              	.LVL116:
 905:Drivers/STM32F4xx_StdPeriph_Driver/src/stm32f4xx_ltdc.c ****   }
 1732              		.loc 1 905 10 view .LVU599
 1733 0078 EFE7     		b	.L87
 1734              		.cfi_endproc
 1735              	.LFE147:
 1737              		.section	.text.LTDC_ITConfig,"ax",%progbits
 1738              		.align	1
 1739              		.global	LTDC_ITConfig
 1740              		.syntax unified
 1741              		.thumb
 1742              		.thumb_func
 1744              	LTDC_ITConfig:
 1745              	.LVL117:
 1746              	.LFB148:
 919:Drivers/STM32F4xx_StdPeriph_Driver/src/stm32f4xx_ltdc.c ****     
 920:Drivers/STM32F4xx_StdPeriph_Driver/src/stm32f4xx_ltdc.c **** /**
 921:Drivers/STM32F4xx_StdPeriph_Driver/src/stm32f4xx_ltdc.c ****   * @}
 922:Drivers/STM32F4xx_StdPeriph_Driver/src/stm32f4xx_ltdc.c ****   */
 923:Drivers/STM32F4xx_StdPeriph_Driver/src/stm32f4xx_ltdc.c **** 
 924:Drivers/STM32F4xx_StdPeriph_Driver/src/stm32f4xx_ltdc.c **** /** @defgroup LTDC_Group2 Interrupts and flags management functions
 925:Drivers/STM32F4xx_StdPeriph_Driver/src/stm32f4xx_ltdc.c ****  *  @brief   Interrupts and flags management functions
 926:Drivers/STM32F4xx_StdPeriph_Driver/src/stm32f4xx_ltdc.c ****  *
 927:Drivers/STM32F4xx_StdPeriph_Driver/src/stm32f4xx_ltdc.c **** @verbatim
 928:Drivers/STM32F4xx_StdPeriph_Driver/src/stm32f4xx_ltdc.c ****  ===============================================================================
 929:Drivers/STM32F4xx_StdPeriph_Driver/src/stm32f4xx_ltdc.c ****             ##### Interrupts and flags management functions #####
 930:Drivers/STM32F4xx_StdPeriph_Driver/src/stm32f4xx_ltdc.c ****  ===============================================================================
 931:Drivers/STM32F4xx_StdPeriph_Driver/src/stm32f4xx_ltdc.c **** 
 932:Drivers/STM32F4xx_StdPeriph_Driver/src/stm32f4xx_ltdc.c ****     [..] This section provides functions allowing to configure the LTDC Interrupts 
 933:Drivers/STM32F4xx_StdPeriph_Driver/src/stm32f4xx_ltdc.c ****          and to get the status and clear flags and Interrupts pending bits.
 934:Drivers/STM32F4xx_StdPeriph_Driver/src/stm32f4xx_ltdc.c ****   
 935:Drivers/STM32F4xx_StdPeriph_Driver/src/stm32f4xx_ltdc.c ****     [..] The LTDC provides 4 Interrupts sources and 4 Flags
 936:Drivers/STM32F4xx_StdPeriph_Driver/src/stm32f4xx_ltdc.c ****     
 937:Drivers/STM32F4xx_StdPeriph_Driver/src/stm32f4xx_ltdc.c ****     *** Flags ***
 938:Drivers/STM32F4xx_StdPeriph_Driver/src/stm32f4xx_ltdc.c ****     =============
 939:Drivers/STM32F4xx_StdPeriph_Driver/src/stm32f4xx_ltdc.c ****     [..]
 940:Drivers/STM32F4xx_StdPeriph_Driver/src/stm32f4xx_ltdc.c ****       (+) LTDC_FLAG_LI:   Line Interrupt flag.
 941:Drivers/STM32F4xx_StdPeriph_Driver/src/stm32f4xx_ltdc.c ****       (+) LTDC_FLAG_FU:   FIFO Underrun Interrupt flag.
 942:Drivers/STM32F4xx_StdPeriph_Driver/src/stm32f4xx_ltdc.c ****       (+) LTDC_FLAG_TERR: Transfer Error Interrupt flag.
 943:Drivers/STM32F4xx_StdPeriph_Driver/src/stm32f4xx_ltdc.c ****       (+) LTDC_FLAG_RR:   Register Reload interrupt flag.
 944:Drivers/STM32F4xx_StdPeriph_Driver/src/stm32f4xx_ltdc.c ****       
ARM GAS  /tmp/ccGHW3gB.s 			page 48


 945:Drivers/STM32F4xx_StdPeriph_Driver/src/stm32f4xx_ltdc.c ****     *** Interrupts ***
 946:Drivers/STM32F4xx_StdPeriph_Driver/src/stm32f4xx_ltdc.c ****     ==================
 947:Drivers/STM32F4xx_StdPeriph_Driver/src/stm32f4xx_ltdc.c ****     [..]
 948:Drivers/STM32F4xx_StdPeriph_Driver/src/stm32f4xx_ltdc.c ****       (+) LTDC_IT_LI: Line Interrupt is generated when a programmed line 
 949:Drivers/STM32F4xx_StdPeriph_Driver/src/stm32f4xx_ltdc.c ****                       is reached. The line interrupt position is programmed in 
 950:Drivers/STM32F4xx_StdPeriph_Driver/src/stm32f4xx_ltdc.c ****                       the LTDC_LIPR register.
 951:Drivers/STM32F4xx_StdPeriph_Driver/src/stm32f4xx_ltdc.c ****       (+) LTDC_IT_FU: FIFO Underrun interrupt is generated when a pixel is requested 
 952:Drivers/STM32F4xx_StdPeriph_Driver/src/stm32f4xx_ltdc.c ****                       from an empty layer FIFO
 953:Drivers/STM32F4xx_StdPeriph_Driver/src/stm32f4xx_ltdc.c ****       (+) LTDC_IT_TERR: Transfer Error interrupt is generated when an AHB bus 
 954:Drivers/STM32F4xx_StdPeriph_Driver/src/stm32f4xx_ltdc.c ****                         error occurs during data transfer.
 955:Drivers/STM32F4xx_StdPeriph_Driver/src/stm32f4xx_ltdc.c ****       (+) LTDC_IT_RR: Register Reload interrupt is generated when the shadow 
 956:Drivers/STM32F4xx_StdPeriph_Driver/src/stm32f4xx_ltdc.c ****                       registers reload was performed during the vertical blanking 
 957:Drivers/STM32F4xx_StdPeriph_Driver/src/stm32f4xx_ltdc.c ****                       period.
 958:Drivers/STM32F4xx_StdPeriph_Driver/src/stm32f4xx_ltdc.c ****                
 959:Drivers/STM32F4xx_StdPeriph_Driver/src/stm32f4xx_ltdc.c **** @endverbatim
 960:Drivers/STM32F4xx_StdPeriph_Driver/src/stm32f4xx_ltdc.c ****   * @{
 961:Drivers/STM32F4xx_StdPeriph_Driver/src/stm32f4xx_ltdc.c ****   */
 962:Drivers/STM32F4xx_StdPeriph_Driver/src/stm32f4xx_ltdc.c **** 
 963:Drivers/STM32F4xx_StdPeriph_Driver/src/stm32f4xx_ltdc.c **** /**
 964:Drivers/STM32F4xx_StdPeriph_Driver/src/stm32f4xx_ltdc.c ****   * @brief  Enables or disables the specified LTDC's interrupts.
 965:Drivers/STM32F4xx_StdPeriph_Driver/src/stm32f4xx_ltdc.c ****   * @param  LTDC_IT: specifies the LTDC interrupts sources to be enabled or disabled.
 966:Drivers/STM32F4xx_StdPeriph_Driver/src/stm32f4xx_ltdc.c ****   *   This parameter can be any combination of the following values:
 967:Drivers/STM32F4xx_StdPeriph_Driver/src/stm32f4xx_ltdc.c ****   *     @arg LTDC_IT_LI: Line Interrupt Enable.
 968:Drivers/STM32F4xx_StdPeriph_Driver/src/stm32f4xx_ltdc.c ****   *     @arg LTDC_IT_FU: FIFO Underrun Interrupt Enable.
 969:Drivers/STM32F4xx_StdPeriph_Driver/src/stm32f4xx_ltdc.c ****   *     @arg LTDC_IT_TERR: Transfer Error Interrupt Enable.
 970:Drivers/STM32F4xx_StdPeriph_Driver/src/stm32f4xx_ltdc.c ****   *     @arg LTDC_IT_RR: Register Reload interrupt enable.  
 971:Drivers/STM32F4xx_StdPeriph_Driver/src/stm32f4xx_ltdc.c ****   * @param NewState: new state of the specified LTDC interrupts.
 972:Drivers/STM32F4xx_StdPeriph_Driver/src/stm32f4xx_ltdc.c ****   *   This parameter can be: ENABLE or DISABLE.
 973:Drivers/STM32F4xx_StdPeriph_Driver/src/stm32f4xx_ltdc.c ****   * @retval None
 974:Drivers/STM32F4xx_StdPeriph_Driver/src/stm32f4xx_ltdc.c ****   */
 975:Drivers/STM32F4xx_StdPeriph_Driver/src/stm32f4xx_ltdc.c **** void LTDC_ITConfig(uint32_t LTDC_IT, FunctionalState NewState)
 976:Drivers/STM32F4xx_StdPeriph_Driver/src/stm32f4xx_ltdc.c **** {
 1747              		.loc 1 976 1 is_stmt 1 view -0
 1748              		.cfi_startproc
 1749              		@ args = 0, pretend = 0, frame = 0
 1750              		@ frame_needed = 0, uses_anonymous_args = 0
 1751              		@ link register save eliminated.
 977:Drivers/STM32F4xx_StdPeriph_Driver/src/stm32f4xx_ltdc.c ****   /* Check the parameters */
 978:Drivers/STM32F4xx_StdPeriph_Driver/src/stm32f4xx_ltdc.c ****   assert_param(IS_LTDC_IT(LTDC_IT));
 1752              		.loc 1 978 3 view .LVU601
 979:Drivers/STM32F4xx_StdPeriph_Driver/src/stm32f4xx_ltdc.c ****   assert_param(IS_FUNCTIONAL_STATE(NewState));
 1753              		.loc 1 979 3 view .LVU602
 980:Drivers/STM32F4xx_StdPeriph_Driver/src/stm32f4xx_ltdc.c **** 
 981:Drivers/STM32F4xx_StdPeriph_Driver/src/stm32f4xx_ltdc.c ****   if (NewState != DISABLE)
 1754              		.loc 1 981 3 view .LVU603
 1755              		.loc 1 981 6 is_stmt 0 view .LVU604
 1756 0000 21B1     		cbz	r1, .L103
 982:Drivers/STM32F4xx_StdPeriph_Driver/src/stm32f4xx_ltdc.c ****   {
 983:Drivers/STM32F4xx_StdPeriph_Driver/src/stm32f4xx_ltdc.c ****     LTDC->IER |= LTDC_IT;
 1757              		.loc 1 983 5 is_stmt 1 view .LVU605
 1758              		.loc 1 983 15 is_stmt 0 view .LVU606
 1759 0002 054A     		ldr	r2, .L105
 1760 0004 536B     		ldr	r3, [r2, #52]
 1761 0006 1843     		orrs	r0, r0, r3
 1762              	.LVL118:
 1763              		.loc 1 983 15 view .LVU607
 1764 0008 5063     		str	r0, [r2, #52]
ARM GAS  /tmp/ccGHW3gB.s 			page 49


 1765 000a 7047     		bx	lr
 1766              	.LVL119:
 1767              	.L103:
 984:Drivers/STM32F4xx_StdPeriph_Driver/src/stm32f4xx_ltdc.c ****   }
 985:Drivers/STM32F4xx_StdPeriph_Driver/src/stm32f4xx_ltdc.c ****   else
 986:Drivers/STM32F4xx_StdPeriph_Driver/src/stm32f4xx_ltdc.c ****   {
 987:Drivers/STM32F4xx_StdPeriph_Driver/src/stm32f4xx_ltdc.c ****     LTDC->IER &= (uint32_t)~LTDC_IT;
 1768              		.loc 1 987 5 is_stmt 1 view .LVU608
 1769              		.loc 1 987 15 is_stmt 0 view .LVU609
 1770 000c 024A     		ldr	r2, .L105
 1771 000e 536B     		ldr	r3, [r2, #52]
 1772 0010 23EA0000 		bic	r0, r3, r0
 1773              	.LVL120:
 1774              		.loc 1 987 15 view .LVU610
 1775 0014 5063     		str	r0, [r2, #52]
 988:Drivers/STM32F4xx_StdPeriph_Driver/src/stm32f4xx_ltdc.c ****   }
 989:Drivers/STM32F4xx_StdPeriph_Driver/src/stm32f4xx_ltdc.c **** }
 1776              		.loc 1 989 1 view .LVU611
 1777 0016 7047     		bx	lr
 1778              	.L106:
 1779              		.align	2
 1780              	.L105:
 1781 0018 00680140 		.word	1073833984
 1782              		.cfi_endproc
 1783              	.LFE148:
 1785              		.section	.text.LTDC_GetFlagStatus,"ax",%progbits
 1786              		.align	1
 1787              		.global	LTDC_GetFlagStatus
 1788              		.syntax unified
 1789              		.thumb
 1790              		.thumb_func
 1792              	LTDC_GetFlagStatus:
 1793              	.LVL121:
 1794              	.LFB149:
 990:Drivers/STM32F4xx_StdPeriph_Driver/src/stm32f4xx_ltdc.c **** 
 991:Drivers/STM32F4xx_StdPeriph_Driver/src/stm32f4xx_ltdc.c **** /**
 992:Drivers/STM32F4xx_StdPeriph_Driver/src/stm32f4xx_ltdc.c ****   * @brief  Checks whether the specified LTDC's flag is set or not.
 993:Drivers/STM32F4xx_StdPeriph_Driver/src/stm32f4xx_ltdc.c ****   * @param  LTDC_FLAG: specifies the flag to check.
 994:Drivers/STM32F4xx_StdPeriph_Driver/src/stm32f4xx_ltdc.c ****   *   This parameter can be one of the following values:
 995:Drivers/STM32F4xx_StdPeriph_Driver/src/stm32f4xx_ltdc.c ****   *     @arg LTDC_FLAG_LI:    Line Interrupt flag.
 996:Drivers/STM32F4xx_StdPeriph_Driver/src/stm32f4xx_ltdc.c ****   *     @arg LTDC_FLAG_FU:   FIFO Underrun Interrupt flag.
 997:Drivers/STM32F4xx_StdPeriph_Driver/src/stm32f4xx_ltdc.c ****   *     @arg LTDC_FLAG_TERR: Transfer Error Interrupt flag.
 998:Drivers/STM32F4xx_StdPeriph_Driver/src/stm32f4xx_ltdc.c ****   *     @arg LTDC_FLAG_RR:   Register Reload interrupt flag.
 999:Drivers/STM32F4xx_StdPeriph_Driver/src/stm32f4xx_ltdc.c ****   * @retval The new state of LTDC_FLAG (SET or RESET).
1000:Drivers/STM32F4xx_StdPeriph_Driver/src/stm32f4xx_ltdc.c ****   */
1001:Drivers/STM32F4xx_StdPeriph_Driver/src/stm32f4xx_ltdc.c **** FlagStatus LTDC_GetFlagStatus(uint32_t LTDC_FLAG)
1002:Drivers/STM32F4xx_StdPeriph_Driver/src/stm32f4xx_ltdc.c **** {
 1795              		.loc 1 1002 1 is_stmt 1 view -0
 1796              		.cfi_startproc
 1797              		@ args = 0, pretend = 0, frame = 0
 1798              		@ frame_needed = 0, uses_anonymous_args = 0
 1799              		@ link register save eliminated.
1003:Drivers/STM32F4xx_StdPeriph_Driver/src/stm32f4xx_ltdc.c ****   FlagStatus bitstatus = RESET;
 1800              		.loc 1 1003 3 view .LVU613
1004:Drivers/STM32F4xx_StdPeriph_Driver/src/stm32f4xx_ltdc.c **** 
1005:Drivers/STM32F4xx_StdPeriph_Driver/src/stm32f4xx_ltdc.c ****   /* Check the parameters */
1006:Drivers/STM32F4xx_StdPeriph_Driver/src/stm32f4xx_ltdc.c ****   assert_param(IS_LTDC_FLAG(LTDC_FLAG));
ARM GAS  /tmp/ccGHW3gB.s 			page 50


 1801              		.loc 1 1006 3 view .LVU614
1007:Drivers/STM32F4xx_StdPeriph_Driver/src/stm32f4xx_ltdc.c **** 
1008:Drivers/STM32F4xx_StdPeriph_Driver/src/stm32f4xx_ltdc.c ****   if ((LTDC->ISR & LTDC_FLAG) != (uint32_t)RESET)
 1802              		.loc 1 1008 3 view .LVU615
 1803              		.loc 1 1008 12 is_stmt 0 view .LVU616
 1804 0000 034B     		ldr	r3, .L110
 1805 0002 9B6B     		ldr	r3, [r3, #56]
 1806              		.loc 1 1008 6 view .LVU617
 1807 0004 0342     		tst	r3, r0
 1808 0006 01D0     		beq	.L109
1009:Drivers/STM32F4xx_StdPeriph_Driver/src/stm32f4xx_ltdc.c ****   {
1010:Drivers/STM32F4xx_StdPeriph_Driver/src/stm32f4xx_ltdc.c ****     bitstatus = SET;
 1809              		.loc 1 1010 15 view .LVU618
 1810 0008 0120     		movs	r0, #1
 1811              	.LVL122:
 1812              		.loc 1 1010 15 view .LVU619
 1813 000a 7047     		bx	lr
 1814              	.LVL123:
 1815              	.L109:
1011:Drivers/STM32F4xx_StdPeriph_Driver/src/stm32f4xx_ltdc.c ****   }
1012:Drivers/STM32F4xx_StdPeriph_Driver/src/stm32f4xx_ltdc.c ****   else
1013:Drivers/STM32F4xx_StdPeriph_Driver/src/stm32f4xx_ltdc.c ****   {
1014:Drivers/STM32F4xx_StdPeriph_Driver/src/stm32f4xx_ltdc.c ****     bitstatus = RESET;
 1816              		.loc 1 1014 15 view .LVU620
 1817 000c 0020     		movs	r0, #0
 1818              	.LVL124:
1015:Drivers/STM32F4xx_StdPeriph_Driver/src/stm32f4xx_ltdc.c ****   }
1016:Drivers/STM32F4xx_StdPeriph_Driver/src/stm32f4xx_ltdc.c ****   return bitstatus;
 1819              		.loc 1 1016 3 is_stmt 1 view .LVU621
1017:Drivers/STM32F4xx_StdPeriph_Driver/src/stm32f4xx_ltdc.c **** }
 1820              		.loc 1 1017 1 is_stmt 0 view .LVU622
 1821 000e 7047     		bx	lr
 1822              	.L111:
 1823              		.align	2
 1824              	.L110:
 1825 0010 00680140 		.word	1073833984
 1826              		.cfi_endproc
 1827              	.LFE149:
 1829              		.section	.text.LTDC_ClearFlag,"ax",%progbits
 1830              		.align	1
 1831              		.global	LTDC_ClearFlag
 1832              		.syntax unified
 1833              		.thumb
 1834              		.thumb_func
 1836              	LTDC_ClearFlag:
 1837              	.LVL125:
 1838              	.LFB150:
1018:Drivers/STM32F4xx_StdPeriph_Driver/src/stm32f4xx_ltdc.c **** 
1019:Drivers/STM32F4xx_StdPeriph_Driver/src/stm32f4xx_ltdc.c **** /**
1020:Drivers/STM32F4xx_StdPeriph_Driver/src/stm32f4xx_ltdc.c ****   * @brief  Clears the LTDC's pending flags.
1021:Drivers/STM32F4xx_StdPeriph_Driver/src/stm32f4xx_ltdc.c ****   * @param  LTDC_FLAG: specifies the flag to clear.
1022:Drivers/STM32F4xx_StdPeriph_Driver/src/stm32f4xx_ltdc.c ****   *   This parameter can be any combination of the following values:
1023:Drivers/STM32F4xx_StdPeriph_Driver/src/stm32f4xx_ltdc.c ****   *     @arg LTDC_FLAG_LI:    Line Interrupt flag.
1024:Drivers/STM32F4xx_StdPeriph_Driver/src/stm32f4xx_ltdc.c ****   *     @arg LTDC_FLAG_FU:   FIFO Underrun Interrupt flag.
1025:Drivers/STM32F4xx_StdPeriph_Driver/src/stm32f4xx_ltdc.c ****   *     @arg LTDC_FLAG_TERR: Transfer Error Interrupt flag.
1026:Drivers/STM32F4xx_StdPeriph_Driver/src/stm32f4xx_ltdc.c ****   *     @arg LTDC_FLAG_RR:   Register Reload interrupt flag.  
1027:Drivers/STM32F4xx_StdPeriph_Driver/src/stm32f4xx_ltdc.c ****   * @retval None
ARM GAS  /tmp/ccGHW3gB.s 			page 51


1028:Drivers/STM32F4xx_StdPeriph_Driver/src/stm32f4xx_ltdc.c ****   */
1029:Drivers/STM32F4xx_StdPeriph_Driver/src/stm32f4xx_ltdc.c **** void LTDC_ClearFlag(uint32_t LTDC_FLAG)
1030:Drivers/STM32F4xx_StdPeriph_Driver/src/stm32f4xx_ltdc.c **** {
 1839              		.loc 1 1030 1 is_stmt 1 view -0
 1840              		.cfi_startproc
 1841              		@ args = 0, pretend = 0, frame = 0
 1842              		@ frame_needed = 0, uses_anonymous_args = 0
 1843              		@ link register save eliminated.
1031:Drivers/STM32F4xx_StdPeriph_Driver/src/stm32f4xx_ltdc.c ****   /* Check the parameters */
1032:Drivers/STM32F4xx_StdPeriph_Driver/src/stm32f4xx_ltdc.c ****   assert_param(IS_LTDC_FLAG(LTDC_FLAG));
 1844              		.loc 1 1032 3 view .LVU624
1033:Drivers/STM32F4xx_StdPeriph_Driver/src/stm32f4xx_ltdc.c **** 
1034:Drivers/STM32F4xx_StdPeriph_Driver/src/stm32f4xx_ltdc.c ****   /* Clear the corresponding LTDC flag */
1035:Drivers/STM32F4xx_StdPeriph_Driver/src/stm32f4xx_ltdc.c ****   LTDC->ICR = (uint32_t)LTDC_FLAG;
 1845              		.loc 1 1035 3 view .LVU625
 1846              		.loc 1 1035 13 is_stmt 0 view .LVU626
 1847 0000 014B     		ldr	r3, .L113
 1848 0002 D863     		str	r0, [r3, #60]
1036:Drivers/STM32F4xx_StdPeriph_Driver/src/stm32f4xx_ltdc.c **** }
 1849              		.loc 1 1036 1 view .LVU627
 1850 0004 7047     		bx	lr
 1851              	.L114:
 1852 0006 00BF     		.align	2
 1853              	.L113:
 1854 0008 00680140 		.word	1073833984
 1855              		.cfi_endproc
 1856              	.LFE150:
 1858              		.section	.text.LTDC_GetITStatus,"ax",%progbits
 1859              		.align	1
 1860              		.global	LTDC_GetITStatus
 1861              		.syntax unified
 1862              		.thumb
 1863              		.thumb_func
 1865              	LTDC_GetITStatus:
 1866              	.LVL126:
 1867              	.LFB151:
1037:Drivers/STM32F4xx_StdPeriph_Driver/src/stm32f4xx_ltdc.c **** 
1038:Drivers/STM32F4xx_StdPeriph_Driver/src/stm32f4xx_ltdc.c **** /**
1039:Drivers/STM32F4xx_StdPeriph_Driver/src/stm32f4xx_ltdc.c ****   * @brief  Checks whether the specified LTDC's interrupt has occurred or not.
1040:Drivers/STM32F4xx_StdPeriph_Driver/src/stm32f4xx_ltdc.c ****   * @param  LTDC_IT: specifies the LTDC interrupts sources to check.
1041:Drivers/STM32F4xx_StdPeriph_Driver/src/stm32f4xx_ltdc.c ****   *   This parameter can be one of the following values:
1042:Drivers/STM32F4xx_StdPeriph_Driver/src/stm32f4xx_ltdc.c ****   *     @arg LTDC_IT_LI:    Line Interrupt Enable.
1043:Drivers/STM32F4xx_StdPeriph_Driver/src/stm32f4xx_ltdc.c ****   *     @arg LTDC_IT_FU:   FIFO Underrun Interrupt Enable.
1044:Drivers/STM32F4xx_StdPeriph_Driver/src/stm32f4xx_ltdc.c ****   *     @arg LTDC_IT_TERR: Transfer Error Interrupt Enable.
1045:Drivers/STM32F4xx_StdPeriph_Driver/src/stm32f4xx_ltdc.c ****   *     @arg LTDC_IT_RR:   Register Reload interrupt Enable.
1046:Drivers/STM32F4xx_StdPeriph_Driver/src/stm32f4xx_ltdc.c ****   * @retval The new state of the LTDC_IT (SET or RESET).
1047:Drivers/STM32F4xx_StdPeriph_Driver/src/stm32f4xx_ltdc.c ****   */
1048:Drivers/STM32F4xx_StdPeriph_Driver/src/stm32f4xx_ltdc.c **** ITStatus LTDC_GetITStatus(uint32_t LTDC_IT)
1049:Drivers/STM32F4xx_StdPeriph_Driver/src/stm32f4xx_ltdc.c **** {
 1868              		.loc 1 1049 1 is_stmt 1 view -0
 1869              		.cfi_startproc
 1870              		@ args = 0, pretend = 0, frame = 0
 1871              		@ frame_needed = 0, uses_anonymous_args = 0
 1872              		@ link register save eliminated.
 1873              		.loc 1 1049 1 is_stmt 0 view .LVU629
 1874 0000 0346     		mov	r3, r0
1050:Drivers/STM32F4xx_StdPeriph_Driver/src/stm32f4xx_ltdc.c ****   ITStatus bitstatus = RESET;
ARM GAS  /tmp/ccGHW3gB.s 			page 52


 1875              		.loc 1 1050 3 is_stmt 1 view .LVU630
 1876              	.LVL127:
1051:Drivers/STM32F4xx_StdPeriph_Driver/src/stm32f4xx_ltdc.c **** 
1052:Drivers/STM32F4xx_StdPeriph_Driver/src/stm32f4xx_ltdc.c ****   /* Check the parameters */
1053:Drivers/STM32F4xx_StdPeriph_Driver/src/stm32f4xx_ltdc.c ****   assert_param(IS_LTDC_IT(LTDC_IT));
 1877              		.loc 1 1053 3 view .LVU631
1054:Drivers/STM32F4xx_StdPeriph_Driver/src/stm32f4xx_ltdc.c **** 
1055:Drivers/STM32F4xx_StdPeriph_Driver/src/stm32f4xx_ltdc.c ****   if ((LTDC->ISR & LTDC_IT) != (uint32_t)RESET)
 1878              		.loc 1 1055 3 view .LVU632
 1879              		.loc 1 1055 12 is_stmt 0 view .LVU633
 1880 0002 064A     		ldr	r2, .L120
 1881 0004 926B     		ldr	r2, [r2, #56]
 1882              		.loc 1 1055 6 view .LVU634
 1883 0006 0242     		tst	r2, r0
 1884 0008 06D0     		beq	.L118
1056:Drivers/STM32F4xx_StdPeriph_Driver/src/stm32f4xx_ltdc.c ****   {
1057:Drivers/STM32F4xx_StdPeriph_Driver/src/stm32f4xx_ltdc.c ****     bitstatus = SET;
 1885              		.loc 1 1057 15 view .LVU635
 1886 000a 0120     		movs	r0, #1
 1887              	.LVL128:
 1888              	.L116:
1058:Drivers/STM32F4xx_StdPeriph_Driver/src/stm32f4xx_ltdc.c ****   }
1059:Drivers/STM32F4xx_StdPeriph_Driver/src/stm32f4xx_ltdc.c ****   else
1060:Drivers/STM32F4xx_StdPeriph_Driver/src/stm32f4xx_ltdc.c ****   {
1061:Drivers/STM32F4xx_StdPeriph_Driver/src/stm32f4xx_ltdc.c ****     bitstatus = RESET;
1062:Drivers/STM32F4xx_StdPeriph_Driver/src/stm32f4xx_ltdc.c ****   }
1063:Drivers/STM32F4xx_StdPeriph_Driver/src/stm32f4xx_ltdc.c **** 
1064:Drivers/STM32F4xx_StdPeriph_Driver/src/stm32f4xx_ltdc.c ****   if (((LTDC->IER & LTDC_IT) != (uint32_t)RESET) && (bitstatus != (uint32_t)RESET))
 1889              		.loc 1 1064 3 is_stmt 1 view .LVU636
 1890              		.loc 1 1064 13 is_stmt 0 view .LVU637
 1891 000c 034A     		ldr	r2, .L120
 1892 000e 526B     		ldr	r2, [r2, #52]
 1893              		.loc 1 1064 6 view .LVU638
 1894 0010 1A42     		tst	r2, r3
 1895 0012 00D1     		bne	.L117
1065:Drivers/STM32F4xx_StdPeriph_Driver/src/stm32f4xx_ltdc.c ****   {
1066:Drivers/STM32F4xx_StdPeriph_Driver/src/stm32f4xx_ltdc.c ****     bitstatus = SET;
1067:Drivers/STM32F4xx_StdPeriph_Driver/src/stm32f4xx_ltdc.c ****   }
1068:Drivers/STM32F4xx_StdPeriph_Driver/src/stm32f4xx_ltdc.c ****   else
1069:Drivers/STM32F4xx_StdPeriph_Driver/src/stm32f4xx_ltdc.c ****   {
1070:Drivers/STM32F4xx_StdPeriph_Driver/src/stm32f4xx_ltdc.c ****     bitstatus = RESET;
 1896              		.loc 1 1070 15 view .LVU639
 1897 0014 0020     		movs	r0, #0
 1898              	.LVL129:
 1899              	.L117:
1071:Drivers/STM32F4xx_StdPeriph_Driver/src/stm32f4xx_ltdc.c ****   }
1072:Drivers/STM32F4xx_StdPeriph_Driver/src/stm32f4xx_ltdc.c ****   return bitstatus;
 1900              		.loc 1 1072 3 is_stmt 1 view .LVU640
1073:Drivers/STM32F4xx_StdPeriph_Driver/src/stm32f4xx_ltdc.c **** }
 1901              		.loc 1 1073 1 is_stmt 0 view .LVU641
 1902 0016 7047     		bx	lr
 1903              	.LVL130:
 1904              	.L118:
1061:Drivers/STM32F4xx_StdPeriph_Driver/src/stm32f4xx_ltdc.c ****   }
 1905              		.loc 1 1061 15 view .LVU642
 1906 0018 0020     		movs	r0, #0
 1907              	.LVL131:
ARM GAS  /tmp/ccGHW3gB.s 			page 53


1061:Drivers/STM32F4xx_StdPeriph_Driver/src/stm32f4xx_ltdc.c ****   }
 1908              		.loc 1 1061 15 view .LVU643
 1909 001a F7E7     		b	.L116
 1910              	.L121:
 1911              		.align	2
 1912              	.L120:
 1913 001c 00680140 		.word	1073833984
 1914              		.cfi_endproc
 1915              	.LFE151:
 1917              		.section	.text.LTDC_ClearITPendingBit,"ax",%progbits
 1918              		.align	1
 1919              		.global	LTDC_ClearITPendingBit
 1920              		.syntax unified
 1921              		.thumb
 1922              		.thumb_func
 1924              	LTDC_ClearITPendingBit:
 1925              	.LVL132:
 1926              	.LFB152:
1074:Drivers/STM32F4xx_StdPeriph_Driver/src/stm32f4xx_ltdc.c **** 
1075:Drivers/STM32F4xx_StdPeriph_Driver/src/stm32f4xx_ltdc.c **** 
1076:Drivers/STM32F4xx_StdPeriph_Driver/src/stm32f4xx_ltdc.c **** /**
1077:Drivers/STM32F4xx_StdPeriph_Driver/src/stm32f4xx_ltdc.c ****   * @brief  Clears the LTDC's interrupt pending bits.
1078:Drivers/STM32F4xx_StdPeriph_Driver/src/stm32f4xx_ltdc.c ****   * @param  LTDC_IT: specifies the interrupt pending bit to clear.
1079:Drivers/STM32F4xx_StdPeriph_Driver/src/stm32f4xx_ltdc.c ****   *   This parameter can be any combination of the following values:
1080:Drivers/STM32F4xx_StdPeriph_Driver/src/stm32f4xx_ltdc.c ****   *     @arg LTDC_IT_LIE:    Line Interrupt.
1081:Drivers/STM32F4xx_StdPeriph_Driver/src/stm32f4xx_ltdc.c ****   *     @arg LTDC_IT_FUIE:   FIFO Underrun Interrupt.
1082:Drivers/STM32F4xx_StdPeriph_Driver/src/stm32f4xx_ltdc.c ****   *     @arg LTDC_IT_TERRIE: Transfer Error Interrupt.
1083:Drivers/STM32F4xx_StdPeriph_Driver/src/stm32f4xx_ltdc.c ****   *     @arg LTDC_IT_RRIE:   Register Reload interrupt.
1084:Drivers/STM32F4xx_StdPeriph_Driver/src/stm32f4xx_ltdc.c ****   * @retval None
1085:Drivers/STM32F4xx_StdPeriph_Driver/src/stm32f4xx_ltdc.c ****   */
1086:Drivers/STM32F4xx_StdPeriph_Driver/src/stm32f4xx_ltdc.c **** void LTDC_ClearITPendingBit(uint32_t LTDC_IT)
1087:Drivers/STM32F4xx_StdPeriph_Driver/src/stm32f4xx_ltdc.c **** {
 1927              		.loc 1 1087 1 is_stmt 1 view -0
 1928              		.cfi_startproc
 1929              		@ args = 0, pretend = 0, frame = 0
 1930              		@ frame_needed = 0, uses_anonymous_args = 0
 1931              		@ link register save eliminated.
1088:Drivers/STM32F4xx_StdPeriph_Driver/src/stm32f4xx_ltdc.c ****   /* Check the parameters */
1089:Drivers/STM32F4xx_StdPeriph_Driver/src/stm32f4xx_ltdc.c ****   assert_param(IS_LTDC_IT(LTDC_IT));
 1932              		.loc 1 1089 3 view .LVU645
1090:Drivers/STM32F4xx_StdPeriph_Driver/src/stm32f4xx_ltdc.c **** 
1091:Drivers/STM32F4xx_StdPeriph_Driver/src/stm32f4xx_ltdc.c ****   /* Clear the corresponding LTDC Interrupt */
1092:Drivers/STM32F4xx_StdPeriph_Driver/src/stm32f4xx_ltdc.c ****   LTDC->ICR = (uint32_t)LTDC_IT;
 1933              		.loc 1 1092 3 view .LVU646
 1934              		.loc 1 1092 13 is_stmt 0 view .LVU647
 1935 0000 014B     		ldr	r3, .L123
 1936 0002 D863     		str	r0, [r3, #60]
1093:Drivers/STM32F4xx_StdPeriph_Driver/src/stm32f4xx_ltdc.c **** }
 1937              		.loc 1 1093 1 view .LVU648
 1938 0004 7047     		bx	lr
 1939              	.L124:
 1940 0006 00BF     		.align	2
 1941              	.L123:
 1942 0008 00680140 		.word	1073833984
 1943              		.cfi_endproc
 1944              	.LFE152:
 1946              		.text
ARM GAS  /tmp/ccGHW3gB.s 			page 54


 1947              	.Letext0:
 1948              		.file 2 "/usr/share/gcc-arm-none-eabi-10.3-2021.10/arm-none-eabi/include/machine/_default_types.h"
 1949              		.file 3 "/usr/share/gcc-arm-none-eabi-10.3-2021.10/arm-none-eabi/include/sys/_stdint.h"
 1950              		.file 4 "Drivers/CMSIS/Device/ST/STM32F4xx/Include/stm32f4xx.h"
 1951              		.file 5 "Drivers/STM32F4xx_StdPeriph_Driver/inc/stm32f4xx_ltdc.h"
 1952              		.file 6 "Drivers/STM32F4xx_StdPeriph_Driver/inc/stm32f4xx_rcc.h"
ARM GAS  /tmp/ccGHW3gB.s 			page 55


DEFINED SYMBOLS
                            *ABS*:0000000000000000 stm32f4xx_ltdc.c
     /tmp/ccGHW3gB.s:20     .text.LTDC_DeInit:0000000000000000 $t
     /tmp/ccGHW3gB.s:26     .text.LTDC_DeInit:0000000000000000 LTDC_DeInit
     /tmp/ccGHW3gB.s:53     .text.LTDC_Init:0000000000000000 $t
     /tmp/ccGHW3gB.s:59     .text.LTDC_Init:0000000000000000 LTDC_Init
     /tmp/ccGHW3gB.s:236    .text.LTDC_Init:0000000000000098 $d
     /tmp/ccGHW3gB.s:243    .text.LTDC_StructInit:0000000000000000 $t
     /tmp/ccGHW3gB.s:249    .text.LTDC_StructInit:0000000000000000 LTDC_StructInit
     /tmp/ccGHW3gB.s:309    .text.LTDC_Cmd:0000000000000000 $t
     /tmp/ccGHW3gB.s:315    .text.LTDC_Cmd:0000000000000000 LTDC_Cmd
     /tmp/ccGHW3gB.s:346    .text.LTDC_Cmd:000000000000001c $d
     /tmp/ccGHW3gB.s:351    .text.LTDC_DitherCmd:0000000000000000 $t
     /tmp/ccGHW3gB.s:357    .text.LTDC_DitherCmd:0000000000000000 LTDC_DitherCmd
     /tmp/ccGHW3gB.s:388    .text.LTDC_DitherCmd:000000000000001c $d
     /tmp/ccGHW3gB.s:393    .text.LTDC_GetRGBWidth:0000000000000000 $t
     /tmp/ccGHW3gB.s:399    .text.LTDC_GetRGBWidth:0000000000000000 LTDC_GetRGBWidth
     /tmp/ccGHW3gB.s:449    .text.LTDC_GetRGBWidth:000000000000002c $d
     /tmp/ccGHW3gB.s:455    .text.LTDC_RGBStructInit:0000000000000000 $t
     /tmp/ccGHW3gB.s:461    .text.LTDC_RGBStructInit:0000000000000000 LTDC_RGBStructInit
     /tmp/ccGHW3gB.s:485    .text.LTDC_LIPConfig:0000000000000000 $t
     /tmp/ccGHW3gB.s:491    .text.LTDC_LIPConfig:0000000000000000 LTDC_LIPConfig
     /tmp/ccGHW3gB.s:509    .text.LTDC_LIPConfig:0000000000000008 $d
     /tmp/ccGHW3gB.s:514    .text.LTDC_ReloadConfig:0000000000000000 $t
     /tmp/ccGHW3gB.s:520    .text.LTDC_ReloadConfig:0000000000000000 LTDC_ReloadConfig
     /tmp/ccGHW3gB.s:538    .text.LTDC_ReloadConfig:0000000000000008 $d
     /tmp/ccGHW3gB.s:543    .text.LTDC_LayerInit:0000000000000000 $t
     /tmp/ccGHW3gB.s:549    .text.LTDC_LayerInit:0000000000000000 LTDC_LayerInit
     /tmp/ccGHW3gB.s:729    .text.LTDC_LayerStructInit:0000000000000000 $t
     /tmp/ccGHW3gB.s:735    .text.LTDC_LayerStructInit:0000000000000000 LTDC_LayerStructInit
     /tmp/ccGHW3gB.s:801    .text.LTDC_LayerCmd:0000000000000000 $t
     /tmp/ccGHW3gB.s:807    .text.LTDC_LayerCmd:0000000000000000 LTDC_LayerCmd
     /tmp/ccGHW3gB.s:837    .text.LTDC_GetPosStatus:0000000000000000 $t
     /tmp/ccGHW3gB.s:843    .text.LTDC_GetPosStatus:0000000000000000 LTDC_GetPosStatus
     /tmp/ccGHW3gB.s:878    .text.LTDC_GetPosStatus:0000000000000018 $d
     /tmp/ccGHW3gB.s:883    .text.LTDC_PosStructInit:0000000000000000 $t
     /tmp/ccGHW3gB.s:889    .text.LTDC_PosStructInit:0000000000000000 LTDC_PosStructInit
     /tmp/ccGHW3gB.s:910    .text.LTDC_GetCDStatus:0000000000000000 $t
     /tmp/ccGHW3gB.s:916    .text.LTDC_GetCDStatus:0000000000000000 LTDC_GetCDStatus
     /tmp/ccGHW3gB.s:949    .text.LTDC_GetCDStatus:0000000000000010 $d
     /tmp/ccGHW3gB.s:954    .text.LTDC_ColorKeyingConfig:0000000000000000 $t
     /tmp/ccGHW3gB.s:960    .text.LTDC_ColorKeyingConfig:0000000000000000 LTDC_ColorKeyingConfig
     /tmp/ccGHW3gB.s:1045   .text.LTDC_ColorKeyingConfig:0000000000000044 $d
     /tmp/ccGHW3gB.s:1050   .text.LTDC_ColorKeyingStructInit:0000000000000000 $t
     /tmp/ccGHW3gB.s:1056   .text.LTDC_ColorKeyingStructInit:0000000000000000 LTDC_ColorKeyingStructInit
     /tmp/ccGHW3gB.s:1080   .text.LTDC_CLUTCmd:0000000000000000 $t
     /tmp/ccGHW3gB.s:1086   .text.LTDC_CLUTCmd:0000000000000000 LTDC_CLUTCmd
     /tmp/ccGHW3gB.s:1121   .text.LTDC_CLUTCmd:000000000000001c $d
     /tmp/ccGHW3gB.s:1126   .text.LTDC_CLUTInit:0000000000000000 $t
     /tmp/ccGHW3gB.s:1132   .text.LTDC_CLUTInit:0000000000000000 LTDC_CLUTInit
     /tmp/ccGHW3gB.s:1188   .text.LTDC_CLUTStructInit:0000000000000000 $t
     /tmp/ccGHW3gB.s:1194   .text.LTDC_CLUTStructInit:0000000000000000 LTDC_CLUTStructInit
     /tmp/ccGHW3gB.s:1221   .text.LTDC_LayerPosition:0000000000000000 $t
     /tmp/ccGHW3gB.s:1227   .text.LTDC_LayerPosition:0000000000000000 LTDC_LayerPosition
     /tmp/ccGHW3gB.s:1389   .text.LTDC_LayerPosition:0000000000000080 $d
     /tmp/ccGHW3gB.s:1394   .text.LTDC_LayerAlpha:0000000000000000 $t
     /tmp/ccGHW3gB.s:1400   .text.LTDC_LayerAlpha:0000000000000000 LTDC_LayerAlpha
ARM GAS  /tmp/ccGHW3gB.s 			page 56


     /tmp/ccGHW3gB.s:1417   .text.LTDC_LayerAddress:0000000000000000 $t
     /tmp/ccGHW3gB.s:1423   .text.LTDC_LayerAddress:0000000000000000 LTDC_LayerAddress
     /tmp/ccGHW3gB.s:1440   .text.LTDC_LayerSize:0000000000000000 $t
     /tmp/ccGHW3gB.s:1446   .text.LTDC_LayerSize:0000000000000000 LTDC_LayerSize
     /tmp/ccGHW3gB.s:1575   .text.LTDC_LayerPixelFormat:0000000000000000 $t
     /tmp/ccGHW3gB.s:1581   .text.LTDC_LayerPixelFormat:0000000000000000 LTDC_LayerPixelFormat
     /tmp/ccGHW3gB.s:1738   .text.LTDC_ITConfig:0000000000000000 $t
     /tmp/ccGHW3gB.s:1744   .text.LTDC_ITConfig:0000000000000000 LTDC_ITConfig
     /tmp/ccGHW3gB.s:1781   .text.LTDC_ITConfig:0000000000000018 $d
     /tmp/ccGHW3gB.s:1786   .text.LTDC_GetFlagStatus:0000000000000000 $t
     /tmp/ccGHW3gB.s:1792   .text.LTDC_GetFlagStatus:0000000000000000 LTDC_GetFlagStatus
     /tmp/ccGHW3gB.s:1825   .text.LTDC_GetFlagStatus:0000000000000010 $d
     /tmp/ccGHW3gB.s:1830   .text.LTDC_ClearFlag:0000000000000000 $t
     /tmp/ccGHW3gB.s:1836   .text.LTDC_ClearFlag:0000000000000000 LTDC_ClearFlag
     /tmp/ccGHW3gB.s:1854   .text.LTDC_ClearFlag:0000000000000008 $d
     /tmp/ccGHW3gB.s:1859   .text.LTDC_GetITStatus:0000000000000000 $t
     /tmp/ccGHW3gB.s:1865   .text.LTDC_GetITStatus:0000000000000000 LTDC_GetITStatus
     /tmp/ccGHW3gB.s:1913   .text.LTDC_GetITStatus:000000000000001c $d
     /tmp/ccGHW3gB.s:1918   .text.LTDC_ClearITPendingBit:0000000000000000 $t
     /tmp/ccGHW3gB.s:1924   .text.LTDC_ClearITPendingBit:0000000000000000 LTDC_ClearITPendingBit
     /tmp/ccGHW3gB.s:1942   .text.LTDC_ClearITPendingBit:0000000000000008 $d

UNDEFINED SYMBOLS
RCC_APB2PeriphResetCmd
