ARM GAS  /tmp/cchNbth9.s 			page 1


   1              		.cpu cortex-m4
   2              		.eabi_attribute 27, 1
   3              		.eabi_attribute 28, 1
   4              		.eabi_attribute 20, 1
   5              		.eabi_attribute 21, 1
   6              		.eabi_attribute 23, 3
   7              		.eabi_attribute 24, 1
   8              		.eabi_attribute 25, 1
   9              		.eabi_attribute 26, 1
  10              		.eabi_attribute 30, 1
  11              		.eabi_attribute 34, 1
  12              		.eabi_attribute 18, 4
  13              		.file	"stm32f4xx_dac.c"
  14              		.text
  15              	.Ltext0:
  16              		.cfi_sections	.debug_frame
  17              		.section	.text.DAC_DeInit,"ax",%progbits
  18              		.align	1
  19              		.global	DAC_DeInit
  20              		.arch armv7e-m
  21              		.syntax unified
  22              		.thumb
  23              		.thumb_func
  24              		.fpu fpv4-sp-d16
  26              	DAC_DeInit:
  27              	.LFB123:
  28              		.file 1 "Drivers/STM32F4xx_StdPeriph_Driver/src/stm32f4xx_dac.c"
   1:Drivers/STM32F4xx_StdPeriph_Driver/src/stm32f4xx_dac.c **** /**
   2:Drivers/STM32F4xx_StdPeriph_Driver/src/stm32f4xx_dac.c ****   ******************************************************************************
   3:Drivers/STM32F4xx_StdPeriph_Driver/src/stm32f4xx_dac.c ****   * @file    stm32f4xx_dac.c
   4:Drivers/STM32F4xx_StdPeriph_Driver/src/stm32f4xx_dac.c ****   * @author  MCD Application Team
   5:Drivers/STM32F4xx_StdPeriph_Driver/src/stm32f4xx_dac.c ****   * @version V1.6.1
   6:Drivers/STM32F4xx_StdPeriph_Driver/src/stm32f4xx_dac.c ****   * @date    21-October-2015
   7:Drivers/STM32F4xx_StdPeriph_Driver/src/stm32f4xx_dac.c ****    * @brief   This file provides firmware functions to manage the following 
   8:Drivers/STM32F4xx_StdPeriph_Driver/src/stm32f4xx_dac.c ****   *          functionalities of the Digital-to-Analog Converter (DAC) peripheral: 
   9:Drivers/STM32F4xx_StdPeriph_Driver/src/stm32f4xx_dac.c ****   *           + DAC channels configuration: trigger, output buffer, data format
  10:Drivers/STM32F4xx_StdPeriph_Driver/src/stm32f4xx_dac.c ****   *           + DMA management      
  11:Drivers/STM32F4xx_StdPeriph_Driver/src/stm32f4xx_dac.c ****   *           + Interrupts and flags management
  12:Drivers/STM32F4xx_StdPeriph_Driver/src/stm32f4xx_dac.c ****   *
  13:Drivers/STM32F4xx_StdPeriph_Driver/src/stm32f4xx_dac.c ****  @verbatim      
  14:Drivers/STM32F4xx_StdPeriph_Driver/src/stm32f4xx_dac.c ****  ===============================================================================
  15:Drivers/STM32F4xx_StdPeriph_Driver/src/stm32f4xx_dac.c ****                       ##### DAC Peripheral features #####
  16:Drivers/STM32F4xx_StdPeriph_Driver/src/stm32f4xx_dac.c ****  ===============================================================================
  17:Drivers/STM32F4xx_StdPeriph_Driver/src/stm32f4xx_dac.c ****     [..]        
  18:Drivers/STM32F4xx_StdPeriph_Driver/src/stm32f4xx_dac.c ****       *** DAC Channels ***
  19:Drivers/STM32F4xx_StdPeriph_Driver/src/stm32f4xx_dac.c ****       ====================  
  20:Drivers/STM32F4xx_StdPeriph_Driver/src/stm32f4xx_dac.c ****     [..]  
  21:Drivers/STM32F4xx_StdPeriph_Driver/src/stm32f4xx_dac.c ****     The device integrates two 12-bit Digital Analog Converters that can 
  22:Drivers/STM32F4xx_StdPeriph_Driver/src/stm32f4xx_dac.c ****     be used independently or simultaneously (dual mode):
  23:Drivers/STM32F4xx_StdPeriph_Driver/src/stm32f4xx_dac.c ****       (#) DAC channel1 with DAC_OUT1 (PA4) as output
  24:Drivers/STM32F4xx_StdPeriph_Driver/src/stm32f4xx_dac.c ****       (#) DAC channel2 with DAC_OUT2 (PA5) as output
  25:Drivers/STM32F4xx_StdPeriph_Driver/src/stm32f4xx_dac.c ****   
  26:Drivers/STM32F4xx_StdPeriph_Driver/src/stm32f4xx_dac.c ****       *** DAC Triggers ***
  27:Drivers/STM32F4xx_StdPeriph_Driver/src/stm32f4xx_dac.c ****       ====================
  28:Drivers/STM32F4xx_StdPeriph_Driver/src/stm32f4xx_dac.c ****     [..]
  29:Drivers/STM32F4xx_StdPeriph_Driver/src/stm32f4xx_dac.c ****     Digital to Analog conversion can be non-triggered using DAC_Trigger_None
  30:Drivers/STM32F4xx_StdPeriph_Driver/src/stm32f4xx_dac.c ****     and DAC_OUT1/DAC_OUT2 is available once writing to DHRx register 
ARM GAS  /tmp/cchNbth9.s 			page 2


  31:Drivers/STM32F4xx_StdPeriph_Driver/src/stm32f4xx_dac.c ****     using DAC_SetChannel1Data() / DAC_SetChannel2Data() functions.
  32:Drivers/STM32F4xx_StdPeriph_Driver/src/stm32f4xx_dac.c ****     [..] 
  33:Drivers/STM32F4xx_StdPeriph_Driver/src/stm32f4xx_dac.c ****     Digital to Analog conversion can be triggered by:
  34:Drivers/STM32F4xx_StdPeriph_Driver/src/stm32f4xx_dac.c ****       (#) External event: EXTI Line 9 (any GPIOx_Pin9) using DAC_Trigger_Ext_IT9.
  35:Drivers/STM32F4xx_StdPeriph_Driver/src/stm32f4xx_dac.c ****           The used pin (GPIOx_Pin9) must be configured in input mode.
  36:Drivers/STM32F4xx_StdPeriph_Driver/src/stm32f4xx_dac.c ****   
  37:Drivers/STM32F4xx_StdPeriph_Driver/src/stm32f4xx_dac.c ****       (#) Timers TRGO: TIM2, TIM4, TIM5, TIM6, TIM7 and TIM8 
  38:Drivers/STM32F4xx_StdPeriph_Driver/src/stm32f4xx_dac.c ****           (DAC_Trigger_T2_TRGO, DAC_Trigger_T4_TRGO...)
  39:Drivers/STM32F4xx_StdPeriph_Driver/src/stm32f4xx_dac.c ****           The timer TRGO event should be selected using TIM_SelectOutputTrigger()
  40:Drivers/STM32F4xx_StdPeriph_Driver/src/stm32f4xx_dac.c ****   
  41:Drivers/STM32F4xx_StdPeriph_Driver/src/stm32f4xx_dac.c ****       (#) Software using DAC_Trigger_Software
  42:Drivers/STM32F4xx_StdPeriph_Driver/src/stm32f4xx_dac.c ****   
  43:Drivers/STM32F4xx_StdPeriph_Driver/src/stm32f4xx_dac.c ****       *** DAC Buffer mode feature ***
  44:Drivers/STM32F4xx_StdPeriph_Driver/src/stm32f4xx_dac.c ****       =============================== 
  45:Drivers/STM32F4xx_StdPeriph_Driver/src/stm32f4xx_dac.c ****       [..] 
  46:Drivers/STM32F4xx_StdPeriph_Driver/src/stm32f4xx_dac.c ****       Each DAC channel integrates an output buffer that can be used to 
  47:Drivers/STM32F4xx_StdPeriph_Driver/src/stm32f4xx_dac.c ****       reduce the output impedance, and to drive external loads directly
  48:Drivers/STM32F4xx_StdPeriph_Driver/src/stm32f4xx_dac.c ****       without having to add an external operational amplifier.
  49:Drivers/STM32F4xx_StdPeriph_Driver/src/stm32f4xx_dac.c ****       To enable, the output buffer use  
  50:Drivers/STM32F4xx_StdPeriph_Driver/src/stm32f4xx_dac.c ****       DAC_InitStructure.DAC_OutputBuffer = DAC_OutputBuffer_Enable;
  51:Drivers/STM32F4xx_StdPeriph_Driver/src/stm32f4xx_dac.c ****       [..]           
  52:Drivers/STM32F4xx_StdPeriph_Driver/src/stm32f4xx_dac.c ****       (@) Refer to the device datasheet for more details about output 
  53:Drivers/STM32F4xx_StdPeriph_Driver/src/stm32f4xx_dac.c ****           impedance value with and without output buffer.
  54:Drivers/STM32F4xx_StdPeriph_Driver/src/stm32f4xx_dac.c ****             
  55:Drivers/STM32F4xx_StdPeriph_Driver/src/stm32f4xx_dac.c ****        *** DAC wave generation feature ***
  56:Drivers/STM32F4xx_StdPeriph_Driver/src/stm32f4xx_dac.c ****        =================================== 
  57:Drivers/STM32F4xx_StdPeriph_Driver/src/stm32f4xx_dac.c ****        [..]     
  58:Drivers/STM32F4xx_StdPeriph_Driver/src/stm32f4xx_dac.c ****        Both DAC channels can be used to generate
  59:Drivers/STM32F4xx_StdPeriph_Driver/src/stm32f4xx_dac.c ****          (#) Noise wave using DAC_WaveGeneration_Noise
  60:Drivers/STM32F4xx_StdPeriph_Driver/src/stm32f4xx_dac.c ****          (#) Triangle wave using DAC_WaveGeneration_Triangle
  61:Drivers/STM32F4xx_StdPeriph_Driver/src/stm32f4xx_dac.c ****           
  62:Drivers/STM32F4xx_StdPeriph_Driver/src/stm32f4xx_dac.c ****           -@-  Wave generation can be disabled using DAC_WaveGeneration_None
  63:Drivers/STM32F4xx_StdPeriph_Driver/src/stm32f4xx_dac.c ****   
  64:Drivers/STM32F4xx_StdPeriph_Driver/src/stm32f4xx_dac.c ****        *** DAC data format ***
  65:Drivers/STM32F4xx_StdPeriph_Driver/src/stm32f4xx_dac.c ****        =======================
  66:Drivers/STM32F4xx_StdPeriph_Driver/src/stm32f4xx_dac.c ****        [..]   
  67:Drivers/STM32F4xx_StdPeriph_Driver/src/stm32f4xx_dac.c ****        The DAC data format can be:
  68:Drivers/STM32F4xx_StdPeriph_Driver/src/stm32f4xx_dac.c ****          (#) 8-bit right alignment using DAC_Align_8b_R
  69:Drivers/STM32F4xx_StdPeriph_Driver/src/stm32f4xx_dac.c ****          (#) 12-bit left alignment using DAC_Align_12b_L
  70:Drivers/STM32F4xx_StdPeriph_Driver/src/stm32f4xx_dac.c ****          (#) 12-bit right alignment using DAC_Align_12b_R
  71:Drivers/STM32F4xx_StdPeriph_Driver/src/stm32f4xx_dac.c ****   
  72:Drivers/STM32F4xx_StdPeriph_Driver/src/stm32f4xx_dac.c ****        *** DAC data value to voltage correspondence ***  
  73:Drivers/STM32F4xx_StdPeriph_Driver/src/stm32f4xx_dac.c ****        ================================================ 
  74:Drivers/STM32F4xx_StdPeriph_Driver/src/stm32f4xx_dac.c ****        [..] 
  75:Drivers/STM32F4xx_StdPeriph_Driver/src/stm32f4xx_dac.c ****        The analog output voltage on each DAC channel pin is determined
  76:Drivers/STM32F4xx_StdPeriph_Driver/src/stm32f4xx_dac.c ****        by the following equation: 
  77:Drivers/STM32F4xx_StdPeriph_Driver/src/stm32f4xx_dac.c ****        DAC_OUTx = VREF+ * DOR / 4095
  78:Drivers/STM32F4xx_StdPeriph_Driver/src/stm32f4xx_dac.c ****        with  DOR is the Data Output Register
  79:Drivers/STM32F4xx_StdPeriph_Driver/src/stm32f4xx_dac.c ****           VEF+ is the input voltage reference (refer to the device datasheet)
  80:Drivers/STM32F4xx_StdPeriph_Driver/src/stm32f4xx_dac.c ****         e.g. To set DAC_OUT1 to 0.7V, use
  81:Drivers/STM32F4xx_StdPeriph_Driver/src/stm32f4xx_dac.c ****           DAC_SetChannel1Data(DAC_Align_12b_R, 868);
  82:Drivers/STM32F4xx_StdPeriph_Driver/src/stm32f4xx_dac.c ****           Assuming that VREF+ = 3.3V, DAC_OUT1 = (3.3 * 868) / 4095 = 0.7V
  83:Drivers/STM32F4xx_StdPeriph_Driver/src/stm32f4xx_dac.c ****   
  84:Drivers/STM32F4xx_StdPeriph_Driver/src/stm32f4xx_dac.c ****        *** DMA requests  ***
  85:Drivers/STM32F4xx_StdPeriph_Driver/src/stm32f4xx_dac.c ****        =====================
  86:Drivers/STM32F4xx_StdPeriph_Driver/src/stm32f4xx_dac.c ****        [..]    
  87:Drivers/STM32F4xx_StdPeriph_Driver/src/stm32f4xx_dac.c ****        A DMA1 request can be generated when an external trigger (but not
ARM GAS  /tmp/cchNbth9.s 			page 3


  88:Drivers/STM32F4xx_StdPeriph_Driver/src/stm32f4xx_dac.c ****        a software trigger) occurs if DMA1 requests are enabled using
  89:Drivers/STM32F4xx_StdPeriph_Driver/src/stm32f4xx_dac.c ****        DAC_DMACmd()
  90:Drivers/STM32F4xx_StdPeriph_Driver/src/stm32f4xx_dac.c ****        [..]
  91:Drivers/STM32F4xx_StdPeriph_Driver/src/stm32f4xx_dac.c ****        DMA1 requests are mapped as following:
  92:Drivers/STM32F4xx_StdPeriph_Driver/src/stm32f4xx_dac.c ****          (#) DAC channel1 : mapped on DMA1 Stream5 channel7 which must be 
  93:Drivers/STM32F4xx_StdPeriph_Driver/src/stm32f4xx_dac.c ****              already configured
  94:Drivers/STM32F4xx_StdPeriph_Driver/src/stm32f4xx_dac.c ****          (#) DAC channel2 : mapped on DMA1 Stream6 channel7 which must be 
  95:Drivers/STM32F4xx_StdPeriph_Driver/src/stm32f4xx_dac.c ****              already configured
  96:Drivers/STM32F4xx_StdPeriph_Driver/src/stm32f4xx_dac.c ****   
  97:Drivers/STM32F4xx_StdPeriph_Driver/src/stm32f4xx_dac.c ****       
  98:Drivers/STM32F4xx_StdPeriph_Driver/src/stm32f4xx_dac.c ****                       ##### How to use this driver #####
  99:Drivers/STM32F4xx_StdPeriph_Driver/src/stm32f4xx_dac.c ****  ===============================================================================
 100:Drivers/STM32F4xx_StdPeriph_Driver/src/stm32f4xx_dac.c ****     [..]          
 101:Drivers/STM32F4xx_StdPeriph_Driver/src/stm32f4xx_dac.c ****       (+) DAC APB clock must be enabled to get write access to DAC
 102:Drivers/STM32F4xx_StdPeriph_Driver/src/stm32f4xx_dac.c ****           registers using
 103:Drivers/STM32F4xx_StdPeriph_Driver/src/stm32f4xx_dac.c ****           RCC_APB1PeriphClockCmd(RCC_APB1Periph_DAC, ENABLE)
 104:Drivers/STM32F4xx_StdPeriph_Driver/src/stm32f4xx_dac.c ****       (+) Configure DAC_OUTx (DAC_OUT1: PA4, DAC_OUT2: PA5) in analog mode.
 105:Drivers/STM32F4xx_StdPeriph_Driver/src/stm32f4xx_dac.c ****       (+) Configure the DAC channel using DAC_Init() function
 106:Drivers/STM32F4xx_StdPeriph_Driver/src/stm32f4xx_dac.c ****       (+) Enable the DAC channel using DAC_Cmd() function
 107:Drivers/STM32F4xx_StdPeriph_Driver/src/stm32f4xx_dac.c ****    
 108:Drivers/STM32F4xx_StdPeriph_Driver/src/stm32f4xx_dac.c ****  @endverbatim    
 109:Drivers/STM32F4xx_StdPeriph_Driver/src/stm32f4xx_dac.c ****   ******************************************************************************
 110:Drivers/STM32F4xx_StdPeriph_Driver/src/stm32f4xx_dac.c ****   * @attention
 111:Drivers/STM32F4xx_StdPeriph_Driver/src/stm32f4xx_dac.c ****   *
 112:Drivers/STM32F4xx_StdPeriph_Driver/src/stm32f4xx_dac.c ****   * <h2><center>&copy; COPYRIGHT 2015 STMicroelectronics</center></h2>
 113:Drivers/STM32F4xx_StdPeriph_Driver/src/stm32f4xx_dac.c ****   *
 114:Drivers/STM32F4xx_StdPeriph_Driver/src/stm32f4xx_dac.c ****   * Licensed under MCD-ST Liberty SW License Agreement V2, (the "License");
 115:Drivers/STM32F4xx_StdPeriph_Driver/src/stm32f4xx_dac.c ****   * You may not use this file except in compliance with the License.
 116:Drivers/STM32F4xx_StdPeriph_Driver/src/stm32f4xx_dac.c ****   * You may obtain a copy of the License at:
 117:Drivers/STM32F4xx_StdPeriph_Driver/src/stm32f4xx_dac.c ****   *
 118:Drivers/STM32F4xx_StdPeriph_Driver/src/stm32f4xx_dac.c ****   *        http://www.st.com/software_license_agreement_liberty_v2
 119:Drivers/STM32F4xx_StdPeriph_Driver/src/stm32f4xx_dac.c ****   *
 120:Drivers/STM32F4xx_StdPeriph_Driver/src/stm32f4xx_dac.c ****   * Unless required by applicable law or agreed to in writing, software 
 121:Drivers/STM32F4xx_StdPeriph_Driver/src/stm32f4xx_dac.c ****   * distributed under the License is distributed on an "AS IS" BASIS, 
 122:Drivers/STM32F4xx_StdPeriph_Driver/src/stm32f4xx_dac.c ****   * WITHOUT WARRANTIES OR CONDITIONS OF ANY KIND, either express or implied.
 123:Drivers/STM32F4xx_StdPeriph_Driver/src/stm32f4xx_dac.c ****   * See the License for the specific language governing permissions and
 124:Drivers/STM32F4xx_StdPeriph_Driver/src/stm32f4xx_dac.c ****   * limitations under the License.
 125:Drivers/STM32F4xx_StdPeriph_Driver/src/stm32f4xx_dac.c ****   *
 126:Drivers/STM32F4xx_StdPeriph_Driver/src/stm32f4xx_dac.c ****   ******************************************************************************  
 127:Drivers/STM32F4xx_StdPeriph_Driver/src/stm32f4xx_dac.c ****   */ 
 128:Drivers/STM32F4xx_StdPeriph_Driver/src/stm32f4xx_dac.c **** 
 129:Drivers/STM32F4xx_StdPeriph_Driver/src/stm32f4xx_dac.c **** 
 130:Drivers/STM32F4xx_StdPeriph_Driver/src/stm32f4xx_dac.c **** /* Includes ------------------------------------------------------------------*/
 131:Drivers/STM32F4xx_StdPeriph_Driver/src/stm32f4xx_dac.c **** #include "stm32f4xx_dac.h"
 132:Drivers/STM32F4xx_StdPeriph_Driver/src/stm32f4xx_dac.c **** #include "stm32f4xx_rcc.h"
 133:Drivers/STM32F4xx_StdPeriph_Driver/src/stm32f4xx_dac.c **** 
 134:Drivers/STM32F4xx_StdPeriph_Driver/src/stm32f4xx_dac.c **** /** @addtogroup STM32F4xx_StdPeriph_Driver
 135:Drivers/STM32F4xx_StdPeriph_Driver/src/stm32f4xx_dac.c ****   * @{
 136:Drivers/STM32F4xx_StdPeriph_Driver/src/stm32f4xx_dac.c ****   */
 137:Drivers/STM32F4xx_StdPeriph_Driver/src/stm32f4xx_dac.c **** 
 138:Drivers/STM32F4xx_StdPeriph_Driver/src/stm32f4xx_dac.c **** /** @defgroup DAC 
 139:Drivers/STM32F4xx_StdPeriph_Driver/src/stm32f4xx_dac.c ****   * @brief DAC driver modules
 140:Drivers/STM32F4xx_StdPeriph_Driver/src/stm32f4xx_dac.c ****   * @{
 141:Drivers/STM32F4xx_StdPeriph_Driver/src/stm32f4xx_dac.c ****   */ 
 142:Drivers/STM32F4xx_StdPeriph_Driver/src/stm32f4xx_dac.c **** 
 143:Drivers/STM32F4xx_StdPeriph_Driver/src/stm32f4xx_dac.c **** /* Private typedef -----------------------------------------------------------*/
 144:Drivers/STM32F4xx_StdPeriph_Driver/src/stm32f4xx_dac.c **** /* Private define ------------------------------------------------------------*/
ARM GAS  /tmp/cchNbth9.s 			page 4


 145:Drivers/STM32F4xx_StdPeriph_Driver/src/stm32f4xx_dac.c **** 
 146:Drivers/STM32F4xx_StdPeriph_Driver/src/stm32f4xx_dac.c **** /* CR register Mask */
 147:Drivers/STM32F4xx_StdPeriph_Driver/src/stm32f4xx_dac.c **** #define CR_CLEAR_MASK              ((uint32_t)0x00000FFE)
 148:Drivers/STM32F4xx_StdPeriph_Driver/src/stm32f4xx_dac.c **** 
 149:Drivers/STM32F4xx_StdPeriph_Driver/src/stm32f4xx_dac.c **** /* DAC Dual Channels SWTRIG masks */
 150:Drivers/STM32F4xx_StdPeriph_Driver/src/stm32f4xx_dac.c **** #define DUAL_SWTRIG_SET            ((uint32_t)0x00000003)
 151:Drivers/STM32F4xx_StdPeriph_Driver/src/stm32f4xx_dac.c **** #define DUAL_SWTRIG_RESET          ((uint32_t)0xFFFFFFFC)
 152:Drivers/STM32F4xx_StdPeriph_Driver/src/stm32f4xx_dac.c **** 
 153:Drivers/STM32F4xx_StdPeriph_Driver/src/stm32f4xx_dac.c **** /* DHR registers offsets */
 154:Drivers/STM32F4xx_StdPeriph_Driver/src/stm32f4xx_dac.c **** #define DHR12R1_OFFSET             ((uint32_t)0x00000008)
 155:Drivers/STM32F4xx_StdPeriph_Driver/src/stm32f4xx_dac.c **** #define DHR12R2_OFFSET             ((uint32_t)0x00000014)
 156:Drivers/STM32F4xx_StdPeriph_Driver/src/stm32f4xx_dac.c **** #define DHR12RD_OFFSET             ((uint32_t)0x00000020)
 157:Drivers/STM32F4xx_StdPeriph_Driver/src/stm32f4xx_dac.c **** 
 158:Drivers/STM32F4xx_StdPeriph_Driver/src/stm32f4xx_dac.c **** /* DOR register offset */
 159:Drivers/STM32F4xx_StdPeriph_Driver/src/stm32f4xx_dac.c **** #define DOR_OFFSET                 ((uint32_t)0x0000002C)
 160:Drivers/STM32F4xx_StdPeriph_Driver/src/stm32f4xx_dac.c **** 
 161:Drivers/STM32F4xx_StdPeriph_Driver/src/stm32f4xx_dac.c **** /* Private macro -------------------------------------------------------------*/
 162:Drivers/STM32F4xx_StdPeriph_Driver/src/stm32f4xx_dac.c **** /* Private variables ---------------------------------------------------------*/
 163:Drivers/STM32F4xx_StdPeriph_Driver/src/stm32f4xx_dac.c **** /* Private function prototypes -----------------------------------------------*/
 164:Drivers/STM32F4xx_StdPeriph_Driver/src/stm32f4xx_dac.c **** /* Private functions ---------------------------------------------------------*/
 165:Drivers/STM32F4xx_StdPeriph_Driver/src/stm32f4xx_dac.c **** 
 166:Drivers/STM32F4xx_StdPeriph_Driver/src/stm32f4xx_dac.c **** /** @defgroup DAC_Private_Functions
 167:Drivers/STM32F4xx_StdPeriph_Driver/src/stm32f4xx_dac.c ****   * @{
 168:Drivers/STM32F4xx_StdPeriph_Driver/src/stm32f4xx_dac.c ****   */
 169:Drivers/STM32F4xx_StdPeriph_Driver/src/stm32f4xx_dac.c **** 
 170:Drivers/STM32F4xx_StdPeriph_Driver/src/stm32f4xx_dac.c **** /** @defgroup DAC_Group1 DAC channels configuration
 171:Drivers/STM32F4xx_StdPeriph_Driver/src/stm32f4xx_dac.c ****  *  @brief   DAC channels configuration: trigger, output buffer, data format 
 172:Drivers/STM32F4xx_StdPeriph_Driver/src/stm32f4xx_dac.c ****  *
 173:Drivers/STM32F4xx_StdPeriph_Driver/src/stm32f4xx_dac.c **** @verbatim   
 174:Drivers/STM32F4xx_StdPeriph_Driver/src/stm32f4xx_dac.c ****  ===============================================================================
 175:Drivers/STM32F4xx_StdPeriph_Driver/src/stm32f4xx_dac.c ****    ##### DAC channels configuration: trigger, output buffer, data format #####
 176:Drivers/STM32F4xx_StdPeriph_Driver/src/stm32f4xx_dac.c ****  ===============================================================================  
 177:Drivers/STM32F4xx_StdPeriph_Driver/src/stm32f4xx_dac.c **** 
 178:Drivers/STM32F4xx_StdPeriph_Driver/src/stm32f4xx_dac.c **** @endverbatim
 179:Drivers/STM32F4xx_StdPeriph_Driver/src/stm32f4xx_dac.c ****   * @{
 180:Drivers/STM32F4xx_StdPeriph_Driver/src/stm32f4xx_dac.c ****   */
 181:Drivers/STM32F4xx_StdPeriph_Driver/src/stm32f4xx_dac.c **** 
 182:Drivers/STM32F4xx_StdPeriph_Driver/src/stm32f4xx_dac.c **** /**
 183:Drivers/STM32F4xx_StdPeriph_Driver/src/stm32f4xx_dac.c ****   * @brief  Deinitializes the DAC peripheral registers to their default reset values.
 184:Drivers/STM32F4xx_StdPeriph_Driver/src/stm32f4xx_dac.c ****   * @param  None
 185:Drivers/STM32F4xx_StdPeriph_Driver/src/stm32f4xx_dac.c ****   * @retval None
 186:Drivers/STM32F4xx_StdPeriph_Driver/src/stm32f4xx_dac.c ****   */
 187:Drivers/STM32F4xx_StdPeriph_Driver/src/stm32f4xx_dac.c **** void DAC_DeInit(void)
 188:Drivers/STM32F4xx_StdPeriph_Driver/src/stm32f4xx_dac.c **** {
  29              		.loc 1 188 1 view -0
  30              		.cfi_startproc
  31              		@ args = 0, pretend = 0, frame = 0
  32              		@ frame_needed = 0, uses_anonymous_args = 0
  33 0000 08B5     		push	{r3, lr}
  34              		.cfi_def_cfa_offset 8
  35              		.cfi_offset 3, -8
  36              		.cfi_offset 14, -4
 189:Drivers/STM32F4xx_StdPeriph_Driver/src/stm32f4xx_dac.c ****   /* Enable DAC reset state */
 190:Drivers/STM32F4xx_StdPeriph_Driver/src/stm32f4xx_dac.c ****   RCC_APB1PeriphResetCmd(RCC_APB1Periph_DAC, ENABLE);
  37              		.loc 1 190 3 view .LVU1
  38 0002 0121     		movs	r1, #1
  39 0004 4FF00050 		mov	r0, #536870912
ARM GAS  /tmp/cchNbth9.s 			page 5


  40 0008 FFF7FEFF 		bl	RCC_APB1PeriphResetCmd
  41              	.LVL0:
 191:Drivers/STM32F4xx_StdPeriph_Driver/src/stm32f4xx_dac.c ****   /* Release DAC from reset state */
 192:Drivers/STM32F4xx_StdPeriph_Driver/src/stm32f4xx_dac.c ****   RCC_APB1PeriphResetCmd(RCC_APB1Periph_DAC, DISABLE);
  42              		.loc 1 192 3 view .LVU2
  43 000c 0021     		movs	r1, #0
  44 000e 4FF00050 		mov	r0, #536870912
  45 0012 FFF7FEFF 		bl	RCC_APB1PeriphResetCmd
  46              	.LVL1:
 193:Drivers/STM32F4xx_StdPeriph_Driver/src/stm32f4xx_dac.c **** }
  47              		.loc 1 193 1 is_stmt 0 view .LVU3
  48 0016 08BD     		pop	{r3, pc}
  49              		.cfi_endproc
  50              	.LFE123:
  52              		.section	.text.DAC_Init,"ax",%progbits
  53              		.align	1
  54              		.global	DAC_Init
  55              		.syntax unified
  56              		.thumb
  57              		.thumb_func
  58              		.fpu fpv4-sp-d16
  60              	DAC_Init:
  61              	.LVL2:
  62              	.LFB124:
 194:Drivers/STM32F4xx_StdPeriph_Driver/src/stm32f4xx_dac.c **** 
 195:Drivers/STM32F4xx_StdPeriph_Driver/src/stm32f4xx_dac.c **** /**
 196:Drivers/STM32F4xx_StdPeriph_Driver/src/stm32f4xx_dac.c ****   * @brief  Initializes the DAC peripheral according to the specified parameters
 197:Drivers/STM32F4xx_StdPeriph_Driver/src/stm32f4xx_dac.c ****   *         in the DAC_InitStruct.
 198:Drivers/STM32F4xx_StdPeriph_Driver/src/stm32f4xx_dac.c ****   * @param  DAC_Channel: the selected DAC channel. 
 199:Drivers/STM32F4xx_StdPeriph_Driver/src/stm32f4xx_dac.c ****   *          This parameter can be one of the following values:
 200:Drivers/STM32F4xx_StdPeriph_Driver/src/stm32f4xx_dac.c ****   *            @arg DAC_Channel_1: DAC Channel1 selected
 201:Drivers/STM32F4xx_StdPeriph_Driver/src/stm32f4xx_dac.c ****   *            @arg DAC_Channel_2: DAC Channel2 selected
 202:Drivers/STM32F4xx_StdPeriph_Driver/src/stm32f4xx_dac.c ****   * @param  DAC_InitStruct: pointer to a DAC_InitTypeDef structure that contains
 203:Drivers/STM32F4xx_StdPeriph_Driver/src/stm32f4xx_dac.c ****   *         the configuration information for the  specified DAC channel.
 204:Drivers/STM32F4xx_StdPeriph_Driver/src/stm32f4xx_dac.c ****   * @retval None
 205:Drivers/STM32F4xx_StdPeriph_Driver/src/stm32f4xx_dac.c ****   */
 206:Drivers/STM32F4xx_StdPeriph_Driver/src/stm32f4xx_dac.c **** void DAC_Init(uint32_t DAC_Channel, DAC_InitTypeDef* DAC_InitStruct)
 207:Drivers/STM32F4xx_StdPeriph_Driver/src/stm32f4xx_dac.c **** {
  63              		.loc 1 207 1 is_stmt 1 view -0
  64              		.cfi_startproc
  65              		@ args = 0, pretend = 0, frame = 0
  66              		@ frame_needed = 0, uses_anonymous_args = 0
  67              		@ link register save eliminated.
  68              		.loc 1 207 1 is_stmt 0 view .LVU5
  69 0000 30B4     		push	{r4, r5}
  70              		.cfi_def_cfa_offset 8
  71              		.cfi_offset 4, -8
  72              		.cfi_offset 5, -4
 208:Drivers/STM32F4xx_StdPeriph_Driver/src/stm32f4xx_dac.c ****   uint32_t tmpreg1 = 0, tmpreg2 = 0;
  73              		.loc 1 208 3 is_stmt 1 view .LVU6
  74              	.LVL3:
 209:Drivers/STM32F4xx_StdPeriph_Driver/src/stm32f4xx_dac.c **** 
 210:Drivers/STM32F4xx_StdPeriph_Driver/src/stm32f4xx_dac.c ****   /* Check the DAC parameters */
 211:Drivers/STM32F4xx_StdPeriph_Driver/src/stm32f4xx_dac.c ****   assert_param(IS_DAC_TRIGGER(DAC_InitStruct->DAC_Trigger));
  75              		.loc 1 211 3 view .LVU7
 212:Drivers/STM32F4xx_StdPeriph_Driver/src/stm32f4xx_dac.c ****   assert_param(IS_DAC_GENERATE_WAVE(DAC_InitStruct->DAC_WaveGeneration));
  76              		.loc 1 212 3 view .LVU8
ARM GAS  /tmp/cchNbth9.s 			page 6


 213:Drivers/STM32F4xx_StdPeriph_Driver/src/stm32f4xx_dac.c ****   assert_param(IS_DAC_LFSR_UNMASK_TRIANGLE_AMPLITUDE(DAC_InitStruct->DAC_LFSRUnmask_TriangleAmplitu
  77              		.loc 1 213 3 view .LVU9
 214:Drivers/STM32F4xx_StdPeriph_Driver/src/stm32f4xx_dac.c ****   assert_param(IS_DAC_OUTPUT_BUFFER_STATE(DAC_InitStruct->DAC_OutputBuffer));
  78              		.loc 1 214 3 view .LVU10
 215:Drivers/STM32F4xx_StdPeriph_Driver/src/stm32f4xx_dac.c **** 
 216:Drivers/STM32F4xx_StdPeriph_Driver/src/stm32f4xx_dac.c **** /*---------------------------- DAC CR Configuration --------------------------*/
 217:Drivers/STM32F4xx_StdPeriph_Driver/src/stm32f4xx_dac.c ****   /* Get the DAC CR value */
 218:Drivers/STM32F4xx_StdPeriph_Driver/src/stm32f4xx_dac.c ****   tmpreg1 = DAC->CR;
  79              		.loc 1 218 3 view .LVU11
  80              		.loc 1 218 11 is_stmt 0 view .LVU12
  81 0002 0A4C     		ldr	r4, .L5
  82 0004 2268     		ldr	r2, [r4]
  83              	.LVL4:
 219:Drivers/STM32F4xx_StdPeriph_Driver/src/stm32f4xx_dac.c ****   /* Clear BOFFx, TENx, TSELx, WAVEx and MAMPx bits */
 220:Drivers/STM32F4xx_StdPeriph_Driver/src/stm32f4xx_dac.c ****   tmpreg1 &= ~(CR_CLEAR_MASK << DAC_Channel);
  84              		.loc 1 220 3 is_stmt 1 view .LVU13
  85              		.loc 1 220 30 is_stmt 0 view .LVU14
  86 0006 40F6FE73 		movw	r3, #4094
  87 000a 8340     		lsls	r3, r3, r0
  88              		.loc 1 220 11 view .LVU15
  89 000c 22EA0302 		bic	r2, r2, r3
  90              	.LVL5:
 221:Drivers/STM32F4xx_StdPeriph_Driver/src/stm32f4xx_dac.c ****   /* Configure for the selected DAC channel: buffer output, trigger, 
 222:Drivers/STM32F4xx_StdPeriph_Driver/src/stm32f4xx_dac.c ****      wave generation, mask/amplitude for wave generation */
 223:Drivers/STM32F4xx_StdPeriph_Driver/src/stm32f4xx_dac.c ****   /* Set TSELx and TENx bits according to DAC_Trigger value */
 224:Drivers/STM32F4xx_StdPeriph_Driver/src/stm32f4xx_dac.c ****   /* Set WAVEx bits according to DAC_WaveGeneration value */
 225:Drivers/STM32F4xx_StdPeriph_Driver/src/stm32f4xx_dac.c ****   /* Set MAMPx bits according to DAC_LFSRUnmask_TriangleAmplitude value */ 
 226:Drivers/STM32F4xx_StdPeriph_Driver/src/stm32f4xx_dac.c ****   /* Set BOFFx bit according to DAC_OutputBuffer value */   
 227:Drivers/STM32F4xx_StdPeriph_Driver/src/stm32f4xx_dac.c ****   tmpreg2 = (DAC_InitStruct->DAC_Trigger | DAC_InitStruct->DAC_WaveGeneration |
  91              		.loc 1 227 3 is_stmt 1 view .LVU16
  92              		.loc 1 227 28 is_stmt 0 view .LVU17
  93 0010 0B68     		ldr	r3, [r1]
  94              		.loc 1 227 42 view .LVU18
  95 0012 4D68     		ldr	r5, [r1, #4]
  96 0014 2B43     		orrs	r3, r3, r5
  97              		.loc 1 227 79 view .LVU19
  98 0016 8D68     		ldr	r5, [r1, #8]
  99 0018 2B43     		orrs	r3, r3, r5
 228:Drivers/STM32F4xx_StdPeriph_Driver/src/stm32f4xx_dac.c ****              DAC_InitStruct->DAC_LFSRUnmask_TriangleAmplitude | \
 229:Drivers/STM32F4xx_StdPeriph_Driver/src/stm32f4xx_dac.c ****              DAC_InitStruct->DAC_OutputBuffer);
 100              		.loc 1 229 28 view .LVU20
 101 001a C968     		ldr	r1, [r1, #12]
 102              	.LVL6:
 227:Drivers/STM32F4xx_StdPeriph_Driver/src/stm32f4xx_dac.c ****              DAC_InitStruct->DAC_LFSRUnmask_TriangleAmplitude | \
 103              		.loc 1 227 11 view .LVU21
 104 001c 0B43     		orrs	r3, r3, r1
 105              	.LVL7:
 230:Drivers/STM32F4xx_StdPeriph_Driver/src/stm32f4xx_dac.c ****   /* Calculate CR register value depending on DAC_Channel */
 231:Drivers/STM32F4xx_StdPeriph_Driver/src/stm32f4xx_dac.c ****   tmpreg1 |= tmpreg2 << DAC_Channel;
 106              		.loc 1 231 3 is_stmt 1 view .LVU22
 107              		.loc 1 231 22 is_stmt 0 view .LVU23
 108 001e 03FA00F0 		lsl	r0, r3, r0
 109              	.LVL8:
 110              		.loc 1 231 11 view .LVU24
 111 0022 1043     		orrs	r0, r0, r2
 112              	.LVL9:
 232:Drivers/STM32F4xx_StdPeriph_Driver/src/stm32f4xx_dac.c ****   /* Write to DAC CR */
ARM GAS  /tmp/cchNbth9.s 			page 7


 233:Drivers/STM32F4xx_StdPeriph_Driver/src/stm32f4xx_dac.c ****   DAC->CR = tmpreg1;
 113              		.loc 1 233 3 is_stmt 1 view .LVU25
 114              		.loc 1 233 11 is_stmt 0 view .LVU26
 115 0024 2060     		str	r0, [r4]
 234:Drivers/STM32F4xx_StdPeriph_Driver/src/stm32f4xx_dac.c **** }
 116              		.loc 1 234 1 view .LVU27
 117 0026 30BC     		pop	{r4, r5}
 118              		.cfi_restore 5
 119              		.cfi_restore 4
 120              		.cfi_def_cfa_offset 0
 121 0028 7047     		bx	lr
 122              	.L6:
 123 002a 00BF     		.align	2
 124              	.L5:
 125 002c 00740040 		.word	1073771520
 126              		.cfi_endproc
 127              	.LFE124:
 129              		.section	.text.DAC_StructInit,"ax",%progbits
 130              		.align	1
 131              		.global	DAC_StructInit
 132              		.syntax unified
 133              		.thumb
 134              		.thumb_func
 135              		.fpu fpv4-sp-d16
 137              	DAC_StructInit:
 138              	.LVL10:
 139              	.LFB125:
 235:Drivers/STM32F4xx_StdPeriph_Driver/src/stm32f4xx_dac.c **** 
 236:Drivers/STM32F4xx_StdPeriph_Driver/src/stm32f4xx_dac.c **** /**
 237:Drivers/STM32F4xx_StdPeriph_Driver/src/stm32f4xx_dac.c ****   * @brief  Fills each DAC_InitStruct member with its default value.
 238:Drivers/STM32F4xx_StdPeriph_Driver/src/stm32f4xx_dac.c ****   * @param  DAC_InitStruct: pointer to a DAC_InitTypeDef structure which will 
 239:Drivers/STM32F4xx_StdPeriph_Driver/src/stm32f4xx_dac.c ****   *         be initialized.
 240:Drivers/STM32F4xx_StdPeriph_Driver/src/stm32f4xx_dac.c ****   * @retval None
 241:Drivers/STM32F4xx_StdPeriph_Driver/src/stm32f4xx_dac.c ****   */
 242:Drivers/STM32F4xx_StdPeriph_Driver/src/stm32f4xx_dac.c **** void DAC_StructInit(DAC_InitTypeDef* DAC_InitStruct)
 243:Drivers/STM32F4xx_StdPeriph_Driver/src/stm32f4xx_dac.c **** {
 140              		.loc 1 243 1 is_stmt 1 view -0
 141              		.cfi_startproc
 142              		@ args = 0, pretend = 0, frame = 0
 143              		@ frame_needed = 0, uses_anonymous_args = 0
 144              		@ link register save eliminated.
 244:Drivers/STM32F4xx_StdPeriph_Driver/src/stm32f4xx_dac.c **** /*--------------- Reset DAC init structure parameters values -----------------*/
 245:Drivers/STM32F4xx_StdPeriph_Driver/src/stm32f4xx_dac.c ****   /* Initialize the DAC_Trigger member */
 246:Drivers/STM32F4xx_StdPeriph_Driver/src/stm32f4xx_dac.c ****   DAC_InitStruct->DAC_Trigger = DAC_Trigger_None;
 145              		.loc 1 246 3 view .LVU29
 146              		.loc 1 246 31 is_stmt 0 view .LVU30
 147 0000 0023     		movs	r3, #0
 148 0002 0360     		str	r3, [r0]
 247:Drivers/STM32F4xx_StdPeriph_Driver/src/stm32f4xx_dac.c ****   /* Initialize the DAC_WaveGeneration member */
 248:Drivers/STM32F4xx_StdPeriph_Driver/src/stm32f4xx_dac.c ****   DAC_InitStruct->DAC_WaveGeneration = DAC_WaveGeneration_None;
 149              		.loc 1 248 3 is_stmt 1 view .LVU31
 150              		.loc 1 248 38 is_stmt 0 view .LVU32
 151 0004 4360     		str	r3, [r0, #4]
 249:Drivers/STM32F4xx_StdPeriph_Driver/src/stm32f4xx_dac.c ****   /* Initialize the DAC_LFSRUnmask_TriangleAmplitude member */
 250:Drivers/STM32F4xx_StdPeriph_Driver/src/stm32f4xx_dac.c ****   DAC_InitStruct->DAC_LFSRUnmask_TriangleAmplitude = DAC_LFSRUnmask_Bit0;
 152              		.loc 1 250 3 is_stmt 1 view .LVU33
 153              		.loc 1 250 52 is_stmt 0 view .LVU34
ARM GAS  /tmp/cchNbth9.s 			page 8


 154 0006 8360     		str	r3, [r0, #8]
 251:Drivers/STM32F4xx_StdPeriph_Driver/src/stm32f4xx_dac.c ****   /* Initialize the DAC_OutputBuffer member */
 252:Drivers/STM32F4xx_StdPeriph_Driver/src/stm32f4xx_dac.c ****   DAC_InitStruct->DAC_OutputBuffer = DAC_OutputBuffer_Enable;
 155              		.loc 1 252 3 is_stmt 1 view .LVU35
 156              		.loc 1 252 36 is_stmt 0 view .LVU36
 157 0008 C360     		str	r3, [r0, #12]
 253:Drivers/STM32F4xx_StdPeriph_Driver/src/stm32f4xx_dac.c **** }
 158              		.loc 1 253 1 view .LVU37
 159 000a 7047     		bx	lr
 160              		.cfi_endproc
 161              	.LFE125:
 163              		.section	.text.DAC_Cmd,"ax",%progbits
 164              		.align	1
 165              		.global	DAC_Cmd
 166              		.syntax unified
 167              		.thumb
 168              		.thumb_func
 169              		.fpu fpv4-sp-d16
 171              	DAC_Cmd:
 172              	.LVL11:
 173              	.LFB126:
 254:Drivers/STM32F4xx_StdPeriph_Driver/src/stm32f4xx_dac.c **** 
 255:Drivers/STM32F4xx_StdPeriph_Driver/src/stm32f4xx_dac.c **** /**
 256:Drivers/STM32F4xx_StdPeriph_Driver/src/stm32f4xx_dac.c ****   * @brief  Enables or disables the specified DAC channel.
 257:Drivers/STM32F4xx_StdPeriph_Driver/src/stm32f4xx_dac.c ****   * @param  DAC_Channel: The selected DAC channel. 
 258:Drivers/STM32F4xx_StdPeriph_Driver/src/stm32f4xx_dac.c ****   *          This parameter can be one of the following values:
 259:Drivers/STM32F4xx_StdPeriph_Driver/src/stm32f4xx_dac.c ****   *            @arg DAC_Channel_1: DAC Channel1 selected
 260:Drivers/STM32F4xx_StdPeriph_Driver/src/stm32f4xx_dac.c ****   *            @arg DAC_Channel_2: DAC Channel2 selected
 261:Drivers/STM32F4xx_StdPeriph_Driver/src/stm32f4xx_dac.c ****   * @param  NewState: new state of the DAC channel. 
 262:Drivers/STM32F4xx_StdPeriph_Driver/src/stm32f4xx_dac.c ****   *          This parameter can be: ENABLE or DISABLE.
 263:Drivers/STM32F4xx_StdPeriph_Driver/src/stm32f4xx_dac.c ****   * @note   When the DAC channel is enabled the trigger source can no more be modified.
 264:Drivers/STM32F4xx_StdPeriph_Driver/src/stm32f4xx_dac.c ****   * @retval None
 265:Drivers/STM32F4xx_StdPeriph_Driver/src/stm32f4xx_dac.c ****   */
 266:Drivers/STM32F4xx_StdPeriph_Driver/src/stm32f4xx_dac.c **** void DAC_Cmd(uint32_t DAC_Channel, FunctionalState NewState)
 267:Drivers/STM32F4xx_StdPeriph_Driver/src/stm32f4xx_dac.c **** {
 174              		.loc 1 267 1 is_stmt 1 view -0
 175              		.cfi_startproc
 176              		@ args = 0, pretend = 0, frame = 0
 177              		@ frame_needed = 0, uses_anonymous_args = 0
 178              		@ link register save eliminated.
 268:Drivers/STM32F4xx_StdPeriph_Driver/src/stm32f4xx_dac.c ****   /* Check the parameters */
 269:Drivers/STM32F4xx_StdPeriph_Driver/src/stm32f4xx_dac.c ****   assert_param(IS_DAC_CHANNEL(DAC_Channel));
 179              		.loc 1 269 3 view .LVU39
 270:Drivers/STM32F4xx_StdPeriph_Driver/src/stm32f4xx_dac.c ****   assert_param(IS_FUNCTIONAL_STATE(NewState));
 180              		.loc 1 270 3 view .LVU40
 271:Drivers/STM32F4xx_StdPeriph_Driver/src/stm32f4xx_dac.c **** 
 272:Drivers/STM32F4xx_StdPeriph_Driver/src/stm32f4xx_dac.c ****   if (NewState != DISABLE)
 181              		.loc 1 272 3 view .LVU41
 182              		.loc 1 272 6 is_stmt 0 view .LVU42
 183 0000 39B1     		cbz	r1, .L9
 273:Drivers/STM32F4xx_StdPeriph_Driver/src/stm32f4xx_dac.c ****   {
 274:Drivers/STM32F4xx_StdPeriph_Driver/src/stm32f4xx_dac.c ****     /* Enable the selected DAC channel */
 275:Drivers/STM32F4xx_StdPeriph_Driver/src/stm32f4xx_dac.c ****     DAC->CR |= (DAC_CR_EN1 << DAC_Channel);
 184              		.loc 1 275 5 is_stmt 1 view .LVU43
 185              		.loc 1 275 13 is_stmt 0 view .LVU44
 186 0002 0849     		ldr	r1, .L11
 187              	.LVL12:
ARM GAS  /tmp/cchNbth9.s 			page 9


 188              		.loc 1 275 13 view .LVU45
 189 0004 0B68     		ldr	r3, [r1]
 190              		.loc 1 275 28 view .LVU46
 191 0006 0122     		movs	r2, #1
 192 0008 02FA00F0 		lsl	r0, r2, r0
 193              	.LVL13:
 194              		.loc 1 275 13 view .LVU47
 195 000c 1843     		orrs	r0, r0, r3
 196 000e 0860     		str	r0, [r1]
 197 0010 7047     		bx	lr
 198              	.LVL14:
 199              	.L9:
 276:Drivers/STM32F4xx_StdPeriph_Driver/src/stm32f4xx_dac.c ****   }
 277:Drivers/STM32F4xx_StdPeriph_Driver/src/stm32f4xx_dac.c ****   else
 278:Drivers/STM32F4xx_StdPeriph_Driver/src/stm32f4xx_dac.c ****   {
 279:Drivers/STM32F4xx_StdPeriph_Driver/src/stm32f4xx_dac.c ****     /* Disable the selected DAC channel */
 280:Drivers/STM32F4xx_StdPeriph_Driver/src/stm32f4xx_dac.c ****     DAC->CR &= (~(DAC_CR_EN1 << DAC_Channel));
 200              		.loc 1 280 5 is_stmt 1 view .LVU48
 201              		.loc 1 280 13 is_stmt 0 view .LVU49
 202 0012 0449     		ldr	r1, .L11
 203              	.LVL15:
 204              		.loc 1 280 13 view .LVU50
 205 0014 0B68     		ldr	r3, [r1]
 206              		.loc 1 280 30 view .LVU51
 207 0016 0122     		movs	r2, #1
 208 0018 02FA00F0 		lsl	r0, r2, r0
 209              	.LVL16:
 210              		.loc 1 280 13 view .LVU52
 211 001c 23EA0000 		bic	r0, r3, r0
 212 0020 0860     		str	r0, [r1]
 281:Drivers/STM32F4xx_StdPeriph_Driver/src/stm32f4xx_dac.c ****   }
 282:Drivers/STM32F4xx_StdPeriph_Driver/src/stm32f4xx_dac.c **** }
 213              		.loc 1 282 1 view .LVU53
 214 0022 7047     		bx	lr
 215              	.L12:
 216              		.align	2
 217              	.L11:
 218 0024 00740040 		.word	1073771520
 219              		.cfi_endproc
 220              	.LFE126:
 222              		.section	.text.DAC_SoftwareTriggerCmd,"ax",%progbits
 223              		.align	1
 224              		.global	DAC_SoftwareTriggerCmd
 225              		.syntax unified
 226              		.thumb
 227              		.thumb_func
 228              		.fpu fpv4-sp-d16
 230              	DAC_SoftwareTriggerCmd:
 231              	.LVL17:
 232              	.LFB127:
 283:Drivers/STM32F4xx_StdPeriph_Driver/src/stm32f4xx_dac.c **** 
 284:Drivers/STM32F4xx_StdPeriph_Driver/src/stm32f4xx_dac.c **** /**
 285:Drivers/STM32F4xx_StdPeriph_Driver/src/stm32f4xx_dac.c ****   * @brief  Enables or disables the selected DAC channel software trigger.
 286:Drivers/STM32F4xx_StdPeriph_Driver/src/stm32f4xx_dac.c ****   * @param  DAC_Channel: The selected DAC channel. 
 287:Drivers/STM32F4xx_StdPeriph_Driver/src/stm32f4xx_dac.c ****   *          This parameter can be one of the following values:
 288:Drivers/STM32F4xx_StdPeriph_Driver/src/stm32f4xx_dac.c ****   *            @arg DAC_Channel_1: DAC Channel1 selected
 289:Drivers/STM32F4xx_StdPeriph_Driver/src/stm32f4xx_dac.c ****   *            @arg DAC_Channel_2: DAC Channel2 selected
ARM GAS  /tmp/cchNbth9.s 			page 10


 290:Drivers/STM32F4xx_StdPeriph_Driver/src/stm32f4xx_dac.c ****   * @param  NewState: new state of the selected DAC channel software trigger.
 291:Drivers/STM32F4xx_StdPeriph_Driver/src/stm32f4xx_dac.c ****   *          This parameter can be: ENABLE or DISABLE.
 292:Drivers/STM32F4xx_StdPeriph_Driver/src/stm32f4xx_dac.c ****   * @retval None
 293:Drivers/STM32F4xx_StdPeriph_Driver/src/stm32f4xx_dac.c ****   */
 294:Drivers/STM32F4xx_StdPeriph_Driver/src/stm32f4xx_dac.c **** void DAC_SoftwareTriggerCmd(uint32_t DAC_Channel, FunctionalState NewState)
 295:Drivers/STM32F4xx_StdPeriph_Driver/src/stm32f4xx_dac.c **** {
 233              		.loc 1 295 1 is_stmt 1 view -0
 234              		.cfi_startproc
 235              		@ args = 0, pretend = 0, frame = 0
 236              		@ frame_needed = 0, uses_anonymous_args = 0
 237              		@ link register save eliminated.
 296:Drivers/STM32F4xx_StdPeriph_Driver/src/stm32f4xx_dac.c ****   /* Check the parameters */
 297:Drivers/STM32F4xx_StdPeriph_Driver/src/stm32f4xx_dac.c ****   assert_param(IS_DAC_CHANNEL(DAC_Channel));
 238              		.loc 1 297 3 view .LVU55
 298:Drivers/STM32F4xx_StdPeriph_Driver/src/stm32f4xx_dac.c ****   assert_param(IS_FUNCTIONAL_STATE(NewState));
 239              		.loc 1 298 3 view .LVU56
 299:Drivers/STM32F4xx_StdPeriph_Driver/src/stm32f4xx_dac.c **** 
 300:Drivers/STM32F4xx_StdPeriph_Driver/src/stm32f4xx_dac.c ****   if (NewState != DISABLE)
 240              		.loc 1 300 3 view .LVU57
 241              		.loc 1 300 6 is_stmt 0 view .LVU58
 242 0000 41B1     		cbz	r1, .L14
 301:Drivers/STM32F4xx_StdPeriph_Driver/src/stm32f4xx_dac.c ****   {
 302:Drivers/STM32F4xx_StdPeriph_Driver/src/stm32f4xx_dac.c ****     /* Enable software trigger for the selected DAC channel */
 303:Drivers/STM32F4xx_StdPeriph_Driver/src/stm32f4xx_dac.c ****     DAC->SWTRIGR |= (uint32_t)DAC_SWTRIGR_SWTRIG1 << (DAC_Channel >> 4);
 243              		.loc 1 303 5 is_stmt 1 view .LVU59
 244              		.loc 1 303 18 is_stmt 0 view .LVU60
 245 0002 0949     		ldr	r1, .L16
 246              	.LVL18:
 247              		.loc 1 303 18 view .LVU61
 248 0004 4B68     		ldr	r3, [r1, #4]
 249              		.loc 1 303 67 view .LVU62
 250 0006 0009     		lsrs	r0, r0, #4
 251              	.LVL19:
 252              		.loc 1 303 51 view .LVU63
 253 0008 0122     		movs	r2, #1
 254 000a 02FA00F0 		lsl	r0, r2, r0
 255              		.loc 1 303 18 view .LVU64
 256 000e 1843     		orrs	r0, r0, r3
 257 0010 4860     		str	r0, [r1, #4]
 258 0012 7047     		bx	lr
 259              	.LVL20:
 260              	.L14:
 304:Drivers/STM32F4xx_StdPeriph_Driver/src/stm32f4xx_dac.c ****   }
 305:Drivers/STM32F4xx_StdPeriph_Driver/src/stm32f4xx_dac.c ****   else
 306:Drivers/STM32F4xx_StdPeriph_Driver/src/stm32f4xx_dac.c ****   {
 307:Drivers/STM32F4xx_StdPeriph_Driver/src/stm32f4xx_dac.c ****     /* Disable software trigger for the selected DAC channel */
 308:Drivers/STM32F4xx_StdPeriph_Driver/src/stm32f4xx_dac.c ****     DAC->SWTRIGR &= ~((uint32_t)DAC_SWTRIGR_SWTRIG1 << (DAC_Channel >> 4));
 261              		.loc 1 308 5 is_stmt 1 view .LVU65
 262              		.loc 1 308 18 is_stmt 0 view .LVU66
 263 0014 0449     		ldr	r1, .L16
 264              	.LVL21:
 265              		.loc 1 308 18 view .LVU67
 266 0016 4B68     		ldr	r3, [r1, #4]
 267              		.loc 1 308 69 view .LVU68
 268 0018 0009     		lsrs	r0, r0, #4
 269              	.LVL22:
 270              		.loc 1 308 53 view .LVU69
ARM GAS  /tmp/cchNbth9.s 			page 11


 271 001a 0122     		movs	r2, #1
 272 001c 02FA00F0 		lsl	r0, r2, r0
 273              		.loc 1 308 18 view .LVU70
 274 0020 23EA0000 		bic	r0, r3, r0
 275 0024 4860     		str	r0, [r1, #4]
 309:Drivers/STM32F4xx_StdPeriph_Driver/src/stm32f4xx_dac.c ****   }
 310:Drivers/STM32F4xx_StdPeriph_Driver/src/stm32f4xx_dac.c **** }
 276              		.loc 1 310 1 view .LVU71
 277 0026 7047     		bx	lr
 278              	.L17:
 279              		.align	2
 280              	.L16:
 281 0028 00740040 		.word	1073771520
 282              		.cfi_endproc
 283              	.LFE127:
 285              		.section	.text.DAC_DualSoftwareTriggerCmd,"ax",%progbits
 286              		.align	1
 287              		.global	DAC_DualSoftwareTriggerCmd
 288              		.syntax unified
 289              		.thumb
 290              		.thumb_func
 291              		.fpu fpv4-sp-d16
 293              	DAC_DualSoftwareTriggerCmd:
 294              	.LVL23:
 295              	.LFB128:
 311:Drivers/STM32F4xx_StdPeriph_Driver/src/stm32f4xx_dac.c **** 
 312:Drivers/STM32F4xx_StdPeriph_Driver/src/stm32f4xx_dac.c **** /**
 313:Drivers/STM32F4xx_StdPeriph_Driver/src/stm32f4xx_dac.c ****   * @brief  Enables or disables simultaneously the two DAC channels software triggers.
 314:Drivers/STM32F4xx_StdPeriph_Driver/src/stm32f4xx_dac.c ****   * @param  NewState: new state of the DAC channels software triggers.
 315:Drivers/STM32F4xx_StdPeriph_Driver/src/stm32f4xx_dac.c ****   *          This parameter can be: ENABLE or DISABLE.
 316:Drivers/STM32F4xx_StdPeriph_Driver/src/stm32f4xx_dac.c ****   * @retval None
 317:Drivers/STM32F4xx_StdPeriph_Driver/src/stm32f4xx_dac.c ****   */
 318:Drivers/STM32F4xx_StdPeriph_Driver/src/stm32f4xx_dac.c **** void DAC_DualSoftwareTriggerCmd(FunctionalState NewState)
 319:Drivers/STM32F4xx_StdPeriph_Driver/src/stm32f4xx_dac.c **** {
 296              		.loc 1 319 1 is_stmt 1 view -0
 297              		.cfi_startproc
 298              		@ args = 0, pretend = 0, frame = 0
 299              		@ frame_needed = 0, uses_anonymous_args = 0
 300              		@ link register save eliminated.
 320:Drivers/STM32F4xx_StdPeriph_Driver/src/stm32f4xx_dac.c ****   /* Check the parameters */
 321:Drivers/STM32F4xx_StdPeriph_Driver/src/stm32f4xx_dac.c ****   assert_param(IS_FUNCTIONAL_STATE(NewState));
 301              		.loc 1 321 3 view .LVU73
 322:Drivers/STM32F4xx_StdPeriph_Driver/src/stm32f4xx_dac.c **** 
 323:Drivers/STM32F4xx_StdPeriph_Driver/src/stm32f4xx_dac.c ****   if (NewState != DISABLE)
 302              		.loc 1 323 3 view .LVU74
 303              		.loc 1 323 6 is_stmt 0 view .LVU75
 304 0000 28B1     		cbz	r0, .L19
 324:Drivers/STM32F4xx_StdPeriph_Driver/src/stm32f4xx_dac.c ****   {
 325:Drivers/STM32F4xx_StdPeriph_Driver/src/stm32f4xx_dac.c ****     /* Enable software trigger for both DAC channels */
 326:Drivers/STM32F4xx_StdPeriph_Driver/src/stm32f4xx_dac.c ****     DAC->SWTRIGR |= DUAL_SWTRIG_SET;
 305              		.loc 1 326 5 is_stmt 1 view .LVU76
 306              		.loc 1 326 18 is_stmt 0 view .LVU77
 307 0002 064A     		ldr	r2, .L21
 308 0004 5368     		ldr	r3, [r2, #4]
 309 0006 43F00303 		orr	r3, r3, #3
 310 000a 5360     		str	r3, [r2, #4]
 311 000c 7047     		bx	lr
ARM GAS  /tmp/cchNbth9.s 			page 12


 312              	.L19:
 327:Drivers/STM32F4xx_StdPeriph_Driver/src/stm32f4xx_dac.c ****   }
 328:Drivers/STM32F4xx_StdPeriph_Driver/src/stm32f4xx_dac.c ****   else
 329:Drivers/STM32F4xx_StdPeriph_Driver/src/stm32f4xx_dac.c ****   {
 330:Drivers/STM32F4xx_StdPeriph_Driver/src/stm32f4xx_dac.c ****     /* Disable software trigger for both DAC channels */
 331:Drivers/STM32F4xx_StdPeriph_Driver/src/stm32f4xx_dac.c ****     DAC->SWTRIGR &= DUAL_SWTRIG_RESET;
 313              		.loc 1 331 5 is_stmt 1 view .LVU78
 314              		.loc 1 331 18 is_stmt 0 view .LVU79
 315 000e 034A     		ldr	r2, .L21
 316 0010 5368     		ldr	r3, [r2, #4]
 317 0012 23F00303 		bic	r3, r3, #3
 318 0016 5360     		str	r3, [r2, #4]
 332:Drivers/STM32F4xx_StdPeriph_Driver/src/stm32f4xx_dac.c ****   }
 333:Drivers/STM32F4xx_StdPeriph_Driver/src/stm32f4xx_dac.c **** }
 319              		.loc 1 333 1 view .LVU80
 320 0018 7047     		bx	lr
 321              	.L22:
 322 001a 00BF     		.align	2
 323              	.L21:
 324 001c 00740040 		.word	1073771520
 325              		.cfi_endproc
 326              	.LFE128:
 328              		.section	.text.DAC_WaveGenerationCmd,"ax",%progbits
 329              		.align	1
 330              		.global	DAC_WaveGenerationCmd
 331              		.syntax unified
 332              		.thumb
 333              		.thumb_func
 334              		.fpu fpv4-sp-d16
 336              	DAC_WaveGenerationCmd:
 337              	.LVL24:
 338              	.LFB129:
 334:Drivers/STM32F4xx_StdPeriph_Driver/src/stm32f4xx_dac.c **** 
 335:Drivers/STM32F4xx_StdPeriph_Driver/src/stm32f4xx_dac.c **** /**
 336:Drivers/STM32F4xx_StdPeriph_Driver/src/stm32f4xx_dac.c ****   * @brief  Enables or disables the selected DAC channel wave generation.
 337:Drivers/STM32F4xx_StdPeriph_Driver/src/stm32f4xx_dac.c ****   * @param  DAC_Channel: The selected DAC channel. 
 338:Drivers/STM32F4xx_StdPeriph_Driver/src/stm32f4xx_dac.c ****   *          This parameter can be one of the following values:
 339:Drivers/STM32F4xx_StdPeriph_Driver/src/stm32f4xx_dac.c ****   *            @arg DAC_Channel_1: DAC Channel1 selected
 340:Drivers/STM32F4xx_StdPeriph_Driver/src/stm32f4xx_dac.c ****   *            @arg DAC_Channel_2: DAC Channel2 selected
 341:Drivers/STM32F4xx_StdPeriph_Driver/src/stm32f4xx_dac.c ****   * @param  DAC_Wave: specifies the wave type to enable or disable.
 342:Drivers/STM32F4xx_StdPeriph_Driver/src/stm32f4xx_dac.c ****   *          This parameter can be one of the following values:
 343:Drivers/STM32F4xx_StdPeriph_Driver/src/stm32f4xx_dac.c ****   *            @arg DAC_Wave_Noise: noise wave generation
 344:Drivers/STM32F4xx_StdPeriph_Driver/src/stm32f4xx_dac.c ****   *            @arg DAC_Wave_Triangle: triangle wave generation
 345:Drivers/STM32F4xx_StdPeriph_Driver/src/stm32f4xx_dac.c ****   * @param  NewState: new state of the selected DAC channel wave generation.
 346:Drivers/STM32F4xx_StdPeriph_Driver/src/stm32f4xx_dac.c ****   *          This parameter can be: ENABLE or DISABLE.  
 347:Drivers/STM32F4xx_StdPeriph_Driver/src/stm32f4xx_dac.c ****   * @retval None
 348:Drivers/STM32F4xx_StdPeriph_Driver/src/stm32f4xx_dac.c ****   */
 349:Drivers/STM32F4xx_StdPeriph_Driver/src/stm32f4xx_dac.c **** void DAC_WaveGenerationCmd(uint32_t DAC_Channel, uint32_t DAC_Wave, FunctionalState NewState)
 350:Drivers/STM32F4xx_StdPeriph_Driver/src/stm32f4xx_dac.c **** {
 339              		.loc 1 350 1 is_stmt 1 view -0
 340              		.cfi_startproc
 341              		@ args = 0, pretend = 0, frame = 0
 342              		@ frame_needed = 0, uses_anonymous_args = 0
 343              		@ link register save eliminated.
 351:Drivers/STM32F4xx_StdPeriph_Driver/src/stm32f4xx_dac.c ****   /* Check the parameters */
 352:Drivers/STM32F4xx_StdPeriph_Driver/src/stm32f4xx_dac.c ****   assert_param(IS_DAC_CHANNEL(DAC_Channel));
 344              		.loc 1 352 3 view .LVU82
ARM GAS  /tmp/cchNbth9.s 			page 13


 353:Drivers/STM32F4xx_StdPeriph_Driver/src/stm32f4xx_dac.c ****   assert_param(IS_DAC_WAVE(DAC_Wave)); 
 345              		.loc 1 353 3 view .LVU83
 354:Drivers/STM32F4xx_StdPeriph_Driver/src/stm32f4xx_dac.c ****   assert_param(IS_FUNCTIONAL_STATE(NewState));
 346              		.loc 1 354 3 view .LVU84
 355:Drivers/STM32F4xx_StdPeriph_Driver/src/stm32f4xx_dac.c **** 
 356:Drivers/STM32F4xx_StdPeriph_Driver/src/stm32f4xx_dac.c ****   if (NewState != DISABLE)
 347              		.loc 1 356 3 view .LVU85
 348              		.loc 1 356 6 is_stmt 0 view .LVU86
 349 0000 2AB1     		cbz	r2, .L24
 357:Drivers/STM32F4xx_StdPeriph_Driver/src/stm32f4xx_dac.c ****   {
 358:Drivers/STM32F4xx_StdPeriph_Driver/src/stm32f4xx_dac.c ****     /* Enable the selected wave generation for the selected DAC channel */
 359:Drivers/STM32F4xx_StdPeriph_Driver/src/stm32f4xx_dac.c ****     DAC->CR |= DAC_Wave << DAC_Channel;
 350              		.loc 1 359 5 is_stmt 1 view .LVU87
 351              		.loc 1 359 13 is_stmt 0 view .LVU88
 352 0002 064A     		ldr	r2, .L26
 353              	.LVL25:
 354              		.loc 1 359 13 view .LVU89
 355 0004 1368     		ldr	r3, [r2]
 356              		.loc 1 359 25 view .LVU90
 357 0006 8140     		lsls	r1, r1, r0
 358              	.LVL26:
 359              		.loc 1 359 13 view .LVU91
 360 0008 1943     		orrs	r1, r1, r3
 361 000a 1160     		str	r1, [r2]
 362 000c 7047     		bx	lr
 363              	.LVL27:
 364              	.L24:
 360:Drivers/STM32F4xx_StdPeriph_Driver/src/stm32f4xx_dac.c ****   }
 361:Drivers/STM32F4xx_StdPeriph_Driver/src/stm32f4xx_dac.c ****   else
 362:Drivers/STM32F4xx_StdPeriph_Driver/src/stm32f4xx_dac.c ****   {
 363:Drivers/STM32F4xx_StdPeriph_Driver/src/stm32f4xx_dac.c ****     /* Disable the selected wave generation for the selected DAC channel */
 364:Drivers/STM32F4xx_StdPeriph_Driver/src/stm32f4xx_dac.c ****     DAC->CR &= ~(DAC_Wave << DAC_Channel);
 365              		.loc 1 364 5 is_stmt 1 view .LVU92
 366              		.loc 1 364 13 is_stmt 0 view .LVU93
 367 000e 034A     		ldr	r2, .L26
 368              	.LVL28:
 369              		.loc 1 364 13 view .LVU94
 370 0010 1368     		ldr	r3, [r2]
 371              		.loc 1 364 27 view .LVU95
 372 0012 8140     		lsls	r1, r1, r0
 373              	.LVL29:
 374              		.loc 1 364 13 view .LVU96
 375 0014 23EA0101 		bic	r1, r3, r1
 376 0018 1160     		str	r1, [r2]
 365:Drivers/STM32F4xx_StdPeriph_Driver/src/stm32f4xx_dac.c ****   }
 366:Drivers/STM32F4xx_StdPeriph_Driver/src/stm32f4xx_dac.c **** }
 377              		.loc 1 366 1 view .LVU97
 378 001a 7047     		bx	lr
 379              	.L27:
 380              		.align	2
 381              	.L26:
 382 001c 00740040 		.word	1073771520
 383              		.cfi_endproc
 384              	.LFE129:
 386              		.section	.text.DAC_SetChannel1Data,"ax",%progbits
 387              		.align	1
 388              		.global	DAC_SetChannel1Data
ARM GAS  /tmp/cchNbth9.s 			page 14


 389              		.syntax unified
 390              		.thumb
 391              		.thumb_func
 392              		.fpu fpv4-sp-d16
 394              	DAC_SetChannel1Data:
 395              	.LVL30:
 396              	.LFB130:
 367:Drivers/STM32F4xx_StdPeriph_Driver/src/stm32f4xx_dac.c **** 
 368:Drivers/STM32F4xx_StdPeriph_Driver/src/stm32f4xx_dac.c **** /**
 369:Drivers/STM32F4xx_StdPeriph_Driver/src/stm32f4xx_dac.c ****   * @brief  Set the specified data holding register value for DAC channel1.
 370:Drivers/STM32F4xx_StdPeriph_Driver/src/stm32f4xx_dac.c ****   * @param  DAC_Align: Specifies the data alignment for DAC channel1.
 371:Drivers/STM32F4xx_StdPeriph_Driver/src/stm32f4xx_dac.c ****   *          This parameter can be one of the following values:
 372:Drivers/STM32F4xx_StdPeriph_Driver/src/stm32f4xx_dac.c ****   *            @arg DAC_Align_8b_R: 8bit right data alignment selected
 373:Drivers/STM32F4xx_StdPeriph_Driver/src/stm32f4xx_dac.c ****   *            @arg DAC_Align_12b_L: 12bit left data alignment selected
 374:Drivers/STM32F4xx_StdPeriph_Driver/src/stm32f4xx_dac.c ****   *            @arg DAC_Align_12b_R: 12bit right data alignment selected
 375:Drivers/STM32F4xx_StdPeriph_Driver/src/stm32f4xx_dac.c ****   * @param  Data: Data to be loaded in the selected data holding register.
 376:Drivers/STM32F4xx_StdPeriph_Driver/src/stm32f4xx_dac.c ****   * @retval None
 377:Drivers/STM32F4xx_StdPeriph_Driver/src/stm32f4xx_dac.c ****   */
 378:Drivers/STM32F4xx_StdPeriph_Driver/src/stm32f4xx_dac.c **** void DAC_SetChannel1Data(uint32_t DAC_Align, uint16_t Data)
 379:Drivers/STM32F4xx_StdPeriph_Driver/src/stm32f4xx_dac.c **** {  
 397              		.loc 1 379 1 is_stmt 1 view -0
 398              		.cfi_startproc
 399              		@ args = 0, pretend = 0, frame = 8
 400              		@ frame_needed = 0, uses_anonymous_args = 0
 401              		@ link register save eliminated.
 402              		.loc 1 379 1 is_stmt 0 view .LVU99
 403 0000 82B0     		sub	sp, sp, #8
 404              		.cfi_def_cfa_offset 8
 380:Drivers/STM32F4xx_StdPeriph_Driver/src/stm32f4xx_dac.c ****   __IO uint32_t tmp = 0;
 405              		.loc 1 380 3 is_stmt 1 view .LVU100
 406              		.loc 1 380 17 is_stmt 0 view .LVU101
 407 0002 0023     		movs	r3, #0
 408 0004 0193     		str	r3, [sp, #4]
 381:Drivers/STM32F4xx_StdPeriph_Driver/src/stm32f4xx_dac.c ****   
 382:Drivers/STM32F4xx_StdPeriph_Driver/src/stm32f4xx_dac.c ****   /* Check the parameters */
 383:Drivers/STM32F4xx_StdPeriph_Driver/src/stm32f4xx_dac.c ****   assert_param(IS_DAC_ALIGN(DAC_Align));
 409              		.loc 1 383 3 is_stmt 1 view .LVU102
 384:Drivers/STM32F4xx_StdPeriph_Driver/src/stm32f4xx_dac.c ****   assert_param(IS_DAC_DATA(Data));
 410              		.loc 1 384 3 view .LVU103
 385:Drivers/STM32F4xx_StdPeriph_Driver/src/stm32f4xx_dac.c ****   
 386:Drivers/STM32F4xx_StdPeriph_Driver/src/stm32f4xx_dac.c ****   tmp = (uint32_t)DAC_BASE; 
 411              		.loc 1 386 3 view .LVU104
 412              		.loc 1 386 7 is_stmt 0 view .LVU105
 413 0006 054B     		ldr	r3, .L30
 414 0008 0193     		str	r3, [sp, #4]
 387:Drivers/STM32F4xx_StdPeriph_Driver/src/stm32f4xx_dac.c ****   tmp += DHR12R1_OFFSET + DAC_Align;
 415              		.loc 1 387 3 is_stmt 1 view .LVU106
 416              		.loc 1 387 7 is_stmt 0 view .LVU107
 417 000a 019B     		ldr	r3, [sp, #4]
 418 000c 0344     		add	r3, r3, r0
 419 000e 0833     		adds	r3, r3, #8
 420 0010 0193     		str	r3, [sp, #4]
 388:Drivers/STM32F4xx_StdPeriph_Driver/src/stm32f4xx_dac.c **** 
 389:Drivers/STM32F4xx_StdPeriph_Driver/src/stm32f4xx_dac.c ****   /* Set the DAC channel1 selected data holding register */
 390:Drivers/STM32F4xx_StdPeriph_Driver/src/stm32f4xx_dac.c ****   *(__IO uint32_t *) tmp = Data;
 421              		.loc 1 390 3 is_stmt 1 view .LVU108
 422              		.loc 1 390 4 is_stmt 0 view .LVU109
ARM GAS  /tmp/cchNbth9.s 			page 15


 423 0012 019B     		ldr	r3, [sp, #4]
 424              		.loc 1 390 26 view .LVU110
 425 0014 1960     		str	r1, [r3]
 391:Drivers/STM32F4xx_StdPeriph_Driver/src/stm32f4xx_dac.c **** }
 426              		.loc 1 391 1 view .LVU111
 427 0016 02B0     		add	sp, sp, #8
 428              		.cfi_def_cfa_offset 0
 429              		@ sp needed
 430 0018 7047     		bx	lr
 431              	.L31:
 432 001a 00BF     		.align	2
 433              	.L30:
 434 001c 00740040 		.word	1073771520
 435              		.cfi_endproc
 436              	.LFE130:
 438              		.section	.text.DAC_SetChannel2Data,"ax",%progbits
 439              		.align	1
 440              		.global	DAC_SetChannel2Data
 441              		.syntax unified
 442              		.thumb
 443              		.thumb_func
 444              		.fpu fpv4-sp-d16
 446              	DAC_SetChannel2Data:
 447              	.LVL31:
 448              	.LFB131:
 392:Drivers/STM32F4xx_StdPeriph_Driver/src/stm32f4xx_dac.c **** 
 393:Drivers/STM32F4xx_StdPeriph_Driver/src/stm32f4xx_dac.c **** /**
 394:Drivers/STM32F4xx_StdPeriph_Driver/src/stm32f4xx_dac.c ****   * @brief  Set the specified data holding register value for DAC channel2.
 395:Drivers/STM32F4xx_StdPeriph_Driver/src/stm32f4xx_dac.c ****   * @param  DAC_Align: Specifies the data alignment for DAC channel2.
 396:Drivers/STM32F4xx_StdPeriph_Driver/src/stm32f4xx_dac.c ****   *          This parameter can be one of the following values:
 397:Drivers/STM32F4xx_StdPeriph_Driver/src/stm32f4xx_dac.c ****   *            @arg DAC_Align_8b_R: 8bit right data alignment selected
 398:Drivers/STM32F4xx_StdPeriph_Driver/src/stm32f4xx_dac.c ****   *            @arg DAC_Align_12b_L: 12bit left data alignment selected
 399:Drivers/STM32F4xx_StdPeriph_Driver/src/stm32f4xx_dac.c ****   *            @arg DAC_Align_12b_R: 12bit right data alignment selected
 400:Drivers/STM32F4xx_StdPeriph_Driver/src/stm32f4xx_dac.c ****   * @param  Data: Data to be loaded in the selected data holding register.
 401:Drivers/STM32F4xx_StdPeriph_Driver/src/stm32f4xx_dac.c ****   * @retval None
 402:Drivers/STM32F4xx_StdPeriph_Driver/src/stm32f4xx_dac.c ****   */
 403:Drivers/STM32F4xx_StdPeriph_Driver/src/stm32f4xx_dac.c **** void DAC_SetChannel2Data(uint32_t DAC_Align, uint16_t Data)
 404:Drivers/STM32F4xx_StdPeriph_Driver/src/stm32f4xx_dac.c **** {
 449              		.loc 1 404 1 is_stmt 1 view -0
 450              		.cfi_startproc
 451              		@ args = 0, pretend = 0, frame = 8
 452              		@ frame_needed = 0, uses_anonymous_args = 0
 453              		@ link register save eliminated.
 454              		.loc 1 404 1 is_stmt 0 view .LVU113
 455 0000 82B0     		sub	sp, sp, #8
 456              		.cfi_def_cfa_offset 8
 405:Drivers/STM32F4xx_StdPeriph_Driver/src/stm32f4xx_dac.c ****   __IO uint32_t tmp = 0;
 457              		.loc 1 405 3 is_stmt 1 view .LVU114
 458              		.loc 1 405 17 is_stmt 0 view .LVU115
 459 0002 0023     		movs	r3, #0
 460 0004 0193     		str	r3, [sp, #4]
 406:Drivers/STM32F4xx_StdPeriph_Driver/src/stm32f4xx_dac.c **** 
 407:Drivers/STM32F4xx_StdPeriph_Driver/src/stm32f4xx_dac.c ****   /* Check the parameters */
 408:Drivers/STM32F4xx_StdPeriph_Driver/src/stm32f4xx_dac.c ****   assert_param(IS_DAC_ALIGN(DAC_Align));
 461              		.loc 1 408 3 is_stmt 1 view .LVU116
 409:Drivers/STM32F4xx_StdPeriph_Driver/src/stm32f4xx_dac.c ****   assert_param(IS_DAC_DATA(Data));
 462              		.loc 1 409 3 view .LVU117
ARM GAS  /tmp/cchNbth9.s 			page 16


 410:Drivers/STM32F4xx_StdPeriph_Driver/src/stm32f4xx_dac.c ****   
 411:Drivers/STM32F4xx_StdPeriph_Driver/src/stm32f4xx_dac.c ****   tmp = (uint32_t)DAC_BASE;
 463              		.loc 1 411 3 view .LVU118
 464              		.loc 1 411 7 is_stmt 0 view .LVU119
 465 0006 054B     		ldr	r3, .L34
 466 0008 0193     		str	r3, [sp, #4]
 412:Drivers/STM32F4xx_StdPeriph_Driver/src/stm32f4xx_dac.c ****   tmp += DHR12R2_OFFSET + DAC_Align;
 467              		.loc 1 412 3 is_stmt 1 view .LVU120
 468              		.loc 1 412 7 is_stmt 0 view .LVU121
 469 000a 019B     		ldr	r3, [sp, #4]
 470 000c 0344     		add	r3, r3, r0
 471 000e 1433     		adds	r3, r3, #20
 472 0010 0193     		str	r3, [sp, #4]
 413:Drivers/STM32F4xx_StdPeriph_Driver/src/stm32f4xx_dac.c **** 
 414:Drivers/STM32F4xx_StdPeriph_Driver/src/stm32f4xx_dac.c ****   /* Set the DAC channel2 selected data holding register */
 415:Drivers/STM32F4xx_StdPeriph_Driver/src/stm32f4xx_dac.c ****   *(__IO uint32_t *)tmp = Data;
 473              		.loc 1 415 3 is_stmt 1 view .LVU122
 474              		.loc 1 415 4 is_stmt 0 view .LVU123
 475 0012 019B     		ldr	r3, [sp, #4]
 476              		.loc 1 415 25 view .LVU124
 477 0014 1960     		str	r1, [r3]
 416:Drivers/STM32F4xx_StdPeriph_Driver/src/stm32f4xx_dac.c **** }
 478              		.loc 1 416 1 view .LVU125
 479 0016 02B0     		add	sp, sp, #8
 480              		.cfi_def_cfa_offset 0
 481              		@ sp needed
 482 0018 7047     		bx	lr
 483              	.L35:
 484 001a 00BF     		.align	2
 485              	.L34:
 486 001c 00740040 		.word	1073771520
 487              		.cfi_endproc
 488              	.LFE131:
 490              		.section	.text.DAC_SetDualChannelData,"ax",%progbits
 491              		.align	1
 492              		.global	DAC_SetDualChannelData
 493              		.syntax unified
 494              		.thumb
 495              		.thumb_func
 496              		.fpu fpv4-sp-d16
 498              	DAC_SetDualChannelData:
 499              	.LVL32:
 500              	.LFB132:
 417:Drivers/STM32F4xx_StdPeriph_Driver/src/stm32f4xx_dac.c **** 
 418:Drivers/STM32F4xx_StdPeriph_Driver/src/stm32f4xx_dac.c **** /**
 419:Drivers/STM32F4xx_StdPeriph_Driver/src/stm32f4xx_dac.c ****   * @brief  Set the specified data holding register value for dual channel DAC.
 420:Drivers/STM32F4xx_StdPeriph_Driver/src/stm32f4xx_dac.c ****   * @param  DAC_Align: Specifies the data alignment for dual channel DAC.
 421:Drivers/STM32F4xx_StdPeriph_Driver/src/stm32f4xx_dac.c ****   *          This parameter can be one of the following values:
 422:Drivers/STM32F4xx_StdPeriph_Driver/src/stm32f4xx_dac.c ****   *            @arg DAC_Align_8b_R: 8bit right data alignment selected
 423:Drivers/STM32F4xx_StdPeriph_Driver/src/stm32f4xx_dac.c ****   *            @arg DAC_Align_12b_L: 12bit left data alignment selected
 424:Drivers/STM32F4xx_StdPeriph_Driver/src/stm32f4xx_dac.c ****   *            @arg DAC_Align_12b_R: 12bit right data alignment selected
 425:Drivers/STM32F4xx_StdPeriph_Driver/src/stm32f4xx_dac.c ****   * @param  Data2: Data for DAC Channel2 to be loaded in the selected data holding register.
 426:Drivers/STM32F4xx_StdPeriph_Driver/src/stm32f4xx_dac.c ****   * @param  Data1: Data for DAC Channel1 to be loaded in the selected data  holding register.
 427:Drivers/STM32F4xx_StdPeriph_Driver/src/stm32f4xx_dac.c ****   * @note   In dual mode, a unique register access is required to write in both
 428:Drivers/STM32F4xx_StdPeriph_Driver/src/stm32f4xx_dac.c ****   *          DAC channels at the same time.
 429:Drivers/STM32F4xx_StdPeriph_Driver/src/stm32f4xx_dac.c ****   * @retval None
 430:Drivers/STM32F4xx_StdPeriph_Driver/src/stm32f4xx_dac.c ****   */
ARM GAS  /tmp/cchNbth9.s 			page 17


 431:Drivers/STM32F4xx_StdPeriph_Driver/src/stm32f4xx_dac.c **** void DAC_SetDualChannelData(uint32_t DAC_Align, uint16_t Data2, uint16_t Data1)
 432:Drivers/STM32F4xx_StdPeriph_Driver/src/stm32f4xx_dac.c **** {
 501              		.loc 1 432 1 is_stmt 1 view -0
 502              		.cfi_startproc
 503              		@ args = 0, pretend = 0, frame = 0
 504              		@ frame_needed = 0, uses_anonymous_args = 0
 505              		@ link register save eliminated.
 433:Drivers/STM32F4xx_StdPeriph_Driver/src/stm32f4xx_dac.c ****   uint32_t data = 0, tmp = 0;
 506              		.loc 1 433 3 view .LVU127
 434:Drivers/STM32F4xx_StdPeriph_Driver/src/stm32f4xx_dac.c ****   
 435:Drivers/STM32F4xx_StdPeriph_Driver/src/stm32f4xx_dac.c ****   /* Check the parameters */
 436:Drivers/STM32F4xx_StdPeriph_Driver/src/stm32f4xx_dac.c ****   assert_param(IS_DAC_ALIGN(DAC_Align));
 507              		.loc 1 436 3 view .LVU128
 437:Drivers/STM32F4xx_StdPeriph_Driver/src/stm32f4xx_dac.c ****   assert_param(IS_DAC_DATA(Data1));
 508              		.loc 1 437 3 view .LVU129
 438:Drivers/STM32F4xx_StdPeriph_Driver/src/stm32f4xx_dac.c ****   assert_param(IS_DAC_DATA(Data2));
 509              		.loc 1 438 3 view .LVU130
 439:Drivers/STM32F4xx_StdPeriph_Driver/src/stm32f4xx_dac.c ****   
 440:Drivers/STM32F4xx_StdPeriph_Driver/src/stm32f4xx_dac.c ****   /* Calculate and set dual DAC data holding register value */
 441:Drivers/STM32F4xx_StdPeriph_Driver/src/stm32f4xx_dac.c ****   if (DAC_Align == DAC_Align_8b_R)
 510              		.loc 1 441 3 view .LVU131
 511              		.loc 1 441 6 is_stmt 0 view .LVU132
 512 0000 0828     		cmp	r0, #8
 513 0002 04D0     		beq	.L39
 442:Drivers/STM32F4xx_StdPeriph_Driver/src/stm32f4xx_dac.c ****   {
 443:Drivers/STM32F4xx_StdPeriph_Driver/src/stm32f4xx_dac.c ****     data = ((uint32_t)Data2 << 8) | Data1; 
 444:Drivers/STM32F4xx_StdPeriph_Driver/src/stm32f4xx_dac.c ****   }
 445:Drivers/STM32F4xx_StdPeriph_Driver/src/stm32f4xx_dac.c ****   else
 446:Drivers/STM32F4xx_StdPeriph_Driver/src/stm32f4xx_dac.c ****   {
 447:Drivers/STM32F4xx_StdPeriph_Driver/src/stm32f4xx_dac.c ****     data = ((uint32_t)Data2 << 16) | Data1;
 514              		.loc 1 447 5 is_stmt 1 view .LVU133
 515              		.loc 1 447 10 is_stmt 0 view .LVU134
 516 0004 42EA0142 		orr	r2, r2, r1, lsl #16
 517              	.LVL33:
 518              	.L38:
 448:Drivers/STM32F4xx_StdPeriph_Driver/src/stm32f4xx_dac.c ****   }
 449:Drivers/STM32F4xx_StdPeriph_Driver/src/stm32f4xx_dac.c ****   
 450:Drivers/STM32F4xx_StdPeriph_Driver/src/stm32f4xx_dac.c ****   tmp = (uint32_t)DAC_BASE;
 519              		.loc 1 450 3 is_stmt 1 view .LVU135
 451:Drivers/STM32F4xx_StdPeriph_Driver/src/stm32f4xx_dac.c ****   tmp += DHR12RD_OFFSET + DAC_Align;
 520              		.loc 1 451 3 view .LVU136
 521              		.loc 1 451 7 is_stmt 0 view .LVU137
 522 0008 024B     		ldr	r3, .L40
 523              	.LVL34:
 452:Drivers/STM32F4xx_StdPeriph_Driver/src/stm32f4xx_dac.c **** 
 453:Drivers/STM32F4xx_StdPeriph_Driver/src/stm32f4xx_dac.c ****   /* Set the dual DAC selected data holding register */
 454:Drivers/STM32F4xx_StdPeriph_Driver/src/stm32f4xx_dac.c ****   *(__IO uint32_t *)tmp = data;
 524              		.loc 1 454 3 is_stmt 1 view .LVU138
 525              		.loc 1 454 25 is_stmt 0 view .LVU139
 526 000a C250     		str	r2, [r0, r3]
 455:Drivers/STM32F4xx_StdPeriph_Driver/src/stm32f4xx_dac.c **** }
 527              		.loc 1 455 1 view .LVU140
 528 000c 7047     		bx	lr
 529              	.LVL35:
 530              	.L39:
 443:Drivers/STM32F4xx_StdPeriph_Driver/src/stm32f4xx_dac.c ****   }
 531              		.loc 1 443 5 is_stmt 1 view .LVU141
ARM GAS  /tmp/cchNbth9.s 			page 18


 443:Drivers/STM32F4xx_StdPeriph_Driver/src/stm32f4xx_dac.c ****   }
 532              		.loc 1 443 10 is_stmt 0 view .LVU142
 533 000e 42EA0122 		orr	r2, r2, r1, lsl #8
 534              	.LVL36:
 443:Drivers/STM32F4xx_StdPeriph_Driver/src/stm32f4xx_dac.c ****   }
 535              		.loc 1 443 10 view .LVU143
 536 0012 F9E7     		b	.L38
 537              	.L41:
 538              		.align	2
 539              	.L40:
 540 0014 20740040 		.word	1073771552
 541              		.cfi_endproc
 542              	.LFE132:
 544              		.section	.text.DAC_GetDataOutputValue,"ax",%progbits
 545              		.align	1
 546              		.global	DAC_GetDataOutputValue
 547              		.syntax unified
 548              		.thumb
 549              		.thumb_func
 550              		.fpu fpv4-sp-d16
 552              	DAC_GetDataOutputValue:
 553              	.LVL37:
 554              	.LFB133:
 456:Drivers/STM32F4xx_StdPeriph_Driver/src/stm32f4xx_dac.c **** 
 457:Drivers/STM32F4xx_StdPeriph_Driver/src/stm32f4xx_dac.c **** /**
 458:Drivers/STM32F4xx_StdPeriph_Driver/src/stm32f4xx_dac.c ****   * @brief  Returns the last data output value of the selected DAC channel.
 459:Drivers/STM32F4xx_StdPeriph_Driver/src/stm32f4xx_dac.c ****   * @param  DAC_Channel: The selected DAC channel. 
 460:Drivers/STM32F4xx_StdPeriph_Driver/src/stm32f4xx_dac.c ****   *          This parameter can be one of the following values:
 461:Drivers/STM32F4xx_StdPeriph_Driver/src/stm32f4xx_dac.c ****   *            @arg DAC_Channel_1: DAC Channel1 selected
 462:Drivers/STM32F4xx_StdPeriph_Driver/src/stm32f4xx_dac.c ****   *            @arg DAC_Channel_2: DAC Channel2 selected
 463:Drivers/STM32F4xx_StdPeriph_Driver/src/stm32f4xx_dac.c ****   * @retval The selected DAC channel data output value.
 464:Drivers/STM32F4xx_StdPeriph_Driver/src/stm32f4xx_dac.c ****   */
 465:Drivers/STM32F4xx_StdPeriph_Driver/src/stm32f4xx_dac.c **** uint16_t DAC_GetDataOutputValue(uint32_t DAC_Channel)
 466:Drivers/STM32F4xx_StdPeriph_Driver/src/stm32f4xx_dac.c **** {
 555              		.loc 1 466 1 is_stmt 1 view -0
 556              		.cfi_startproc
 557              		@ args = 0, pretend = 0, frame = 8
 558              		@ frame_needed = 0, uses_anonymous_args = 0
 559              		@ link register save eliminated.
 560              		.loc 1 466 1 is_stmt 0 view .LVU145
 561 0000 82B0     		sub	sp, sp, #8
 562              		.cfi_def_cfa_offset 8
 467:Drivers/STM32F4xx_StdPeriph_Driver/src/stm32f4xx_dac.c ****   __IO uint32_t tmp = 0;
 563              		.loc 1 467 3 is_stmt 1 view .LVU146
 564              		.loc 1 467 17 is_stmt 0 view .LVU147
 565 0002 0023     		movs	r3, #0
 566 0004 0193     		str	r3, [sp, #4]
 468:Drivers/STM32F4xx_StdPeriph_Driver/src/stm32f4xx_dac.c ****   
 469:Drivers/STM32F4xx_StdPeriph_Driver/src/stm32f4xx_dac.c ****   /* Check the parameters */
 470:Drivers/STM32F4xx_StdPeriph_Driver/src/stm32f4xx_dac.c ****   assert_param(IS_DAC_CHANNEL(DAC_Channel));
 567              		.loc 1 470 3 is_stmt 1 view .LVU148
 471:Drivers/STM32F4xx_StdPeriph_Driver/src/stm32f4xx_dac.c ****   
 472:Drivers/STM32F4xx_StdPeriph_Driver/src/stm32f4xx_dac.c ****   tmp = (uint32_t) DAC_BASE ;
 568              		.loc 1 472 3 view .LVU149
 569              		.loc 1 472 7 is_stmt 0 view .LVU150
 570 0006 064B     		ldr	r3, .L44
 571 0008 0193     		str	r3, [sp, #4]
ARM GAS  /tmp/cchNbth9.s 			page 19


 473:Drivers/STM32F4xx_StdPeriph_Driver/src/stm32f4xx_dac.c ****   tmp += DOR_OFFSET + ((uint32_t)DAC_Channel >> 2);
 572              		.loc 1 473 3 is_stmt 1 view .LVU151
 573              		.loc 1 473 7 is_stmt 0 view .LVU152
 574 000a 019B     		ldr	r3, [sp, #4]
 575 000c 03EB9003 		add	r3, r3, r0, lsr #2
 576 0010 2C33     		adds	r3, r3, #44
 577 0012 0193     		str	r3, [sp, #4]
 474:Drivers/STM32F4xx_StdPeriph_Driver/src/stm32f4xx_dac.c ****   
 475:Drivers/STM32F4xx_StdPeriph_Driver/src/stm32f4xx_dac.c ****   /* Returns the DAC channel data output register value */
 476:Drivers/STM32F4xx_StdPeriph_Driver/src/stm32f4xx_dac.c ****   return (uint16_t) (*(__IO uint32_t*) tmp);
 578              		.loc 1 476 3 is_stmt 1 view .LVU153
 579              		.loc 1 476 23 is_stmt 0 view .LVU154
 580 0014 019B     		ldr	r3, [sp, #4]
 581              		.loc 1 476 22 view .LVU155
 582 0016 1868     		ldr	r0, [r3]
 583              	.LVL38:
 477:Drivers/STM32F4xx_StdPeriph_Driver/src/stm32f4xx_dac.c **** }
 584              		.loc 1 477 1 view .LVU156
 585 0018 80B2     		uxth	r0, r0
 586 001a 02B0     		add	sp, sp, #8
 587              		.cfi_def_cfa_offset 0
 588              		@ sp needed
 589 001c 7047     		bx	lr
 590              	.L45:
 591 001e 00BF     		.align	2
 592              	.L44:
 593 0020 00740040 		.word	1073771520
 594              		.cfi_endproc
 595              	.LFE133:
 597              		.section	.text.DAC_DMACmd,"ax",%progbits
 598              		.align	1
 599              		.global	DAC_DMACmd
 600              		.syntax unified
 601              		.thumb
 602              		.thumb_func
 603              		.fpu fpv4-sp-d16
 605              	DAC_DMACmd:
 606              	.LVL39:
 607              	.LFB134:
 478:Drivers/STM32F4xx_StdPeriph_Driver/src/stm32f4xx_dac.c **** /**
 479:Drivers/STM32F4xx_StdPeriph_Driver/src/stm32f4xx_dac.c ****   * @}
 480:Drivers/STM32F4xx_StdPeriph_Driver/src/stm32f4xx_dac.c ****   */
 481:Drivers/STM32F4xx_StdPeriph_Driver/src/stm32f4xx_dac.c **** 
 482:Drivers/STM32F4xx_StdPeriph_Driver/src/stm32f4xx_dac.c **** /** @defgroup DAC_Group2 DMA management functions
 483:Drivers/STM32F4xx_StdPeriph_Driver/src/stm32f4xx_dac.c ****  *  @brief   DMA management functions
 484:Drivers/STM32F4xx_StdPeriph_Driver/src/stm32f4xx_dac.c ****  *
 485:Drivers/STM32F4xx_StdPeriph_Driver/src/stm32f4xx_dac.c **** @verbatim   
 486:Drivers/STM32F4xx_StdPeriph_Driver/src/stm32f4xx_dac.c ****  ===============================================================================
 487:Drivers/STM32F4xx_StdPeriph_Driver/src/stm32f4xx_dac.c ****                        ##### DMA management functions #####
 488:Drivers/STM32F4xx_StdPeriph_Driver/src/stm32f4xx_dac.c ****  ===============================================================================  
 489:Drivers/STM32F4xx_StdPeriph_Driver/src/stm32f4xx_dac.c **** 
 490:Drivers/STM32F4xx_StdPeriph_Driver/src/stm32f4xx_dac.c **** @endverbatim
 491:Drivers/STM32F4xx_StdPeriph_Driver/src/stm32f4xx_dac.c ****   * @{
 492:Drivers/STM32F4xx_StdPeriph_Driver/src/stm32f4xx_dac.c ****   */
 493:Drivers/STM32F4xx_StdPeriph_Driver/src/stm32f4xx_dac.c **** 
 494:Drivers/STM32F4xx_StdPeriph_Driver/src/stm32f4xx_dac.c **** /**
 495:Drivers/STM32F4xx_StdPeriph_Driver/src/stm32f4xx_dac.c ****   * @brief  Enables or disables the specified DAC channel DMA request.
ARM GAS  /tmp/cchNbth9.s 			page 20


 496:Drivers/STM32F4xx_StdPeriph_Driver/src/stm32f4xx_dac.c ****   * @note   When enabled DMA1 is generated when an external trigger (EXTI Line9,
 497:Drivers/STM32F4xx_StdPeriph_Driver/src/stm32f4xx_dac.c ****   *         TIM2, TIM4, TIM5, TIM6, TIM7 or TIM8  but not a software trigger) occurs.
 498:Drivers/STM32F4xx_StdPeriph_Driver/src/stm32f4xx_dac.c ****   * @param  DAC_Channel: The selected DAC channel. 
 499:Drivers/STM32F4xx_StdPeriph_Driver/src/stm32f4xx_dac.c ****   *          This parameter can be one of the following values:
 500:Drivers/STM32F4xx_StdPeriph_Driver/src/stm32f4xx_dac.c ****   *            @arg DAC_Channel_1: DAC Channel1 selected
 501:Drivers/STM32F4xx_StdPeriph_Driver/src/stm32f4xx_dac.c ****   *            @arg DAC_Channel_2: DAC Channel2 selected
 502:Drivers/STM32F4xx_StdPeriph_Driver/src/stm32f4xx_dac.c ****   * @param  NewState: new state of the selected DAC channel DMA request.
 503:Drivers/STM32F4xx_StdPeriph_Driver/src/stm32f4xx_dac.c ****   *          This parameter can be: ENABLE or DISABLE.
 504:Drivers/STM32F4xx_StdPeriph_Driver/src/stm32f4xx_dac.c ****   * @note   The DAC channel1 is mapped on DMA1 Stream 5 channel7 which must be
 505:Drivers/STM32F4xx_StdPeriph_Driver/src/stm32f4xx_dac.c ****   *          already configured.
 506:Drivers/STM32F4xx_StdPeriph_Driver/src/stm32f4xx_dac.c ****   * @note   The DAC channel2 is mapped on DMA1 Stream 6 channel7 which must be
 507:Drivers/STM32F4xx_StdPeriph_Driver/src/stm32f4xx_dac.c ****   *          already configured.    
 508:Drivers/STM32F4xx_StdPeriph_Driver/src/stm32f4xx_dac.c ****   * @retval None
 509:Drivers/STM32F4xx_StdPeriph_Driver/src/stm32f4xx_dac.c ****   */
 510:Drivers/STM32F4xx_StdPeriph_Driver/src/stm32f4xx_dac.c **** void DAC_DMACmd(uint32_t DAC_Channel, FunctionalState NewState)
 511:Drivers/STM32F4xx_StdPeriph_Driver/src/stm32f4xx_dac.c **** {
 608              		.loc 1 511 1 is_stmt 1 view -0
 609              		.cfi_startproc
 610              		@ args = 0, pretend = 0, frame = 0
 611              		@ frame_needed = 0, uses_anonymous_args = 0
 612              		@ link register save eliminated.
 512:Drivers/STM32F4xx_StdPeriph_Driver/src/stm32f4xx_dac.c ****   /* Check the parameters */
 513:Drivers/STM32F4xx_StdPeriph_Driver/src/stm32f4xx_dac.c ****   assert_param(IS_DAC_CHANNEL(DAC_Channel));
 613              		.loc 1 513 3 view .LVU158
 514:Drivers/STM32F4xx_StdPeriph_Driver/src/stm32f4xx_dac.c ****   assert_param(IS_FUNCTIONAL_STATE(NewState));
 614              		.loc 1 514 3 view .LVU159
 515:Drivers/STM32F4xx_StdPeriph_Driver/src/stm32f4xx_dac.c **** 
 516:Drivers/STM32F4xx_StdPeriph_Driver/src/stm32f4xx_dac.c ****   if (NewState != DISABLE)
 615              		.loc 1 516 3 view .LVU160
 616              		.loc 1 516 6 is_stmt 0 view .LVU161
 617 0000 41B1     		cbz	r1, .L47
 517:Drivers/STM32F4xx_StdPeriph_Driver/src/stm32f4xx_dac.c ****   {
 518:Drivers/STM32F4xx_StdPeriph_Driver/src/stm32f4xx_dac.c ****     /* Enable the selected DAC channel DMA request */
 519:Drivers/STM32F4xx_StdPeriph_Driver/src/stm32f4xx_dac.c ****     DAC->CR |= (DAC_CR_DMAEN1 << DAC_Channel);
 618              		.loc 1 519 5 is_stmt 1 view .LVU162
 619              		.loc 1 519 13 is_stmt 0 view .LVU163
 620 0002 0949     		ldr	r1, .L49
 621              	.LVL40:
 622              		.loc 1 519 13 view .LVU164
 623 0004 0B68     		ldr	r3, [r1]
 624              		.loc 1 519 31 view .LVU165
 625 0006 4FF48052 		mov	r2, #4096
 626 000a 02FA00F0 		lsl	r0, r2, r0
 627              	.LVL41:
 628              		.loc 1 519 13 view .LVU166
 629 000e 1843     		orrs	r0, r0, r3
 630 0010 0860     		str	r0, [r1]
 631 0012 7047     		bx	lr
 632              	.LVL42:
 633              	.L47:
 520:Drivers/STM32F4xx_StdPeriph_Driver/src/stm32f4xx_dac.c ****   }
 521:Drivers/STM32F4xx_StdPeriph_Driver/src/stm32f4xx_dac.c ****   else
 522:Drivers/STM32F4xx_StdPeriph_Driver/src/stm32f4xx_dac.c ****   {
 523:Drivers/STM32F4xx_StdPeriph_Driver/src/stm32f4xx_dac.c ****     /* Disable the selected DAC channel DMA request */
 524:Drivers/STM32F4xx_StdPeriph_Driver/src/stm32f4xx_dac.c ****     DAC->CR &= (~(DAC_CR_DMAEN1 << DAC_Channel));
 634              		.loc 1 524 5 is_stmt 1 view .LVU167
 635              		.loc 1 524 13 is_stmt 0 view .LVU168
ARM GAS  /tmp/cchNbth9.s 			page 21


 636 0014 0449     		ldr	r1, .L49
 637              	.LVL43:
 638              		.loc 1 524 13 view .LVU169
 639 0016 0B68     		ldr	r3, [r1]
 640              		.loc 1 524 33 view .LVU170
 641 0018 4FF48052 		mov	r2, #4096
 642 001c 02FA00F0 		lsl	r0, r2, r0
 643              	.LVL44:
 644              		.loc 1 524 13 view .LVU171
 645 0020 23EA0000 		bic	r0, r3, r0
 646 0024 0860     		str	r0, [r1]
 525:Drivers/STM32F4xx_StdPeriph_Driver/src/stm32f4xx_dac.c ****   }
 526:Drivers/STM32F4xx_StdPeriph_Driver/src/stm32f4xx_dac.c **** }
 647              		.loc 1 526 1 view .LVU172
 648 0026 7047     		bx	lr
 649              	.L50:
 650              		.align	2
 651              	.L49:
 652 0028 00740040 		.word	1073771520
 653              		.cfi_endproc
 654              	.LFE134:
 656              		.section	.text.DAC_ITConfig,"ax",%progbits
 657              		.align	1
 658              		.global	DAC_ITConfig
 659              		.syntax unified
 660              		.thumb
 661              		.thumb_func
 662              		.fpu fpv4-sp-d16
 664              	DAC_ITConfig:
 665              	.LVL45:
 666              	.LFB135:
 527:Drivers/STM32F4xx_StdPeriph_Driver/src/stm32f4xx_dac.c **** /**
 528:Drivers/STM32F4xx_StdPeriph_Driver/src/stm32f4xx_dac.c ****   * @}
 529:Drivers/STM32F4xx_StdPeriph_Driver/src/stm32f4xx_dac.c ****   */
 530:Drivers/STM32F4xx_StdPeriph_Driver/src/stm32f4xx_dac.c **** 
 531:Drivers/STM32F4xx_StdPeriph_Driver/src/stm32f4xx_dac.c **** /** @defgroup DAC_Group3 Interrupts and flags management functions
 532:Drivers/STM32F4xx_StdPeriph_Driver/src/stm32f4xx_dac.c ****  *  @brief   Interrupts and flags management functions
 533:Drivers/STM32F4xx_StdPeriph_Driver/src/stm32f4xx_dac.c ****  *
 534:Drivers/STM32F4xx_StdPeriph_Driver/src/stm32f4xx_dac.c **** @verbatim   
 535:Drivers/STM32F4xx_StdPeriph_Driver/src/stm32f4xx_dac.c ****  ===============================================================================
 536:Drivers/STM32F4xx_StdPeriph_Driver/src/stm32f4xx_dac.c ****              ##### Interrupts and flags management functions #####
 537:Drivers/STM32F4xx_StdPeriph_Driver/src/stm32f4xx_dac.c ****  ===============================================================================  
 538:Drivers/STM32F4xx_StdPeriph_Driver/src/stm32f4xx_dac.c **** 
 539:Drivers/STM32F4xx_StdPeriph_Driver/src/stm32f4xx_dac.c **** @endverbatim
 540:Drivers/STM32F4xx_StdPeriph_Driver/src/stm32f4xx_dac.c ****   * @{
 541:Drivers/STM32F4xx_StdPeriph_Driver/src/stm32f4xx_dac.c ****   */
 542:Drivers/STM32F4xx_StdPeriph_Driver/src/stm32f4xx_dac.c **** 
 543:Drivers/STM32F4xx_StdPeriph_Driver/src/stm32f4xx_dac.c **** /**
 544:Drivers/STM32F4xx_StdPeriph_Driver/src/stm32f4xx_dac.c ****   * @brief  Enables or disables the specified DAC interrupts.
 545:Drivers/STM32F4xx_StdPeriph_Driver/src/stm32f4xx_dac.c ****   * @param  DAC_Channel: The selected DAC channel. 
 546:Drivers/STM32F4xx_StdPeriph_Driver/src/stm32f4xx_dac.c ****   *          This parameter can be one of the following values:
 547:Drivers/STM32F4xx_StdPeriph_Driver/src/stm32f4xx_dac.c ****   *            @arg DAC_Channel_1: DAC Channel1 selected
 548:Drivers/STM32F4xx_StdPeriph_Driver/src/stm32f4xx_dac.c ****   *            @arg DAC_Channel_2: DAC Channel2 selected
 549:Drivers/STM32F4xx_StdPeriph_Driver/src/stm32f4xx_dac.c ****   * @param  DAC_IT: specifies the DAC interrupt sources to be enabled or disabled. 
 550:Drivers/STM32F4xx_StdPeriph_Driver/src/stm32f4xx_dac.c ****   *          This parameter can be the following values:
 551:Drivers/STM32F4xx_StdPeriph_Driver/src/stm32f4xx_dac.c ****   *            @arg DAC_IT_DMAUDR: DMA underrun interrupt mask
 552:Drivers/STM32F4xx_StdPeriph_Driver/src/stm32f4xx_dac.c ****   * @note   The DMA underrun occurs when a second external trigger arrives before the 
ARM GAS  /tmp/cchNbth9.s 			page 22


 553:Drivers/STM32F4xx_StdPeriph_Driver/src/stm32f4xx_dac.c ****   *         acknowledgement for the first external trigger is received (first request).
 554:Drivers/STM32F4xx_StdPeriph_Driver/src/stm32f4xx_dac.c ****   * @param  NewState: new state of the specified DAC interrupts.
 555:Drivers/STM32F4xx_StdPeriph_Driver/src/stm32f4xx_dac.c ****   *          This parameter can be: ENABLE or DISABLE.
 556:Drivers/STM32F4xx_StdPeriph_Driver/src/stm32f4xx_dac.c ****   * @retval None
 557:Drivers/STM32F4xx_StdPeriph_Driver/src/stm32f4xx_dac.c ****   */ 
 558:Drivers/STM32F4xx_StdPeriph_Driver/src/stm32f4xx_dac.c **** void DAC_ITConfig(uint32_t DAC_Channel, uint32_t DAC_IT, FunctionalState NewState)  
 559:Drivers/STM32F4xx_StdPeriph_Driver/src/stm32f4xx_dac.c **** {
 667              		.loc 1 559 1 is_stmt 1 view -0
 668              		.cfi_startproc
 669              		@ args = 0, pretend = 0, frame = 0
 670              		@ frame_needed = 0, uses_anonymous_args = 0
 671              		@ link register save eliminated.
 560:Drivers/STM32F4xx_StdPeriph_Driver/src/stm32f4xx_dac.c ****   /* Check the parameters */
 561:Drivers/STM32F4xx_StdPeriph_Driver/src/stm32f4xx_dac.c ****   assert_param(IS_DAC_CHANNEL(DAC_Channel));
 672              		.loc 1 561 3 view .LVU174
 562:Drivers/STM32F4xx_StdPeriph_Driver/src/stm32f4xx_dac.c ****   assert_param(IS_FUNCTIONAL_STATE(NewState));
 673              		.loc 1 562 3 view .LVU175
 563:Drivers/STM32F4xx_StdPeriph_Driver/src/stm32f4xx_dac.c ****   assert_param(IS_DAC_IT(DAC_IT)); 
 674              		.loc 1 563 3 view .LVU176
 564:Drivers/STM32F4xx_StdPeriph_Driver/src/stm32f4xx_dac.c **** 
 565:Drivers/STM32F4xx_StdPeriph_Driver/src/stm32f4xx_dac.c ****   if (NewState != DISABLE)
 675              		.loc 1 565 3 view .LVU177
 676              		.loc 1 565 6 is_stmt 0 view .LVU178
 677 0000 2AB1     		cbz	r2, .L52
 566:Drivers/STM32F4xx_StdPeriph_Driver/src/stm32f4xx_dac.c ****   {
 567:Drivers/STM32F4xx_StdPeriph_Driver/src/stm32f4xx_dac.c ****     /* Enable the selected DAC interrupts */
 568:Drivers/STM32F4xx_StdPeriph_Driver/src/stm32f4xx_dac.c ****     DAC->CR |=  (DAC_IT << DAC_Channel);
 678              		.loc 1 568 5 is_stmt 1 view .LVU179
 679              		.loc 1 568 13 is_stmt 0 view .LVU180
 680 0002 064A     		ldr	r2, .L54
 681              	.LVL46:
 682              		.loc 1 568 13 view .LVU181
 683 0004 1368     		ldr	r3, [r2]
 684              		.loc 1 568 25 view .LVU182
 685 0006 8140     		lsls	r1, r1, r0
 686              	.LVL47:
 687              		.loc 1 568 13 view .LVU183
 688 0008 1943     		orrs	r1, r1, r3
 689 000a 1160     		str	r1, [r2]
 690 000c 7047     		bx	lr
 691              	.LVL48:
 692              	.L52:
 569:Drivers/STM32F4xx_StdPeriph_Driver/src/stm32f4xx_dac.c ****   }
 570:Drivers/STM32F4xx_StdPeriph_Driver/src/stm32f4xx_dac.c ****   else
 571:Drivers/STM32F4xx_StdPeriph_Driver/src/stm32f4xx_dac.c ****   {
 572:Drivers/STM32F4xx_StdPeriph_Driver/src/stm32f4xx_dac.c ****     /* Disable the selected DAC interrupts */
 573:Drivers/STM32F4xx_StdPeriph_Driver/src/stm32f4xx_dac.c ****     DAC->CR &= (~(uint32_t)(DAC_IT << DAC_Channel));
 693              		.loc 1 573 5 is_stmt 1 view .LVU184
 694              		.loc 1 573 13 is_stmt 0 view .LVU185
 695 000e 034A     		ldr	r2, .L54
 696              	.LVL49:
 697              		.loc 1 573 13 view .LVU186
 698 0010 1368     		ldr	r3, [r2]
 699              		.loc 1 573 36 view .LVU187
 700 0012 8140     		lsls	r1, r1, r0
 701              	.LVL50:
 702              		.loc 1 573 13 view .LVU188
ARM GAS  /tmp/cchNbth9.s 			page 23


 703 0014 23EA0101 		bic	r1, r3, r1
 704 0018 1160     		str	r1, [r2]
 574:Drivers/STM32F4xx_StdPeriph_Driver/src/stm32f4xx_dac.c ****   }
 575:Drivers/STM32F4xx_StdPeriph_Driver/src/stm32f4xx_dac.c **** }
 705              		.loc 1 575 1 view .LVU189
 706 001a 7047     		bx	lr
 707              	.L55:
 708              		.align	2
 709              	.L54:
 710 001c 00740040 		.word	1073771520
 711              		.cfi_endproc
 712              	.LFE135:
 714              		.section	.text.DAC_GetFlagStatus,"ax",%progbits
 715              		.align	1
 716              		.global	DAC_GetFlagStatus
 717              		.syntax unified
 718              		.thumb
 719              		.thumb_func
 720              		.fpu fpv4-sp-d16
 722              	DAC_GetFlagStatus:
 723              	.LVL51:
 724              	.LFB136:
 576:Drivers/STM32F4xx_StdPeriph_Driver/src/stm32f4xx_dac.c **** 
 577:Drivers/STM32F4xx_StdPeriph_Driver/src/stm32f4xx_dac.c **** /**
 578:Drivers/STM32F4xx_StdPeriph_Driver/src/stm32f4xx_dac.c ****   * @brief  Checks whether the specified DAC flag is set or not.
 579:Drivers/STM32F4xx_StdPeriph_Driver/src/stm32f4xx_dac.c ****   * @param  DAC_Channel: The selected DAC channel. 
 580:Drivers/STM32F4xx_StdPeriph_Driver/src/stm32f4xx_dac.c ****   *          This parameter can be one of the following values:
 581:Drivers/STM32F4xx_StdPeriph_Driver/src/stm32f4xx_dac.c ****   *            @arg DAC_Channel_1: DAC Channel1 selected
 582:Drivers/STM32F4xx_StdPeriph_Driver/src/stm32f4xx_dac.c ****   *            @arg DAC_Channel_2: DAC Channel2 selected
 583:Drivers/STM32F4xx_StdPeriph_Driver/src/stm32f4xx_dac.c ****   * @param  DAC_FLAG: specifies the flag to check. 
 584:Drivers/STM32F4xx_StdPeriph_Driver/src/stm32f4xx_dac.c ****   *          This parameter can be only of the following value:
 585:Drivers/STM32F4xx_StdPeriph_Driver/src/stm32f4xx_dac.c ****   *            @arg DAC_FLAG_DMAUDR: DMA underrun flag
 586:Drivers/STM32F4xx_StdPeriph_Driver/src/stm32f4xx_dac.c ****   * @note   The DMA underrun occurs when a second external trigger arrives before the 
 587:Drivers/STM32F4xx_StdPeriph_Driver/src/stm32f4xx_dac.c ****   *         acknowledgement for the first external trigger is received (first request).
 588:Drivers/STM32F4xx_StdPeriph_Driver/src/stm32f4xx_dac.c ****   * @retval The new state of DAC_FLAG (SET or RESET).
 589:Drivers/STM32F4xx_StdPeriph_Driver/src/stm32f4xx_dac.c ****   */
 590:Drivers/STM32F4xx_StdPeriph_Driver/src/stm32f4xx_dac.c **** FlagStatus DAC_GetFlagStatus(uint32_t DAC_Channel, uint32_t DAC_FLAG)
 591:Drivers/STM32F4xx_StdPeriph_Driver/src/stm32f4xx_dac.c **** {
 725              		.loc 1 591 1 is_stmt 1 view -0
 726              		.cfi_startproc
 727              		@ args = 0, pretend = 0, frame = 0
 728              		@ frame_needed = 0, uses_anonymous_args = 0
 729              		@ link register save eliminated.
 592:Drivers/STM32F4xx_StdPeriph_Driver/src/stm32f4xx_dac.c ****   FlagStatus bitstatus = RESET;
 730              		.loc 1 592 3 view .LVU191
 593:Drivers/STM32F4xx_StdPeriph_Driver/src/stm32f4xx_dac.c ****   /* Check the parameters */
 594:Drivers/STM32F4xx_StdPeriph_Driver/src/stm32f4xx_dac.c ****   assert_param(IS_DAC_CHANNEL(DAC_Channel));
 731              		.loc 1 594 3 view .LVU192
 595:Drivers/STM32F4xx_StdPeriph_Driver/src/stm32f4xx_dac.c ****   assert_param(IS_DAC_FLAG(DAC_FLAG));
 732              		.loc 1 595 3 view .LVU193
 596:Drivers/STM32F4xx_StdPeriph_Driver/src/stm32f4xx_dac.c **** 
 597:Drivers/STM32F4xx_StdPeriph_Driver/src/stm32f4xx_dac.c ****   /* Check the status of the specified DAC flag */
 598:Drivers/STM32F4xx_StdPeriph_Driver/src/stm32f4xx_dac.c ****   if ((DAC->SR & (DAC_FLAG << DAC_Channel)) != (uint8_t)RESET)
 733              		.loc 1 598 3 view .LVU194
 734              		.loc 1 598 11 is_stmt 0 view .LVU195
 735 0000 044B     		ldr	r3, .L59
 736 0002 5B6B     		ldr	r3, [r3, #52]
ARM GAS  /tmp/cchNbth9.s 			page 24


 737              		.loc 1 598 28 view .LVU196
 738 0004 8140     		lsls	r1, r1, r0
 739              	.LVL52:
 740              		.loc 1 598 6 view .LVU197
 741 0006 0B42     		tst	r3, r1
 742 0008 01D0     		beq	.L58
 599:Drivers/STM32F4xx_StdPeriph_Driver/src/stm32f4xx_dac.c ****   {
 600:Drivers/STM32F4xx_StdPeriph_Driver/src/stm32f4xx_dac.c ****     /* DAC_FLAG is set */
 601:Drivers/STM32F4xx_StdPeriph_Driver/src/stm32f4xx_dac.c ****     bitstatus = SET;
 743              		.loc 1 601 15 view .LVU198
 744 000a 0120     		movs	r0, #1
 745              	.LVL53:
 746              		.loc 1 601 15 view .LVU199
 747 000c 7047     		bx	lr
 748              	.LVL54:
 749              	.L58:
 602:Drivers/STM32F4xx_StdPeriph_Driver/src/stm32f4xx_dac.c ****   }
 603:Drivers/STM32F4xx_StdPeriph_Driver/src/stm32f4xx_dac.c ****   else
 604:Drivers/STM32F4xx_StdPeriph_Driver/src/stm32f4xx_dac.c ****   {
 605:Drivers/STM32F4xx_StdPeriph_Driver/src/stm32f4xx_dac.c ****     /* DAC_FLAG is reset */
 606:Drivers/STM32F4xx_StdPeriph_Driver/src/stm32f4xx_dac.c ****     bitstatus = RESET;
 750              		.loc 1 606 15 view .LVU200
 751 000e 0020     		movs	r0, #0
 752              	.LVL55:
 607:Drivers/STM32F4xx_StdPeriph_Driver/src/stm32f4xx_dac.c ****   }
 608:Drivers/STM32F4xx_StdPeriph_Driver/src/stm32f4xx_dac.c ****   /* Return the DAC_FLAG status */
 609:Drivers/STM32F4xx_StdPeriph_Driver/src/stm32f4xx_dac.c ****   return  bitstatus;
 753              		.loc 1 609 3 is_stmt 1 view .LVU201
 610:Drivers/STM32F4xx_StdPeriph_Driver/src/stm32f4xx_dac.c **** }
 754              		.loc 1 610 1 is_stmt 0 view .LVU202
 755 0010 7047     		bx	lr
 756              	.L60:
 757 0012 00BF     		.align	2
 758              	.L59:
 759 0014 00740040 		.word	1073771520
 760              		.cfi_endproc
 761              	.LFE136:
 763              		.section	.text.DAC_ClearFlag,"ax",%progbits
 764              		.align	1
 765              		.global	DAC_ClearFlag
 766              		.syntax unified
 767              		.thumb
 768              		.thumb_func
 769              		.fpu fpv4-sp-d16
 771              	DAC_ClearFlag:
 772              	.LVL56:
 773              	.LFB137:
 611:Drivers/STM32F4xx_StdPeriph_Driver/src/stm32f4xx_dac.c **** 
 612:Drivers/STM32F4xx_StdPeriph_Driver/src/stm32f4xx_dac.c **** /**
 613:Drivers/STM32F4xx_StdPeriph_Driver/src/stm32f4xx_dac.c ****   * @brief  Clears the DAC channel's pending flags.
 614:Drivers/STM32F4xx_StdPeriph_Driver/src/stm32f4xx_dac.c ****   * @param  DAC_Channel: The selected DAC channel. 
 615:Drivers/STM32F4xx_StdPeriph_Driver/src/stm32f4xx_dac.c ****   *          This parameter can be one of the following values:
 616:Drivers/STM32F4xx_StdPeriph_Driver/src/stm32f4xx_dac.c ****   *            @arg DAC_Channel_1: DAC Channel1 selected
 617:Drivers/STM32F4xx_StdPeriph_Driver/src/stm32f4xx_dac.c ****   *            @arg DAC_Channel_2: DAC Channel2 selected
 618:Drivers/STM32F4xx_StdPeriph_Driver/src/stm32f4xx_dac.c ****   * @param  DAC_FLAG: specifies the flag to clear. 
 619:Drivers/STM32F4xx_StdPeriph_Driver/src/stm32f4xx_dac.c ****   *          This parameter can be of the following value:
 620:Drivers/STM32F4xx_StdPeriph_Driver/src/stm32f4xx_dac.c ****   *            @arg DAC_FLAG_DMAUDR: DMA underrun flag 
ARM GAS  /tmp/cchNbth9.s 			page 25


 621:Drivers/STM32F4xx_StdPeriph_Driver/src/stm32f4xx_dac.c ****   * @note   The DMA underrun occurs when a second external trigger arrives before the 
 622:Drivers/STM32F4xx_StdPeriph_Driver/src/stm32f4xx_dac.c ****   *         acknowledgement for the first external trigger is received (first request).            
 623:Drivers/STM32F4xx_StdPeriph_Driver/src/stm32f4xx_dac.c ****   * @retval None
 624:Drivers/STM32F4xx_StdPeriph_Driver/src/stm32f4xx_dac.c ****   */
 625:Drivers/STM32F4xx_StdPeriph_Driver/src/stm32f4xx_dac.c **** void DAC_ClearFlag(uint32_t DAC_Channel, uint32_t DAC_FLAG)
 626:Drivers/STM32F4xx_StdPeriph_Driver/src/stm32f4xx_dac.c **** {
 774              		.loc 1 626 1 is_stmt 1 view -0
 775              		.cfi_startproc
 776              		@ args = 0, pretend = 0, frame = 0
 777              		@ frame_needed = 0, uses_anonymous_args = 0
 778              		@ link register save eliminated.
 627:Drivers/STM32F4xx_StdPeriph_Driver/src/stm32f4xx_dac.c ****   /* Check the parameters */
 628:Drivers/STM32F4xx_StdPeriph_Driver/src/stm32f4xx_dac.c ****   assert_param(IS_DAC_CHANNEL(DAC_Channel));
 779              		.loc 1 628 3 view .LVU204
 629:Drivers/STM32F4xx_StdPeriph_Driver/src/stm32f4xx_dac.c ****   assert_param(IS_DAC_FLAG(DAC_FLAG));
 780              		.loc 1 629 3 view .LVU205
 630:Drivers/STM32F4xx_StdPeriph_Driver/src/stm32f4xx_dac.c **** 
 631:Drivers/STM32F4xx_StdPeriph_Driver/src/stm32f4xx_dac.c ****   /* Clear the selected DAC flags */
 632:Drivers/STM32F4xx_StdPeriph_Driver/src/stm32f4xx_dac.c ****   DAC->SR = (DAC_FLAG << DAC_Channel);
 781              		.loc 1 632 3 view .LVU206
 782              		.loc 1 632 23 is_stmt 0 view .LVU207
 783 0000 8140     		lsls	r1, r1, r0
 784              	.LVL57:
 785              		.loc 1 632 11 view .LVU208
 786 0002 014B     		ldr	r3, .L62
 787 0004 5963     		str	r1, [r3, #52]
 633:Drivers/STM32F4xx_StdPeriph_Driver/src/stm32f4xx_dac.c **** }
 788              		.loc 1 633 1 view .LVU209
 789 0006 7047     		bx	lr
 790              	.L63:
 791              		.align	2
 792              	.L62:
 793 0008 00740040 		.word	1073771520
 794              		.cfi_endproc
 795              	.LFE137:
 797              		.section	.text.DAC_GetITStatus,"ax",%progbits
 798              		.align	1
 799              		.global	DAC_GetITStatus
 800              		.syntax unified
 801              		.thumb
 802              		.thumb_func
 803              		.fpu fpv4-sp-d16
 805              	DAC_GetITStatus:
 806              	.LVL58:
 807              	.LFB138:
 634:Drivers/STM32F4xx_StdPeriph_Driver/src/stm32f4xx_dac.c **** 
 635:Drivers/STM32F4xx_StdPeriph_Driver/src/stm32f4xx_dac.c **** /**
 636:Drivers/STM32F4xx_StdPeriph_Driver/src/stm32f4xx_dac.c ****   * @brief  Checks whether the specified DAC interrupt has occurred or not.
 637:Drivers/STM32F4xx_StdPeriph_Driver/src/stm32f4xx_dac.c ****   * @param  DAC_Channel: The selected DAC channel. 
 638:Drivers/STM32F4xx_StdPeriph_Driver/src/stm32f4xx_dac.c ****   *          This parameter can be one of the following values:
 639:Drivers/STM32F4xx_StdPeriph_Driver/src/stm32f4xx_dac.c ****   *            @arg DAC_Channel_1: DAC Channel1 selected
 640:Drivers/STM32F4xx_StdPeriph_Driver/src/stm32f4xx_dac.c ****   *            @arg DAC_Channel_2: DAC Channel2 selected
 641:Drivers/STM32F4xx_StdPeriph_Driver/src/stm32f4xx_dac.c ****   * @param  DAC_IT: specifies the DAC interrupt source to check. 
 642:Drivers/STM32F4xx_StdPeriph_Driver/src/stm32f4xx_dac.c ****   *          This parameter can be the following values:
 643:Drivers/STM32F4xx_StdPeriph_Driver/src/stm32f4xx_dac.c ****   *            @arg DAC_IT_DMAUDR: DMA underrun interrupt mask
 644:Drivers/STM32F4xx_StdPeriph_Driver/src/stm32f4xx_dac.c ****   * @note   The DMA underrun occurs when a second external trigger arrives before the 
 645:Drivers/STM32F4xx_StdPeriph_Driver/src/stm32f4xx_dac.c ****   *         acknowledgement for the first external trigger is received (first request).
ARM GAS  /tmp/cchNbth9.s 			page 26


 646:Drivers/STM32F4xx_StdPeriph_Driver/src/stm32f4xx_dac.c ****   * @retval The new state of DAC_IT (SET or RESET).
 647:Drivers/STM32F4xx_StdPeriph_Driver/src/stm32f4xx_dac.c ****   */
 648:Drivers/STM32F4xx_StdPeriph_Driver/src/stm32f4xx_dac.c **** ITStatus DAC_GetITStatus(uint32_t DAC_Channel, uint32_t DAC_IT)
 649:Drivers/STM32F4xx_StdPeriph_Driver/src/stm32f4xx_dac.c **** {
 808              		.loc 1 649 1 is_stmt 1 view -0
 809              		.cfi_startproc
 810              		@ args = 0, pretend = 0, frame = 0
 811              		@ frame_needed = 0, uses_anonymous_args = 0
 812              		@ link register save eliminated.
 650:Drivers/STM32F4xx_StdPeriph_Driver/src/stm32f4xx_dac.c ****   ITStatus bitstatus = RESET;
 813              		.loc 1 650 3 view .LVU211
 651:Drivers/STM32F4xx_StdPeriph_Driver/src/stm32f4xx_dac.c ****   uint32_t enablestatus = 0;
 814              		.loc 1 651 3 view .LVU212
 652:Drivers/STM32F4xx_StdPeriph_Driver/src/stm32f4xx_dac.c ****   
 653:Drivers/STM32F4xx_StdPeriph_Driver/src/stm32f4xx_dac.c ****   /* Check the parameters */
 654:Drivers/STM32F4xx_StdPeriph_Driver/src/stm32f4xx_dac.c ****   assert_param(IS_DAC_CHANNEL(DAC_Channel));
 815              		.loc 1 654 3 view .LVU213
 655:Drivers/STM32F4xx_StdPeriph_Driver/src/stm32f4xx_dac.c ****   assert_param(IS_DAC_IT(DAC_IT));
 816              		.loc 1 655 3 view .LVU214
 656:Drivers/STM32F4xx_StdPeriph_Driver/src/stm32f4xx_dac.c **** 
 657:Drivers/STM32F4xx_StdPeriph_Driver/src/stm32f4xx_dac.c ****   /* Get the DAC_IT enable bit status */
 658:Drivers/STM32F4xx_StdPeriph_Driver/src/stm32f4xx_dac.c ****   enablestatus = (DAC->CR & (DAC_IT << DAC_Channel)) ;
 817              		.loc 1 658 3 view .LVU215
 818              		.loc 1 658 22 is_stmt 0 view .LVU216
 819 0000 064A     		ldr	r2, .L68
 820 0002 1368     		ldr	r3, [r2]
 821              		.loc 1 658 37 view .LVU217
 822 0004 8140     		lsls	r1, r1, r0
 823              	.LVL59:
 824              		.loc 1 658 16 view .LVU218
 825 0006 0B40     		ands	r3, r3, r1
 826              	.LVL60:
 659:Drivers/STM32F4xx_StdPeriph_Driver/src/stm32f4xx_dac.c ****   
 660:Drivers/STM32F4xx_StdPeriph_Driver/src/stm32f4xx_dac.c ****   /* Check the status of the specified DAC interrupt */
 661:Drivers/STM32F4xx_StdPeriph_Driver/src/stm32f4xx_dac.c ****   if (((DAC->SR & (DAC_IT << DAC_Channel)) != (uint32_t)RESET) && enablestatus)
 827              		.loc 1 661 3 is_stmt 1 view .LVU219
 828              		.loc 1 661 12 is_stmt 0 view .LVU220
 829 0008 526B     		ldr	r2, [r2, #52]
 830              		.loc 1 661 6 view .LVU221
 831 000a 1142     		tst	r1, r2
 832 000c 02D0     		beq	.L66
 833              		.loc 1 661 64 discriminator 1 view .LVU222
 834 000e 1BB9     		cbnz	r3, .L67
 662:Drivers/STM32F4xx_StdPeriph_Driver/src/stm32f4xx_dac.c ****   {
 663:Drivers/STM32F4xx_StdPeriph_Driver/src/stm32f4xx_dac.c ****     /* DAC_IT is set */
 664:Drivers/STM32F4xx_StdPeriph_Driver/src/stm32f4xx_dac.c ****     bitstatus = SET;
 665:Drivers/STM32F4xx_StdPeriph_Driver/src/stm32f4xx_dac.c ****   }
 666:Drivers/STM32F4xx_StdPeriph_Driver/src/stm32f4xx_dac.c ****   else
 667:Drivers/STM32F4xx_StdPeriph_Driver/src/stm32f4xx_dac.c ****   {
 668:Drivers/STM32F4xx_StdPeriph_Driver/src/stm32f4xx_dac.c ****     /* DAC_IT is reset */
 669:Drivers/STM32F4xx_StdPeriph_Driver/src/stm32f4xx_dac.c ****     bitstatus = RESET;
 835              		.loc 1 669 15 view .LVU223
 836 0010 0020     		movs	r0, #0
 837              	.LVL61:
 838              		.loc 1 669 15 view .LVU224
 839 0012 7047     		bx	lr
 840              	.LVL62:
ARM GAS  /tmp/cchNbth9.s 			page 27


 841              	.L66:
 842              		.loc 1 669 15 view .LVU225
 843 0014 0020     		movs	r0, #0
 844              	.LVL63:
 845              		.loc 1 669 15 view .LVU226
 846 0016 7047     		bx	lr
 847              	.LVL64:
 848              	.L67:
 664:Drivers/STM32F4xx_StdPeriph_Driver/src/stm32f4xx_dac.c ****   }
 849              		.loc 1 664 15 view .LVU227
 850 0018 0120     		movs	r0, #1
 851              	.LVL65:
 670:Drivers/STM32F4xx_StdPeriph_Driver/src/stm32f4xx_dac.c ****   }
 671:Drivers/STM32F4xx_StdPeriph_Driver/src/stm32f4xx_dac.c ****   /* Return the DAC_IT status */
 672:Drivers/STM32F4xx_StdPeriph_Driver/src/stm32f4xx_dac.c ****   return  bitstatus;
 852              		.loc 1 672 3 is_stmt 1 view .LVU228
 673:Drivers/STM32F4xx_StdPeriph_Driver/src/stm32f4xx_dac.c **** }
 853              		.loc 1 673 1 is_stmt 0 view .LVU229
 854 001a 7047     		bx	lr
 855              	.L69:
 856              		.align	2
 857              	.L68:
 858 001c 00740040 		.word	1073771520
 859              		.cfi_endproc
 860              	.LFE138:
 862              		.section	.text.DAC_ClearITPendingBit,"ax",%progbits
 863              		.align	1
 864              		.global	DAC_ClearITPendingBit
 865              		.syntax unified
 866              		.thumb
 867              		.thumb_func
 868              		.fpu fpv4-sp-d16
 870              	DAC_ClearITPendingBit:
 871              	.LVL66:
 872              	.LFB139:
 674:Drivers/STM32F4xx_StdPeriph_Driver/src/stm32f4xx_dac.c **** 
 675:Drivers/STM32F4xx_StdPeriph_Driver/src/stm32f4xx_dac.c **** /**
 676:Drivers/STM32F4xx_StdPeriph_Driver/src/stm32f4xx_dac.c ****   * @brief  Clears the DAC channel's interrupt pending bits.
 677:Drivers/STM32F4xx_StdPeriph_Driver/src/stm32f4xx_dac.c ****   * @param  DAC_Channel: The selected DAC channel. 
 678:Drivers/STM32F4xx_StdPeriph_Driver/src/stm32f4xx_dac.c ****   *          This parameter can be one of the following values:
 679:Drivers/STM32F4xx_StdPeriph_Driver/src/stm32f4xx_dac.c ****   *            @arg DAC_Channel_1: DAC Channel1 selected
 680:Drivers/STM32F4xx_StdPeriph_Driver/src/stm32f4xx_dac.c ****   *            @arg DAC_Channel_2: DAC Channel2 selected
 681:Drivers/STM32F4xx_StdPeriph_Driver/src/stm32f4xx_dac.c ****   * @param  DAC_IT: specifies the DAC interrupt pending bit to clear.
 682:Drivers/STM32F4xx_StdPeriph_Driver/src/stm32f4xx_dac.c ****   *          This parameter can be the following values:
 683:Drivers/STM32F4xx_StdPeriph_Driver/src/stm32f4xx_dac.c ****   *            @arg DAC_IT_DMAUDR: DMA underrun interrupt mask                         
 684:Drivers/STM32F4xx_StdPeriph_Driver/src/stm32f4xx_dac.c ****   * @note   The DMA underrun occurs when a second external trigger arrives before the 
 685:Drivers/STM32F4xx_StdPeriph_Driver/src/stm32f4xx_dac.c ****   *         acknowledgement for the first external trigger is received (first request).            
 686:Drivers/STM32F4xx_StdPeriph_Driver/src/stm32f4xx_dac.c ****   * @retval None
 687:Drivers/STM32F4xx_StdPeriph_Driver/src/stm32f4xx_dac.c ****   */
 688:Drivers/STM32F4xx_StdPeriph_Driver/src/stm32f4xx_dac.c **** void DAC_ClearITPendingBit(uint32_t DAC_Channel, uint32_t DAC_IT)
 689:Drivers/STM32F4xx_StdPeriph_Driver/src/stm32f4xx_dac.c **** {
 873              		.loc 1 689 1 is_stmt 1 view -0
 874              		.cfi_startproc
 875              		@ args = 0, pretend = 0, frame = 0
 876              		@ frame_needed = 0, uses_anonymous_args = 0
 877              		@ link register save eliminated.
 690:Drivers/STM32F4xx_StdPeriph_Driver/src/stm32f4xx_dac.c ****   /* Check the parameters */
ARM GAS  /tmp/cchNbth9.s 			page 28


 691:Drivers/STM32F4xx_StdPeriph_Driver/src/stm32f4xx_dac.c ****   assert_param(IS_DAC_CHANNEL(DAC_Channel));
 878              		.loc 1 691 3 view .LVU231
 692:Drivers/STM32F4xx_StdPeriph_Driver/src/stm32f4xx_dac.c ****   assert_param(IS_DAC_IT(DAC_IT)); 
 879              		.loc 1 692 3 view .LVU232
 693:Drivers/STM32F4xx_StdPeriph_Driver/src/stm32f4xx_dac.c **** 
 694:Drivers/STM32F4xx_StdPeriph_Driver/src/stm32f4xx_dac.c ****   /* Clear the selected DAC interrupt pending bits */
 695:Drivers/STM32F4xx_StdPeriph_Driver/src/stm32f4xx_dac.c ****   DAC->SR = (DAC_IT << DAC_Channel);
 880              		.loc 1 695 3 view .LVU233
 881              		.loc 1 695 21 is_stmt 0 view .LVU234
 882 0000 8140     		lsls	r1, r1, r0
 883              	.LVL67:
 884              		.loc 1 695 11 view .LVU235
 885 0002 014B     		ldr	r3, .L71
 886 0004 5963     		str	r1, [r3, #52]
 696:Drivers/STM32F4xx_StdPeriph_Driver/src/stm32f4xx_dac.c **** }
 887              		.loc 1 696 1 view .LVU236
 888 0006 7047     		bx	lr
 889              	.L72:
 890              		.align	2
 891              	.L71:
 892 0008 00740040 		.word	1073771520
 893              		.cfi_endproc
 894              	.LFE139:
 896              		.text
 897              	.Letext0:
 898              		.file 2 "/usr/lib/gcc/arm-none-eabi/10.3.1/include/stdint.h"
 899              		.file 3 "Drivers/CMSIS/Device/ST/STM32F4xx/Include/stm32f4xx.h"
 900              		.file 4 "Drivers/STM32F4xx_StdPeriph_Driver/inc/stm32f4xx_dac.h"
 901              		.file 5 "Drivers/STM32F4xx_StdPeriph_Driver/inc/stm32f4xx_rcc.h"
ARM GAS  /tmp/cchNbth9.s 			page 29

