ARM GAS  /tmp/ccQY8YTS.s 			page 1


   1              		.cpu cortex-m4
   2              		.eabi_attribute 27, 1
   3              		.eabi_attribute 28, 1
   4              		.eabi_attribute 20, 1
   5              		.eabi_attribute 21, 1
   6              		.eabi_attribute 23, 3
   7              		.eabi_attribute 24, 1
   8              		.eabi_attribute 25, 1
   9              		.eabi_attribute 26, 1
  10              		.eabi_attribute 30, 1
  11              		.eabi_attribute 34, 1
  12              		.eabi_attribute 18, 4
  13              		.file	"stm32f4xx_flash.c"
  14              		.text
  15              	.Ltext0:
  16              		.cfi_sections	.debug_frame
  17              		.section	.text.FLASH_SetLatency,"ax",%progbits
  18              		.align	1
  19              		.global	FLASH_SetLatency
  20              		.arch armv7e-m
  21              		.syntax unified
  22              		.thumb
  23              		.thumb_func
  24              		.fpu fpv4-sp-d16
  26              	FLASH_SetLatency:
  27              	.LVL0:
  28              	.LFB123:
  29              		.file 1 "Drivers/STM32F4xx_StdPeriph_Driver/src/stm32f4xx_flash.c"
   1:Drivers/STM32F4xx_StdPeriph_Driver/src/stm32f4xx_flash.c **** /**
   2:Drivers/STM32F4xx_StdPeriph_Driver/src/stm32f4xx_flash.c ****   ******************************************************************************
   3:Drivers/STM32F4xx_StdPeriph_Driver/src/stm32f4xx_flash.c ****   * @file    stm32f4xx_flash.c
   4:Drivers/STM32F4xx_StdPeriph_Driver/src/stm32f4xx_flash.c ****   * @author  MCD Application Team
   5:Drivers/STM32F4xx_StdPeriph_Driver/src/stm32f4xx_flash.c ****   * @version V1.6.1
   6:Drivers/STM32F4xx_StdPeriph_Driver/src/stm32f4xx_flash.c ****   * @date    21-October-2015
   7:Drivers/STM32F4xx_StdPeriph_Driver/src/stm32f4xx_flash.c ****   * @brief   This file provides firmware functions to manage the following 
   8:Drivers/STM32F4xx_StdPeriph_Driver/src/stm32f4xx_flash.c ****   *          functionalities of the FLASH peripheral:
   9:Drivers/STM32F4xx_StdPeriph_Driver/src/stm32f4xx_flash.c ****   *            + FLASH Interface configuration
  10:Drivers/STM32F4xx_StdPeriph_Driver/src/stm32f4xx_flash.c ****   *            + FLASH Memory Programming
  11:Drivers/STM32F4xx_StdPeriph_Driver/src/stm32f4xx_flash.c ****   *            + Option Bytes Programming
  12:Drivers/STM32F4xx_StdPeriph_Driver/src/stm32f4xx_flash.c ****   *            + Interrupts and flags management
  13:Drivers/STM32F4xx_StdPeriph_Driver/src/stm32f4xx_flash.c ****   *  
  14:Drivers/STM32F4xx_StdPeriph_Driver/src/stm32f4xx_flash.c ****  @verbatim    
  15:Drivers/STM32F4xx_StdPeriph_Driver/src/stm32f4xx_flash.c ****  ===============================================================================
  16:Drivers/STM32F4xx_StdPeriph_Driver/src/stm32f4xx_flash.c ****                         ##### How to use this driver #####
  17:Drivers/STM32F4xx_StdPeriph_Driver/src/stm32f4xx_flash.c ****  ===============================================================================
  18:Drivers/STM32F4xx_StdPeriph_Driver/src/stm32f4xx_flash.c ****     [..]                             
  19:Drivers/STM32F4xx_StdPeriph_Driver/src/stm32f4xx_flash.c ****       This driver provides functions to configure and program the FLASH memory 
  20:Drivers/STM32F4xx_StdPeriph_Driver/src/stm32f4xx_flash.c ****       of all STM32F4xx devices. These functions are split in 4 groups:
  21:Drivers/STM32F4xx_StdPeriph_Driver/src/stm32f4xx_flash.c ****    
  22:Drivers/STM32F4xx_StdPeriph_Driver/src/stm32f4xx_flash.c ****       (#) FLASH Interface configuration functions: this group includes the
  23:Drivers/STM32F4xx_StdPeriph_Driver/src/stm32f4xx_flash.c ****           management of the following features:
  24:Drivers/STM32F4xx_StdPeriph_Driver/src/stm32f4xx_flash.c ****         (++) Set the latency
  25:Drivers/STM32F4xx_StdPeriph_Driver/src/stm32f4xx_flash.c ****         (++) Enable/Disable the prefetch buffer
  26:Drivers/STM32F4xx_StdPeriph_Driver/src/stm32f4xx_flash.c ****         (++) Enable/Disable the Instruction cache and the Data cache
  27:Drivers/STM32F4xx_StdPeriph_Driver/src/stm32f4xx_flash.c ****         (++) Reset the Instruction cache and the Data cache
  28:Drivers/STM32F4xx_StdPeriph_Driver/src/stm32f4xx_flash.c ****     
  29:Drivers/STM32F4xx_StdPeriph_Driver/src/stm32f4xx_flash.c ****       (#) FLASH Memory Programming functions: this group includes all needed
ARM GAS  /tmp/ccQY8YTS.s 			page 2


  30:Drivers/STM32F4xx_StdPeriph_Driver/src/stm32f4xx_flash.c ****           functions to erase and program the main memory:
  31:Drivers/STM32F4xx_StdPeriph_Driver/src/stm32f4xx_flash.c ****         (++) Lock and Unlock the FLASH interface
  32:Drivers/STM32F4xx_StdPeriph_Driver/src/stm32f4xx_flash.c ****         (++) Erase function: Erase sector, erase all sectors
  33:Drivers/STM32F4xx_StdPeriph_Driver/src/stm32f4xx_flash.c ****         (++) Program functions: byte, half word, word and double word
  34:Drivers/STM32F4xx_StdPeriph_Driver/src/stm32f4xx_flash.c ****     
  35:Drivers/STM32F4xx_StdPeriph_Driver/src/stm32f4xx_flash.c ****       (#) Option Bytes Programming functions: this group includes all needed
  36:Drivers/STM32F4xx_StdPeriph_Driver/src/stm32f4xx_flash.c ****           functions to manage the Option Bytes:
  37:Drivers/STM32F4xx_StdPeriph_Driver/src/stm32f4xx_flash.c ****         (++) Set/Reset the write protection
  38:Drivers/STM32F4xx_StdPeriph_Driver/src/stm32f4xx_flash.c ****         (++) Set the Read protection Level
  39:Drivers/STM32F4xx_StdPeriph_Driver/src/stm32f4xx_flash.c ****         (++) Set the BOR level
  40:Drivers/STM32F4xx_StdPeriph_Driver/src/stm32f4xx_flash.c ****         (++) Program the user Option Bytes
  41:Drivers/STM32F4xx_StdPeriph_Driver/src/stm32f4xx_flash.c ****         (++) Launch the Option Bytes loader
  42:Drivers/STM32F4xx_StdPeriph_Driver/src/stm32f4xx_flash.c ****     
  43:Drivers/STM32F4xx_StdPeriph_Driver/src/stm32f4xx_flash.c ****       (#) Interrupts and flags management functions: this group 
  44:Drivers/STM32F4xx_StdPeriph_Driver/src/stm32f4xx_flash.c ****           includes all needed functions to:
  45:Drivers/STM32F4xx_StdPeriph_Driver/src/stm32f4xx_flash.c ****         (++) Enable/Disable the FLASH interrupt sources
  46:Drivers/STM32F4xx_StdPeriph_Driver/src/stm32f4xx_flash.c ****         (++) Get flags status
  47:Drivers/STM32F4xx_StdPeriph_Driver/src/stm32f4xx_flash.c ****         (++) Clear flags
  48:Drivers/STM32F4xx_StdPeriph_Driver/src/stm32f4xx_flash.c ****         (++) Get FLASH operation status
  49:Drivers/STM32F4xx_StdPeriph_Driver/src/stm32f4xx_flash.c ****         (++) Wait for last FLASH operation   
  50:Drivers/STM32F4xx_StdPeriph_Driver/src/stm32f4xx_flash.c ****  @endverbatim
  51:Drivers/STM32F4xx_StdPeriph_Driver/src/stm32f4xx_flash.c ****   ******************************************************************************
  52:Drivers/STM32F4xx_StdPeriph_Driver/src/stm32f4xx_flash.c ****   * @attention
  53:Drivers/STM32F4xx_StdPeriph_Driver/src/stm32f4xx_flash.c ****   *
  54:Drivers/STM32F4xx_StdPeriph_Driver/src/stm32f4xx_flash.c ****   * <h2><center>&copy; COPYRIGHT 2015 STMicroelectronics</center></h2>
  55:Drivers/STM32F4xx_StdPeriph_Driver/src/stm32f4xx_flash.c ****   *
  56:Drivers/STM32F4xx_StdPeriph_Driver/src/stm32f4xx_flash.c ****   * Licensed under MCD-ST Liberty SW License Agreement V2, (the "License");
  57:Drivers/STM32F4xx_StdPeriph_Driver/src/stm32f4xx_flash.c ****   * You may not use this file except in compliance with the License.
  58:Drivers/STM32F4xx_StdPeriph_Driver/src/stm32f4xx_flash.c ****   * You may obtain a copy of the License at:
  59:Drivers/STM32F4xx_StdPeriph_Driver/src/stm32f4xx_flash.c ****   *
  60:Drivers/STM32F4xx_StdPeriph_Driver/src/stm32f4xx_flash.c ****   *        http://www.st.com/software_license_agreement_liberty_v2
  61:Drivers/STM32F4xx_StdPeriph_Driver/src/stm32f4xx_flash.c ****   *
  62:Drivers/STM32F4xx_StdPeriph_Driver/src/stm32f4xx_flash.c ****   * Unless required by applicable law or agreed to in writing, software 
  63:Drivers/STM32F4xx_StdPeriph_Driver/src/stm32f4xx_flash.c ****   * distributed under the License is distributed on an "AS IS" BASIS, 
  64:Drivers/STM32F4xx_StdPeriph_Driver/src/stm32f4xx_flash.c ****   * WITHOUT WARRANTIES OR CONDITIONS OF ANY KIND, either express or implied.
  65:Drivers/STM32F4xx_StdPeriph_Driver/src/stm32f4xx_flash.c ****   * See the License for the specific language governing permissions and
  66:Drivers/STM32F4xx_StdPeriph_Driver/src/stm32f4xx_flash.c ****   * limitations under the License.
  67:Drivers/STM32F4xx_StdPeriph_Driver/src/stm32f4xx_flash.c ****   *
  68:Drivers/STM32F4xx_StdPeriph_Driver/src/stm32f4xx_flash.c ****   ******************************************************************************
  69:Drivers/STM32F4xx_StdPeriph_Driver/src/stm32f4xx_flash.c ****   */
  70:Drivers/STM32F4xx_StdPeriph_Driver/src/stm32f4xx_flash.c **** 
  71:Drivers/STM32F4xx_StdPeriph_Driver/src/stm32f4xx_flash.c **** /* Includes ------------------------------------------------------------------*/
  72:Drivers/STM32F4xx_StdPeriph_Driver/src/stm32f4xx_flash.c **** #include "stm32f4xx_flash.h"
  73:Drivers/STM32F4xx_StdPeriph_Driver/src/stm32f4xx_flash.c **** 
  74:Drivers/STM32F4xx_StdPeriph_Driver/src/stm32f4xx_flash.c **** /** @addtogroup STM32F4xx_StdPeriph_Driver
  75:Drivers/STM32F4xx_StdPeriph_Driver/src/stm32f4xx_flash.c ****   * @{
  76:Drivers/STM32F4xx_StdPeriph_Driver/src/stm32f4xx_flash.c ****   */
  77:Drivers/STM32F4xx_StdPeriph_Driver/src/stm32f4xx_flash.c **** 
  78:Drivers/STM32F4xx_StdPeriph_Driver/src/stm32f4xx_flash.c **** /** @defgroup FLASH 
  79:Drivers/STM32F4xx_StdPeriph_Driver/src/stm32f4xx_flash.c ****   * @brief FLASH driver modules
  80:Drivers/STM32F4xx_StdPeriph_Driver/src/stm32f4xx_flash.c ****   * @{
  81:Drivers/STM32F4xx_StdPeriph_Driver/src/stm32f4xx_flash.c ****   */ 
  82:Drivers/STM32F4xx_StdPeriph_Driver/src/stm32f4xx_flash.c **** 
  83:Drivers/STM32F4xx_StdPeriph_Driver/src/stm32f4xx_flash.c **** /* Private typedef -----------------------------------------------------------*/
  84:Drivers/STM32F4xx_StdPeriph_Driver/src/stm32f4xx_flash.c **** /* Private define ------------------------------------------------------------*/ 
  85:Drivers/STM32F4xx_StdPeriph_Driver/src/stm32f4xx_flash.c **** #define SECTOR_MASK               ((uint32_t)0xFFFFFF07)
  86:Drivers/STM32F4xx_StdPeriph_Driver/src/stm32f4xx_flash.c **** 
ARM GAS  /tmp/ccQY8YTS.s 			page 3


  87:Drivers/STM32F4xx_StdPeriph_Driver/src/stm32f4xx_flash.c **** /* Private macro -------------------------------------------------------------*/
  88:Drivers/STM32F4xx_StdPeriph_Driver/src/stm32f4xx_flash.c **** /* Private variables ---------------------------------------------------------*/
  89:Drivers/STM32F4xx_StdPeriph_Driver/src/stm32f4xx_flash.c **** /* Private function prototypes -----------------------------------------------*/
  90:Drivers/STM32F4xx_StdPeriph_Driver/src/stm32f4xx_flash.c **** /* Private functions ---------------------------------------------------------*/
  91:Drivers/STM32F4xx_StdPeriph_Driver/src/stm32f4xx_flash.c **** 
  92:Drivers/STM32F4xx_StdPeriph_Driver/src/stm32f4xx_flash.c **** /** @defgroup FLASH_Private_Functions
  93:Drivers/STM32F4xx_StdPeriph_Driver/src/stm32f4xx_flash.c ****   * @{
  94:Drivers/STM32F4xx_StdPeriph_Driver/src/stm32f4xx_flash.c ****   */ 
  95:Drivers/STM32F4xx_StdPeriph_Driver/src/stm32f4xx_flash.c **** 
  96:Drivers/STM32F4xx_StdPeriph_Driver/src/stm32f4xx_flash.c **** /** @defgroup FLASH_Group1 FLASH Interface configuration functions
  97:Drivers/STM32F4xx_StdPeriph_Driver/src/stm32f4xx_flash.c ****   *  @brief   FLASH Interface configuration functions 
  98:Drivers/STM32F4xx_StdPeriph_Driver/src/stm32f4xx_flash.c ****  *
  99:Drivers/STM32F4xx_StdPeriph_Driver/src/stm32f4xx_flash.c **** 
 100:Drivers/STM32F4xx_StdPeriph_Driver/src/stm32f4xx_flash.c **** @verbatim   
 101:Drivers/STM32F4xx_StdPeriph_Driver/src/stm32f4xx_flash.c ****  ===============================================================================
 102:Drivers/STM32F4xx_StdPeriph_Driver/src/stm32f4xx_flash.c ****               ##### FLASH Interface configuration functions #####
 103:Drivers/STM32F4xx_StdPeriph_Driver/src/stm32f4xx_flash.c ****  ===============================================================================
 104:Drivers/STM32F4xx_StdPeriph_Driver/src/stm32f4xx_flash.c ****     [..]
 105:Drivers/STM32F4xx_StdPeriph_Driver/src/stm32f4xx_flash.c ****       This group includes the following functions:
 106:Drivers/STM32F4xx_StdPeriph_Driver/src/stm32f4xx_flash.c ****       (+) void FLASH_SetLatency(uint32_t FLASH_Latency)
 107:Drivers/STM32F4xx_StdPeriph_Driver/src/stm32f4xx_flash.c ****           To correctly read data from FLASH memory, the number of wait states (LATENCY) 
 108:Drivers/STM32F4xx_StdPeriph_Driver/src/stm32f4xx_flash.c ****           must be correctly programmed according to the frequency of the CPU clock 
 109:Drivers/STM32F4xx_StdPeriph_Driver/src/stm32f4xx_flash.c ****           (HCLK) and the supply voltage of the device.
 110:Drivers/STM32F4xx_StdPeriph_Driver/src/stm32f4xx_flash.c ****     [..]      
 111:Drivers/STM32F4xx_StdPeriph_Driver/src/stm32f4xx_flash.c ****       For STM32F405xx/07xx and STM32F415xx/17xx devices
 112:Drivers/STM32F4xx_StdPeriph_Driver/src/stm32f4xx_flash.c ****  +-------------------------------------------------------------------------------------+
 113:Drivers/STM32F4xx_StdPeriph_Driver/src/stm32f4xx_flash.c ****  | Latency       |                HCLK clock frequency (MHz)                           |
 114:Drivers/STM32F4xx_StdPeriph_Driver/src/stm32f4xx_flash.c ****  |               |---------------------------------------------------------------------|
 115:Drivers/STM32F4xx_StdPeriph_Driver/src/stm32f4xx_flash.c ****  |               | voltage range  | voltage range  | voltage range   | voltage range   |
 116:Drivers/STM32F4xx_StdPeriph_Driver/src/stm32f4xx_flash.c ****  |               | 2.7 V - 3.6 V  | 2.4 V - 2.7 V  | 2.1 V - 2.4 V   | 1.8 V - 2.1 V   |
 117:Drivers/STM32F4xx_StdPeriph_Driver/src/stm32f4xx_flash.c ****  |---------------|----------------|----------------|-----------------|-----------------|
 118:Drivers/STM32F4xx_StdPeriph_Driver/src/stm32f4xx_flash.c ****  |0WS(1CPU cycle)|0 < HCLK <= 30  |0 < HCLK <= 24  |0 < HCLK <= 22   |0 < HCLK <= 20   |
 119:Drivers/STM32F4xx_StdPeriph_Driver/src/stm32f4xx_flash.c ****  |---------------|----------------|----------------|-----------------|-----------------|
 120:Drivers/STM32F4xx_StdPeriph_Driver/src/stm32f4xx_flash.c ****  |1WS(2CPU cycle)|30 < HCLK <= 60 |24 < HCLK <= 48 |22 < HCLK <= 44  |20 < HCLK <= 40  |
 121:Drivers/STM32F4xx_StdPeriph_Driver/src/stm32f4xx_flash.c ****  |---------------|----------------|----------------|-----------------|-----------------|
 122:Drivers/STM32F4xx_StdPeriph_Driver/src/stm32f4xx_flash.c ****  |2WS(3CPU cycle)|60 < HCLK <= 90 |48 < HCLK <= 72 |44 < HCLK <= 66  |40 < HCLK <= 60  |
 123:Drivers/STM32F4xx_StdPeriph_Driver/src/stm32f4xx_flash.c ****  |---------------|----------------|----------------|-----------------|-----------------|
 124:Drivers/STM32F4xx_StdPeriph_Driver/src/stm32f4xx_flash.c ****  |3WS(4CPU cycle)|90 < HCLK <= 120|72 < HCLK <= 96 |66 < HCLK <= 88  |60 < HCLK <= 80  |
 125:Drivers/STM32F4xx_StdPeriph_Driver/src/stm32f4xx_flash.c ****  |---------------|----------------|----------------|-----------------|-----------------|
 126:Drivers/STM32F4xx_StdPeriph_Driver/src/stm32f4xx_flash.c ****  |4WS(5CPU cycle)|120< HCLK <= 150|96 < HCLK <= 120|88 < HCLK <= 110 |80 < HCLK <= 100 |
 127:Drivers/STM32F4xx_StdPeriph_Driver/src/stm32f4xx_flash.c ****  |---------------|----------------|----------------|-----------------|-----------------|
 128:Drivers/STM32F4xx_StdPeriph_Driver/src/stm32f4xx_flash.c ****  |5WS(6CPU cycle)|150< HCLK <= 168|120< HCLK <= 144|110 < HCLK <= 132|100 < HCLK <= 120|
 129:Drivers/STM32F4xx_StdPeriph_Driver/src/stm32f4xx_flash.c ****  |---------------|----------------|----------------|-----------------|-----------------|
 130:Drivers/STM32F4xx_StdPeriph_Driver/src/stm32f4xx_flash.c ****  |6WS(7CPU cycle)|      NA        |144< HCLK <= 168|132 < HCLK <= 154|120 < HCLK <= 140|
 131:Drivers/STM32F4xx_StdPeriph_Driver/src/stm32f4xx_flash.c ****  |---------------|----------------|----------------|-----------------|-----------------|
 132:Drivers/STM32F4xx_StdPeriph_Driver/src/stm32f4xx_flash.c ****  |7WS(8CPU cycle)|      NA        |      NA        |154 < HCLK <= 168|140 < HCLK <= 160|
 133:Drivers/STM32F4xx_StdPeriph_Driver/src/stm32f4xx_flash.c ****  +---------------|----------------|----------------|-----------------|-----------------+
 134:Drivers/STM32F4xx_StdPeriph_Driver/src/stm32f4xx_flash.c **** 
 135:Drivers/STM32F4xx_StdPeriph_Driver/src/stm32f4xx_flash.c ****     [..]      
 136:Drivers/STM32F4xx_StdPeriph_Driver/src/stm32f4xx_flash.c ****       For STM32F42xxx/43xxx devices
 137:Drivers/STM32F4xx_StdPeriph_Driver/src/stm32f4xx_flash.c ****  +-------------------------------------------------------------------------------------+
 138:Drivers/STM32F4xx_StdPeriph_Driver/src/stm32f4xx_flash.c ****  | Latency       |                HCLK clock frequency (MHz)                           |
 139:Drivers/STM32F4xx_StdPeriph_Driver/src/stm32f4xx_flash.c ****  |               |---------------------------------------------------------------------|
 140:Drivers/STM32F4xx_StdPeriph_Driver/src/stm32f4xx_flash.c ****  |               | voltage range  | voltage range  | voltage range   | voltage range   |
 141:Drivers/STM32F4xx_StdPeriph_Driver/src/stm32f4xx_flash.c ****  |               | 2.7 V - 3.6 V  | 2.4 V - 2.7 V  | 2.1 V - 2.4 V   | 1.8 V - 2.1 V   |
 142:Drivers/STM32F4xx_StdPeriph_Driver/src/stm32f4xx_flash.c ****  |---------------|----------------|----------------|-----------------|-----------------|
 143:Drivers/STM32F4xx_StdPeriph_Driver/src/stm32f4xx_flash.c ****  |0WS(1CPU cycle)|0 < HCLK <= 30  |0 < HCLK <= 24  |0 < HCLK <= 22   |0 < HCLK <= 20   |
ARM GAS  /tmp/ccQY8YTS.s 			page 4


 144:Drivers/STM32F4xx_StdPeriph_Driver/src/stm32f4xx_flash.c ****  |---------------|----------------|----------------|-----------------|-----------------|
 145:Drivers/STM32F4xx_StdPeriph_Driver/src/stm32f4xx_flash.c ****  |1WS(2CPU cycle)|30 < HCLK <= 60 |24 < HCLK <= 48 |22 < HCLK <= 44  |20 < HCLK <= 40  |
 146:Drivers/STM32F4xx_StdPeriph_Driver/src/stm32f4xx_flash.c ****  |---------------|----------------|----------------|-----------------|-----------------|
 147:Drivers/STM32F4xx_StdPeriph_Driver/src/stm32f4xx_flash.c ****  |2WS(3CPU cycle)|60 < HCLK <= 90 |48 < HCLK <= 72 |44 < HCLK <= 66  |40 < HCLK <= 60  |
 148:Drivers/STM32F4xx_StdPeriph_Driver/src/stm32f4xx_flash.c ****  |---------------|----------------|----------------|-----------------|-----------------|
 149:Drivers/STM32F4xx_StdPeriph_Driver/src/stm32f4xx_flash.c ****  |3WS(4CPU cycle)|90 < HCLK <= 120|72 < HCLK <= 96 |66 < HCLK <= 88  |60 < HCLK <= 80  |
 150:Drivers/STM32F4xx_StdPeriph_Driver/src/stm32f4xx_flash.c ****  |---------------|----------------|----------------|-----------------|-----------------|
 151:Drivers/STM32F4xx_StdPeriph_Driver/src/stm32f4xx_flash.c ****  |4WS(5CPU cycle)|120< HCLK <= 150|96 < HCLK <= 120|88 < HCLK <= 110 |80 < HCLK <= 100 |
 152:Drivers/STM32F4xx_StdPeriph_Driver/src/stm32f4xx_flash.c ****  |---------------|----------------|----------------|-----------------|-----------------|
 153:Drivers/STM32F4xx_StdPeriph_Driver/src/stm32f4xx_flash.c ****  |5WS(6CPU cycle)|120< HCLK <= 180|120< HCLK <= 144|110 < HCLK <= 132|100 < HCLK <= 120|
 154:Drivers/STM32F4xx_StdPeriph_Driver/src/stm32f4xx_flash.c ****  |---------------|----------------|----------------|-----------------|-----------------|
 155:Drivers/STM32F4xx_StdPeriph_Driver/src/stm32f4xx_flash.c ****  |6WS(7CPU cycle)|      NA        |144< HCLK <= 168|132 < HCLK <= 154|120 < HCLK <= 140|
 156:Drivers/STM32F4xx_StdPeriph_Driver/src/stm32f4xx_flash.c ****  |---------------|----------------|----------------|-----------------|-----------------|
 157:Drivers/STM32F4xx_StdPeriph_Driver/src/stm32f4xx_flash.c ****  |7WS(8CPU cycle)|      NA        |168< HCLK <= 180|154 < HCLK <= 176|140 < HCLK <= 160|
 158:Drivers/STM32F4xx_StdPeriph_Driver/src/stm32f4xx_flash.c ****  |---------------|----------------|----------------|-----------------|-----------------|
 159:Drivers/STM32F4xx_StdPeriph_Driver/src/stm32f4xx_flash.c ****  |8WS(9CPU cycle)|      NA        |      NA        |176 < HCLK <= 180|160 < HCLK <= 168|
 160:Drivers/STM32F4xx_StdPeriph_Driver/src/stm32f4xx_flash.c ****  +-------------------------------------------------------------------------------------+
 161:Drivers/STM32F4xx_StdPeriph_Driver/src/stm32f4xx_flash.c ****    
 162:Drivers/STM32F4xx_StdPeriph_Driver/src/stm32f4xx_flash.c ****     [..]
 163:Drivers/STM32F4xx_StdPeriph_Driver/src/stm32f4xx_flash.c ****     For STM32F401x devices
 164:Drivers/STM32F4xx_StdPeriph_Driver/src/stm32f4xx_flash.c ****  +-------------------------------------------------------------------------------------+
 165:Drivers/STM32F4xx_StdPeriph_Driver/src/stm32f4xx_flash.c ****  | Latency       |                HCLK clock frequency (MHz)                           |
 166:Drivers/STM32F4xx_StdPeriph_Driver/src/stm32f4xx_flash.c ****  |               |---------------------------------------------------------------------|
 167:Drivers/STM32F4xx_StdPeriph_Driver/src/stm32f4xx_flash.c ****  |               | voltage range  | voltage range  | voltage range   | voltage range   |
 168:Drivers/STM32F4xx_StdPeriph_Driver/src/stm32f4xx_flash.c ****  |               | 2.7 V - 3.6 V  | 2.4 V - 2.7 V  | 2.1 V - 2.4 V   | 1.8 V - 2.1 V   |
 169:Drivers/STM32F4xx_StdPeriph_Driver/src/stm32f4xx_flash.c ****  |---------------|----------------|----------------|-----------------|-----------------|
 170:Drivers/STM32F4xx_StdPeriph_Driver/src/stm32f4xx_flash.c ****  |0WS(1CPU cycle)|0 < HCLK <= 30  |0 < HCLK <= 24  |0 < HCLK <= 22   |0 < HCLK <= 20   |
 171:Drivers/STM32F4xx_StdPeriph_Driver/src/stm32f4xx_flash.c ****  |---------------|----------------|----------------|-----------------|-----------------|
 172:Drivers/STM32F4xx_StdPeriph_Driver/src/stm32f4xx_flash.c ****  |1WS(2CPU cycle)|30 < HCLK <= 60 |24 < HCLK <= 48 |22 < HCLK <= 44  |20 < HCLK <= 40  |
 173:Drivers/STM32F4xx_StdPeriph_Driver/src/stm32f4xx_flash.c ****  |---------------|----------------|----------------|-----------------|-----------------|
 174:Drivers/STM32F4xx_StdPeriph_Driver/src/stm32f4xx_flash.c ****  |2WS(3CPU cycle)|60 < HCLK <= 84 |48 < HCLK <= 72 |44 < HCLK <= 66  |40 < HCLK <= 60  |
 175:Drivers/STM32F4xx_StdPeriph_Driver/src/stm32f4xx_flash.c ****  |---------------|----------------|----------------|-----------------|-----------------|
 176:Drivers/STM32F4xx_StdPeriph_Driver/src/stm32f4xx_flash.c ****  |3WS(4CPU cycle)|      NA        |72 < HCLK <= 84 |66 < HCLK <= 84  |60 < HCLK <= 80  |
 177:Drivers/STM32F4xx_StdPeriph_Driver/src/stm32f4xx_flash.c ****  |---------------|----------------|----------------|-----------------|-----------------|
 178:Drivers/STM32F4xx_StdPeriph_Driver/src/stm32f4xx_flash.c ****  |4WS(5CPU cycle)|      NA        |      NA        |      NA         |80 < HCLK <= 84  |
 179:Drivers/STM32F4xx_StdPeriph_Driver/src/stm32f4xx_flash.c ****  +-------------------------------------------------------------------------------------+
 180:Drivers/STM32F4xx_StdPeriph_Driver/src/stm32f4xx_flash.c **** 
 181:Drivers/STM32F4xx_StdPeriph_Driver/src/stm32f4xx_flash.c ****     [..]
 182:Drivers/STM32F4xx_StdPeriph_Driver/src/stm32f4xx_flash.c ****     For STM32F410xx/STM32F411xE devices
 183:Drivers/STM32F4xx_StdPeriph_Driver/src/stm32f4xx_flash.c ****  +-------------------------------------------------------------------------------------+
 184:Drivers/STM32F4xx_StdPeriph_Driver/src/stm32f4xx_flash.c ****  | Latency       |                HCLK clock frequency (MHz)                           |
 185:Drivers/STM32F4xx_StdPeriph_Driver/src/stm32f4xx_flash.c ****  |               |---------------------------------------------------------------------|
 186:Drivers/STM32F4xx_StdPeriph_Driver/src/stm32f4xx_flash.c ****  |               | voltage range  | voltage range  | voltage range   | voltage range   |
 187:Drivers/STM32F4xx_StdPeriph_Driver/src/stm32f4xx_flash.c ****  |               | 2.7 V - 3.6 V  | 2.4 V - 2.7 V  | 2.1 V - 2.4 V   | 1.8 V - 2.1 V   |
 188:Drivers/STM32F4xx_StdPeriph_Driver/src/stm32f4xx_flash.c ****  |---------------|----------------|----------------|-----------------|-----------------|
 189:Drivers/STM32F4xx_StdPeriph_Driver/src/stm32f4xx_flash.c ****  |0WS(1CPU cycle)|0 < HCLK <= 30  |0 < HCLK <= 24  |0 < HCLK <= 18   |0 < HCLK <= 16   |
 190:Drivers/STM32F4xx_StdPeriph_Driver/src/stm32f4xx_flash.c ****  |---------------|----------------|----------------|-----------------|-----------------|
 191:Drivers/STM32F4xx_StdPeriph_Driver/src/stm32f4xx_flash.c ****  |1WS(2CPU cycle)|30 < HCLK <= 64 |24 < HCLK <= 48 |18 < HCLK <= 36  |16 < HCLK <= 32  |
 192:Drivers/STM32F4xx_StdPeriph_Driver/src/stm32f4xx_flash.c ****  |---------------|----------------|----------------|-----------------|-----------------|
 193:Drivers/STM32F4xx_StdPeriph_Driver/src/stm32f4xx_flash.c ****  |2WS(3CPU cycle)|64 < HCLK <= 90 |48 < HCLK <= 72 |36 < HCLK <= 54  |32 < HCLK <= 48  |
 194:Drivers/STM32F4xx_StdPeriph_Driver/src/stm32f4xx_flash.c ****  |---------------|----------------|----------------|-----------------|-----------------|
 195:Drivers/STM32F4xx_StdPeriph_Driver/src/stm32f4xx_flash.c ****  |3WS(4CPU cycle)|90 < HCLK <= 100|72 < HCLK <= 96 |54 < HCLK <= 72  |48 < HCLK <= 64  |
 196:Drivers/STM32F4xx_StdPeriph_Driver/src/stm32f4xx_flash.c ****  |---------------|----------------|----------------|-----------------|-----------------|
 197:Drivers/STM32F4xx_StdPeriph_Driver/src/stm32f4xx_flash.c ****  |4WS(5CPU cycle)|      NA        |96 < HCLK <= 100|72 < HCLK <= 90  |64 < HCLK <= 80  |
 198:Drivers/STM32F4xx_StdPeriph_Driver/src/stm32f4xx_flash.c ****  |---------------|----------------|----------------|-----------------|-----------------|
 199:Drivers/STM32F4xx_StdPeriph_Driver/src/stm32f4xx_flash.c ****  |5WS(6CPU cycle)|      NA        |       NA       |90 < HCLK <= 100 |80 < HCLK <= 96  |
 200:Drivers/STM32F4xx_StdPeriph_Driver/src/stm32f4xx_flash.c ****  |---------------|----------------|----------------|-----------------|-----------------|
ARM GAS  /tmp/ccQY8YTS.s 			page 5


 201:Drivers/STM32F4xx_StdPeriph_Driver/src/stm32f4xx_flash.c ****  |6WS(7CPU cycle)|      NA        |       NA       |        NA       |96 < HCLK <= 100 |
 202:Drivers/STM32F4xx_StdPeriph_Driver/src/stm32f4xx_flash.c ****  +-------------------------------------------------------------------------------------+
 203:Drivers/STM32F4xx_StdPeriph_Driver/src/stm32f4xx_flash.c ****  
 204:Drivers/STM32F4xx_StdPeriph_Driver/src/stm32f4xx_flash.c ****  [..]
 205:Drivers/STM32F4xx_StdPeriph_Driver/src/stm32f4xx_flash.c ****  +-------------------------------------------------------------------------------------------------
 206:Drivers/STM32F4xx_StdPeriph_Driver/src/stm32f4xx_flash.c ****  |               | voltage range  | voltage range  | voltage range   | voltage range   | voltage ra
 207:Drivers/STM32F4xx_StdPeriph_Driver/src/stm32f4xx_flash.c ****  |               | 2.7 V - 3.6 V  | 2.4 V - 2.7 V  | 2.1 V - 2.4 V   | 1.8 V - 2.1 V   | with Exter
 208:Drivers/STM32F4xx_StdPeriph_Driver/src/stm32f4xx_flash.c ****  |---------------|----------------|----------------|-----------------|-----------------|-----------
 209:Drivers/STM32F4xx_StdPeriph_Driver/src/stm32f4xx_flash.c ****  |Max Parallelism|      x32       |               x16                |       x8        |          x
 210:Drivers/STM32F4xx_StdPeriph_Driver/src/stm32f4xx_flash.c ****  |---------------|----------------|----------------|-----------------|-----------------|-----------
 211:Drivers/STM32F4xx_StdPeriph_Driver/src/stm32f4xx_flash.c ****  |PSIZE[1:0]     |      10        |               01                 |       00        |           
 212:Drivers/STM32F4xx_StdPeriph_Driver/src/stm32f4xx_flash.c ****  +-------------------------------------------------------------------------------------------------
 213:Drivers/STM32F4xx_StdPeriph_Driver/src/stm32f4xx_flash.c **** 
 214:Drivers/STM32F4xx_StdPeriph_Driver/src/stm32f4xx_flash.c ****       -@- On STM32F405xx/407xx and STM32F415xx/417xx devices: 
 215:Drivers/STM32F4xx_StdPeriph_Driver/src/stm32f4xx_flash.c ****            (++) when VOS = '0' Scale 2 mode, the maximum value of fHCLK = 144MHz. 
 216:Drivers/STM32F4xx_StdPeriph_Driver/src/stm32f4xx_flash.c ****            (++) when VOS = '1' Scale 1 mode, the maximum value of fHCLK = 168MHz. 
 217:Drivers/STM32F4xx_StdPeriph_Driver/src/stm32f4xx_flash.c ****           [..] 
 218:Drivers/STM32F4xx_StdPeriph_Driver/src/stm32f4xx_flash.c ****           On STM32F42xxx/43xxx devices:
 219:Drivers/STM32F4xx_StdPeriph_Driver/src/stm32f4xx_flash.c ****            (++) when VOS[1:0] = '0x01' Scale 3 mode, the maximum value of fHCLK is 120MHz.
 220:Drivers/STM32F4xx_StdPeriph_Driver/src/stm32f4xx_flash.c ****            (++) when VOS[1:0] = '0x10' Scale 2 mode, the maximum value of fHCLK is 144MHz if OverDr
 221:Drivers/STM32F4xx_StdPeriph_Driver/src/stm32f4xx_flash.c ****            (++) when VOS[1:0] = '0x11' Scale 1 mode, the maximum value of fHCLK is 168MHz if OverDr
 222:Drivers/STM32F4xx_StdPeriph_Driver/src/stm32f4xx_flash.c ****           [..]
 223:Drivers/STM32F4xx_StdPeriph_Driver/src/stm32f4xx_flash.c ****           On STM32F401x devices:
 224:Drivers/STM32F4xx_StdPeriph_Driver/src/stm32f4xx_flash.c ****            (++) when VOS[1:0] = '0x01' Scale 3 mode, the maximum value of fHCLK is 60MHz.
 225:Drivers/STM32F4xx_StdPeriph_Driver/src/stm32f4xx_flash.c ****            (++) when VOS[1:0] = '0x10' Scale 2 mode, the maximum value of fHCLK is 84MHz.
 226:Drivers/STM32F4xx_StdPeriph_Driver/src/stm32f4xx_flash.c ****           [..]  
 227:Drivers/STM32F4xx_StdPeriph_Driver/src/stm32f4xx_flash.c ****           On STM32F410xx/STM32F411xE devices:
 228:Drivers/STM32F4xx_StdPeriph_Driver/src/stm32f4xx_flash.c ****            (++) when VOS[1:0] = '0x01' Scale 3 mode, the maximum value of fHCLK is 64MHz.
 229:Drivers/STM32F4xx_StdPeriph_Driver/src/stm32f4xx_flash.c ****            (++) when VOS[1:0] = '0x10' Scale 2 mode, the maximum value of fHCLK is 84MHz.
 230:Drivers/STM32F4xx_StdPeriph_Driver/src/stm32f4xx_flash.c ****            (++) when VOS[1:0] = '0x11' Scale 1 mode, the maximum value of fHCLK is 100MHz.
 231:Drivers/STM32F4xx_StdPeriph_Driver/src/stm32f4xx_flash.c **** 
 232:Drivers/STM32F4xx_StdPeriph_Driver/src/stm32f4xx_flash.c ****         For more details please refer product DataSheet 
 233:Drivers/STM32F4xx_StdPeriph_Driver/src/stm32f4xx_flash.c ****            You can use PWR_MainRegulatorModeConfig() function to control VOS bits.
 234:Drivers/STM32F4xx_StdPeriph_Driver/src/stm32f4xx_flash.c **** 
 235:Drivers/STM32F4xx_StdPeriph_Driver/src/stm32f4xx_flash.c ****       (+) void FLASH_PrefetchBufferCmd(FunctionalState NewState)
 236:Drivers/STM32F4xx_StdPeriph_Driver/src/stm32f4xx_flash.c ****       (+) void FLASH_InstructionCacheCmd(FunctionalState NewState)
 237:Drivers/STM32F4xx_StdPeriph_Driver/src/stm32f4xx_flash.c ****       (+) void FLASH_DataCacheCmd(FunctionalState NewState)
 238:Drivers/STM32F4xx_StdPeriph_Driver/src/stm32f4xx_flash.c ****       (+) void FLASH_InstructionCacheReset(void)
 239:Drivers/STM32F4xx_StdPeriph_Driver/src/stm32f4xx_flash.c ****       (+) void FLASH_DataCacheReset(void)
 240:Drivers/STM32F4xx_StdPeriph_Driver/src/stm32f4xx_flash.c ****       
 241:Drivers/STM32F4xx_StdPeriph_Driver/src/stm32f4xx_flash.c ****     [..]   
 242:Drivers/STM32F4xx_StdPeriph_Driver/src/stm32f4xx_flash.c ****       The unlock sequence is not needed for these functions.
 243:Drivers/STM32F4xx_StdPeriph_Driver/src/stm32f4xx_flash.c ****  
 244:Drivers/STM32F4xx_StdPeriph_Driver/src/stm32f4xx_flash.c **** @endverbatim
 245:Drivers/STM32F4xx_StdPeriph_Driver/src/stm32f4xx_flash.c ****   * @{
 246:Drivers/STM32F4xx_StdPeriph_Driver/src/stm32f4xx_flash.c ****   */
 247:Drivers/STM32F4xx_StdPeriph_Driver/src/stm32f4xx_flash.c ****  
 248:Drivers/STM32F4xx_StdPeriph_Driver/src/stm32f4xx_flash.c **** /**
 249:Drivers/STM32F4xx_StdPeriph_Driver/src/stm32f4xx_flash.c ****   * @brief  Sets the code latency value.  
 250:Drivers/STM32F4xx_StdPeriph_Driver/src/stm32f4xx_flash.c ****   * @param  FLASH_Latency: specifies the FLASH Latency value.
 251:Drivers/STM32F4xx_StdPeriph_Driver/src/stm32f4xx_flash.c ****   *          This parameter can be one of the following values:
 252:Drivers/STM32F4xx_StdPeriph_Driver/src/stm32f4xx_flash.c ****   *            @arg FLASH_Latency_0: FLASH Zero Latency cycle
 253:Drivers/STM32F4xx_StdPeriph_Driver/src/stm32f4xx_flash.c ****   *            @arg FLASH_Latency_1: FLASH One Latency cycle
 254:Drivers/STM32F4xx_StdPeriph_Driver/src/stm32f4xx_flash.c ****   *            @arg FLASH_Latency_2: FLASH Two Latency cycles
 255:Drivers/STM32F4xx_StdPeriph_Driver/src/stm32f4xx_flash.c ****   *            @arg FLASH_Latency_3: FLASH Three Latency cycles
 256:Drivers/STM32F4xx_StdPeriph_Driver/src/stm32f4xx_flash.c ****   *            @arg FLASH_Latency_4: FLASH Four Latency cycles 
 257:Drivers/STM32F4xx_StdPeriph_Driver/src/stm32f4xx_flash.c ****   *            @arg FLASH_Latency_5: FLASH Five Latency cycles 
ARM GAS  /tmp/ccQY8YTS.s 			page 6


 258:Drivers/STM32F4xx_StdPeriph_Driver/src/stm32f4xx_flash.c ****   *            @arg FLASH_Latency_6: FLASH Six Latency cycles
 259:Drivers/STM32F4xx_StdPeriph_Driver/src/stm32f4xx_flash.c ****   *            @arg FLASH_Latency_7: FLASH Seven Latency cycles 
 260:Drivers/STM32F4xx_StdPeriph_Driver/src/stm32f4xx_flash.c ****   *            @arg FLASH_Latency_8: FLASH Eight Latency cycles
 261:Drivers/STM32F4xx_StdPeriph_Driver/src/stm32f4xx_flash.c ****   *            @arg FLASH_Latency_9: FLASH Nine Latency cycles
 262:Drivers/STM32F4xx_StdPeriph_Driver/src/stm32f4xx_flash.c ****   *            @arg FLASH_Latency_10: FLASH Teen Latency cycles 
 263:Drivers/STM32F4xx_StdPeriph_Driver/src/stm32f4xx_flash.c ****   *            @arg FLASH_Latency_11: FLASH Eleven Latency cycles 
 264:Drivers/STM32F4xx_StdPeriph_Driver/src/stm32f4xx_flash.c ****   *            @arg FLASH_Latency_12: FLASH Twelve Latency cycles
 265:Drivers/STM32F4xx_StdPeriph_Driver/src/stm32f4xx_flash.c ****   *            @arg FLASH_Latency_13: FLASH Thirteen Latency cycles
 266:Drivers/STM32F4xx_StdPeriph_Driver/src/stm32f4xx_flash.c ****   *            @arg FLASH_Latency_14: FLASH Fourteen Latency cycles
 267:Drivers/STM32F4xx_StdPeriph_Driver/src/stm32f4xx_flash.c ****   *            @arg FLASH_Latency_15: FLASH Fifteen Latency cycles 
 268:Drivers/STM32F4xx_StdPeriph_Driver/src/stm32f4xx_flash.c ****   *              
 269:Drivers/STM32F4xx_StdPeriph_Driver/src/stm32f4xx_flash.c ****   * @note For STM32F405xx/407xx, STM32F415xx/417xx and STM32F401xx/411xE devices this parameter
 270:Drivers/STM32F4xx_StdPeriph_Driver/src/stm32f4xx_flash.c ****   *       can be a value between FLASH_Latency_0 and FLASH_Latency_7.
 271:Drivers/STM32F4xx_StdPeriph_Driver/src/stm32f4xx_flash.c ****   *
 272:Drivers/STM32F4xx_StdPeriph_Driver/src/stm32f4xx_flash.c ****   * @note For STM32F42xxx/43xxx devices this parameter can be a value between 
 273:Drivers/STM32F4xx_StdPeriph_Driver/src/stm32f4xx_flash.c ****   *       FLASH_Latency_0 and FLASH_Latency_15. 
 274:Drivers/STM32F4xx_StdPeriph_Driver/src/stm32f4xx_flash.c ****   *         
 275:Drivers/STM32F4xx_StdPeriph_Driver/src/stm32f4xx_flash.c ****   * @retval None
 276:Drivers/STM32F4xx_StdPeriph_Driver/src/stm32f4xx_flash.c ****   */
 277:Drivers/STM32F4xx_StdPeriph_Driver/src/stm32f4xx_flash.c **** void FLASH_SetLatency(uint32_t FLASH_Latency)
 278:Drivers/STM32F4xx_StdPeriph_Driver/src/stm32f4xx_flash.c **** {
  30              		.loc 1 278 1 view -0
  31              		.cfi_startproc
  32              		@ args = 0, pretend = 0, frame = 0
  33              		@ frame_needed = 0, uses_anonymous_args = 0
  34              		@ link register save eliminated.
 279:Drivers/STM32F4xx_StdPeriph_Driver/src/stm32f4xx_flash.c ****   /* Check the parameters */
 280:Drivers/STM32F4xx_StdPeriph_Driver/src/stm32f4xx_flash.c ****   assert_param(IS_FLASH_LATENCY(FLASH_Latency));
  35              		.loc 1 280 3 view .LVU1
 281:Drivers/STM32F4xx_StdPeriph_Driver/src/stm32f4xx_flash.c ****   
 282:Drivers/STM32F4xx_StdPeriph_Driver/src/stm32f4xx_flash.c ****   /* Perform Byte access to FLASH_ACR[8:0] to set the Latency value */
 283:Drivers/STM32F4xx_StdPeriph_Driver/src/stm32f4xx_flash.c ****   *(__IO uint8_t *)ACR_BYTE0_ADDRESS = (uint8_t)FLASH_Latency;
  36              		.loc 1 283 3 view .LVU2
  37              		.loc 1 283 40 is_stmt 0 view .LVU3
  38 0000 C0B2     		uxtb	r0, r0
  39              	.LVL1:
  40              		.loc 1 283 38 view .LVU4
  41 0002 014B     		ldr	r3, .L2
  42 0004 1870     		strb	r0, [r3]
 284:Drivers/STM32F4xx_StdPeriph_Driver/src/stm32f4xx_flash.c **** }
  43              		.loc 1 284 1 view .LVU5
  44 0006 7047     		bx	lr
  45              	.L3:
  46              		.align	2
  47              	.L2:
  48 0008 003C0240 		.word	1073888256
  49              		.cfi_endproc
  50              	.LFE123:
  52              		.section	.text.FLASH_PrefetchBufferCmd,"ax",%progbits
  53              		.align	1
  54              		.global	FLASH_PrefetchBufferCmd
  55              		.syntax unified
  56              		.thumb
  57              		.thumb_func
  58              		.fpu fpv4-sp-d16
  60              	FLASH_PrefetchBufferCmd:
  61              	.LVL2:
ARM GAS  /tmp/ccQY8YTS.s 			page 7


  62              	.LFB124:
 285:Drivers/STM32F4xx_StdPeriph_Driver/src/stm32f4xx_flash.c **** 
 286:Drivers/STM32F4xx_StdPeriph_Driver/src/stm32f4xx_flash.c **** /**
 287:Drivers/STM32F4xx_StdPeriph_Driver/src/stm32f4xx_flash.c ****   * @brief  Enables or disables the Prefetch Buffer.
 288:Drivers/STM32F4xx_StdPeriph_Driver/src/stm32f4xx_flash.c ****   * @param  NewState: new state of the Prefetch Buffer.
 289:Drivers/STM32F4xx_StdPeriph_Driver/src/stm32f4xx_flash.c ****   *          This parameter  can be: ENABLE or DISABLE.
 290:Drivers/STM32F4xx_StdPeriph_Driver/src/stm32f4xx_flash.c ****   * @retval None
 291:Drivers/STM32F4xx_StdPeriph_Driver/src/stm32f4xx_flash.c ****   */
 292:Drivers/STM32F4xx_StdPeriph_Driver/src/stm32f4xx_flash.c **** void FLASH_PrefetchBufferCmd(FunctionalState NewState)
 293:Drivers/STM32F4xx_StdPeriph_Driver/src/stm32f4xx_flash.c **** {
  63              		.loc 1 293 1 is_stmt 1 view -0
  64              		.cfi_startproc
  65              		@ args = 0, pretend = 0, frame = 0
  66              		@ frame_needed = 0, uses_anonymous_args = 0
  67              		@ link register save eliminated.
 294:Drivers/STM32F4xx_StdPeriph_Driver/src/stm32f4xx_flash.c ****   /* Check the parameters */
 295:Drivers/STM32F4xx_StdPeriph_Driver/src/stm32f4xx_flash.c ****   assert_param(IS_FUNCTIONAL_STATE(NewState));
  68              		.loc 1 295 3 view .LVU7
 296:Drivers/STM32F4xx_StdPeriph_Driver/src/stm32f4xx_flash.c ****   
 297:Drivers/STM32F4xx_StdPeriph_Driver/src/stm32f4xx_flash.c ****   /* Enable or disable the Prefetch Buffer */
 298:Drivers/STM32F4xx_StdPeriph_Driver/src/stm32f4xx_flash.c ****   if(NewState != DISABLE)
  69              		.loc 1 298 3 view .LVU8
  70              		.loc 1 298 5 is_stmt 0 view .LVU9
  71 0000 28B1     		cbz	r0, .L5
 299:Drivers/STM32F4xx_StdPeriph_Driver/src/stm32f4xx_flash.c ****   {
 300:Drivers/STM32F4xx_StdPeriph_Driver/src/stm32f4xx_flash.c ****     FLASH->ACR |= FLASH_ACR_PRFTEN;
  72              		.loc 1 300 5 is_stmt 1 view .LVU10
  73              		.loc 1 300 16 is_stmt 0 view .LVU11
  74 0002 064A     		ldr	r2, .L7
  75 0004 1368     		ldr	r3, [r2]
  76 0006 43F48073 		orr	r3, r3, #256
  77 000a 1360     		str	r3, [r2]
  78 000c 7047     		bx	lr
  79              	.L5:
 301:Drivers/STM32F4xx_StdPeriph_Driver/src/stm32f4xx_flash.c ****   }
 302:Drivers/STM32F4xx_StdPeriph_Driver/src/stm32f4xx_flash.c ****   else
 303:Drivers/STM32F4xx_StdPeriph_Driver/src/stm32f4xx_flash.c ****   {
 304:Drivers/STM32F4xx_StdPeriph_Driver/src/stm32f4xx_flash.c ****     FLASH->ACR &= (~FLASH_ACR_PRFTEN);
  80              		.loc 1 304 5 is_stmt 1 view .LVU12
  81              		.loc 1 304 16 is_stmt 0 view .LVU13
  82 000e 034A     		ldr	r2, .L7
  83 0010 1368     		ldr	r3, [r2]
  84 0012 23F48073 		bic	r3, r3, #256
  85 0016 1360     		str	r3, [r2]
 305:Drivers/STM32F4xx_StdPeriph_Driver/src/stm32f4xx_flash.c ****   }
 306:Drivers/STM32F4xx_StdPeriph_Driver/src/stm32f4xx_flash.c **** }
  86              		.loc 1 306 1 view .LVU14
  87 0018 7047     		bx	lr
  88              	.L8:
  89 001a 00BF     		.align	2
  90              	.L7:
  91 001c 003C0240 		.word	1073888256
  92              		.cfi_endproc
  93              	.LFE124:
  95              		.section	.text.FLASH_InstructionCacheCmd,"ax",%progbits
  96              		.align	1
  97              		.global	FLASH_InstructionCacheCmd
ARM GAS  /tmp/ccQY8YTS.s 			page 8


  98              		.syntax unified
  99              		.thumb
 100              		.thumb_func
 101              		.fpu fpv4-sp-d16
 103              	FLASH_InstructionCacheCmd:
 104              	.LVL3:
 105              	.LFB125:
 307:Drivers/STM32F4xx_StdPeriph_Driver/src/stm32f4xx_flash.c **** 
 308:Drivers/STM32F4xx_StdPeriph_Driver/src/stm32f4xx_flash.c **** /**
 309:Drivers/STM32F4xx_StdPeriph_Driver/src/stm32f4xx_flash.c ****   * @brief  Enables or disables the Instruction Cache feature.
 310:Drivers/STM32F4xx_StdPeriph_Driver/src/stm32f4xx_flash.c ****   * @param  NewState: new state of the Instruction Cache.
 311:Drivers/STM32F4xx_StdPeriph_Driver/src/stm32f4xx_flash.c ****   *          This parameter  can be: ENABLE or DISABLE.
 312:Drivers/STM32F4xx_StdPeriph_Driver/src/stm32f4xx_flash.c ****   * @retval None
 313:Drivers/STM32F4xx_StdPeriph_Driver/src/stm32f4xx_flash.c ****   */
 314:Drivers/STM32F4xx_StdPeriph_Driver/src/stm32f4xx_flash.c **** void FLASH_InstructionCacheCmd(FunctionalState NewState)
 315:Drivers/STM32F4xx_StdPeriph_Driver/src/stm32f4xx_flash.c **** {
 106              		.loc 1 315 1 is_stmt 1 view -0
 107              		.cfi_startproc
 108              		@ args = 0, pretend = 0, frame = 0
 109              		@ frame_needed = 0, uses_anonymous_args = 0
 110              		@ link register save eliminated.
 316:Drivers/STM32F4xx_StdPeriph_Driver/src/stm32f4xx_flash.c ****   /* Check the parameters */
 317:Drivers/STM32F4xx_StdPeriph_Driver/src/stm32f4xx_flash.c ****   assert_param(IS_FUNCTIONAL_STATE(NewState));
 111              		.loc 1 317 3 view .LVU16
 318:Drivers/STM32F4xx_StdPeriph_Driver/src/stm32f4xx_flash.c ****   
 319:Drivers/STM32F4xx_StdPeriph_Driver/src/stm32f4xx_flash.c ****   if(NewState != DISABLE)
 112              		.loc 1 319 3 view .LVU17
 113              		.loc 1 319 5 is_stmt 0 view .LVU18
 114 0000 28B1     		cbz	r0, .L10
 320:Drivers/STM32F4xx_StdPeriph_Driver/src/stm32f4xx_flash.c ****   {
 321:Drivers/STM32F4xx_StdPeriph_Driver/src/stm32f4xx_flash.c ****     FLASH->ACR |= FLASH_ACR_ICEN;
 115              		.loc 1 321 5 is_stmt 1 view .LVU19
 116              		.loc 1 321 16 is_stmt 0 view .LVU20
 117 0002 064A     		ldr	r2, .L12
 118 0004 1368     		ldr	r3, [r2]
 119 0006 43F40073 		orr	r3, r3, #512
 120 000a 1360     		str	r3, [r2]
 121 000c 7047     		bx	lr
 122              	.L10:
 322:Drivers/STM32F4xx_StdPeriph_Driver/src/stm32f4xx_flash.c ****   }
 323:Drivers/STM32F4xx_StdPeriph_Driver/src/stm32f4xx_flash.c ****   else
 324:Drivers/STM32F4xx_StdPeriph_Driver/src/stm32f4xx_flash.c ****   {
 325:Drivers/STM32F4xx_StdPeriph_Driver/src/stm32f4xx_flash.c ****     FLASH->ACR &= (~FLASH_ACR_ICEN);
 123              		.loc 1 325 5 is_stmt 1 view .LVU21
 124              		.loc 1 325 16 is_stmt 0 view .LVU22
 125 000e 034A     		ldr	r2, .L12
 126 0010 1368     		ldr	r3, [r2]
 127 0012 23F40073 		bic	r3, r3, #512
 128 0016 1360     		str	r3, [r2]
 326:Drivers/STM32F4xx_StdPeriph_Driver/src/stm32f4xx_flash.c ****   }
 327:Drivers/STM32F4xx_StdPeriph_Driver/src/stm32f4xx_flash.c **** }
 129              		.loc 1 327 1 view .LVU23
 130 0018 7047     		bx	lr
 131              	.L13:
 132 001a 00BF     		.align	2
 133              	.L12:
 134 001c 003C0240 		.word	1073888256
ARM GAS  /tmp/ccQY8YTS.s 			page 9


 135              		.cfi_endproc
 136              	.LFE125:
 138              		.section	.text.FLASH_DataCacheCmd,"ax",%progbits
 139              		.align	1
 140              		.global	FLASH_DataCacheCmd
 141              		.syntax unified
 142              		.thumb
 143              		.thumb_func
 144              		.fpu fpv4-sp-d16
 146              	FLASH_DataCacheCmd:
 147              	.LVL4:
 148              	.LFB126:
 328:Drivers/STM32F4xx_StdPeriph_Driver/src/stm32f4xx_flash.c **** 
 329:Drivers/STM32F4xx_StdPeriph_Driver/src/stm32f4xx_flash.c **** /**
 330:Drivers/STM32F4xx_StdPeriph_Driver/src/stm32f4xx_flash.c ****   * @brief  Enables or disables the Data Cache feature.
 331:Drivers/STM32F4xx_StdPeriph_Driver/src/stm32f4xx_flash.c ****   * @param  NewState: new state of the Data Cache.
 332:Drivers/STM32F4xx_StdPeriph_Driver/src/stm32f4xx_flash.c ****   *          This parameter  can be: ENABLE or DISABLE.
 333:Drivers/STM32F4xx_StdPeriph_Driver/src/stm32f4xx_flash.c ****   * @retval None
 334:Drivers/STM32F4xx_StdPeriph_Driver/src/stm32f4xx_flash.c ****   */
 335:Drivers/STM32F4xx_StdPeriph_Driver/src/stm32f4xx_flash.c **** void FLASH_DataCacheCmd(FunctionalState NewState)
 336:Drivers/STM32F4xx_StdPeriph_Driver/src/stm32f4xx_flash.c **** {
 149              		.loc 1 336 1 is_stmt 1 view -0
 150              		.cfi_startproc
 151              		@ args = 0, pretend = 0, frame = 0
 152              		@ frame_needed = 0, uses_anonymous_args = 0
 153              		@ link register save eliminated.
 337:Drivers/STM32F4xx_StdPeriph_Driver/src/stm32f4xx_flash.c ****   /* Check the parameters */
 338:Drivers/STM32F4xx_StdPeriph_Driver/src/stm32f4xx_flash.c ****   assert_param(IS_FUNCTIONAL_STATE(NewState));
 154              		.loc 1 338 3 view .LVU25
 339:Drivers/STM32F4xx_StdPeriph_Driver/src/stm32f4xx_flash.c ****   
 340:Drivers/STM32F4xx_StdPeriph_Driver/src/stm32f4xx_flash.c ****   if(NewState != DISABLE)
 155              		.loc 1 340 3 view .LVU26
 156              		.loc 1 340 5 is_stmt 0 view .LVU27
 157 0000 28B1     		cbz	r0, .L15
 341:Drivers/STM32F4xx_StdPeriph_Driver/src/stm32f4xx_flash.c ****   {
 342:Drivers/STM32F4xx_StdPeriph_Driver/src/stm32f4xx_flash.c ****     FLASH->ACR |= FLASH_ACR_DCEN;
 158              		.loc 1 342 5 is_stmt 1 view .LVU28
 159              		.loc 1 342 16 is_stmt 0 view .LVU29
 160 0002 064A     		ldr	r2, .L17
 161 0004 1368     		ldr	r3, [r2]
 162 0006 43F48063 		orr	r3, r3, #1024
 163 000a 1360     		str	r3, [r2]
 164 000c 7047     		bx	lr
 165              	.L15:
 343:Drivers/STM32F4xx_StdPeriph_Driver/src/stm32f4xx_flash.c ****   }
 344:Drivers/STM32F4xx_StdPeriph_Driver/src/stm32f4xx_flash.c ****   else
 345:Drivers/STM32F4xx_StdPeriph_Driver/src/stm32f4xx_flash.c ****   {
 346:Drivers/STM32F4xx_StdPeriph_Driver/src/stm32f4xx_flash.c ****     FLASH->ACR &= (~FLASH_ACR_DCEN);
 166              		.loc 1 346 5 is_stmt 1 view .LVU30
 167              		.loc 1 346 16 is_stmt 0 view .LVU31
 168 000e 034A     		ldr	r2, .L17
 169 0010 1368     		ldr	r3, [r2]
 170 0012 23F48063 		bic	r3, r3, #1024
 171 0016 1360     		str	r3, [r2]
 347:Drivers/STM32F4xx_StdPeriph_Driver/src/stm32f4xx_flash.c ****   }
 348:Drivers/STM32F4xx_StdPeriph_Driver/src/stm32f4xx_flash.c **** }
 172              		.loc 1 348 1 view .LVU32
ARM GAS  /tmp/ccQY8YTS.s 			page 10


 173 0018 7047     		bx	lr
 174              	.L18:
 175 001a 00BF     		.align	2
 176              	.L17:
 177 001c 003C0240 		.word	1073888256
 178              		.cfi_endproc
 179              	.LFE126:
 181              		.section	.text.FLASH_InstructionCacheReset,"ax",%progbits
 182              		.align	1
 183              		.global	FLASH_InstructionCacheReset
 184              		.syntax unified
 185              		.thumb
 186              		.thumb_func
 187              		.fpu fpv4-sp-d16
 189              	FLASH_InstructionCacheReset:
 190              	.LFB127:
 349:Drivers/STM32F4xx_StdPeriph_Driver/src/stm32f4xx_flash.c **** 
 350:Drivers/STM32F4xx_StdPeriph_Driver/src/stm32f4xx_flash.c **** /**
 351:Drivers/STM32F4xx_StdPeriph_Driver/src/stm32f4xx_flash.c ****   * @brief  Resets the Instruction Cache.
 352:Drivers/STM32F4xx_StdPeriph_Driver/src/stm32f4xx_flash.c ****   * @note   This function must be used only when the Instruction Cache is disabled.  
 353:Drivers/STM32F4xx_StdPeriph_Driver/src/stm32f4xx_flash.c ****   * @param  None
 354:Drivers/STM32F4xx_StdPeriph_Driver/src/stm32f4xx_flash.c ****   * @retval None
 355:Drivers/STM32F4xx_StdPeriph_Driver/src/stm32f4xx_flash.c ****   */
 356:Drivers/STM32F4xx_StdPeriph_Driver/src/stm32f4xx_flash.c **** void FLASH_InstructionCacheReset(void)
 357:Drivers/STM32F4xx_StdPeriph_Driver/src/stm32f4xx_flash.c **** {
 191              		.loc 1 357 1 is_stmt 1 view -0
 192              		.cfi_startproc
 193              		@ args = 0, pretend = 0, frame = 0
 194              		@ frame_needed = 0, uses_anonymous_args = 0
 195              		@ link register save eliminated.
 358:Drivers/STM32F4xx_StdPeriph_Driver/src/stm32f4xx_flash.c ****   FLASH->ACR |= FLASH_ACR_ICRST;
 196              		.loc 1 358 3 view .LVU34
 197              		.loc 1 358 14 is_stmt 0 view .LVU35
 198 0000 024A     		ldr	r2, .L20
 199 0002 1368     		ldr	r3, [r2]
 200 0004 43F40063 		orr	r3, r3, #2048
 201 0008 1360     		str	r3, [r2]
 359:Drivers/STM32F4xx_StdPeriph_Driver/src/stm32f4xx_flash.c **** }
 202              		.loc 1 359 1 view .LVU36
 203 000a 7047     		bx	lr
 204              	.L21:
 205              		.align	2
 206              	.L20:
 207 000c 003C0240 		.word	1073888256
 208              		.cfi_endproc
 209              	.LFE127:
 211              		.section	.text.FLASH_DataCacheReset,"ax",%progbits
 212              		.align	1
 213              		.global	FLASH_DataCacheReset
 214              		.syntax unified
 215              		.thumb
 216              		.thumb_func
 217              		.fpu fpv4-sp-d16
 219              	FLASH_DataCacheReset:
 220              	.LFB128:
 360:Drivers/STM32F4xx_StdPeriph_Driver/src/stm32f4xx_flash.c **** 
 361:Drivers/STM32F4xx_StdPeriph_Driver/src/stm32f4xx_flash.c **** /**
ARM GAS  /tmp/ccQY8YTS.s 			page 11


 362:Drivers/STM32F4xx_StdPeriph_Driver/src/stm32f4xx_flash.c ****   * @brief  Resets the Data Cache.
 363:Drivers/STM32F4xx_StdPeriph_Driver/src/stm32f4xx_flash.c ****   * @note   This function must be used only when the Data Cache is disabled.  
 364:Drivers/STM32F4xx_StdPeriph_Driver/src/stm32f4xx_flash.c ****   * @param  None
 365:Drivers/STM32F4xx_StdPeriph_Driver/src/stm32f4xx_flash.c ****   * @retval None
 366:Drivers/STM32F4xx_StdPeriph_Driver/src/stm32f4xx_flash.c ****   */
 367:Drivers/STM32F4xx_StdPeriph_Driver/src/stm32f4xx_flash.c **** void FLASH_DataCacheReset(void)
 368:Drivers/STM32F4xx_StdPeriph_Driver/src/stm32f4xx_flash.c **** {
 221              		.loc 1 368 1 is_stmt 1 view -0
 222              		.cfi_startproc
 223              		@ args = 0, pretend = 0, frame = 0
 224              		@ frame_needed = 0, uses_anonymous_args = 0
 225              		@ link register save eliminated.
 369:Drivers/STM32F4xx_StdPeriph_Driver/src/stm32f4xx_flash.c ****   FLASH->ACR |= FLASH_ACR_DCRST;
 226              		.loc 1 369 3 view .LVU38
 227              		.loc 1 369 14 is_stmt 0 view .LVU39
 228 0000 024A     		ldr	r2, .L23
 229 0002 1368     		ldr	r3, [r2]
 230 0004 43F48053 		orr	r3, r3, #4096
 231 0008 1360     		str	r3, [r2]
 370:Drivers/STM32F4xx_StdPeriph_Driver/src/stm32f4xx_flash.c **** }
 232              		.loc 1 370 1 view .LVU40
 233 000a 7047     		bx	lr
 234              	.L24:
 235              		.align	2
 236              	.L23:
 237 000c 003C0240 		.word	1073888256
 238              		.cfi_endproc
 239              	.LFE128:
 241              		.section	.text.FLASH_Unlock,"ax",%progbits
 242              		.align	1
 243              		.global	FLASH_Unlock
 244              		.syntax unified
 245              		.thumb
 246              		.thumb_func
 247              		.fpu fpv4-sp-d16
 249              	FLASH_Unlock:
 250              	.LFB129:
 371:Drivers/STM32F4xx_StdPeriph_Driver/src/stm32f4xx_flash.c **** 
 372:Drivers/STM32F4xx_StdPeriph_Driver/src/stm32f4xx_flash.c **** /**
 373:Drivers/STM32F4xx_StdPeriph_Driver/src/stm32f4xx_flash.c ****   * @}
 374:Drivers/STM32F4xx_StdPeriph_Driver/src/stm32f4xx_flash.c ****   */
 375:Drivers/STM32F4xx_StdPeriph_Driver/src/stm32f4xx_flash.c **** 
 376:Drivers/STM32F4xx_StdPeriph_Driver/src/stm32f4xx_flash.c **** /** @defgroup FLASH_Group2 FLASH Memory Programming functions
 377:Drivers/STM32F4xx_StdPeriph_Driver/src/stm32f4xx_flash.c ****  *  @brief   FLASH Memory Programming functions
 378:Drivers/STM32F4xx_StdPeriph_Driver/src/stm32f4xx_flash.c ****  *
 379:Drivers/STM32F4xx_StdPeriph_Driver/src/stm32f4xx_flash.c **** @verbatim   
 380:Drivers/STM32F4xx_StdPeriph_Driver/src/stm32f4xx_flash.c ****  ===============================================================================
 381:Drivers/STM32F4xx_StdPeriph_Driver/src/stm32f4xx_flash.c ****                 ##### FLASH Memory Programming functions #####
 382:Drivers/STM32F4xx_StdPeriph_Driver/src/stm32f4xx_flash.c ****  ===============================================================================   
 383:Drivers/STM32F4xx_StdPeriph_Driver/src/stm32f4xx_flash.c ****     [..]
 384:Drivers/STM32F4xx_StdPeriph_Driver/src/stm32f4xx_flash.c ****       This group includes the following functions:
 385:Drivers/STM32F4xx_StdPeriph_Driver/src/stm32f4xx_flash.c ****       (+) void FLASH_Unlock(void)
 386:Drivers/STM32F4xx_StdPeriph_Driver/src/stm32f4xx_flash.c ****       (+) void FLASH_Lock(void)
 387:Drivers/STM32F4xx_StdPeriph_Driver/src/stm32f4xx_flash.c ****       (+) FLASH_Status FLASH_EraseSector(uint32_t FLASH_Sector, uint8_t VoltageRange)
 388:Drivers/STM32F4xx_StdPeriph_Driver/src/stm32f4xx_flash.c ****       (+) FLASH_Status FLASH_EraseAllSectors(uint8_t VoltageRange)       
 389:Drivers/STM32F4xx_StdPeriph_Driver/src/stm32f4xx_flash.c ****       (+) FLASH_Status FLASH_ProgramDoubleWord(uint32_t Address, uint64_t Data)
 390:Drivers/STM32F4xx_StdPeriph_Driver/src/stm32f4xx_flash.c ****       (+) FLASH_Status FLASH_ProgramWord(uint32_t Address, uint32_t Data)
ARM GAS  /tmp/ccQY8YTS.s 			page 12


 391:Drivers/STM32F4xx_StdPeriph_Driver/src/stm32f4xx_flash.c ****       (+) FLASH_Status FLASH_ProgramHalfWord(uint32_t Address, uint16_t Data)
 392:Drivers/STM32F4xx_StdPeriph_Driver/src/stm32f4xx_flash.c ****       (+) FLASH_Status FLASH_ProgramByte(uint32_t Address, uint8_t Data)
 393:Drivers/STM32F4xx_StdPeriph_Driver/src/stm32f4xx_flash.c ****           The following functions can be used only for STM32F42xxx/43xxx devices. 
 394:Drivers/STM32F4xx_StdPeriph_Driver/src/stm32f4xx_flash.c ****       (+) FLASH_Status FLASH_EraseAllBank1Sectors(uint8_t VoltageRange)
 395:Drivers/STM32F4xx_StdPeriph_Driver/src/stm32f4xx_flash.c ****       (+) FLASH_Status FLASH_EraseAllBank2Sectors(uint8_t VoltageRange)    
 396:Drivers/STM32F4xx_StdPeriph_Driver/src/stm32f4xx_flash.c ****     [..]   
 397:Drivers/STM32F4xx_StdPeriph_Driver/src/stm32f4xx_flash.c ****       Any operation of erase or program should follow these steps:
 398:Drivers/STM32F4xx_StdPeriph_Driver/src/stm32f4xx_flash.c ****       (#) Call the FLASH_Unlock() function to enable the FLASH control register access
 399:Drivers/STM32F4xx_StdPeriph_Driver/src/stm32f4xx_flash.c **** 
 400:Drivers/STM32F4xx_StdPeriph_Driver/src/stm32f4xx_flash.c ****       (#) Call the desired function to erase sector(s) or program data
 401:Drivers/STM32F4xx_StdPeriph_Driver/src/stm32f4xx_flash.c **** 
 402:Drivers/STM32F4xx_StdPeriph_Driver/src/stm32f4xx_flash.c ****       (#) Call the FLASH_Lock() function to disable the FLASH control register access
 403:Drivers/STM32F4xx_StdPeriph_Driver/src/stm32f4xx_flash.c ****           (recommended to protect the FLASH memory against possible unwanted operation)
 404:Drivers/STM32F4xx_StdPeriph_Driver/src/stm32f4xx_flash.c ****     
 405:Drivers/STM32F4xx_StdPeriph_Driver/src/stm32f4xx_flash.c **** @endverbatim
 406:Drivers/STM32F4xx_StdPeriph_Driver/src/stm32f4xx_flash.c ****   * @{
 407:Drivers/STM32F4xx_StdPeriph_Driver/src/stm32f4xx_flash.c ****   */
 408:Drivers/STM32F4xx_StdPeriph_Driver/src/stm32f4xx_flash.c **** 
 409:Drivers/STM32F4xx_StdPeriph_Driver/src/stm32f4xx_flash.c **** /**
 410:Drivers/STM32F4xx_StdPeriph_Driver/src/stm32f4xx_flash.c ****   * @brief  Unlocks the FLASH control register access
 411:Drivers/STM32F4xx_StdPeriph_Driver/src/stm32f4xx_flash.c ****   * @param  None
 412:Drivers/STM32F4xx_StdPeriph_Driver/src/stm32f4xx_flash.c ****   * @retval None
 413:Drivers/STM32F4xx_StdPeriph_Driver/src/stm32f4xx_flash.c ****   */
 414:Drivers/STM32F4xx_StdPeriph_Driver/src/stm32f4xx_flash.c **** void FLASH_Unlock(void)
 415:Drivers/STM32F4xx_StdPeriph_Driver/src/stm32f4xx_flash.c **** {
 251              		.loc 1 415 1 is_stmt 1 view -0
 252              		.cfi_startproc
 253              		@ args = 0, pretend = 0, frame = 0
 254              		@ frame_needed = 0, uses_anonymous_args = 0
 255              		@ link register save eliminated.
 416:Drivers/STM32F4xx_StdPeriph_Driver/src/stm32f4xx_flash.c ****   if((FLASH->CR & FLASH_CR_LOCK) != RESET)
 256              		.loc 1 416 3 view .LVU42
 257              		.loc 1 416 12 is_stmt 0 view .LVU43
 258 0000 054B     		ldr	r3, .L28
 259 0002 1B69     		ldr	r3, [r3, #16]
 260              		.loc 1 416 5 view .LVU44
 261 0004 002B     		cmp	r3, #0
 262 0006 00DB     		blt	.L27
 263              	.L25:
 417:Drivers/STM32F4xx_StdPeriph_Driver/src/stm32f4xx_flash.c ****   {
 418:Drivers/STM32F4xx_StdPeriph_Driver/src/stm32f4xx_flash.c ****     /* Authorize the FLASH Registers access */
 419:Drivers/STM32F4xx_StdPeriph_Driver/src/stm32f4xx_flash.c ****     FLASH->KEYR = FLASH_KEY1;
 420:Drivers/STM32F4xx_StdPeriph_Driver/src/stm32f4xx_flash.c ****     FLASH->KEYR = FLASH_KEY2;
 421:Drivers/STM32F4xx_StdPeriph_Driver/src/stm32f4xx_flash.c ****   }  
 422:Drivers/STM32F4xx_StdPeriph_Driver/src/stm32f4xx_flash.c **** }
 264              		.loc 1 422 1 view .LVU45
 265 0008 7047     		bx	lr
 266              	.L27:
 419:Drivers/STM32F4xx_StdPeriph_Driver/src/stm32f4xx_flash.c ****     FLASH->KEYR = FLASH_KEY2;
 267              		.loc 1 419 5 is_stmt 1 view .LVU46
 419:Drivers/STM32F4xx_StdPeriph_Driver/src/stm32f4xx_flash.c ****     FLASH->KEYR = FLASH_KEY2;
 268              		.loc 1 419 17 is_stmt 0 view .LVU47
 269 000a 034B     		ldr	r3, .L28
 270 000c 034A     		ldr	r2, .L28+4
 271 000e 5A60     		str	r2, [r3, #4]
 420:Drivers/STM32F4xx_StdPeriph_Driver/src/stm32f4xx_flash.c ****   }  
 272              		.loc 1 420 5 is_stmt 1 view .LVU48
ARM GAS  /tmp/ccQY8YTS.s 			page 13


 420:Drivers/STM32F4xx_StdPeriph_Driver/src/stm32f4xx_flash.c ****   }  
 273              		.loc 1 420 17 is_stmt 0 view .LVU49
 274 0010 02F18832 		add	r2, r2, #-2004318072
 275 0014 5A60     		str	r2, [r3, #4]
 276              		.loc 1 422 1 view .LVU50
 277 0016 F7E7     		b	.L25
 278              	.L29:
 279              		.align	2
 280              	.L28:
 281 0018 003C0240 		.word	1073888256
 282 001c 23016745 		.word	1164378403
 283              		.cfi_endproc
 284              	.LFE129:
 286              		.section	.text.FLASH_Lock,"ax",%progbits
 287              		.align	1
 288              		.global	FLASH_Lock
 289              		.syntax unified
 290              		.thumb
 291              		.thumb_func
 292              		.fpu fpv4-sp-d16
 294              	FLASH_Lock:
 295              	.LFB130:
 423:Drivers/STM32F4xx_StdPeriph_Driver/src/stm32f4xx_flash.c **** 
 424:Drivers/STM32F4xx_StdPeriph_Driver/src/stm32f4xx_flash.c **** /**
 425:Drivers/STM32F4xx_StdPeriph_Driver/src/stm32f4xx_flash.c ****   * @brief  Locks the FLASH control register access
 426:Drivers/STM32F4xx_StdPeriph_Driver/src/stm32f4xx_flash.c ****   * @param  None
 427:Drivers/STM32F4xx_StdPeriph_Driver/src/stm32f4xx_flash.c ****   * @retval None
 428:Drivers/STM32F4xx_StdPeriph_Driver/src/stm32f4xx_flash.c ****   */
 429:Drivers/STM32F4xx_StdPeriph_Driver/src/stm32f4xx_flash.c **** void FLASH_Lock(void)
 430:Drivers/STM32F4xx_StdPeriph_Driver/src/stm32f4xx_flash.c **** {
 296              		.loc 1 430 1 is_stmt 1 view -0
 297              		.cfi_startproc
 298              		@ args = 0, pretend = 0, frame = 0
 299              		@ frame_needed = 0, uses_anonymous_args = 0
 300              		@ link register save eliminated.
 431:Drivers/STM32F4xx_StdPeriph_Driver/src/stm32f4xx_flash.c ****   /* Set the LOCK Bit to lock the FLASH Registers access */
 432:Drivers/STM32F4xx_StdPeriph_Driver/src/stm32f4xx_flash.c ****   FLASH->CR |= FLASH_CR_LOCK;
 301              		.loc 1 432 3 view .LVU52
 302              		.loc 1 432 13 is_stmt 0 view .LVU53
 303 0000 024A     		ldr	r2, .L31
 304 0002 1369     		ldr	r3, [r2, #16]
 305 0004 43F00043 		orr	r3, r3, #-2147483648
 306 0008 1361     		str	r3, [r2, #16]
 433:Drivers/STM32F4xx_StdPeriph_Driver/src/stm32f4xx_flash.c **** }
 307              		.loc 1 433 1 view .LVU54
 308 000a 7047     		bx	lr
 309              	.L32:
 310              		.align	2
 311              	.L31:
 312 000c 003C0240 		.word	1073888256
 313              		.cfi_endproc
 314              	.LFE130:
 316              		.section	.text.FLASH_OB_Unlock,"ax",%progbits
 317              		.align	1
 318              		.global	FLASH_OB_Unlock
 319              		.syntax unified
 320              		.thumb
ARM GAS  /tmp/ccQY8YTS.s 			page 14


 321              		.thumb_func
 322              		.fpu fpv4-sp-d16
 324              	FLASH_OB_Unlock:
 325              	.LFB139:
 434:Drivers/STM32F4xx_StdPeriph_Driver/src/stm32f4xx_flash.c **** 
 435:Drivers/STM32F4xx_StdPeriph_Driver/src/stm32f4xx_flash.c **** /**
 436:Drivers/STM32F4xx_StdPeriph_Driver/src/stm32f4xx_flash.c ****   * @brief  Erases a specified FLASH Sector.
 437:Drivers/STM32F4xx_StdPeriph_Driver/src/stm32f4xx_flash.c ****   *
 438:Drivers/STM32F4xx_StdPeriph_Driver/src/stm32f4xx_flash.c ****   * @note   If an erase and a program operations are requested simultaneously,    
 439:Drivers/STM32F4xx_StdPeriph_Driver/src/stm32f4xx_flash.c ****   *         the erase operation is performed before the program one.
 440:Drivers/STM32F4xx_StdPeriph_Driver/src/stm32f4xx_flash.c ****   *
 441:Drivers/STM32F4xx_StdPeriph_Driver/src/stm32f4xx_flash.c ****   * @param  FLASH_Sector: The Sector number to be erased.
 442:Drivers/STM32F4xx_StdPeriph_Driver/src/stm32f4xx_flash.c ****   *
 443:Drivers/STM32F4xx_StdPeriph_Driver/src/stm32f4xx_flash.c ****   *  @note  For STM32F405xx/407xx and STM32F415xx/417xx devices this parameter can 
 444:Drivers/STM32F4xx_StdPeriph_Driver/src/stm32f4xx_flash.c ****   *         be a value between FLASH_Sector_0 and FLASH_Sector_11.
 445:Drivers/STM32F4xx_StdPeriph_Driver/src/stm32f4xx_flash.c ****   *
 446:Drivers/STM32F4xx_StdPeriph_Driver/src/stm32f4xx_flash.c ****   *         For STM32F42xxx/43xxx devices this parameter can be a value between 
 447:Drivers/STM32F4xx_StdPeriph_Driver/src/stm32f4xx_flash.c ****   *         FLASH_Sector_0 and FLASH_Sector_23.
 448:Drivers/STM32F4xx_StdPeriph_Driver/src/stm32f4xx_flash.c ****   *
 449:Drivers/STM32F4xx_StdPeriph_Driver/src/stm32f4xx_flash.c ****   *         For STM32F401xx devices this parameter can be a value between 
 450:Drivers/STM32F4xx_StdPeriph_Driver/src/stm32f4xx_flash.c ****   *         FLASH_Sector_0 and FLASH_Sector_5.
 451:Drivers/STM32F4xx_StdPeriph_Driver/src/stm32f4xx_flash.c ****   *
 452:Drivers/STM32F4xx_StdPeriph_Driver/src/stm32f4xx_flash.c ****   *         For STM32F411xE devices this parameter can be a value between 
 453:Drivers/STM32F4xx_StdPeriph_Driver/src/stm32f4xx_flash.c ****   *         FLASH_Sector_0 and FLASH_Sector_7.
 454:Drivers/STM32F4xx_StdPeriph_Driver/src/stm32f4xx_flash.c ****   *
 455:Drivers/STM32F4xx_StdPeriph_Driver/src/stm32f4xx_flash.c ****   *         For STM32F410xx devices this parameter can be a value between 
 456:Drivers/STM32F4xx_StdPeriph_Driver/src/stm32f4xx_flash.c ****   *         FLASH_Sector_0 and FLASH_Sector_4.
 457:Drivers/STM32F4xx_StdPeriph_Driver/src/stm32f4xx_flash.c ****   *
 458:Drivers/STM32F4xx_StdPeriph_Driver/src/stm32f4xx_flash.c ****   * @param  VoltageRange: The device voltage range which defines the erase parallelism.  
 459:Drivers/STM32F4xx_StdPeriph_Driver/src/stm32f4xx_flash.c ****   *          This parameter can be one of the following values:
 460:Drivers/STM32F4xx_StdPeriph_Driver/src/stm32f4xx_flash.c ****   *            @arg VoltageRange_1: when the device voltage range is 1.8V to 2.1V, 
 461:Drivers/STM32F4xx_StdPeriph_Driver/src/stm32f4xx_flash.c ****   *                                  the operation will be done by byte (8-bit) 
 462:Drivers/STM32F4xx_StdPeriph_Driver/src/stm32f4xx_flash.c ****   *            @arg VoltageRange_2: when the device voltage range is 2.1V to 2.7V,
 463:Drivers/STM32F4xx_StdPeriph_Driver/src/stm32f4xx_flash.c ****   *                                  the operation will be done by half word (16-bit)
 464:Drivers/STM32F4xx_StdPeriph_Driver/src/stm32f4xx_flash.c ****   *            @arg VoltageRange_3: when the device voltage range is 2.7V to 3.6V,
 465:Drivers/STM32F4xx_StdPeriph_Driver/src/stm32f4xx_flash.c ****   *                                  the operation will be done by word (32-bit)
 466:Drivers/STM32F4xx_StdPeriph_Driver/src/stm32f4xx_flash.c ****   *            @arg VoltageRange_4: when the device voltage range is 2.7V to 3.6V + External Vpp, 
 467:Drivers/STM32F4xx_StdPeriph_Driver/src/stm32f4xx_flash.c ****   *                                  the operation will be done by double word (64-bit)
 468:Drivers/STM32F4xx_StdPeriph_Driver/src/stm32f4xx_flash.c ****   *       
 469:Drivers/STM32F4xx_StdPeriph_Driver/src/stm32f4xx_flash.c ****   * @retval FLASH Status: The returned value can be: FLASH_BUSY, FLASH_ERROR_PROGRAM,
 470:Drivers/STM32F4xx_StdPeriph_Driver/src/stm32f4xx_flash.c ****   *                       FLASH_ERROR_WRP, FLASH_ERROR_OPERATION or FLASH_COMPLETE.
 471:Drivers/STM32F4xx_StdPeriph_Driver/src/stm32f4xx_flash.c ****   */
 472:Drivers/STM32F4xx_StdPeriph_Driver/src/stm32f4xx_flash.c **** FLASH_Status FLASH_EraseSector(uint32_t FLASH_Sector, uint8_t VoltageRange)
 473:Drivers/STM32F4xx_StdPeriph_Driver/src/stm32f4xx_flash.c **** {
 474:Drivers/STM32F4xx_StdPeriph_Driver/src/stm32f4xx_flash.c ****   uint32_t tmp_psize = 0x0;
 475:Drivers/STM32F4xx_StdPeriph_Driver/src/stm32f4xx_flash.c ****   FLASH_Status status = FLASH_COMPLETE;
 476:Drivers/STM32F4xx_StdPeriph_Driver/src/stm32f4xx_flash.c **** 
 477:Drivers/STM32F4xx_StdPeriph_Driver/src/stm32f4xx_flash.c ****   /* Check the parameters */
 478:Drivers/STM32F4xx_StdPeriph_Driver/src/stm32f4xx_flash.c ****   assert_param(IS_FLASH_SECTOR(FLASH_Sector));
 479:Drivers/STM32F4xx_StdPeriph_Driver/src/stm32f4xx_flash.c ****   assert_param(IS_VOLTAGERANGE(VoltageRange));
 480:Drivers/STM32F4xx_StdPeriph_Driver/src/stm32f4xx_flash.c ****   
 481:Drivers/STM32F4xx_StdPeriph_Driver/src/stm32f4xx_flash.c ****   if(VoltageRange == VoltageRange_1)
 482:Drivers/STM32F4xx_StdPeriph_Driver/src/stm32f4xx_flash.c ****   {
 483:Drivers/STM32F4xx_StdPeriph_Driver/src/stm32f4xx_flash.c ****      tmp_psize = FLASH_PSIZE_BYTE;
 484:Drivers/STM32F4xx_StdPeriph_Driver/src/stm32f4xx_flash.c ****   }
 485:Drivers/STM32F4xx_StdPeriph_Driver/src/stm32f4xx_flash.c ****   else if(VoltageRange == VoltageRange_2)
 486:Drivers/STM32F4xx_StdPeriph_Driver/src/stm32f4xx_flash.c ****   {
ARM GAS  /tmp/ccQY8YTS.s 			page 15


 487:Drivers/STM32F4xx_StdPeriph_Driver/src/stm32f4xx_flash.c ****     tmp_psize = FLASH_PSIZE_HALF_WORD;
 488:Drivers/STM32F4xx_StdPeriph_Driver/src/stm32f4xx_flash.c ****   }
 489:Drivers/STM32F4xx_StdPeriph_Driver/src/stm32f4xx_flash.c ****   else if(VoltageRange == VoltageRange_3)
 490:Drivers/STM32F4xx_StdPeriph_Driver/src/stm32f4xx_flash.c ****   {
 491:Drivers/STM32F4xx_StdPeriph_Driver/src/stm32f4xx_flash.c ****     tmp_psize = FLASH_PSIZE_WORD;
 492:Drivers/STM32F4xx_StdPeriph_Driver/src/stm32f4xx_flash.c ****   }
 493:Drivers/STM32F4xx_StdPeriph_Driver/src/stm32f4xx_flash.c ****   else
 494:Drivers/STM32F4xx_StdPeriph_Driver/src/stm32f4xx_flash.c ****   {
 495:Drivers/STM32F4xx_StdPeriph_Driver/src/stm32f4xx_flash.c ****     tmp_psize = FLASH_PSIZE_DOUBLE_WORD;
 496:Drivers/STM32F4xx_StdPeriph_Driver/src/stm32f4xx_flash.c ****   }
 497:Drivers/STM32F4xx_StdPeriph_Driver/src/stm32f4xx_flash.c ****   /* Wait for last operation to be completed */
 498:Drivers/STM32F4xx_StdPeriph_Driver/src/stm32f4xx_flash.c ****   status = FLASH_WaitForLastOperation();
 499:Drivers/STM32F4xx_StdPeriph_Driver/src/stm32f4xx_flash.c ****   
 500:Drivers/STM32F4xx_StdPeriph_Driver/src/stm32f4xx_flash.c ****   if(status == FLASH_COMPLETE)
 501:Drivers/STM32F4xx_StdPeriph_Driver/src/stm32f4xx_flash.c ****   { 
 502:Drivers/STM32F4xx_StdPeriph_Driver/src/stm32f4xx_flash.c ****     /* if the previous operation is completed, proceed to erase the sector */
 503:Drivers/STM32F4xx_StdPeriph_Driver/src/stm32f4xx_flash.c ****     FLASH->CR &= CR_PSIZE_MASK;
 504:Drivers/STM32F4xx_StdPeriph_Driver/src/stm32f4xx_flash.c ****     FLASH->CR |= tmp_psize;
 505:Drivers/STM32F4xx_StdPeriph_Driver/src/stm32f4xx_flash.c ****     FLASH->CR &= SECTOR_MASK;
 506:Drivers/STM32F4xx_StdPeriph_Driver/src/stm32f4xx_flash.c ****     FLASH->CR |= FLASH_CR_SER | FLASH_Sector;
 507:Drivers/STM32F4xx_StdPeriph_Driver/src/stm32f4xx_flash.c ****     FLASH->CR |= FLASH_CR_STRT;
 508:Drivers/STM32F4xx_StdPeriph_Driver/src/stm32f4xx_flash.c ****     
 509:Drivers/STM32F4xx_StdPeriph_Driver/src/stm32f4xx_flash.c ****     /* Wait for last operation to be completed */
 510:Drivers/STM32F4xx_StdPeriph_Driver/src/stm32f4xx_flash.c ****     status = FLASH_WaitForLastOperation();
 511:Drivers/STM32F4xx_StdPeriph_Driver/src/stm32f4xx_flash.c ****     
 512:Drivers/STM32F4xx_StdPeriph_Driver/src/stm32f4xx_flash.c ****     /* if the erase operation is completed, disable the SER Bit */
 513:Drivers/STM32F4xx_StdPeriph_Driver/src/stm32f4xx_flash.c ****     FLASH->CR &= (~FLASH_CR_SER);
 514:Drivers/STM32F4xx_StdPeriph_Driver/src/stm32f4xx_flash.c ****     FLASH->CR &= SECTOR_MASK; 
 515:Drivers/STM32F4xx_StdPeriph_Driver/src/stm32f4xx_flash.c ****   }
 516:Drivers/STM32F4xx_StdPeriph_Driver/src/stm32f4xx_flash.c ****   /* Return the Erase Status */
 517:Drivers/STM32F4xx_StdPeriph_Driver/src/stm32f4xx_flash.c ****   return status;
 518:Drivers/STM32F4xx_StdPeriph_Driver/src/stm32f4xx_flash.c **** }
 519:Drivers/STM32F4xx_StdPeriph_Driver/src/stm32f4xx_flash.c **** 
 520:Drivers/STM32F4xx_StdPeriph_Driver/src/stm32f4xx_flash.c **** /**
 521:Drivers/STM32F4xx_StdPeriph_Driver/src/stm32f4xx_flash.c ****   * @brief  Erases all FLASH Sectors.
 522:Drivers/STM32F4xx_StdPeriph_Driver/src/stm32f4xx_flash.c ****   *
 523:Drivers/STM32F4xx_StdPeriph_Driver/src/stm32f4xx_flash.c ****   * @note   If an erase and a program operations are requested simultaneously,    
 524:Drivers/STM32F4xx_StdPeriph_Driver/src/stm32f4xx_flash.c ****   *         the erase operation is performed before the program one.
 525:Drivers/STM32F4xx_StdPeriph_Driver/src/stm32f4xx_flash.c ****   *  
 526:Drivers/STM32F4xx_StdPeriph_Driver/src/stm32f4xx_flash.c ****   * @param  VoltageRange: The device voltage range which defines the erase parallelism.  
 527:Drivers/STM32F4xx_StdPeriph_Driver/src/stm32f4xx_flash.c ****   *          This parameter can be one of the following values:
 528:Drivers/STM32F4xx_StdPeriph_Driver/src/stm32f4xx_flash.c ****   *            @arg VoltageRange_1: when the device voltage range is 1.8V to 2.1V, 
 529:Drivers/STM32F4xx_StdPeriph_Driver/src/stm32f4xx_flash.c ****   *                                  the operation will be done by byte (8-bit) 
 530:Drivers/STM32F4xx_StdPeriph_Driver/src/stm32f4xx_flash.c ****   *            @arg VoltageRange_2: when the device voltage range is 2.1V to 2.7V,
 531:Drivers/STM32F4xx_StdPeriph_Driver/src/stm32f4xx_flash.c ****   *                                  the operation will be done by half word (16-bit)
 532:Drivers/STM32F4xx_StdPeriph_Driver/src/stm32f4xx_flash.c ****   *            @arg VoltageRange_3: when the device voltage range is 2.7V to 3.6V,
 533:Drivers/STM32F4xx_StdPeriph_Driver/src/stm32f4xx_flash.c ****   *                                  the operation will be done by word (32-bit)
 534:Drivers/STM32F4xx_StdPeriph_Driver/src/stm32f4xx_flash.c ****   *            @arg VoltageRange_4: when the device voltage range is 2.7V to 3.6V + External Vpp, 
 535:Drivers/STM32F4xx_StdPeriph_Driver/src/stm32f4xx_flash.c ****   *                                  the operation will be done by double word (64-bit)
 536:Drivers/STM32F4xx_StdPeriph_Driver/src/stm32f4xx_flash.c ****   *       
 537:Drivers/STM32F4xx_StdPeriph_Driver/src/stm32f4xx_flash.c ****   * @retval FLASH Status: The returned value can be: FLASH_BUSY, FLASH_ERROR_PROGRAM,
 538:Drivers/STM32F4xx_StdPeriph_Driver/src/stm32f4xx_flash.c ****   *                       FLASH_ERROR_WRP, FLASH_ERROR_OPERATION or FLASH_COMPLETE.
 539:Drivers/STM32F4xx_StdPeriph_Driver/src/stm32f4xx_flash.c ****   */
 540:Drivers/STM32F4xx_StdPeriph_Driver/src/stm32f4xx_flash.c **** FLASH_Status FLASH_EraseAllSectors(uint8_t VoltageRange)
 541:Drivers/STM32F4xx_StdPeriph_Driver/src/stm32f4xx_flash.c **** {
 542:Drivers/STM32F4xx_StdPeriph_Driver/src/stm32f4xx_flash.c ****   uint32_t tmp_psize = 0x0;
 543:Drivers/STM32F4xx_StdPeriph_Driver/src/stm32f4xx_flash.c ****   FLASH_Status status = FLASH_COMPLETE;
ARM GAS  /tmp/ccQY8YTS.s 			page 16


 544:Drivers/STM32F4xx_StdPeriph_Driver/src/stm32f4xx_flash.c ****   
 545:Drivers/STM32F4xx_StdPeriph_Driver/src/stm32f4xx_flash.c ****   /* Wait for last operation to be completed */
 546:Drivers/STM32F4xx_StdPeriph_Driver/src/stm32f4xx_flash.c ****   status = FLASH_WaitForLastOperation();
 547:Drivers/STM32F4xx_StdPeriph_Driver/src/stm32f4xx_flash.c ****   assert_param(IS_VOLTAGERANGE(VoltageRange));
 548:Drivers/STM32F4xx_StdPeriph_Driver/src/stm32f4xx_flash.c ****   
 549:Drivers/STM32F4xx_StdPeriph_Driver/src/stm32f4xx_flash.c ****   if(VoltageRange == VoltageRange_1)
 550:Drivers/STM32F4xx_StdPeriph_Driver/src/stm32f4xx_flash.c ****   {
 551:Drivers/STM32F4xx_StdPeriph_Driver/src/stm32f4xx_flash.c ****      tmp_psize = FLASH_PSIZE_BYTE;
 552:Drivers/STM32F4xx_StdPeriph_Driver/src/stm32f4xx_flash.c ****   }
 553:Drivers/STM32F4xx_StdPeriph_Driver/src/stm32f4xx_flash.c ****   else if(VoltageRange == VoltageRange_2)
 554:Drivers/STM32F4xx_StdPeriph_Driver/src/stm32f4xx_flash.c ****   {
 555:Drivers/STM32F4xx_StdPeriph_Driver/src/stm32f4xx_flash.c ****     tmp_psize = FLASH_PSIZE_HALF_WORD;
 556:Drivers/STM32F4xx_StdPeriph_Driver/src/stm32f4xx_flash.c ****   }
 557:Drivers/STM32F4xx_StdPeriph_Driver/src/stm32f4xx_flash.c ****   else if(VoltageRange == VoltageRange_3)
 558:Drivers/STM32F4xx_StdPeriph_Driver/src/stm32f4xx_flash.c ****   {
 559:Drivers/STM32F4xx_StdPeriph_Driver/src/stm32f4xx_flash.c ****     tmp_psize = FLASH_PSIZE_WORD;
 560:Drivers/STM32F4xx_StdPeriph_Driver/src/stm32f4xx_flash.c ****   }
 561:Drivers/STM32F4xx_StdPeriph_Driver/src/stm32f4xx_flash.c ****   else
 562:Drivers/STM32F4xx_StdPeriph_Driver/src/stm32f4xx_flash.c ****   {
 563:Drivers/STM32F4xx_StdPeriph_Driver/src/stm32f4xx_flash.c ****     tmp_psize = FLASH_PSIZE_DOUBLE_WORD;
 564:Drivers/STM32F4xx_StdPeriph_Driver/src/stm32f4xx_flash.c ****   }  
 565:Drivers/STM32F4xx_StdPeriph_Driver/src/stm32f4xx_flash.c ****   if(status == FLASH_COMPLETE)
 566:Drivers/STM32F4xx_StdPeriph_Driver/src/stm32f4xx_flash.c ****   {
 567:Drivers/STM32F4xx_StdPeriph_Driver/src/stm32f4xx_flash.c ****     /* if the previous operation is completed, proceed to erase all sectors */
 568:Drivers/STM32F4xx_StdPeriph_Driver/src/stm32f4xx_flash.c **** #if defined(STM32F427_437xx) || defined(STM32F429_439xx) || defined(STM32F469_479xx)     
 569:Drivers/STM32F4xx_StdPeriph_Driver/src/stm32f4xx_flash.c ****     FLASH->CR &= CR_PSIZE_MASK;
 570:Drivers/STM32F4xx_StdPeriph_Driver/src/stm32f4xx_flash.c ****     FLASH->CR |= tmp_psize;
 571:Drivers/STM32F4xx_StdPeriph_Driver/src/stm32f4xx_flash.c ****     FLASH->CR |= (FLASH_CR_MER1 | FLASH_CR_MER2);
 572:Drivers/STM32F4xx_StdPeriph_Driver/src/stm32f4xx_flash.c ****     FLASH->CR |= FLASH_CR_STRT;
 573:Drivers/STM32F4xx_StdPeriph_Driver/src/stm32f4xx_flash.c ****     
 574:Drivers/STM32F4xx_StdPeriph_Driver/src/stm32f4xx_flash.c ****     /* Wait for last operation to be completed */
 575:Drivers/STM32F4xx_StdPeriph_Driver/src/stm32f4xx_flash.c ****     status = FLASH_WaitForLastOperation();
 576:Drivers/STM32F4xx_StdPeriph_Driver/src/stm32f4xx_flash.c **** 
 577:Drivers/STM32F4xx_StdPeriph_Driver/src/stm32f4xx_flash.c ****     /* if the erase operation is completed, disable the MER Bit */
 578:Drivers/STM32F4xx_StdPeriph_Driver/src/stm32f4xx_flash.c ****     FLASH->CR &= ~(FLASH_CR_MER1 | FLASH_CR_MER2);
 579:Drivers/STM32F4xx_StdPeriph_Driver/src/stm32f4xx_flash.c **** #endif /* STM32F427_437xx ||  STM32F429_439xx ||  STM32F469_479xx */
 580:Drivers/STM32F4xx_StdPeriph_Driver/src/stm32f4xx_flash.c **** 
 581:Drivers/STM32F4xx_StdPeriph_Driver/src/stm32f4xx_flash.c **** #if defined(STM32F40_41xxx) || defined(STM32F401xx) || defined(STM32F410xx) || defined(STM32F411xE)
 582:Drivers/STM32F4xx_StdPeriph_Driver/src/stm32f4xx_flash.c ****     FLASH->CR &= CR_PSIZE_MASK;
 583:Drivers/STM32F4xx_StdPeriph_Driver/src/stm32f4xx_flash.c ****     FLASH->CR |= tmp_psize;
 584:Drivers/STM32F4xx_StdPeriph_Driver/src/stm32f4xx_flash.c ****     FLASH->CR |= FLASH_CR_MER;
 585:Drivers/STM32F4xx_StdPeriph_Driver/src/stm32f4xx_flash.c ****     FLASH->CR |= FLASH_CR_STRT;
 586:Drivers/STM32F4xx_StdPeriph_Driver/src/stm32f4xx_flash.c ****     
 587:Drivers/STM32F4xx_StdPeriph_Driver/src/stm32f4xx_flash.c ****     /* Wait for last operation to be completed */
 588:Drivers/STM32F4xx_StdPeriph_Driver/src/stm32f4xx_flash.c ****     status = FLASH_WaitForLastOperation();
 589:Drivers/STM32F4xx_StdPeriph_Driver/src/stm32f4xx_flash.c **** 
 590:Drivers/STM32F4xx_StdPeriph_Driver/src/stm32f4xx_flash.c ****     /* if the erase operation is completed, disable the MER Bit */
 591:Drivers/STM32F4xx_StdPeriph_Driver/src/stm32f4xx_flash.c ****     FLASH->CR &= (~FLASH_CR_MER);
 592:Drivers/STM32F4xx_StdPeriph_Driver/src/stm32f4xx_flash.c **** #endif /* STM32F40_41xxx || STM32F401xx || STM32F410xx || STM32F411xE || STM32F446xx */
 593:Drivers/STM32F4xx_StdPeriph_Driver/src/stm32f4xx_flash.c **** 
 594:Drivers/STM32F4xx_StdPeriph_Driver/src/stm32f4xx_flash.c ****   }   
 595:Drivers/STM32F4xx_StdPeriph_Driver/src/stm32f4xx_flash.c ****   /* Return the Erase Status */
 596:Drivers/STM32F4xx_StdPeriph_Driver/src/stm32f4xx_flash.c ****   return status;
 597:Drivers/STM32F4xx_StdPeriph_Driver/src/stm32f4xx_flash.c **** }
 598:Drivers/STM32F4xx_StdPeriph_Driver/src/stm32f4xx_flash.c **** 
 599:Drivers/STM32F4xx_StdPeriph_Driver/src/stm32f4xx_flash.c **** /**
 600:Drivers/STM32F4xx_StdPeriph_Driver/src/stm32f4xx_flash.c ****   * @brief  Erases all FLASH Sectors in Bank 1.
ARM GAS  /tmp/ccQY8YTS.s 			page 17


 601:Drivers/STM32F4xx_StdPeriph_Driver/src/stm32f4xx_flash.c ****   *
 602:Drivers/STM32F4xx_StdPeriph_Driver/src/stm32f4xx_flash.c ****   * @note   This function can be used only for STM32F42xxx/43xxx devices.
 603:Drivers/STM32F4xx_StdPeriph_Driver/src/stm32f4xx_flash.c ****   *      
 604:Drivers/STM32F4xx_StdPeriph_Driver/src/stm32f4xx_flash.c ****   * @note   If an erase and a program operations are requested simultaneously,    
 605:Drivers/STM32F4xx_StdPeriph_Driver/src/stm32f4xx_flash.c ****   *         the erase operation is performed before the program one. 
 606:Drivers/STM32F4xx_StdPeriph_Driver/src/stm32f4xx_flash.c ****   *  
 607:Drivers/STM32F4xx_StdPeriph_Driver/src/stm32f4xx_flash.c ****   * @param  VoltageRange: The device voltage range which defines the erase parallelism.  
 608:Drivers/STM32F4xx_StdPeriph_Driver/src/stm32f4xx_flash.c ****   *          This parameter can be one of the following values:
 609:Drivers/STM32F4xx_StdPeriph_Driver/src/stm32f4xx_flash.c ****   *            @arg VoltageRange_1: when the device voltage range is 1.8V to 2.1V, 
 610:Drivers/STM32F4xx_StdPeriph_Driver/src/stm32f4xx_flash.c ****   *                                  the operation will be done by byte (8-bit) 
 611:Drivers/STM32F4xx_StdPeriph_Driver/src/stm32f4xx_flash.c ****   *            @arg VoltageRange_2: when the device voltage range is 2.1V to 2.7V,
 612:Drivers/STM32F4xx_StdPeriph_Driver/src/stm32f4xx_flash.c ****   *                                  the operation will be done by half word (16-bit)
 613:Drivers/STM32F4xx_StdPeriph_Driver/src/stm32f4xx_flash.c ****   *            @arg VoltageRange_3: when the device voltage range is 2.7V to 3.6V,
 614:Drivers/STM32F4xx_StdPeriph_Driver/src/stm32f4xx_flash.c ****   *                                  the operation will be done by word (32-bit)
 615:Drivers/STM32F4xx_StdPeriph_Driver/src/stm32f4xx_flash.c ****   *            @arg VoltageRange_4: when the device voltage range is 2.7V to 3.6V + External Vpp, 
 616:Drivers/STM32F4xx_StdPeriph_Driver/src/stm32f4xx_flash.c ****   *                                  the operation will be done by double word (64-bit)
 617:Drivers/STM32F4xx_StdPeriph_Driver/src/stm32f4xx_flash.c ****   *       
 618:Drivers/STM32F4xx_StdPeriph_Driver/src/stm32f4xx_flash.c ****   * @retval FLASH Status: The returned value can be: FLASH_BUSY, FLASH_ERROR_PROGRAM,
 619:Drivers/STM32F4xx_StdPeriph_Driver/src/stm32f4xx_flash.c ****   *                       FLASH_ERROR_WRP, FLASH_ERROR_OPERATION or FLASH_COMPLETE.
 620:Drivers/STM32F4xx_StdPeriph_Driver/src/stm32f4xx_flash.c ****   */
 621:Drivers/STM32F4xx_StdPeriph_Driver/src/stm32f4xx_flash.c **** FLASH_Status FLASH_EraseAllBank1Sectors(uint8_t VoltageRange)
 622:Drivers/STM32F4xx_StdPeriph_Driver/src/stm32f4xx_flash.c **** {
 623:Drivers/STM32F4xx_StdPeriph_Driver/src/stm32f4xx_flash.c ****   uint32_t tmp_psize = 0x0;
 624:Drivers/STM32F4xx_StdPeriph_Driver/src/stm32f4xx_flash.c ****   FLASH_Status status = FLASH_COMPLETE;
 625:Drivers/STM32F4xx_StdPeriph_Driver/src/stm32f4xx_flash.c ****   
 626:Drivers/STM32F4xx_StdPeriph_Driver/src/stm32f4xx_flash.c ****   /* Wait for last operation to be completed */
 627:Drivers/STM32F4xx_StdPeriph_Driver/src/stm32f4xx_flash.c ****   status = FLASH_WaitForLastOperation();
 628:Drivers/STM32F4xx_StdPeriph_Driver/src/stm32f4xx_flash.c ****   assert_param(IS_VOLTAGERANGE(VoltageRange));
 629:Drivers/STM32F4xx_StdPeriph_Driver/src/stm32f4xx_flash.c ****   
 630:Drivers/STM32F4xx_StdPeriph_Driver/src/stm32f4xx_flash.c ****   if(VoltageRange == VoltageRange_1)
 631:Drivers/STM32F4xx_StdPeriph_Driver/src/stm32f4xx_flash.c ****   {
 632:Drivers/STM32F4xx_StdPeriph_Driver/src/stm32f4xx_flash.c ****      tmp_psize = FLASH_PSIZE_BYTE;
 633:Drivers/STM32F4xx_StdPeriph_Driver/src/stm32f4xx_flash.c ****   }
 634:Drivers/STM32F4xx_StdPeriph_Driver/src/stm32f4xx_flash.c ****   else if(VoltageRange == VoltageRange_2)
 635:Drivers/STM32F4xx_StdPeriph_Driver/src/stm32f4xx_flash.c ****   {
 636:Drivers/STM32F4xx_StdPeriph_Driver/src/stm32f4xx_flash.c ****     tmp_psize = FLASH_PSIZE_HALF_WORD;
 637:Drivers/STM32F4xx_StdPeriph_Driver/src/stm32f4xx_flash.c ****   }
 638:Drivers/STM32F4xx_StdPeriph_Driver/src/stm32f4xx_flash.c ****   else if(VoltageRange == VoltageRange_3)
 639:Drivers/STM32F4xx_StdPeriph_Driver/src/stm32f4xx_flash.c ****   {
 640:Drivers/STM32F4xx_StdPeriph_Driver/src/stm32f4xx_flash.c ****     tmp_psize = FLASH_PSIZE_WORD;
 641:Drivers/STM32F4xx_StdPeriph_Driver/src/stm32f4xx_flash.c ****   }
 642:Drivers/STM32F4xx_StdPeriph_Driver/src/stm32f4xx_flash.c ****   else
 643:Drivers/STM32F4xx_StdPeriph_Driver/src/stm32f4xx_flash.c ****   {
 644:Drivers/STM32F4xx_StdPeriph_Driver/src/stm32f4xx_flash.c ****     tmp_psize = FLASH_PSIZE_DOUBLE_WORD;
 645:Drivers/STM32F4xx_StdPeriph_Driver/src/stm32f4xx_flash.c ****   }  
 646:Drivers/STM32F4xx_StdPeriph_Driver/src/stm32f4xx_flash.c ****   if(status == FLASH_COMPLETE)
 647:Drivers/STM32F4xx_StdPeriph_Driver/src/stm32f4xx_flash.c ****   {
 648:Drivers/STM32F4xx_StdPeriph_Driver/src/stm32f4xx_flash.c ****     /* if the previous operation is completed, proceed to erase all sectors */
 649:Drivers/STM32F4xx_StdPeriph_Driver/src/stm32f4xx_flash.c ****      FLASH->CR &= CR_PSIZE_MASK;
 650:Drivers/STM32F4xx_StdPeriph_Driver/src/stm32f4xx_flash.c ****      FLASH->CR |= tmp_psize;
 651:Drivers/STM32F4xx_StdPeriph_Driver/src/stm32f4xx_flash.c ****      FLASH->CR |= FLASH_CR_MER1;
 652:Drivers/STM32F4xx_StdPeriph_Driver/src/stm32f4xx_flash.c ****      FLASH->CR |= FLASH_CR_STRT;
 653:Drivers/STM32F4xx_StdPeriph_Driver/src/stm32f4xx_flash.c ****     
 654:Drivers/STM32F4xx_StdPeriph_Driver/src/stm32f4xx_flash.c ****     /* Wait for last operation to be completed */
 655:Drivers/STM32F4xx_StdPeriph_Driver/src/stm32f4xx_flash.c ****     status = FLASH_WaitForLastOperation();
 656:Drivers/STM32F4xx_StdPeriph_Driver/src/stm32f4xx_flash.c **** 
 657:Drivers/STM32F4xx_StdPeriph_Driver/src/stm32f4xx_flash.c ****     /* if the erase operation is completed, disable the MER Bit */
ARM GAS  /tmp/ccQY8YTS.s 			page 18


 658:Drivers/STM32F4xx_StdPeriph_Driver/src/stm32f4xx_flash.c ****     FLASH->CR &= (~FLASH_CR_MER1);
 659:Drivers/STM32F4xx_StdPeriph_Driver/src/stm32f4xx_flash.c **** 
 660:Drivers/STM32F4xx_StdPeriph_Driver/src/stm32f4xx_flash.c ****   }   
 661:Drivers/STM32F4xx_StdPeriph_Driver/src/stm32f4xx_flash.c ****   /* Return the Erase Status */
 662:Drivers/STM32F4xx_StdPeriph_Driver/src/stm32f4xx_flash.c ****   return status;
 663:Drivers/STM32F4xx_StdPeriph_Driver/src/stm32f4xx_flash.c **** }
 664:Drivers/STM32F4xx_StdPeriph_Driver/src/stm32f4xx_flash.c **** 
 665:Drivers/STM32F4xx_StdPeriph_Driver/src/stm32f4xx_flash.c **** 
 666:Drivers/STM32F4xx_StdPeriph_Driver/src/stm32f4xx_flash.c **** /**
 667:Drivers/STM32F4xx_StdPeriph_Driver/src/stm32f4xx_flash.c ****   * @brief  Erases all FLASH Sectors in Bank 2.
 668:Drivers/STM32F4xx_StdPeriph_Driver/src/stm32f4xx_flash.c ****   *
 669:Drivers/STM32F4xx_StdPeriph_Driver/src/stm32f4xx_flash.c ****   * @note   This function can be used only for STM32F42xxx/43xxx devices.
 670:Drivers/STM32F4xx_StdPeriph_Driver/src/stm32f4xx_flash.c ****   *     
 671:Drivers/STM32F4xx_StdPeriph_Driver/src/stm32f4xx_flash.c ****   * @note   If an erase and a program operations are requested simultaneously,    
 672:Drivers/STM32F4xx_StdPeriph_Driver/src/stm32f4xx_flash.c ****   *         the erase operation is performed before the program one.
 673:Drivers/STM32F4xx_StdPeriph_Driver/src/stm32f4xx_flash.c ****   *     
 674:Drivers/STM32F4xx_StdPeriph_Driver/src/stm32f4xx_flash.c ****   * @param  VoltageRange: The device voltage range which defines the erase parallelism.  
 675:Drivers/STM32F4xx_StdPeriph_Driver/src/stm32f4xx_flash.c ****   *          This parameter can be one of the following values:
 676:Drivers/STM32F4xx_StdPeriph_Driver/src/stm32f4xx_flash.c ****   *            @arg VoltageRange_1: when the device voltage range is 1.8V to 2.1V, 
 677:Drivers/STM32F4xx_StdPeriph_Driver/src/stm32f4xx_flash.c ****   *                                  the operation will be done by byte (8-bit) 
 678:Drivers/STM32F4xx_StdPeriph_Driver/src/stm32f4xx_flash.c ****   *            @arg VoltageRange_2: when the device voltage range is 2.1V to 2.7V,
 679:Drivers/STM32F4xx_StdPeriph_Driver/src/stm32f4xx_flash.c ****   *                                  the operation will be done by half word (16-bit)
 680:Drivers/STM32F4xx_StdPeriph_Driver/src/stm32f4xx_flash.c ****   *            @arg VoltageRange_3: when the device voltage range is 2.7V to 3.6V,
 681:Drivers/STM32F4xx_StdPeriph_Driver/src/stm32f4xx_flash.c ****   *                                  the operation will be done by word (32-bit)
 682:Drivers/STM32F4xx_StdPeriph_Driver/src/stm32f4xx_flash.c ****   *            @arg VoltageRange_4: when the device voltage range is 2.7V to 3.6V + External Vpp, 
 683:Drivers/STM32F4xx_StdPeriph_Driver/src/stm32f4xx_flash.c ****   *                                  the operation will be done by double word (64-bit)
 684:Drivers/STM32F4xx_StdPeriph_Driver/src/stm32f4xx_flash.c ****   *       
 685:Drivers/STM32F4xx_StdPeriph_Driver/src/stm32f4xx_flash.c ****   * @retval FLASH Status: The returned value can be: FLASH_BUSY, FLASH_ERROR_PROGRAM,
 686:Drivers/STM32F4xx_StdPeriph_Driver/src/stm32f4xx_flash.c ****   *                       FLASH_ERROR_WRP, FLASH_ERROR_OPERATION or FLASH_COMPLETE.
 687:Drivers/STM32F4xx_StdPeriph_Driver/src/stm32f4xx_flash.c ****   */
 688:Drivers/STM32F4xx_StdPeriph_Driver/src/stm32f4xx_flash.c **** FLASH_Status FLASH_EraseAllBank2Sectors(uint8_t VoltageRange)
 689:Drivers/STM32F4xx_StdPeriph_Driver/src/stm32f4xx_flash.c **** {
 690:Drivers/STM32F4xx_StdPeriph_Driver/src/stm32f4xx_flash.c ****   uint32_t tmp_psize = 0x0;
 691:Drivers/STM32F4xx_StdPeriph_Driver/src/stm32f4xx_flash.c ****   FLASH_Status status = FLASH_COMPLETE;
 692:Drivers/STM32F4xx_StdPeriph_Driver/src/stm32f4xx_flash.c ****   
 693:Drivers/STM32F4xx_StdPeriph_Driver/src/stm32f4xx_flash.c ****   /* Wait for last operation to be completed */
 694:Drivers/STM32F4xx_StdPeriph_Driver/src/stm32f4xx_flash.c ****   status = FLASH_WaitForLastOperation();
 695:Drivers/STM32F4xx_StdPeriph_Driver/src/stm32f4xx_flash.c ****   assert_param(IS_VOLTAGERANGE(VoltageRange));
 696:Drivers/STM32F4xx_StdPeriph_Driver/src/stm32f4xx_flash.c ****   
 697:Drivers/STM32F4xx_StdPeriph_Driver/src/stm32f4xx_flash.c ****   if(VoltageRange == VoltageRange_1)
 698:Drivers/STM32F4xx_StdPeriph_Driver/src/stm32f4xx_flash.c ****   {
 699:Drivers/STM32F4xx_StdPeriph_Driver/src/stm32f4xx_flash.c ****      tmp_psize = FLASH_PSIZE_BYTE;
 700:Drivers/STM32F4xx_StdPeriph_Driver/src/stm32f4xx_flash.c ****   }
 701:Drivers/STM32F4xx_StdPeriph_Driver/src/stm32f4xx_flash.c ****   else if(VoltageRange == VoltageRange_2)
 702:Drivers/STM32F4xx_StdPeriph_Driver/src/stm32f4xx_flash.c ****   {
 703:Drivers/STM32F4xx_StdPeriph_Driver/src/stm32f4xx_flash.c ****     tmp_psize = FLASH_PSIZE_HALF_WORD;
 704:Drivers/STM32F4xx_StdPeriph_Driver/src/stm32f4xx_flash.c ****   }
 705:Drivers/STM32F4xx_StdPeriph_Driver/src/stm32f4xx_flash.c ****   else if(VoltageRange == VoltageRange_3)
 706:Drivers/STM32F4xx_StdPeriph_Driver/src/stm32f4xx_flash.c ****   {
 707:Drivers/STM32F4xx_StdPeriph_Driver/src/stm32f4xx_flash.c ****     tmp_psize = FLASH_PSIZE_WORD;
 708:Drivers/STM32F4xx_StdPeriph_Driver/src/stm32f4xx_flash.c ****   }
 709:Drivers/STM32F4xx_StdPeriph_Driver/src/stm32f4xx_flash.c ****   else
 710:Drivers/STM32F4xx_StdPeriph_Driver/src/stm32f4xx_flash.c ****   {
 711:Drivers/STM32F4xx_StdPeriph_Driver/src/stm32f4xx_flash.c ****     tmp_psize = FLASH_PSIZE_DOUBLE_WORD;
 712:Drivers/STM32F4xx_StdPeriph_Driver/src/stm32f4xx_flash.c ****   }  
 713:Drivers/STM32F4xx_StdPeriph_Driver/src/stm32f4xx_flash.c ****   if(status == FLASH_COMPLETE)
 714:Drivers/STM32F4xx_StdPeriph_Driver/src/stm32f4xx_flash.c ****   {
ARM GAS  /tmp/ccQY8YTS.s 			page 19


 715:Drivers/STM32F4xx_StdPeriph_Driver/src/stm32f4xx_flash.c ****     /* if the previous operation is completed, proceed to erase all sectors */
 716:Drivers/STM32F4xx_StdPeriph_Driver/src/stm32f4xx_flash.c ****      FLASH->CR &= CR_PSIZE_MASK;
 717:Drivers/STM32F4xx_StdPeriph_Driver/src/stm32f4xx_flash.c ****      FLASH->CR |= tmp_psize;
 718:Drivers/STM32F4xx_StdPeriph_Driver/src/stm32f4xx_flash.c ****      FLASH->CR |= FLASH_CR_MER2;
 719:Drivers/STM32F4xx_StdPeriph_Driver/src/stm32f4xx_flash.c ****      FLASH->CR |= FLASH_CR_STRT;
 720:Drivers/STM32F4xx_StdPeriph_Driver/src/stm32f4xx_flash.c ****     
 721:Drivers/STM32F4xx_StdPeriph_Driver/src/stm32f4xx_flash.c ****     /* Wait for last operation to be completed */
 722:Drivers/STM32F4xx_StdPeriph_Driver/src/stm32f4xx_flash.c ****     status = FLASH_WaitForLastOperation();
 723:Drivers/STM32F4xx_StdPeriph_Driver/src/stm32f4xx_flash.c **** 
 724:Drivers/STM32F4xx_StdPeriph_Driver/src/stm32f4xx_flash.c ****     /* if the erase operation is completed, disable the MER Bit */
 725:Drivers/STM32F4xx_StdPeriph_Driver/src/stm32f4xx_flash.c ****     FLASH->CR &= (~FLASH_CR_MER2);
 726:Drivers/STM32F4xx_StdPeriph_Driver/src/stm32f4xx_flash.c **** 
 727:Drivers/STM32F4xx_StdPeriph_Driver/src/stm32f4xx_flash.c ****   }   
 728:Drivers/STM32F4xx_StdPeriph_Driver/src/stm32f4xx_flash.c ****   /* Return the Erase Status */
 729:Drivers/STM32F4xx_StdPeriph_Driver/src/stm32f4xx_flash.c ****   return status;
 730:Drivers/STM32F4xx_StdPeriph_Driver/src/stm32f4xx_flash.c **** }
 731:Drivers/STM32F4xx_StdPeriph_Driver/src/stm32f4xx_flash.c **** 
 732:Drivers/STM32F4xx_StdPeriph_Driver/src/stm32f4xx_flash.c **** /**
 733:Drivers/STM32F4xx_StdPeriph_Driver/src/stm32f4xx_flash.c ****   * @brief  Programs a double word (64-bit) at a specified address.
 734:Drivers/STM32F4xx_StdPeriph_Driver/src/stm32f4xx_flash.c ****   * @note   This function must be used when the device voltage range is from
 735:Drivers/STM32F4xx_StdPeriph_Driver/src/stm32f4xx_flash.c ****   *         2.7V to 3.6V and an External Vpp is present.
 736:Drivers/STM32F4xx_StdPeriph_Driver/src/stm32f4xx_flash.c ****   *
 737:Drivers/STM32F4xx_StdPeriph_Driver/src/stm32f4xx_flash.c ****   * @note   If an erase and a program operations are requested simultaneously,    
 738:Drivers/STM32F4xx_StdPeriph_Driver/src/stm32f4xx_flash.c ****   *         the erase operation is performed before the program one.
 739:Drivers/STM32F4xx_StdPeriph_Driver/src/stm32f4xx_flash.c ****   *  
 740:Drivers/STM32F4xx_StdPeriph_Driver/src/stm32f4xx_flash.c ****   * @param  Address: specifies the address to be programmed.
 741:Drivers/STM32F4xx_StdPeriph_Driver/src/stm32f4xx_flash.c ****   * @param  Data: specifies the data to be programmed.
 742:Drivers/STM32F4xx_StdPeriph_Driver/src/stm32f4xx_flash.c ****   * @retval FLASH Status: The returned value can be: FLASH_BUSY, FLASH_ERROR_PROGRAM,
 743:Drivers/STM32F4xx_StdPeriph_Driver/src/stm32f4xx_flash.c ****   *                       FLASH_ERROR_WRP, FLASH_ERROR_OPERATION or FLASH_COMPLETE.
 744:Drivers/STM32F4xx_StdPeriph_Driver/src/stm32f4xx_flash.c ****   */
 745:Drivers/STM32F4xx_StdPeriph_Driver/src/stm32f4xx_flash.c **** FLASH_Status FLASH_ProgramDoubleWord(uint32_t Address, uint64_t Data)
 746:Drivers/STM32F4xx_StdPeriph_Driver/src/stm32f4xx_flash.c **** {
 747:Drivers/STM32F4xx_StdPeriph_Driver/src/stm32f4xx_flash.c ****   FLASH_Status status = FLASH_COMPLETE;
 748:Drivers/STM32F4xx_StdPeriph_Driver/src/stm32f4xx_flash.c **** 
 749:Drivers/STM32F4xx_StdPeriph_Driver/src/stm32f4xx_flash.c ****   /* Check the parameters */
 750:Drivers/STM32F4xx_StdPeriph_Driver/src/stm32f4xx_flash.c ****   assert_param(IS_FLASH_ADDRESS(Address));
 751:Drivers/STM32F4xx_StdPeriph_Driver/src/stm32f4xx_flash.c **** 
 752:Drivers/STM32F4xx_StdPeriph_Driver/src/stm32f4xx_flash.c ****   /* Wait for last operation to be completed */
 753:Drivers/STM32F4xx_StdPeriph_Driver/src/stm32f4xx_flash.c ****   status = FLASH_WaitForLastOperation();
 754:Drivers/STM32F4xx_StdPeriph_Driver/src/stm32f4xx_flash.c ****   
 755:Drivers/STM32F4xx_StdPeriph_Driver/src/stm32f4xx_flash.c ****   if(status == FLASH_COMPLETE)
 756:Drivers/STM32F4xx_StdPeriph_Driver/src/stm32f4xx_flash.c ****   {
 757:Drivers/STM32F4xx_StdPeriph_Driver/src/stm32f4xx_flash.c ****     /* if the previous operation is completed, proceed to program the new data */
 758:Drivers/STM32F4xx_StdPeriph_Driver/src/stm32f4xx_flash.c ****     FLASH->CR &= CR_PSIZE_MASK;
 759:Drivers/STM32F4xx_StdPeriph_Driver/src/stm32f4xx_flash.c ****     FLASH->CR |= FLASH_PSIZE_DOUBLE_WORD;
 760:Drivers/STM32F4xx_StdPeriph_Driver/src/stm32f4xx_flash.c ****     FLASH->CR |= FLASH_CR_PG;
 761:Drivers/STM32F4xx_StdPeriph_Driver/src/stm32f4xx_flash.c ****   
 762:Drivers/STM32F4xx_StdPeriph_Driver/src/stm32f4xx_flash.c ****     *(__IO uint64_t*)Address = Data;
 763:Drivers/STM32F4xx_StdPeriph_Driver/src/stm32f4xx_flash.c ****         
 764:Drivers/STM32F4xx_StdPeriph_Driver/src/stm32f4xx_flash.c ****     /* Wait for last operation to be completed */
 765:Drivers/STM32F4xx_StdPeriph_Driver/src/stm32f4xx_flash.c ****     status = FLASH_WaitForLastOperation();
 766:Drivers/STM32F4xx_StdPeriph_Driver/src/stm32f4xx_flash.c **** 
 767:Drivers/STM32F4xx_StdPeriph_Driver/src/stm32f4xx_flash.c ****     /* if the program operation is completed, disable the PG Bit */
 768:Drivers/STM32F4xx_StdPeriph_Driver/src/stm32f4xx_flash.c ****     FLASH->CR &= (~FLASH_CR_PG);
 769:Drivers/STM32F4xx_StdPeriph_Driver/src/stm32f4xx_flash.c ****   } 
 770:Drivers/STM32F4xx_StdPeriph_Driver/src/stm32f4xx_flash.c ****   /* Return the Program Status */
 771:Drivers/STM32F4xx_StdPeriph_Driver/src/stm32f4xx_flash.c ****   return status;
ARM GAS  /tmp/ccQY8YTS.s 			page 20


 772:Drivers/STM32F4xx_StdPeriph_Driver/src/stm32f4xx_flash.c **** }
 773:Drivers/STM32F4xx_StdPeriph_Driver/src/stm32f4xx_flash.c **** 
 774:Drivers/STM32F4xx_StdPeriph_Driver/src/stm32f4xx_flash.c **** /**
 775:Drivers/STM32F4xx_StdPeriph_Driver/src/stm32f4xx_flash.c ****   * @brief  Programs a word (32-bit) at a specified address.
 776:Drivers/STM32F4xx_StdPeriph_Driver/src/stm32f4xx_flash.c ****   *
 777:Drivers/STM32F4xx_StdPeriph_Driver/src/stm32f4xx_flash.c ****   * @note   This function must be used when the device voltage range is from 2.7V to 3.6V. 
 778:Drivers/STM32F4xx_StdPeriph_Driver/src/stm32f4xx_flash.c ****   *
 779:Drivers/STM32F4xx_StdPeriph_Driver/src/stm32f4xx_flash.c ****   * @note   If an erase and a program operations are requested simultaneously,    
 780:Drivers/STM32F4xx_StdPeriph_Driver/src/stm32f4xx_flash.c ****   *         the erase operation is performed before the program one.
 781:Drivers/STM32F4xx_StdPeriph_Driver/src/stm32f4xx_flash.c ****   *  
 782:Drivers/STM32F4xx_StdPeriph_Driver/src/stm32f4xx_flash.c ****   * @param  Address: specifies the address to be programmed.
 783:Drivers/STM32F4xx_StdPeriph_Driver/src/stm32f4xx_flash.c ****   *         This parameter can be any address in Program memory zone or in OTP zone.  
 784:Drivers/STM32F4xx_StdPeriph_Driver/src/stm32f4xx_flash.c ****   * @param  Data: specifies the data to be programmed.
 785:Drivers/STM32F4xx_StdPeriph_Driver/src/stm32f4xx_flash.c ****   * @retval FLASH Status: The returned value can be: FLASH_BUSY, FLASH_ERROR_PROGRAM,
 786:Drivers/STM32F4xx_StdPeriph_Driver/src/stm32f4xx_flash.c ****   *                       FLASH_ERROR_WRP, FLASH_ERROR_OPERATION or FLASH_COMPLETE.
 787:Drivers/STM32F4xx_StdPeriph_Driver/src/stm32f4xx_flash.c ****   */
 788:Drivers/STM32F4xx_StdPeriph_Driver/src/stm32f4xx_flash.c **** FLASH_Status FLASH_ProgramWord(uint32_t Address, uint32_t Data)
 789:Drivers/STM32F4xx_StdPeriph_Driver/src/stm32f4xx_flash.c **** {
 790:Drivers/STM32F4xx_StdPeriph_Driver/src/stm32f4xx_flash.c ****   FLASH_Status status = FLASH_COMPLETE;
 791:Drivers/STM32F4xx_StdPeriph_Driver/src/stm32f4xx_flash.c **** 
 792:Drivers/STM32F4xx_StdPeriph_Driver/src/stm32f4xx_flash.c ****   /* Check the parameters */
 793:Drivers/STM32F4xx_StdPeriph_Driver/src/stm32f4xx_flash.c ****   assert_param(IS_FLASH_ADDRESS(Address));
 794:Drivers/STM32F4xx_StdPeriph_Driver/src/stm32f4xx_flash.c **** 
 795:Drivers/STM32F4xx_StdPeriph_Driver/src/stm32f4xx_flash.c ****   /* Wait for last operation to be completed */
 796:Drivers/STM32F4xx_StdPeriph_Driver/src/stm32f4xx_flash.c ****   status = FLASH_WaitForLastOperation();
 797:Drivers/STM32F4xx_StdPeriph_Driver/src/stm32f4xx_flash.c ****   
 798:Drivers/STM32F4xx_StdPeriph_Driver/src/stm32f4xx_flash.c ****   if(status == FLASH_COMPLETE)
 799:Drivers/STM32F4xx_StdPeriph_Driver/src/stm32f4xx_flash.c ****   {
 800:Drivers/STM32F4xx_StdPeriph_Driver/src/stm32f4xx_flash.c ****     /* if the previous operation is completed, proceed to program the new data */
 801:Drivers/STM32F4xx_StdPeriph_Driver/src/stm32f4xx_flash.c ****     FLASH->CR &= CR_PSIZE_MASK;
 802:Drivers/STM32F4xx_StdPeriph_Driver/src/stm32f4xx_flash.c ****     FLASH->CR |= FLASH_PSIZE_WORD;
 803:Drivers/STM32F4xx_StdPeriph_Driver/src/stm32f4xx_flash.c ****     FLASH->CR |= FLASH_CR_PG;
 804:Drivers/STM32F4xx_StdPeriph_Driver/src/stm32f4xx_flash.c ****   
 805:Drivers/STM32F4xx_StdPeriph_Driver/src/stm32f4xx_flash.c ****     *(__IO uint32_t*)Address = Data;
 806:Drivers/STM32F4xx_StdPeriph_Driver/src/stm32f4xx_flash.c ****         
 807:Drivers/STM32F4xx_StdPeriph_Driver/src/stm32f4xx_flash.c ****     /* Wait for last operation to be completed */
 808:Drivers/STM32F4xx_StdPeriph_Driver/src/stm32f4xx_flash.c ****     status = FLASH_WaitForLastOperation();
 809:Drivers/STM32F4xx_StdPeriph_Driver/src/stm32f4xx_flash.c **** 
 810:Drivers/STM32F4xx_StdPeriph_Driver/src/stm32f4xx_flash.c ****     /* if the program operation is completed, disable the PG Bit */
 811:Drivers/STM32F4xx_StdPeriph_Driver/src/stm32f4xx_flash.c ****     FLASH->CR &= (~FLASH_CR_PG);
 812:Drivers/STM32F4xx_StdPeriph_Driver/src/stm32f4xx_flash.c ****   } 
 813:Drivers/STM32F4xx_StdPeriph_Driver/src/stm32f4xx_flash.c ****   /* Return the Program Status */
 814:Drivers/STM32F4xx_StdPeriph_Driver/src/stm32f4xx_flash.c ****   return status;
 815:Drivers/STM32F4xx_StdPeriph_Driver/src/stm32f4xx_flash.c **** }
 816:Drivers/STM32F4xx_StdPeriph_Driver/src/stm32f4xx_flash.c **** 
 817:Drivers/STM32F4xx_StdPeriph_Driver/src/stm32f4xx_flash.c **** /**
 818:Drivers/STM32F4xx_StdPeriph_Driver/src/stm32f4xx_flash.c ****   * @brief  Programs a half word (16-bit) at a specified address. 
 819:Drivers/STM32F4xx_StdPeriph_Driver/src/stm32f4xx_flash.c ****   * @note   This function must be used when the device voltage range is from 2.1V to 3.6V. 
 820:Drivers/STM32F4xx_StdPeriph_Driver/src/stm32f4xx_flash.c ****   *
 821:Drivers/STM32F4xx_StdPeriph_Driver/src/stm32f4xx_flash.c ****   * @note   If an erase and a program operations are requested simultaneously,    
 822:Drivers/STM32F4xx_StdPeriph_Driver/src/stm32f4xx_flash.c ****   *         the erase operation is performed before the program one.
 823:Drivers/STM32F4xx_StdPeriph_Driver/src/stm32f4xx_flash.c ****   * 
 824:Drivers/STM32F4xx_StdPeriph_Driver/src/stm32f4xx_flash.c ****   * @param  Address: specifies the address to be programmed.
 825:Drivers/STM32F4xx_StdPeriph_Driver/src/stm32f4xx_flash.c ****   *         This parameter can be any address in Program memory zone or in OTP zone.  
 826:Drivers/STM32F4xx_StdPeriph_Driver/src/stm32f4xx_flash.c ****   * @param  Data: specifies the data to be programmed.
 827:Drivers/STM32F4xx_StdPeriph_Driver/src/stm32f4xx_flash.c ****   * @retval FLASH Status: The returned value can be: FLASH_BUSY, FLASH_ERROR_PROGRAM,
 828:Drivers/STM32F4xx_StdPeriph_Driver/src/stm32f4xx_flash.c ****   *                       FLASH_ERROR_WRP, FLASH_ERROR_OPERATION or FLASH_COMPLETE.
ARM GAS  /tmp/ccQY8YTS.s 			page 21


 829:Drivers/STM32F4xx_StdPeriph_Driver/src/stm32f4xx_flash.c ****   */
 830:Drivers/STM32F4xx_StdPeriph_Driver/src/stm32f4xx_flash.c **** FLASH_Status FLASH_ProgramHalfWord(uint32_t Address, uint16_t Data)
 831:Drivers/STM32F4xx_StdPeriph_Driver/src/stm32f4xx_flash.c **** {
 832:Drivers/STM32F4xx_StdPeriph_Driver/src/stm32f4xx_flash.c ****   FLASH_Status status = FLASH_COMPLETE;
 833:Drivers/STM32F4xx_StdPeriph_Driver/src/stm32f4xx_flash.c **** 
 834:Drivers/STM32F4xx_StdPeriph_Driver/src/stm32f4xx_flash.c ****   /* Check the parameters */
 835:Drivers/STM32F4xx_StdPeriph_Driver/src/stm32f4xx_flash.c ****   assert_param(IS_FLASH_ADDRESS(Address));
 836:Drivers/STM32F4xx_StdPeriph_Driver/src/stm32f4xx_flash.c **** 
 837:Drivers/STM32F4xx_StdPeriph_Driver/src/stm32f4xx_flash.c ****   /* Wait for last operation to be completed */
 838:Drivers/STM32F4xx_StdPeriph_Driver/src/stm32f4xx_flash.c ****   status = FLASH_WaitForLastOperation();
 839:Drivers/STM32F4xx_StdPeriph_Driver/src/stm32f4xx_flash.c ****   
 840:Drivers/STM32F4xx_StdPeriph_Driver/src/stm32f4xx_flash.c ****   if(status == FLASH_COMPLETE)
 841:Drivers/STM32F4xx_StdPeriph_Driver/src/stm32f4xx_flash.c ****   {
 842:Drivers/STM32F4xx_StdPeriph_Driver/src/stm32f4xx_flash.c ****     /* if the previous operation is completed, proceed to program the new data */
 843:Drivers/STM32F4xx_StdPeriph_Driver/src/stm32f4xx_flash.c ****     FLASH->CR &= CR_PSIZE_MASK;
 844:Drivers/STM32F4xx_StdPeriph_Driver/src/stm32f4xx_flash.c ****     FLASH->CR |= FLASH_PSIZE_HALF_WORD;
 845:Drivers/STM32F4xx_StdPeriph_Driver/src/stm32f4xx_flash.c ****     FLASH->CR |= FLASH_CR_PG;
 846:Drivers/STM32F4xx_StdPeriph_Driver/src/stm32f4xx_flash.c ****   
 847:Drivers/STM32F4xx_StdPeriph_Driver/src/stm32f4xx_flash.c ****     *(__IO uint16_t*)Address = Data;
 848:Drivers/STM32F4xx_StdPeriph_Driver/src/stm32f4xx_flash.c ****         
 849:Drivers/STM32F4xx_StdPeriph_Driver/src/stm32f4xx_flash.c ****     /* Wait for last operation to be completed */
 850:Drivers/STM32F4xx_StdPeriph_Driver/src/stm32f4xx_flash.c ****     status = FLASH_WaitForLastOperation();
 851:Drivers/STM32F4xx_StdPeriph_Driver/src/stm32f4xx_flash.c **** 
 852:Drivers/STM32F4xx_StdPeriph_Driver/src/stm32f4xx_flash.c ****     /* if the program operation is completed, disable the PG Bit */
 853:Drivers/STM32F4xx_StdPeriph_Driver/src/stm32f4xx_flash.c ****     FLASH->CR &= (~FLASH_CR_PG);
 854:Drivers/STM32F4xx_StdPeriph_Driver/src/stm32f4xx_flash.c ****   } 
 855:Drivers/STM32F4xx_StdPeriph_Driver/src/stm32f4xx_flash.c ****   /* Return the Program Status */
 856:Drivers/STM32F4xx_StdPeriph_Driver/src/stm32f4xx_flash.c ****   return status;
 857:Drivers/STM32F4xx_StdPeriph_Driver/src/stm32f4xx_flash.c **** }
 858:Drivers/STM32F4xx_StdPeriph_Driver/src/stm32f4xx_flash.c **** 
 859:Drivers/STM32F4xx_StdPeriph_Driver/src/stm32f4xx_flash.c **** /**
 860:Drivers/STM32F4xx_StdPeriph_Driver/src/stm32f4xx_flash.c ****   * @brief  Programs a byte (8-bit) at a specified address.
 861:Drivers/STM32F4xx_StdPeriph_Driver/src/stm32f4xx_flash.c ****   * @note   This function can be used within all the device supply voltage ranges.  
 862:Drivers/STM32F4xx_StdPeriph_Driver/src/stm32f4xx_flash.c ****   *
 863:Drivers/STM32F4xx_StdPeriph_Driver/src/stm32f4xx_flash.c ****   * @note   If an erase and a program operations are requested simultaneously,    
 864:Drivers/STM32F4xx_StdPeriph_Driver/src/stm32f4xx_flash.c ****   *         the erase operation is performed before the program one.
 865:Drivers/STM32F4xx_StdPeriph_Driver/src/stm32f4xx_flash.c ****   * 
 866:Drivers/STM32F4xx_StdPeriph_Driver/src/stm32f4xx_flash.c ****   * @param  Address: specifies the address to be programmed.
 867:Drivers/STM32F4xx_StdPeriph_Driver/src/stm32f4xx_flash.c ****   *         This parameter can be any address in Program memory zone or in OTP zone.  
 868:Drivers/STM32F4xx_StdPeriph_Driver/src/stm32f4xx_flash.c ****   * @param  Data: specifies the data to be programmed.
 869:Drivers/STM32F4xx_StdPeriph_Driver/src/stm32f4xx_flash.c ****   * @retval FLASH Status: The returned value can be: FLASH_BUSY, FLASH_ERROR_PROGRAM,
 870:Drivers/STM32F4xx_StdPeriph_Driver/src/stm32f4xx_flash.c ****   *                       FLASH_ERROR_WRP, FLASH_ERROR_OPERATION or FLASH_COMPLETE.
 871:Drivers/STM32F4xx_StdPeriph_Driver/src/stm32f4xx_flash.c ****   */
 872:Drivers/STM32F4xx_StdPeriph_Driver/src/stm32f4xx_flash.c **** FLASH_Status FLASH_ProgramByte(uint32_t Address, uint8_t Data)
 873:Drivers/STM32F4xx_StdPeriph_Driver/src/stm32f4xx_flash.c **** {
 874:Drivers/STM32F4xx_StdPeriph_Driver/src/stm32f4xx_flash.c ****   FLASH_Status status = FLASH_COMPLETE;
 875:Drivers/STM32F4xx_StdPeriph_Driver/src/stm32f4xx_flash.c **** 
 876:Drivers/STM32F4xx_StdPeriph_Driver/src/stm32f4xx_flash.c ****   /* Check the parameters */
 877:Drivers/STM32F4xx_StdPeriph_Driver/src/stm32f4xx_flash.c ****   assert_param(IS_FLASH_ADDRESS(Address));
 878:Drivers/STM32F4xx_StdPeriph_Driver/src/stm32f4xx_flash.c **** 
 879:Drivers/STM32F4xx_StdPeriph_Driver/src/stm32f4xx_flash.c ****   /* Wait for last operation to be completed */
 880:Drivers/STM32F4xx_StdPeriph_Driver/src/stm32f4xx_flash.c ****   status = FLASH_WaitForLastOperation();
 881:Drivers/STM32F4xx_StdPeriph_Driver/src/stm32f4xx_flash.c ****   
 882:Drivers/STM32F4xx_StdPeriph_Driver/src/stm32f4xx_flash.c ****   if(status == FLASH_COMPLETE)
 883:Drivers/STM32F4xx_StdPeriph_Driver/src/stm32f4xx_flash.c ****   {
 884:Drivers/STM32F4xx_StdPeriph_Driver/src/stm32f4xx_flash.c ****     /* if the previous operation is completed, proceed to program the new data */
 885:Drivers/STM32F4xx_StdPeriph_Driver/src/stm32f4xx_flash.c ****     FLASH->CR &= CR_PSIZE_MASK;
ARM GAS  /tmp/ccQY8YTS.s 			page 22


 886:Drivers/STM32F4xx_StdPeriph_Driver/src/stm32f4xx_flash.c ****     FLASH->CR |= FLASH_PSIZE_BYTE;
 887:Drivers/STM32F4xx_StdPeriph_Driver/src/stm32f4xx_flash.c ****     FLASH->CR |= FLASH_CR_PG;
 888:Drivers/STM32F4xx_StdPeriph_Driver/src/stm32f4xx_flash.c ****   
 889:Drivers/STM32F4xx_StdPeriph_Driver/src/stm32f4xx_flash.c ****     *(__IO uint8_t*)Address = Data;
 890:Drivers/STM32F4xx_StdPeriph_Driver/src/stm32f4xx_flash.c ****         
 891:Drivers/STM32F4xx_StdPeriph_Driver/src/stm32f4xx_flash.c ****     /* Wait for last operation to be completed */
 892:Drivers/STM32F4xx_StdPeriph_Driver/src/stm32f4xx_flash.c ****     status = FLASH_WaitForLastOperation();
 893:Drivers/STM32F4xx_StdPeriph_Driver/src/stm32f4xx_flash.c **** 
 894:Drivers/STM32F4xx_StdPeriph_Driver/src/stm32f4xx_flash.c ****     /* if the program operation is completed, disable the PG Bit */
 895:Drivers/STM32F4xx_StdPeriph_Driver/src/stm32f4xx_flash.c ****     FLASH->CR &= (~FLASH_CR_PG);
 896:Drivers/STM32F4xx_StdPeriph_Driver/src/stm32f4xx_flash.c ****   } 
 897:Drivers/STM32F4xx_StdPeriph_Driver/src/stm32f4xx_flash.c **** 
 898:Drivers/STM32F4xx_StdPeriph_Driver/src/stm32f4xx_flash.c ****   /* Return the Program Status */
 899:Drivers/STM32F4xx_StdPeriph_Driver/src/stm32f4xx_flash.c ****   return status;
 900:Drivers/STM32F4xx_StdPeriph_Driver/src/stm32f4xx_flash.c **** }
 901:Drivers/STM32F4xx_StdPeriph_Driver/src/stm32f4xx_flash.c **** 
 902:Drivers/STM32F4xx_StdPeriph_Driver/src/stm32f4xx_flash.c **** /**
 903:Drivers/STM32F4xx_StdPeriph_Driver/src/stm32f4xx_flash.c ****   * @}
 904:Drivers/STM32F4xx_StdPeriph_Driver/src/stm32f4xx_flash.c ****   */
 905:Drivers/STM32F4xx_StdPeriph_Driver/src/stm32f4xx_flash.c **** 
 906:Drivers/STM32F4xx_StdPeriph_Driver/src/stm32f4xx_flash.c **** /** @defgroup FLASH_Group3 Option Bytes Programming functions
 907:Drivers/STM32F4xx_StdPeriph_Driver/src/stm32f4xx_flash.c ****  *  @brief   Option Bytes Programming functions 
 908:Drivers/STM32F4xx_StdPeriph_Driver/src/stm32f4xx_flash.c ****  *
 909:Drivers/STM32F4xx_StdPeriph_Driver/src/stm32f4xx_flash.c **** @verbatim   
 910:Drivers/STM32F4xx_StdPeriph_Driver/src/stm32f4xx_flash.c ****  ===============================================================================
 911:Drivers/STM32F4xx_StdPeriph_Driver/src/stm32f4xx_flash.c ****                 ##### Option Bytes Programming functions #####
 912:Drivers/STM32F4xx_StdPeriph_Driver/src/stm32f4xx_flash.c ****  ===============================================================================  
 913:Drivers/STM32F4xx_StdPeriph_Driver/src/stm32f4xx_flash.c ****     [..]
 914:Drivers/STM32F4xx_StdPeriph_Driver/src/stm32f4xx_flash.c ****       This group includes the following functions:
 915:Drivers/STM32F4xx_StdPeriph_Driver/src/stm32f4xx_flash.c ****       (+) void FLASH_OB_Unlock(void)
 916:Drivers/STM32F4xx_StdPeriph_Driver/src/stm32f4xx_flash.c ****       (+) void FLASH_OB_Lock(void)
 917:Drivers/STM32F4xx_StdPeriph_Driver/src/stm32f4xx_flash.c ****       (+) void FLASH_OB_WRPConfig(uint32_t OB_WRP, FunctionalState NewState)
 918:Drivers/STM32F4xx_StdPeriph_Driver/src/stm32f4xx_flash.c ****       (+) void FLASH_OB_WRP1Config(uint32_t OB_WRP, FunctionalState NewState)  
 919:Drivers/STM32F4xx_StdPeriph_Driver/src/stm32f4xx_flash.c ****       (+) void FLASH_OB_PCROPSelectionConfig(uint8_t OB_PCROPSelect)
 920:Drivers/STM32F4xx_StdPeriph_Driver/src/stm32f4xx_flash.c ****       (+) void FLASH_OB_PCROPConfig(uint32_t OB_PCROP, FunctionalState NewState)
 921:Drivers/STM32F4xx_StdPeriph_Driver/src/stm32f4xx_flash.c ****       (+) void FLASH_OB_PCROP1Config(uint32_t OB_PCROP, FunctionalState NewState) 
 922:Drivers/STM32F4xx_StdPeriph_Driver/src/stm32f4xx_flash.c ****       (+) void FLASH_OB_RDPConfig(uint8_t OB_RDP)
 923:Drivers/STM32F4xx_StdPeriph_Driver/src/stm32f4xx_flash.c ****       (+) void FLASH_OB_UserConfig(uint8_t OB_IWDG, uint8_t OB_STOP, uint8_t OB_STDBY)
 924:Drivers/STM32F4xx_StdPeriph_Driver/src/stm32f4xx_flash.c ****       (+) void FLASH_OB_BORConfig(uint8_t OB_BOR)
 925:Drivers/STM32F4xx_StdPeriph_Driver/src/stm32f4xx_flash.c ****       (+) FLASH_Status FLASH_ProgramOTP(uint32_t Address, uint32_t Data)
 926:Drivers/STM32F4xx_StdPeriph_Driver/src/stm32f4xx_flash.c ****       (+) FLASH_Status FLASH_OB_Launch(void)
 927:Drivers/STM32F4xx_StdPeriph_Driver/src/stm32f4xx_flash.c ****       (+) uint32_t FLASH_OB_GetUser(void)
 928:Drivers/STM32F4xx_StdPeriph_Driver/src/stm32f4xx_flash.c ****       (+) uint8_t FLASH_OB_GetWRP(void)
 929:Drivers/STM32F4xx_StdPeriph_Driver/src/stm32f4xx_flash.c ****       (+) uint8_t FLASH_OB_GetWRP1(void)
 930:Drivers/STM32F4xx_StdPeriph_Driver/src/stm32f4xx_flash.c ****       (+) uint8_t FLASH_OB_GetPCROP(void)
 931:Drivers/STM32F4xx_StdPeriph_Driver/src/stm32f4xx_flash.c ****       (+) uint8_t FLASH_OB_GetPCROP1(void)
 932:Drivers/STM32F4xx_StdPeriph_Driver/src/stm32f4xx_flash.c ****       (+) uint8_t FLASH_OB_GetRDP(void)
 933:Drivers/STM32F4xx_StdPeriph_Driver/src/stm32f4xx_flash.c ****       (+) uint8_t FLASH_OB_GetBOR(void)
 934:Drivers/STM32F4xx_StdPeriph_Driver/src/stm32f4xx_flash.c ****     [..]  
 935:Drivers/STM32F4xx_StdPeriph_Driver/src/stm32f4xx_flash.c ****       The following function can be used only for STM32F42xxx/43xxx devices. 
 936:Drivers/STM32F4xx_StdPeriph_Driver/src/stm32f4xx_flash.c ****       (+) void FLASH_OB_BootConfig(uint8_t OB_BOOT)
 937:Drivers/STM32F4xx_StdPeriph_Driver/src/stm32f4xx_flash.c ****     [..]   
 938:Drivers/STM32F4xx_StdPeriph_Driver/src/stm32f4xx_flash.c ****      Any operation of erase or program should follow these steps:
 939:Drivers/STM32F4xx_StdPeriph_Driver/src/stm32f4xx_flash.c ****       (#) Call the FLASH_OB_Unlock() function to enable the FLASH option control 
 940:Drivers/STM32F4xx_StdPeriph_Driver/src/stm32f4xx_flash.c ****           register access
 941:Drivers/STM32F4xx_StdPeriph_Driver/src/stm32f4xx_flash.c **** 
 942:Drivers/STM32F4xx_StdPeriph_Driver/src/stm32f4xx_flash.c ****       (#) Call one or several functions to program the desired Option Bytes:
ARM GAS  /tmp/ccQY8YTS.s 			page 23


 943:Drivers/STM32F4xx_StdPeriph_Driver/src/stm32f4xx_flash.c ****         (++) void FLASH_OB_WRPConfig(uint32_t OB_WRP, FunctionalState NewState) 
 944:Drivers/STM32F4xx_StdPeriph_Driver/src/stm32f4xx_flash.c ****              => to Enable/Disable the desired sector write protection
 945:Drivers/STM32F4xx_StdPeriph_Driver/src/stm32f4xx_flash.c ****         (++) void FLASH_OB_RDPConfig(uint8_t OB_RDP) => to set the desired read 
 946:Drivers/STM32F4xx_StdPeriph_Driver/src/stm32f4xx_flash.c ****              Protection Level
 947:Drivers/STM32F4xx_StdPeriph_Driver/src/stm32f4xx_flash.c ****         (++) void FLASH_OB_UserConfig(uint8_t OB_IWDG, uint8_t OB_STOP, uint8_t OB_STDBY) 
 948:Drivers/STM32F4xx_StdPeriph_Driver/src/stm32f4xx_flash.c ****              => to configure the user Option Bytes.
 949:Drivers/STM32F4xx_StdPeriph_Driver/src/stm32f4xx_flash.c ****         (++) void FLASH_OB_BORConfig(uint8_t OB_BOR) => to set the BOR Level 			 
 950:Drivers/STM32F4xx_StdPeriph_Driver/src/stm32f4xx_flash.c **** 
 951:Drivers/STM32F4xx_StdPeriph_Driver/src/stm32f4xx_flash.c ****       (#) Once all needed Option Bytes to be programmed are correctly written, 
 952:Drivers/STM32F4xx_StdPeriph_Driver/src/stm32f4xx_flash.c ****           call the FLASH_OB_Launch() function to launch the Option Bytes 
 953:Drivers/STM32F4xx_StdPeriph_Driver/src/stm32f4xx_flash.c ****           programming process.
 954:Drivers/STM32F4xx_StdPeriph_Driver/src/stm32f4xx_flash.c ****      
 955:Drivers/STM32F4xx_StdPeriph_Driver/src/stm32f4xx_flash.c ****       -@- When changing the IWDG mode from HW to SW or from SW to HW, a system 
 956:Drivers/STM32F4xx_StdPeriph_Driver/src/stm32f4xx_flash.c ****           reset is needed to make the change effective.  
 957:Drivers/STM32F4xx_StdPeriph_Driver/src/stm32f4xx_flash.c **** 
 958:Drivers/STM32F4xx_StdPeriph_Driver/src/stm32f4xx_flash.c ****       (#) Call the FLASH_OB_Lock() function to disable the FLASH option control 
 959:Drivers/STM32F4xx_StdPeriph_Driver/src/stm32f4xx_flash.c ****           register access (recommended to protect the Option Bytes against 
 960:Drivers/STM32F4xx_StdPeriph_Driver/src/stm32f4xx_flash.c ****           possible unwanted operations)
 961:Drivers/STM32F4xx_StdPeriph_Driver/src/stm32f4xx_flash.c ****     
 962:Drivers/STM32F4xx_StdPeriph_Driver/src/stm32f4xx_flash.c **** @endverbatim
 963:Drivers/STM32F4xx_StdPeriph_Driver/src/stm32f4xx_flash.c ****   * @{
 964:Drivers/STM32F4xx_StdPeriph_Driver/src/stm32f4xx_flash.c ****   */
 965:Drivers/STM32F4xx_StdPeriph_Driver/src/stm32f4xx_flash.c **** 
 966:Drivers/STM32F4xx_StdPeriph_Driver/src/stm32f4xx_flash.c **** /**
 967:Drivers/STM32F4xx_StdPeriph_Driver/src/stm32f4xx_flash.c ****   * @brief  Unlocks the FLASH Option Control Registers access.
 968:Drivers/STM32F4xx_StdPeriph_Driver/src/stm32f4xx_flash.c ****   * @param  None
 969:Drivers/STM32F4xx_StdPeriph_Driver/src/stm32f4xx_flash.c ****   * @retval None
 970:Drivers/STM32F4xx_StdPeriph_Driver/src/stm32f4xx_flash.c ****   */
 971:Drivers/STM32F4xx_StdPeriph_Driver/src/stm32f4xx_flash.c **** void FLASH_OB_Unlock(void)
 972:Drivers/STM32F4xx_StdPeriph_Driver/src/stm32f4xx_flash.c **** {
 326              		.loc 1 972 1 is_stmt 1 view -0
 327              		.cfi_startproc
 328              		@ args = 0, pretend = 0, frame = 0
 329              		@ frame_needed = 0, uses_anonymous_args = 0
 330              		@ link register save eliminated.
 973:Drivers/STM32F4xx_StdPeriph_Driver/src/stm32f4xx_flash.c ****   if((FLASH->OPTCR & FLASH_OPTCR_OPTLOCK) != RESET)
 331              		.loc 1 973 3 view .LVU56
 332              		.loc 1 973 12 is_stmt 0 view .LVU57
 333 0000 054B     		ldr	r3, .L35
 334 0002 5B69     		ldr	r3, [r3, #20]
 335              		.loc 1 973 5 view .LVU58
 336 0004 13F0010F 		tst	r3, #1
 337 0008 05D0     		beq	.L33
 974:Drivers/STM32F4xx_StdPeriph_Driver/src/stm32f4xx_flash.c ****   {
 975:Drivers/STM32F4xx_StdPeriph_Driver/src/stm32f4xx_flash.c ****     /* Authorizes the Option Byte register programming */
 976:Drivers/STM32F4xx_StdPeriph_Driver/src/stm32f4xx_flash.c ****     FLASH->OPTKEYR = FLASH_OPT_KEY1;
 338              		.loc 1 976 5 is_stmt 1 view .LVU59
 339              		.loc 1 976 20 is_stmt 0 view .LVU60
 340 000a 034B     		ldr	r3, .L35
 341 000c 034A     		ldr	r2, .L35+4
 342 000e 9A60     		str	r2, [r3, #8]
 977:Drivers/STM32F4xx_StdPeriph_Driver/src/stm32f4xx_flash.c ****     FLASH->OPTKEYR = FLASH_OPT_KEY2;
 343              		.loc 1 977 5 is_stmt 1 view .LVU61
 344              		.loc 1 977 20 is_stmt 0 view .LVU62
 345 0010 02F14432 		add	r2, r2, #1145324612
 346 0014 9A60     		str	r2, [r3, #8]
 347              	.L33:
ARM GAS  /tmp/ccQY8YTS.s 			page 24


 978:Drivers/STM32F4xx_StdPeriph_Driver/src/stm32f4xx_flash.c ****   }  
 979:Drivers/STM32F4xx_StdPeriph_Driver/src/stm32f4xx_flash.c **** }
 348              		.loc 1 979 1 view .LVU63
 349 0016 7047     		bx	lr
 350              	.L36:
 351              		.align	2
 352              	.L35:
 353 0018 003C0240 		.word	1073888256
 354 001c 3B2A1908 		.word	135866939
 355              		.cfi_endproc
 356              	.LFE139:
 358              		.section	.text.FLASH_OB_Lock,"ax",%progbits
 359              		.align	1
 360              		.global	FLASH_OB_Lock
 361              		.syntax unified
 362              		.thumb
 363              		.thumb_func
 364              		.fpu fpv4-sp-d16
 366              	FLASH_OB_Lock:
 367              	.LFB140:
 980:Drivers/STM32F4xx_StdPeriph_Driver/src/stm32f4xx_flash.c **** 
 981:Drivers/STM32F4xx_StdPeriph_Driver/src/stm32f4xx_flash.c **** /**
 982:Drivers/STM32F4xx_StdPeriph_Driver/src/stm32f4xx_flash.c ****   * @brief  Locks the FLASH Option Control Registers access.
 983:Drivers/STM32F4xx_StdPeriph_Driver/src/stm32f4xx_flash.c ****   * @param  None
 984:Drivers/STM32F4xx_StdPeriph_Driver/src/stm32f4xx_flash.c ****   * @retval None
 985:Drivers/STM32F4xx_StdPeriph_Driver/src/stm32f4xx_flash.c ****   */
 986:Drivers/STM32F4xx_StdPeriph_Driver/src/stm32f4xx_flash.c **** void FLASH_OB_Lock(void)
 987:Drivers/STM32F4xx_StdPeriph_Driver/src/stm32f4xx_flash.c **** {
 368              		.loc 1 987 1 is_stmt 1 view -0
 369              		.cfi_startproc
 370              		@ args = 0, pretend = 0, frame = 0
 371              		@ frame_needed = 0, uses_anonymous_args = 0
 372              		@ link register save eliminated.
 988:Drivers/STM32F4xx_StdPeriph_Driver/src/stm32f4xx_flash.c ****   /* Set the OPTLOCK Bit to lock the FLASH Option Byte Registers access */
 989:Drivers/STM32F4xx_StdPeriph_Driver/src/stm32f4xx_flash.c ****   FLASH->OPTCR |= FLASH_OPTCR_OPTLOCK;
 373              		.loc 1 989 3 view .LVU65
 374              		.loc 1 989 16 is_stmt 0 view .LVU66
 375 0000 024A     		ldr	r2, .L38
 376 0002 5369     		ldr	r3, [r2, #20]
 377 0004 43F00103 		orr	r3, r3, #1
 378 0008 5361     		str	r3, [r2, #20]
 990:Drivers/STM32F4xx_StdPeriph_Driver/src/stm32f4xx_flash.c **** }
 379              		.loc 1 990 1 view .LVU67
 380 000a 7047     		bx	lr
 381              	.L39:
 382              		.align	2
 383              	.L38:
 384 000c 003C0240 		.word	1073888256
 385              		.cfi_endproc
 386              	.LFE140:
 388              		.section	.text.FLASH_OB_PCROPSelectionConfig,"ax",%progbits
 389              		.align	1
 390              		.global	FLASH_OB_PCROPSelectionConfig
 391              		.syntax unified
 392              		.thumb
 393              		.thumb_func
 394              		.fpu fpv4-sp-d16
ARM GAS  /tmp/ccQY8YTS.s 			page 25


 396              	FLASH_OB_PCROPSelectionConfig:
 397              	.LVL5:
 398              	.LFB143:
 991:Drivers/STM32F4xx_StdPeriph_Driver/src/stm32f4xx_flash.c **** 
 992:Drivers/STM32F4xx_StdPeriph_Driver/src/stm32f4xx_flash.c **** /**
 993:Drivers/STM32F4xx_StdPeriph_Driver/src/stm32f4xx_flash.c ****   * @brief  Enables or disables the write protection of the desired sectors, for the first
 994:Drivers/STM32F4xx_StdPeriph_Driver/src/stm32f4xx_flash.c ****   *         1 Mb of the Flash  
 995:Drivers/STM32F4xx_StdPeriph_Driver/src/stm32f4xx_flash.c ****   *
 996:Drivers/STM32F4xx_StdPeriph_Driver/src/stm32f4xx_flash.c ****   * @note   When the memory read protection level is selected (RDP level = 1), 
 997:Drivers/STM32F4xx_StdPeriph_Driver/src/stm32f4xx_flash.c ****   *         it is not possible to program or erase the flash sector i if CortexM4  
 998:Drivers/STM32F4xx_StdPeriph_Driver/src/stm32f4xx_flash.c ****   *         debug features are connected or boot code is executed in RAM, even if nWRPi = 1 
 999:Drivers/STM32F4xx_StdPeriph_Driver/src/stm32f4xx_flash.c ****   * @note   Active value of nWRPi bits is inverted when PCROP mode is active (SPRMOD =1).   
1000:Drivers/STM32F4xx_StdPeriph_Driver/src/stm32f4xx_flash.c ****   * 
1001:Drivers/STM32F4xx_StdPeriph_Driver/src/stm32f4xx_flash.c ****   * @param  OB_WRP: specifies the sector(s) to be write protected or unprotected.
1002:Drivers/STM32F4xx_StdPeriph_Driver/src/stm32f4xx_flash.c ****   *          This parameter can be one of the following values:
1003:Drivers/STM32F4xx_StdPeriph_Driver/src/stm32f4xx_flash.c ****   *            @arg OB_WRP: A value between OB_WRP_Sector0 and OB_WRP_Sector11                     
1004:Drivers/STM32F4xx_StdPeriph_Driver/src/stm32f4xx_flash.c ****   *            @arg OB_WRP_Sector_All
1005:Drivers/STM32F4xx_StdPeriph_Driver/src/stm32f4xx_flash.c ****   * @param  Newstate: new state of the Write Protection.
1006:Drivers/STM32F4xx_StdPeriph_Driver/src/stm32f4xx_flash.c ****   *          This parameter can be: ENABLE or DISABLE.
1007:Drivers/STM32F4xx_StdPeriph_Driver/src/stm32f4xx_flash.c ****   * @retval None  
1008:Drivers/STM32F4xx_StdPeriph_Driver/src/stm32f4xx_flash.c ****   */
1009:Drivers/STM32F4xx_StdPeriph_Driver/src/stm32f4xx_flash.c **** void FLASH_OB_WRPConfig(uint32_t OB_WRP, FunctionalState NewState)
1010:Drivers/STM32F4xx_StdPeriph_Driver/src/stm32f4xx_flash.c **** { 
1011:Drivers/STM32F4xx_StdPeriph_Driver/src/stm32f4xx_flash.c ****   FLASH_Status status = FLASH_COMPLETE;
1012:Drivers/STM32F4xx_StdPeriph_Driver/src/stm32f4xx_flash.c ****   
1013:Drivers/STM32F4xx_StdPeriph_Driver/src/stm32f4xx_flash.c ****   /* Check the parameters */
1014:Drivers/STM32F4xx_StdPeriph_Driver/src/stm32f4xx_flash.c ****   assert_param(IS_OB_WRP(OB_WRP));
1015:Drivers/STM32F4xx_StdPeriph_Driver/src/stm32f4xx_flash.c ****   assert_param(IS_FUNCTIONAL_STATE(NewState));
1016:Drivers/STM32F4xx_StdPeriph_Driver/src/stm32f4xx_flash.c ****     
1017:Drivers/STM32F4xx_StdPeriph_Driver/src/stm32f4xx_flash.c ****   status = FLASH_WaitForLastOperation();
1018:Drivers/STM32F4xx_StdPeriph_Driver/src/stm32f4xx_flash.c **** 
1019:Drivers/STM32F4xx_StdPeriph_Driver/src/stm32f4xx_flash.c ****   if(status == FLASH_COMPLETE)
1020:Drivers/STM32F4xx_StdPeriph_Driver/src/stm32f4xx_flash.c ****   { 
1021:Drivers/STM32F4xx_StdPeriph_Driver/src/stm32f4xx_flash.c ****     if(NewState != DISABLE)
1022:Drivers/STM32F4xx_StdPeriph_Driver/src/stm32f4xx_flash.c ****     {
1023:Drivers/STM32F4xx_StdPeriph_Driver/src/stm32f4xx_flash.c ****       *(__IO uint16_t*)OPTCR_BYTE2_ADDRESS &= (~OB_WRP);
1024:Drivers/STM32F4xx_StdPeriph_Driver/src/stm32f4xx_flash.c ****     }
1025:Drivers/STM32F4xx_StdPeriph_Driver/src/stm32f4xx_flash.c ****     else
1026:Drivers/STM32F4xx_StdPeriph_Driver/src/stm32f4xx_flash.c ****     {
1027:Drivers/STM32F4xx_StdPeriph_Driver/src/stm32f4xx_flash.c ****       *(__IO uint16_t*)OPTCR_BYTE2_ADDRESS |= (uint16_t)OB_WRP;
1028:Drivers/STM32F4xx_StdPeriph_Driver/src/stm32f4xx_flash.c ****     }
1029:Drivers/STM32F4xx_StdPeriph_Driver/src/stm32f4xx_flash.c ****   }
1030:Drivers/STM32F4xx_StdPeriph_Driver/src/stm32f4xx_flash.c **** }
1031:Drivers/STM32F4xx_StdPeriph_Driver/src/stm32f4xx_flash.c **** 
1032:Drivers/STM32F4xx_StdPeriph_Driver/src/stm32f4xx_flash.c **** /**
1033:Drivers/STM32F4xx_StdPeriph_Driver/src/stm32f4xx_flash.c ****   * @brief  Enables or disables the write protection of the desired sectors, for the second
1034:Drivers/STM32F4xx_StdPeriph_Driver/src/stm32f4xx_flash.c ****   *         1 Mb of the Flash  
1035:Drivers/STM32F4xx_StdPeriph_Driver/src/stm32f4xx_flash.c ****   *           
1036:Drivers/STM32F4xx_StdPeriph_Driver/src/stm32f4xx_flash.c ****   * @note   This function can be used only for STM32F42xxx/43xxx devices.
1037:Drivers/STM32F4xx_StdPeriph_Driver/src/stm32f4xx_flash.c ****   *   
1038:Drivers/STM32F4xx_StdPeriph_Driver/src/stm32f4xx_flash.c ****   * @note   When the memory read out protection is selected (RDP level = 1), 
1039:Drivers/STM32F4xx_StdPeriph_Driver/src/stm32f4xx_flash.c ****   *         it is not possible to program or erase the flash sector i if CortexM4  
1040:Drivers/STM32F4xx_StdPeriph_Driver/src/stm32f4xx_flash.c ****   *         debug features are connected or boot code is executed in RAM, even if nWRPi = 1 
1041:Drivers/STM32F4xx_StdPeriph_Driver/src/stm32f4xx_flash.c ****   * @note   Active value of nWRPi bits is inverted when PCROP mode is active (SPRMOD =1).      
1042:Drivers/STM32F4xx_StdPeriph_Driver/src/stm32f4xx_flash.c ****   * 
1043:Drivers/STM32F4xx_StdPeriph_Driver/src/stm32f4xx_flash.c ****   * @param  OB_WRP: specifies the sector(s) to be write protected or unprotected.
1044:Drivers/STM32F4xx_StdPeriph_Driver/src/stm32f4xx_flash.c ****   *          This parameter can be one of the following values:
ARM GAS  /tmp/ccQY8YTS.s 			page 26


1045:Drivers/STM32F4xx_StdPeriph_Driver/src/stm32f4xx_flash.c ****   *            @arg OB_WRP: A value between OB_WRP_Sector12 and OB_WRP_Sector23
1046:Drivers/STM32F4xx_StdPeriph_Driver/src/stm32f4xx_flash.c ****   *            @arg OB_WRP_Sector_All                        
1047:Drivers/STM32F4xx_StdPeriph_Driver/src/stm32f4xx_flash.c ****   * @param  Newstate: new state of the Write Protection.
1048:Drivers/STM32F4xx_StdPeriph_Driver/src/stm32f4xx_flash.c ****   *          This parameter can be: ENABLE or DISABLE.
1049:Drivers/STM32F4xx_StdPeriph_Driver/src/stm32f4xx_flash.c ****   * @retval None  
1050:Drivers/STM32F4xx_StdPeriph_Driver/src/stm32f4xx_flash.c ****   */
1051:Drivers/STM32F4xx_StdPeriph_Driver/src/stm32f4xx_flash.c **** void FLASH_OB_WRP1Config(uint32_t OB_WRP, FunctionalState NewState)
1052:Drivers/STM32F4xx_StdPeriph_Driver/src/stm32f4xx_flash.c **** { 
1053:Drivers/STM32F4xx_StdPeriph_Driver/src/stm32f4xx_flash.c ****   FLASH_Status status = FLASH_COMPLETE;
1054:Drivers/STM32F4xx_StdPeriph_Driver/src/stm32f4xx_flash.c ****   
1055:Drivers/STM32F4xx_StdPeriph_Driver/src/stm32f4xx_flash.c ****   /* Check the parameters */
1056:Drivers/STM32F4xx_StdPeriph_Driver/src/stm32f4xx_flash.c ****   assert_param(IS_OB_WRP(OB_WRP));
1057:Drivers/STM32F4xx_StdPeriph_Driver/src/stm32f4xx_flash.c ****   assert_param(IS_FUNCTIONAL_STATE(NewState));
1058:Drivers/STM32F4xx_StdPeriph_Driver/src/stm32f4xx_flash.c ****     
1059:Drivers/STM32F4xx_StdPeriph_Driver/src/stm32f4xx_flash.c ****   status = FLASH_WaitForLastOperation();
1060:Drivers/STM32F4xx_StdPeriph_Driver/src/stm32f4xx_flash.c **** 
1061:Drivers/STM32F4xx_StdPeriph_Driver/src/stm32f4xx_flash.c ****   if(status == FLASH_COMPLETE)
1062:Drivers/STM32F4xx_StdPeriph_Driver/src/stm32f4xx_flash.c ****   { 
1063:Drivers/STM32F4xx_StdPeriph_Driver/src/stm32f4xx_flash.c ****     if(NewState != DISABLE)
1064:Drivers/STM32F4xx_StdPeriph_Driver/src/stm32f4xx_flash.c ****     {
1065:Drivers/STM32F4xx_StdPeriph_Driver/src/stm32f4xx_flash.c ****       *(__IO uint16_t*)OPTCR1_BYTE2_ADDRESS &= (~OB_WRP);
1066:Drivers/STM32F4xx_StdPeriph_Driver/src/stm32f4xx_flash.c ****     }
1067:Drivers/STM32F4xx_StdPeriph_Driver/src/stm32f4xx_flash.c ****     else
1068:Drivers/STM32F4xx_StdPeriph_Driver/src/stm32f4xx_flash.c ****     {
1069:Drivers/STM32F4xx_StdPeriph_Driver/src/stm32f4xx_flash.c ****       *(__IO uint16_t*)OPTCR1_BYTE2_ADDRESS |= (uint16_t)OB_WRP;
1070:Drivers/STM32F4xx_StdPeriph_Driver/src/stm32f4xx_flash.c ****     }
1071:Drivers/STM32F4xx_StdPeriph_Driver/src/stm32f4xx_flash.c ****   }
1072:Drivers/STM32F4xx_StdPeriph_Driver/src/stm32f4xx_flash.c **** }
1073:Drivers/STM32F4xx_StdPeriph_Driver/src/stm32f4xx_flash.c **** 
1074:Drivers/STM32F4xx_StdPeriph_Driver/src/stm32f4xx_flash.c **** /**
1075:Drivers/STM32F4xx_StdPeriph_Driver/src/stm32f4xx_flash.c ****   * @brief  Select the Protection Mode (SPRMOD). 
1076:Drivers/STM32F4xx_StdPeriph_Driver/src/stm32f4xx_flash.c ****   * 
1077:Drivers/STM32F4xx_StdPeriph_Driver/src/stm32f4xx_flash.c ****   * @note   This function can be used only for STM32F42xxx/43xxx and STM32F401xx/411xE devices.    
1078:Drivers/STM32F4xx_StdPeriph_Driver/src/stm32f4xx_flash.c ****   * 
1079:Drivers/STM32F4xx_StdPeriph_Driver/src/stm32f4xx_flash.c ****   * @note   After PCROP activation, Option Byte modification is not possible. 
1080:Drivers/STM32F4xx_StdPeriph_Driver/src/stm32f4xx_flash.c ****   *         Exception made for the global Read Out Protection modification level (level1 to level0)
1081:Drivers/STM32F4xx_StdPeriph_Driver/src/stm32f4xx_flash.c ****   * @note   Once SPRMOD bit is active unprotection of a protected sector is not possible 
1082:Drivers/STM32F4xx_StdPeriph_Driver/src/stm32f4xx_flash.c ****   *   
1083:Drivers/STM32F4xx_StdPeriph_Driver/src/stm32f4xx_flash.c ****   * @note   Read a protected sector will set RDERR Flag and write a protected sector will set WRPER
1084:Drivers/STM32F4xx_StdPeriph_Driver/src/stm32f4xx_flash.c ****   *   
1085:Drivers/STM32F4xx_StdPeriph_Driver/src/stm32f4xx_flash.c ****   * @note   Some Precautions should be taken when activating the PCROP feature :
1086:Drivers/STM32F4xx_StdPeriph_Driver/src/stm32f4xx_flash.c ****   *         The active value of nWRPi bits is inverted when PCROP mode is active, this means if SPR
1087:Drivers/STM32F4xx_StdPeriph_Driver/src/stm32f4xx_flash.c ****   *         and WRPi = 1 (default value), then the user sector i is read/write protected.
1088:Drivers/STM32F4xx_StdPeriph_Driver/src/stm32f4xx_flash.c ****   *         In order to avoid activation of PCROP Mode for undesired sectors, please follow the
1089:Drivers/STM32F4xx_StdPeriph_Driver/src/stm32f4xx_flash.c ****   *         below safety sequence :       
1090:Drivers/STM32F4xx_StdPeriph_Driver/src/stm32f4xx_flash.c ****   *         - Disable PCROP for all Sectors using FLASH_OB_PCROPConfig(OB_PCROP_Sector_All, DISABLE
1091:Drivers/STM32F4xx_StdPeriph_Driver/src/stm32f4xx_flash.c ****   *           for Bank1 or FLASH_OB_PCROP1Config(OB_PCROP_Sector_All, DISABLE) function for Bank2  
1092:Drivers/STM32F4xx_StdPeriph_Driver/src/stm32f4xx_flash.c ****   *         - Enable PCROP for the desired Sector i using FLASH_OB_PCROPConfig(Sector i, ENABLE) fu
1093:Drivers/STM32F4xx_StdPeriph_Driver/src/stm32f4xx_flash.c ****   *         - Activate the PCROP Mode FLASH_OB_PCROPSelectionConfig() function. 
1094:Drivers/STM32F4xx_StdPeriph_Driver/src/stm32f4xx_flash.c ****   * 
1095:Drivers/STM32F4xx_StdPeriph_Driver/src/stm32f4xx_flash.c ****   * @param  OB_PCROP:  Select the Protection Mode of nWPRi bits 
1096:Drivers/STM32F4xx_StdPeriph_Driver/src/stm32f4xx_flash.c ****   *          This parameter can be one of the following values:
1097:Drivers/STM32F4xx_StdPeriph_Driver/src/stm32f4xx_flash.c ****   *            @arg OB_PcROP_Disable: nWRPi control the write protection of respective user sectors
1098:Drivers/STM32F4xx_StdPeriph_Driver/src/stm32f4xx_flash.c ****   *            @arg OB_PcROP_Enable: nWRPi control the  read&write protection (PCROP) of respective
1099:Drivers/STM32F4xx_StdPeriph_Driver/src/stm32f4xx_flash.c ****   * @retval None
1100:Drivers/STM32F4xx_StdPeriph_Driver/src/stm32f4xx_flash.c ****   */
1101:Drivers/STM32F4xx_StdPeriph_Driver/src/stm32f4xx_flash.c **** void FLASH_OB_PCROPSelectionConfig(uint8_t OB_PcROP)
ARM GAS  /tmp/ccQY8YTS.s 			page 27


1102:Drivers/STM32F4xx_StdPeriph_Driver/src/stm32f4xx_flash.c **** {  
 399              		.loc 1 1102 1 is_stmt 1 view -0
 400              		.cfi_startproc
 401              		@ args = 0, pretend = 0, frame = 0
 402              		@ frame_needed = 0, uses_anonymous_args = 0
 403              		@ link register save eliminated.
1103:Drivers/STM32F4xx_StdPeriph_Driver/src/stm32f4xx_flash.c ****   uint8_t optiontmp = 0xFF;
 404              		.loc 1 1103 3 view .LVU69
1104:Drivers/STM32F4xx_StdPeriph_Driver/src/stm32f4xx_flash.c ****       
1105:Drivers/STM32F4xx_StdPeriph_Driver/src/stm32f4xx_flash.c ****   /* Check the parameters */
1106:Drivers/STM32F4xx_StdPeriph_Driver/src/stm32f4xx_flash.c ****   assert_param(IS_OB_PCROP_SELECT(OB_PcROP));
 405              		.loc 1 1106 3 view .LVU70
1107:Drivers/STM32F4xx_StdPeriph_Driver/src/stm32f4xx_flash.c ****   
1108:Drivers/STM32F4xx_StdPeriph_Driver/src/stm32f4xx_flash.c ****   /* Mask SPRMOD bit */
1109:Drivers/STM32F4xx_StdPeriph_Driver/src/stm32f4xx_flash.c ****   optiontmp =  (uint8_t)((*(__IO uint8_t *)OPTCR_BYTE3_ADDRESS) & (uint8_t)0x7F); 
 406              		.loc 1 1109 3 view .LVU71
 407              		.loc 1 1109 65 is_stmt 0 view .LVU72
 408 0000 034A     		ldr	r2, .L41
 409 0002 D37D     		ldrb	r3, [r2, #23]	@ zero_extendqisi2
 410              		.loc 1 1109 13 view .LVU73
 411 0004 03F07F03 		and	r3, r3, #127
 412              	.LVL6:
1110:Drivers/STM32F4xx_StdPeriph_Driver/src/stm32f4xx_flash.c ****   /* Update Option Byte */
1111:Drivers/STM32F4xx_StdPeriph_Driver/src/stm32f4xx_flash.c ****   *(__IO uint8_t *)OPTCR_BYTE3_ADDRESS = (uint8_t)(OB_PcROP | optiontmp); 
 413              		.loc 1 1111 3 is_stmt 1 view .LVU74
 414              		.loc 1 1111 42 is_stmt 0 view .LVU75
 415 0008 0343     		orrs	r3, r3, r0
 416              	.LVL7:
 417              		.loc 1 1111 40 view .LVU76
 418 000a D375     		strb	r3, [r2, #23]
1112:Drivers/STM32F4xx_StdPeriph_Driver/src/stm32f4xx_flash.c ****     
1113:Drivers/STM32F4xx_StdPeriph_Driver/src/stm32f4xx_flash.c **** }
 419              		.loc 1 1113 1 view .LVU77
 420 000c 7047     		bx	lr
 421              	.L42:
 422 000e 00BF     		.align	2
 423              	.L41:
 424 0010 003C0240 		.word	1073888256
 425              		.cfi_endproc
 426              	.LFE143:
 428              		.section	.text.FLASH_OB_BootConfig,"ax",%progbits
 429              		.align	1
 430              		.global	FLASH_OB_BootConfig
 431              		.syntax unified
 432              		.thumb
 433              		.thumb_func
 434              		.fpu fpv4-sp-d16
 436              	FLASH_OB_BootConfig:
 437              	.LVL8:
 438              	.LFB148:
1114:Drivers/STM32F4xx_StdPeriph_Driver/src/stm32f4xx_flash.c **** 
1115:Drivers/STM32F4xx_StdPeriph_Driver/src/stm32f4xx_flash.c **** /**
1116:Drivers/STM32F4xx_StdPeriph_Driver/src/stm32f4xx_flash.c ****   * @brief  Enables or disables the read/write protection (PCROP) of the desired 
1117:Drivers/STM32F4xx_StdPeriph_Driver/src/stm32f4xx_flash.c ****   *         sectors, for the first 1 MB of the Flash.
1118:Drivers/STM32F4xx_StdPeriph_Driver/src/stm32f4xx_flash.c ****   *           
1119:Drivers/STM32F4xx_StdPeriph_Driver/src/stm32f4xx_flash.c ****   * @note   This function can be used only for STM32F42xxx/43xxx and STM32F401xx/411xE devices. 
1120:Drivers/STM32F4xx_StdPeriph_Driver/src/stm32f4xx_flash.c ****   *   
ARM GAS  /tmp/ccQY8YTS.s 			page 28


1121:Drivers/STM32F4xx_StdPeriph_Driver/src/stm32f4xx_flash.c ****   * @param  OB_PCROP: specifies the sector(s) to be read/write protected or unprotected.
1122:Drivers/STM32F4xx_StdPeriph_Driver/src/stm32f4xx_flash.c ****   *          This parameter can be one of the following values:
1123:Drivers/STM32F4xx_StdPeriph_Driver/src/stm32f4xx_flash.c ****   *            @arg OB_PCROP: A value between OB_PCROP_Sector0 and OB_PCROP_Sector11 for 
1124:Drivers/STM32F4xx_StdPeriph_Driver/src/stm32f4xx_flash.c ****   *                           STM32F42xxx/43xxx devices and between OB_PCROP_Sector0 and 
1125:Drivers/STM32F4xx_StdPeriph_Driver/src/stm32f4xx_flash.c ****   *                           OB_PCROP_Sector5 for STM32F401xx/411xE devices.
1126:Drivers/STM32F4xx_StdPeriph_Driver/src/stm32f4xx_flash.c ****   *            @arg OB_PCROP_Sector_All
1127:Drivers/STM32F4xx_StdPeriph_Driver/src/stm32f4xx_flash.c ****   * @param  Newstate: new state of the Write Protection.
1128:Drivers/STM32F4xx_StdPeriph_Driver/src/stm32f4xx_flash.c ****   *          This parameter can be: ENABLE or DISABLE.
1129:Drivers/STM32F4xx_StdPeriph_Driver/src/stm32f4xx_flash.c ****   * @retval None  
1130:Drivers/STM32F4xx_StdPeriph_Driver/src/stm32f4xx_flash.c ****   */
1131:Drivers/STM32F4xx_StdPeriph_Driver/src/stm32f4xx_flash.c **** void FLASH_OB_PCROPConfig(uint32_t OB_PCROP, FunctionalState NewState)
1132:Drivers/STM32F4xx_StdPeriph_Driver/src/stm32f4xx_flash.c **** { 
1133:Drivers/STM32F4xx_StdPeriph_Driver/src/stm32f4xx_flash.c ****   FLASH_Status status = FLASH_COMPLETE;
1134:Drivers/STM32F4xx_StdPeriph_Driver/src/stm32f4xx_flash.c ****   
1135:Drivers/STM32F4xx_StdPeriph_Driver/src/stm32f4xx_flash.c ****   /* Check the parameters */
1136:Drivers/STM32F4xx_StdPeriph_Driver/src/stm32f4xx_flash.c ****   assert_param(IS_OB_PCROP(OB_PCROP));
1137:Drivers/STM32F4xx_StdPeriph_Driver/src/stm32f4xx_flash.c ****   assert_param(IS_FUNCTIONAL_STATE(NewState));
1138:Drivers/STM32F4xx_StdPeriph_Driver/src/stm32f4xx_flash.c ****     
1139:Drivers/STM32F4xx_StdPeriph_Driver/src/stm32f4xx_flash.c ****   status = FLASH_WaitForLastOperation();
1140:Drivers/STM32F4xx_StdPeriph_Driver/src/stm32f4xx_flash.c **** 
1141:Drivers/STM32F4xx_StdPeriph_Driver/src/stm32f4xx_flash.c ****   if(status == FLASH_COMPLETE)
1142:Drivers/STM32F4xx_StdPeriph_Driver/src/stm32f4xx_flash.c ****   { 
1143:Drivers/STM32F4xx_StdPeriph_Driver/src/stm32f4xx_flash.c ****     if(NewState != DISABLE)
1144:Drivers/STM32F4xx_StdPeriph_Driver/src/stm32f4xx_flash.c ****     {
1145:Drivers/STM32F4xx_StdPeriph_Driver/src/stm32f4xx_flash.c ****       *(__IO uint16_t*)OPTCR_BYTE2_ADDRESS |= (uint16_t)OB_PCROP;    
1146:Drivers/STM32F4xx_StdPeriph_Driver/src/stm32f4xx_flash.c ****     }
1147:Drivers/STM32F4xx_StdPeriph_Driver/src/stm32f4xx_flash.c ****     else
1148:Drivers/STM32F4xx_StdPeriph_Driver/src/stm32f4xx_flash.c ****     {
1149:Drivers/STM32F4xx_StdPeriph_Driver/src/stm32f4xx_flash.c ****       *(__IO uint16_t*)OPTCR_BYTE2_ADDRESS &= (~OB_PCROP);
1150:Drivers/STM32F4xx_StdPeriph_Driver/src/stm32f4xx_flash.c ****     }
1151:Drivers/STM32F4xx_StdPeriph_Driver/src/stm32f4xx_flash.c ****   }
1152:Drivers/STM32F4xx_StdPeriph_Driver/src/stm32f4xx_flash.c **** }
1153:Drivers/STM32F4xx_StdPeriph_Driver/src/stm32f4xx_flash.c **** 
1154:Drivers/STM32F4xx_StdPeriph_Driver/src/stm32f4xx_flash.c **** /**
1155:Drivers/STM32F4xx_StdPeriph_Driver/src/stm32f4xx_flash.c ****    * @brief Enables or disables the read/write protection (PCROP) of the desired 
1156:Drivers/STM32F4xx_StdPeriph_Driver/src/stm32f4xx_flash.c ****   *         sectors
1157:Drivers/STM32F4xx_StdPeriph_Driver/src/stm32f4xx_flash.c ****   *           
1158:Drivers/STM32F4xx_StdPeriph_Driver/src/stm32f4xx_flash.c ****   * @note   This function can be used only for STM32F42xxx/43xxx devices.
1159:Drivers/STM32F4xx_StdPeriph_Driver/src/stm32f4xx_flash.c ****   *   
1160:Drivers/STM32F4xx_StdPeriph_Driver/src/stm32f4xx_flash.c ****   * @param  OB_PCROP: specifies the sector(s) to be read/write protected or unprotected.
1161:Drivers/STM32F4xx_StdPeriph_Driver/src/stm32f4xx_flash.c ****   *          This parameter can be one of the following values:
1162:Drivers/STM32F4xx_StdPeriph_Driver/src/stm32f4xx_flash.c ****   *            @arg OB_PCROP: A value between OB_PCROP_Sector12 and OB_PCROP_Sector23 
1163:Drivers/STM32F4xx_StdPeriph_Driver/src/stm32f4xx_flash.c ****   *            @arg OB_PCROP_Sector_All
1164:Drivers/STM32F4xx_StdPeriph_Driver/src/stm32f4xx_flash.c ****   * @param  Newstate: new state of the Write Protection.
1165:Drivers/STM32F4xx_StdPeriph_Driver/src/stm32f4xx_flash.c ****   *          This parameter can be: ENABLE or DISABLE.
1166:Drivers/STM32F4xx_StdPeriph_Driver/src/stm32f4xx_flash.c ****   * @retval None  
1167:Drivers/STM32F4xx_StdPeriph_Driver/src/stm32f4xx_flash.c ****   */
1168:Drivers/STM32F4xx_StdPeriph_Driver/src/stm32f4xx_flash.c **** void FLASH_OB_PCROP1Config(uint32_t OB_PCROP, FunctionalState NewState)
1169:Drivers/STM32F4xx_StdPeriph_Driver/src/stm32f4xx_flash.c **** { 
1170:Drivers/STM32F4xx_StdPeriph_Driver/src/stm32f4xx_flash.c ****   FLASH_Status status = FLASH_COMPLETE;
1171:Drivers/STM32F4xx_StdPeriph_Driver/src/stm32f4xx_flash.c ****   
1172:Drivers/STM32F4xx_StdPeriph_Driver/src/stm32f4xx_flash.c ****   /* Check the parameters */
1173:Drivers/STM32F4xx_StdPeriph_Driver/src/stm32f4xx_flash.c ****   assert_param(IS_OB_PCROP(OB_PCROP));
1174:Drivers/STM32F4xx_StdPeriph_Driver/src/stm32f4xx_flash.c ****   assert_param(IS_FUNCTIONAL_STATE(NewState));
1175:Drivers/STM32F4xx_StdPeriph_Driver/src/stm32f4xx_flash.c ****     
1176:Drivers/STM32F4xx_StdPeriph_Driver/src/stm32f4xx_flash.c ****   status = FLASH_WaitForLastOperation();
1177:Drivers/STM32F4xx_StdPeriph_Driver/src/stm32f4xx_flash.c **** 
ARM GAS  /tmp/ccQY8YTS.s 			page 29


1178:Drivers/STM32F4xx_StdPeriph_Driver/src/stm32f4xx_flash.c ****   if(status == FLASH_COMPLETE)
1179:Drivers/STM32F4xx_StdPeriph_Driver/src/stm32f4xx_flash.c ****   { 
1180:Drivers/STM32F4xx_StdPeriph_Driver/src/stm32f4xx_flash.c ****     if(NewState != DISABLE)
1181:Drivers/STM32F4xx_StdPeriph_Driver/src/stm32f4xx_flash.c ****     {
1182:Drivers/STM32F4xx_StdPeriph_Driver/src/stm32f4xx_flash.c ****       *(__IO uint16_t*)OPTCR1_BYTE2_ADDRESS |= (uint16_t)OB_PCROP;
1183:Drivers/STM32F4xx_StdPeriph_Driver/src/stm32f4xx_flash.c ****     }
1184:Drivers/STM32F4xx_StdPeriph_Driver/src/stm32f4xx_flash.c ****     else
1185:Drivers/STM32F4xx_StdPeriph_Driver/src/stm32f4xx_flash.c ****     {
1186:Drivers/STM32F4xx_StdPeriph_Driver/src/stm32f4xx_flash.c ****       *(__IO uint16_t*)OPTCR1_BYTE2_ADDRESS &= (~OB_PCROP);
1187:Drivers/STM32F4xx_StdPeriph_Driver/src/stm32f4xx_flash.c ****     }
1188:Drivers/STM32F4xx_StdPeriph_Driver/src/stm32f4xx_flash.c ****   }
1189:Drivers/STM32F4xx_StdPeriph_Driver/src/stm32f4xx_flash.c **** }
1190:Drivers/STM32F4xx_StdPeriph_Driver/src/stm32f4xx_flash.c **** 
1191:Drivers/STM32F4xx_StdPeriph_Driver/src/stm32f4xx_flash.c **** 
1192:Drivers/STM32F4xx_StdPeriph_Driver/src/stm32f4xx_flash.c **** /**
1193:Drivers/STM32F4xx_StdPeriph_Driver/src/stm32f4xx_flash.c ****   * @brief  Sets the read protection level.
1194:Drivers/STM32F4xx_StdPeriph_Driver/src/stm32f4xx_flash.c ****   * @param  OB_RDP: specifies the read protection level.
1195:Drivers/STM32F4xx_StdPeriph_Driver/src/stm32f4xx_flash.c ****   *          This parameter can be one of the following values:
1196:Drivers/STM32F4xx_StdPeriph_Driver/src/stm32f4xx_flash.c ****   *            @arg OB_RDP_Level_0: No protection
1197:Drivers/STM32F4xx_StdPeriph_Driver/src/stm32f4xx_flash.c ****   *            @arg OB_RDP_Level_1: Read protection of the memory
1198:Drivers/STM32F4xx_StdPeriph_Driver/src/stm32f4xx_flash.c ****   *            @arg OB_RDP_Level_2: Full chip protection
1199:Drivers/STM32F4xx_StdPeriph_Driver/src/stm32f4xx_flash.c ****   *   
1200:Drivers/STM32F4xx_StdPeriph_Driver/src/stm32f4xx_flash.c ****   * /!\ Warning /!\ When enabling OB_RDP level 2 it's no more possible to go back to level 1 or 0
1201:Drivers/STM32F4xx_StdPeriph_Driver/src/stm32f4xx_flash.c ****   *    
1202:Drivers/STM32F4xx_StdPeriph_Driver/src/stm32f4xx_flash.c ****   * @retval None
1203:Drivers/STM32F4xx_StdPeriph_Driver/src/stm32f4xx_flash.c ****   */
1204:Drivers/STM32F4xx_StdPeriph_Driver/src/stm32f4xx_flash.c **** void FLASH_OB_RDPConfig(uint8_t OB_RDP)
1205:Drivers/STM32F4xx_StdPeriph_Driver/src/stm32f4xx_flash.c **** {
1206:Drivers/STM32F4xx_StdPeriph_Driver/src/stm32f4xx_flash.c ****   FLASH_Status status = FLASH_COMPLETE;
1207:Drivers/STM32F4xx_StdPeriph_Driver/src/stm32f4xx_flash.c **** 
1208:Drivers/STM32F4xx_StdPeriph_Driver/src/stm32f4xx_flash.c ****   /* Check the parameters */
1209:Drivers/STM32F4xx_StdPeriph_Driver/src/stm32f4xx_flash.c ****   assert_param(IS_OB_RDP(OB_RDP));
1210:Drivers/STM32F4xx_StdPeriph_Driver/src/stm32f4xx_flash.c **** 
1211:Drivers/STM32F4xx_StdPeriph_Driver/src/stm32f4xx_flash.c ****   status = FLASH_WaitForLastOperation();
1212:Drivers/STM32F4xx_StdPeriph_Driver/src/stm32f4xx_flash.c **** 
1213:Drivers/STM32F4xx_StdPeriph_Driver/src/stm32f4xx_flash.c ****   if(status == FLASH_COMPLETE)
1214:Drivers/STM32F4xx_StdPeriph_Driver/src/stm32f4xx_flash.c ****   {
1215:Drivers/STM32F4xx_StdPeriph_Driver/src/stm32f4xx_flash.c ****     *(__IO uint8_t*)OPTCR_BYTE1_ADDRESS = OB_RDP;
1216:Drivers/STM32F4xx_StdPeriph_Driver/src/stm32f4xx_flash.c **** 
1217:Drivers/STM32F4xx_StdPeriph_Driver/src/stm32f4xx_flash.c ****   }
1218:Drivers/STM32F4xx_StdPeriph_Driver/src/stm32f4xx_flash.c **** }
1219:Drivers/STM32F4xx_StdPeriph_Driver/src/stm32f4xx_flash.c **** 
1220:Drivers/STM32F4xx_StdPeriph_Driver/src/stm32f4xx_flash.c **** /**
1221:Drivers/STM32F4xx_StdPeriph_Driver/src/stm32f4xx_flash.c ****   * @brief  Programs the FLASH User Option Byte: IWDG_SW / RST_STOP / RST_STDBY.    
1222:Drivers/STM32F4xx_StdPeriph_Driver/src/stm32f4xx_flash.c ****   * @param  OB_IWDG: Selects the IWDG mode
1223:Drivers/STM32F4xx_StdPeriph_Driver/src/stm32f4xx_flash.c ****   *          This parameter can be one of the following values:
1224:Drivers/STM32F4xx_StdPeriph_Driver/src/stm32f4xx_flash.c ****   *            @arg OB_IWDG_SW: Software IWDG selected
1225:Drivers/STM32F4xx_StdPeriph_Driver/src/stm32f4xx_flash.c ****   *            @arg OB_IWDG_HW: Hardware IWDG selected
1226:Drivers/STM32F4xx_StdPeriph_Driver/src/stm32f4xx_flash.c ****   * @param  OB_STOP: Reset event when entering STOP mode.
1227:Drivers/STM32F4xx_StdPeriph_Driver/src/stm32f4xx_flash.c ****   *          This parameter  can be one of the following values:
1228:Drivers/STM32F4xx_StdPeriph_Driver/src/stm32f4xx_flash.c ****   *            @arg OB_STOP_NoRST: No reset generated when entering in STOP
1229:Drivers/STM32F4xx_StdPeriph_Driver/src/stm32f4xx_flash.c ****   *            @arg OB_STOP_RST: Reset generated when entering in STOP
1230:Drivers/STM32F4xx_StdPeriph_Driver/src/stm32f4xx_flash.c ****   * @param  OB_STDBY: Reset event when entering Standby mode.
1231:Drivers/STM32F4xx_StdPeriph_Driver/src/stm32f4xx_flash.c ****   *          This parameter  can be one of the following values:
1232:Drivers/STM32F4xx_StdPeriph_Driver/src/stm32f4xx_flash.c ****   *            @arg OB_STDBY_NoRST: No reset generated when entering in STANDBY
1233:Drivers/STM32F4xx_StdPeriph_Driver/src/stm32f4xx_flash.c ****   *            @arg OB_STDBY_RST: Reset generated when entering in STANDBY
1234:Drivers/STM32F4xx_StdPeriph_Driver/src/stm32f4xx_flash.c ****   * @retval None
ARM GAS  /tmp/ccQY8YTS.s 			page 30


1235:Drivers/STM32F4xx_StdPeriph_Driver/src/stm32f4xx_flash.c ****   */
1236:Drivers/STM32F4xx_StdPeriph_Driver/src/stm32f4xx_flash.c **** void FLASH_OB_UserConfig(uint8_t OB_IWDG, uint8_t OB_STOP, uint8_t OB_STDBY)
1237:Drivers/STM32F4xx_StdPeriph_Driver/src/stm32f4xx_flash.c **** {
1238:Drivers/STM32F4xx_StdPeriph_Driver/src/stm32f4xx_flash.c ****   uint8_t optiontmp = 0xFF;
1239:Drivers/STM32F4xx_StdPeriph_Driver/src/stm32f4xx_flash.c ****   FLASH_Status status = FLASH_COMPLETE; 
1240:Drivers/STM32F4xx_StdPeriph_Driver/src/stm32f4xx_flash.c **** 
1241:Drivers/STM32F4xx_StdPeriph_Driver/src/stm32f4xx_flash.c ****   /* Check the parameters */
1242:Drivers/STM32F4xx_StdPeriph_Driver/src/stm32f4xx_flash.c ****   assert_param(IS_OB_IWDG_SOURCE(OB_IWDG));
1243:Drivers/STM32F4xx_StdPeriph_Driver/src/stm32f4xx_flash.c ****   assert_param(IS_OB_STOP_SOURCE(OB_STOP));
1244:Drivers/STM32F4xx_StdPeriph_Driver/src/stm32f4xx_flash.c ****   assert_param(IS_OB_STDBY_SOURCE(OB_STDBY));
1245:Drivers/STM32F4xx_StdPeriph_Driver/src/stm32f4xx_flash.c **** 
1246:Drivers/STM32F4xx_StdPeriph_Driver/src/stm32f4xx_flash.c ****   /* Wait for last operation to be completed */
1247:Drivers/STM32F4xx_StdPeriph_Driver/src/stm32f4xx_flash.c ****   status = FLASH_WaitForLastOperation();
1248:Drivers/STM32F4xx_StdPeriph_Driver/src/stm32f4xx_flash.c ****   
1249:Drivers/STM32F4xx_StdPeriph_Driver/src/stm32f4xx_flash.c ****   if(status == FLASH_COMPLETE)
1250:Drivers/STM32F4xx_StdPeriph_Driver/src/stm32f4xx_flash.c ****   { 
1251:Drivers/STM32F4xx_StdPeriph_Driver/src/stm32f4xx_flash.c **** #if defined(STM32F427_437xx) || defined(STM32F429_439xx) || defined(STM32F469_479xx)
1252:Drivers/STM32F4xx_StdPeriph_Driver/src/stm32f4xx_flash.c ****     /* Mask OPTLOCK, OPTSTRT, BOR_LEV and BFB2 bits */
1253:Drivers/STM32F4xx_StdPeriph_Driver/src/stm32f4xx_flash.c ****     optiontmp =  (uint8_t)((*(__IO uint8_t *)OPTCR_BYTE0_ADDRESS) & (uint8_t)0x1F);
1254:Drivers/STM32F4xx_StdPeriph_Driver/src/stm32f4xx_flash.c **** #endif /* STM32F427_437xx ||  STM32F429_439xx ||  STM32F469_479xx */
1255:Drivers/STM32F4xx_StdPeriph_Driver/src/stm32f4xx_flash.c **** 
1256:Drivers/STM32F4xx_StdPeriph_Driver/src/stm32f4xx_flash.c **** #if defined(STM32F40_41xxx) || defined(STM32F401xx) || defined(STM32F410xx) || defined(STM32F411xE)
1257:Drivers/STM32F4xx_StdPeriph_Driver/src/stm32f4xx_flash.c ****     /* Mask OPTLOCK, OPTSTRT and BOR_LEV bits */
1258:Drivers/STM32F4xx_StdPeriph_Driver/src/stm32f4xx_flash.c ****     optiontmp =  (uint8_t)((*(__IO uint8_t *)OPTCR_BYTE0_ADDRESS) & (uint8_t)0x0F); 
1259:Drivers/STM32F4xx_StdPeriph_Driver/src/stm32f4xx_flash.c **** #endif /* STM32F40_41xxx || STM32F401xx || STM32F410xx || STM32F411xE || STM32F446xx */ 
1260:Drivers/STM32F4xx_StdPeriph_Driver/src/stm32f4xx_flash.c **** 
1261:Drivers/STM32F4xx_StdPeriph_Driver/src/stm32f4xx_flash.c ****     /* Update User Option Byte */
1262:Drivers/STM32F4xx_StdPeriph_Driver/src/stm32f4xx_flash.c ****     *(__IO uint8_t *)OPTCR_BYTE0_ADDRESS = OB_IWDG | (uint8_t)(OB_STDBY | (uint8_t)(OB_STOP | ((uin
1263:Drivers/STM32F4xx_StdPeriph_Driver/src/stm32f4xx_flash.c ****   }  
1264:Drivers/STM32F4xx_StdPeriph_Driver/src/stm32f4xx_flash.c **** }
1265:Drivers/STM32F4xx_StdPeriph_Driver/src/stm32f4xx_flash.c **** 
1266:Drivers/STM32F4xx_StdPeriph_Driver/src/stm32f4xx_flash.c **** /**
1267:Drivers/STM32F4xx_StdPeriph_Driver/src/stm32f4xx_flash.c ****   * @brief  Configure the Dual Bank Boot.
1268:Drivers/STM32F4xx_StdPeriph_Driver/src/stm32f4xx_flash.c ****   *   
1269:Drivers/STM32F4xx_StdPeriph_Driver/src/stm32f4xx_flash.c ****   * @note   This function can be used only for STM32F42xxx/43xxx devices.
1270:Drivers/STM32F4xx_StdPeriph_Driver/src/stm32f4xx_flash.c ****   *      
1271:Drivers/STM32F4xx_StdPeriph_Driver/src/stm32f4xx_flash.c ****   * @param  OB_BOOT: specifies the Dual Bank Boot Option byte.
1272:Drivers/STM32F4xx_StdPeriph_Driver/src/stm32f4xx_flash.c ****   *          This parameter can be one of the following values:
1273:Drivers/STM32F4xx_StdPeriph_Driver/src/stm32f4xx_flash.c ****   *            @arg OB_Dual_BootEnabled: Dual Bank Boot Enable
1274:Drivers/STM32F4xx_StdPeriph_Driver/src/stm32f4xx_flash.c ****   *            @arg OB_Dual_BootDisabled: Dual Bank Boot Disabled
1275:Drivers/STM32F4xx_StdPeriph_Driver/src/stm32f4xx_flash.c ****   * @retval None
1276:Drivers/STM32F4xx_StdPeriph_Driver/src/stm32f4xx_flash.c ****   */
1277:Drivers/STM32F4xx_StdPeriph_Driver/src/stm32f4xx_flash.c **** void FLASH_OB_BootConfig(uint8_t OB_BOOT)
1278:Drivers/STM32F4xx_StdPeriph_Driver/src/stm32f4xx_flash.c **** {
 439              		.loc 1 1278 1 is_stmt 1 view -0
 440              		.cfi_startproc
 441              		@ args = 0, pretend = 0, frame = 0
 442              		@ frame_needed = 0, uses_anonymous_args = 0
 443              		@ link register save eliminated.
1279:Drivers/STM32F4xx_StdPeriph_Driver/src/stm32f4xx_flash.c ****   /* Check the parameters */
1280:Drivers/STM32F4xx_StdPeriph_Driver/src/stm32f4xx_flash.c ****   assert_param(IS_OB_BOOT(OB_BOOT));
 444              		.loc 1 1280 3 view .LVU79
1281:Drivers/STM32F4xx_StdPeriph_Driver/src/stm32f4xx_flash.c **** 
1282:Drivers/STM32F4xx_StdPeriph_Driver/src/stm32f4xx_flash.c ****   /* Set Dual Bank Boot */
1283:Drivers/STM32F4xx_StdPeriph_Driver/src/stm32f4xx_flash.c ****   *(__IO uint8_t *)OPTCR_BYTE0_ADDRESS &= (~FLASH_OPTCR_BFB2);
 445              		.loc 1 1283 3 view .LVU80
 446              		.loc 1 1283 40 is_stmt 0 view .LVU81
ARM GAS  /tmp/ccQY8YTS.s 			page 31


 447 0000 044B     		ldr	r3, .L44
 448 0002 197D     		ldrb	r1, [r3, #20]	@ zero_extendqisi2
 449 0004 01F0EF01 		and	r1, r1, #239
 450 0008 1975     		strb	r1, [r3, #20]
1284:Drivers/STM32F4xx_StdPeriph_Driver/src/stm32f4xx_flash.c ****   *(__IO uint8_t *)OPTCR_BYTE0_ADDRESS |= OB_BOOT;
 451              		.loc 1 1284 3 is_stmt 1 view .LVU82
 452              		.loc 1 1284 40 is_stmt 0 view .LVU83
 453 000a 1A7D     		ldrb	r2, [r3, #20]	@ zero_extendqisi2
 454 000c 0243     		orrs	r2, r2, r0
 455 000e 1A75     		strb	r2, [r3, #20]
1285:Drivers/STM32F4xx_StdPeriph_Driver/src/stm32f4xx_flash.c **** 
1286:Drivers/STM32F4xx_StdPeriph_Driver/src/stm32f4xx_flash.c **** }
 456              		.loc 1 1286 1 view .LVU84
 457 0010 7047     		bx	lr
 458              	.L45:
 459 0012 00BF     		.align	2
 460              	.L44:
 461 0014 003C0240 		.word	1073888256
 462              		.cfi_endproc
 463              	.LFE148:
 465              		.section	.text.FLASH_OB_BORConfig,"ax",%progbits
 466              		.align	1
 467              		.global	FLASH_OB_BORConfig
 468              		.syntax unified
 469              		.thumb
 470              		.thumb_func
 471              		.fpu fpv4-sp-d16
 473              	FLASH_OB_BORConfig:
 474              	.LVL9:
 475              	.LFB149:
1287:Drivers/STM32F4xx_StdPeriph_Driver/src/stm32f4xx_flash.c **** 
1288:Drivers/STM32F4xx_StdPeriph_Driver/src/stm32f4xx_flash.c **** /**
1289:Drivers/STM32F4xx_StdPeriph_Driver/src/stm32f4xx_flash.c ****   * @brief  Sets the BOR Level. 
1290:Drivers/STM32F4xx_StdPeriph_Driver/src/stm32f4xx_flash.c ****   * @param  OB_BOR: specifies the Option Bytes BOR Reset Level.
1291:Drivers/STM32F4xx_StdPeriph_Driver/src/stm32f4xx_flash.c ****   *          This parameter can be one of the following values:
1292:Drivers/STM32F4xx_StdPeriph_Driver/src/stm32f4xx_flash.c ****   *            @arg OB_BOR_LEVEL3: Supply voltage ranges from 2.7 to 3.6 V
1293:Drivers/STM32F4xx_StdPeriph_Driver/src/stm32f4xx_flash.c ****   *            @arg OB_BOR_LEVEL2: Supply voltage ranges from 2.4 to 2.7 V
1294:Drivers/STM32F4xx_StdPeriph_Driver/src/stm32f4xx_flash.c ****   *            @arg OB_BOR_LEVEL1: Supply voltage ranges from 2.1 to 2.4 V
1295:Drivers/STM32F4xx_StdPeriph_Driver/src/stm32f4xx_flash.c ****   *            @arg OB_BOR_OFF: Supply voltage ranges from 1.62 to 2.1 V
1296:Drivers/STM32F4xx_StdPeriph_Driver/src/stm32f4xx_flash.c ****   * @retval None
1297:Drivers/STM32F4xx_StdPeriph_Driver/src/stm32f4xx_flash.c ****   */
1298:Drivers/STM32F4xx_StdPeriph_Driver/src/stm32f4xx_flash.c **** void FLASH_OB_BORConfig(uint8_t OB_BOR)
1299:Drivers/STM32F4xx_StdPeriph_Driver/src/stm32f4xx_flash.c **** {
 476              		.loc 1 1299 1 is_stmt 1 view -0
 477              		.cfi_startproc
 478              		@ args = 0, pretend = 0, frame = 0
 479              		@ frame_needed = 0, uses_anonymous_args = 0
 480              		@ link register save eliminated.
1300:Drivers/STM32F4xx_StdPeriph_Driver/src/stm32f4xx_flash.c ****   /* Check the parameters */
1301:Drivers/STM32F4xx_StdPeriph_Driver/src/stm32f4xx_flash.c ****   assert_param(IS_OB_BOR(OB_BOR));
 481              		.loc 1 1301 3 view .LVU86
1302:Drivers/STM32F4xx_StdPeriph_Driver/src/stm32f4xx_flash.c **** 
1303:Drivers/STM32F4xx_StdPeriph_Driver/src/stm32f4xx_flash.c ****   /* Set the BOR Level */
1304:Drivers/STM32F4xx_StdPeriph_Driver/src/stm32f4xx_flash.c ****   *(__IO uint8_t *)OPTCR_BYTE0_ADDRESS &= (~FLASH_OPTCR_BOR_LEV);
 482              		.loc 1 1304 3 view .LVU87
 483              		.loc 1 1304 40 is_stmt 0 view .LVU88
 484 0000 044B     		ldr	r3, .L47
ARM GAS  /tmp/ccQY8YTS.s 			page 32


 485 0002 197D     		ldrb	r1, [r3, #20]	@ zero_extendqisi2
 486 0004 01F0F301 		and	r1, r1, #243
 487 0008 1975     		strb	r1, [r3, #20]
1305:Drivers/STM32F4xx_StdPeriph_Driver/src/stm32f4xx_flash.c ****   *(__IO uint8_t *)OPTCR_BYTE0_ADDRESS |= OB_BOR;
 488              		.loc 1 1305 3 is_stmt 1 view .LVU89
 489              		.loc 1 1305 40 is_stmt 0 view .LVU90
 490 000a 1A7D     		ldrb	r2, [r3, #20]	@ zero_extendqisi2
 491 000c 0243     		orrs	r2, r2, r0
 492 000e 1A75     		strb	r2, [r3, #20]
1306:Drivers/STM32F4xx_StdPeriph_Driver/src/stm32f4xx_flash.c **** 
1307:Drivers/STM32F4xx_StdPeriph_Driver/src/stm32f4xx_flash.c **** }
 493              		.loc 1 1307 1 view .LVU91
 494 0010 7047     		bx	lr
 495              	.L48:
 496 0012 00BF     		.align	2
 497              	.L47:
 498 0014 003C0240 		.word	1073888256
 499              		.cfi_endproc
 500              	.LFE149:
 502              		.section	.text.FLASH_OB_GetUser,"ax",%progbits
 503              		.align	1
 504              		.global	FLASH_OB_GetUser
 505              		.syntax unified
 506              		.thumb
 507              		.thumb_func
 508              		.fpu fpv4-sp-d16
 510              	FLASH_OB_GetUser:
 511              	.LFB151:
1308:Drivers/STM32F4xx_StdPeriph_Driver/src/stm32f4xx_flash.c **** 
1309:Drivers/STM32F4xx_StdPeriph_Driver/src/stm32f4xx_flash.c **** /**
1310:Drivers/STM32F4xx_StdPeriph_Driver/src/stm32f4xx_flash.c ****   * @brief  Launch the option byte loading.
1311:Drivers/STM32F4xx_StdPeriph_Driver/src/stm32f4xx_flash.c ****   * @param  None
1312:Drivers/STM32F4xx_StdPeriph_Driver/src/stm32f4xx_flash.c ****   * @retval FLASH Status: The returned value can be: FLASH_BUSY, FLASH_ERROR_PROGRAM,
1313:Drivers/STM32F4xx_StdPeriph_Driver/src/stm32f4xx_flash.c ****   *                       FLASH_ERROR_WRP, FLASH_ERROR_OPERATION or FLASH_COMPLETE.
1314:Drivers/STM32F4xx_StdPeriph_Driver/src/stm32f4xx_flash.c ****   */
1315:Drivers/STM32F4xx_StdPeriph_Driver/src/stm32f4xx_flash.c **** FLASH_Status FLASH_OB_Launch(void)
1316:Drivers/STM32F4xx_StdPeriph_Driver/src/stm32f4xx_flash.c **** {
1317:Drivers/STM32F4xx_StdPeriph_Driver/src/stm32f4xx_flash.c ****   FLASH_Status status = FLASH_COMPLETE;
1318:Drivers/STM32F4xx_StdPeriph_Driver/src/stm32f4xx_flash.c **** 
1319:Drivers/STM32F4xx_StdPeriph_Driver/src/stm32f4xx_flash.c ****   /* Set the OPTSTRT bit in OPTCR register */
1320:Drivers/STM32F4xx_StdPeriph_Driver/src/stm32f4xx_flash.c ****   *(__IO uint8_t *)OPTCR_BYTE0_ADDRESS |= FLASH_OPTCR_OPTSTRT;
1321:Drivers/STM32F4xx_StdPeriph_Driver/src/stm32f4xx_flash.c **** 
1322:Drivers/STM32F4xx_StdPeriph_Driver/src/stm32f4xx_flash.c ****   /* Wait for last operation to be completed */
1323:Drivers/STM32F4xx_StdPeriph_Driver/src/stm32f4xx_flash.c ****   status = FLASH_WaitForLastOperation();
1324:Drivers/STM32F4xx_StdPeriph_Driver/src/stm32f4xx_flash.c **** 
1325:Drivers/STM32F4xx_StdPeriph_Driver/src/stm32f4xx_flash.c ****   return status;
1326:Drivers/STM32F4xx_StdPeriph_Driver/src/stm32f4xx_flash.c **** }
1327:Drivers/STM32F4xx_StdPeriph_Driver/src/stm32f4xx_flash.c **** 
1328:Drivers/STM32F4xx_StdPeriph_Driver/src/stm32f4xx_flash.c **** /**
1329:Drivers/STM32F4xx_StdPeriph_Driver/src/stm32f4xx_flash.c ****   * @brief  Returns the FLASH User Option Bytes values.
1330:Drivers/STM32F4xx_StdPeriph_Driver/src/stm32f4xx_flash.c ****   * @param  None
1331:Drivers/STM32F4xx_StdPeriph_Driver/src/stm32f4xx_flash.c ****   * @retval The FLASH User Option Bytes values: IWDG_SW(Bit0), RST_STOP(Bit1)
1332:Drivers/STM32F4xx_StdPeriph_Driver/src/stm32f4xx_flash.c ****   *         and RST_STDBY(Bit2).
1333:Drivers/STM32F4xx_StdPeriph_Driver/src/stm32f4xx_flash.c ****   */
1334:Drivers/STM32F4xx_StdPeriph_Driver/src/stm32f4xx_flash.c **** uint8_t FLASH_OB_GetUser(void)
1335:Drivers/STM32F4xx_StdPeriph_Driver/src/stm32f4xx_flash.c **** {
 512              		.loc 1 1335 1 is_stmt 1 view -0
ARM GAS  /tmp/ccQY8YTS.s 			page 33


 513              		.cfi_startproc
 514              		@ args = 0, pretend = 0, frame = 0
 515              		@ frame_needed = 0, uses_anonymous_args = 0
 516              		@ link register save eliminated.
1336:Drivers/STM32F4xx_StdPeriph_Driver/src/stm32f4xx_flash.c ****   /* Return the User Option Byte */
1337:Drivers/STM32F4xx_StdPeriph_Driver/src/stm32f4xx_flash.c ****   return (uint8_t)(FLASH->OPTCR >> 5);
 517              		.loc 1 1337 3 view .LVU93
 518              		.loc 1 1337 25 is_stmt 0 view .LVU94
 519 0000 024B     		ldr	r3, .L50
 520 0002 5869     		ldr	r0, [r3, #20]
1338:Drivers/STM32F4xx_StdPeriph_Driver/src/stm32f4xx_flash.c **** }
 521              		.loc 1 1338 1 view .LVU95
 522 0004 C0F34710 		ubfx	r0, r0, #5, #8
 523 0008 7047     		bx	lr
 524              	.L51:
 525 000a 00BF     		.align	2
 526              	.L50:
 527 000c 003C0240 		.word	1073888256
 528              		.cfi_endproc
 529              	.LFE151:
 531              		.section	.text.FLASH_OB_GetWRP,"ax",%progbits
 532              		.align	1
 533              		.global	FLASH_OB_GetWRP
 534              		.syntax unified
 535              		.thumb
 536              		.thumb_func
 537              		.fpu fpv4-sp-d16
 539              	FLASH_OB_GetWRP:
 540              	.LFB152:
1339:Drivers/STM32F4xx_StdPeriph_Driver/src/stm32f4xx_flash.c **** 
1340:Drivers/STM32F4xx_StdPeriph_Driver/src/stm32f4xx_flash.c **** /**
1341:Drivers/STM32F4xx_StdPeriph_Driver/src/stm32f4xx_flash.c ****   * @brief  Returns the FLASH Write Protection Option Bytes value.
1342:Drivers/STM32F4xx_StdPeriph_Driver/src/stm32f4xx_flash.c ****   * @param  None
1343:Drivers/STM32F4xx_StdPeriph_Driver/src/stm32f4xx_flash.c ****   * @retval The FLASH Write Protection  Option Bytes value
1344:Drivers/STM32F4xx_StdPeriph_Driver/src/stm32f4xx_flash.c ****   */
1345:Drivers/STM32F4xx_StdPeriph_Driver/src/stm32f4xx_flash.c **** uint16_t FLASH_OB_GetWRP(void)
1346:Drivers/STM32F4xx_StdPeriph_Driver/src/stm32f4xx_flash.c **** {
 541              		.loc 1 1346 1 is_stmt 1 view -0
 542              		.cfi_startproc
 543              		@ args = 0, pretend = 0, frame = 0
 544              		@ frame_needed = 0, uses_anonymous_args = 0
 545              		@ link register save eliminated.
1347:Drivers/STM32F4xx_StdPeriph_Driver/src/stm32f4xx_flash.c ****   /* Return the FLASH write protection Register value */
1348:Drivers/STM32F4xx_StdPeriph_Driver/src/stm32f4xx_flash.c ****   return (*(__IO uint16_t *)(OPTCR_BYTE2_ADDRESS));
 546              		.loc 1 1348 3 view .LVU97
 547              		.loc 1 1348 11 is_stmt 0 view .LVU98
 548 0000 014B     		ldr	r3, .L53
 549 0002 D88A     		ldrh	r0, [r3, #22]
1349:Drivers/STM32F4xx_StdPeriph_Driver/src/stm32f4xx_flash.c **** }
 550              		.loc 1 1349 1 view .LVU99
 551 0004 80B2     		uxth	r0, r0
 552 0006 7047     		bx	lr
 553              	.L54:
 554              		.align	2
 555              	.L53:
 556 0008 003C0240 		.word	1073888256
 557              		.cfi_endproc
ARM GAS  /tmp/ccQY8YTS.s 			page 34


 558              	.LFE152:
 560              		.section	.text.FLASH_OB_GetWRP1,"ax",%progbits
 561              		.align	1
 562              		.global	FLASH_OB_GetWRP1
 563              		.syntax unified
 564              		.thumb
 565              		.thumb_func
 566              		.fpu fpv4-sp-d16
 568              	FLASH_OB_GetWRP1:
 569              	.LFB153:
1350:Drivers/STM32F4xx_StdPeriph_Driver/src/stm32f4xx_flash.c **** 
1351:Drivers/STM32F4xx_StdPeriph_Driver/src/stm32f4xx_flash.c **** /**
1352:Drivers/STM32F4xx_StdPeriph_Driver/src/stm32f4xx_flash.c ****   * @brief  Returns the FLASH Write Protection Option Bytes value.
1353:Drivers/STM32F4xx_StdPeriph_Driver/src/stm32f4xx_flash.c ****   *   
1354:Drivers/STM32F4xx_StdPeriph_Driver/src/stm32f4xx_flash.c ****   * @note   This function can be used only for STM32F42xxx/43xxx devices.
1355:Drivers/STM32F4xx_StdPeriph_Driver/src/stm32f4xx_flash.c ****   *   
1356:Drivers/STM32F4xx_StdPeriph_Driver/src/stm32f4xx_flash.c ****   * @param  None
1357:Drivers/STM32F4xx_StdPeriph_Driver/src/stm32f4xx_flash.c ****   * @retval The FLASH Write Protection  Option Bytes value
1358:Drivers/STM32F4xx_StdPeriph_Driver/src/stm32f4xx_flash.c ****   */
1359:Drivers/STM32F4xx_StdPeriph_Driver/src/stm32f4xx_flash.c **** uint16_t FLASH_OB_GetWRP1(void)
1360:Drivers/STM32F4xx_StdPeriph_Driver/src/stm32f4xx_flash.c **** {
 570              		.loc 1 1360 1 is_stmt 1 view -0
 571              		.cfi_startproc
 572              		@ args = 0, pretend = 0, frame = 0
 573              		@ frame_needed = 0, uses_anonymous_args = 0
 574              		@ link register save eliminated.
1361:Drivers/STM32F4xx_StdPeriph_Driver/src/stm32f4xx_flash.c ****   /* Return the FLASH write protection Register value */
1362:Drivers/STM32F4xx_StdPeriph_Driver/src/stm32f4xx_flash.c ****   return (*(__IO uint16_t *)(OPTCR1_BYTE2_ADDRESS));
 575              		.loc 1 1362 3 view .LVU101
 576              		.loc 1 1362 11 is_stmt 0 view .LVU102
 577 0000 014B     		ldr	r3, .L56
 578 0002 588B     		ldrh	r0, [r3, #26]
1363:Drivers/STM32F4xx_StdPeriph_Driver/src/stm32f4xx_flash.c **** }
 579              		.loc 1 1363 1 view .LVU103
 580 0004 80B2     		uxth	r0, r0
 581 0006 7047     		bx	lr
 582              	.L57:
 583              		.align	2
 584              	.L56:
 585 0008 003C0240 		.word	1073888256
 586              		.cfi_endproc
 587              	.LFE153:
 589              		.section	.text.FLASH_OB_GetPCROP,"ax",%progbits
 590              		.align	1
 591              		.global	FLASH_OB_GetPCROP
 592              		.syntax unified
 593              		.thumb
 594              		.thumb_func
 595              		.fpu fpv4-sp-d16
 597              	FLASH_OB_GetPCROP:
 598              	.LFB154:
1364:Drivers/STM32F4xx_StdPeriph_Driver/src/stm32f4xx_flash.c **** 
1365:Drivers/STM32F4xx_StdPeriph_Driver/src/stm32f4xx_flash.c **** /**
1366:Drivers/STM32F4xx_StdPeriph_Driver/src/stm32f4xx_flash.c ****   * @brief  Returns the FLASH PC Read/Write Protection Option Bytes value.
1367:Drivers/STM32F4xx_StdPeriph_Driver/src/stm32f4xx_flash.c ****   *   
1368:Drivers/STM32F4xx_StdPeriph_Driver/src/stm32f4xx_flash.c ****   * @note   This function can be used only for STM32F42xxx/43xxx devices and STM32F401xx/411xE devi
1369:Drivers/STM32F4xx_StdPeriph_Driver/src/stm32f4xx_flash.c ****   *   
ARM GAS  /tmp/ccQY8YTS.s 			page 35


1370:Drivers/STM32F4xx_StdPeriph_Driver/src/stm32f4xx_flash.c ****   * @param  None
1371:Drivers/STM32F4xx_StdPeriph_Driver/src/stm32f4xx_flash.c ****   * @retval The FLASH PC Read/Write Protection Option Bytes value
1372:Drivers/STM32F4xx_StdPeriph_Driver/src/stm32f4xx_flash.c ****   */
1373:Drivers/STM32F4xx_StdPeriph_Driver/src/stm32f4xx_flash.c **** uint16_t FLASH_OB_GetPCROP(void)
1374:Drivers/STM32F4xx_StdPeriph_Driver/src/stm32f4xx_flash.c **** {
 599              		.loc 1 1374 1 is_stmt 1 view -0
 600              		.cfi_startproc
 601              		@ args = 0, pretend = 0, frame = 0
 602              		@ frame_needed = 0, uses_anonymous_args = 0
 603              		@ link register save eliminated.
1375:Drivers/STM32F4xx_StdPeriph_Driver/src/stm32f4xx_flash.c ****   /* Return the FLASH PC Read/write protection Register value */
1376:Drivers/STM32F4xx_StdPeriph_Driver/src/stm32f4xx_flash.c ****   return (*(__IO uint16_t *)(OPTCR_BYTE2_ADDRESS));
 604              		.loc 1 1376 3 view .LVU105
 605              		.loc 1 1376 11 is_stmt 0 view .LVU106
 606 0000 014B     		ldr	r3, .L59
 607 0002 D88A     		ldrh	r0, [r3, #22]
1377:Drivers/STM32F4xx_StdPeriph_Driver/src/stm32f4xx_flash.c **** }
 608              		.loc 1 1377 1 view .LVU107
 609 0004 80B2     		uxth	r0, r0
 610 0006 7047     		bx	lr
 611              	.L60:
 612              		.align	2
 613              	.L59:
 614 0008 003C0240 		.word	1073888256
 615              		.cfi_endproc
 616              	.LFE154:
 618              		.section	.text.FLASH_OB_GetPCROP1,"ax",%progbits
 619              		.align	1
 620              		.global	FLASH_OB_GetPCROP1
 621              		.syntax unified
 622              		.thumb
 623              		.thumb_func
 624              		.fpu fpv4-sp-d16
 626              	FLASH_OB_GetPCROP1:
 627              	.LFB155:
1378:Drivers/STM32F4xx_StdPeriph_Driver/src/stm32f4xx_flash.c **** 
1379:Drivers/STM32F4xx_StdPeriph_Driver/src/stm32f4xx_flash.c **** /**
1380:Drivers/STM32F4xx_StdPeriph_Driver/src/stm32f4xx_flash.c ****   * @brief  Returns the FLASH PC Read/Write Protection Option Bytes value.
1381:Drivers/STM32F4xx_StdPeriph_Driver/src/stm32f4xx_flash.c ****   *   
1382:Drivers/STM32F4xx_StdPeriph_Driver/src/stm32f4xx_flash.c ****   * @note   This function can be used only for STM32F42xxx/43xxx devices. 
1383:Drivers/STM32F4xx_StdPeriph_Driver/src/stm32f4xx_flash.c ****   *     
1384:Drivers/STM32F4xx_StdPeriph_Driver/src/stm32f4xx_flash.c ****   * @param  None
1385:Drivers/STM32F4xx_StdPeriph_Driver/src/stm32f4xx_flash.c ****   * @retval The FLASH PC Read/Write Protection Option Bytes value
1386:Drivers/STM32F4xx_StdPeriph_Driver/src/stm32f4xx_flash.c ****   */
1387:Drivers/STM32F4xx_StdPeriph_Driver/src/stm32f4xx_flash.c **** uint16_t FLASH_OB_GetPCROP1(void)
1388:Drivers/STM32F4xx_StdPeriph_Driver/src/stm32f4xx_flash.c **** {
 628              		.loc 1 1388 1 is_stmt 1 view -0
 629              		.cfi_startproc
 630              		@ args = 0, pretend = 0, frame = 0
 631              		@ frame_needed = 0, uses_anonymous_args = 0
 632              		@ link register save eliminated.
1389:Drivers/STM32F4xx_StdPeriph_Driver/src/stm32f4xx_flash.c ****   /* Return the FLASH write protection Register value */
1390:Drivers/STM32F4xx_StdPeriph_Driver/src/stm32f4xx_flash.c ****   return (*(__IO uint16_t *)(OPTCR1_BYTE2_ADDRESS));
 633              		.loc 1 1390 3 view .LVU109
 634              		.loc 1 1390 11 is_stmt 0 view .LVU110
 635 0000 014B     		ldr	r3, .L62
 636 0002 588B     		ldrh	r0, [r3, #26]
ARM GAS  /tmp/ccQY8YTS.s 			page 36


1391:Drivers/STM32F4xx_StdPeriph_Driver/src/stm32f4xx_flash.c **** }
 637              		.loc 1 1391 1 view .LVU111
 638 0004 80B2     		uxth	r0, r0
 639 0006 7047     		bx	lr
 640              	.L63:
 641              		.align	2
 642              	.L62:
 643 0008 003C0240 		.word	1073888256
 644              		.cfi_endproc
 645              	.LFE155:
 647              		.section	.text.FLASH_OB_GetRDP,"ax",%progbits
 648              		.align	1
 649              		.global	FLASH_OB_GetRDP
 650              		.syntax unified
 651              		.thumb
 652              		.thumb_func
 653              		.fpu fpv4-sp-d16
 655              	FLASH_OB_GetRDP:
 656              	.LFB156:
1392:Drivers/STM32F4xx_StdPeriph_Driver/src/stm32f4xx_flash.c **** 
1393:Drivers/STM32F4xx_StdPeriph_Driver/src/stm32f4xx_flash.c **** /**
1394:Drivers/STM32F4xx_StdPeriph_Driver/src/stm32f4xx_flash.c ****   * @brief  Returns the FLASH Read Protection level.
1395:Drivers/STM32F4xx_StdPeriph_Driver/src/stm32f4xx_flash.c ****   * @param  None
1396:Drivers/STM32F4xx_StdPeriph_Driver/src/stm32f4xx_flash.c ****   * @retval FLASH ReadOut Protection Status:
1397:Drivers/STM32F4xx_StdPeriph_Driver/src/stm32f4xx_flash.c ****   *           - SET, when OB_RDP_Level_1 or OB_RDP_Level_2 is set
1398:Drivers/STM32F4xx_StdPeriph_Driver/src/stm32f4xx_flash.c ****   *           - RESET, when OB_RDP_Level_0 is set
1399:Drivers/STM32F4xx_StdPeriph_Driver/src/stm32f4xx_flash.c ****   */
1400:Drivers/STM32F4xx_StdPeriph_Driver/src/stm32f4xx_flash.c **** FlagStatus FLASH_OB_GetRDP(void)
1401:Drivers/STM32F4xx_StdPeriph_Driver/src/stm32f4xx_flash.c **** {
 657              		.loc 1 1401 1 is_stmt 1 view -0
 658              		.cfi_startproc
 659              		@ args = 0, pretend = 0, frame = 0
 660              		@ frame_needed = 0, uses_anonymous_args = 0
 661              		@ link register save eliminated.
1402:Drivers/STM32F4xx_StdPeriph_Driver/src/stm32f4xx_flash.c ****   FlagStatus readstatus = RESET;
 662              		.loc 1 1402 3 view .LVU113
 663              	.LVL10:
1403:Drivers/STM32F4xx_StdPeriph_Driver/src/stm32f4xx_flash.c **** 
1404:Drivers/STM32F4xx_StdPeriph_Driver/src/stm32f4xx_flash.c ****   if ((*(__IO uint8_t*)(OPTCR_BYTE1_ADDRESS) != (uint8_t)OB_RDP_Level_0))
 664              		.loc 1 1404 3 view .LVU114
 665              		.loc 1 1404 8 is_stmt 0 view .LVU115
 666 0000 044B     		ldr	r3, .L67
 667 0002 5B7D     		ldrb	r3, [r3, #21]	@ zero_extendqisi2
 668 0004 DBB2     		uxtb	r3, r3
 669              		.loc 1 1404 6 view .LVU116
 670 0006 AA2B     		cmp	r3, #170
 671 0008 01D0     		beq	.L66
1405:Drivers/STM32F4xx_StdPeriph_Driver/src/stm32f4xx_flash.c ****   {
1406:Drivers/STM32F4xx_StdPeriph_Driver/src/stm32f4xx_flash.c ****     readstatus = SET;
 672              		.loc 1 1406 16 view .LVU117
 673 000a 0120     		movs	r0, #1
 674 000c 7047     		bx	lr
 675              	.L66:
1407:Drivers/STM32F4xx_StdPeriph_Driver/src/stm32f4xx_flash.c ****   }
1408:Drivers/STM32F4xx_StdPeriph_Driver/src/stm32f4xx_flash.c ****   else
1409:Drivers/STM32F4xx_StdPeriph_Driver/src/stm32f4xx_flash.c ****   {
1410:Drivers/STM32F4xx_StdPeriph_Driver/src/stm32f4xx_flash.c ****     readstatus = RESET;
ARM GAS  /tmp/ccQY8YTS.s 			page 37


 676              		.loc 1 1410 16 view .LVU118
 677 000e 0020     		movs	r0, #0
 678              	.LVL11:
1411:Drivers/STM32F4xx_StdPeriph_Driver/src/stm32f4xx_flash.c ****   }
1412:Drivers/STM32F4xx_StdPeriph_Driver/src/stm32f4xx_flash.c ****   return readstatus;
 679              		.loc 1 1412 3 is_stmt 1 view .LVU119
1413:Drivers/STM32F4xx_StdPeriph_Driver/src/stm32f4xx_flash.c **** }
 680              		.loc 1 1413 1 is_stmt 0 view .LVU120
 681 0010 7047     		bx	lr
 682              	.L68:
 683 0012 00BF     		.align	2
 684              	.L67:
 685 0014 003C0240 		.word	1073888256
 686              		.cfi_endproc
 687              	.LFE156:
 689              		.section	.text.FLASH_OB_GetBOR,"ax",%progbits
 690              		.align	1
 691              		.global	FLASH_OB_GetBOR
 692              		.syntax unified
 693              		.thumb
 694              		.thumb_func
 695              		.fpu fpv4-sp-d16
 697              	FLASH_OB_GetBOR:
 698              	.LFB157:
1414:Drivers/STM32F4xx_StdPeriph_Driver/src/stm32f4xx_flash.c **** 
1415:Drivers/STM32F4xx_StdPeriph_Driver/src/stm32f4xx_flash.c **** /**
1416:Drivers/STM32F4xx_StdPeriph_Driver/src/stm32f4xx_flash.c ****   * @brief  Returns the FLASH BOR level.
1417:Drivers/STM32F4xx_StdPeriph_Driver/src/stm32f4xx_flash.c ****   * @param  None
1418:Drivers/STM32F4xx_StdPeriph_Driver/src/stm32f4xx_flash.c ****   * @retval The FLASH BOR level:
1419:Drivers/STM32F4xx_StdPeriph_Driver/src/stm32f4xx_flash.c ****   *           - OB_BOR_LEVEL3: Supply voltage ranges from 2.7 to 3.6 V
1420:Drivers/STM32F4xx_StdPeriph_Driver/src/stm32f4xx_flash.c ****   *           - OB_BOR_LEVEL2: Supply voltage ranges from 2.4 to 2.7 V
1421:Drivers/STM32F4xx_StdPeriph_Driver/src/stm32f4xx_flash.c ****   *           - OB_BOR_LEVEL1: Supply voltage ranges from 2.1 to 2.4 V
1422:Drivers/STM32F4xx_StdPeriph_Driver/src/stm32f4xx_flash.c ****   *           - OB_BOR_OFF   : Supply voltage ranges from 1.62 to 2.1 V  
1423:Drivers/STM32F4xx_StdPeriph_Driver/src/stm32f4xx_flash.c ****   */
1424:Drivers/STM32F4xx_StdPeriph_Driver/src/stm32f4xx_flash.c **** uint8_t FLASH_OB_GetBOR(void)
1425:Drivers/STM32F4xx_StdPeriph_Driver/src/stm32f4xx_flash.c **** {
 699              		.loc 1 1425 1 is_stmt 1 view -0
 700              		.cfi_startproc
 701              		@ args = 0, pretend = 0, frame = 0
 702              		@ frame_needed = 0, uses_anonymous_args = 0
 703              		@ link register save eliminated.
1426:Drivers/STM32F4xx_StdPeriph_Driver/src/stm32f4xx_flash.c ****   /* Return the FLASH BOR level */
1427:Drivers/STM32F4xx_StdPeriph_Driver/src/stm32f4xx_flash.c ****   return (uint8_t)(*(__IO uint8_t *)(OPTCR_BYTE0_ADDRESS) & (uint8_t)0x0C);
 704              		.loc 1 1427 3 view .LVU122
 705              		.loc 1 1427 10 is_stmt 0 view .LVU123
 706 0000 024B     		ldr	r3, .L70
 707 0002 187D     		ldrb	r0, [r3, #20]	@ zero_extendqisi2
1428:Drivers/STM32F4xx_StdPeriph_Driver/src/stm32f4xx_flash.c **** }
 708              		.loc 1 1428 1 view .LVU124
 709 0004 00F00C00 		and	r0, r0, #12
 710 0008 7047     		bx	lr
 711              	.L71:
 712 000a 00BF     		.align	2
 713              	.L70:
 714 000c 003C0240 		.word	1073888256
 715              		.cfi_endproc
 716              	.LFE157:
ARM GAS  /tmp/ccQY8YTS.s 			page 38


 718              		.section	.text.FLASH_ITConfig,"ax",%progbits
 719              		.align	1
 720              		.global	FLASH_ITConfig
 721              		.syntax unified
 722              		.thumb
 723              		.thumb_func
 724              		.fpu fpv4-sp-d16
 726              	FLASH_ITConfig:
 727              	.LVL12:
 728              	.LFB158:
1429:Drivers/STM32F4xx_StdPeriph_Driver/src/stm32f4xx_flash.c **** 
1430:Drivers/STM32F4xx_StdPeriph_Driver/src/stm32f4xx_flash.c **** /**
1431:Drivers/STM32F4xx_StdPeriph_Driver/src/stm32f4xx_flash.c ****   * @}
1432:Drivers/STM32F4xx_StdPeriph_Driver/src/stm32f4xx_flash.c ****   */
1433:Drivers/STM32F4xx_StdPeriph_Driver/src/stm32f4xx_flash.c **** 
1434:Drivers/STM32F4xx_StdPeriph_Driver/src/stm32f4xx_flash.c **** /** @defgroup FLASH_Group4 Interrupts and flags management functions
1435:Drivers/STM32F4xx_StdPeriph_Driver/src/stm32f4xx_flash.c ****  *  @brief   Interrupts and flags management functions
1436:Drivers/STM32F4xx_StdPeriph_Driver/src/stm32f4xx_flash.c ****  *
1437:Drivers/STM32F4xx_StdPeriph_Driver/src/stm32f4xx_flash.c **** @verbatim   
1438:Drivers/STM32F4xx_StdPeriph_Driver/src/stm32f4xx_flash.c ****  ===============================================================================
1439:Drivers/STM32F4xx_StdPeriph_Driver/src/stm32f4xx_flash.c ****               ##### Interrupts and flags management functions #####
1440:Drivers/STM32F4xx_StdPeriph_Driver/src/stm32f4xx_flash.c ****  ===============================================================================  
1441:Drivers/STM32F4xx_StdPeriph_Driver/src/stm32f4xx_flash.c **** @endverbatim
1442:Drivers/STM32F4xx_StdPeriph_Driver/src/stm32f4xx_flash.c ****   * @{
1443:Drivers/STM32F4xx_StdPeriph_Driver/src/stm32f4xx_flash.c ****   */
1444:Drivers/STM32F4xx_StdPeriph_Driver/src/stm32f4xx_flash.c **** 
1445:Drivers/STM32F4xx_StdPeriph_Driver/src/stm32f4xx_flash.c **** /**
1446:Drivers/STM32F4xx_StdPeriph_Driver/src/stm32f4xx_flash.c ****   * @brief  Enables or disables the specified FLASH interrupts.
1447:Drivers/STM32F4xx_StdPeriph_Driver/src/stm32f4xx_flash.c ****   * @param  FLASH_IT: specifies the FLASH interrupt sources to be enabled or disabled.
1448:Drivers/STM32F4xx_StdPeriph_Driver/src/stm32f4xx_flash.c ****   *          This parameter can be any combination of the following values:
1449:Drivers/STM32F4xx_StdPeriph_Driver/src/stm32f4xx_flash.c ****   *            @arg FLASH_IT_ERR: FLASH Error Interrupt
1450:Drivers/STM32F4xx_StdPeriph_Driver/src/stm32f4xx_flash.c ****   *            @arg FLASH_IT_EOP: FLASH end of operation Interrupt
1451:Drivers/STM32F4xx_StdPeriph_Driver/src/stm32f4xx_flash.c ****   * @retval None 
1452:Drivers/STM32F4xx_StdPeriph_Driver/src/stm32f4xx_flash.c ****   */
1453:Drivers/STM32F4xx_StdPeriph_Driver/src/stm32f4xx_flash.c **** void FLASH_ITConfig(uint32_t FLASH_IT, FunctionalState NewState)
1454:Drivers/STM32F4xx_StdPeriph_Driver/src/stm32f4xx_flash.c **** {
 729              		.loc 1 1454 1 is_stmt 1 view -0
 730              		.cfi_startproc
 731              		@ args = 0, pretend = 0, frame = 0
 732              		@ frame_needed = 0, uses_anonymous_args = 0
 733              		@ link register save eliminated.
1455:Drivers/STM32F4xx_StdPeriph_Driver/src/stm32f4xx_flash.c ****   /* Check the parameters */
1456:Drivers/STM32F4xx_StdPeriph_Driver/src/stm32f4xx_flash.c ****   assert_param(IS_FLASH_IT(FLASH_IT)); 
 734              		.loc 1 1456 3 view .LVU126
1457:Drivers/STM32F4xx_StdPeriph_Driver/src/stm32f4xx_flash.c ****   assert_param(IS_FUNCTIONAL_STATE(NewState));
 735              		.loc 1 1457 3 view .LVU127
1458:Drivers/STM32F4xx_StdPeriph_Driver/src/stm32f4xx_flash.c **** 
1459:Drivers/STM32F4xx_StdPeriph_Driver/src/stm32f4xx_flash.c ****   if(NewState != DISABLE)
 736              		.loc 1 1459 3 view .LVU128
 737              		.loc 1 1459 5 is_stmt 0 view .LVU129
 738 0000 21B1     		cbz	r1, .L73
1460:Drivers/STM32F4xx_StdPeriph_Driver/src/stm32f4xx_flash.c ****   {
1461:Drivers/STM32F4xx_StdPeriph_Driver/src/stm32f4xx_flash.c ****     /* Enable the interrupt sources */
1462:Drivers/STM32F4xx_StdPeriph_Driver/src/stm32f4xx_flash.c ****     FLASH->CR |= FLASH_IT;
 739              		.loc 1 1462 5 is_stmt 1 view .LVU130
 740              		.loc 1 1462 15 is_stmt 0 view .LVU131
 741 0002 054A     		ldr	r2, .L75
ARM GAS  /tmp/ccQY8YTS.s 			page 39


 742 0004 1369     		ldr	r3, [r2, #16]
 743 0006 1843     		orrs	r0, r0, r3
 744              	.LVL13:
 745              		.loc 1 1462 15 view .LVU132
 746 0008 1061     		str	r0, [r2, #16]
 747 000a 7047     		bx	lr
 748              	.LVL14:
 749              	.L73:
1463:Drivers/STM32F4xx_StdPeriph_Driver/src/stm32f4xx_flash.c ****   }
1464:Drivers/STM32F4xx_StdPeriph_Driver/src/stm32f4xx_flash.c ****   else
1465:Drivers/STM32F4xx_StdPeriph_Driver/src/stm32f4xx_flash.c ****   {
1466:Drivers/STM32F4xx_StdPeriph_Driver/src/stm32f4xx_flash.c ****     /* Disable the interrupt sources */
1467:Drivers/STM32F4xx_StdPeriph_Driver/src/stm32f4xx_flash.c ****     FLASH->CR &= ~(uint32_t)FLASH_IT;
 750              		.loc 1 1467 5 is_stmt 1 view .LVU133
 751              		.loc 1 1467 15 is_stmt 0 view .LVU134
 752 000c 024A     		ldr	r2, .L75
 753 000e 1369     		ldr	r3, [r2, #16]
 754 0010 23EA0000 		bic	r0, r3, r0
 755              	.LVL15:
 756              		.loc 1 1467 15 view .LVU135
 757 0014 1061     		str	r0, [r2, #16]
1468:Drivers/STM32F4xx_StdPeriph_Driver/src/stm32f4xx_flash.c ****   }
1469:Drivers/STM32F4xx_StdPeriph_Driver/src/stm32f4xx_flash.c **** }
 758              		.loc 1 1469 1 view .LVU136
 759 0016 7047     		bx	lr
 760              	.L76:
 761              		.align	2
 762              	.L75:
 763 0018 003C0240 		.word	1073888256
 764              		.cfi_endproc
 765              	.LFE158:
 767              		.section	.text.FLASH_GetFlagStatus,"ax",%progbits
 768              		.align	1
 769              		.global	FLASH_GetFlagStatus
 770              		.syntax unified
 771              		.thumb
 772              		.thumb_func
 773              		.fpu fpv4-sp-d16
 775              	FLASH_GetFlagStatus:
 776              	.LVL16:
 777              	.LFB159:
1470:Drivers/STM32F4xx_StdPeriph_Driver/src/stm32f4xx_flash.c **** 
1471:Drivers/STM32F4xx_StdPeriph_Driver/src/stm32f4xx_flash.c **** /**
1472:Drivers/STM32F4xx_StdPeriph_Driver/src/stm32f4xx_flash.c ****   * @brief  Checks whether the specified FLASH flag is set or not.
1473:Drivers/STM32F4xx_StdPeriph_Driver/src/stm32f4xx_flash.c ****   * @param  FLASH_FLAG: specifies the FLASH flag to check.
1474:Drivers/STM32F4xx_StdPeriph_Driver/src/stm32f4xx_flash.c ****   *          This parameter can be one of the following values:
1475:Drivers/STM32F4xx_StdPeriph_Driver/src/stm32f4xx_flash.c ****   *            @arg FLASH_FLAG_EOP: FLASH End of Operation flag 
1476:Drivers/STM32F4xx_StdPeriph_Driver/src/stm32f4xx_flash.c ****   *            @arg FLASH_FLAG_OPERR: FLASH operation Error flag 
1477:Drivers/STM32F4xx_StdPeriph_Driver/src/stm32f4xx_flash.c ****   *            @arg FLASH_FLAG_WRPERR: FLASH Write protected error flag 
1478:Drivers/STM32F4xx_StdPeriph_Driver/src/stm32f4xx_flash.c ****   *            @arg FLASH_FLAG_PGAERR: FLASH Programming Alignment error flag
1479:Drivers/STM32F4xx_StdPeriph_Driver/src/stm32f4xx_flash.c ****   *            @arg FLASH_FLAG_PGPERR: FLASH Programming Parallelism error flag
1480:Drivers/STM32F4xx_StdPeriph_Driver/src/stm32f4xx_flash.c ****   *            @arg FLASH_FLAG_PGSERR: FLASH Programming Sequence error flag
1481:Drivers/STM32F4xx_StdPeriph_Driver/src/stm32f4xx_flash.c ****   *            @arg FLASH_FLAG_RDERR: FLASH (PCROP) Read Protection error flag (STM32F42xx/43xxx an
1482:Drivers/STM32F4xx_StdPeriph_Driver/src/stm32f4xx_flash.c ****   *            @arg FLASH_FLAG_BSY: FLASH Busy flag
1483:Drivers/STM32F4xx_StdPeriph_Driver/src/stm32f4xx_flash.c ****   * @retval The new state of FLASH_FLAG (SET or RESET).
1484:Drivers/STM32F4xx_StdPeriph_Driver/src/stm32f4xx_flash.c ****   */
1485:Drivers/STM32F4xx_StdPeriph_Driver/src/stm32f4xx_flash.c **** FlagStatus FLASH_GetFlagStatus(uint32_t FLASH_FLAG)
ARM GAS  /tmp/ccQY8YTS.s 			page 40


1486:Drivers/STM32F4xx_StdPeriph_Driver/src/stm32f4xx_flash.c **** {
 778              		.loc 1 1486 1 is_stmt 1 view -0
 779              		.cfi_startproc
 780              		@ args = 0, pretend = 0, frame = 0
 781              		@ frame_needed = 0, uses_anonymous_args = 0
 782              		@ link register save eliminated.
1487:Drivers/STM32F4xx_StdPeriph_Driver/src/stm32f4xx_flash.c ****   FlagStatus bitstatus = RESET;
 783              		.loc 1 1487 3 view .LVU138
1488:Drivers/STM32F4xx_StdPeriph_Driver/src/stm32f4xx_flash.c ****   /* Check the parameters */
1489:Drivers/STM32F4xx_StdPeriph_Driver/src/stm32f4xx_flash.c ****   assert_param(IS_FLASH_GET_FLAG(FLASH_FLAG));
 784              		.loc 1 1489 3 view .LVU139
1490:Drivers/STM32F4xx_StdPeriph_Driver/src/stm32f4xx_flash.c **** 
1491:Drivers/STM32F4xx_StdPeriph_Driver/src/stm32f4xx_flash.c ****   if((FLASH->SR & FLASH_FLAG) != (uint32_t)RESET)
 785              		.loc 1 1491 3 view .LVU140
 786              		.loc 1 1491 12 is_stmt 0 view .LVU141
 787 0000 034B     		ldr	r3, .L80
 788 0002 DB68     		ldr	r3, [r3, #12]
 789              		.loc 1 1491 5 view .LVU142
 790 0004 0342     		tst	r3, r0
 791 0006 01D0     		beq	.L79
1492:Drivers/STM32F4xx_StdPeriph_Driver/src/stm32f4xx_flash.c ****   {
1493:Drivers/STM32F4xx_StdPeriph_Driver/src/stm32f4xx_flash.c ****     bitstatus = SET;
 792              		.loc 1 1493 15 view .LVU143
 793 0008 0120     		movs	r0, #1
 794              	.LVL17:
 795              		.loc 1 1493 15 view .LVU144
 796 000a 7047     		bx	lr
 797              	.LVL18:
 798              	.L79:
1494:Drivers/STM32F4xx_StdPeriph_Driver/src/stm32f4xx_flash.c ****   }
1495:Drivers/STM32F4xx_StdPeriph_Driver/src/stm32f4xx_flash.c ****   else
1496:Drivers/STM32F4xx_StdPeriph_Driver/src/stm32f4xx_flash.c ****   {
1497:Drivers/STM32F4xx_StdPeriph_Driver/src/stm32f4xx_flash.c ****     bitstatus = RESET;
 799              		.loc 1 1497 15 view .LVU145
 800 000c 0020     		movs	r0, #0
 801              	.LVL19:
1498:Drivers/STM32F4xx_StdPeriph_Driver/src/stm32f4xx_flash.c ****   }
1499:Drivers/STM32F4xx_StdPeriph_Driver/src/stm32f4xx_flash.c ****   /* Return the new state of FLASH_FLAG (SET or RESET) */
1500:Drivers/STM32F4xx_StdPeriph_Driver/src/stm32f4xx_flash.c ****   return bitstatus; 
 802              		.loc 1 1500 3 is_stmt 1 view .LVU146
1501:Drivers/STM32F4xx_StdPeriph_Driver/src/stm32f4xx_flash.c **** }
 803              		.loc 1 1501 1 is_stmt 0 view .LVU147
 804 000e 7047     		bx	lr
 805              	.L81:
 806              		.align	2
 807              	.L80:
 808 0010 003C0240 		.word	1073888256
 809              		.cfi_endproc
 810              	.LFE159:
 812              		.section	.text.FLASH_ClearFlag,"ax",%progbits
 813              		.align	1
 814              		.global	FLASH_ClearFlag
 815              		.syntax unified
 816              		.thumb
 817              		.thumb_func
 818              		.fpu fpv4-sp-d16
 820              	FLASH_ClearFlag:
ARM GAS  /tmp/ccQY8YTS.s 			page 41


 821              	.LVL20:
 822              	.LFB160:
1502:Drivers/STM32F4xx_StdPeriph_Driver/src/stm32f4xx_flash.c **** 
1503:Drivers/STM32F4xx_StdPeriph_Driver/src/stm32f4xx_flash.c **** /**
1504:Drivers/STM32F4xx_StdPeriph_Driver/src/stm32f4xx_flash.c ****   * @brief  Clears the FLASH's pending flags.
1505:Drivers/STM32F4xx_StdPeriph_Driver/src/stm32f4xx_flash.c ****   * @param  FLASH_FLAG: specifies the FLASH flags to clear.
1506:Drivers/STM32F4xx_StdPeriph_Driver/src/stm32f4xx_flash.c ****   *          This parameter can be any combination of the following values:
1507:Drivers/STM32F4xx_StdPeriph_Driver/src/stm32f4xx_flash.c ****   *            @arg FLASH_FLAG_EOP: FLASH End of Operation flag 
1508:Drivers/STM32F4xx_StdPeriph_Driver/src/stm32f4xx_flash.c ****   *            @arg FLASH_FLAG_OPERR: FLASH operation Error flag 
1509:Drivers/STM32F4xx_StdPeriph_Driver/src/stm32f4xx_flash.c ****   *            @arg FLASH_FLAG_WRPERR: FLASH Write protected error flag 
1510:Drivers/STM32F4xx_StdPeriph_Driver/src/stm32f4xx_flash.c ****   *            @arg FLASH_FLAG_PGAERR: FLASH Programming Alignment error flag 
1511:Drivers/STM32F4xx_StdPeriph_Driver/src/stm32f4xx_flash.c ****   *            @arg FLASH_FLAG_PGPERR: FLASH Programming Parallelism error flag
1512:Drivers/STM32F4xx_StdPeriph_Driver/src/stm32f4xx_flash.c ****   *            @arg FLASH_FLAG_PGSERR: FLASH Programming Sequence error flag
1513:Drivers/STM32F4xx_StdPeriph_Driver/src/stm32f4xx_flash.c ****   *            @arg FLASH_FLAG_RDERR: FLASH Read Protection error flag (STM32F42xx/43xxx and STM32F
1514:Drivers/STM32F4xx_StdPeriph_Driver/src/stm32f4xx_flash.c ****   * @retval None
1515:Drivers/STM32F4xx_StdPeriph_Driver/src/stm32f4xx_flash.c ****   */
1516:Drivers/STM32F4xx_StdPeriph_Driver/src/stm32f4xx_flash.c **** void FLASH_ClearFlag(uint32_t FLASH_FLAG)
1517:Drivers/STM32F4xx_StdPeriph_Driver/src/stm32f4xx_flash.c **** {
 823              		.loc 1 1517 1 is_stmt 1 view -0
 824              		.cfi_startproc
 825              		@ args = 0, pretend = 0, frame = 0
 826              		@ frame_needed = 0, uses_anonymous_args = 0
 827              		@ link register save eliminated.
1518:Drivers/STM32F4xx_StdPeriph_Driver/src/stm32f4xx_flash.c ****   /* Check the parameters */
1519:Drivers/STM32F4xx_StdPeriph_Driver/src/stm32f4xx_flash.c ****   assert_param(IS_FLASH_CLEAR_FLAG(FLASH_FLAG));
 828              		.loc 1 1519 3 view .LVU149
1520:Drivers/STM32F4xx_StdPeriph_Driver/src/stm32f4xx_flash.c ****   
1521:Drivers/STM32F4xx_StdPeriph_Driver/src/stm32f4xx_flash.c ****   /* Clear the flags */
1522:Drivers/STM32F4xx_StdPeriph_Driver/src/stm32f4xx_flash.c ****   FLASH->SR = FLASH_FLAG;
 829              		.loc 1 1522 3 view .LVU150
 830              		.loc 1 1522 13 is_stmt 0 view .LVU151
 831 0000 014B     		ldr	r3, .L83
 832 0002 D860     		str	r0, [r3, #12]
1523:Drivers/STM32F4xx_StdPeriph_Driver/src/stm32f4xx_flash.c **** }
 833              		.loc 1 1523 1 view .LVU152
 834 0004 7047     		bx	lr
 835              	.L84:
 836 0006 00BF     		.align	2
 837              	.L83:
 838 0008 003C0240 		.word	1073888256
 839              		.cfi_endproc
 840              	.LFE160:
 842              		.section	.text.FLASH_GetStatus,"ax",%progbits
 843              		.align	1
 844              		.global	FLASH_GetStatus
 845              		.syntax unified
 846              		.thumb
 847              		.thumb_func
 848              		.fpu fpv4-sp-d16
 850              	FLASH_GetStatus:
 851              	.LFB161:
1524:Drivers/STM32F4xx_StdPeriph_Driver/src/stm32f4xx_flash.c **** 
1525:Drivers/STM32F4xx_StdPeriph_Driver/src/stm32f4xx_flash.c **** /**
1526:Drivers/STM32F4xx_StdPeriph_Driver/src/stm32f4xx_flash.c ****   * @brief  Returns the FLASH Status.
1527:Drivers/STM32F4xx_StdPeriph_Driver/src/stm32f4xx_flash.c ****   * @param  None
1528:Drivers/STM32F4xx_StdPeriph_Driver/src/stm32f4xx_flash.c ****   * @retval FLASH Status: The returned value can be: FLASH_BUSY, FLASH_ERROR_PROGRAM,
1529:Drivers/STM32F4xx_StdPeriph_Driver/src/stm32f4xx_flash.c ****   *                       FLASH_ERROR_WRP, FLASH_ERROR_RD, FLASH_ERROR_OPERATION or FLASH_COMPLETE.
ARM GAS  /tmp/ccQY8YTS.s 			page 42


1530:Drivers/STM32F4xx_StdPeriph_Driver/src/stm32f4xx_flash.c ****   */
1531:Drivers/STM32F4xx_StdPeriph_Driver/src/stm32f4xx_flash.c **** FLASH_Status FLASH_GetStatus(void)
1532:Drivers/STM32F4xx_StdPeriph_Driver/src/stm32f4xx_flash.c **** {
 852              		.loc 1 1532 1 is_stmt 1 view -0
 853              		.cfi_startproc
 854              		@ args = 0, pretend = 0, frame = 0
 855              		@ frame_needed = 0, uses_anonymous_args = 0
 856              		@ link register save eliminated.
1533:Drivers/STM32F4xx_StdPeriph_Driver/src/stm32f4xx_flash.c ****   FLASH_Status flashstatus = FLASH_COMPLETE;
 857              		.loc 1 1533 3 view .LVU154
 858              	.LVL21:
1534:Drivers/STM32F4xx_StdPeriph_Driver/src/stm32f4xx_flash.c ****   
1535:Drivers/STM32F4xx_StdPeriph_Driver/src/stm32f4xx_flash.c ****   if((FLASH->SR & FLASH_FLAG_BSY) == FLASH_FLAG_BSY) 
 859              		.loc 1 1535 3 view .LVU155
 860              		.loc 1 1535 12 is_stmt 0 view .LVU156
 861 0000 124B     		ldr	r3, .L92
 862 0002 DB68     		ldr	r3, [r3, #12]
 863              		.loc 1 1535 5 view .LVU157
 864 0004 13F4803F 		tst	r3, #65536
 865 0008 15D1     		bne	.L87
1536:Drivers/STM32F4xx_StdPeriph_Driver/src/stm32f4xx_flash.c ****   {
1537:Drivers/STM32F4xx_StdPeriph_Driver/src/stm32f4xx_flash.c ****     flashstatus = FLASH_BUSY;
1538:Drivers/STM32F4xx_StdPeriph_Driver/src/stm32f4xx_flash.c ****   }
1539:Drivers/STM32F4xx_StdPeriph_Driver/src/stm32f4xx_flash.c ****   else 
1540:Drivers/STM32F4xx_StdPeriph_Driver/src/stm32f4xx_flash.c ****   {  
1541:Drivers/STM32F4xx_StdPeriph_Driver/src/stm32f4xx_flash.c ****     if((FLASH->SR & FLASH_FLAG_WRPERR) != (uint32_t)0x00)
 866              		.loc 1 1541 5 is_stmt 1 view .LVU158
 867              		.loc 1 1541 14 is_stmt 0 view .LVU159
 868 000a 104B     		ldr	r3, .L92
 869 000c DB68     		ldr	r3, [r3, #12]
 870              		.loc 1 1541 7 view .LVU160
 871 000e 13F0100F 		tst	r3, #16
 872 0012 12D1     		bne	.L88
1542:Drivers/STM32F4xx_StdPeriph_Driver/src/stm32f4xx_flash.c ****     { 
1543:Drivers/STM32F4xx_StdPeriph_Driver/src/stm32f4xx_flash.c ****       flashstatus = FLASH_ERROR_WRP;
1544:Drivers/STM32F4xx_StdPeriph_Driver/src/stm32f4xx_flash.c ****     }
1545:Drivers/STM32F4xx_StdPeriph_Driver/src/stm32f4xx_flash.c ****     else
1546:Drivers/STM32F4xx_StdPeriph_Driver/src/stm32f4xx_flash.c ****     {
1547:Drivers/STM32F4xx_StdPeriph_Driver/src/stm32f4xx_flash.c ****       if((FLASH->SR & FLASH_FLAG_RDERR) != (uint32_t)0x00)
 873              		.loc 1 1547 7 is_stmt 1 view .LVU161
 874              		.loc 1 1547 16 is_stmt 0 view .LVU162
 875 0014 0D4B     		ldr	r3, .L92
 876 0016 DB68     		ldr	r3, [r3, #12]
 877              		.loc 1 1547 9 view .LVU163
 878 0018 13F4807F 		tst	r3, #256
 879 001c 0FD1     		bne	.L89
1548:Drivers/STM32F4xx_StdPeriph_Driver/src/stm32f4xx_flash.c ****       { 
1549:Drivers/STM32F4xx_StdPeriph_Driver/src/stm32f4xx_flash.c ****         flashstatus = FLASH_ERROR_RD;
1550:Drivers/STM32F4xx_StdPeriph_Driver/src/stm32f4xx_flash.c ****       } 
1551:Drivers/STM32F4xx_StdPeriph_Driver/src/stm32f4xx_flash.c ****       else 
1552:Drivers/STM32F4xx_StdPeriph_Driver/src/stm32f4xx_flash.c ****       {
1553:Drivers/STM32F4xx_StdPeriph_Driver/src/stm32f4xx_flash.c ****         if((FLASH->SR & (uint32_t)0xE0) != (uint32_t)0x00)
 880              		.loc 1 1553 9 is_stmt 1 view .LVU164
 881              		.loc 1 1553 18 is_stmt 0 view .LVU165
 882 001e 0B4B     		ldr	r3, .L92
 883 0020 DB68     		ldr	r3, [r3, #12]
 884              		.loc 1 1553 11 view .LVU166
ARM GAS  /tmp/ccQY8YTS.s 			page 43


 885 0022 13F0E00F 		tst	r3, #224
 886 0026 0CD1     		bne	.L90
1554:Drivers/STM32F4xx_StdPeriph_Driver/src/stm32f4xx_flash.c ****         {
1555:Drivers/STM32F4xx_StdPeriph_Driver/src/stm32f4xx_flash.c ****           flashstatus = FLASH_ERROR_PROGRAM; 
1556:Drivers/STM32F4xx_StdPeriph_Driver/src/stm32f4xx_flash.c ****         }
1557:Drivers/STM32F4xx_StdPeriph_Driver/src/stm32f4xx_flash.c ****         else
1558:Drivers/STM32F4xx_StdPeriph_Driver/src/stm32f4xx_flash.c ****         {
1559:Drivers/STM32F4xx_StdPeriph_Driver/src/stm32f4xx_flash.c ****           if((FLASH->SR & FLASH_FLAG_OPERR) != (uint32_t)0x00)
 887              		.loc 1 1559 11 is_stmt 1 view .LVU167
 888              		.loc 1 1559 20 is_stmt 0 view .LVU168
 889 0028 084B     		ldr	r3, .L92
 890 002a DB68     		ldr	r3, [r3, #12]
 891              		.loc 1 1559 13 view .LVU169
 892 002c 13F0020F 		tst	r3, #2
 893 0030 09D0     		beq	.L91
1560:Drivers/STM32F4xx_StdPeriph_Driver/src/stm32f4xx_flash.c ****           {
1561:Drivers/STM32F4xx_StdPeriph_Driver/src/stm32f4xx_flash.c ****             flashstatus = FLASH_ERROR_OPERATION;
 894              		.loc 1 1561 25 view .LVU170
 895 0032 0820     		movs	r0, #8
 896 0034 7047     		bx	lr
 897              	.L87:
1537:Drivers/STM32F4xx_StdPeriph_Driver/src/stm32f4xx_flash.c ****   }
 898              		.loc 1 1537 17 view .LVU171
 899 0036 0120     		movs	r0, #1
 900 0038 7047     		bx	lr
 901              	.L88:
1543:Drivers/STM32F4xx_StdPeriph_Driver/src/stm32f4xx_flash.c ****     }
 902              		.loc 1 1543 19 view .LVU172
 903 003a 0620     		movs	r0, #6
 904 003c 7047     		bx	lr
 905              	.L89:
1549:Drivers/STM32F4xx_StdPeriph_Driver/src/stm32f4xx_flash.c ****       } 
 906              		.loc 1 1549 21 view .LVU173
 907 003e 0220     		movs	r0, #2
 908 0040 7047     		bx	lr
 909              	.L90:
1555:Drivers/STM32F4xx_StdPeriph_Driver/src/stm32f4xx_flash.c ****         }
 910              		.loc 1 1555 23 view .LVU174
 911 0042 0720     		movs	r0, #7
 912 0044 7047     		bx	lr
 913              	.L91:
1562:Drivers/STM32F4xx_StdPeriph_Driver/src/stm32f4xx_flash.c ****           }
1563:Drivers/STM32F4xx_StdPeriph_Driver/src/stm32f4xx_flash.c ****           else
1564:Drivers/STM32F4xx_StdPeriph_Driver/src/stm32f4xx_flash.c ****           {
1565:Drivers/STM32F4xx_StdPeriph_Driver/src/stm32f4xx_flash.c ****             flashstatus = FLASH_COMPLETE;
 914              		.loc 1 1565 25 view .LVU175
 915 0046 0920     		movs	r0, #9
 916              	.LVL22:
1566:Drivers/STM32F4xx_StdPeriph_Driver/src/stm32f4xx_flash.c ****           }
1567:Drivers/STM32F4xx_StdPeriph_Driver/src/stm32f4xx_flash.c ****         }
1568:Drivers/STM32F4xx_StdPeriph_Driver/src/stm32f4xx_flash.c ****       }
1569:Drivers/STM32F4xx_StdPeriph_Driver/src/stm32f4xx_flash.c ****     }
1570:Drivers/STM32F4xx_StdPeriph_Driver/src/stm32f4xx_flash.c ****   }
1571:Drivers/STM32F4xx_StdPeriph_Driver/src/stm32f4xx_flash.c ****   /* Return the FLASH Status */
1572:Drivers/STM32F4xx_StdPeriph_Driver/src/stm32f4xx_flash.c ****   return flashstatus;
 917              		.loc 1 1572 3 is_stmt 1 view .LVU176
1573:Drivers/STM32F4xx_StdPeriph_Driver/src/stm32f4xx_flash.c **** }
ARM GAS  /tmp/ccQY8YTS.s 			page 44


 918              		.loc 1 1573 1 is_stmt 0 view .LVU177
 919 0048 7047     		bx	lr
 920              	.L93:
 921 004a 00BF     		.align	2
 922              	.L92:
 923 004c 003C0240 		.word	1073888256
 924              		.cfi_endproc
 925              	.LFE161:
 927              		.section	.text.FLASH_WaitForLastOperation,"ax",%progbits
 928              		.align	1
 929              		.global	FLASH_WaitForLastOperation
 930              		.syntax unified
 931              		.thumb
 932              		.thumb_func
 933              		.fpu fpv4-sp-d16
 935              	FLASH_WaitForLastOperation:
 936              	.LFB162:
1574:Drivers/STM32F4xx_StdPeriph_Driver/src/stm32f4xx_flash.c **** 
1575:Drivers/STM32F4xx_StdPeriph_Driver/src/stm32f4xx_flash.c **** /**
1576:Drivers/STM32F4xx_StdPeriph_Driver/src/stm32f4xx_flash.c ****   * @brief  Waits for a FLASH operation to complete.
1577:Drivers/STM32F4xx_StdPeriph_Driver/src/stm32f4xx_flash.c ****   * @param  None
1578:Drivers/STM32F4xx_StdPeriph_Driver/src/stm32f4xx_flash.c ****   * @retval FLASH Status: The returned value can be: FLASH_BUSY, FLASH_ERROR_PROGRAM,
1579:Drivers/STM32F4xx_StdPeriph_Driver/src/stm32f4xx_flash.c ****   *                       FLASH_ERROR_WRP, FLASH_ERROR_OPERATION or FLASH_COMPLETE.
1580:Drivers/STM32F4xx_StdPeriph_Driver/src/stm32f4xx_flash.c ****   */
1581:Drivers/STM32F4xx_StdPeriph_Driver/src/stm32f4xx_flash.c **** FLASH_Status FLASH_WaitForLastOperation(void)
1582:Drivers/STM32F4xx_StdPeriph_Driver/src/stm32f4xx_flash.c **** { 
 937              		.loc 1 1582 1 is_stmt 1 view -0
 938              		.cfi_startproc
 939              		@ args = 0, pretend = 0, frame = 8
 940              		@ frame_needed = 0, uses_anonymous_args = 0
 941 0000 00B5     		push	{lr}
 942              		.cfi_def_cfa_offset 4
 943              		.cfi_offset 14, -4
 944 0002 83B0     		sub	sp, sp, #12
 945              		.cfi_def_cfa_offset 16
1583:Drivers/STM32F4xx_StdPeriph_Driver/src/stm32f4xx_flash.c ****   __IO FLASH_Status status = FLASH_COMPLETE;
 946              		.loc 1 1583 3 view .LVU179
 947              		.loc 1 1583 21 is_stmt 0 view .LVU180
 948 0004 0923     		movs	r3, #9
 949 0006 8DF80730 		strb	r3, [sp, #7]
1584:Drivers/STM32F4xx_StdPeriph_Driver/src/stm32f4xx_flash.c ****    
1585:Drivers/STM32F4xx_StdPeriph_Driver/src/stm32f4xx_flash.c ****   /* Check for the FLASH Status */
1586:Drivers/STM32F4xx_StdPeriph_Driver/src/stm32f4xx_flash.c ****   status = FLASH_GetStatus();
 950              		.loc 1 1586 3 is_stmt 1 view .LVU181
 951              		.loc 1 1586 12 is_stmt 0 view .LVU182
 952 000a FFF7FEFF 		bl	FLASH_GetStatus
 953              	.LVL23:
 954              		.loc 1 1586 10 view .LVU183
 955 000e 8DF80700 		strb	r0, [sp, #7]
1587:Drivers/STM32F4xx_StdPeriph_Driver/src/stm32f4xx_flash.c **** 
1588:Drivers/STM32F4xx_StdPeriph_Driver/src/stm32f4xx_flash.c ****   /* Wait for the FLASH operation to complete by polling on BUSY flag to be reset.
1589:Drivers/STM32F4xx_StdPeriph_Driver/src/stm32f4xx_flash.c ****      Even if the FLASH operation fails, the BUSY flag will be reset and an error
1590:Drivers/STM32F4xx_StdPeriph_Driver/src/stm32f4xx_flash.c ****      flag will be set */
1591:Drivers/STM32F4xx_StdPeriph_Driver/src/stm32f4xx_flash.c ****   while(status == FLASH_BUSY)
 956              		.loc 1 1591 3 is_stmt 1 view .LVU184
 957              		.loc 1 1591 8 is_stmt 0 view .LVU185
 958 0012 03E0     		b	.L95
ARM GAS  /tmp/ccQY8YTS.s 			page 45


 959              	.L96:
1592:Drivers/STM32F4xx_StdPeriph_Driver/src/stm32f4xx_flash.c ****   {
1593:Drivers/STM32F4xx_StdPeriph_Driver/src/stm32f4xx_flash.c ****     status = FLASH_GetStatus();
 960              		.loc 1 1593 5 is_stmt 1 view .LVU186
 961              		.loc 1 1593 14 is_stmt 0 view .LVU187
 962 0014 FFF7FEFF 		bl	FLASH_GetStatus
 963              	.LVL24:
 964              		.loc 1 1593 12 view .LVU188
 965 0018 8DF80700 		strb	r0, [sp, #7]
 966              	.L95:
1591:Drivers/STM32F4xx_StdPeriph_Driver/src/stm32f4xx_flash.c ****   {
 967              		.loc 1 1591 8 is_stmt 1 view .LVU189
1591:Drivers/STM32F4xx_StdPeriph_Driver/src/stm32f4xx_flash.c ****   {
 968              		.loc 1 1591 16 is_stmt 0 view .LVU190
 969 001c 9DF80730 		ldrb	r3, [sp, #7]	@ zero_extendqisi2
 970 0020 DBB2     		uxtb	r3, r3
1591:Drivers/STM32F4xx_StdPeriph_Driver/src/stm32f4xx_flash.c ****   {
 971              		.loc 1 1591 8 view .LVU191
 972 0022 012B     		cmp	r3, #1
 973 0024 F6D0     		beq	.L96
1594:Drivers/STM32F4xx_StdPeriph_Driver/src/stm32f4xx_flash.c ****   }
1595:Drivers/STM32F4xx_StdPeriph_Driver/src/stm32f4xx_flash.c ****   /* Return the operation status */
1596:Drivers/STM32F4xx_StdPeriph_Driver/src/stm32f4xx_flash.c ****   return status;
 974              		.loc 1 1596 3 is_stmt 1 view .LVU192
 975              		.loc 1 1596 10 is_stmt 0 view .LVU193
 976 0026 9DF80700 		ldrb	r0, [sp, #7]	@ zero_extendqisi2
1597:Drivers/STM32F4xx_StdPeriph_Driver/src/stm32f4xx_flash.c **** }
 977              		.loc 1 1597 1 view .LVU194
 978 002a 03B0     		add	sp, sp, #12
 979              		.cfi_def_cfa_offset 4
 980              		@ sp needed
 981 002c 5DF804FB 		ldr	pc, [sp], #4
 982              		.cfi_endproc
 983              	.LFE162:
 985              		.section	.text.FLASH_EraseSector,"ax",%progbits
 986              		.align	1
 987              		.global	FLASH_EraseSector
 988              		.syntax unified
 989              		.thumb
 990              		.thumb_func
 991              		.fpu fpv4-sp-d16
 993              	FLASH_EraseSector:
 994              	.LVL25:
 995              	.LFB131:
 473:Drivers/STM32F4xx_StdPeriph_Driver/src/stm32f4xx_flash.c ****   uint32_t tmp_psize = 0x0;
 996              		.loc 1 473 1 is_stmt 1 view -0
 997              		.cfi_startproc
 998              		@ args = 0, pretend = 0, frame = 0
 999              		@ frame_needed = 0, uses_anonymous_args = 0
 473:Drivers/STM32F4xx_StdPeriph_Driver/src/stm32f4xx_flash.c ****   uint32_t tmp_psize = 0x0;
 1000              		.loc 1 473 1 is_stmt 0 view .LVU196
 1001 0000 70B5     		push	{r4, r5, r6, lr}
 1002              		.cfi_def_cfa_offset 16
 1003              		.cfi_offset 4, -16
 1004              		.cfi_offset 5, -12
 1005              		.cfi_offset 6, -8
 1006              		.cfi_offset 14, -4
ARM GAS  /tmp/ccQY8YTS.s 			page 46


 1007 0002 0446     		mov	r4, r0
 474:Drivers/STM32F4xx_StdPeriph_Driver/src/stm32f4xx_flash.c ****   FLASH_Status status = FLASH_COMPLETE;
 1008              		.loc 1 474 3 is_stmt 1 view .LVU197
 1009              	.LVL26:
 475:Drivers/STM32F4xx_StdPeriph_Driver/src/stm32f4xx_flash.c **** 
 1010              		.loc 1 475 3 view .LVU198
 478:Drivers/STM32F4xx_StdPeriph_Driver/src/stm32f4xx_flash.c ****   assert_param(IS_VOLTAGERANGE(VoltageRange));
 1011              		.loc 1 478 3 view .LVU199
 479:Drivers/STM32F4xx_StdPeriph_Driver/src/stm32f4xx_flash.c ****   
 1012              		.loc 1 479 3 view .LVU200
 481:Drivers/STM32F4xx_StdPeriph_Driver/src/stm32f4xx_flash.c ****   {
 1013              		.loc 1 481 3 view .LVU201
 481:Drivers/STM32F4xx_StdPeriph_Driver/src/stm32f4xx_flash.c ****   {
 1014              		.loc 1 481 5 is_stmt 0 view .LVU202
 1015 0004 49B1     		cbz	r1, .L101
 485:Drivers/STM32F4xx_StdPeriph_Driver/src/stm32f4xx_flash.c ****   {
 1016              		.loc 1 485 8 is_stmt 1 view .LVU203
 485:Drivers/STM32F4xx_StdPeriph_Driver/src/stm32f4xx_flash.c ****   {
 1017              		.loc 1 485 10 is_stmt 0 view .LVU204
 1018 0006 0129     		cmp	r1, #1
 1019 0008 0DD0     		beq	.L102
 489:Drivers/STM32F4xx_StdPeriph_Driver/src/stm32f4xx_flash.c ****   {
 1020              		.loc 1 489 8 is_stmt 1 view .LVU205
 489:Drivers/STM32F4xx_StdPeriph_Driver/src/stm32f4xx_flash.c ****   {
 1021              		.loc 1 489 10 is_stmt 0 view .LVU206
 1022 000a 0229     		cmp	r1, #2
 1023 000c 02D0     		beq	.L105
 495:Drivers/STM32F4xx_StdPeriph_Driver/src/stm32f4xx_flash.c ****   }
 1024              		.loc 1 495 15 view .LVU207
 1025 000e 4FF44076 		mov	r6, #768
 1026 0012 03E0     		b	.L99
 1027              	.L105:
 491:Drivers/STM32F4xx_StdPeriph_Driver/src/stm32f4xx_flash.c ****   }
 1028              		.loc 1 491 15 view .LVU208
 1029 0014 4FF40076 		mov	r6, #512
 1030 0018 00E0     		b	.L99
 1031              	.L101:
 483:Drivers/STM32F4xx_StdPeriph_Driver/src/stm32f4xx_flash.c ****   }
 1032              		.loc 1 483 16 view .LVU209
 1033 001a 0026     		movs	r6, #0
 1034              	.L99:
 1035              	.LVL27:
 498:Drivers/STM32F4xx_StdPeriph_Driver/src/stm32f4xx_flash.c ****   
 1036              		.loc 1 498 3 is_stmt 1 view .LVU210
 498:Drivers/STM32F4xx_StdPeriph_Driver/src/stm32f4xx_flash.c ****   
 1037              		.loc 1 498 12 is_stmt 0 view .LVU211
 1038 001c FFF7FEFF 		bl	FLASH_WaitForLastOperation
 1039              	.LVL28:
 500:Drivers/STM32F4xx_StdPeriph_Driver/src/stm32f4xx_flash.c ****   { 
 1040              		.loc 1 500 3 is_stmt 1 view .LVU212
 500:Drivers/STM32F4xx_StdPeriph_Driver/src/stm32f4xx_flash.c ****   { 
 1041              		.loc 1 500 5 is_stmt 0 view .LVU213
 1042 0020 0928     		cmp	r0, #9
 1043 0022 03D0     		beq	.L106
 1044              	.LVL29:
 1045              	.L100:
 517:Drivers/STM32F4xx_StdPeriph_Driver/src/stm32f4xx_flash.c **** }
ARM GAS  /tmp/ccQY8YTS.s 			page 47


 1046              		.loc 1 517 3 is_stmt 1 view .LVU214
 518:Drivers/STM32F4xx_StdPeriph_Driver/src/stm32f4xx_flash.c **** 
 1047              		.loc 1 518 1 is_stmt 0 view .LVU215
 1048 0024 70BD     		pop	{r4, r5, r6, pc}
 1049              	.LVL30:
 1050              	.L102:
 487:Drivers/STM32F4xx_StdPeriph_Driver/src/stm32f4xx_flash.c ****   }
 1051              		.loc 1 487 15 view .LVU216
 1052 0026 4FF48076 		mov	r6, #256
 1053 002a F7E7     		b	.L99
 1054              	.LVL31:
 1055              	.L106:
 503:Drivers/STM32F4xx_StdPeriph_Driver/src/stm32f4xx_flash.c ****     FLASH->CR |= tmp_psize;
 1056              		.loc 1 503 5 is_stmt 1 view .LVU217
 503:Drivers/STM32F4xx_StdPeriph_Driver/src/stm32f4xx_flash.c ****     FLASH->CR |= tmp_psize;
 1057              		.loc 1 503 15 is_stmt 0 view .LVU218
 1058 002c 0F4D     		ldr	r5, .L107
 1059 002e 2B69     		ldr	r3, [r5, #16]
 1060 0030 23F44073 		bic	r3, r3, #768
 1061 0034 2B61     		str	r3, [r5, #16]
 504:Drivers/STM32F4xx_StdPeriph_Driver/src/stm32f4xx_flash.c ****     FLASH->CR &= SECTOR_MASK;
 1062              		.loc 1 504 5 is_stmt 1 view .LVU219
 504:Drivers/STM32F4xx_StdPeriph_Driver/src/stm32f4xx_flash.c ****     FLASH->CR &= SECTOR_MASK;
 1063              		.loc 1 504 15 is_stmt 0 view .LVU220
 1064 0036 2B69     		ldr	r3, [r5, #16]
 1065 0038 1E43     		orrs	r6, r6, r3
 1066              	.LVL32:
 504:Drivers/STM32F4xx_StdPeriph_Driver/src/stm32f4xx_flash.c ****     FLASH->CR &= SECTOR_MASK;
 1067              		.loc 1 504 15 view .LVU221
 1068 003a 2E61     		str	r6, [r5, #16]
 505:Drivers/STM32F4xx_StdPeriph_Driver/src/stm32f4xx_flash.c ****     FLASH->CR |= FLASH_CR_SER | FLASH_Sector;
 1069              		.loc 1 505 5 is_stmt 1 view .LVU222
 505:Drivers/STM32F4xx_StdPeriph_Driver/src/stm32f4xx_flash.c ****     FLASH->CR |= FLASH_CR_SER | FLASH_Sector;
 1070              		.loc 1 505 15 is_stmt 0 view .LVU223
 1071 003c 2B69     		ldr	r3, [r5, #16]
 1072 003e 23F0F803 		bic	r3, r3, #248
 1073 0042 2B61     		str	r3, [r5, #16]
 506:Drivers/STM32F4xx_StdPeriph_Driver/src/stm32f4xx_flash.c ****     FLASH->CR |= FLASH_CR_STRT;
 1074              		.loc 1 506 5 is_stmt 1 view .LVU224
 506:Drivers/STM32F4xx_StdPeriph_Driver/src/stm32f4xx_flash.c ****     FLASH->CR |= FLASH_CR_STRT;
 1075              		.loc 1 506 15 is_stmt 0 view .LVU225
 1076 0044 2869     		ldr	r0, [r5, #16]
 1077              	.LVL33:
 506:Drivers/STM32F4xx_StdPeriph_Driver/src/stm32f4xx_flash.c ****     FLASH->CR |= FLASH_CR_STRT;
 1078              		.loc 1 506 15 view .LVU226
 1079 0046 2043     		orrs	r0, r0, r4
 1080 0048 40F00200 		orr	r0, r0, #2
 1081 004c 2861     		str	r0, [r5, #16]
 507:Drivers/STM32F4xx_StdPeriph_Driver/src/stm32f4xx_flash.c ****     
 1082              		.loc 1 507 5 is_stmt 1 view .LVU227
 507:Drivers/STM32F4xx_StdPeriph_Driver/src/stm32f4xx_flash.c ****     
 1083              		.loc 1 507 15 is_stmt 0 view .LVU228
 1084 004e 2B69     		ldr	r3, [r5, #16]
 1085 0050 43F48033 		orr	r3, r3, #65536
 1086 0054 2B61     		str	r3, [r5, #16]
 510:Drivers/STM32F4xx_StdPeriph_Driver/src/stm32f4xx_flash.c ****     
 1087              		.loc 1 510 5 is_stmt 1 view .LVU229
ARM GAS  /tmp/ccQY8YTS.s 			page 48


 510:Drivers/STM32F4xx_StdPeriph_Driver/src/stm32f4xx_flash.c ****     
 1088              		.loc 1 510 14 is_stmt 0 view .LVU230
 1089 0056 FFF7FEFF 		bl	FLASH_WaitForLastOperation
 1090              	.LVL34:
 513:Drivers/STM32F4xx_StdPeriph_Driver/src/stm32f4xx_flash.c ****     FLASH->CR &= SECTOR_MASK; 
 1091              		.loc 1 513 5 is_stmt 1 view .LVU231
 513:Drivers/STM32F4xx_StdPeriph_Driver/src/stm32f4xx_flash.c ****     FLASH->CR &= SECTOR_MASK; 
 1092              		.loc 1 513 15 is_stmt 0 view .LVU232
 1093 005a 2B69     		ldr	r3, [r5, #16]
 1094 005c 23F00203 		bic	r3, r3, #2
 1095 0060 2B61     		str	r3, [r5, #16]
 514:Drivers/STM32F4xx_StdPeriph_Driver/src/stm32f4xx_flash.c ****   }
 1096              		.loc 1 514 5 is_stmt 1 view .LVU233
 514:Drivers/STM32F4xx_StdPeriph_Driver/src/stm32f4xx_flash.c ****   }
 1097              		.loc 1 514 15 is_stmt 0 view .LVU234
 1098 0062 2B69     		ldr	r3, [r5, #16]
 1099 0064 23F0F803 		bic	r3, r3, #248
 1100 0068 2B61     		str	r3, [r5, #16]
 1101 006a DBE7     		b	.L100
 1102              	.L108:
 1103              		.align	2
 1104              	.L107:
 1105 006c 003C0240 		.word	1073888256
 1106              		.cfi_endproc
 1107              	.LFE131:
 1109              		.section	.text.FLASH_EraseAllSectors,"ax",%progbits
 1110              		.align	1
 1111              		.global	FLASH_EraseAllSectors
 1112              		.syntax unified
 1113              		.thumb
 1114              		.thumb_func
 1115              		.fpu fpv4-sp-d16
 1117              	FLASH_EraseAllSectors:
 1118              	.LVL35:
 1119              	.LFB132:
 541:Drivers/STM32F4xx_StdPeriph_Driver/src/stm32f4xx_flash.c ****   uint32_t tmp_psize = 0x0;
 1120              		.loc 1 541 1 is_stmt 1 view -0
 1121              		.cfi_startproc
 1122              		@ args = 0, pretend = 0, frame = 0
 1123              		@ frame_needed = 0, uses_anonymous_args = 0
 541:Drivers/STM32F4xx_StdPeriph_Driver/src/stm32f4xx_flash.c ****   uint32_t tmp_psize = 0x0;
 1124              		.loc 1 541 1 is_stmt 0 view .LVU236
 1125 0000 10B5     		push	{r4, lr}
 1126              		.cfi_def_cfa_offset 8
 1127              		.cfi_offset 4, -8
 1128              		.cfi_offset 14, -4
 1129 0002 0446     		mov	r4, r0
 542:Drivers/STM32F4xx_StdPeriph_Driver/src/stm32f4xx_flash.c ****   FLASH_Status status = FLASH_COMPLETE;
 1130              		.loc 1 542 3 is_stmt 1 view .LVU237
 1131              	.LVL36:
 543:Drivers/STM32F4xx_StdPeriph_Driver/src/stm32f4xx_flash.c ****   
 1132              		.loc 1 543 3 view .LVU238
 546:Drivers/STM32F4xx_StdPeriph_Driver/src/stm32f4xx_flash.c ****   assert_param(IS_VOLTAGERANGE(VoltageRange));
 1133              		.loc 1 546 3 view .LVU239
 546:Drivers/STM32F4xx_StdPeriph_Driver/src/stm32f4xx_flash.c ****   assert_param(IS_VOLTAGERANGE(VoltageRange));
 1134              		.loc 1 546 12 is_stmt 0 view .LVU240
 1135 0004 FFF7FEFF 		bl	FLASH_WaitForLastOperation
ARM GAS  /tmp/ccQY8YTS.s 			page 49


 1136              	.LVL37:
 547:Drivers/STM32F4xx_StdPeriph_Driver/src/stm32f4xx_flash.c ****   
 1137              		.loc 1 547 3 is_stmt 1 view .LVU241
 549:Drivers/STM32F4xx_StdPeriph_Driver/src/stm32f4xx_flash.c ****   {
 1138              		.loc 1 549 3 view .LVU242
 549:Drivers/STM32F4xx_StdPeriph_Driver/src/stm32f4xx_flash.c ****   {
 1139              		.loc 1 549 5 is_stmt 0 view .LVU243
 1140 0008 4CB1     		cbz	r4, .L112
 553:Drivers/STM32F4xx_StdPeriph_Driver/src/stm32f4xx_flash.c ****   {
 1141              		.loc 1 553 8 is_stmt 1 view .LVU244
 553:Drivers/STM32F4xx_StdPeriph_Driver/src/stm32f4xx_flash.c ****   {
 1142              		.loc 1 553 10 is_stmt 0 view .LVU245
 1143 000a 012C     		cmp	r4, #1
 1144 000c 0BD0     		beq	.L113
 557:Drivers/STM32F4xx_StdPeriph_Driver/src/stm32f4xx_flash.c ****   {
 1145              		.loc 1 557 8 is_stmt 1 view .LVU246
 557:Drivers/STM32F4xx_StdPeriph_Driver/src/stm32f4xx_flash.c ****   {
 1146              		.loc 1 557 10 is_stmt 0 view .LVU247
 1147 000e 022C     		cmp	r4, #2
 1148 0010 02D0     		beq	.L116
 563:Drivers/STM32F4xx_StdPeriph_Driver/src/stm32f4xx_flash.c ****   }  
 1149              		.loc 1 563 15 view .LVU248
 1150 0012 4FF44073 		mov	r3, #768
 1151 0016 03E0     		b	.L110
 1152              	.L116:
 559:Drivers/STM32F4xx_StdPeriph_Driver/src/stm32f4xx_flash.c ****   }
 1153              		.loc 1 559 15 view .LVU249
 1154 0018 4FF40073 		mov	r3, #512
 1155 001c 00E0     		b	.L110
 1156              	.L112:
 551:Drivers/STM32F4xx_StdPeriph_Driver/src/stm32f4xx_flash.c ****   }
 1157              		.loc 1 551 16 view .LVU250
 1158 001e 0023     		movs	r3, #0
 1159              	.L110:
 1160              	.LVL38:
 565:Drivers/STM32F4xx_StdPeriph_Driver/src/stm32f4xx_flash.c ****   {
 1161              		.loc 1 565 3 is_stmt 1 view .LVU251
 565:Drivers/STM32F4xx_StdPeriph_Driver/src/stm32f4xx_flash.c ****   {
 1162              		.loc 1 565 5 is_stmt 0 view .LVU252
 1163 0020 0928     		cmp	r0, #9
 1164 0022 03D0     		beq	.L117
 1165              	.LVL39:
 1166              	.L111:
 596:Drivers/STM32F4xx_StdPeriph_Driver/src/stm32f4xx_flash.c **** }
 1167              		.loc 1 596 3 is_stmt 1 view .LVU253
 597:Drivers/STM32F4xx_StdPeriph_Driver/src/stm32f4xx_flash.c **** 
 1168              		.loc 1 597 1 is_stmt 0 view .LVU254
 1169 0024 10BD     		pop	{r4, pc}
 1170              	.LVL40:
 1171              	.L113:
 555:Drivers/STM32F4xx_StdPeriph_Driver/src/stm32f4xx_flash.c ****   }
 1172              		.loc 1 555 15 view .LVU255
 1173 0026 4FF48073 		mov	r3, #256
 1174 002a F9E7     		b	.L110
 1175              	.LVL41:
 1176              	.L117:
 582:Drivers/STM32F4xx_StdPeriph_Driver/src/stm32f4xx_flash.c ****     FLASH->CR |= tmp_psize;
ARM GAS  /tmp/ccQY8YTS.s 			page 50


 1177              		.loc 1 582 5 is_stmt 1 view .LVU256
 582:Drivers/STM32F4xx_StdPeriph_Driver/src/stm32f4xx_flash.c ****     FLASH->CR |= tmp_psize;
 1178              		.loc 1 582 15 is_stmt 0 view .LVU257
 1179 002c 0B4C     		ldr	r4, .L118
 1180 002e 2269     		ldr	r2, [r4, #16]
 1181 0030 22F44072 		bic	r2, r2, #768
 1182 0034 2261     		str	r2, [r4, #16]
 583:Drivers/STM32F4xx_StdPeriph_Driver/src/stm32f4xx_flash.c ****     FLASH->CR |= FLASH_CR_MER;
 1183              		.loc 1 583 5 is_stmt 1 view .LVU258
 583:Drivers/STM32F4xx_StdPeriph_Driver/src/stm32f4xx_flash.c ****     FLASH->CR |= FLASH_CR_MER;
 1184              		.loc 1 583 15 is_stmt 0 view .LVU259
 1185 0036 2269     		ldr	r2, [r4, #16]
 1186 0038 1343     		orrs	r3, r3, r2
 1187              	.LVL42:
 583:Drivers/STM32F4xx_StdPeriph_Driver/src/stm32f4xx_flash.c ****     FLASH->CR |= FLASH_CR_MER;
 1188              		.loc 1 583 15 view .LVU260
 1189 003a 2361     		str	r3, [r4, #16]
 584:Drivers/STM32F4xx_StdPeriph_Driver/src/stm32f4xx_flash.c ****     FLASH->CR |= FLASH_CR_STRT;
 1190              		.loc 1 584 5 is_stmt 1 view .LVU261
 584:Drivers/STM32F4xx_StdPeriph_Driver/src/stm32f4xx_flash.c ****     FLASH->CR |= FLASH_CR_STRT;
 1191              		.loc 1 584 15 is_stmt 0 view .LVU262
 1192 003c 2369     		ldr	r3, [r4, #16]
 1193 003e 43F00403 		orr	r3, r3, #4
 1194 0042 2361     		str	r3, [r4, #16]
 585:Drivers/STM32F4xx_StdPeriph_Driver/src/stm32f4xx_flash.c ****     
 1195              		.loc 1 585 5 is_stmt 1 view .LVU263
 585:Drivers/STM32F4xx_StdPeriph_Driver/src/stm32f4xx_flash.c ****     
 1196              		.loc 1 585 15 is_stmt 0 view .LVU264
 1197 0044 2369     		ldr	r3, [r4, #16]
 1198 0046 43F48033 		orr	r3, r3, #65536
 1199 004a 2361     		str	r3, [r4, #16]
 588:Drivers/STM32F4xx_StdPeriph_Driver/src/stm32f4xx_flash.c **** 
 1200              		.loc 1 588 5 is_stmt 1 view .LVU265
 588:Drivers/STM32F4xx_StdPeriph_Driver/src/stm32f4xx_flash.c **** 
 1201              		.loc 1 588 14 is_stmt 0 view .LVU266
 1202 004c FFF7FEFF 		bl	FLASH_WaitForLastOperation
 1203              	.LVL43:
 591:Drivers/STM32F4xx_StdPeriph_Driver/src/stm32f4xx_flash.c **** #endif /* STM32F40_41xxx || STM32F401xx || STM32F410xx || STM32F411xE || STM32F446xx */
 1204              		.loc 1 591 5 is_stmt 1 view .LVU267
 591:Drivers/STM32F4xx_StdPeriph_Driver/src/stm32f4xx_flash.c **** #endif /* STM32F40_41xxx || STM32F401xx || STM32F410xx || STM32F411xE || STM32F446xx */
 1205              		.loc 1 591 15 is_stmt 0 view .LVU268
 1206 0050 2369     		ldr	r3, [r4, #16]
 1207 0052 23F00403 		bic	r3, r3, #4
 1208 0056 2361     		str	r3, [r4, #16]
 1209 0058 E4E7     		b	.L111
 1210              	.L119:
 1211 005a 00BF     		.align	2
 1212              	.L118:
 1213 005c 003C0240 		.word	1073888256
 1214              		.cfi_endproc
 1215              	.LFE132:
 1217              		.section	.text.FLASH_EraseAllBank1Sectors,"ax",%progbits
 1218              		.align	1
 1219              		.global	FLASH_EraseAllBank1Sectors
 1220              		.syntax unified
 1221              		.thumb
 1222              		.thumb_func
ARM GAS  /tmp/ccQY8YTS.s 			page 51


 1223              		.fpu fpv4-sp-d16
 1225              	FLASH_EraseAllBank1Sectors:
 1226              	.LVL44:
 1227              	.LFB133:
 622:Drivers/STM32F4xx_StdPeriph_Driver/src/stm32f4xx_flash.c ****   uint32_t tmp_psize = 0x0;
 1228              		.loc 1 622 1 is_stmt 1 view -0
 1229              		.cfi_startproc
 1230              		@ args = 0, pretend = 0, frame = 0
 1231              		@ frame_needed = 0, uses_anonymous_args = 0
 622:Drivers/STM32F4xx_StdPeriph_Driver/src/stm32f4xx_flash.c ****   uint32_t tmp_psize = 0x0;
 1232              		.loc 1 622 1 is_stmt 0 view .LVU270
 1233 0000 10B5     		push	{r4, lr}
 1234              		.cfi_def_cfa_offset 8
 1235              		.cfi_offset 4, -8
 1236              		.cfi_offset 14, -4
 1237 0002 0446     		mov	r4, r0
 623:Drivers/STM32F4xx_StdPeriph_Driver/src/stm32f4xx_flash.c ****   FLASH_Status status = FLASH_COMPLETE;
 1238              		.loc 1 623 3 is_stmt 1 view .LVU271
 1239              	.LVL45:
 624:Drivers/STM32F4xx_StdPeriph_Driver/src/stm32f4xx_flash.c ****   
 1240              		.loc 1 624 3 view .LVU272
 627:Drivers/STM32F4xx_StdPeriph_Driver/src/stm32f4xx_flash.c ****   assert_param(IS_VOLTAGERANGE(VoltageRange));
 1241              		.loc 1 627 3 view .LVU273
 627:Drivers/STM32F4xx_StdPeriph_Driver/src/stm32f4xx_flash.c ****   assert_param(IS_VOLTAGERANGE(VoltageRange));
 1242              		.loc 1 627 12 is_stmt 0 view .LVU274
 1243 0004 FFF7FEFF 		bl	FLASH_WaitForLastOperation
 1244              	.LVL46:
 628:Drivers/STM32F4xx_StdPeriph_Driver/src/stm32f4xx_flash.c ****   
 1245              		.loc 1 628 3 is_stmt 1 view .LVU275
 630:Drivers/STM32F4xx_StdPeriph_Driver/src/stm32f4xx_flash.c ****   {
 1246              		.loc 1 630 3 view .LVU276
 630:Drivers/STM32F4xx_StdPeriph_Driver/src/stm32f4xx_flash.c ****   {
 1247              		.loc 1 630 5 is_stmt 0 view .LVU277
 1248 0008 4CB1     		cbz	r4, .L123
 634:Drivers/STM32F4xx_StdPeriph_Driver/src/stm32f4xx_flash.c ****   {
 1249              		.loc 1 634 8 is_stmt 1 view .LVU278
 634:Drivers/STM32F4xx_StdPeriph_Driver/src/stm32f4xx_flash.c ****   {
 1250              		.loc 1 634 10 is_stmt 0 view .LVU279
 1251 000a 012C     		cmp	r4, #1
 1252 000c 0BD0     		beq	.L124
 638:Drivers/STM32F4xx_StdPeriph_Driver/src/stm32f4xx_flash.c ****   {
 1253              		.loc 1 638 8 is_stmt 1 view .LVU280
 638:Drivers/STM32F4xx_StdPeriph_Driver/src/stm32f4xx_flash.c ****   {
 1254              		.loc 1 638 10 is_stmt 0 view .LVU281
 1255 000e 022C     		cmp	r4, #2
 1256 0010 02D0     		beq	.L127
 644:Drivers/STM32F4xx_StdPeriph_Driver/src/stm32f4xx_flash.c ****   }  
 1257              		.loc 1 644 15 view .LVU282
 1258 0012 4FF44073 		mov	r3, #768
 1259 0016 03E0     		b	.L121
 1260              	.L127:
 640:Drivers/STM32F4xx_StdPeriph_Driver/src/stm32f4xx_flash.c ****   }
 1261              		.loc 1 640 15 view .LVU283
 1262 0018 4FF40073 		mov	r3, #512
 1263 001c 00E0     		b	.L121
 1264              	.L123:
 632:Drivers/STM32F4xx_StdPeriph_Driver/src/stm32f4xx_flash.c ****   }
ARM GAS  /tmp/ccQY8YTS.s 			page 52


 1265              		.loc 1 632 16 view .LVU284
 1266 001e 0023     		movs	r3, #0
 1267              	.L121:
 1268              	.LVL47:
 646:Drivers/STM32F4xx_StdPeriph_Driver/src/stm32f4xx_flash.c ****   {
 1269              		.loc 1 646 3 is_stmt 1 view .LVU285
 646:Drivers/STM32F4xx_StdPeriph_Driver/src/stm32f4xx_flash.c ****   {
 1270              		.loc 1 646 5 is_stmt 0 view .LVU286
 1271 0020 0928     		cmp	r0, #9
 1272 0022 03D0     		beq	.L128
 1273              	.LVL48:
 1274              	.L122:
 662:Drivers/STM32F4xx_StdPeriph_Driver/src/stm32f4xx_flash.c **** }
 1275              		.loc 1 662 3 is_stmt 1 view .LVU287
 663:Drivers/STM32F4xx_StdPeriph_Driver/src/stm32f4xx_flash.c **** 
 1276              		.loc 1 663 1 is_stmt 0 view .LVU288
 1277 0024 10BD     		pop	{r4, pc}
 1278              	.LVL49:
 1279              	.L124:
 636:Drivers/STM32F4xx_StdPeriph_Driver/src/stm32f4xx_flash.c ****   }
 1280              		.loc 1 636 15 view .LVU289
 1281 0026 4FF48073 		mov	r3, #256
 1282 002a F9E7     		b	.L121
 1283              	.LVL50:
 1284              	.L128:
 649:Drivers/STM32F4xx_StdPeriph_Driver/src/stm32f4xx_flash.c ****      FLASH->CR |= tmp_psize;
 1285              		.loc 1 649 6 is_stmt 1 view .LVU290
 649:Drivers/STM32F4xx_StdPeriph_Driver/src/stm32f4xx_flash.c ****      FLASH->CR |= tmp_psize;
 1286              		.loc 1 649 16 is_stmt 0 view .LVU291
 1287 002c 0B4C     		ldr	r4, .L129
 1288 002e 2269     		ldr	r2, [r4, #16]
 1289 0030 22F44072 		bic	r2, r2, #768
 1290 0034 2261     		str	r2, [r4, #16]
 650:Drivers/STM32F4xx_StdPeriph_Driver/src/stm32f4xx_flash.c ****      FLASH->CR |= FLASH_CR_MER1;
 1291              		.loc 1 650 6 is_stmt 1 view .LVU292
 650:Drivers/STM32F4xx_StdPeriph_Driver/src/stm32f4xx_flash.c ****      FLASH->CR |= FLASH_CR_MER1;
 1292              		.loc 1 650 16 is_stmt 0 view .LVU293
 1293 0036 2269     		ldr	r2, [r4, #16]
 1294 0038 1343     		orrs	r3, r3, r2
 1295              	.LVL51:
 650:Drivers/STM32F4xx_StdPeriph_Driver/src/stm32f4xx_flash.c ****      FLASH->CR |= FLASH_CR_MER1;
 1296              		.loc 1 650 16 view .LVU294
 1297 003a 2361     		str	r3, [r4, #16]
 651:Drivers/STM32F4xx_StdPeriph_Driver/src/stm32f4xx_flash.c ****      FLASH->CR |= FLASH_CR_STRT;
 1298              		.loc 1 651 6 is_stmt 1 view .LVU295
 651:Drivers/STM32F4xx_StdPeriph_Driver/src/stm32f4xx_flash.c ****      FLASH->CR |= FLASH_CR_STRT;
 1299              		.loc 1 651 16 is_stmt 0 view .LVU296
 1300 003c 2369     		ldr	r3, [r4, #16]
 1301 003e 43F00403 		orr	r3, r3, #4
 1302 0042 2361     		str	r3, [r4, #16]
 652:Drivers/STM32F4xx_StdPeriph_Driver/src/stm32f4xx_flash.c ****     
 1303              		.loc 1 652 6 is_stmt 1 view .LVU297
 652:Drivers/STM32F4xx_StdPeriph_Driver/src/stm32f4xx_flash.c ****     
 1304              		.loc 1 652 16 is_stmt 0 view .LVU298
 1305 0044 2369     		ldr	r3, [r4, #16]
 1306 0046 43F48033 		orr	r3, r3, #65536
 1307 004a 2361     		str	r3, [r4, #16]
ARM GAS  /tmp/ccQY8YTS.s 			page 53


 655:Drivers/STM32F4xx_StdPeriph_Driver/src/stm32f4xx_flash.c **** 
 1308              		.loc 1 655 5 is_stmt 1 view .LVU299
 655:Drivers/STM32F4xx_StdPeriph_Driver/src/stm32f4xx_flash.c **** 
 1309              		.loc 1 655 14 is_stmt 0 view .LVU300
 1310 004c FFF7FEFF 		bl	FLASH_WaitForLastOperation
 1311              	.LVL52:
 658:Drivers/STM32F4xx_StdPeriph_Driver/src/stm32f4xx_flash.c **** 
 1312              		.loc 1 658 5 is_stmt 1 view .LVU301
 658:Drivers/STM32F4xx_StdPeriph_Driver/src/stm32f4xx_flash.c **** 
 1313              		.loc 1 658 15 is_stmt 0 view .LVU302
 1314 0050 2369     		ldr	r3, [r4, #16]
 1315 0052 23F00403 		bic	r3, r3, #4
 1316 0056 2361     		str	r3, [r4, #16]
 1317 0058 E4E7     		b	.L122
 1318              	.L130:
 1319 005a 00BF     		.align	2
 1320              	.L129:
 1321 005c 003C0240 		.word	1073888256
 1322              		.cfi_endproc
 1323              	.LFE133:
 1325              		.section	.text.FLASH_EraseAllBank2Sectors,"ax",%progbits
 1326              		.align	1
 1327              		.global	FLASH_EraseAllBank2Sectors
 1328              		.syntax unified
 1329              		.thumb
 1330              		.thumb_func
 1331              		.fpu fpv4-sp-d16
 1333              	FLASH_EraseAllBank2Sectors:
 1334              	.LVL53:
 1335              	.LFB134:
 689:Drivers/STM32F4xx_StdPeriph_Driver/src/stm32f4xx_flash.c ****   uint32_t tmp_psize = 0x0;
 1336              		.loc 1 689 1 is_stmt 1 view -0
 1337              		.cfi_startproc
 1338              		@ args = 0, pretend = 0, frame = 0
 1339              		@ frame_needed = 0, uses_anonymous_args = 0
 689:Drivers/STM32F4xx_StdPeriph_Driver/src/stm32f4xx_flash.c ****   uint32_t tmp_psize = 0x0;
 1340              		.loc 1 689 1 is_stmt 0 view .LVU304
 1341 0000 10B5     		push	{r4, lr}
 1342              		.cfi_def_cfa_offset 8
 1343              		.cfi_offset 4, -8
 1344              		.cfi_offset 14, -4
 1345 0002 0446     		mov	r4, r0
 690:Drivers/STM32F4xx_StdPeriph_Driver/src/stm32f4xx_flash.c ****   FLASH_Status status = FLASH_COMPLETE;
 1346              		.loc 1 690 3 is_stmt 1 view .LVU305
 1347              	.LVL54:
 691:Drivers/STM32F4xx_StdPeriph_Driver/src/stm32f4xx_flash.c ****   
 1348              		.loc 1 691 3 view .LVU306
 694:Drivers/STM32F4xx_StdPeriph_Driver/src/stm32f4xx_flash.c ****   assert_param(IS_VOLTAGERANGE(VoltageRange));
 1349              		.loc 1 694 3 view .LVU307
 694:Drivers/STM32F4xx_StdPeriph_Driver/src/stm32f4xx_flash.c ****   assert_param(IS_VOLTAGERANGE(VoltageRange));
 1350              		.loc 1 694 12 is_stmt 0 view .LVU308
 1351 0004 FFF7FEFF 		bl	FLASH_WaitForLastOperation
 1352              	.LVL55:
 695:Drivers/STM32F4xx_StdPeriph_Driver/src/stm32f4xx_flash.c ****   
 1353              		.loc 1 695 3 is_stmt 1 view .LVU309
 697:Drivers/STM32F4xx_StdPeriph_Driver/src/stm32f4xx_flash.c ****   {
 1354              		.loc 1 697 3 view .LVU310
ARM GAS  /tmp/ccQY8YTS.s 			page 54


 697:Drivers/STM32F4xx_StdPeriph_Driver/src/stm32f4xx_flash.c ****   {
 1355              		.loc 1 697 5 is_stmt 0 view .LVU311
 1356 0008 4CB1     		cbz	r4, .L134
 701:Drivers/STM32F4xx_StdPeriph_Driver/src/stm32f4xx_flash.c ****   {
 1357              		.loc 1 701 8 is_stmt 1 view .LVU312
 701:Drivers/STM32F4xx_StdPeriph_Driver/src/stm32f4xx_flash.c ****   {
 1358              		.loc 1 701 10 is_stmt 0 view .LVU313
 1359 000a 012C     		cmp	r4, #1
 1360 000c 0BD0     		beq	.L135
 705:Drivers/STM32F4xx_StdPeriph_Driver/src/stm32f4xx_flash.c ****   {
 1361              		.loc 1 705 8 is_stmt 1 view .LVU314
 705:Drivers/STM32F4xx_StdPeriph_Driver/src/stm32f4xx_flash.c ****   {
 1362              		.loc 1 705 10 is_stmt 0 view .LVU315
 1363 000e 022C     		cmp	r4, #2
 1364 0010 02D0     		beq	.L138
 711:Drivers/STM32F4xx_StdPeriph_Driver/src/stm32f4xx_flash.c ****   }  
 1365              		.loc 1 711 15 view .LVU316
 1366 0012 4FF44073 		mov	r3, #768
 1367 0016 03E0     		b	.L132
 1368              	.L138:
 707:Drivers/STM32F4xx_StdPeriph_Driver/src/stm32f4xx_flash.c ****   }
 1369              		.loc 1 707 15 view .LVU317
 1370 0018 4FF40073 		mov	r3, #512
 1371 001c 00E0     		b	.L132
 1372              	.L134:
 699:Drivers/STM32F4xx_StdPeriph_Driver/src/stm32f4xx_flash.c ****   }
 1373              		.loc 1 699 16 view .LVU318
 1374 001e 0023     		movs	r3, #0
 1375              	.L132:
 1376              	.LVL56:
 713:Drivers/STM32F4xx_StdPeriph_Driver/src/stm32f4xx_flash.c ****   {
 1377              		.loc 1 713 3 is_stmt 1 view .LVU319
 713:Drivers/STM32F4xx_StdPeriph_Driver/src/stm32f4xx_flash.c ****   {
 1378              		.loc 1 713 5 is_stmt 0 view .LVU320
 1379 0020 0928     		cmp	r0, #9
 1380 0022 03D0     		beq	.L139
 1381              	.LVL57:
 1382              	.L133:
 729:Drivers/STM32F4xx_StdPeriph_Driver/src/stm32f4xx_flash.c **** }
 1383              		.loc 1 729 3 is_stmt 1 view .LVU321
 730:Drivers/STM32F4xx_StdPeriph_Driver/src/stm32f4xx_flash.c **** 
 1384              		.loc 1 730 1 is_stmt 0 view .LVU322
 1385 0024 10BD     		pop	{r4, pc}
 1386              	.LVL58:
 1387              	.L135:
 703:Drivers/STM32F4xx_StdPeriph_Driver/src/stm32f4xx_flash.c ****   }
 1388              		.loc 1 703 15 view .LVU323
 1389 0026 4FF48073 		mov	r3, #256
 1390 002a F9E7     		b	.L132
 1391              	.LVL59:
 1392              	.L139:
 716:Drivers/STM32F4xx_StdPeriph_Driver/src/stm32f4xx_flash.c ****      FLASH->CR |= tmp_psize;
 1393              		.loc 1 716 6 is_stmt 1 view .LVU324
 716:Drivers/STM32F4xx_StdPeriph_Driver/src/stm32f4xx_flash.c ****      FLASH->CR |= tmp_psize;
 1394              		.loc 1 716 16 is_stmt 0 view .LVU325
 1395 002c 0B4C     		ldr	r4, .L140
 1396 002e 2269     		ldr	r2, [r4, #16]
ARM GAS  /tmp/ccQY8YTS.s 			page 55


 1397 0030 22F44072 		bic	r2, r2, #768
 1398 0034 2261     		str	r2, [r4, #16]
 717:Drivers/STM32F4xx_StdPeriph_Driver/src/stm32f4xx_flash.c ****      FLASH->CR |= FLASH_CR_MER2;
 1399              		.loc 1 717 6 is_stmt 1 view .LVU326
 717:Drivers/STM32F4xx_StdPeriph_Driver/src/stm32f4xx_flash.c ****      FLASH->CR |= FLASH_CR_MER2;
 1400              		.loc 1 717 16 is_stmt 0 view .LVU327
 1401 0036 2269     		ldr	r2, [r4, #16]
 1402 0038 1343     		orrs	r3, r3, r2
 1403              	.LVL60:
 717:Drivers/STM32F4xx_StdPeriph_Driver/src/stm32f4xx_flash.c ****      FLASH->CR |= FLASH_CR_MER2;
 1404              		.loc 1 717 16 view .LVU328
 1405 003a 2361     		str	r3, [r4, #16]
 718:Drivers/STM32F4xx_StdPeriph_Driver/src/stm32f4xx_flash.c ****      FLASH->CR |= FLASH_CR_STRT;
 1406              		.loc 1 718 6 is_stmt 1 view .LVU329
 718:Drivers/STM32F4xx_StdPeriph_Driver/src/stm32f4xx_flash.c ****      FLASH->CR |= FLASH_CR_STRT;
 1407              		.loc 1 718 16 is_stmt 0 view .LVU330
 1408 003c 2369     		ldr	r3, [r4, #16]
 1409 003e 43F40043 		orr	r3, r3, #32768
 1410 0042 2361     		str	r3, [r4, #16]
 719:Drivers/STM32F4xx_StdPeriph_Driver/src/stm32f4xx_flash.c ****     
 1411              		.loc 1 719 6 is_stmt 1 view .LVU331
 719:Drivers/STM32F4xx_StdPeriph_Driver/src/stm32f4xx_flash.c ****     
 1412              		.loc 1 719 16 is_stmt 0 view .LVU332
 1413 0044 2369     		ldr	r3, [r4, #16]
 1414 0046 43F48033 		orr	r3, r3, #65536
 1415 004a 2361     		str	r3, [r4, #16]
 722:Drivers/STM32F4xx_StdPeriph_Driver/src/stm32f4xx_flash.c **** 
 1416              		.loc 1 722 5 is_stmt 1 view .LVU333
 722:Drivers/STM32F4xx_StdPeriph_Driver/src/stm32f4xx_flash.c **** 
 1417              		.loc 1 722 14 is_stmt 0 view .LVU334
 1418 004c FFF7FEFF 		bl	FLASH_WaitForLastOperation
 1419              	.LVL61:
 725:Drivers/STM32F4xx_StdPeriph_Driver/src/stm32f4xx_flash.c **** 
 1420              		.loc 1 725 5 is_stmt 1 view .LVU335
 725:Drivers/STM32F4xx_StdPeriph_Driver/src/stm32f4xx_flash.c **** 
 1421              		.loc 1 725 15 is_stmt 0 view .LVU336
 1422 0050 2369     		ldr	r3, [r4, #16]
 1423 0052 23F40043 		bic	r3, r3, #32768
 1424 0056 2361     		str	r3, [r4, #16]
 1425 0058 E4E7     		b	.L133
 1426              	.L141:
 1427 005a 00BF     		.align	2
 1428              	.L140:
 1429 005c 003C0240 		.word	1073888256
 1430              		.cfi_endproc
 1431              	.LFE134:
 1433              		.section	.text.FLASH_ProgramDoubleWord,"ax",%progbits
 1434              		.align	1
 1435              		.global	FLASH_ProgramDoubleWord
 1436              		.syntax unified
 1437              		.thumb
 1438              		.thumb_func
 1439              		.fpu fpv4-sp-d16
 1441              	FLASH_ProgramDoubleWord:
 1442              	.LVL62:
 1443              	.LFB135:
 746:Drivers/STM32F4xx_StdPeriph_Driver/src/stm32f4xx_flash.c ****   FLASH_Status status = FLASH_COMPLETE;
ARM GAS  /tmp/ccQY8YTS.s 			page 56


 1444              		.loc 1 746 1 is_stmt 1 view -0
 1445              		.cfi_startproc
 1446              		@ args = 0, pretend = 0, frame = 0
 1447              		@ frame_needed = 0, uses_anonymous_args = 0
 746:Drivers/STM32F4xx_StdPeriph_Driver/src/stm32f4xx_flash.c ****   FLASH_Status status = FLASH_COMPLETE;
 1448              		.loc 1 746 1 is_stmt 0 view .LVU338
 1449 0000 F8B5     		push	{r3, r4, r5, r6, r7, lr}
 1450              		.cfi_def_cfa_offset 24
 1451              		.cfi_offset 3, -24
 1452              		.cfi_offset 4, -20
 1453              		.cfi_offset 5, -16
 1454              		.cfi_offset 6, -12
 1455              		.cfi_offset 7, -8
 1456              		.cfi_offset 14, -4
 1457 0002 0646     		mov	r6, r0
 1458 0004 1446     		mov	r4, r2
 1459 0006 1D46     		mov	r5, r3
 747:Drivers/STM32F4xx_StdPeriph_Driver/src/stm32f4xx_flash.c **** 
 1460              		.loc 1 747 3 is_stmt 1 view .LVU339
 1461              	.LVL63:
 750:Drivers/STM32F4xx_StdPeriph_Driver/src/stm32f4xx_flash.c **** 
 1462              		.loc 1 750 3 view .LVU340
 753:Drivers/STM32F4xx_StdPeriph_Driver/src/stm32f4xx_flash.c ****   
 1463              		.loc 1 753 3 view .LVU341
 753:Drivers/STM32F4xx_StdPeriph_Driver/src/stm32f4xx_flash.c ****   
 1464              		.loc 1 753 12 is_stmt 0 view .LVU342
 1465 0008 FFF7FEFF 		bl	FLASH_WaitForLastOperation
 1466              	.LVL64:
 755:Drivers/STM32F4xx_StdPeriph_Driver/src/stm32f4xx_flash.c ****   {
 1467              		.loc 1 755 3 is_stmt 1 view .LVU343
 755:Drivers/STM32F4xx_StdPeriph_Driver/src/stm32f4xx_flash.c ****   {
 1468              		.loc 1 755 5 is_stmt 0 view .LVU344
 1469 000c 0928     		cmp	r0, #9
 1470 000e 00D0     		beq	.L145
 1471              	.L143:
 771:Drivers/STM32F4xx_StdPeriph_Driver/src/stm32f4xx_flash.c **** }
 1472              		.loc 1 771 3 is_stmt 1 view .LVU345
 772:Drivers/STM32F4xx_StdPeriph_Driver/src/stm32f4xx_flash.c **** 
 1473              		.loc 1 772 1 is_stmt 0 view .LVU346
 1474 0010 F8BD     		pop	{r3, r4, r5, r6, r7, pc}
 1475              	.LVL65:
 1476              	.L145:
 758:Drivers/STM32F4xx_StdPeriph_Driver/src/stm32f4xx_flash.c ****     FLASH->CR |= FLASH_PSIZE_DOUBLE_WORD;
 1477              		.loc 1 758 5 is_stmt 1 view .LVU347
 758:Drivers/STM32F4xx_StdPeriph_Driver/src/stm32f4xx_flash.c ****     FLASH->CR |= FLASH_PSIZE_DOUBLE_WORD;
 1478              		.loc 1 758 15 is_stmt 0 view .LVU348
 1479 0012 0B4F     		ldr	r7, .L146
 1480 0014 3B69     		ldr	r3, [r7, #16]
 1481 0016 23F44073 		bic	r3, r3, #768
 1482 001a 3B61     		str	r3, [r7, #16]
 759:Drivers/STM32F4xx_StdPeriph_Driver/src/stm32f4xx_flash.c ****     FLASH->CR |= FLASH_CR_PG;
 1483              		.loc 1 759 5 is_stmt 1 view .LVU349
 759:Drivers/STM32F4xx_StdPeriph_Driver/src/stm32f4xx_flash.c ****     FLASH->CR |= FLASH_CR_PG;
 1484              		.loc 1 759 15 is_stmt 0 view .LVU350
 1485 001c 3B69     		ldr	r3, [r7, #16]
 1486 001e 43F44073 		orr	r3, r3, #768
 1487 0022 3B61     		str	r3, [r7, #16]
ARM GAS  /tmp/ccQY8YTS.s 			page 57


 760:Drivers/STM32F4xx_StdPeriph_Driver/src/stm32f4xx_flash.c ****   
 1488              		.loc 1 760 5 is_stmt 1 view .LVU351
 760:Drivers/STM32F4xx_StdPeriph_Driver/src/stm32f4xx_flash.c ****   
 1489              		.loc 1 760 15 is_stmt 0 view .LVU352
 1490 0024 3B69     		ldr	r3, [r7, #16]
 1491 0026 43F00103 		orr	r3, r3, #1
 1492 002a 3B61     		str	r3, [r7, #16]
 762:Drivers/STM32F4xx_StdPeriph_Driver/src/stm32f4xx_flash.c ****         
 1493              		.loc 1 762 5 is_stmt 1 view .LVU353
 762:Drivers/STM32F4xx_StdPeriph_Driver/src/stm32f4xx_flash.c ****         
 1494              		.loc 1 762 30 is_stmt 0 view .LVU354
 1495 002c C6E90045 		strd	r4, [r6]
 765:Drivers/STM32F4xx_StdPeriph_Driver/src/stm32f4xx_flash.c **** 
 1496              		.loc 1 765 5 is_stmt 1 view .LVU355
 765:Drivers/STM32F4xx_StdPeriph_Driver/src/stm32f4xx_flash.c **** 
 1497              		.loc 1 765 14 is_stmt 0 view .LVU356
 1498 0030 FFF7FEFF 		bl	FLASH_WaitForLastOperation
 1499              	.LVL66:
 768:Drivers/STM32F4xx_StdPeriph_Driver/src/stm32f4xx_flash.c ****   } 
 1500              		.loc 1 768 5 is_stmt 1 view .LVU357
 768:Drivers/STM32F4xx_StdPeriph_Driver/src/stm32f4xx_flash.c ****   } 
 1501              		.loc 1 768 15 is_stmt 0 view .LVU358
 1502 0034 3B69     		ldr	r3, [r7, #16]
 1503 0036 23F00103 		bic	r3, r3, #1
 1504 003a 3B61     		str	r3, [r7, #16]
 1505 003c E8E7     		b	.L143
 1506              	.L147:
 1507 003e 00BF     		.align	2
 1508              	.L146:
 1509 0040 003C0240 		.word	1073888256
 1510              		.cfi_endproc
 1511              	.LFE135:
 1513              		.section	.text.FLASH_ProgramWord,"ax",%progbits
 1514              		.align	1
 1515              		.global	FLASH_ProgramWord
 1516              		.syntax unified
 1517              		.thumb
 1518              		.thumb_func
 1519              		.fpu fpv4-sp-d16
 1521              	FLASH_ProgramWord:
 1522              	.LVL67:
 1523              	.LFB136:
 789:Drivers/STM32F4xx_StdPeriph_Driver/src/stm32f4xx_flash.c ****   FLASH_Status status = FLASH_COMPLETE;
 1524              		.loc 1 789 1 is_stmt 1 view -0
 1525              		.cfi_startproc
 1526              		@ args = 0, pretend = 0, frame = 0
 1527              		@ frame_needed = 0, uses_anonymous_args = 0
 789:Drivers/STM32F4xx_StdPeriph_Driver/src/stm32f4xx_flash.c ****   FLASH_Status status = FLASH_COMPLETE;
 1528              		.loc 1 789 1 is_stmt 0 view .LVU360
 1529 0000 70B5     		push	{r4, r5, r6, lr}
 1530              		.cfi_def_cfa_offset 16
 1531              		.cfi_offset 4, -16
 1532              		.cfi_offset 5, -12
 1533              		.cfi_offset 6, -8
 1534              		.cfi_offset 14, -4
 1535 0002 0546     		mov	r5, r0
 1536 0004 0C46     		mov	r4, r1
ARM GAS  /tmp/ccQY8YTS.s 			page 58


 790:Drivers/STM32F4xx_StdPeriph_Driver/src/stm32f4xx_flash.c **** 
 1537              		.loc 1 790 3 is_stmt 1 view .LVU361
 1538              	.LVL68:
 793:Drivers/STM32F4xx_StdPeriph_Driver/src/stm32f4xx_flash.c **** 
 1539              		.loc 1 793 3 view .LVU362
 796:Drivers/STM32F4xx_StdPeriph_Driver/src/stm32f4xx_flash.c ****   
 1540              		.loc 1 796 3 view .LVU363
 796:Drivers/STM32F4xx_StdPeriph_Driver/src/stm32f4xx_flash.c ****   
 1541              		.loc 1 796 12 is_stmt 0 view .LVU364
 1542 0006 FFF7FEFF 		bl	FLASH_WaitForLastOperation
 1543              	.LVL69:
 798:Drivers/STM32F4xx_StdPeriph_Driver/src/stm32f4xx_flash.c ****   {
 1544              		.loc 1 798 3 is_stmt 1 view .LVU365
 798:Drivers/STM32F4xx_StdPeriph_Driver/src/stm32f4xx_flash.c ****   {
 1545              		.loc 1 798 5 is_stmt 0 view .LVU366
 1546 000a 0928     		cmp	r0, #9
 1547 000c 00D0     		beq	.L151
 1548              	.L149:
 814:Drivers/STM32F4xx_StdPeriph_Driver/src/stm32f4xx_flash.c **** }
 1549              		.loc 1 814 3 is_stmt 1 view .LVU367
 815:Drivers/STM32F4xx_StdPeriph_Driver/src/stm32f4xx_flash.c **** 
 1550              		.loc 1 815 1 is_stmt 0 view .LVU368
 1551 000e 70BD     		pop	{r4, r5, r6, pc}
 1552              	.LVL70:
 1553              	.L151:
 801:Drivers/STM32F4xx_StdPeriph_Driver/src/stm32f4xx_flash.c ****     FLASH->CR |= FLASH_PSIZE_WORD;
 1554              		.loc 1 801 5 is_stmt 1 view .LVU369
 801:Drivers/STM32F4xx_StdPeriph_Driver/src/stm32f4xx_flash.c ****     FLASH->CR |= FLASH_PSIZE_WORD;
 1555              		.loc 1 801 15 is_stmt 0 view .LVU370
 1556 0010 0A4E     		ldr	r6, .L152
 1557 0012 3369     		ldr	r3, [r6, #16]
 1558 0014 23F44073 		bic	r3, r3, #768
 1559 0018 3361     		str	r3, [r6, #16]
 802:Drivers/STM32F4xx_StdPeriph_Driver/src/stm32f4xx_flash.c ****     FLASH->CR |= FLASH_CR_PG;
 1560              		.loc 1 802 5 is_stmt 1 view .LVU371
 802:Drivers/STM32F4xx_StdPeriph_Driver/src/stm32f4xx_flash.c ****     FLASH->CR |= FLASH_CR_PG;
 1561              		.loc 1 802 15 is_stmt 0 view .LVU372
 1562 001a 3369     		ldr	r3, [r6, #16]
 1563 001c 43F40073 		orr	r3, r3, #512
 1564 0020 3361     		str	r3, [r6, #16]
 803:Drivers/STM32F4xx_StdPeriph_Driver/src/stm32f4xx_flash.c ****   
 1565              		.loc 1 803 5 is_stmt 1 view .LVU373
 803:Drivers/STM32F4xx_StdPeriph_Driver/src/stm32f4xx_flash.c ****   
 1566              		.loc 1 803 15 is_stmt 0 view .LVU374
 1567 0022 3369     		ldr	r3, [r6, #16]
 1568 0024 43F00103 		orr	r3, r3, #1
 1569 0028 3361     		str	r3, [r6, #16]
 805:Drivers/STM32F4xx_StdPeriph_Driver/src/stm32f4xx_flash.c ****         
 1570              		.loc 1 805 5 is_stmt 1 view .LVU375
 805:Drivers/STM32F4xx_StdPeriph_Driver/src/stm32f4xx_flash.c ****         
 1571              		.loc 1 805 30 is_stmt 0 view .LVU376
 1572 002a 2C60     		str	r4, [r5]
 808:Drivers/STM32F4xx_StdPeriph_Driver/src/stm32f4xx_flash.c **** 
 1573              		.loc 1 808 5 is_stmt 1 view .LVU377
 808:Drivers/STM32F4xx_StdPeriph_Driver/src/stm32f4xx_flash.c **** 
 1574              		.loc 1 808 14 is_stmt 0 view .LVU378
 1575 002c FFF7FEFF 		bl	FLASH_WaitForLastOperation
ARM GAS  /tmp/ccQY8YTS.s 			page 59


 1576              	.LVL71:
 811:Drivers/STM32F4xx_StdPeriph_Driver/src/stm32f4xx_flash.c ****   } 
 1577              		.loc 1 811 5 is_stmt 1 view .LVU379
 811:Drivers/STM32F4xx_StdPeriph_Driver/src/stm32f4xx_flash.c ****   } 
 1578              		.loc 1 811 15 is_stmt 0 view .LVU380
 1579 0030 3369     		ldr	r3, [r6, #16]
 1580 0032 23F00103 		bic	r3, r3, #1
 1581 0036 3361     		str	r3, [r6, #16]
 1582 0038 E9E7     		b	.L149
 1583              	.L153:
 1584 003a 00BF     		.align	2
 1585              	.L152:
 1586 003c 003C0240 		.word	1073888256
 1587              		.cfi_endproc
 1588              	.LFE136:
 1590              		.section	.text.FLASH_ProgramHalfWord,"ax",%progbits
 1591              		.align	1
 1592              		.global	FLASH_ProgramHalfWord
 1593              		.syntax unified
 1594              		.thumb
 1595              		.thumb_func
 1596              		.fpu fpv4-sp-d16
 1598              	FLASH_ProgramHalfWord:
 1599              	.LVL72:
 1600              	.LFB137:
 831:Drivers/STM32F4xx_StdPeriph_Driver/src/stm32f4xx_flash.c ****   FLASH_Status status = FLASH_COMPLETE;
 1601              		.loc 1 831 1 is_stmt 1 view -0
 1602              		.cfi_startproc
 1603              		@ args = 0, pretend = 0, frame = 0
 1604              		@ frame_needed = 0, uses_anonymous_args = 0
 831:Drivers/STM32F4xx_StdPeriph_Driver/src/stm32f4xx_flash.c ****   FLASH_Status status = FLASH_COMPLETE;
 1605              		.loc 1 831 1 is_stmt 0 view .LVU382
 1606 0000 70B5     		push	{r4, r5, r6, lr}
 1607              		.cfi_def_cfa_offset 16
 1608              		.cfi_offset 4, -16
 1609              		.cfi_offset 5, -12
